; Listing generated by Microsoft (R) Optimizing Compiler Version 19.29.30159.0 

	TTL	C:\Users\paras\source\repos\grep-name\XenevaOS\KernelAA64\ARM64\Debug\aa64cpu.obj
	ARM64

	AREA	|.drectve|, DRECTVE


	AREA	|.data|, DATA
	 COMMON	|basisTime|, 0x8

	 COMMON	|cpuFrequency|, 0x8

	EXPORT	|aa64_data_cache_clean_range|
	EXPORT	|aa64_dc_cvac_range|
	EXPORT	|aa64_dc_ivac_range|
	EXPORT	|AA64CpuInitialize|
	EXPORT	|AA64CPUPostInitialize|
	EXPORT	|AA64SleepUS|
	EXPORT	|AA64SleepMS|
	EXPORT	|AA64GetPhysicalTimerCount|
	EXPORT	|AA64FPUNeonEnable|
	EXPORT	|AA64ClockInitialize|
	EXPORT	|get_cache_line_sz|
	EXPORT	|AA64CPUImplementer|
	EXPORT	|AA64TimerSetup|
	IMPORT	|dsb_ish|
	IMPORT	|dsb_sy_barrier|
	IMPORT	|isb_flush|
	IMPORT	|get_cntpct_el0|
	IMPORT	|get_cntfrq_el0|
	IMPORT	|get_cpacr_el1|
	IMPORT	|set_cpacr_el1|
	IMPORT	|read_ctr_el0|
	IMPORT	|setupTimerIRQ|
	IMPORT	|suspendTimer|
	IMPORT	|enable_irqs|
	IMPORT	|mask_irqs|
	IMPORT	|dc_cvac|
	IMPORT	|read_midr|
	IMPORT	|dc_ivac|
	IMPORT	|data_cache_flush|
	IMPORT	|AA64InitializeVectorTable|
	IMPORT	|GICInitialize|
	IMPORT	|GICEnableIRQ|
	IMPORT	|GICClearPendingIRQ|
	IMPORT	|AuTextOut|
	IMPORT	|AuACPIInitialise|
	IMPORT	|UARTInitialize|
	IMPORT	|AuLittleBootUsed|
	IMPORT	|AA64PCIeInitialize|
	IMPORT	|AuAA64BoardSleepUS|
	IMPORT	|AuAA64BoardSleepMS|
	IMPORT	|enableAlignCheck|

	AREA	|.pdata|, PDATA
|$pdata$aa64_data_cache_clean_range| DCD imagerel |$LN6|
	DCD	0x2200081
	;Flags[SingleProEpi] functionLength[128] RegF[0] RegI[0] H[0] frameChainReturn[UnChainedSavedLR] frameSize[64]
|$pdata$aa64_dc_cvac_range| DCD imagerel |$LN6|
	DCD	0x22000a9
	;Flags[SingleProEpi] functionLength[168] RegF[0] RegI[0] H[0] frameChainReturn[UnChainedSavedLR] frameSize[64]
|$pdata$aa64_dc_ivac_range| DCD imagerel |$LN6|
	DCD	0x22000a9
	;Flags[SingleProEpi] functionLength[168] RegF[0] RegI[0] H[0] frameChainReturn[UnChainedSavedLR] frameSize[64]
|$pdata$AA64CpuInitialize| DCD imagerel |$LN4|
	DCD	0x1200069
	;Flags[SingleProEpi] functionLength[104] RegF[0] RegI[0] H[0] frameChainReturn[UnChainedSavedLR] frameSize[32]
|$pdata$AA64CPUPostInitialize| DCD imagerel |$LN3|
	DCD	0x1200061
	;Flags[SingleProEpi] functionLength[96] RegF[0] RegI[0] H[0] frameChainReturn[UnChainedSavedLR] frameSize[32]
|$pdata$AA64SleepUS| DCD imagerel |$LN3|
	DCD	0x1200021
	;Flags[SingleProEpi] functionLength[32] RegF[0] RegI[0] H[0] frameChainReturn[UnChainedSavedLR] frameSize[32]
|$pdata$AA64SleepMS| DCD imagerel |$LN3|
	DCD	0x1200021
	;Flags[SingleProEpi] functionLength[32] RegF[0] RegI[0] H[0] frameChainReturn[UnChainedSavedLR] frameSize[32]
|$pdata$AA64GetPhysicalTimerCount| DCD imagerel |$LN3|
	DCD	0x1200029
	;Flags[SingleProEpi] functionLength[40] RegF[0] RegI[0] H[0] frameChainReturn[UnChainedSavedLR] frameSize[32]
|$pdata$AA64FPUNeonEnable| DCD imagerel |$LN3|
	DCD	0x1200039
	;Flags[SingleProEpi] functionLength[56] RegF[0] RegI[0] H[0] frameChainReturn[UnChainedSavedLR] frameSize[32]
|$pdata$AA64ClockInitialize| DCD imagerel |$LN4|
	DCD	0x1200065
	;Flags[SingleProEpi] functionLength[100] RegF[0] RegI[0] H[0] frameChainReturn[UnChainedSavedLR] frameSize[32]
|$pdata$get_cache_line_sz| DCD imagerel |$LN3|
	DCD	0x120003d
	;Flags[SingleProEpi] functionLength[60] RegF[0] RegI[0] H[0] frameChainReturn[UnChainedSavedLR] frameSize[32]
|$pdata$AA64CPUImplementer| DCD imagerel |$LN52|
	DCD	0x120010d
	;Flags[SingleProEpi] functionLength[268] RegF[0] RegI[0] H[0] frameChainReturn[UnChainedSavedLR] frameSize[32]
|$pdata$AA64TimerSetup| DCD imagerel |$LN3|
	DCD	0xa00025
	;Flags[SingleProEpi] functionLength[36] RegF[0] RegI[0] H[0] frameChainReturn[UnChainedSavedLR] frameSize[16]

	AREA	|.data|, DATA
|$SG2982| DCB	"[aurora]: using %d mHZ ", 0xd, 0xa, 0x0
	%	6
|$SG3038| DCB	"CPU Implementer: ARM Limited ", 0xd, 0xa, 0x0
|$SG3040| DCB	"CPU Implementer: Broadcom ", 0xd, 0xa, 0x0
	%	3
|$SG3042| DCB	"CPU Implementer: Cavium ", 0xd, 0xa, 0x0
	%	5
|$SG3044| DCB	"CPU Implementer: Fujitsu ", 0xd, 0xa, 0x0
	%	4
|$SG3046| DCB	"CPU Implementer: Intel ", 0xd, 0xa, 0x0
	%	6
|$SG3048| DCB	"CPU Implementer: Applied Micro ", 0xd, 0xa, 0x0
	%	6
|$SG3050| DCB	"CPU Implementer: Qualcomm ", 0xd, 0xa, 0x0
	%	3
|$SG3052| DCB	"CPU Implementer: Marvell ", 0xd, 0xa, 0x0
	%	4
|$SG3054| DCB	"CPU Implementer: Apple ", 0xd, 0xa, 0x0
	%	6
|$SG3056| DCB	"CPU Implementer: Unknown ", 0xd, 0xa, 0x0
	%	4
|$SG3073| DCB	"[aurora]: cpu post initialized ", 0xd, 0xa, 0x0
; Function compile flags: /Odtpy
; File C:\Users\paras\source\repos\grep-name\XenevaOS\KernelAA64\Hal\aa64cpu.c

	AREA	|.text$mn|, CODE, ARM64

|AA64TimerSetup| PROC

; 219  : void AA64TimerSetup() {

|$LN3|
	str         lr,[sp,#-0x10]!

; 220  : #ifdef __TARGET_BOARD_RPI3__
; 221  : 	/* already enabled during bcm2836-armctl-ic initialization */
; 222  : 	return;
; 223  : #else
; 224  : 	setupTimerIRQ();

	bl          setupTimerIRQ

; 225  : 	GICEnableIRQ(27);

	mov         w0,#0x1B
	bl          GICEnableIRQ

; 226  : 	GICClearPendingIRQ(27);

	mov         w0,#0x1B
	bl          GICClearPendingIRQ

; 227  : 	isb_flush();

	bl          isb_flush
	ldr         lr,[sp],#0x10
	ret

	ENDP  ; |AA64TimerSetup|

; Function compile flags: /Odtpy
; File C:\Users\paras\source\repos\grep-name\XenevaOS\KernelAA64\Hal\aa64cpu.c

	AREA	|.text$mn|, CODE, ARM64

|AA64CPUImplementer| PROC

; 128  : void AA64CPUImplementer(uint32_t midr) {

|$LN52|
	str         lr,[sp,#-0x10]!
	sub         sp,sp,#0x10
	str         w0,[sp,#8]

; 129  : 	uint8_t iid = (midr >> 24) & 0xFF;

	ldr         w8,[sp,#8]
	lsr         w8,w8,#0x18
	uxtb        w8,w8
	strb        w8,[sp]

; 130  : 	uint8_t arch = (midr >> 16) & 0xF;

	ldr         w8,[sp,#8]
	ubfx        w8,w8,#0x10,#4
	uxtb        w8,w8
	strb        w8,[sp,#1]

; 131  : 	switch (iid) {

	ldrb        w8,[sp]
	mov         w8,w8
	str         w8,[sp,#4]
	ldr         w8,[sp,#4]
	sub         w8,w8,#0x41
	str         w8,[sp,#4]
	ldr         w8,[sp,#4]
	cmp         w8,#0x20
	bhi         |$LN13@AA64CPUImp|
	ldr         w10,[sp,#4]
	adr         x9,__swt
	ldrsb       x8,[x9,w10 uxtw #0]
	add         x8,x9,x8,lsl #2
	br          x8
|$LN4@AA64CPUImp|

; 132  : 	case CPU_IMPLEMENTER_ARM:
; 133  : 		AuTextOut("CPU Implementer: ARM Limited \r\n");

	adrp        x8,|$SG3038|
	add         x0,x8,PageOffset(|$SG3038|)
	bl          AuTextOut

; 134  : 		break;

	b           |$LN2@AA64CPUImp|
|$LN5@AA64CPUImp|

; 135  : 	case CPU_IMPLEMENTER_BROADCOM:
; 136  : 		AuTextOut("CPU Implementer: Broadcom \r\n");

	adrp        x8,|$SG3040|
	add         x0,x8,PageOffset(|$SG3040|)
	bl          AuTextOut

; 137  : 		break;

	b           |$LN2@AA64CPUImp|
|$LN6@AA64CPUImp|

; 138  : 	case CPU_IMPLEMENTER_CAVIUM:
; 139  : 		AuTextOut("CPU Implementer: Cavium \r\n");

	adrp        x8,|$SG3042|
	add         x0,x8,PageOffset(|$SG3042|)
	bl          AuTextOut

; 140  : 		break;

	b           |$LN2@AA64CPUImp|
|$LN7@AA64CPUImp|

; 141  : 	case CPU_IMPLEMENTER_FUJITSU:
; 142  : 		AuTextOut("CPU Implementer: Fujitsu \r\n");

	adrp        x8,|$SG3044|
	add         x0,x8,PageOffset(|$SG3044|)
	bl          AuTextOut

; 143  : 		break;

	b           |$LN2@AA64CPUImp|
|$LN8@AA64CPUImp|

; 144  : 	case CPU_IMPLEMENTER_INTEL:
; 145  : 		AuTextOut("CPU Implementer: Intel \r\n");

	adrp        x8,|$SG3046|
	add         x0,x8,PageOffset(|$SG3046|)
	bl          AuTextOut

; 146  : 		break;

	b           |$LN2@AA64CPUImp|
|$LN9@AA64CPUImp|

; 147  : 	case CPU_IMPLEMENTER_APPLIED_MICRO:
; 148  : 		AuTextOut("CPU Implementer: Applied Micro \r\n");

	adrp        x8,|$SG3048|
	add         x0,x8,PageOffset(|$SG3048|)
	bl          AuTextOut

; 149  : 		break;

	b           |$LN2@AA64CPUImp|
|$LN10@AA64CPUImp|

; 150  : 	case CPU_IMPLEMENTER_QUALCOMM:
; 151  : 		AuTextOut("CPU Implementer: Qualcomm \r\n");

	adrp        x8,|$SG3050|
	add         x0,x8,PageOffset(|$SG3050|)
	bl          AuTextOut

; 152  : 		break;

	b           |$LN2@AA64CPUImp|
|$LN11@AA64CPUImp|

; 153  : 	case CPU_IMPLEMENTER_MARVELL:
; 154  : 		AuTextOut("CPU Implementer: Marvell \r\n");

	adrp        x8,|$SG3052|
	add         x0,x8,PageOffset(|$SG3052|)
	bl          AuTextOut

; 155  : 		break;

	b           |$LN2@AA64CPUImp|
|$LN12@AA64CPUImp|

; 156  : 	case CPU_IMPLEMENTER_APPLE:
; 157  : 		AuTextOut("CPU Implementer: Apple \r\n");

	adrp        x8,|$SG3054|
	add         x0,x8,PageOffset(|$SG3054|)
	bl          AuTextOut

; 158  : 		break;

	b           |$LN2@AA64CPUImp|
|$LN13@AA64CPUImp|

; 159  : 	default:
; 160  : 		AuTextOut("CPU Implementer: Unknown \r\n");

	adrp        x8,|$SG3056|
	add         x0,x8,PageOffset(|$SG3056|)
	bl          AuTextOut
|$LN2@AA64CPUImp|
	add         sp,sp,#0x10
	ldr         lr,[sp],#0x10
	ret
|__swt|
|$LN16@AA64CPUImp|

; 131  : 	switch (iid) {

	DCB         0xd6
|$LN17@AA64CPUImp|
	DCB         0xda
|$LN18@AA64CPUImp|
	DCB         0xde
|$LN19@AA64CPUImp|
	DCB         0xfa
|$LN20@AA64CPUImp|
	DCB         0xfa
|$LN21@AA64CPUImp|
	DCB         0xe2
|$LN22@AA64CPUImp|
	DCB         0xfa
|$LN23@AA64CPUImp|
	DCB         0xfa
|$LN24@AA64CPUImp|
	DCB         0xe6
|$LN25@AA64CPUImp|
	DCB         0xfa
|$LN26@AA64CPUImp|
	DCB         0xfa
|$LN27@AA64CPUImp|
	DCB         0xfa
|$LN28@AA64CPUImp|
	DCB         0xfa
|$LN29@AA64CPUImp|
	DCB         0xfa
|$LN30@AA64CPUImp|
	DCB         0xfa
|$LN31@AA64CPUImp|
	DCB         0xea
|$LN32@AA64CPUImp|
	DCB         0xee
|$LN33@AA64CPUImp|
	DCB         0xfa
|$LN34@AA64CPUImp|
	DCB         0xfa
|$LN35@AA64CPUImp|
	DCB         0xfa
|$LN36@AA64CPUImp|
	DCB         0xfa
|$LN37@AA64CPUImp|
	DCB         0xf2
|$LN38@AA64CPUImp|
	DCB         0xfa
|$LN39@AA64CPUImp|
	DCB         0xfa
|$LN40@AA64CPUImp|
	DCB         0xfa
|$LN41@AA64CPUImp|
	DCB         0xfa
|$LN42@AA64CPUImp|
	DCB         0xfa
|$LN43@AA64CPUImp|
	DCB         0xfa
|$LN44@AA64CPUImp|
	DCB         0xfa
|$LN45@AA64CPUImp|
	DCB         0xfa
|$LN46@AA64CPUImp|
	DCB         0xfa
|$LN47@AA64CPUImp|
	DCB         0xfa
|$LN48@AA64CPUImp|
	DCB         0xf6
|$LN49@AA64CPUImp|
	DCB         0xf6
|$LN50@AA64CPUImp|
	DCB         0xf6
|$LN51@AA64CPUImp|
	DCB         0xf6

	ENDP  ; |AA64CPUImplementer|

; Function compile flags: /Odtpy
; File C:\Users\paras\source\repos\grep-name\XenevaOS\KernelAA64\Hal\aa64cpu.c

	AREA	|.text$mn|, CODE, ARM64

|get_cache_line_sz| PROC

; 89   : uint32_t get_cache_line_sz() {

|$LN3|
	str         lr,[sp,#-0x10]!
	sub         sp,sp,#0x10

; 90   : 	uint64_t ctr = read_ctr_el0();

	bl          read_ctr_el0
	str         x0,[sp,#8]

; 91   : 	uint32_t dminline = (ctr >> 16) & 0xF;

	ldr         x8,[sp,#8]
	ubfx        x8,x8,#0x10,#4
	mov         w8,w8
	str         w8,[sp]

; 92   : 	return (4 << dminline);

	mov         w9,#4
	ldr         w8,[sp]
	lsl         w0,w9,w8
	mov         w0,w0
	add         sp,sp,#0x10
	ldr         lr,[sp],#0x10
	ret

	ENDP  ; |get_cache_line_sz|

; Function compile flags: /Odtpy
; File C:\Users\paras\source\repos\grep-name\XenevaOS\KernelAA64\Hal\aa64cpu.c

	AREA	|.text$mn|, CODE, ARM64

|AA64ClockInitialize| PROC

; 67   : void AA64ClockInitialize() {

|$LN4|
	str         lr,[sp,#-0x10]!
	sub         sp,sp,#0x10

; 68   : 	uint64_t val = get_cntfrq_el0();

	bl          get_cntfrq_el0
	str         x0,[sp]

; 69   : 	cpuFrequency = val / 10000;

	ldr         x9,[sp]
	mov         x8,#0x2710
	udiv        x9,x9,x8
	adrp        x8,cpuFrequency
	str         x9,[x8,PageOffset(cpuFrequency)]

; 70   : 
; 71   : 	basisTime = AA64GetPhysicalTimerCount() / cpuFrequency;

	bl          AA64GetPhysicalTimerCount
	adrp        x8,cpuFrequency
	ldr         x8,[x8,PageOffset(cpuFrequency)]
	cbnz        x8,|$LN3@AA64ClockI|
	brk         #0xF004
|$LN3@AA64ClockI|
	udiv        x9,x0,x8
	adrp        x8,basisTime
	str         x9,[x8,PageOffset(basisTime)]

; 72   : 	AuTextOut("[aurora]: using %d mHZ \r\n", cpuFrequency);

	adrp        x8,cpuFrequency
	ldr         x1,[x8,PageOffset(cpuFrequency)]
	adrp        x8,|$SG2982|
	add         x0,x8,PageOffset(|$SG2982|)
	bl          AuTextOut
	add         sp,sp,#0x10
	ldr         lr,[sp],#0x10
	ret

	ENDP  ; |AA64ClockInitialize|

; Function compile flags: /Odtpy
; File C:\Users\paras\source\repos\grep-name\XenevaOS\KernelAA64\Hal\aa64cpu.c

	AREA	|.text$mn|, CODE, ARM64

|AA64FPUNeonEnable| PROC

; 57   : void AA64FPUNeonEnable() {

|$LN3|
	str         lr,[sp,#-0x10]!
	sub         sp,sp,#0x10

; 58   : 	uint64_t cpacr_el1 = get_cpacr_el1();

	bl          get_cpacr_el1
	str         x0,[sp]

; 59   : 	cpacr_el1 |= (3 << 20) | (3 << 16);

	ldr         x9,[sp]
	mov         x8,#0x330000
	orr         x8,x9,x8
	str         x8,[sp]

; 60   : 	set_cpacr_el1(cpacr_el1);

	ldr         x0,[sp]
	bl          set_cpacr_el1

; 61   : 	isb_flush();

	bl          isb_flush
	add         sp,sp,#0x10
	ldr         lr,[sp],#0x10
	ret

	ENDP  ; |AA64FPUNeonEnable|

; Function compile flags: /Odtpy
; File C:\Users\paras\source\repos\grep-name\XenevaOS\KernelAA64\Hal\aa64cpu.c

	AREA	|.text$mn|, CODE, ARM64

|AA64GetPhysicalTimerCount| PROC

; 48   : uint64_t AA64GetPhysicalTimerCount() {

|$LN3|
	str         lr,[sp,#-0x10]!
	sub         sp,sp,#0x10

; 49   : 	uint64_t val = get_cntpct_el0();

	bl          get_cntpct_el0
	str         x0,[sp]

; 50   : 	return val * 100;

	ldr         x9,[sp]
	mov         x8,#0x64
	mul         x0,x9,x8
	add         sp,sp,#0x10
	ldr         lr,[sp],#0x10
	ret

	ENDP  ; |AA64GetPhysicalTimerCount|

; Function compile flags: /Odtpy
; File C:\Users\paras\source\repos\grep-name\XenevaOS\KernelAA64\Hal\aa64cpu.c

	AREA	|.text$mn|, CODE, ARM64

|AA64SleepMS| PROC

; 178  : void AA64SleepMS(uint32_t ms) {

|$LN3|
	str         lr,[sp,#-0x10]!
	sub         sp,sp,#0x10
	str         w0,[sp]

; 179  : 	AuAA64BoardSleepMS(ms);

	ldr         w0,[sp]
	bl          AuAA64BoardSleepMS
	add         sp,sp,#0x10
	ldr         lr,[sp],#0x10
	ret

	ENDP  ; |AA64SleepMS|

; Function compile flags: /Odtpy
; File C:\Users\paras\source\repos\grep-name\XenevaOS\KernelAA64\Hal\aa64cpu.c

	AREA	|.text$mn|, CODE, ARM64

|AA64SleepUS| PROC

; 170  : void AA64SleepUS(uint32_t us) {

|$LN3|
	str         lr,[sp,#-0x10]!
	sub         sp,sp,#0x10
	str         w0,[sp]

; 171  : 	AuAA64BoardSleepUS(us);

	ldr         w0,[sp]
	bl          AuAA64BoardSleepUS
	add         sp,sp,#0x10
	ldr         lr,[sp],#0x10
	ret

	ENDP  ; |AA64SleepUS|

; Function compile flags: /Odtpy
; File C:\Users\paras\source\repos\grep-name\XenevaOS\KernelAA64\Hal\aa64cpu.c

	AREA	|.text$mn|, CODE, ARM64

|AA64CPUPostInitialize| PROC

; 235  : void AA64CPUPostInitialize(KERNEL_BOOT_INFO* info) {

|$LN3|
	str         lr,[sp,#-0x10]!
	sub         sp,sp,#0x10
	str         x0,[sp,#8]

; 236  : 	AuACPIInitialise(info->acpi_table_pointer);

	ldr         x8,[sp,#8]
	add         x8,x8,#0x58
	ldr         x0,[x8]
	bl          AuACPIInitialise

; 237  : 	UARTInitialize();

	bl          UARTInitialize

; 238  : 
; 239  : 	//enable_irqs();
; 240  : 	mask_irqs();

	bl          mask_irqs

; 241  : 	suspendTimer();

	bl          suspendTimer

; 242  : 	GICInitialize();

	bl          GICInitialize

; 243  : 	AA64TimerSetup();

	bl          AA64TimerSetup

; 244  : 
; 245  : 	//PS/2 Enable
; 246  : 
; 247  : 	uint32_t id = read_midr();

	bl          read_midr
	mov         w0,w0
	str         w0,[sp]

; 248  : 	AA64CPUImplementer(id);

	ldr         w0,[sp]
	bl          AA64CPUImplementer

; 249  : 	AA64PCIeInitialize();

	bl          AA64PCIeInitialize

; 250  : 	AuTextOut("[aurora]: cpu post initialized \r\n");

	adrp        x8,|$SG3073|
	add         x0,x8,PageOffset(|$SG3073|)
	bl          AuTextOut
	add         sp,sp,#0x10
	ldr         lr,[sp],#0x10
	ret

	ENDP  ; |AA64CPUPostInitialize|

; Function compile flags: /Odtpy
; File C:\Users\paras\source\repos\grep-name\XenevaOS\KernelAA64\Hal\aa64cpu.c

	AREA	|.text$mn|, CODE, ARM64

|AA64CpuInitialize| PROC

; 186  : void AA64CpuInitialize() {

|$LN4|
	str         lr,[sp,#-0x10]!
	sub         sp,sp,#0x10

; 187  : 	cpuFrequency = 0;

	adrp        x9,cpuFrequency
	mov         x8,#0
	str         x8,[x9,PageOffset(cpuFrequency)]

; 188  : 	basisTime = 0;

	adrp        x9,basisTime
	mov         x8,#0
	str         x8,[x9,PageOffset(basisTime)]

; 189  : 
; 190  : 	/*
; 191  : 	 * Initialize the vector table
; 192  : 	 */
; 193  : 	AA64InitializeVectorTable();

	bl          AA64InitializeVectorTable

; 194  : 
; 195  : 	/* Initialize the clock */
; 196  : 	AA64ClockInitialize();

	bl          AA64ClockInitialize

; 197  : 
; 198  : 	/* enable FPU and NEON */
; 199  : 	AA64FPUNeonEnable();

	bl          AA64FPUNeonEnable

; 200  : 
; 201  : 	/* because little boot always enable align check 
; 202  : 	 * so skip this
; 203  : 	 */
; 204  : 	if (!AuLittleBootUsed())

	bl          AuLittleBootUsed
	uxtb        w8,w0
	mov         w8,w8
	cmp         w8,#0
	bne         |$LN2@AA64CpuIni|

; 205  : 		enableAlignCheck();

	bl          enableAlignCheck
|$LN2@AA64CpuIni|

; 206  : 
; 207  : 	uint32_t id = read_midr();

	bl          read_midr
	mov         w0,w0
	str         w0,[sp]

; 208  : 	AA64CPUImplementer(id);

	ldr         w0,[sp]
	bl          AA64CPUImplementer

; 209  : 
; 210  : 	enable_irqs();

	bl          enable_irqs
	add         sp,sp,#0x10
	ldr         lr,[sp],#0x10
	ret

	ENDP  ; |AA64CpuInitialize|

; Function compile flags: /Odtpy
; File C:\Users\paras\source\repos\grep-name\XenevaOS\KernelAA64\Hal\aa64cpu.c

	AREA	|.text$mn|, CODE, ARM64

|aa64_dc_ivac_range| PROC

; 111  : void aa64_dc_ivac_range(void* addr, size_t sz) {

|$LN6|
	str         lr,[sp,#-0x10]!
	sub         sp,sp,#0x30
	str         x0,[sp,#0x18]
	str         x1,[sp,#0x20]

; 112  : 	size_t start = (size_t)addr;

	ldr         x8,[sp,#0x18]
	str         x8,[sp,#8]

; 113  : 	size_t end = start + sz;

	ldr         x9,[sp,#8]
	ldr         x8,[sp,#0x20]
	add         x8,x9,x8
	str         x8,[sp,#0x28]

; 114  : 
; 115  : 	uint32_t line_sz = get_cache_line_sz();

	bl          get_cache_line_sz
	mov         w0,w0
	str         w0,[sp]

; 116  : 
; 117  : 	start &= ~((uint64_t)(line_sz - 1));

	ldr         w8,[sp]
	sub         w8,w8,#1
	uxtw        x8,w8
	mvn         x9,x8
	ldr         x8,[sp,#8]
	and         x8,x8,x9
	str         x8,[sp,#8]

; 118  : 
; 119  : 	for (size_t p = start; p < end; p += line_sz) {

	ldr         x8,[sp,#8]
	str         x8,[sp,#0x10]
	b           |$LN4@aa64_dc_iv|
|$LN2@aa64_dc_iv|
	ldr         w8,[sp]
	uxtw        x9,w8
	ldr         x8,[sp,#0x10]
	add         x8,x8,x9
	str         x8,[sp,#0x10]
|$LN4@aa64_dc_iv|
	ldr         x9,[sp,#0x28]
	ldr         x8,[sp,#0x10]
	cmp         x8,x9
	bhs         |$LN3@aa64_dc_iv|

; 120  : 		dc_ivac(p);

	ldr         x0,[sp,#0x10]
	bl          dc_ivac

; 121  : 	}

	b           |$LN2@aa64_dc_iv|
|$LN3@aa64_dc_iv|

; 122  : 
; 123  : 	dsb_sy_barrier();

	bl          dsb_sy_barrier

; 124  : 	isb_flush();

	bl          isb_flush

; 125  : 	AA64SleepUS(100);

	mov         w0,#0x64
	bl          AA64SleepUS
	add         sp,sp,#0x30
	ldr         lr,[sp],#0x10
	ret

	ENDP  ; |aa64_dc_ivac_range|

; Function compile flags: /Odtpy
; File C:\Users\paras\source\repos\grep-name\XenevaOS\KernelAA64\Hal\aa64cpu.c

	AREA	|.text$mn|, CODE, ARM64

|aa64_dc_cvac_range| PROC

; 95   : void aa64_dc_cvac_range(void* addr, size_t sz) {

|$LN6|
	str         lr,[sp,#-0x10]!
	sub         sp,sp,#0x30
	str         x0,[sp,#0x18]
	str         x1,[sp,#0x20]

; 96   : 	uint64_t start = (uint64_t)addr;

	ldr         x8,[sp,#0x18]
	str         x8,[sp,#8]

; 97   : 	size_t end = start + sz;

	ldr         x9,[sp,#8]
	ldr         x8,[sp,#0x20]
	add         x8,x9,x8
	str         x8,[sp,#0x28]

; 98   : 
; 99   : 	uint32_t line_sz = get_cache_line_sz();

	bl          get_cache_line_sz
	mov         w0,w0
	str         w0,[sp]

; 100  : 	start &= ~((uint64_t)(line_sz - 1));

	ldr         w8,[sp]
	sub         w8,w8,#1
	uxtw        x8,w8
	mvn         x9,x8
	ldr         x8,[sp,#8]
	and         x8,x8,x9
	str         x8,[sp,#8]

; 101  : 	for (size_t p = start; p < end; p += line_sz) {

	ldr         x8,[sp,#8]
	str         x8,[sp,#0x10]
	b           |$LN4@aa64_dc_cv|
|$LN2@aa64_dc_cv|
	ldr         w8,[sp]
	uxtw        x9,w8
	ldr         x8,[sp,#0x10]
	add         x8,x8,x9
	str         x8,[sp,#0x10]
|$LN4@aa64_dc_cv|
	ldr         x9,[sp,#0x28]
	ldr         x8,[sp,#0x10]
	cmp         x8,x9
	bhs         |$LN3@aa64_dc_cv|

; 102  : 		dc_cvac(p);

	ldr         x0,[sp,#0x10]
	bl          dc_cvac

; 103  : 	}

	b           |$LN2@aa64_dc_cv|
|$LN3@aa64_dc_cv|

; 104  : 
; 105  : 	dsb_sy_barrier();

	bl          dsb_sy_barrier

; 106  : 	isb_flush();

	bl          isb_flush

; 107  : 	AA64SleepUS(100);

	mov         w0,#0x64
	bl          AA64SleepUS
	add         sp,sp,#0x30
	ldr         lr,[sp],#0x10
	ret

	ENDP  ; |aa64_dc_cvac_range|

; Function compile flags: /Odtpy
; File C:\Users\paras\source\repos\grep-name\XenevaOS\KernelAA64\Hal\aa64cpu.c

	AREA	|.text$mn|, CODE, ARM64

|aa64_data_cache_clean_range| PROC

; 76   : void aa64_data_cache_clean_range(void* addr, size_t size) {

|$LN6|
	str         lr,[sp,#-0x10]!
	sub         sp,sp,#0x30
	str         x0,[sp,#0x10]
	str         x1,[sp,#0x18]

; 77   : 	size_t start = (size_t)addr;

	ldr         x8,[sp,#0x10]
	str         x8,[sp]

; 78   : 	size_t end = start + size;

	ldr         x9,[sp]
	ldr         x8,[sp,#0x18]
	add         x8,x9,x8
	str         x8,[sp,#0x20]

; 79   : 
; 80   : 	start &= ~((uint64_t)(CACHE_LINE_SIZE - 1));

	ldr         x8,[sp]
	and         x8,x8,#-0x40
	str         x8,[sp]

; 81   : 	for (size_t p = start; p < end; p += CACHE_LINE_SIZE)

	ldr         x8,[sp]
	str         x8,[sp,#8]
	b           |$LN4@aa64_data_|
|$LN2@aa64_data_|
	ldr         x8,[sp,#8]
	add         x8,x8,#0x40
	str         x8,[sp,#8]
|$LN4@aa64_data_|
	ldr         x9,[sp,#0x20]
	ldr         x8,[sp,#8]
	cmp         x8,x9
	bhs         |$LN3@aa64_data_|

; 82   : 		data_cache_flush((uint64_t*)p);

	ldr         x0,[sp,#8]
	bl          data_cache_flush
	b           |$LN2@aa64_data_|
|$LN3@aa64_data_|

; 83   : 
; 84   : 	dsb_sy_barrier();

	bl          dsb_sy_barrier

; 85   : 	dsb_ish();

	bl          dsb_ish

; 86   : 	isb_flush();

	bl          isb_flush
	add         sp,sp,#0x30
	ldr         lr,[sp],#0x10
	ret

	ENDP  ; |aa64_data_cache_clean_range|

	END
