; Listing generated by Microsoft (R) Optimizing Compiler Version 19.29.30159.0 

	TTL	C:\Users\paras\source\repos\grep-name\XenevaOS\KernelAA64\ARM64\Debug\arp.obj
	ARM64

	AREA	|.drectve|, DRECTVE


	AREA	|.data|, DATA
	 COMMON	|arp_list|, 0x8

	EXPORT	|ARPProtocolInitialise|
	EXPORT	|ARPProtocolAdd|
	EXPORT	|AuARPGet|
	EXPORT	|AuARPRequestMAC|
	EXPORT	|ARPHandlePacket|
	IMPORT	|initialize_list|
	IMPORT	|list_add|
	IMPORT	|list_get_at|
	IMPORT	|AuEthernetSend|
	IMPORT	|memset|
	IMPORT	|memcpy|
	IMPORT	|kmalloc|
	IMPORT	|kfree|
	IMPORT	|UARTDebugOut|
	IMPORT	|ip_ntoa|

	AREA	|.pdata|, PDATA
|$pdata$ARPProtocolInitialise| DCD imagerel |$LN3|
	DCD	0xa00019
	;Flags[SingleProEpi] functionLength[24] RegF[0] RegI[0] H[0] frameChainReturn[UnChainedSavedLR] frameSize[16]
|$pdata$ARPProtocolAdd| DCD imagerel |$LN3|
	DCD	0x1a0007d
	;Flags[SingleProEpi] functionLength[124] RegF[0] RegI[0] H[0] frameChainReturn[UnChainedSavedLR] frameSize[48]
|$pdata$AuARPGet| DCD imagerel |$LN7|
	DCD	0x12000f5
	;Flags[SingleProEpi] functionLength[244] RegF[0] RegI[0] H[0] frameChainReturn[UnChainedSavedLR] frameSize[32]
|$pdata$AuARPRequestMAC| DCD imagerel |$LN5|
	DCD	0x2200131
	;Flags[SingleProEpi] functionLength[304] RegF[0] RegI[0] H[0] frameChainReturn[UnChainedSavedLR] frameSize[64]
|$pdata$ARPHandlePacket| DCD imagerel |$LN11|
	DCD	0x2a0036d
	;Flags[SingleProEpi] functionLength[876] RegF[0] RegI[0] H[0] frameChainReturn[UnChainedSavedLR] frameSize[80]

	AREA	|.data|, DATA
|$SG3004| DCB	"[aurora]: ARP Checking ", 0xd, 0xa, 0x0
	%	6
|$SG3021| DCB	"[aurora]: ARP Requesting MAC ", 0xd, 0xa, 0x0
|$SG3040| DCB	"[aurora]: net ARP added ", 0xd, 0xa, 0x0
; Function compile flags: /Odtpy
; File C:\Users\paras\source\repos\grep-name\XenevaOS\KernelAA64\Net\arp.c

	AREA	|.text$mn|, CODE, ARM64

|ARPHandlePacket| PROC

; 114  : void ARPHandlePacket(void* data, AuVFSNode* nic) {

|$LN11|
	str         lr,[sp,#-0x10]!
	sub         sp,sp,#0x40
	str         x0,[sp,#0x18]
	str         x1,[sp,#0x10]

; 115  : 	AuNetworkDevice* eth = (AuNetworkDevice*)nic->device;

	ldr         x8,[sp,#0x10]
	add         x8,x8,#0x50
	ldr         x8,[x8]
	str         x8,[sp,#8]

; 116  : 	if (!eth)

	ldr         x8,[sp,#8]
	cmp         x8,#0
	bne         |$LN2@ARPHandleP|

; 117  : 		return;

	b           |$LN1@ARPHandleP|
|$LN2@ARPHandleP|

; 118  : 	NetARP* packet = (NetARP*)data;

	ldr         x8,[sp,#0x18]
	str         x8,[sp]

; 119  : 	if (ntohs(packet->hwAddressType) == 1 && ntohs(packet->hwProtocolType) == ETHERNET_TYPE_IPV4) {

	ldr         x8,[sp]
	ldrh        w8,[x8]
	mov         w8,w8
	and         w8,w8,#0xFF
	lsl         w9,w8,#8
	ldr         x8,[sp]
	ldrh        w8,[x8]
	mov         w8,w8
	and         w8,w8,#0xFF00
	asr         w8,w8,#8
	orr         w8,w9,w8
	cmp         w8,#1
	bne         |$LN3@ARPHandleP|
	ldr         x8,[sp]
	add         x8,x8,#2
	ldrh        w8,[x8]
	mov         w8,w8
	and         w8,w8,#0xFF
	lsl         w9,w8,#8
	ldr         x8,[sp]
	add         x8,x8,#2
	ldrh        w8,[x8]
	mov         w8,w8
	and         w8,w8,#0xFF00
	asr         w8,w8,#8
	orr         w8,w9,w8
	cmp         w8,#0x800
	bne         |$LN3@ARPHandleP|

; 120  : 		if (packet->arp_data.arp_eth_ipv4.arp_spa) {

	ldr         x8,[sp]
	add         x8,x8,#0xE
	ldr         w8,[x8]
	cmp         w8,#0
	beq         |$LN4@ARPHandleP|

; 121  : 			if (!AuARPGet(packet->arp_data.arp_eth_ipv4.arp_spa)) {

	ldr         x8,[sp]
	add         x8,x8,#0xE
	ldr         w0,[x8]
	bl          AuARPGet
	cmp         x0,#0
	bne         |$LN5@ARPHandleP|

; 122  : 				UARTDebugOut("[aurora]: net ARP added \r\n");

	adrp        x8,|$SG3040|
	add         x0,x8,PageOffset(|$SG3040|)
	bl          UARTDebugOut

; 123  : 				ARPProtocolAdd(nic, packet->arp_data.arp_eth_ipv4.arp_spa, packet->arp_data.arp_eth_ipv4.arp_sha);

	ldr         x8,[sp]
	add         x2,x8,#8
	ldr         x8,[sp]
	add         x8,x8,#0xE
	ldr         w1,[x8]
	ldr         x0,[sp,#0x10]
	bl          ARPProtocolAdd
|$LN5@ARPHandleP|
|$LN4@ARPHandleP|
|$LN3@ARPHandleP|

; 124  : 			}
; 125  : 		}
; 126  : 	}
; 127  : 	if (ntohs(packet->operation) == 1) {

	ldr         x8,[sp]
	add         x8,x8,#6
	ldrh        w8,[x8]
	mov         w8,w8
	and         w8,w8,#0xFF
	lsl         w9,w8,#8
	ldr         x8,[sp]
	add         x8,x8,#6
	ldrh        w8,[x8]
	mov         w8,w8
	and         w8,w8,#0xFF00
	asr         w8,w8,#8
	orr         w8,w9,w8
	cmp         w8,#1
	bne         |$LN6@ARPHandleP|

; 128  : 		char spa[17];
; 129  : 		ip_ntoa(ntohl(packet->arp_data.arp_eth_ipv4.arp_spa));

	ldr         x8,[sp]
	add         x8,x8,#0xE
	ldr         w8,[x8]
	and         w8,w8,#0xFF
	lsl         w9,w8,#0x18
	ldr         x8,[sp]
	add         x8,x8,#0xE
	ldr         w8,[x8]
	and         w8,w8,#0xFF00
	lsl         w8,w8,#8
	orr         w9,w9,w8
	ldr         x8,[sp]
	add         x8,x8,#0xE
	ldr         w8,[x8]
	and         w8,w8,#0xFF0000
	lsr         w8,w8,#8
	orr         w9,w9,w8
	ldr         x8,[sp]
	add         x8,x8,#0xE
	ldr         w8,[x8]
	and         w8,w8,#0xFF000000
	lsr         w8,w8,#0x18
	orr         w0,w9,w8
	mov         w0,w0
	bl          ip_ntoa

; 130  : 		char tpa[17];
; 131  : 		ip_ntoa(ntohl(packet->arp_data.arp_eth_ipv4.arp_tpa));

	ldr         x8,[sp]
	add         x8,x8,#0x18
	ldr         w8,[x8]
	and         w8,w8,#0xFF
	lsl         w9,w8,#0x18
	ldr         x8,[sp]
	add         x8,x8,#0x18
	ldr         w8,[x8]
	and         w8,w8,#0xFF00
	lsl         w8,w8,#8
	orr         w9,w9,w8
	ldr         x8,[sp]
	add         x8,x8,#0x18
	ldr         w8,[x8]
	and         w8,w8,#0xFF0000
	lsr         w8,w8,#8
	orr         w9,w9,w8
	ldr         x8,[sp]
	add         x8,x8,#0x18
	ldr         w8,[x8]
	and         w8,w8,#0xFF000000
	lsr         w8,w8,#0x18
	orr         w0,w9,w8
	mov         w0,w0
	bl          ip_ntoa

; 132  : 		if (eth->ipv4addr && packet->arp_data.arp_eth_ipv4.arp_tpa == eth->ipv4addr) {

	ldr         x8,[sp,#8]
	add         x8,x8,#0x10
	ldr         w8,[x8]
	cmp         w8,#0
	beq         |$LN8@ARPHandleP|
	ldr         x8,[sp]
	add         x10,x8,#0x18
	ldr         x8,[sp,#8]
	add         x8,x8,#0x10
	ldr         w9,[x8]
	ldr         w8,[x10]
	cmp         w8,w9
	bne         |$LN8@ARPHandleP|

; 133  : 			NetARP arp;
; 134  : 			arp.hwAddressType = htons(1);

	mov         w8,#0x100
	strh        w8,[sp,#0x20]

; 135  : 			arp.hwProtocolType = htons(ETHERNET_TYPE_IPV4);

	mov         w8,#8
	strh        w8,[sp,#0x22]

; 136  : 			arp.hwAddressSize = 6;

	mov         w8,#6
	strb        w8,[sp,#0x24]

; 137  : 			arp.protocolSize = 4;

	mov         w8,#4
	strb        w8,[sp,#0x25]

; 138  : 			arp.operation = htons(2);

	mov         w8,#0x200
	strh        w8,[sp,#0x26]

; 139  : 			memcpy(arp.arp_data.arp_eth_ipv4.arp_sha, eth->mac, 6);

	ldr         x1,[sp,#8]
	mov         x2,#6
	add         x0,sp,#0x28
	bl          memcpy

; 140  : 			memcpy(arp.arp_data.arp_eth_ipv4.arp_tha, packet->arp_data.arp_eth_ipv4.arp_sha, 6);

	ldr         x8,[sp]
	add         x1,x8,#8
	mov         x2,#6
	add         x0,sp,#0x32
	bl          memcpy

; 141  : 			arp.arp_data.arp_eth_ipv4.arp_spa = eth->ipv4addr;

	ldr         x8,[sp,#8]
	add         x8,x8,#0x10
	ldr         w8,[x8]
	stur        w8,[sp,#0x2E]

; 142  : 			arp.arp_data.arp_eth_ipv4.arp_tpa = packet->arp_data.arp_eth_ipv4.arp_spa;

	ldr         x8,[sp]
	add         x8,x8,#0xE
	ldr         w8,[x8]
	str         w8,[sp,#0x38]

; 143  : 			AuEthernetSend(nic, &arp, sizeof(NetARP), ETHERNET_TYPE_ARP, packet->arp_data.arp_eth_ipv4.arp_sha);

	ldr         x8,[sp]
	add         x4,x8,#8
	mov         w3,#0x806
	mov         x2,#0x1C
	add         x1,sp,#0x20
	ldr         x0,[sp,#0x10]
	bl          AuEthernetSend
|$LN8@ARPHandleP|

; 144  : 		}
; 145  : 	}

	b           |$LN7@ARPHandleP|
|$LN6@ARPHandleP|

; 146  : 	else if (ntohs(packet->operation) == 2) {

	ldr         x8,[sp]
	add         x8,x8,#6
	ldrh        w8,[x8]
	mov         w8,w8
	and         w8,w8,#0xFF
	lsl         w9,w8,#8
	ldr         x8,[sp]
	add         x8,x8,#6
	ldrh        w8,[x8]
	mov         w8,w8
	and         w8,w8,#0xFF00
	asr         w8,w8,#8
	orr         w8,w9,w8
	cmp         w8,#2
	bne         |$LN9@ARPHandleP|

; 147  : 		char spa[17];
; 148  : 		ip_ntoa(ntohl(packet->arp_data.arp_eth_ipv4.arp_spa));

	ldr         x8,[sp]
	add         x8,x8,#0xE
	ldr         w8,[x8]
	and         w8,w8,#0xFF
	lsl         w9,w8,#0x18
	ldr         x8,[sp]
	add         x8,x8,#0xE
	ldr         w8,[x8]
	and         w8,w8,#0xFF00
	lsl         w8,w8,#8
	orr         w9,w9,w8
	ldr         x8,[sp]
	add         x8,x8,#0xE
	ldr         w8,[x8]
	and         w8,w8,#0xFF0000
	lsr         w8,w8,#8
	orr         w9,w9,w8
	ldr         x8,[sp]
	add         x8,x8,#0xE
	ldr         w8,[x8]
	and         w8,w8,#0xFF000000
	lsr         w8,w8,#0x18
	orr         w0,w9,w8
	mov         w0,w0
	bl          ip_ntoa
|$LN9@ARPHandleP|
|$LN7@ARPHandleP|
|$LN1@ARPHandleP|
	add         sp,sp,#0x40
	ldr         lr,[sp],#0x10
	ret

	ENDP  ; |ARPHandlePacket|

; Function compile flags: /Odtpy
; File C:\Users\paras\source\repos\grep-name\XenevaOS\KernelAA64\Net\arp.c

	AREA	|.text$mn|, CODE, ARM64

|AuARPRequestMAC| PROC

; 84   : void AuARPRequestMAC(AuVFSNode* nic, uint32_t addr) {

|$LN5|
	str         lr,[sp,#-0x10]!
	sub         sp,sp,#0x30
	str         x0,[sp,#0x20]
	str         w1,[sp]

; 85   : 	AuNetworkDevice* ndev = (AuNetworkDevice*)nic->device;

	ldr         x8,[sp,#0x20]
	add         x8,x8,#0x50
	ldr         x8,[x8]
	str         x8,[sp,#0x18]

; 86   : 	if (!ndev)

	ldr         x8,[sp,#0x18]
	cmp         x8,#0
	bne         |$LN2@AuARPReque|

; 87   : 		return;

	b           |$LN1@AuARPReque|
|$LN2@AuARPReque|

; 88   : 	NetARP* arp = (NetARP*)kmalloc(sizeof(NetARP));

	mov         w0,#0x1C
	bl          kmalloc
	str         x0,[sp,#0x10]

; 89   : 	memset(arp, 0, sizeof(NetARP));

	mov         w2,#0x1C
	mov         w1,#0
	ldr         x0,[sp,#0x10]
	bl          memset

; 90   : 	arp->hwAddressType = htons(1); //0x0100;

	ldr         x9,[sp,#0x10]
	mov         w8,#0x100
	strh        w8,[x9]

; 91   : 	arp->hwProtocolType = htons(ETHERNET_TYPE_IPV4);

	ldr         x8,[sp,#0x10]
	add         x9,x8,#2
	mov         w8,#8
	strh        w8,[x9]

; 92   : 	arp->hwAddressSize = 6;

	ldr         x8,[sp,#0x10]
	add         x9,x8,#4
	mov         w8,#6
	strb        w8,[x9]

; 93   : 	arp->protocolSize = 4;

	ldr         x8,[sp,#0x10]
	add         x9,x8,#5
	mov         w8,#4
	strb        w8,[x9]

; 94   : 	arp->operation = htons(1);

	ldr         x8,[sp,#0x10]
	add         x9,x8,#6
	mov         w8,#0x100
	strh        w8,[x9]

; 95   : 
; 96   : 	arp->arp_data.arp_eth_ipv4.arp_tpa = addr;

	ldr         x8,[sp,#0x10]
	add         x9,x8,#0x18
	ldr         w8,[sp]
	str         w8,[x9]

; 97   : 	memcpy(arp->arp_data.arp_eth_ipv4.arp_sha, ndev->mac, 6);

	ldr         x1,[sp,#0x18]
	ldr         x8,[sp,#0x10]
	add         x0,x8,#8
	mov         x2,#6
	bl          memcpy

; 98   : 
; 99   : 	if (ndev->ipv4addr) {

	ldr         x8,[sp,#0x18]
	add         x8,x8,#0x10
	ldr         w8,[x8]
	cmp         w8,#0
	beq         |$LN3@AuARPReque|

; 100  : 		arp->arp_data.arp_eth_ipv4.arp_spa = ndev->ipv4addr;

	ldr         x8,[sp,#0x18]
	add         x10,x8,#0x10
	ldr         x8,[sp,#0x10]
	add         x9,x8,#0xE
	ldr         w8,[x10]
	str         w8,[x9]
|$LN3@AuARPReque|

; 101  : 	}
; 102  : 
; 103  : 	UARTDebugOut("[aurora]: ARP Requesting MAC \r\n");

	adrp        x8,|$SG3021|
	add         x0,x8,PageOffset(|$SG3021|)
	bl          UARTDebugOut

; 104  : 	uint8_t broadcast_mac[6];
; 105  : 	memset(broadcast_mac, 0xFF, 6);

	mov         w2,#6
	mov         w1,#0xFF
	add         x0,sp,#8
	bl          memset

; 106  : 	AuEthernetSend(nic, arp, sizeof(NetARP), ETHERNET_TYPE_ARP, broadcast_mac);

	add         x4,sp,#8
	mov         w3,#0x806
	mov         x2,#0x1C
	ldr         x1,[sp,#0x10]
	ldr         x0,[sp,#0x20]
	bl          AuEthernetSend

; 107  : 	/* here we need to call different interfaces depending
; 108  : 	 * on the nic node passed, ARP can be sent through different
; 109  : 	 * link layer other than Ethernet
; 110  : 	 */
; 111  : 	kfree(arp);

	ldr         x0,[sp,#0x10]
	bl          kfree
|$LN1@AuARPReque|
	add         sp,sp,#0x30
	ldr         lr,[sp],#0x10
	ret

	ENDP  ; |AuARPRequestMAC|

; Function compile flags: /Odtpy
; File C:\Users\paras\source\repos\grep-name\XenevaOS\KernelAA64\Net\arp.c

	AREA	|.text$mn|, CODE, ARM64

|AuARPGet| PROC

; 70   : AuARPCache* AuARPGet(uint32_t address) {

|$LN7|
	str         lr,[sp,#-0x10]!
	sub         sp,sp,#0x10
	str         w0,[sp,#4]

; 71   : 	UARTDebugOut("[aurora]: ARP Checking \r\n");

	adrp        x8,|$SG3004|
	add         x0,x8,PageOffset(|$SG3004|)
	bl          UARTDebugOut

; 72   : 	for (int i = 0; i < arp_list->pointer; i++) {

	mov         w8,#0
	str         w8,[sp]
	b           |$LN4@AuARPGet|
|$LN2@AuARPGet|
	ldr         w8,[sp]
	add         w8,w8,#1
	str         w8,[sp]
|$LN4@AuARPGet|
	adrp        x8,arp_list
	ldr         x8,[x8,PageOffset(arp_list)]
	ldr         w9,[x8]
	ldr         w8,[sp]
	cmp         w8,w9
	bhs         |$LN3@AuARPGet|

; 73   : 		AuARPCache* arp = (AuARPCache*)list_get_at(arp_list, i);

	ldr         w1,[sp]
	adrp        x8,arp_list
	ldr         x0,[x8,PageOffset(arp_list)]
	bl          list_get_at
	str         x0,[sp,#8]

; 74   : 		ip_ntoa(ntohl(arp->ipAddress));

	ldr         x8,[sp,#8]
	add         x8,x8,#8
	ldr         w8,[x8]
	and         w8,w8,#0xFF
	lsl         w9,w8,#0x18
	ldr         x8,[sp,#8]
	add         x8,x8,#8
	ldr         w8,[x8]
	and         w8,w8,#0xFF00
	lsl         w8,w8,#8
	orr         w9,w9,w8
	ldr         x8,[sp,#8]
	add         x8,x8,#8
	ldr         w8,[x8]
	and         w8,w8,#0xFF0000
	lsr         w8,w8,#8
	orr         w9,w9,w8
	ldr         x8,[sp,#8]
	add         x8,x8,#8
	ldr         w8,[x8]
	and         w8,w8,#0xFF000000
	lsr         w8,w8,#0x18
	orr         w0,w9,w8
	mov         w0,w0
	bl          ip_ntoa

; 75   : 		if (arp->ipAddress == address)

	ldr         x8,[sp,#8]
	add         x8,x8,#8
	ldr         w9,[sp,#4]
	ldr         w8,[x8]
	cmp         w8,w9
	bne         |$LN5@AuARPGet|

; 76   : 			return arp;

	ldr         x0,[sp,#8]
	b           |$LN1@AuARPGet|
|$LN5@AuARPGet|

; 77   : 	}

	b           |$LN2@AuARPGet|
|$LN3@AuARPGet|

; 78   : 	return NULL;

	mov         x0,#0
|$LN1@AuARPGet|
	add         sp,sp,#0x10
	ldr         lr,[sp],#0x10
	ret

	ENDP  ; |AuARPGet|

; Function compile flags: /Odtpy
; File C:\Users\paras\source\repos\grep-name\XenevaOS\KernelAA64\Net\arp.c

	AREA	|.text$mn|, CODE, ARM64

|ARPProtocolAdd| PROC

; 57   : void ARPProtocolAdd(AuVFSNode* nic, uint32_t address, uint8_t* hwaddr) {

|$LN3|
	str         lr,[sp,#-0x10]!
	sub         sp,sp,#0x20
	str         x0,[sp,#0x18]
	str         w1,[sp]
	str         x2,[sp,#0x10]

; 58   : 	AuARPCache* arpcache = (AuARPCache*)kmalloc(sizeof(AuARPCache));

	mov         w0,#0x18
	bl          kmalloc
	str         x0,[sp,#8]

; 59   : 	memset(arpcache, 0, sizeof(AuARPCache));

	mov         w2,#0x18
	mov         w1,#0
	ldr         x0,[sp,#8]
	bl          memset

; 60   : 	memcpy(arpcache->hw_address, hwaddr, 6);

	ldr         x0,[sp,#8]
	mov         x2,#6
	ldr         x1,[sp,#0x10]
	bl          memcpy

; 61   : 	arpcache->ipAddress = address;

	ldr         x8,[sp,#8]
	add         x9,x8,#8
	ldr         w8,[sp]
	str         w8,[x9]

; 62   : 	arpcache->nic = nic;

	ldr         x8,[sp,#8]
	add         x9,x8,#0x10
	ldr         x8,[sp,#0x18]
	str         x8,[x9]

; 63   : 	list_add(arp_list, arpcache);

	ldr         x1,[sp,#8]
	adrp        x8,arp_list
	ldr         x0,[x8,PageOffset(arp_list)]
	bl          list_add
	add         sp,sp,#0x20
	ldr         lr,[sp],#0x10
	ret

	ENDP  ; |ARPProtocolAdd|

; Function compile flags: /Odtpy
; File C:\Users\paras\source\repos\grep-name\XenevaOS\KernelAA64\Net\arp.c

	AREA	|.text$mn|, CODE, ARM64

|ARPProtocolInitialise| PROC

; 47   : void ARPProtocolInitialise() {

|$LN3|
	str         lr,[sp,#-0x10]!

; 48   : 	arp_list = initialize_list();

	bl          initialize_list
	adrp        x8,arp_list
	str         x0,[x8,PageOffset(arp_list)]
	ldr         lr,[sp],#0x10
	ret

	ENDP  ; |ARPProtocolInitialise|

	END
