; Listing generated by Microsoft (R) Optimizing Compiler Version 19.29.30159.0 

	TTL	C:\Users\paras\source\repos\grep-name\XenevaOS\KernelAA64\ARM64\Debug\aucon.obj
	ARM64

	AREA	|.drectve|, DRECTVE


	AREA	|.data|, DATA
	 COMMON	|font_data|, 0x8

	 COMMON	|console_x|, 0x4

	 COMMON	|console_y|, 0x4

	 COMMON	|__framebuffer|, 0x8

	 COMMON	|aucon|, 0x8

	 COMMON	|redmask|, 0x4

	 COMMON	|bluemask|, 0x4

	 COMMON	|greenmask|, 0x4

	 COMMON	|resvmask|, 0x4

	 COMMON	|h_res|, 0x8

	 COMMON	|v_res|, 0x8

	 COMMON	|early_|, 0x1

	 COMMON	|bypass_autextout|, 0x1

	 COMMON	|_print_func|, 0x8


	AREA	|.rdata|, DATA, READONLY
|bx_vgafont| DCB 0x0
	DCB	0x0
	DCB	0x0
	DCB	0x0
	DCB	0x0
	DCB	0x0
	DCB	0x0
	DCB	0x0
	DCB	0x0
	DCB	0x0
	DCB	0x0
	DCB	0x0
	DCB	0x0
	DCB	0x0
	DCB	0x0
	DCB	0x0
	DCB	0x0
	DCB	0x0
	DCB	0x7e
	DCB	0x81
	DCB	0xa5
	DCB	0x81
	DCB	0x81
	DCB	0xa5
	DCB	0x99
	DCB	0x81
	DCB	0x81
	DCB	0x7e
	DCB	0x0
	DCB	0x0
	DCB	0x0
	DCB	0x0
	DCB	0x0
	DCB	0x0
	DCB	0x7e
	DCB	0xff
	DCB	0xdb
	DCB	0xff
	DCB	0xff
	DCB	0xdb
	DCB	0xe7
	DCB	0xff
	DCB	0xff
	DCB	0x7e
	DCB	0x0
	DCB	0x0
	DCB	0x0
	DCB	0x0
	DCB	0x0
	DCB	0x0
	DCB	0x0
	DCB	0x0
	DCB	0x36
	DCB	0x7f
	DCB	0x7f
	DCB	0x7f
	DCB	0x7f
	DCB	0x3e
	DCB	0x1c
	DCB	0x8
	DCB	0x0
	DCB	0x0
	DCB	0x0
	DCB	0x0
	DCB	0x0
	DCB	0x0
	DCB	0x0
	DCB	0x0
	DCB	0x8
	DCB	0x1c
	DCB	0x3e
	DCB	0x7f
	DCB	0x3e
	DCB	0x1c
	DCB	0x8
	DCB	0x0
	DCB	0x0
	DCB	0x0
	DCB	0x0
	DCB	0x0
	DCB	0x0
	DCB	0x0
	DCB	0x0
	DCB	0x18
	DCB	0x3c
	DCB	0x3c
	DCB	0xe7
	DCB	0xe7
	DCB	0xe7
	DCB	0x18
	DCB	0x18
	DCB	0x3c
	DCB	0x0
	DCB	0x0
	DCB	0x0
	DCB	0x0
	DCB	0x0
	DCB	0x0
	DCB	0x0
	DCB	0x18
	DCB	0x3c
	DCB	0x7e
	DCB	0xff
	DCB	0xff
	DCB	0x7e
	DCB	0x18
	DCB	0x18
	DCB	0x3c
	DCB	0x0
	DCB	0x0
	DCB	0x0
	DCB	0x0
	DCB	0x0
	DCB	0x0
	DCB	0x0
	DCB	0x0
	DCB	0x0
	DCB	0x0
	DCB	0x18
	DCB	0x3c
	DCB	0x3c
	DCB	0x18
	DCB	0x0
	DCB	0x0
	DCB	0x0
	DCB	0x0
	DCB	0x0
	DCB	0x0
	DCB	0xff
	DCB	0xff
	DCB	0xff
	DCB	0xff
	DCB	0xff
	DCB	0xff
	DCB	0xe7
	DCB	0xc3
	DCB	0xc3
	DCB	0xe7
	DCB	0xff
	DCB	0xff
	DCB	0xff
	DCB	0xff
	DCB	0xff
	DCB	0xff
	DCB	0x0
	DCB	0x0
	DCB	0x0
	DCB	0x0
	DCB	0x0
	DCB	0x3c
	DCB	0x66
	DCB	0x42
	DCB	0x42
	DCB	0x66
	DCB	0x3c
	DCB	0x0
	DCB	0x0
	DCB	0x0
	DCB	0x0
	DCB	0x0
	DCB	0xff
	DCB	0xff
	DCB	0xff
	DCB	0xff
	DCB	0xff
	DCB	0xc3
	DCB	0x99
	DCB	0xbd
	DCB	0xbd
	DCB	0x99
	DCB	0xc3
	DCB	0xff
	DCB	0xff
	DCB	0xff
	DCB	0xff
	DCB	0xff
	DCB	0x0
	DCB	0x0
	DCB	0x78
	DCB	0x60
	DCB	0x70
	DCB	0x58
	DCB	0x1e
	DCB	0x33
	DCB	0x33
	DCB	0x33
	DCB	0x33
	DCB	0x1e
	DCB	0x0
	DCB	0x0
	DCB	0x0
	DCB	0x0
	DCB	0x0
	DCB	0x0
	DCB	0x3c
	DCB	0x66
	DCB	0x66
	DCB	0x66
	DCB	0x66
	DCB	0x3c
	DCB	0x18
	DCB	0x7e
	DCB	0x18
	DCB	0x18
	DCB	0x0
	DCB	0x0
	DCB	0x0
	DCB	0x0
	DCB	0x0
	DCB	0x0
	DCB	0xfc
	DCB	0xcc
	DCB	0xfc
	DCB	0xc
	DCB	0xc
	DCB	0xc
	DCB	0xc
	DCB	0xe
	DCB	0xf
	DCB	0x7
	DCB	0x0
	DCB	0x0
	DCB	0x0
	DCB	0x0
	DCB	0x0
	DCB	0x0
	DCB	0xfe
	DCB	0xc6
	DCB	0xfe
	DCB	0xc6
	DCB	0xc6
	DCB	0xc6
	DCB	0xc6
	DCB	0xe6
	DCB	0xe7
	DCB	0x67
	DCB	0x3
	DCB	0x0
	DCB	0x0
	DCB	0x0
	DCB	0x0
	DCB	0x0
	DCB	0x0
	DCB	0x18
	DCB	0x18
	DCB	0xdb
	DCB	0x3c
	DCB	0xe7
	DCB	0x3c
	DCB	0xdb
	DCB	0x18
	DCB	0x18
	DCB	0x0
	DCB	0x0
	DCB	0x0
	DCB	0x0
	DCB	0x0
	DCB	0x1
	DCB	0x3
	DCB	0x7
	DCB	0xf
	DCB	0x1f
	DCB	0x7f
	DCB	0x1f
	DCB	0xf
	DCB	0x7
	DCB	0x3
	DCB	0x1
	DCB	0x0
	DCB	0x0
	DCB	0x0
	DCB	0x0
	DCB	0x0
	DCB	0x40
	DCB	0x60
	DCB	0x70
	DCB	0x78
	DCB	0x7c
	DCB	0x7f
	DCB	0x7c
	DCB	0x78
	DCB	0x70
	DCB	0x60
	DCB	0x40
	DCB	0x0
	DCB	0x0
	DCB	0x0
	DCB	0x0
	DCB	0x0
	DCB	0x0
	DCB	0x18
	DCB	0x3c
	DCB	0x7e
	DCB	0x18
	DCB	0x18
	DCB	0x18
	DCB	0x7e
	DCB	0x3c
	DCB	0x18
	DCB	0x0
	DCB	0x0
	DCB	0x0
	DCB	0x0
	DCB	0x0
	DCB	0x0
	DCB	0x0
	DCB	0x66
	DCB	0x66
	DCB	0x66
	DCB	0x66
	DCB	0x66
	DCB	0x66
	DCB	0x66
	DCB	0x0
	DCB	0x66
	DCB	0x66
	DCB	0x0
	DCB	0x0
	DCB	0x0
	DCB	0x0
	DCB	0x0
	DCB	0x0
	DCB	0xfe
	DCB	0xdb
	DCB	0xdb
	DCB	0xdb
	DCB	0xde
	DCB	0xd8
	DCB	0xd8
	DCB	0xd8
	DCB	0xd8
	DCB	0xd8
	DCB	0x0
	DCB	0x0
	DCB	0x0
	DCB	0x0
	DCB	0x0
	DCB	0x3e
	DCB	0x63
	DCB	0x6
	DCB	0x1c
	DCB	0x36
	DCB	0x63
	DCB	0x63
	DCB	0x36
	DCB	0x1c
	DCB	0x30
	DCB	0x63
	DCB	0x3e
	DCB	0x0
	DCB	0x0
	DCB	0x0
	DCB	0x0
	DCB	0x0
	DCB	0x0
	DCB	0x0
	DCB	0x0
	DCB	0x0
	DCB	0x0
	DCB	0x0
	DCB	0x7f
	DCB	0x7f
	DCB	0x7f
	DCB	0x7f
	DCB	0x0
	DCB	0x0
	DCB	0x0
	DCB	0x0
	DCB	0x0
	DCB	0x0
	DCB	0x18
	DCB	0x3c
	DCB	0x7e
	DCB	0x18
	DCB	0x18
	DCB	0x18
	DCB	0x7e
	DCB	0x3c
	DCB	0x18
	DCB	0x7e
	DCB	0x0
	DCB	0x0
	DCB	0x0
	DCB	0x0
	DCB	0x0
	DCB	0x0
	DCB	0x18
	DCB	0x3c
	DCB	0x7e
	DCB	0x18
	DCB	0x18
	DCB	0x18
	DCB	0x18
	DCB	0x18
	DCB	0x18
	DCB	0x18
	DCB	0x0
	DCB	0x0
	DCB	0x0
	DCB	0x0
	DCB	0x0
	DCB	0x0
	DCB	0x18
	DCB	0x18
	DCB	0x18
	DCB	0x18
	DCB	0x18
	DCB	0x18
	DCB	0x18
	DCB	0x7e
	DCB	0x3c
	DCB	0x18
	DCB	0x0
	DCB	0x0
	DCB	0x0
	DCB	0x0
	DCB	0x0
	DCB	0x0
	DCB	0x0
	DCB	0x0
	DCB	0x0
	DCB	0x18
	DCB	0x30
	DCB	0x7f
	DCB	0x30
	DCB	0x18
	DCB	0x0
	DCB	0x0
	DCB	0x0
	DCB	0x0
	DCB	0x0
	DCB	0x0
	DCB	0x0
	DCB	0x0
	DCB	0x0
	DCB	0x0
	DCB	0x0
	DCB	0xc
	DCB	0x6
	DCB	0x7f
	DCB	0x6
	DCB	0xc
	DCB	0x0
	DCB	0x0
	DCB	0x0
	DCB	0x0
	DCB	0x0
	DCB	0x0
	DCB	0x0
	DCB	0x0
	DCB	0x0
	DCB	0x0
	DCB	0x0
	DCB	0x0
	DCB	0x3
	DCB	0x3
	DCB	0x3
	DCB	0x7f
	DCB	0x0
	DCB	0x0
	DCB	0x0
	DCB	0x0
	DCB	0x0
	DCB	0x0
	DCB	0x0
	DCB	0x0
	DCB	0x0
	DCB	0x0
	DCB	0x0
	DCB	0x14
	DCB	0x36
	DCB	0x7f
	DCB	0x36
	DCB	0x14
	DCB	0x0
	DCB	0x0
	DCB	0x0
	DCB	0x0
	DCB	0x0
	DCB	0x0
	DCB	0x0
	DCB	0x0
	DCB	0x0
	DCB	0x0
	DCB	0x8
	DCB	0x1c
	DCB	0x1c
	DCB	0x3e
	DCB	0x3e
	DCB	0x7f
	DCB	0x7f
	DCB	0x0
	DCB	0x0
	DCB	0x0
	DCB	0x0
	DCB	0x0
	DCB	0x0
	DCB	0x0
	DCB	0x0
	DCB	0x0
	DCB	0x7f
	DCB	0x7f
	DCB	0x3e
	DCB	0x3e
	DCB	0x1c
	DCB	0x1c
	DCB	0x8
	DCB	0x0
	DCB	0x0
	DCB	0x0
	DCB	0x0
	DCB	0x0
	DCB	0x0
	DCB	0x0
	DCB	0x0
	DCB	0x0
	DCB	0x0
	DCB	0x0
	DCB	0x0
	DCB	0x0
	DCB	0x0
	DCB	0x0
	DCB	0x0
	DCB	0x0
	DCB	0x0
	DCB	0x0
	DCB	0x0
	DCB	0x0
	DCB	0x0
	DCB	0x0
	DCB	0x18
	DCB	0x3c
	DCB	0x3c
	DCB	0x3c
	DCB	0x18
	DCB	0x18
	DCB	0x18
	DCB	0x0
	DCB	0x18
	DCB	0x18
	DCB	0x0
	DCB	0x0
	DCB	0x0
	DCB	0x0
	DCB	0x0
	DCB	0x66
	DCB	0x66
	DCB	0x66
	DCB	0x24
	DCB	0x0
	DCB	0x0
	DCB	0x0
	DCB	0x0
	DCB	0x0
	DCB	0x0
	DCB	0x0
	DCB	0x0
	DCB	0x0
	DCB	0x0
	DCB	0x0
	DCB	0x0
	DCB	0x0
	DCB	0x0
	DCB	0x36
	DCB	0x36
	DCB	0x7f
	DCB	0x36
	DCB	0x36
	DCB	0x36
	DCB	0x7f
	DCB	0x36
	DCB	0x36
	DCB	0x0
	DCB	0x0
	DCB	0x0
	DCB	0x0
	DCB	0x18
	DCB	0x18
	DCB	0x3e
	DCB	0x63
	DCB	0x43
	DCB	0x3
	DCB	0x3e
	DCB	0x60
	DCB	0x60
	DCB	0x61
	DCB	0x63
	DCB	0x3e
	DCB	0x18
	DCB	0x18
	DCB	0x0
	DCB	0x0
	DCB	0x0
	DCB	0x0
	DCB	0x0
	DCB	0x0
	DCB	0x43
	DCB	0x63
	DCB	0x30
	DCB	0x18
	DCB	0xc
	DCB	0x6
	DCB	0x63
	DCB	0x61
	DCB	0x0
	DCB	0x0
	DCB	0x0
	DCB	0x0
	DCB	0x0
	DCB	0x0
	DCB	0x1c
	DCB	0x36
	DCB	0x36
	DCB	0x1c
	DCB	0x6e
	DCB	0x3b
	DCB	0x33
	DCB	0x33
	DCB	0x33
	DCB	0x6e
	DCB	0x0
	DCB	0x0
	DCB	0x0
	DCB	0x0
	DCB	0x0
	DCB	0xc
	DCB	0xc
	DCB	0xc
	DCB	0x6
	DCB	0x0
	DCB	0x0
	DCB	0x0
	DCB	0x0
	DCB	0x0
	DCB	0x0
	DCB	0x0
	DCB	0x0
	DCB	0x0
	DCB	0x0
	DCB	0x0
	DCB	0x0
	DCB	0x0
	DCB	0x30
	DCB	0x18
	DCB	0xc
	DCB	0xc
	DCB	0xc
	DCB	0xc
	DCB	0xc
	DCB	0xc
	DCB	0x18
	DCB	0x30
	DCB	0x0
	DCB	0x0
	DCB	0x0
	DCB	0x0
	DCB	0x0
	DCB	0x0
	DCB	0xc
	DCB	0x18
	DCB	0x30
	DCB	0x30
	DCB	0x30
	DCB	0x30
	DCB	0x30
	DCB	0x30
	DCB	0x18
	DCB	0xc
	DCB	0x0
	DCB	0x0
	DCB	0x0
	DCB	0x0
	DCB	0x0
	DCB	0x0
	DCB	0x0
	DCB	0x0
	DCB	0x0
	DCB	0x66
	DCB	0x3c
	DCB	0xff
	DCB	0x3c
	DCB	0x66
	DCB	0x0
	DCB	0x0
	DCB	0x0
	DCB	0x0
	DCB	0x0
	DCB	0x0
	DCB	0x0
	DCB	0x0
	DCB	0x0
	DCB	0x0
	DCB	0x0
	DCB	0x18
	DCB	0x18
	DCB	0x7e
	DCB	0x18
	DCB	0x18
	DCB	0x0
	DCB	0x0
	DCB	0x0
	DCB	0x0
	DCB	0x0
	DCB	0x0
	DCB	0x0
	DCB	0x0
	DCB	0x0
	DCB	0x0
	DCB	0x0
	DCB	0x0
	DCB	0x0
	DCB	0x0
	DCB	0x0
	DCB	0x18
	DCB	0x18
	DCB	0x18
	DCB	0xc
	DCB	0x0
	DCB	0x0
	DCB	0x0
	DCB	0x0
	DCB	0x0
	DCB	0x0
	DCB	0x0
	DCB	0x0
	DCB	0x0
	DCB	0x0
	DCB	0x7f
	DCB	0x0
	DCB	0x0
	DCB	0x0
	DCB	0x0
	DCB	0x0
	DCB	0x0
	DCB	0x0
	DCB	0x0
	DCB	0x0
	DCB	0x0
	DCB	0x0
	DCB	0x0
	DCB	0x0
	DCB	0x0
	DCB	0x0
	DCB	0x0
	DCB	0x0
	DCB	0x0
	DCB	0x18
	DCB	0x18
	DCB	0x0
	DCB	0x0
	DCB	0x0
	DCB	0x0
	DCB	0x0
	DCB	0x0
	DCB	0x0
	DCB	0x0
	DCB	0x40
	DCB	0x60
	DCB	0x30
	DCB	0x18
	DCB	0xc
	DCB	0x6
	DCB	0x3
	DCB	0x1
	DCB	0x0
	DCB	0x0
	DCB	0x0
	DCB	0x0
	DCB	0x0
	DCB	0x0
	DCB	0x1c
	DCB	0x36
	DCB	0x63
	DCB	0x63
	DCB	0x6b
	DCB	0x6b
	DCB	0x63
	DCB	0x63
	DCB	0x36
	DCB	0x1c
	DCB	0x0
	DCB	0x0
	DCB	0x0
	DCB	0x0
	DCB	0x0
	DCB	0x0
	DCB	0x18
	DCB	0x1c
	DCB	0x1e
	DCB	0x18
	DCB	0x18
	DCB	0x18
	DCB	0x18
	DCB	0x18
	DCB	0x18
	DCB	0x7e
	DCB	0x0
	DCB	0x0
	DCB	0x0
	DCB	0x0
	DCB	0x0
	DCB	0x0
	DCB	0x3e
	DCB	0x63
	DCB	0x60
	DCB	0x30
	DCB	0x18
	DCB	0xc
	DCB	0x6
	DCB	0x3
	DCB	0x63
	DCB	0x7f
	DCB	0x0
	DCB	0x0
	DCB	0x0
	DCB	0x0
	DCB	0x0
	DCB	0x0
	DCB	0x3e
	DCB	0x63
	DCB	0x60
	DCB	0x60
	DCB	0x3c
	DCB	0x60
	DCB	0x60
	DCB	0x60
	DCB	0x63
	DCB	0x3e
	DCB	0x0
	DCB	0x0
	DCB	0x0
	DCB	0x0
	DCB	0x0
	DCB	0x0
	DCB	0x30
	DCB	0x38
	DCB	0x3c
	DCB	0x36
	DCB	0x33
	DCB	0x7f
	DCB	0x30
	DCB	0x30
	DCB	0x30
	DCB	0x78
	DCB	0x0
	DCB	0x0
	DCB	0x0
	DCB	0x0
	DCB	0x0
	DCB	0x0
	DCB	0x7f
	DCB	0x3
	DCB	0x3
	DCB	0x3
	DCB	0x3f
	DCB	0x60
	DCB	0x60
	DCB	0x60
	DCB	0x63
	DCB	0x3e
	DCB	0x0
	DCB	0x0
	DCB	0x0
	DCB	0x0
	DCB	0x0
	DCB	0x0
	DCB	0x1c
	DCB	0x6
	DCB	0x3
	DCB	0x3
	DCB	0x3f
	DCB	0x63
	DCB	0x63
	DCB	0x63
	DCB	0x63
	DCB	0x3e
	DCB	0x0
	DCB	0x0
	DCB	0x0
	DCB	0x0
	DCB	0x0
	DCB	0x0
	DCB	0x7f
	DCB	0x63
	DCB	0x60
	DCB	0x60
	DCB	0x30
	DCB	0x18
	DCB	0xc
	DCB	0xc
	DCB	0xc
	DCB	0xc
	DCB	0x0
	DCB	0x0
	DCB	0x0
	DCB	0x0
	DCB	0x0
	DCB	0x0
	DCB	0x3e
	DCB	0x63
	DCB	0x63
	DCB	0x63
	DCB	0x3e
	DCB	0x63
	DCB	0x63
	DCB	0x63
	DCB	0x63
	DCB	0x3e
	DCB	0x0
	DCB	0x0
	DCB	0x0
	DCB	0x0
	DCB	0x0
	DCB	0x0
	DCB	0x3e
	DCB	0x63
	DCB	0x63
	DCB	0x63
	DCB	0x7e
	DCB	0x60
	DCB	0x60
	DCB	0x60
	DCB	0x30
	DCB	0x1e
	DCB	0x0
	DCB	0x0
	DCB	0x0
	DCB	0x0
	DCB	0x0
	DCB	0x0
	DCB	0x0
	DCB	0x0
	DCB	0x18
	DCB	0x18
	DCB	0x0
	DCB	0x0
	DCB	0x0
	DCB	0x18
	DCB	0x18
	DCB	0x0
	DCB	0x0
	DCB	0x0
	DCB	0x0
	DCB	0x0
	DCB	0x0
	DCB	0x0
	DCB	0x0
	DCB	0x0
	DCB	0x18
	DCB	0x18
	DCB	0x0
	DCB	0x0
	DCB	0x0
	DCB	0x18
	DCB	0x18
	DCB	0xc
	DCB	0x0
	DCB	0x0
	DCB	0x0
	DCB	0x0
	DCB	0x0
	DCB	0x0
	DCB	0x0
	DCB	0x60
	DCB	0x30
	DCB	0x18
	DCB	0xc
	DCB	0x6
	DCB	0xc
	DCB	0x18
	DCB	0x30
	DCB	0x60
	DCB	0x0
	DCB	0x0
	DCB	0x0
	DCB	0x0
	DCB	0x0
	DCB	0x0
	DCB	0x0
	DCB	0x0
	DCB	0x0
	DCB	0x7e
	DCB	0x0
	DCB	0x0
	DCB	0x7e
	DCB	0x0
	DCB	0x0
	DCB	0x0
	DCB	0x0
	DCB	0x0
	DCB	0x0
	DCB	0x0
	DCB	0x0
	DCB	0x0
	DCB	0x0
	DCB	0x6
	DCB	0xc
	DCB	0x18
	DCB	0x30
	DCB	0x60
	DCB	0x30
	DCB	0x18
	DCB	0xc
	DCB	0x6
	DCB	0x0
	DCB	0x0
	DCB	0x0
	DCB	0x0
	DCB	0x0
	DCB	0x0
	DCB	0x3e
	DCB	0x63
	DCB	0x63
	DCB	0x30
	DCB	0x18
	DCB	0x18
	DCB	0x18
	DCB	0x0
	DCB	0x18
	DCB	0x18
	DCB	0x0
	DCB	0x0
	DCB	0x0
	DCB	0x0
	DCB	0x0
	DCB	0x0
	DCB	0x0
	DCB	0x3e
	DCB	0x63
	DCB	0x63
	DCB	0x7b
	DCB	0x7b
	DCB	0x7b
	DCB	0x3b
	DCB	0x3
	DCB	0x3e
	DCB	0x0
	DCB	0x0
	DCB	0x0
	DCB	0x0
	DCB	0x0
	DCB	0x0
	DCB	0x8
	DCB	0x1c
	DCB	0x36
	DCB	0x63
	DCB	0x63
	DCB	0x7f
	DCB	0x63
	DCB	0x63
	DCB	0x63
	DCB	0x63
	DCB	0x0
	DCB	0x0
	DCB	0x0
	DCB	0x0
	DCB	0x0
	DCB	0x0
	DCB	0x3f
	DCB	0x66
	DCB	0x66
	DCB	0x66
	DCB	0x3e
	DCB	0x66
	DCB	0x66
	DCB	0x66
	DCB	0x66
	DCB	0x3f
	DCB	0x0
	DCB	0x0
	DCB	0x0
	DCB	0x0
	DCB	0x0
	DCB	0x0
	DCB	0x3c
	DCB	0x66
	DCB	0x43
	DCB	0x3
	DCB	0x3
	DCB	0x3
	DCB	0x3
	DCB	0x43
	DCB	0x66
	DCB	0x3c
	DCB	0x0
	DCB	0x0
	DCB	0x0
	DCB	0x0
	DCB	0x0
	DCB	0x0
	DCB	0x1f
	DCB	0x36
	DCB	0x66
	DCB	0x66
	DCB	0x66
	DCB	0x66
	DCB	0x66
	DCB	0x66
	DCB	0x36
	DCB	0x1f
	DCB	0x0
	DCB	0x0
	DCB	0x0
	DCB	0x0
	DCB	0x0
	DCB	0x0
	DCB	0x7f
	DCB	0x66
	DCB	0x46
	DCB	0x16
	DCB	0x1e
	DCB	0x16
	DCB	0x6
	DCB	0x46
	DCB	0x66
	DCB	0x7f
	DCB	0x0
	DCB	0x0
	DCB	0x0
	DCB	0x0
	DCB	0x0
	DCB	0x0
	DCB	0x7f
	DCB	0x66
	DCB	0x46
	DCB	0x16
	DCB	0x1e
	DCB	0x16
	DCB	0x6
	DCB	0x6
	DCB	0x6
	DCB	0xf
	DCB	0x0
	DCB	0x0
	DCB	0x0
	DCB	0x0
	DCB	0x0
	DCB	0x0
	DCB	0x3c
	DCB	0x66
	DCB	0x43
	DCB	0x3
	DCB	0x3
	DCB	0x7b
	DCB	0x63
	DCB	0x63
	DCB	0x66
	DCB	0x5c
	DCB	0x0
	DCB	0x0
	DCB	0x0
	DCB	0x0
	DCB	0x0
	DCB	0x0
	DCB	0x63
	DCB	0x63
	DCB	0x63
	DCB	0x63
	DCB	0x7f
	DCB	0x63
	DCB	0x63
	DCB	0x63
	DCB	0x63
	DCB	0x63
	DCB	0x0
	DCB	0x0
	DCB	0x0
	DCB	0x0
	DCB	0x0
	DCB	0x0
	DCB	0x3c
	DCB	0x18
	DCB	0x18
	DCB	0x18
	DCB	0x18
	DCB	0x18
	DCB	0x18
	DCB	0x18
	DCB	0x18
	DCB	0x3c
	DCB	0x0
	DCB	0x0
	DCB	0x0
	DCB	0x0
	DCB	0x0
	DCB	0x0
	DCB	0x78
	DCB	0x30
	DCB	0x30
	DCB	0x30
	DCB	0x30
	DCB	0x30
	DCB	0x33
	DCB	0x33
	DCB	0x33
	DCB	0x1e
	DCB	0x0
	DCB	0x0
	DCB	0x0
	DCB	0x0
	DCB	0x0
	DCB	0x0
	DCB	0x67
	DCB	0x66
	DCB	0x66
	DCB	0x36
	DCB	0x1e
	DCB	0x1e
	DCB	0x36
	DCB	0x66
	DCB	0x66
	DCB	0x67
	DCB	0x0
	DCB	0x0
	DCB	0x0
	DCB	0x0
	DCB	0x0
	DCB	0x0
	DCB	0xf
	DCB	0x6
	DCB	0x6
	DCB	0x6
	DCB	0x6
	DCB	0x6
	DCB	0x6
	DCB	0x46
	DCB	0x66
	DCB	0x7f
	DCB	0x0
	DCB	0x0
	DCB	0x0
	DCB	0x0
	DCB	0x0
	DCB	0x0
	DCB	0x63
	DCB	0x77
	DCB	0x7f
	DCB	0x7f
	DCB	0x6b
	DCB	0x63
	DCB	0x63
	DCB	0x63
	DCB	0x63
	DCB	0x63
	DCB	0x0
	DCB	0x0
	DCB	0x0
	DCB	0x0
	DCB	0x0
	DCB	0x0
	DCB	0x63
	DCB	0x67
	DCB	0x6f
	DCB	0x7f
	DCB	0x7b
	DCB	0x73
	DCB	0x63
	DCB	0x63
	DCB	0x63
	DCB	0x63
	DCB	0x0
	DCB	0x0
	DCB	0x0
	DCB	0x0
	DCB	0x0
	DCB	0x0
	DCB	0x3e
	DCB	0x63
	DCB	0x63
	DCB	0x63
	DCB	0x63
	DCB	0x63
	DCB	0x63
	DCB	0x63
	DCB	0x63
	DCB	0x3e
	DCB	0x0
	DCB	0x0
	DCB	0x0
	DCB	0x0
	DCB	0x0
	DCB	0x0
	DCB	0x3f
	DCB	0x66
	DCB	0x66
	DCB	0x66
	DCB	0x3e
	DCB	0x6
	DCB	0x6
	DCB	0x6
	DCB	0x6
	DCB	0xf
	DCB	0x0
	DCB	0x0
	DCB	0x0
	DCB	0x0
	DCB	0x0
	DCB	0x0
	DCB	0x3e
	DCB	0x63
	DCB	0x63
	DCB	0x63
	DCB	0x63
	DCB	0x63
	DCB	0x63
	DCB	0x6b
	DCB	0x7b
	DCB	0x3e
	DCB	0x30
	DCB	0x70
	DCB	0x0
	DCB	0x0
	DCB	0x0
	DCB	0x0
	DCB	0x3f
	DCB	0x66
	DCB	0x66
	DCB	0x66
	DCB	0x3e
	DCB	0x36
	DCB	0x66
	DCB	0x66
	DCB	0x66
	DCB	0x67
	DCB	0x0
	DCB	0x0
	DCB	0x0
	DCB	0x0
	DCB	0x0
	DCB	0x0
	DCB	0x3e
	DCB	0x63
	DCB	0x63
	DCB	0x6
	DCB	0x1c
	DCB	0x30
	DCB	0x60
	DCB	0x63
	DCB	0x63
	DCB	0x3e
	DCB	0x0
	DCB	0x0
	DCB	0x0
	DCB	0x0
	DCB	0x0
	DCB	0x0
	DCB	0x7e
	DCB	0x7e
	DCB	0x5a
	DCB	0x18
	DCB	0x18
	DCB	0x18
	DCB	0x18
	DCB	0x18
	DCB	0x18
	DCB	0x3c
	DCB	0x0
	DCB	0x0
	DCB	0x0
	DCB	0x0
	DCB	0x0
	DCB	0x0
	DCB	0x63
	DCB	0x63
	DCB	0x63
	DCB	0x63
	DCB	0x63
	DCB	0x63
	DCB	0x63
	DCB	0x63
	DCB	0x63
	DCB	0x3e
	DCB	0x0
	DCB	0x0
	DCB	0x0
	DCB	0x0
	DCB	0x0
	DCB	0x0
	DCB	0x63
	DCB	0x63
	DCB	0x63
	DCB	0x63
	DCB	0x63
	DCB	0x63
	DCB	0x63
	DCB	0x36
	DCB	0x1c
	DCB	0x8
	DCB	0x0
	DCB	0x0
	DCB	0x0
	DCB	0x0
	DCB	0x0
	DCB	0x0
	DCB	0x63
	DCB	0x63
	DCB	0x63
	DCB	0x63
	DCB	0x6b
	DCB	0x6b
	DCB	0x6b
	DCB	0x7f
	DCB	0x77
	DCB	0x36
	DCB	0x0
	DCB	0x0
	DCB	0x0
	DCB	0x0
	DCB	0x0
	DCB	0x0
	DCB	0x63
	DCB	0x63
	DCB	0x36
	DCB	0x3e
	DCB	0x1c
	DCB	0x1c
	DCB	0x3e
	DCB	0x36
	DCB	0x63
	DCB	0x63
	DCB	0x0
	DCB	0x0
	DCB	0x0
	DCB	0x0
	DCB	0x0
	DCB	0x0
	DCB	0x66
	DCB	0x66
	DCB	0x66
	DCB	0x66
	DCB	0x3c
	DCB	0x18
	DCB	0x18
	DCB	0x18
	DCB	0x18
	DCB	0x3c
	DCB	0x0
	DCB	0x0
	DCB	0x0
	DCB	0x0
	DCB	0x0
	DCB	0x0
	DCB	0x7f
	DCB	0x63
	DCB	0x61
	DCB	0x30
	DCB	0x18
	DCB	0xc
	DCB	0x6
	DCB	0x43
	DCB	0x63
	DCB	0x7f
	DCB	0x0
	DCB	0x0
	DCB	0x0
	DCB	0x0
	DCB	0x0
	DCB	0x0
	DCB	0x3c
	DCB	0xc
	DCB	0xc
	DCB	0xc
	DCB	0xc
	DCB	0xc
	DCB	0xc
	DCB	0xc
	DCB	0xc
	DCB	0x3c
	DCB	0x0
	DCB	0x0
	DCB	0x0
	DCB	0x0
	DCB	0x0
	DCB	0x0
	DCB	0x0
	DCB	0x1
	DCB	0x3
	DCB	0x7
	DCB	0xe
	DCB	0x1c
	DCB	0x38
	DCB	0x70
	DCB	0x60
	DCB	0x40
	DCB	0x0
	DCB	0x0
	DCB	0x0
	DCB	0x0
	DCB	0x0
	DCB	0x0
	DCB	0x3c
	DCB	0x30
	DCB	0x30
	DCB	0x30
	DCB	0x30
	DCB	0x30
	DCB	0x30
	DCB	0x30
	DCB	0x30
	DCB	0x3c
	DCB	0x0
	DCB	0x0
	DCB	0x0
	DCB	0x0
	DCB	0x8
	DCB	0x1c
	DCB	0x36
	DCB	0x63
	DCB	0x0
	DCB	0x0
	DCB	0x0
	DCB	0x0
	DCB	0x0
	DCB	0x0
	DCB	0x0
	DCB	0x0
	DCB	0x0
	DCB	0x0
	DCB	0x0
	DCB	0x0
	DCB	0x0
	DCB	0x0
	DCB	0x0
	DCB	0x0
	DCB	0x0
	DCB	0x0
	DCB	0x0
	DCB	0x0
	DCB	0x0
	DCB	0x0
	DCB	0x0
	DCB	0x0
	DCB	0x0
	DCB	0xff
	DCB	0x0
	DCB	0x0
	DCB	0xc
	DCB	0xc
	DCB	0x18
	DCB	0x0
	DCB	0x0
	DCB	0x0
	DCB	0x0
	DCB	0x0
	DCB	0x0
	DCB	0x0
	DCB	0x0
	DCB	0x0
	DCB	0x0
	DCB	0x0
	DCB	0x0
	DCB	0x0
	DCB	0x0
	DCB	0x0
	DCB	0x0
	DCB	0x0
	DCB	0x0
	DCB	0x1e
	DCB	0x30
	DCB	0x3e
	DCB	0x33
	DCB	0x33
	DCB	0x33
	DCB	0x6e
	DCB	0x0
	DCB	0x0
	DCB	0x0
	DCB	0x0
	DCB	0x0
	DCB	0x0
	DCB	0x7
	DCB	0x6
	DCB	0x6
	DCB	0x1e
	DCB	0x36
	DCB	0x66
	DCB	0x66
	DCB	0x66
	DCB	0x66
	DCB	0x3e
	DCB	0x0
	DCB	0x0
	DCB	0x0
	DCB	0x0
	DCB	0x0
	DCB	0x0
	DCB	0x0
	DCB	0x0
	DCB	0x0
	DCB	0x3e
	DCB	0x63
	DCB	0x3
	DCB	0x3
	DCB	0x3
	DCB	0x63
	DCB	0x3e
	DCB	0x0
	DCB	0x0
	DCB	0x0
	DCB	0x0
	DCB	0x0
	DCB	0x0
	DCB	0x38
	DCB	0x30
	DCB	0x30
	DCB	0x3c
	DCB	0x36
	DCB	0x33
	DCB	0x33
	DCB	0x33
	DCB	0x33
	DCB	0x6e
	DCB	0x0
	DCB	0x0
	DCB	0x0
	DCB	0x0
	DCB	0x0
	DCB	0x0
	DCB	0x0
	DCB	0x0
	DCB	0x0
	DCB	0x3e
	DCB	0x63
	DCB	0x7f
	DCB	0x3
	DCB	0x3
	DCB	0x63
	DCB	0x3e
	DCB	0x0
	DCB	0x0
	DCB	0x0
	DCB	0x0
	DCB	0x0
	DCB	0x0
	DCB	0x1c
	DCB	0x36
	DCB	0x26
	DCB	0x6
	DCB	0xf
	DCB	0x6
	DCB	0x6
	DCB	0x6
	DCB	0x6
	DCB	0xf
	DCB	0x0
	DCB	0x0
	DCB	0x0
	DCB	0x0
	DCB	0x0
	DCB	0x0
	DCB	0x0
	DCB	0x0
	DCB	0x0
	DCB	0x6e
	DCB	0x33
	DCB	0x33
	DCB	0x33
	DCB	0x33
	DCB	0x33
	DCB	0x3e
	DCB	0x30
	DCB	0x33
	DCB	0x1e
	DCB	0x0
	DCB	0x0
	DCB	0x0
	DCB	0x7
	DCB	0x6
	DCB	0x6
	DCB	0x36
	DCB	0x6e
	DCB	0x66
	DCB	0x66
	DCB	0x66
	DCB	0x66
	DCB	0x67
	DCB	0x0
	DCB	0x0
	DCB	0x0
	DCB	0x0
	DCB	0x0
	DCB	0x0
	DCB	0x18
	DCB	0x18
	DCB	0x0
	DCB	0x1c
	DCB	0x18
	DCB	0x18
	DCB	0x18
	DCB	0x18
	DCB	0x18
	DCB	0x3c
	DCB	0x0
	DCB	0x0
	DCB	0x0
	DCB	0x0
	DCB	0x0
	DCB	0x0
	DCB	0x60
	DCB	0x60
	DCB	0x0
	DCB	0x70
	DCB	0x60
	DCB	0x60
	DCB	0x60
	DCB	0x60
	DCB	0x60
	DCB	0x60
	DCB	0x66
	DCB	0x66
	DCB	0x3c
	DCB	0x0
	DCB	0x0
	DCB	0x0
	DCB	0x7
	DCB	0x6
	DCB	0x6
	DCB	0x66
	DCB	0x36
	DCB	0x1e
	DCB	0x1e
	DCB	0x36
	DCB	0x66
	DCB	0x67
	DCB	0x0
	DCB	0x0
	DCB	0x0
	DCB	0x0
	DCB	0x0
	DCB	0x0
	DCB	0x1c
	DCB	0x18
	DCB	0x18
	DCB	0x18
	DCB	0x18
	DCB	0x18
	DCB	0x18
	DCB	0x18
	DCB	0x18
	DCB	0x3c
	DCB	0x0
	DCB	0x0
	DCB	0x0
	DCB	0x0
	DCB	0x0
	DCB	0x0
	DCB	0x0
	DCB	0x0
	DCB	0x0
	DCB	0x37
	DCB	0x7f
	DCB	0x6b
	DCB	0x6b
	DCB	0x6b
	DCB	0x6b
	DCB	0x63
	DCB	0x0
	DCB	0x0
	DCB	0x0
	DCB	0x0
	DCB	0x0
	DCB	0x0
	DCB	0x0
	DCB	0x0
	DCB	0x0
	DCB	0x3b
	DCB	0x66
	DCB	0x66
	DCB	0x66
	DCB	0x66
	DCB	0x66
	DCB	0x66
	DCB	0x0
	DCB	0x0
	DCB	0x0
	DCB	0x0
	DCB	0x0
	DCB	0x0
	DCB	0x0
	DCB	0x0
	DCB	0x0
	DCB	0x3e
	DCB	0x63
	DCB	0x63
	DCB	0x63
	DCB	0x63
	DCB	0x63
	DCB	0x3e
	DCB	0x0
	DCB	0x0
	DCB	0x0
	DCB	0x0
	DCB	0x0
	DCB	0x0
	DCB	0x0
	DCB	0x0
	DCB	0x0
	DCB	0x3b
	DCB	0x66
	DCB	0x66
	DCB	0x66
	DCB	0x66
	DCB	0x66
	DCB	0x3e
	DCB	0x6
	DCB	0x6
	DCB	0xf
	DCB	0x0
	DCB	0x0
	DCB	0x0
	DCB	0x0
	DCB	0x0
	DCB	0x0
	DCB	0x6e
	DCB	0x33
	DCB	0x33
	DCB	0x33
	DCB	0x33
	DCB	0x33
	DCB	0x3e
	DCB	0x30
	DCB	0x30
	DCB	0x78
	DCB	0x0
	DCB	0x0
	DCB	0x0
	DCB	0x0
	DCB	0x0
	DCB	0x0
	DCB	0x3b
	DCB	0x6e
	DCB	0x66
	DCB	0x6
	DCB	0x6
	DCB	0x6
	DCB	0xf
	DCB	0x0
	DCB	0x0
	DCB	0x0
	DCB	0x0
	DCB	0x0
	DCB	0x0
	DCB	0x0
	DCB	0x0
	DCB	0x0
	DCB	0x3e
	DCB	0x63
	DCB	0x6
	DCB	0x1c
	DCB	0x30
	DCB	0x63
	DCB	0x3e
	DCB	0x0
	DCB	0x0
	DCB	0x0
	DCB	0x0
	DCB	0x0
	DCB	0x0
	DCB	0x8
	DCB	0xc
	DCB	0xc
	DCB	0x3f
	DCB	0xc
	DCB	0xc
	DCB	0xc
	DCB	0xc
	DCB	0x6c
	DCB	0x38
	DCB	0x0
	DCB	0x0
	DCB	0x0
	DCB	0x0
	DCB	0x0
	DCB	0x0
	DCB	0x0
	DCB	0x0
	DCB	0x0
	DCB	0x33
	DCB	0x33
	DCB	0x33
	DCB	0x33
	DCB	0x33
	DCB	0x33
	DCB	0x6e
	DCB	0x0
	DCB	0x0
	DCB	0x0
	DCB	0x0
	DCB	0x0
	DCB	0x0
	DCB	0x0
	DCB	0x0
	DCB	0x0
	DCB	0x66
	DCB	0x66
	DCB	0x66
	DCB	0x66
	DCB	0x66
	DCB	0x3c
	DCB	0x18
	DCB	0x0
	DCB	0x0
	DCB	0x0
	DCB	0x0
	DCB	0x0
	DCB	0x0
	DCB	0x0
	DCB	0x0
	DCB	0x0
	DCB	0x63
	DCB	0x63
	DCB	0x6b
	DCB	0x6b
	DCB	0x6b
	DCB	0x7f
	DCB	0x36
	DCB	0x0
	DCB	0x0
	DCB	0x0
	DCB	0x0
	DCB	0x0
	DCB	0x0
	DCB	0x0
	DCB	0x0
	DCB	0x0
	DCB	0x63
	DCB	0x36
	DCB	0x1c
	DCB	0x1c
	DCB	0x1c
	DCB	0x36
	DCB	0x63
	DCB	0x0
	DCB	0x0
	DCB	0x0
	DCB	0x0
	DCB	0x0
	DCB	0x0
	DCB	0x0
	DCB	0x0
	DCB	0x0
	DCB	0x63
	DCB	0x63
	DCB	0x63
	DCB	0x63
	DCB	0x63
	DCB	0x63
	DCB	0x7e
	DCB	0x60
	DCB	0x30
	DCB	0x1f
	DCB	0x0
	DCB	0x0
	DCB	0x0
	DCB	0x0
	DCB	0x0
	DCB	0x0
	DCB	0x7f
	DCB	0x33
	DCB	0x18
	DCB	0xc
	DCB	0x6
	DCB	0x63
	DCB	0x7f
	DCB	0x0
	DCB	0x0
	DCB	0x0
	DCB	0x0
	DCB	0x0
	DCB	0x0
	DCB	0x70
	DCB	0x18
	DCB	0x18
	DCB	0x18
	DCB	0xe
	DCB	0x18
	DCB	0x18
	DCB	0x18
	DCB	0x18
	DCB	0x70
	DCB	0x0
	DCB	0x0
	DCB	0x0
	DCB	0x0
	DCB	0x0
	DCB	0x0
	DCB	0x18
	DCB	0x18
	DCB	0x18
	DCB	0x18
	DCB	0x0
	DCB	0x18
	DCB	0x18
	DCB	0x18
	DCB	0x18
	DCB	0x18
	DCB	0x0
	DCB	0x0
	DCB	0x0
	DCB	0x0
	DCB	0x0
	DCB	0x0
	DCB	0xe
	DCB	0x18
	DCB	0x18
	DCB	0x18
	DCB	0x70
	DCB	0x18
	DCB	0x18
	DCB	0x18
	DCB	0x18
	DCB	0xe
	DCB	0x0
	DCB	0x0
	DCB	0x0
	DCB	0x0
	DCB	0x0
	DCB	0x0
	DCB	0x6e
	DCB	0x3b
	DCB	0x0
	DCB	0x0
	DCB	0x0
	DCB	0x0
	DCB	0x0
	DCB	0x0
	DCB	0x0
	DCB	0x0
	DCB	0x0
	DCB	0x0
	DCB	0x0
	DCB	0x0
	DCB	0x0
	DCB	0x0
	DCB	0x0
	DCB	0x0
	DCB	0x8
	DCB	0x1c
	DCB	0x36
	DCB	0x63
	DCB	0x63
	DCB	0x63
	DCB	0x7f
	DCB	0x0
	DCB	0x0
	DCB	0x0
	DCB	0x0
	DCB	0x0
	DCB	0x0
	DCB	0x0
	DCB	0x3c
	DCB	0x66
	DCB	0x43
	DCB	0x3
	DCB	0x3
	DCB	0x3
	DCB	0x43
	DCB	0x66
	DCB	0x3c
	DCB	0x30
	DCB	0x60
	DCB	0x3e
	DCB	0x0
	DCB	0x0
	DCB	0x0
	DCB	0x0
	DCB	0x33
	DCB	0x0
	DCB	0x0
	DCB	0x33
	DCB	0x33
	DCB	0x33
	DCB	0x33
	DCB	0x33
	DCB	0x33
	DCB	0x6e
	DCB	0x0
	DCB	0x0
	DCB	0x0
	DCB	0x0
	DCB	0x0
	DCB	0x30
	DCB	0x18
	DCB	0xc
	DCB	0x0
	DCB	0x3e
	DCB	0x63
	DCB	0x7f
	DCB	0x3
	DCB	0x3
	DCB	0x63
	DCB	0x3e
	DCB	0x0
	DCB	0x0
	DCB	0x0
	DCB	0x0
	DCB	0x0
	DCB	0x8
	DCB	0x1c
	DCB	0x36
	DCB	0x0
	DCB	0x1e
	DCB	0x30
	DCB	0x3e
	DCB	0x33
	DCB	0x33
	DCB	0x33
	DCB	0x6e
	DCB	0x0
	DCB	0x0
	DCB	0x0
	DCB	0x0
	DCB	0x0
	DCB	0x0
	DCB	0x33
	DCB	0x0
	DCB	0x0
	DCB	0x1e
	DCB	0x30
	DCB	0x3e
	DCB	0x33
	DCB	0x33
	DCB	0x33
	DCB	0x6e
	DCB	0x0
	DCB	0x0
	DCB	0x0
	DCB	0x0
	DCB	0x0
	DCB	0x6
	DCB	0xc
	DCB	0x18
	DCB	0x0
	DCB	0x1e
	DCB	0x30
	DCB	0x3e
	DCB	0x33
	DCB	0x33
	DCB	0x33
	DCB	0x6e
	DCB	0x0
	DCB	0x0
	DCB	0x0
	DCB	0x0
	DCB	0x0
	DCB	0x1c
	DCB	0x36
	DCB	0x1c
	DCB	0x0
	DCB	0x1e
	DCB	0x30
	DCB	0x3e
	DCB	0x33
	DCB	0x33
	DCB	0x33
	DCB	0x6e
	DCB	0x0
	DCB	0x0
	DCB	0x0
	DCB	0x0
	DCB	0x0
	DCB	0x0
	DCB	0x0
	DCB	0x0
	DCB	0x3c
	DCB	0x66
	DCB	0x6
	DCB	0x6
	DCB	0x66
	DCB	0x3c
	DCB	0x30
	DCB	0x60
	DCB	0x3c
	DCB	0x0
	DCB	0x0
	DCB	0x0
	DCB	0x0
	DCB	0x8
	DCB	0x1c
	DCB	0x36
	DCB	0x0
	DCB	0x3e
	DCB	0x63
	DCB	0x7f
	DCB	0x3
	DCB	0x3
	DCB	0x63
	DCB	0x3e
	DCB	0x0
	DCB	0x0
	DCB	0x0
	DCB	0x0
	DCB	0x0
	DCB	0x0
	DCB	0x63
	DCB	0x0
	DCB	0x0
	DCB	0x3e
	DCB	0x63
	DCB	0x7f
	DCB	0x3
	DCB	0x3
	DCB	0x63
	DCB	0x3e
	DCB	0x0
	DCB	0x0
	DCB	0x0
	DCB	0x0
	DCB	0x0
	DCB	0x6
	DCB	0xc
	DCB	0x18
	DCB	0x0
	DCB	0x3e
	DCB	0x63
	DCB	0x7f
	DCB	0x3
	DCB	0x3
	DCB	0x63
	DCB	0x3e
	DCB	0x0
	DCB	0x0
	DCB	0x0
	DCB	0x0
	DCB	0x0
	DCB	0x0
	DCB	0x66
	DCB	0x0
	DCB	0x0
	DCB	0x1c
	DCB	0x18
	DCB	0x18
	DCB	0x18
	DCB	0x18
	DCB	0x18
	DCB	0x3c
	DCB	0x0
	DCB	0x0
	DCB	0x0
	DCB	0x0
	DCB	0x0
	DCB	0x18
	DCB	0x3c
	DCB	0x66
	DCB	0x0
	DCB	0x1c
	DCB	0x18
	DCB	0x18
	DCB	0x18
	DCB	0x18
	DCB	0x18
	DCB	0x3c
	DCB	0x0
	DCB	0x0
	DCB	0x0
	DCB	0x0
	DCB	0x0
	DCB	0x6
	DCB	0xc
	DCB	0x18
	DCB	0x0
	DCB	0x1c
	DCB	0x18
	DCB	0x18
	DCB	0x18
	DCB	0x18
	DCB	0x18
	DCB	0x3c
	DCB	0x0
	DCB	0x0
	DCB	0x0
	DCB	0x0
	DCB	0x0
	DCB	0x63
	DCB	0x0
	DCB	0x8
	DCB	0x1c
	DCB	0x36
	DCB	0x63
	DCB	0x63
	DCB	0x7f
	DCB	0x63
	DCB	0x63
	DCB	0x63
	DCB	0x0
	DCB	0x0
	DCB	0x0
	DCB	0x0
	DCB	0x1c
	DCB	0x36
	DCB	0x1c
	DCB	0x0
	DCB	0x1c
	DCB	0x36
	DCB	0x63
	DCB	0x63
	DCB	0x7f
	DCB	0x63
	DCB	0x63
	DCB	0x63
	DCB	0x0
	DCB	0x0
	DCB	0x0
	DCB	0x0
	DCB	0x18
	DCB	0xc
	DCB	0x6
	DCB	0x0
	DCB	0x7f
	DCB	0x66
	DCB	0x6
	DCB	0x3e
	DCB	0x6
	DCB	0x6
	DCB	0x66
	DCB	0x7f
	DCB	0x0
	DCB	0x0
	DCB	0x0
	DCB	0x0
	DCB	0x0
	DCB	0x0
	DCB	0x0
	DCB	0x0
	DCB	0x0
	DCB	0x33
	DCB	0x6e
	DCB	0x6c
	DCB	0x7e
	DCB	0x1b
	DCB	0x1b
	DCB	0x76
	DCB	0x0
	DCB	0x0
	DCB	0x0
	DCB	0x0
	DCB	0x0
	DCB	0x0
	DCB	0x7c
	DCB	0x36
	DCB	0x33
	DCB	0x33
	DCB	0x7f
	DCB	0x33
	DCB	0x33
	DCB	0x33
	DCB	0x33
	DCB	0x73
	DCB	0x0
	DCB	0x0
	DCB	0x0
	DCB	0x0
	DCB	0x0
	DCB	0x8
	DCB	0x1c
	DCB	0x36
	DCB	0x0
	DCB	0x3e
	DCB	0x63
	DCB	0x63
	DCB	0x63
	DCB	0x63
	DCB	0x63
	DCB	0x3e
	DCB	0x0
	DCB	0x0
	DCB	0x0
	DCB	0x0
	DCB	0x0
	DCB	0x0
	DCB	0x63
	DCB	0x0
	DCB	0x0
	DCB	0x3e
	DCB	0x63
	DCB	0x63
	DCB	0x63
	DCB	0x63
	DCB	0x63
	DCB	0x3e
	DCB	0x0
	DCB	0x0
	DCB	0x0
	DCB	0x0
	DCB	0x0
	DCB	0x6
	DCB	0xc
	DCB	0x18
	DCB	0x0
	DCB	0x3e
	DCB	0x63
	DCB	0x63
	DCB	0x63
	DCB	0x63
	DCB	0x63
	DCB	0x3e
	DCB	0x0
	DCB	0x0
	DCB	0x0
	DCB	0x0
	DCB	0x0
	DCB	0xc
	DCB	0x1e
	DCB	0x33
	DCB	0x0
	DCB	0x33
	DCB	0x33
	DCB	0x33
	DCB	0x33
	DCB	0x33
	DCB	0x33
	DCB	0x6e
	DCB	0x0
	DCB	0x0
	DCB	0x0
	DCB	0x0
	DCB	0x0
	DCB	0x6
	DCB	0xc
	DCB	0x18
	DCB	0x0
	DCB	0x33
	DCB	0x33
	DCB	0x33
	DCB	0x33
	DCB	0x33
	DCB	0x33
	DCB	0x6e
	DCB	0x0
	DCB	0x0
	DCB	0x0
	DCB	0x0
	DCB	0x0
	DCB	0x0
	DCB	0x63
	DCB	0x0
	DCB	0x0
	DCB	0x63
	DCB	0x63
	DCB	0x63
	DCB	0x63
	DCB	0x63
	DCB	0x63
	DCB	0x7e
	DCB	0x60
	DCB	0x30
	DCB	0x1e
	DCB	0x0
	DCB	0x0
	DCB	0x63
	DCB	0x0
	DCB	0x3e
	DCB	0x63
	DCB	0x63
	DCB	0x63
	DCB	0x63
	DCB	0x63
	DCB	0x63
	DCB	0x63
	DCB	0x3e
	DCB	0x0
	DCB	0x0
	DCB	0x0
	DCB	0x0
	DCB	0x0
	DCB	0x63
	DCB	0x0
	DCB	0x63
	DCB	0x63
	DCB	0x63
	DCB	0x63
	DCB	0x63
	DCB	0x63
	DCB	0x63
	DCB	0x63
	DCB	0x3e
	DCB	0x0
	DCB	0x0
	DCB	0x0
	DCB	0x0
	DCB	0x0
	DCB	0x18
	DCB	0x18
	DCB	0x3c
	DCB	0x66
	DCB	0x6
	DCB	0x6
	DCB	0x6
	DCB	0x66
	DCB	0x3c
	DCB	0x18
	DCB	0x18
	DCB	0x0
	DCB	0x0
	DCB	0x0
	DCB	0x0
	DCB	0x0
	DCB	0x1c
	DCB	0x36
	DCB	0x26
	DCB	0x6
	DCB	0xf
	DCB	0x6
	DCB	0x6
	DCB	0x6
	DCB	0x6
	DCB	0x67
	DCB	0x3f
	DCB	0x0
	DCB	0x0
	DCB	0x0
	DCB	0x0
	DCB	0x0
	DCB	0x0
	DCB	0x66
	DCB	0x66
	DCB	0x3c
	DCB	0x18
	DCB	0x7e
	DCB	0x18
	DCB	0x7e
	DCB	0x18
	DCB	0x18
	DCB	0x18
	DCB	0x0
	DCB	0x0
	DCB	0x0
	DCB	0x0
	DCB	0x0
	DCB	0x1f
	DCB	0x33
	DCB	0x33
	DCB	0x1f
	DCB	0x23
	DCB	0x33
	DCB	0x7b
	DCB	0x33
	DCB	0x33
	DCB	0x33
	DCB	0x63
	DCB	0x0
	DCB	0x0
	DCB	0x0
	DCB	0x0
	DCB	0x0
	DCB	0x70
	DCB	0xd8
	DCB	0x18
	DCB	0x18
	DCB	0x18
	DCB	0x7e
	DCB	0x18
	DCB	0x18
	DCB	0x18
	DCB	0x18
	DCB	0x18
	DCB	0x1b
	DCB	0xe
	DCB	0x0
	DCB	0x0
	DCB	0x0
	DCB	0x18
	DCB	0xc
	DCB	0x6
	DCB	0x0
	DCB	0x1e
	DCB	0x30
	DCB	0x3e
	DCB	0x33
	DCB	0x33
	DCB	0x33
	DCB	0x6e
	DCB	0x0
	DCB	0x0
	DCB	0x0
	DCB	0x0
	DCB	0x0
	DCB	0x30
	DCB	0x18
	DCB	0xc
	DCB	0x0
	DCB	0x1c
	DCB	0x18
	DCB	0x18
	DCB	0x18
	DCB	0x18
	DCB	0x18
	DCB	0x3c
	DCB	0x0
	DCB	0x0
	DCB	0x0
	DCB	0x0
	DCB	0x0
	DCB	0x18
	DCB	0xc
	DCB	0x6
	DCB	0x0
	DCB	0x3e
	DCB	0x63
	DCB	0x63
	DCB	0x63
	DCB	0x63
	DCB	0x63
	DCB	0x3e
	DCB	0x0
	DCB	0x0
	DCB	0x0
	DCB	0x0
	DCB	0x0
	DCB	0x18
	DCB	0xc
	DCB	0x6
	DCB	0x0
	DCB	0x33
	DCB	0x33
	DCB	0x33
	DCB	0x33
	DCB	0x33
	DCB	0x33
	DCB	0x6e
	DCB	0x0
	DCB	0x0
	DCB	0x0
	DCB	0x0
	DCB	0x0
	DCB	0x0
	DCB	0x6e
	DCB	0x3b
	DCB	0x0
	DCB	0x3b
	DCB	0x66
	DCB	0x66
	DCB	0x66
	DCB	0x66
	DCB	0x66
	DCB	0x66
	DCB	0x0
	DCB	0x0
	DCB	0x0
	DCB	0x0
	DCB	0x6e
	DCB	0x3b
	DCB	0x0
	DCB	0x63
	DCB	0x67
	DCB	0x6f
	DCB	0x7f
	DCB	0x7b
	DCB	0x73
	DCB	0x63
	DCB	0x63
	DCB	0x63
	DCB	0x0
	DCB	0x0
	DCB	0x0
	DCB	0x0
	DCB	0x0
	DCB	0x3c
	DCB	0x36
	DCB	0x36
	DCB	0x7c
	DCB	0x0
	DCB	0x7e
	DCB	0x0
	DCB	0x0
	DCB	0x0
	DCB	0x0
	DCB	0x0
	DCB	0x0
	DCB	0x0
	DCB	0x0
	DCB	0x0
	DCB	0x0
	DCB	0x1c
	DCB	0x36
	DCB	0x36
	DCB	0x1c
	DCB	0x0
	DCB	0x3e
	DCB	0x0
	DCB	0x0
	DCB	0x0
	DCB	0x0
	DCB	0x0
	DCB	0x0
	DCB	0x0
	DCB	0x0
	DCB	0x0
	DCB	0x0
	DCB	0x0
	DCB	0xc
	DCB	0xc
	DCB	0x0
	DCB	0xc
	DCB	0xc
	DCB	0x6
	DCB	0x3
	DCB	0x63
	DCB	0x63
	DCB	0x3e
	DCB	0x0
	DCB	0x0
	DCB	0x0
	DCB	0x0
	DCB	0x0
	DCB	0x0
	DCB	0x0
	DCB	0x0
	DCB	0x0
	DCB	0x0
	DCB	0x7f
	DCB	0x3
	DCB	0x3
	DCB	0x3
	DCB	0x3
	DCB	0x0
	DCB	0x0
	DCB	0x0
	DCB	0x0
	DCB	0x0
	DCB	0x0
	DCB	0x0
	DCB	0x0
	DCB	0x0
	DCB	0x0
	DCB	0x0
	DCB	0x7f
	DCB	0x60
	DCB	0x60
	DCB	0x60
	DCB	0x60
	DCB	0x0
	DCB	0x0
	DCB	0x0
	DCB	0x0
	DCB	0x0
	DCB	0x0
	DCB	0x3
	DCB	0x3
	DCB	0x43
	DCB	0x63
	DCB	0x33
	DCB	0x18
	DCB	0xc
	DCB	0x6
	DCB	0x3b
	DCB	0x61
	DCB	0x30
	DCB	0x18
	DCB	0x7c
	DCB	0x0
	DCB	0x0
	DCB	0x0
	DCB	0x3
	DCB	0x3
	DCB	0x43
	DCB	0x63
	DCB	0x33
	DCB	0x18
	DCB	0xc
	DCB	0x66
	DCB	0x73
	DCB	0x79
	DCB	0x7c
	DCB	0x60
	DCB	0x60
	DCB	0x0
	DCB	0x0
	DCB	0x0
	DCB	0x0
	DCB	0x18
	DCB	0x18
	DCB	0x0
	DCB	0x18
	DCB	0x18
	DCB	0x18
	DCB	0x3c
	DCB	0x3c
	DCB	0x3c
	DCB	0x18
	DCB	0x0
	DCB	0x0
	DCB	0x0
	DCB	0x0
	DCB	0x0
	DCB	0x0
	DCB	0x0
	DCB	0x0
	DCB	0x0
	DCB	0x6c
	DCB	0x36
	DCB	0x1b
	DCB	0x36
	DCB	0x6c
	DCB	0x0
	DCB	0x0
	DCB	0x0
	DCB	0x0
	DCB	0x0
	DCB	0x0
	DCB	0x0
	DCB	0x0
	DCB	0x0
	DCB	0x0
	DCB	0x0
	DCB	0x1b
	DCB	0x36
	DCB	0x6c
	DCB	0x36
	DCB	0x1b
	DCB	0x0
	DCB	0x0
	DCB	0x0
	DCB	0x0
	DCB	0x0
	DCB	0x0
	DCB	0x88
	DCB	0x22
	DCB	0x88
	DCB	0x22
	DCB	0x88
	DCB	0x22
	DCB	0x88
	DCB	0x22
	DCB	0x88
	DCB	0x22
	DCB	0x88
	DCB	0x22
	DCB	0x88
	DCB	0x22
	DCB	0x88
	DCB	0x22
	DCB	0xaa
	DCB	0x55
	DCB	0xaa
	DCB	0x55
	DCB	0xaa
	DCB	0x55
	DCB	0xaa
	DCB	0x55
	DCB	0xaa
	DCB	0x55
	DCB	0xaa
	DCB	0x55
	DCB	0xaa
	DCB	0x55
	DCB	0xaa
	DCB	0x55
	DCB	0xbb
	DCB	0xee
	DCB	0xbb
	DCB	0xee
	DCB	0xbb
	DCB	0xee
	DCB	0xbb
	DCB	0xee
	DCB	0xbb
	DCB	0xee
	DCB	0xbb
	DCB	0xee
	DCB	0xbb
	DCB	0xee
	DCB	0xbb
	DCB	0xee
	DCB	0x18
	DCB	0x18
	DCB	0x18
	DCB	0x18
	DCB	0x18
	DCB	0x18
	DCB	0x18
	DCB	0x18
	DCB	0x18
	DCB	0x18
	DCB	0x18
	DCB	0x18
	DCB	0x18
	DCB	0x18
	DCB	0x18
	DCB	0x18
	DCB	0x18
	DCB	0x18
	DCB	0x18
	DCB	0x18
	DCB	0x18
	DCB	0x18
	DCB	0x18
	DCB	0x1f
	DCB	0x18
	DCB	0x18
	DCB	0x18
	DCB	0x18
	DCB	0x18
	DCB	0x18
	DCB	0x18
	DCB	0x18
	DCB	0x18
	DCB	0x18
	DCB	0x18
	DCB	0x18
	DCB	0x18
	DCB	0x1f
	DCB	0x18
	DCB	0x1f
	DCB	0x18
	DCB	0x18
	DCB	0x18
	DCB	0x18
	DCB	0x18
	DCB	0x18
	DCB	0x18
	DCB	0x18
	DCB	0x6c
	DCB	0x6c
	DCB	0x6c
	DCB	0x6c
	DCB	0x6c
	DCB	0x6c
	DCB	0x6c
	DCB	0x6f
	DCB	0x6c
	DCB	0x6c
	DCB	0x6c
	DCB	0x6c
	DCB	0x6c
	DCB	0x6c
	DCB	0x6c
	DCB	0x6c
	DCB	0x0
	DCB	0x0
	DCB	0x0
	DCB	0x0
	DCB	0x0
	DCB	0x0
	DCB	0x0
	DCB	0x7f
	DCB	0x6c
	DCB	0x6c
	DCB	0x6c
	DCB	0x6c
	DCB	0x6c
	DCB	0x6c
	DCB	0x6c
	DCB	0x6c
	DCB	0x0
	DCB	0x0
	DCB	0x0
	DCB	0x0
	DCB	0x0
	DCB	0x1f
	DCB	0x18
	DCB	0x1f
	DCB	0x18
	DCB	0x18
	DCB	0x18
	DCB	0x18
	DCB	0x18
	DCB	0x18
	DCB	0x18
	DCB	0x18
	DCB	0x6c
	DCB	0x6c
	DCB	0x6c
	DCB	0x6c
	DCB	0x6c
	DCB	0x6f
	DCB	0x60
	DCB	0x6f
	DCB	0x6c
	DCB	0x6c
	DCB	0x6c
	DCB	0x6c
	DCB	0x6c
	DCB	0x6c
	DCB	0x6c
	DCB	0x6c
	DCB	0x6c
	DCB	0x6c
	DCB	0x6c
	DCB	0x6c
	DCB	0x6c
	DCB	0x6c
	DCB	0x6c
	DCB	0x6c
	DCB	0x6c
	DCB	0x6c
	DCB	0x6c
	DCB	0x6c
	DCB	0x6c
	DCB	0x6c
	DCB	0x6c
	DCB	0x6c
	DCB	0x0
	DCB	0x0
	DCB	0x0
	DCB	0x0
	DCB	0x0
	DCB	0x7f
	DCB	0x60
	DCB	0x6f
	DCB	0x6c
	DCB	0x6c
	DCB	0x6c
	DCB	0x6c
	DCB	0x6c
	DCB	0x6c
	DCB	0x6c
	DCB	0x6c
	DCB	0x6c
	DCB	0x6c
	DCB	0x6c
	DCB	0x6c
	DCB	0x6c
	DCB	0x6f
	DCB	0x60
	DCB	0x7f
	DCB	0x0
	DCB	0x0
	DCB	0x0
	DCB	0x0
	DCB	0x0
	DCB	0x0
	DCB	0x0
	DCB	0x0
	DCB	0x6c
	DCB	0x6c
	DCB	0x6c
	DCB	0x6c
	DCB	0x6c
	DCB	0x6c
	DCB	0x6c
	DCB	0x7f
	DCB	0x0
	DCB	0x0
	DCB	0x0
	DCB	0x0
	DCB	0x0
	DCB	0x0
	DCB	0x0
	DCB	0x0
	DCB	0x18
	DCB	0x18
	DCB	0x18
	DCB	0x18
	DCB	0x18
	DCB	0x1f
	DCB	0x18
	DCB	0x1f
	DCB	0x0
	DCB	0x0
	DCB	0x0
	DCB	0x0
	DCB	0x0
	DCB	0x0
	DCB	0x0
	DCB	0x0
	DCB	0x0
	DCB	0x0
	DCB	0x0
	DCB	0x0
	DCB	0x0
	DCB	0x0
	DCB	0x0
	DCB	0x1f
	DCB	0x18
	DCB	0x18
	DCB	0x18
	DCB	0x18
	DCB	0x18
	DCB	0x18
	DCB	0x18
	DCB	0x18
	DCB	0x18
	DCB	0x18
	DCB	0x18
	DCB	0x18
	DCB	0x18
	DCB	0x18
	DCB	0x18
	DCB	0xf8
	DCB	0x0
	DCB	0x0
	DCB	0x0
	DCB	0x0
	DCB	0x0
	DCB	0x0
	DCB	0x0
	DCB	0x0
	DCB	0x18
	DCB	0x18
	DCB	0x18
	DCB	0x18
	DCB	0x18
	DCB	0x18
	DCB	0x18
	DCB	0xff
	DCB	0x0
	DCB	0x0
	DCB	0x0
	DCB	0x0
	DCB	0x0
	DCB	0x0
	DCB	0x0
	DCB	0x0
	DCB	0x0
	DCB	0x0
	DCB	0x0
	DCB	0x0
	DCB	0x0
	DCB	0x0
	DCB	0x0
	DCB	0xff
	DCB	0x18
	DCB	0x18
	DCB	0x18
	DCB	0x18
	DCB	0x18
	DCB	0x18
	DCB	0x18
	DCB	0x18
	DCB	0x18
	DCB	0x18
	DCB	0x18
	DCB	0x18
	DCB	0x18
	DCB	0x18
	DCB	0x18
	DCB	0xf8
	DCB	0x18
	DCB	0x18
	DCB	0x18
	DCB	0x18
	DCB	0x18
	DCB	0x18
	DCB	0x18
	DCB	0x18
	DCB	0x0
	DCB	0x0
	DCB	0x0
	DCB	0x0
	DCB	0x0
	DCB	0x0
	DCB	0x0
	DCB	0xff
	DCB	0x0
	DCB	0x0
	DCB	0x0
	DCB	0x0
	DCB	0x0
	DCB	0x0
	DCB	0x0
	DCB	0x0
	DCB	0x18
	DCB	0x18
	DCB	0x18
	DCB	0x18
	DCB	0x18
	DCB	0x18
	DCB	0x18
	DCB	0xff
	DCB	0x18
	DCB	0x18
	DCB	0x18
	DCB	0x18
	DCB	0x18
	DCB	0x18
	DCB	0x18
	DCB	0x18
	DCB	0x18
	DCB	0x18
	DCB	0x18
	DCB	0x18
	DCB	0x18
	DCB	0xf8
	DCB	0x18
	DCB	0xf8
	DCB	0x18
	DCB	0x18
	DCB	0x18
	DCB	0x18
	DCB	0x18
	DCB	0x18
	DCB	0x18
	DCB	0x18
	DCB	0x6c
	DCB	0x6c
	DCB	0x6c
	DCB	0x6c
	DCB	0x6c
	DCB	0x6c
	DCB	0x6c
	DCB	0xec
	DCB	0x6c
	DCB	0x6c
	DCB	0x6c
	DCB	0x6c
	DCB	0x6c
	DCB	0x6c
	DCB	0x6c
	DCB	0x6c
	DCB	0x6c
	DCB	0x6c
	DCB	0x6c
	DCB	0x6c
	DCB	0x6c
	DCB	0xec
	DCB	0xc
	DCB	0xfc
	DCB	0x0
	DCB	0x0
	DCB	0x0
	DCB	0x0
	DCB	0x0
	DCB	0x0
	DCB	0x0
	DCB	0x0
	DCB	0x0
	DCB	0x0
	DCB	0x0
	DCB	0x0
	DCB	0x0
	DCB	0xfc
	DCB	0xc
	DCB	0xec
	DCB	0x6c
	DCB	0x6c
	DCB	0x6c
	DCB	0x6c
	DCB	0x6c
	DCB	0x6c
	DCB	0x6c
	DCB	0x6c
	DCB	0x6c
	DCB	0x6c
	DCB	0x6c
	DCB	0x6c
	DCB	0x6c
	DCB	0xef
	DCB	0x0
	DCB	0xff
	DCB	0x0
	DCB	0x0
	DCB	0x0
	DCB	0x0
	DCB	0x0
	DCB	0x0
	DCB	0x0
	DCB	0x0
	DCB	0x0
	DCB	0x0
	DCB	0x0
	DCB	0x0
	DCB	0x0
	DCB	0xff
	DCB	0x0
	DCB	0xef
	DCB	0x6c
	DCB	0x6c
	DCB	0x6c
	DCB	0x6c
	DCB	0x6c
	DCB	0x6c
	DCB	0x6c
	DCB	0x6c
	DCB	0x6c
	DCB	0x6c
	DCB	0x6c
	DCB	0x6c
	DCB	0x6c
	DCB	0xec
	DCB	0xc
	DCB	0xec
	DCB	0x6c
	DCB	0x6c
	DCB	0x6c
	DCB	0x6c
	DCB	0x6c
	DCB	0x6c
	DCB	0x6c
	DCB	0x6c
	DCB	0x0
	DCB	0x0
	DCB	0x0
	DCB	0x0
	DCB	0x0
	DCB	0xff
	DCB	0x0
	DCB	0xff
	DCB	0x0
	DCB	0x0
	DCB	0x0
	DCB	0x0
	DCB	0x0
	DCB	0x0
	DCB	0x0
	DCB	0x0
	DCB	0x6c
	DCB	0x6c
	DCB	0x6c
	DCB	0x6c
	DCB	0x6c
	DCB	0xef
	DCB	0x0
	DCB	0xef
	DCB	0x6c
	DCB	0x6c
	DCB	0x6c
	DCB	0x6c
	DCB	0x6c
	DCB	0x6c
	DCB	0x6c
	DCB	0x6c
	DCB	0x18
	DCB	0x18
	DCB	0x18
	DCB	0x18
	DCB	0x18
	DCB	0xff
	DCB	0x0
	DCB	0xff
	DCB	0x0
	DCB	0x0
	DCB	0x0
	DCB	0x0
	DCB	0x0
	DCB	0x0
	DCB	0x0
	DCB	0x0
	DCB	0x6c
	DCB	0x6c
	DCB	0x6c
	DCB	0x6c
	DCB	0x6c
	DCB	0x6c
	DCB	0x6c
	DCB	0xff
	DCB	0x0
	DCB	0x0
	DCB	0x0
	DCB	0x0
	DCB	0x0
	DCB	0x0
	DCB	0x0
	DCB	0x0
	DCB	0x0
	DCB	0x0
	DCB	0x0
	DCB	0x0
	DCB	0x0
	DCB	0xff
	DCB	0x0
	DCB	0xff
	DCB	0x18
	DCB	0x18
	DCB	0x18
	DCB	0x18
	DCB	0x18
	DCB	0x18
	DCB	0x18
	DCB	0x18
	DCB	0x0
	DCB	0x0
	DCB	0x0
	DCB	0x0
	DCB	0x0
	DCB	0x0
	DCB	0x0
	DCB	0xff
	DCB	0x6c
	DCB	0x6c
	DCB	0x6c
	DCB	0x6c
	DCB	0x6c
	DCB	0x6c
	DCB	0x6c
	DCB	0x6c
	DCB	0x6c
	DCB	0x6c
	DCB	0x6c
	DCB	0x6c
	DCB	0x6c
	DCB	0x6c
	DCB	0x6c
	DCB	0xfc
	DCB	0x0
	DCB	0x0
	DCB	0x0
	DCB	0x0
	DCB	0x0
	DCB	0x0
	DCB	0x0
	DCB	0x0
	DCB	0x18
	DCB	0x18
	DCB	0x18
	DCB	0x18
	DCB	0x18
	DCB	0xf8
	DCB	0x18
	DCB	0xf8
	DCB	0x0
	DCB	0x0
	DCB	0x0
	DCB	0x0
	DCB	0x0
	DCB	0x0
	DCB	0x0
	DCB	0x0
	DCB	0x0
	DCB	0x0
	DCB	0x0
	DCB	0x0
	DCB	0x0
	DCB	0xf8
	DCB	0x18
	DCB	0xf8
	DCB	0x18
	DCB	0x18
	DCB	0x18
	DCB	0x18
	DCB	0x18
	DCB	0x18
	DCB	0x18
	DCB	0x18
	DCB	0x0
	DCB	0x0
	DCB	0x0
	DCB	0x0
	DCB	0x0
	DCB	0x0
	DCB	0x0
	DCB	0xfc
	DCB	0x6c
	DCB	0x6c
	DCB	0x6c
	DCB	0x6c
	DCB	0x6c
	DCB	0x6c
	DCB	0x6c
	DCB	0x6c
	DCB	0x6c
	DCB	0x6c
	DCB	0x6c
	DCB	0x6c
	DCB	0x6c
	DCB	0x6c
	DCB	0x6c
	DCB	0xff
	DCB	0x6c
	DCB	0x6c
	DCB	0x6c
	DCB	0x6c
	DCB	0x6c
	DCB	0x6c
	DCB	0x6c
	DCB	0x6c
	DCB	0x18
	DCB	0x18
	DCB	0x18
	DCB	0x18
	DCB	0x18
	DCB	0xff
	DCB	0x18
	DCB	0xff
	DCB	0x18
	DCB	0x18
	DCB	0x18
	DCB	0x18
	DCB	0x18
	DCB	0x18
	DCB	0x18
	DCB	0x18
	DCB	0x18
	DCB	0x18
	DCB	0x18
	DCB	0x18
	DCB	0x18
	DCB	0x18
	DCB	0x18
	DCB	0x1f
	DCB	0x0
	DCB	0x0
	DCB	0x0
	DCB	0x0
	DCB	0x0
	DCB	0x0
	DCB	0x0
	DCB	0x0
	DCB	0x0
	DCB	0x0
	DCB	0x0
	DCB	0x0
	DCB	0x0
	DCB	0x0
	DCB	0x0
	DCB	0xf8
	DCB	0x18
	DCB	0x18
	DCB	0x18
	DCB	0x18
	DCB	0x18
	DCB	0x18
	DCB	0x18
	DCB	0x18
	DCB	0xff
	DCB	0xff
	DCB	0xff
	DCB	0xff
	DCB	0xff
	DCB	0xff
	DCB	0xff
	DCB	0xff
	DCB	0xff
	DCB	0xff
	DCB	0xff
	DCB	0xff
	DCB	0xff
	DCB	0xff
	DCB	0xff
	DCB	0xff
	DCB	0x0
	DCB	0x0
	DCB	0x0
	DCB	0x0
	DCB	0x0
	DCB	0x0
	DCB	0x0
	DCB	0xff
	DCB	0xff
	DCB	0xff
	DCB	0xff
	DCB	0xff
	DCB	0xff
	DCB	0xff
	DCB	0xff
	DCB	0xff
	DCB	0xf
	DCB	0xf
	DCB	0xf
	DCB	0xf
	DCB	0xf
	DCB	0xf
	DCB	0xf
	DCB	0xf
	DCB	0xf
	DCB	0xf
	DCB	0xf
	DCB	0xf
	DCB	0xf
	DCB	0xf
	DCB	0xf
	DCB	0xf
	DCB	0xf0
	DCB	0xf0
	DCB	0xf0
	DCB	0xf0
	DCB	0xf0
	DCB	0xf0
	DCB	0xf0
	DCB	0xf0
	DCB	0xf0
	DCB	0xf0
	DCB	0xf0
	DCB	0xf0
	DCB	0xf0
	DCB	0xf0
	DCB	0xf0
	DCB	0xf0
	DCB	0xff
	DCB	0xff
	DCB	0xff
	DCB	0xff
	DCB	0xff
	DCB	0xff
	DCB	0xff
	DCB	0x0
	DCB	0x0
	DCB	0x0
	DCB	0x0
	DCB	0x0
	DCB	0x0
	DCB	0x0
	DCB	0x0
	DCB	0x0
	DCB	0x0
	DCB	0x0
	DCB	0x0
	DCB	0x0
	DCB	0x0
	DCB	0x6e
	DCB	0x3b
	DCB	0x1b
	DCB	0x1b
	DCB	0x1b
	DCB	0x3b
	DCB	0x6e
	DCB	0x0
	DCB	0x0
	DCB	0x0
	DCB	0x0
	DCB	0x0
	DCB	0x0
	DCB	0x1e
	DCB	0x33
	DCB	0x33
	DCB	0x33
	DCB	0x1b
	DCB	0x33
	DCB	0x63
	DCB	0x63
	DCB	0x63
	DCB	0x33
	DCB	0x0
	DCB	0x0
	DCB	0x0
	DCB	0x0
	DCB	0x0
	DCB	0x0
	DCB	0x7f
	DCB	0x63
	DCB	0x63
	DCB	0x3
	DCB	0x3
	DCB	0x3
	DCB	0x3
	DCB	0x3
	DCB	0x3
	DCB	0x3
	DCB	0x0
	DCB	0x0
	DCB	0x0
	DCB	0x0
	DCB	0x0
	DCB	0x0
	DCB	0x0
	DCB	0x0
	DCB	0x7f
	DCB	0x36
	DCB	0x36
	DCB	0x36
	DCB	0x36
	DCB	0x36
	DCB	0x36
	DCB	0x36
	DCB	0x0
	DCB	0x0
	DCB	0x0
	DCB	0x0
	DCB	0x0
	DCB	0x0
	DCB	0x0
	DCB	0x7f
	DCB	0x63
	DCB	0x6
	DCB	0xc
	DCB	0x18
	DCB	0xc
	DCB	0x6
	DCB	0x63
	DCB	0x7f
	DCB	0x0
	DCB	0x0
	DCB	0x0
	DCB	0x0
	DCB	0x0
	DCB	0x0
	DCB	0x0
	DCB	0x0
	DCB	0x0
	DCB	0x7e
	DCB	0x1b
	DCB	0x1b
	DCB	0x1b
	DCB	0x1b
	DCB	0x1b
	DCB	0xe
	DCB	0x0
	DCB	0x0
	DCB	0x0
	DCB	0x0
	DCB	0x0
	DCB	0x0
	DCB	0x0
	DCB	0x0
	DCB	0x66
	DCB	0x66
	DCB	0x66
	DCB	0x66
	DCB	0x66
	DCB	0x3e
	DCB	0x6
	DCB	0x6
	DCB	0x3
	DCB	0x0
	DCB	0x0
	DCB	0x0
	DCB	0x0
	DCB	0x0
	DCB	0x0
	DCB	0x0
	DCB	0x6e
	DCB	0x3b
	DCB	0x18
	DCB	0x18
	DCB	0x18
	DCB	0x18
	DCB	0x18
	DCB	0x18
	DCB	0x0
	DCB	0x0
	DCB	0x0
	DCB	0x0
	DCB	0x0
	DCB	0x0
	DCB	0x0
	DCB	0x7e
	DCB	0x18
	DCB	0x3c
	DCB	0x66
	DCB	0x66
	DCB	0x66
	DCB	0x3c
	DCB	0x18
	DCB	0x7e
	DCB	0x0
	DCB	0x0
	DCB	0x0
	DCB	0x0
	DCB	0x0
	DCB	0x0
	DCB	0x0
	DCB	0x1c
	DCB	0x36
	DCB	0x63
	DCB	0x63
	DCB	0x7f
	DCB	0x63
	DCB	0x63
	DCB	0x36
	DCB	0x1c
	DCB	0x0
	DCB	0x0
	DCB	0x0
	DCB	0x0
	DCB	0x0
	DCB	0x0
	DCB	0x1c
	DCB	0x36
	DCB	0x63
	DCB	0x63
	DCB	0x63
	DCB	0x36
	DCB	0x36
	DCB	0x36
	DCB	0x36
	DCB	0x77
	DCB	0x0
	DCB	0x0
	DCB	0x0
	DCB	0x0
	DCB	0x0
	DCB	0x0
	DCB	0x78
	DCB	0xc
	DCB	0x18
	DCB	0x30
	DCB	0x7c
	DCB	0x66
	DCB	0x66
	DCB	0x66
	DCB	0x66
	DCB	0x3c
	DCB	0x0
	DCB	0x0
	DCB	0x0
	DCB	0x0
	DCB	0x0
	DCB	0x0
	DCB	0x0
	DCB	0x0
	DCB	0x0
	DCB	0x7e
	DCB	0xdb
	DCB	0xdb
	DCB	0xdb
	DCB	0x7e
	DCB	0x0
	DCB	0x0
	DCB	0x0
	DCB	0x0
	DCB	0x0
	DCB	0x0
	DCB	0x0
	DCB	0x0
	DCB	0x0
	DCB	0xc0
	DCB	0x60
	DCB	0x7e
	DCB	0xdb
	DCB	0xdb
	DCB	0xcf
	DCB	0x7e
	DCB	0x6
	DCB	0x3
	DCB	0x0
	DCB	0x0
	DCB	0x0
	DCB	0x0
	DCB	0x0
	DCB	0x0
	DCB	0x38
	DCB	0xc
	DCB	0x6
	DCB	0x6
	DCB	0x3e
	DCB	0x6
	DCB	0x6
	DCB	0x6
	DCB	0xc
	DCB	0x38
	DCB	0x0
	DCB	0x0
	DCB	0x0
	DCB	0x0
	DCB	0x0
	DCB	0x0
	DCB	0x0
	DCB	0x3e
	DCB	0x63
	DCB	0x63
	DCB	0x63
	DCB	0x63
	DCB	0x63
	DCB	0x63
	DCB	0x63
	DCB	0x63
	DCB	0x0
	DCB	0x0
	DCB	0x0
	DCB	0x0
	DCB	0x0
	DCB	0x0
	DCB	0x0
	DCB	0x0
	DCB	0x7f
	DCB	0x0
	DCB	0x0
	DCB	0x7f
	DCB	0x0
	DCB	0x0
	DCB	0x7f
	DCB	0x0
	DCB	0x0
	DCB	0x0
	DCB	0x0
	DCB	0x0
	DCB	0x0
	DCB	0x0
	DCB	0x0
	DCB	0x0
	DCB	0x18
	DCB	0x18
	DCB	0x7e
	DCB	0x18
	DCB	0x18
	DCB	0x0
	DCB	0x0
	DCB	0xff
	DCB	0x0
	DCB	0x0
	DCB	0x0
	DCB	0x0
	DCB	0x0
	DCB	0x0
	DCB	0x0
	DCB	0xc
	DCB	0x18
	DCB	0x30
	DCB	0x60
	DCB	0x30
	DCB	0x18
	DCB	0xc
	DCB	0x0
	DCB	0x7e
	DCB	0x0
	DCB	0x0
	DCB	0x0
	DCB	0x0
	DCB	0x0
	DCB	0x0
	DCB	0x0
	DCB	0x30
	DCB	0x18
	DCB	0xc
	DCB	0x6
	DCB	0xc
	DCB	0x18
	DCB	0x30
	DCB	0x0
	DCB	0x7e
	DCB	0x0
	DCB	0x0
	DCB	0x0
	DCB	0x0
	DCB	0x0
	DCB	0x0
	DCB	0x70
	DCB	0xd8
	DCB	0xd8
	DCB	0x18
	DCB	0x18
	DCB	0x18
	DCB	0x18
	DCB	0x18
	DCB	0x18
	DCB	0x18
	DCB	0x18
	DCB	0x18
	DCB	0x18
	DCB	0x18
	DCB	0x18
	DCB	0x18
	DCB	0x18
	DCB	0x18
	DCB	0x18
	DCB	0x18
	DCB	0x18
	DCB	0x18
	DCB	0x1b
	DCB	0x1b
	DCB	0x1b
	DCB	0xe
	DCB	0x0
	DCB	0x0
	DCB	0x0
	DCB	0x0
	DCB	0x0
	DCB	0x0
	DCB	0x0
	DCB	0x0
	DCB	0x18
	DCB	0x18
	DCB	0x0
	DCB	0x7e
	DCB	0x0
	DCB	0x18
	DCB	0x18
	DCB	0x0
	DCB	0x0
	DCB	0x0
	DCB	0x0
	DCB	0x0
	DCB	0x0
	DCB	0x0
	DCB	0x0
	DCB	0x0
	DCB	0x0
	DCB	0x6e
	DCB	0x3b
	DCB	0x0
	DCB	0x6e
	DCB	0x3b
	DCB	0x0
	DCB	0x0
	DCB	0x0
	DCB	0x0
	DCB	0x0
	DCB	0x0
	DCB	0x0
	DCB	0x1c
	DCB	0x36
	DCB	0x36
	DCB	0x1c
	DCB	0x0
	DCB	0x0
	DCB	0x0
	DCB	0x0
	DCB	0x0
	DCB	0x0
	DCB	0x0
	DCB	0x0
	DCB	0x0
	DCB	0x0
	DCB	0x0
	DCB	0x0
	DCB	0x0
	DCB	0x0
	DCB	0x0
	DCB	0x0
	DCB	0x0
	DCB	0x0
	DCB	0x18
	DCB	0x18
	DCB	0x0
	DCB	0x0
	DCB	0x0
	DCB	0x0
	DCB	0x0
	DCB	0x0
	DCB	0x0
	DCB	0x0
	DCB	0x0
	DCB	0x0
	DCB	0x0
	DCB	0x0
	DCB	0x0
	DCB	0x0
	DCB	0x0
	DCB	0x18
	DCB	0x0
	DCB	0x0
	DCB	0x0
	DCB	0x0
	DCB	0x0
	DCB	0x0
	DCB	0x0
	DCB	0x0
	DCB	0xf0
	DCB	0x30
	DCB	0x30
	DCB	0x30
	DCB	0x30
	DCB	0x30
	DCB	0x37
	DCB	0x36
	DCB	0x36
	DCB	0x3c
	DCB	0x38
	DCB	0x0
	DCB	0x0
	DCB	0x0
	DCB	0x0
	DCB	0x0
	DCB	0x1b
	DCB	0x36
	DCB	0x36
	DCB	0x36
	DCB	0x36
	DCB	0x36
	DCB	0x0
	DCB	0x0
	DCB	0x0
	DCB	0x0
	DCB	0x0
	DCB	0x0
	DCB	0x0
	DCB	0x0
	DCB	0x0
	DCB	0x0
	DCB	0xe
	DCB	0x1b
	DCB	0xc
	DCB	0x6
	DCB	0x13
	DCB	0x1f
	DCB	0x0
	DCB	0x0
	DCB	0x0
	DCB	0x0
	DCB	0x0
	DCB	0x0
	DCB	0x0
	DCB	0x0
	DCB	0x0
	DCB	0x0
	DCB	0x0
	DCB	0x0
	DCB	0x0
	DCB	0x3e
	DCB	0x3e
	DCB	0x3e
	DCB	0x3e
	DCB	0x3e
	DCB	0x3e
	DCB	0x3e
	DCB	0x0
	DCB	0x0
	DCB	0x0
	DCB	0x0
	DCB	0x0
	DCB	0x0
	DCB	0x0
	DCB	0x0
	DCB	0x0
	DCB	0x0
	DCB	0x0
	DCB	0x0
	DCB	0x0
	DCB	0x0
	DCB	0x0
	DCB	0x0
	DCB	0x0
	DCB	0x0
	DCB	0x0
	DCB	0x0
	DCB	0x0
	EXPORT	|AuConsoleInitialize|
	EXPORT	|AuConsolePostInitialise|
	EXPORT	|AuTextOut|
	EXPORT	|AuConsoleEarlyEnable|
	EXPORT	|AuConsoleGetScreenWidth|
	EXPORT	|AuConsoleGetScreenHeight|
	EXPORT	|AuConsoleSetConInfo|
	EXPORT	|AuTestPrint|
	EXPORT	|AuConsoleIoControl|
	EXPORT	|high_set_bit|
	EXPORT	|low_set_bit|
	EXPORT	|AuPutPixel|
	EXPORT	|AuPutC|
	EXPORT	|AuPutS|
	EXPORT	|AuTextOutpro_Call|
	EXPORT	|AuConsoleFlushFramebuffer|
	EXPORT	|AuConsoleBypassAuTextOut|
	IMPORT	|AuMapPage|
	IMPORT	|AuGetFreePage|
	IMPORT	|kmalloc|
	IMPORT	|strcpy|
	IMPORT	|strlen|
	IMPORT	|memset|
	IMPORT	|sztoa|
	IMPORT	|ftoa|
	IMPORT	|AuGetCurrentThread|
	IMPORT	|AuVFSFind|
	IMPORT	|AuProcessFindThread|
	IMPORT	|AuProcessFindSubThread|
	IMPORT	|is_uart_initialized|
	IMPORT	|UARTDebugOut|
	IMPORT	|aa64_data_cache_clean_range|
	IMPORT	|AuUartPutString|
	IMPORT	|AuDevFSAddFile|
	IMPORT	|store_x0_x7|
	IMPORT	|_fltused|

	AREA	|.pdata|, PDATA
|$pdata$AuConsoleInitialize| DCD imagerel |$LN5|
	DCD	0x1200095
	;Flags[SingleProEpi] functionLength[148] RegF[0] RegI[0] H[0] frameChainReturn[UnChainedSavedLR] frameSize[32]
|$pdata$AuConsolePostInitialise| DCD imagerel |$LN14|
	DCD	0x220043d
	;Flags[SingleProEpi] functionLength[1084] RegF[0] RegI[0] H[0] frameChainReturn[UnChainedSavedLR] frameSize[64]
|$pdata$AuTextOut| DCD imagerel |$LN29|
	DCD	0x9a003a5
	;Flags[SingleProEpi] functionLength[932] RegF[0] RegI[0] H[0] frameChainReturn[UnChainedSavedLR] frameSize[304]
|$pdata$AuConsoleEarlyEnable| DCD imagerel |$LN3|
	DCD	0x800029
	;Flags[SingleProEpi] functionLength[40] RegF[0] RegI[0] H[0] frameChainReturn[UnChained] frameSize[16]
|$pdata$AuConsoleSetConInfo| DCD imagerel |$LN3|
	DCD	0x1000091
	;Flags[SingleProEpi] functionLength[144] RegF[0] RegI[0] H[0] frameChainReturn[UnChained] frameSize[32]
|$pdata$AuTestPrint| DCD imagerel |$LN3|
	DCD	0xa00019
	;Flags[SingleProEpi] functionLength[24] RegF[0] RegI[0] H[0] frameChainReturn[UnChainedSavedLR] frameSize[16]
|$pdata$AuConsoleIoControl| DCD imagerel |$LN32|
	DCD	0x3a00249
	;Flags[SingleProEpi] functionLength[584] RegF[0] RegI[0] H[0] frameChainReturn[UnChainedSavedLR] frameSize[112]
|$pdata$high_set_bit| DCD imagerel |$LN5|
	DCD	0x80004d
	;Flags[SingleProEpi] functionLength[76] RegF[0] RegI[0] H[0] frameChainReturn[UnChained] frameSize[16]
|$pdata$low_set_bit| DCD imagerel |$LN6|
	DCD	0x800059
	;Flags[SingleProEpi] functionLength[88] RegF[0] RegI[0] H[0] frameChainReturn[UnChained] frameSize[16]
|$pdata$AuPutPixel| DCD imagerel |$LN3|
	DCD	0x1800091
	;Flags[SingleProEpi] functionLength[144] RegF[0] RegI[0] H[0] frameChainReturn[UnChained] frameSize[48]
|$pdata$AuPutC| DCD imagerel |$LN16|
	DCD	0x2a002d1
	;Flags[SingleProEpi] functionLength[720] RegF[0] RegI[0] H[0] frameChainReturn[UnChainedSavedLR] frameSize[80]
|$pdata$AuPutS| DCD imagerel |$LN27|
	DCD	0x3200399
	;Flags[SingleProEpi] functionLength[920] RegF[0] RegI[0] H[0] frameChainReturn[UnChainedSavedLR] frameSize[96]
|$pdata$AuTextOutpro_Call| DCD imagerel |$LN25|
	DCD	0x8a00349
	;Flags[SingleProEpi] functionLength[840] RegF[0] RegI[0] H[0] frameChainReturn[UnChainedSavedLR] frameSize[272]
|$pdata$AuConsoleFlushFramebuffer| DCD imagerel |$LN3|
	DCD	0xa00035
	;Flags[SingleProEpi] functionLength[52] RegF[0] RegI[0] H[0] frameChainReturn[UnChainedSavedLR] frameSize[16]

	AREA	|.data|, DATA
|$SG3527| DCB	"Upto here ", 0xd, 0xa, 0x0
	%	3
|$SG3535| DCB	"[aurora]: printf function set to UARTDebugOut ", 0xd, 0xa
	DCB	0x0
	%	7
|$SG3605| DCB	"[aurora]: return marisu deii, byee byee ", 0xd, 0xa, 0x0
	%	5
|$SG3606| DCB	"[aucon]: graphics framebuffer : %x ", 0xd, 0xa, 0x0
	%	2
|$SG3604| DCB	"[aurora]: tur luck nai, framebuffer daalu napali, iss is"
	DCB	"s beya lagi jai deii ", 0xd, 0xa, 0x0
|$SG3607| DCB	"[aucon]: width : %d px , height : %d px ", 0xd, 0xa, 0x0
	%	1
|$SG3608| DCB	"/dev", 0x0
	%	3
|$SG3609| DCB	"graph", 0x0
	%	2
|$SG3610| DCB	"/", 0x0
	%	2
|$SG3766| DCB	"-", 0x0
	%	2
|$SG3777| DCB	".", 0x0
	%	2
|$SG3851| DCB	"-", 0x0
	%	2
|$SG3862| DCB	".", 0x0
; Function compile flags: /Odtpy
; File C:\Users\paras\source\repos\grep-name\XenevaOS\KernelAA64\aucon.c

	AREA	|.text$mn|, CODE, ARM64

|AuConsoleBypassAuTextOut| PROC

; 618  : 	bypass_autextout = 1;

	adrp        x9,bypass_autextout
	mov         w8,#1
	strb        w8,[x9,PageOffset(bypass_autextout)]
	ret

	ENDP  ; |AuConsoleBypassAuTextOut|

; Function compile flags: /Odtpy
; File C:\Users\paras\source\repos\grep-name\XenevaOS\KernelAA64\aucon.c

	AREA	|.text$mn|, CODE, ARM64

|AuConsoleFlushFramebuffer| PROC

; 604  : void AuConsoleFlushFramebuffer() {

|$LN3|
	str         lr,[sp,#-0x10]!

; 605  : 	aa64_data_cache_clean_range(aucon->buffer, aucon->size);

	adrp        x8,aucon
	ldr         x8,[x8,PageOffset(aucon)]
	add         x8,x8,#0x18
	ldr         w8,[x8]
	uxtw        x1,w8
	adrp        x8,aucon
	ldr         x8,[x8,PageOffset(aucon)]
	add         x8,x8,#8
	ldr         x0,[x8]
	bl          aa64_data_cache_clean_range
	ldr         lr,[sp],#0x10
	ret

	ENDP  ; |AuConsoleFlushFramebuffer|

; Function compile flags: /Odtpy
; File C:\Users\paras\source\repos\grep-name\XenevaOS\KernelAA64\aucon.c

	AREA	|.text$mn|, CODE, ARM64

|AuTextOutpro_Call| PROC

; 489  : void AuTextOutpro_Call(const char* format, void* reg_save_area, void* entry_sp) {

|$LN25|
	str         lr,[sp,#-0x10]!
	sub         sp,sp,#0x100
	str         x0,[sp]
	str         x1,[sp,#0x38]
	str         x2,[sp,#0x58]

; 490  : 	va_list args = ((va_list)reg_save_area + 8);

	ldr         x8,[sp,#0x38]
	add         x8,x8,#8
	str         x8,[sp,#0x10]
|$LN2@AuTextOutp|

; 491  : 	while (*format)

	ldr         x8,[sp]
	ldrsb       w8,[x8]
	mov         w8,w8
	cmp         w8,#0
	beq         |$LN3@AuTextOutp|

; 492  : 	{
; 493  : 		if (*format == '%')

	ldr         x8,[sp]
	ldrsb       w8,[x8]
	mov         w8,w8
	cmp         w8,#0x25
	bne         |$LN7@AuTextOutp|

; 494  : 		{
; 495  : 			++format;

	ldr         x8,[sp]
	add         x8,x8,#1
	str         x8,[sp]

; 496  : 			if (*format == 'd')

	ldr         x8,[sp]
	ldrsb       w8,[x8]
	mov         w8,w8
	cmp         w8,#0x64
	bne         |$LN9@AuTextOutp|

; 497  : 			{
; 498  : 				size_t width = 0;

	mov         x8,#0
	str         x8,[sp,#0x30]

; 499  : 				if (format[1] == '.')

	ldr         x8,[sp]
	add         x8,x8,#1
	ldrsb       w8,[x8]
	mov         w8,w8
	cmp         w8,#0x2E
	bne         |$LN11@AuTextOutp|

; 500  : 				{
; 501  : 					for (size_t i = 2; format[i] >= '0' && format[i] <= '9'; ++i)

	mov         x8,#2
	str         x8,[sp,#0x20]
	b           |$LN6@AuTextOutp|
|$LN4@AuTextOutp|
	ldr         x8,[sp,#0x20]
	add         x8,x8,#1
	str         x8,[sp,#0x20]
|$LN6@AuTextOutp|
	ldr         x9,[sp,#0x20]
	mov         x8,#1
	mul         x9,x9,x8
	ldr         x8,[sp]
	add         x8,x8,x9
	ldrsb       w8,[x8]
	mov         w8,w8
	cmp         w8,#0x30
	blt         |$LN5@AuTextOutp|
	ldr         x9,[sp,#0x20]
	mov         x8,#1
	mul         x9,x9,x8
	ldr         x8,[sp]
	add         x8,x8,x9
	ldrsb       w8,[x8]
	mov         w8,w8
	cmp         w8,#0x39
	bgt         |$LN5@AuTextOutp|

; 502  : 					{
; 503  : 						width *= 10;

	ldr         x9,[sp,#0x30]
	mov         x8,#0xA
	mul         x8,x9,x8
	str         x8,[sp,#0x30]

; 504  : 						width += format[i] - '0';

	ldr         x9,[sp,#0x20]
	mov         x8,#1
	mul         x9,x9,x8
	ldr         x8,[sp]
	add         x8,x8,x9
	ldrsb       w8,[x8]
	mov         w8,w8
	sub         w8,w8,#0x30
	sxtw        x9,w8
	ldr         x8,[sp,#0x30]
	add         x8,x8,x9
	str         x8,[sp,#0x30]

; 505  : 					}

	b           |$LN4@AuTextOutp|
|$LN5@AuTextOutp|
|$LN11@AuTextOutp|

; 506  : 				}
; 507  : 				size_t i = va_arg(args, size_t);

	ldr         x8,[sp,#0x10]
	add         x8,x8,#8
	str         x8,[sp,#0x10]
	ldr         x8,[sp,#0x10]
	sub         x8,x8,#8
	ldr         x8,[x8]
	str         x8,[sp,#0x28]

; 508  : 				char buffer[sizeof(size_t) * 8 + 1];
; 509  : 				//	size_t len
; 510  : 				if ((int)i < 0) {

	ldr         x8,[sp,#0x28]
	mov         w8,w8
	cmp         w8,#0
	bge         |$LN12@AuTextOutp|

; 511  : 					AuPutS("-");

	adrp        x8,|$SG3851|
	add         x0,x8,PageOffset(|$SG3851|)
	bl          AuPutS

; 512  : 					i = ((int)i * -1);

	ldr         x8,[sp,#0x28]
	mov         w9,w8
	mov         w8,#-1
	mul         w8,w9,w8
	sxtw        x8,w8
	str         x8,[sp,#0x28]

; 513  : 					sztoa(i, buffer, 10);

	mov         w2,#0xA
	add         x1,sp,#0x68
	ldr         x0,[sp,#0x28]
	bl          sztoa

; 514  : 				}

	b           |$LN13@AuTextOutp|
|$LN12@AuTextOutp|

; 515  : 				else {
; 516  : 					sztoa(i, buffer, 10);

	mov         w2,#0xA
	add         x1,sp,#0x68
	ldr         x0,[sp,#0x28]
	bl          sztoa

; 517  : 					size_t len = strlen(buffer);

	add         x0,sp,#0x68
	bl          strlen
	str         x0,[sp,#0x60]
|$LN13@AuTextOutp|

; 518  : 				}
; 519  : 				/*	while (len++ < width)
; 520  : 				puts("0");*/
; 521  : 				AuPutS(buffer);

	add         x0,sp,#0x68
	bl          AuPutS

; 522  : 			}

	b           |$LN10@AuTextOutp|
|$LN9@AuTextOutp|

; 523  : 			else if (*format == 'c')

	ldr         x8,[sp]
	ldrsb       w8,[x8]
	mov         w8,w8
	cmp         w8,#0x63
	bne         |$LN14@AuTextOutp|

; 524  : 			{
; 525  : 				char c = va_arg(args, char);

	ldr         x8,[sp,#0x10]
	add         x8,x8,#4
	str         x8,[sp,#0x10]
	ldr         x8,[sp,#0x10]
	sub         x8,x8,#4
	ldrsb       w8,[x8]
	strb        w8,[sp,#8]

; 526  : 				//char buffer[sizeof(size_t) * 8 + 1];
; 527  : 				//sztoa(c, buffer, 10);
; 528  : 				//puts(buffer);
; 529  : 				AuPutC(c);

	ldrsb       w0,[sp,#8]
	bl          AuPutC

; 530  : 			}

	b           |$LN15@AuTextOutp|
|$LN14@AuTextOutp|

; 531  : 			else if (*format == 'x')

	ldr         x8,[sp]
	ldrsb       w8,[x8]
	mov         w8,w8
	cmp         w8,#0x78
	bne         |$LN16@AuTextOutp|

; 532  : 			{
; 533  : 				size_t x = va_arg(args, size_t);

	ldr         x8,[sp,#0x10]
	add         x8,x8,#8
	str         x8,[sp,#0x10]
	ldr         x8,[sp,#0x10]
	sub         x8,x8,#8
	ldr         x8,[x8]
	str         x8,[sp,#0x40]

; 534  : 				char buffer[sizeof(size_t) * 8 + 1];
; 535  : 				sztoa(x, buffer, 16);

	mov         w2,#0x10
	add         x1,sp,#0xB0
	ldr         x0,[sp,#0x40]
	bl          sztoa

; 536  : 				//puts("0x");
; 537  : 				AuPutS(buffer);

	add         x0,sp,#0xB0
	bl          AuPutS

; 538  : 			}

	b           |$LN17@AuTextOutp|
|$LN16@AuTextOutp|

; 539  : 			else if (*format == 's')

	ldr         x8,[sp]
	ldrsb       w8,[x8]
	mov         w8,w8
	cmp         w8,#0x73
	bne         |$LN18@AuTextOutp|

; 540  : 			{
; 541  : 				char* x = va_arg(args, char*);

	ldr         x8,[sp,#0x10]
	add         x8,x8,#8
	str         x8,[sp,#0x10]
	ldr         x8,[sp,#0x10]
	sub         x8,x8,#8
	ldr         x8,[x8]
	str         x8,[sp,#0x48]

; 542  : 				AuPutS(x);

	ldr         x0,[sp,#0x48]
	bl          AuPutS

; 543  : 			}

	b           |$LN19@AuTextOutp|
|$LN18@AuTextOutp|

; 544  : 			else if (*format == 'f')

	ldr         x8,[sp]
	ldrsb       w8,[x8]
	mov         w8,w8
	cmp         w8,#0x66
	bne         |$LN20@AuTextOutp|

; 545  : 			{
; 546  : 				double x = va_arg(args, double);

	ldr         x8,[sp,#0x10]
	add         x8,x8,#8
	str         x8,[sp,#0x10]
	ldr         x8,[sp,#0x10]
	sub         x8,x8,#8
	ldr         d16,[x8]
	str         d16,[sp,#0x50]

; 547  : 				AuPutS(ftoa(x, 2));

	ldr         d16,[sp,#0x50]
	fcvt        s0,d16
	mov         w0,#2
	bl          ftoa
	bl          AuPutS

; 548  : 			}

	b           |$LN21@AuTextOutp|
|$LN20@AuTextOutp|

; 549  : 			else if (*format == '%')

	ldr         x8,[sp]
	ldrsb       w8,[x8]
	mov         w8,w8
	cmp         w8,#0x25
	bne         |$LN22@AuTextOutp|

; 550  : 			{
; 551  : 				AuPutS(".");

	adrp        x8,|$SG3862|
	add         x0,x8,PageOffset(|$SG3862|)
	bl          AuPutS

; 552  : 			}

	b           |$LN23@AuTextOutp|
|$LN22@AuTextOutp|

; 553  : 			else
; 554  : 			{
; 555  : 				char buf[3];
; 556  : 				buf[0] = '%'; buf[1] = *format; buf[2] = '\0';

	mov         w8,#0x25
	strb        w8,[sp,#0x1C]
	ldr         x8,[sp]
	ldrsb       w8,[x8]
	strb        w8,[sp,#0x1D]
	mov         w8,#0
	strb        w8,[sp,#0x1E]

; 557  : 				AuPutS(buf);

	add         x0,sp,#0x1C
	bl          AuPutS
|$LN23@AuTextOutp|
|$LN21@AuTextOutp|
|$LN19@AuTextOutp|
|$LN17@AuTextOutp|
|$LN15@AuTextOutp|
|$LN10@AuTextOutp|

; 558  : 			}
; 559  : 		}

	b           |$LN8@AuTextOutp|
|$LN7@AuTextOutp|

; 560  : 		else
; 561  : 		{
; 562  : 			char buf[2];
; 563  : 			buf[0] = *format; buf[1] = '\0';

	ldr         x8,[sp]
	ldrsb       w8,[x8]
	strb        w8,[sp,#0x18]
	mov         w8,#0
	strb        w8,[sp,#0x19]

; 564  : 			AuPutS(buf);

	add         x0,sp,#0x18
	bl          AuPutS
|$LN8@AuTextOutp|

; 565  : 		}
; 566  : 		++format;

	ldr         x8,[sp]
	add         x8,x8,#1
	str         x8,[sp]

; 567  : 	}

	b           |$LN2@AuTextOutp|
|$LN3@AuTextOutp|
	add         sp,sp,#0x100
	ldr         lr,[sp],#0x10
	ret

	ENDP  ; |AuTextOutpro_Call|

; Function compile flags: /Odtpy
; File C:\Users\paras\source\repos\grep-name\XenevaOS\KernelAA64\aucon.c

	AREA	|.text$mn|, CODE, ARM64

|AuPutS| PROC

; 329  : void AuPutS(char* str) {

|$LN27|
	str         lr,[sp,#-0x10]!
	sub         sp,sp,#0x50
	str         x0,[sp,#8]

; 330  : 	uint32_t* lfb = aucon->buffer;

	adrp        x8,aucon
	ldr         x8,[x8,PageOffset(aucon)]
	add         x8,x8,#8
	ldr         x8,[x8]
	str         x8,[sp,#0x20]
|$LN2@AuPutS|

; 331  : 	while (*str) {

	ldr         x8,[sp,#8]
	ldrsb       w8,[x8]
	mov         w8,w8
	cmp         w8,#0
	beq         |$LN3@AuPutS|

; 332  : 
; 333  : 		if (*str > 0xFF) {

	ldr         x8,[sp,#8]
	ldrsb       w8,[x8]
	mov         w8,w8
	cmp         w8,#0xFF
	ble         |$LN13@AuPutS|

; 334  : 			//unicode
; 335  : 		}

	b           |$LN14@AuPutS|
|$LN13@AuPutS|

; 336  : 		else if (*str == '\n') {

	ldr         x8,[sp,#8]
	ldrsb       w8,[x8]
	mov         w8,w8
	cmp         w8,#0xA
	bne         |$LN15@AuPutS|

; 337  : 			++console_y;

	adrp        x8,console_y
	ldr         w8,[x8,PageOffset(console_y)]
	add         w9,w8,#1
	adrp        x8,console_y
	str         w9,[x8,PageOffset(console_y)]

; 338  : 			console_x = 0;

	adrp        x9,console_x
	mov         w8,#0
	str         w8,[x9,PageOffset(console_x)]

; 339  : 		}

	b           |$LN16@AuPutS|
|$LN15@AuPutS|

; 340  : 		else if (*str == '\r') {

	ldr         x8,[sp,#8]
	ldrsb       w8,[x8]
	mov         w8,w8
	cmp         w8,#0xD
	bne         |$LN17@AuPutS|

; 341  : 		}

	b           |$LN18@AuPutS|
|$LN17@AuPutS|

; 342  : 		else if (*str == '\b') {

	ldr         x8,[sp,#8]
	ldrsb       w8,[x8]
	mov         w8,w8
	cmp         w8,#8
	bne         |$LN19@AuPutS|

; 343  : 			if (console_x > 0)

	adrp        x8,console_x
	ldr         w8,[x8,PageOffset(console_x)]
	cmp         w8,#0
	bls         |$LN21@AuPutS|

; 344  : 				--console_x;

	adrp        x8,console_x
	ldr         w8,[x8,PageOffset(console_x)]
	sub         w9,w8,#1
	adrp        x8,console_x
	str         w9,[x8,PageOffset(console_x)]
|$LN21@AuPutS|

; 345  : 		}

	b           |$LN20@AuPutS|
|$LN19@AuPutS|

; 346  : 		else {
; 347  : 
; 348  : 			const bx_fontcharbitmap_t entry = bx_vgafont[*str];

	ldr         x8,[sp,#8]
	ldrsb       w8,[x8]
	sxtw        x9,w8
	mov         x8,#0x10
	mul         x9,x9,x8
	adrp        x8,bx_vgafont
	add         x8,x8,PageOffset(bx_vgafont)
	add         x8,x8,x9
	add         x10,sp,#0x28
	ldp         x9,x8,[x8]
	stp         x9,x8,[x10]
	add         x10,sp,#0x38
	add         x8,sp,#0x28
	ldp         x9,x8,[x8]
	stp         x9,x8,[x10]

; 349  : 			for (size_t y = 0; y < 16; ++y) {

	mov         x8,#0
	str         x8,[sp,#0x10]
	b           |$LN6@AuPutS|
|$LN4@AuPutS|
	ldr         x8,[sp,#0x10]
	add         x8,x8,#1
	str         x8,[sp,#0x10]
|$LN6@AuPutS|
	ldr         x8,[sp,#0x10]
	cmp         x8,#0x10
	bhs         |$LN5@AuPutS|

; 350  : 
; 351  : 				for (size_t x = 0; x < 8; ++x) {

	mov         x8,#0
	str         x8,[sp,#0x18]
	b           |$LN9@AuPutS|
|$LN7@AuPutS|
	ldr         x8,[sp,#0x18]
	add         x8,x8,#1
	str         x8,[sp,#0x18]
|$LN9@AuPutS|
	ldr         x8,[sp,#0x18]
	cmp         x8,#8
	bhs         |$LN8@AuPutS|

; 352  : 
; 353  : 					if (entry.data[y] & (1 << x)) {

	ldr         x9,[sp,#0x10]
	mov         x8,#1
	mul         x9,x9,x8
	add         x8,sp,#0x38
	add         x8,x8,x9
	ldrb        w10,[x8]
	mov         w10,w10
	ldr         x8,[sp,#0x18]
	mov         w9,w8
	mov         w8,#1
	lsl         w8,w8,w9
	and         w8,w10,w8
	cmp         w8,#0
	beq         |$LN22@AuPutS|

; 354  : 						AuPutPixel(x + console_x * 9, y + console_y * 16, CONSOLE_FOREGROUND);

	adrp        x8,console_y
	ldr         w9,[x8,PageOffset(console_y)]
	mov         w8,#0x10
	mul         w8,w9,w8
	uxtw        x9,w8
	ldr         x8,[sp,#0x10]
	add         x1,x8,x9
	adrp        x8,console_x
	ldr         w9,[x8,PageOffset(console_x)]
	mov         w8,#9
	mul         w8,w9,w8
	uxtw        x9,w8
	ldr         x8,[sp,#0x18]
	add         x0,x8,x9
	mov         w2,#-1
	bl          AuPutPixel

; 355  : 					}

	b           |$LN23@AuPutS|
|$LN22@AuPutS|

; 356  : 					else {
; 357  : 						AuPutPixel(x + console_x * 9, y + console_y * 16, CONSOLE_BACKGROUND);

	adrp        x8,console_y
	ldr         w9,[x8,PageOffset(console_y)]
	mov         w8,#0x10
	mul         w8,w9,w8
	uxtw        x9,w8
	ldr         x8,[sp,#0x10]
	add         x1,x8,x9
	adrp        x8,console_x
	ldr         w9,[x8,PageOffset(console_x)]
	mov         w8,#9
	mul         w8,w9,w8
	uxtw        x9,w8
	ldr         x8,[sp,#0x18]
	add         x0,x8,x9
	mov         w2,#0
	bl          AuPutPixel
|$LN23@AuPutS|

; 358  : 					}
; 359  : 				}

	b           |$LN7@AuPutS|
|$LN8@AuPutS|

; 360  : 				AuPutPixel(8 + console_x * 9, y + console_y * 16, CONSOLE_BACKGROUND);

	adrp        x8,console_y
	ldr         w9,[x8,PageOffset(console_y)]
	mov         w8,#0x10
	mul         w8,w9,w8
	uxtw        x9,w8
	ldr         x8,[sp,#0x10]
	add         x1,x8,x9
	adrp        x8,console_x
	ldr         w9,[x8,PageOffset(console_x)]
	mov         w8,#9
	mul         w8,w9,w8
	add         w8,w8,#8
	uxtw        x0,w8
	mov         w2,#0
	bl          AuPutPixel

; 361  : 			}

	b           |$LN4@AuPutS|
|$LN5@AuPutS|

; 362  : 			++console_x;

	adrp        x8,console_x
	ldr         w8,[x8,PageOffset(console_x)]
	add         w9,w8,#1
	adrp        x8,console_x
	str         w9,[x8,PageOffset(console_x)]

; 363  : 			if (console_x > h_res / 9) {

	adrp        x8,console_x
	ldr         w8,[x8,PageOffset(console_x)]
	uxtw        x10,w8
	adrp        x8,h_res
	ldr         x9,[x8,PageOffset(h_res)]
	mov         x8,#9
	udiv        x8,x9,x8
	cmp         x10,x8
	bls         |$LN24@AuPutS|

; 364  : 				console_x = 0;

	adrp        x9,console_x
	mov         w8,#0
	str         w8,[x9,PageOffset(console_x)]

; 365  : 				++console_y;

	adrp        x8,console_y
	ldr         w8,[x8,PageOffset(console_y)]
	add         w9,w8,#1
	adrp        x8,console_y
	str         w9,[x8,PageOffset(console_y)]
|$LN24@AuPutS|
|$LN20@AuPutS|
|$LN18@AuPutS|
|$LN16@AuPutS|
|$LN14@AuPutS|

; 366  : 			}
; 367  : 		}
; 368  : 
; 369  : 		++str;

	ldr         x8,[sp,#8]
	add         x8,x8,#1
	str         x8,[sp,#8]

; 370  : 	}

	b           |$LN2@AuPutS|
|$LN3@AuPutS|

; 371  : 
; 372  : 
; 373  : 	/* Scroll */
; 374  : 	if (console_y + 1 > v_res / 16)

	adrp        x8,console_y
	ldr         w8,[x8,PageOffset(console_y)]
	add         w8,w8,#1
	uxtw        x10,w8
	adrp        x8,v_res
	ldr         x9,[x8,PageOffset(v_res)]
	mov         x8,#0x10
	udiv        x8,x9,x8
	cmp         x10,x8
	bls         |$LN25@AuPutS|

; 375  : 	{
; 376  : 		for (int i = 16; i < v_res * h_res; i++)

	mov         w8,#0x10
	str         w8,[sp]
	b           |$LN12@AuPutS|
|$LN10@AuPutS|
	ldr         w8,[sp]
	add         w8,w8,#1
	str         w8,[sp]
|$LN12@AuPutS|
	ldr         w8,[sp]
	sxtw        x10,w8
	adrp        x8,v_res
	ldr         x9,[x8,PageOffset(v_res)]
	adrp        x8,h_res
	ldr         x8,[x8,PageOffset(h_res)]
	mul         x8,x9,x8
	cmp         x10,x8
	bhs         |$LN11@AuPutS|

; 377  : 			lfb[i] = lfb[i + h_res * 16];

	ldr         w8,[sp]
	sxtw        x10,w8
	adrp        x8,h_res
	ldr         x9,[x8,PageOffset(h_res)]
	mov         x8,#0x10
	mul         x8,x9,x8
	add         x9,x10,x8
	mov         x8,#4
	mul         x9,x9,x8
	ldr         x8,[sp,#0x20]
	add         x10,x8,x9
	ldr         w8,[sp]
	sxtw        x9,w8
	mov         x8,#4
	mul         x9,x9,x8
	ldr         x8,[sp,#0x20]
	add         x9,x8,x9
	ldr         w8,[x10]
	str         w8,[x9]
	b           |$LN10@AuPutS|
|$LN11@AuPutS|

; 378  : 		console_y--;

	adrp        x8,console_y
	ldr         w8,[x8,PageOffset(console_y)]
	sub         w9,w8,#1
	adrp        x8,console_y
	str         w9,[x8,PageOffset(console_y)]
|$LN25@AuPutS|
	add         sp,sp,#0x50
	ldr         lr,[sp],#0x10
	ret

	ENDP  ; |AuPutS|

; Function compile flags: /Odtpy
; File C:\Users\paras\source\repos\grep-name\XenevaOS\KernelAA64\aucon.c

	AREA	|.text$mn|, CODE, ARM64

|AuPutC| PROC

; 292  : void AuPutC(char c) {

|$LN16|
	str         lr,[sp,#-0x10]!
	sub         sp,sp,#0x40
	sxtb        w8,w0
	strb        w8,[sp]

; 293  : 	if (console_x > v_res / 9) {

	adrp        x8,console_x
	ldr         w8,[x8,PageOffset(console_x)]
	uxtw        x10,w8
	adrp        x8,v_res
	ldr         x9,[x8,PageOffset(v_res)]
	mov         x8,#9
	udiv        x8,x9,x8
	cmp         x10,x8
	bls         |$LN11@AuPutC|

; 294  : 		console_x = 0;

	adrp        x9,console_x
	mov         w8,#0
	str         w8,[x9,PageOffset(console_x)]

; 295  : 		console_y++;

	adrp        x8,console_y
	ldr         w8,[x8,PageOffset(console_y)]
	add         w9,w8,#1
	adrp        x8,console_y
	str         w9,[x8,PageOffset(console_y)]
|$LN11@AuPutC|

; 296  : 	}
; 297  : 
; 298  : 	for (size_t y = 0; y < 16; ++y) {

	mov         x8,#0
	str         x8,[sp,#8]
	b           |$LN4@AuPutC|
|$LN2@AuPutC|
	ldr         x8,[sp,#8]
	add         x8,x8,#1
	str         x8,[sp,#8]
|$LN4@AuPutC|
	ldr         x8,[sp,#8]
	cmp         x8,#0x10
	bhs         |$LN3@AuPutC|

; 299  : 		for (size_t x = 0; x < 8; ++x) {

	mov         x8,#0
	str         x8,[sp,#0x10]
	b           |$LN7@AuPutC|
|$LN5@AuPutC|
	ldr         x8,[sp,#0x10]
	add         x8,x8,#1
	str         x8,[sp,#0x10]
|$LN7@AuPutC|
	ldr         x8,[sp,#0x10]
	cmp         x8,#8
	bhs         |$LN6@AuPutC|

; 300  : 			const bx_fontcharbitmap_t entry = bx_vgafont[c];

	ldrsb       w8,[sp]
	sxtw        x9,w8
	mov         x8,#0x10
	mul         x9,x9,x8
	adrp        x8,bx_vgafont
	add         x8,x8,PageOffset(bx_vgafont)
	add         x8,x8,x9
	add         x10,sp,#0x20
	ldp         x9,x8,[x8]
	stp         x9,x8,[x10]
	add         x10,sp,#0x30
	add         x8,sp,#0x20
	ldp         x9,x8,[x8]
	stp         x9,x8,[x10]

; 301  : 			if (entry.data[y] & (1 << x)) {

	ldr         x9,[sp,#8]
	mov         x8,#1
	mul         x9,x9,x8
	add         x8,sp,#0x30
	add         x8,x8,x9
	ldrb        w10,[x8]
	mov         w10,w10
	ldr         x8,[sp,#0x10]
	mov         w9,w8
	mov         w8,#1
	lsl         w8,w8,w9
	and         w8,w10,w8
	cmp         w8,#0
	beq         |$LN12@AuPutC|

; 302  : 				AuPutPixel(x + console_x * 9, y + console_y * 16, CONSOLE_FOREGROUND);

	adrp        x8,console_y
	ldr         w9,[x8,PageOffset(console_y)]
	mov         w8,#0x10
	mul         w8,w9,w8
	uxtw        x9,w8
	ldr         x8,[sp,#8]
	add         x1,x8,x9
	adrp        x8,console_x
	ldr         w9,[x8,PageOffset(console_x)]
	mov         w8,#9
	mul         w8,w9,w8
	uxtw        x9,w8
	ldr         x8,[sp,#0x10]
	add         x0,x8,x9
	mov         w2,#-1
	bl          AuPutPixel

; 303  : 			}

	b           |$LN13@AuPutC|
|$LN12@AuPutC|

; 304  : 			else {
; 305  : 				AuPutPixel(x + console_x * 9, y + console_y * 16, CONSOLE_BACKGROUND);

	adrp        x8,console_y
	ldr         w9,[x8,PageOffset(console_y)]
	mov         w8,#0x10
	mul         w8,w9,w8
	uxtw        x9,w8
	ldr         x8,[sp,#8]
	add         x1,x8,x9
	adrp        x8,console_x
	ldr         w9,[x8,PageOffset(console_x)]
	mov         w8,#9
	mul         w8,w9,w8
	uxtw        x9,w8
	ldr         x8,[sp,#0x10]
	add         x0,x8,x9
	mov         w2,#0
	bl          AuPutPixel
|$LN13@AuPutC|

; 306  : 			}
; 307  : 		}

	b           |$LN5@AuPutC|
|$LN6@AuPutC|

; 308  : 		AuPutPixel(8 + console_x * 9, y + console_y * 16, CONSOLE_BACKGROUND);

	adrp        x8,console_y
	ldr         w9,[x8,PageOffset(console_y)]
	mov         w8,#0x10
	mul         w8,w9,w8
	uxtw        x9,w8
	ldr         x8,[sp,#8]
	add         x1,x8,x9
	adrp        x8,console_x
	ldr         w9,[x8,PageOffset(console_x)]
	mov         w8,#9
	mul         w8,w9,w8
	add         w8,w8,#8
	uxtw        x0,w8
	mov         w2,#0
	bl          AuPutPixel

; 309  : 	}

	b           |$LN2@AuPutC|
|$LN3@AuPutC|

; 310  : 
; 311  : 	console_x++;

	adrp        x8,console_x
	ldr         w8,[x8,PageOffset(console_x)]
	add         w9,w8,#1
	adrp        x8,console_x
	str         w9,[x8,PageOffset(console_x)]

; 312  : 
; 313  : 	uint32_t* lfb = aucon->buffer;

	adrp        x8,aucon
	ldr         x8,[x8,PageOffset(aucon)]
	add         x8,x8,#8
	ldr         x8,[x8]
	str         x8,[sp,#0x18]

; 314  : 	if (console_y + 1 > h_res / 16)

	adrp        x8,console_y
	ldr         w8,[x8,PageOffset(console_y)]
	add         w8,w8,#1
	uxtw        x10,w8
	adrp        x8,h_res
	ldr         x9,[x8,PageOffset(h_res)]
	mov         x8,#0x10
	udiv        x8,x9,x8
	cmp         x10,x8
	bls         |$LN14@AuPutC|

; 315  : 	{
; 316  : 		for (int i = 16; i < h_res * v_res; i++)

	mov         w8,#0x10
	str         w8,[sp,#4]
	b           |$LN10@AuPutC|
|$LN8@AuPutC|
	ldr         w8,[sp,#4]
	add         w8,w8,#1
	str         w8,[sp,#4]
|$LN10@AuPutC|
	ldr         w8,[sp,#4]
	sxtw        x10,w8
	adrp        x8,h_res
	ldr         x9,[x8,PageOffset(h_res)]
	adrp        x8,v_res
	ldr         x8,[x8,PageOffset(v_res)]
	mul         x8,x9,x8
	cmp         x10,x8
	bhs         |$LN9@AuPutC|

; 317  : 			lfb[i] = lfb[i + v_res * 16];

	ldr         w8,[sp,#4]
	sxtw        x10,w8
	adrp        x8,v_res
	ldr         x9,[x8,PageOffset(v_res)]
	mov         x8,#0x10
	mul         x8,x9,x8
	add         x9,x10,x8
	mov         x8,#4
	mul         x9,x9,x8
	ldr         x8,[sp,#0x18]
	add         x10,x8,x9
	ldr         w8,[sp,#4]
	sxtw        x9,w8
	mov         x8,#4
	mul         x9,x9,x8
	ldr         x8,[sp,#0x18]
	add         x9,x8,x9
	ldr         w8,[x10]
	str         w8,[x9]
	b           |$LN8@AuPutC|
|$LN9@AuPutC|

; 318  : 		console_y--;

	adrp        x8,console_y
	ldr         w8,[x8,PageOffset(console_y)]
	sub         w9,w8,#1
	adrp        x8,console_y
	str         w9,[x8,PageOffset(console_y)]
|$LN14@AuPutC|
	add         sp,sp,#0x40
	ldr         lr,[sp],#0x10
	ret

	ENDP  ; |AuPutC|

; Function compile flags: /Odtpy
; File C:\Users\paras\source\repos\grep-name\XenevaOS\KernelAA64\aucon.c

	AREA	|.text$mn|, CODE, ARM64

|AuPutPixel| PROC

; 273  : void AuPutPixel(size_t x, size_t y, uint32_t col) {

|$LN3|
	sub         sp,sp,#0x30
	str         x0,[sp,#0x18]
	str         x1,[sp,#0x10]
	str         w2,[sp]

; 274  : 
; 275  : 	uint32_t* framebuffer = aucon->buffer;

	adrp        x8,aucon
	ldr         x8,[x8,PageOffset(aucon)]
	add         x8,x8,#8
	ldr         x8,[x8]
	str         x8,[sp,#0x20]

; 276  : 	uint32_t bpp = aucon->bpp;

	adrp        x8,aucon
	ldr         x8,[x8,PageOffset(aucon)]
	add         x8,x8,#0x10
	ldr         w8,[x8]
	str         w8,[sp,#4]

; 277  : 	uint32_t pixelPerLine = aucon->scanline;

	adrp        x8,aucon
	ldr         x8,[x8,PageOffset(aucon)]
	add         x8,x8,#0x14
	ldrh        w8,[x8]
	mov         w8,w8
	str         w8,[sp,#8]

; 278  : 
; 279  : 	/*uint32_t* pixelloc = RAW_OFFSET(uint32_t*,framebuffer, (pixelPerLine * y + x) * (bpp / 8));
; 280  : 	size_t pixel = ((RED(col) << low_set_bit(redmask)) & redmask) |
; 281  : 		((GREEN(col) << low_set_bit(greenmask)) & greenmask) |
; 282  : 		((BLUE(col) << low_set_bit(bluemask)) & bluemask) |
; 283  : 		(*pixelloc & resvmask);
; 284  : 	*pixelloc = pixel;*/
; 285  : 	framebuffer[y * aucon->width + x] = col;

	adrp        x8,aucon
	ldr         x8,[x8,PageOffset(aucon)]
	ldr         w8,[x8]
	uxtw        x9,w8
	ldr         x8,[sp,#0x10]
	mul         x9,x8,x9
	ldr         x8,[sp,#0x18]
	add         x9,x9,x8
	mov         x8,#4
	mul         x9,x9,x8
	ldr         x8,[sp,#0x20]
	add         x9,x8,x9
	ldr         w8,[sp]
	str         w8,[x9]
	add         sp,sp,#0x30
	ret

	ENDP  ; |AuPutPixel|

; Function compile flags: /Odtpy
; File C:\Users\paras\source\repos\grep-name\XenevaOS\KernelAA64\aucon.c

	AREA	|.text$mn|, CODE, ARM64

|low_set_bit| PROC

; 244  : int_fast8_t low_set_bit(size_t sz) {

|$LN6|
	sub         sp,sp,#0x10
	str         x0,[sp,#8]

; 245  : 	int_fast8_t count = -1;

	mov         w8,#-1
	strb        w8,[sp]
|$LN2@low_set_bi|

; 246  : 	while (sz) {

	ldr         x8,[sp,#8]
	cmp         x8,#0
	beq         |$LN3@low_set_bi|

; 247  : 		count += 1;

	ldrsb       w8,[sp]
	mov         w8,w8
	add         w8,w8,#1
	sxtb        w8,w8
	strb        w8,[sp]

; 248  : 		if ((sz & 1) != 0)

	ldr         x8,[sp,#8]
	tbz         x8,#0,|$LN4@low_set_bi|

; 249  : 			break;

	b           |$LN3@low_set_bi|
|$LN4@low_set_bi|

; 250  : 		sz >>= 1;

	ldr         x8,[sp,#8]
	lsr         x8,x8,#1
	str         x8,[sp,#8]

; 251  : 	}

	b           |$LN2@low_set_bi|
|$LN3@low_set_bi|

; 252  : 	return count;

	ldrsb       w0,[sp]
	add         sp,sp,#0x10
	ret

	ENDP  ; |low_set_bit|

; Function compile flags: /Odtpy
; File C:\Users\paras\source\repos\grep-name\XenevaOS\KernelAA64\aucon.c

	AREA	|.text$mn|, CODE, ARM64

|high_set_bit| PROC

; 235  : int_fast8_t high_set_bit(size_t sz) {

|$LN5|
	sub         sp,sp,#0x10
	str         x0,[sp,#8]

; 236  : 	int_fast8_t count = -1;

	mov         w8,#-1
	strb        w8,[sp]
|$LN2@high_set_b|

; 237  : 	while (sz) {

	ldr         x8,[sp,#8]
	cmp         x8,#0
	beq         |$LN3@high_set_b|

; 238  : 		sz >>= 1;

	ldr         x8,[sp,#8]
	lsr         x8,x8,#1
	str         x8,[sp,#8]

; 239  : 		count += 1;

	ldrsb       w8,[sp]
	mov         w8,w8
	add         w8,w8,#1
	sxtb        w8,w8
	strb        w8,[sp]

; 240  : 	}

	b           |$LN2@high_set_b|
|$LN3@high_set_b|

; 241  : 	return count;

	ldrsb       w0,[sp]
	add         sp,sp,#0x10
	ret

	ENDP  ; |high_set_bit|

; Function compile flags: /Odtpy
; File C:\Users\paras\source\repos\grep-name\XenevaOS\KernelAA64\aucon.c

	AREA	|.text$mn|, CODE, ARM64

|AuConsoleIoControl| PROC

; 98   : int AuConsoleIoControl(AuVFSNode* file, int code, void* arg) {

|$LN32|
	str         lr,[sp,#-0x10]!
	sub         sp,sp,#0x60
	str         x0,[sp,#0x58]
	str         w1,[sp,#0x18]
	str         x2,[sp,#0x48]

; 99   : 	int ret = 0;

	mov         w8,#0
	str         w8,[sp,#0x2C]

; 100  : 	AuFileIOControl* ioctl = (AuFileIOControl*)arg;

	ldr         x8,[sp,#0x48]
	str         x8,[sp,#0x10]

; 101  : 	/*if (ioctl->syscall_magic != AURORA_SYSCALL_MAGIC)
; 102  : 		return 0;*/
; 103  : 
; 104  : 	if (!aucon)

	adrp        x8,aucon
	ldr         x8,[x8,PageOffset(aucon)]
	cmp         x8,#0
	bne         |$LN7@AuConsoleI|

; 105  : 		return 0;

	mov         w0,#0
	b           |$LN1@AuConsoleI|
|$LN7@AuConsoleI|

; 106  : 
; 107  : 	switch (code) {

	ldr         w8,[sp,#0x18]
	str         w8,[sp,#4]
	ldr         w8,[sp,#4]
	sub         w8,w8,#0xC9
	str         w8,[sp,#4]
	ldr         w8,[sp,#4]
	cmp         w8,#8
	bhi         |$LN2@AuConsoleI|
	ldr         w10,[sp,#4]
	adr         x9,__swt
	ldrsb       x8,[x9,w10 uxtw #0]
	add         x8,x9,x8,lsl #2
	br          x8
|$LN8@AuConsoleI|

; 108  : 	case SCREEN_GETWIDTH: {
; 109  : 		uint32_t width = aucon->width;

	adrp        x8,aucon
	ldr         x8,[x8,PageOffset(aucon)]
	ldr         w8,[x8]
	str         w8,[sp,#0x1C]

; 110  : 		ioctl->uint_1 = width;

	ldr         x8,[sp,#0x10]
	add         x9,x8,#0xC
	ldr         w8,[sp,#0x1C]
	str         w8,[x9]

; 111  : 		//memcpy(&ioctl->uint_1, &width, sizeof(uint32_t));
; 112  : 		break;

	b           |$LN2@AuConsoleI|
|$LN9@AuConsoleI|

; 113  : 	}
; 114  : 	case SCREEN_GETHEIGHT: {
; 115  : 		uint32_t height = aucon->height;

	adrp        x8,aucon
	ldr         x8,[x8,PageOffset(aucon)]
	add         x8,x8,#4
	ldr         w8,[x8]
	str         w8,[sp,#0x20]

; 116  : 		ioctl->uint_1 = height;

	ldr         x8,[sp,#0x10]
	add         x9,x8,#0xC
	ldr         w8,[sp,#0x20]
	str         w8,[x9]

; 117  : 		break;

	b           |$LN2@AuConsoleI|
|$LN10@AuConsoleI|

; 118  : 	}
; 119  : 	case SCREEN_GETBPP: {
; 120  : 		uint32_t bpp = aucon->bpp;

	adrp        x8,aucon
	ldr         x8,[x8,PageOffset(aucon)]
	add         x8,x8,#0x10
	ldr         w8,[x8]
	str         w8,[sp,#0x24]

; 121  : 		ioctl->uint_1 = bpp;

	ldr         x8,[sp,#0x10]
	add         x9,x8,#0xC
	ldr         w8,[sp,#0x24]
	str         w8,[x9]

; 122  : 		break;

	b           |$LN2@AuConsoleI|
|$LN11@AuConsoleI|

; 123  : 	}
; 124  : 	case SCREEN_GET_SCANLINE: {
; 125  : 		uint16_t scanline = aucon->scanline;

	adrp        x8,aucon
	ldr         x8,[x8,PageOffset(aucon)]
	add         x8,x8,#0x14
	ldrh        w8,[x8]
	strh        w8,[sp,#8]

; 126  : 		ioctl->ushort_1 = scanline;

	ldr         x8,[sp,#0x10]
	add         x9,x8,#6
	ldrh        w8,[sp,#8]
	strh        w8,[x9]

; 127  : 		break;

	b           |$LN2@AuConsoleI|
|$LN12@AuConsoleI|

; 128  : 	}
; 129  : 	case SCREEN_GET_PITCH: {
; 130  : 		uint32_t pitch = aucon->pitch;

	adrp        x8,aucon
	ldr         x8,[x8,PageOffset(aucon)]
	add         x8,x8,#0x1C
	ldr         w8,[x8]
	str         w8,[sp,#0x28]

; 131  : 		ioctl->uint_1 = pitch;

	ldr         x8,[sp,#0x10]
	add         x9,x8,#0xC
	ldr         w8,[sp,#0x28]
	str         w8,[x9]

; 132  : 		break;

	b           |$LN2@AuConsoleI|
|$LN13@AuConsoleI|

; 133  : 	}
; 134  : 	case SCREEN_GET_FB: {
; 135  : 		/* here need to map the physical framebuffer for desired process */
; 136  : 		AA64Thread* thr = AuGetCurrentThread();

	bl          AuGetCurrentThread
	str         x0,[sp,#0x30]

; 137  : 		if (!thr)

	ldr         x8,[sp,#0x30]
	cmp         x8,#0
	bne         |$LN14@AuConsoleI|

; 138  : 			break;

	b           |$LN2@AuConsoleI|
|$LN14@AuConsoleI|

; 139  : 		AuProcess* proc = AuProcessFindThread(thr);

	ldr         x0,[sp,#0x30]
	bl          AuProcessFindThread
	str         x0,[sp,#0x38]

; 140  : 		if (!proc) {

	ldr         x8,[sp,#0x38]
	cmp         x8,#0
	bne         |$LN15@AuConsoleI|

; 141  : 			proc = AuProcessFindSubThread(thr);

	ldr         x0,[sp,#0x30]
	bl          AuProcessFindSubThread
	str         x0,[sp,#0x38]

; 142  : 			if (!proc)

	ldr         x8,[sp,#0x38]
	cmp         x8,#0
	bne         |$LN16@AuConsoleI|

; 143  : 				break;

	b           |$LN2@AuConsoleI|
|$LN16@AuConsoleI|
|$LN15@AuConsoleI|

; 144  : 		}
; 145  : 		uint64_t vmaddr= (uint64_t)AuGetFreePage(1, NULL);

	mov         x1,#0
	mov         w0,#1
	bl          AuGetFreePage
	str         x0,[sp,#0x40]

; 146  : 		uint64_t fbaddr = (uint64_t)__framebuffer;

	adrp        x8,__framebuffer
	ldr         x8,[x8,PageOffset(__framebuffer)]
	str         x8,[sp,#0x50]

; 147  : 		for (int i = 0; i < aucon->size / PAGE_SIZE; i++) {

	mov         w8,#0
	str         w8,[sp]
	b           |$LN6@AuConsoleI|
|$LN4@AuConsoleI|
	ldr         w8,[sp]
	add         w8,w8,#1
	str         w8,[sp]
|$LN6@AuConsoleI|
	ldr         w8,[sp]
	sxtw        x10,w8
	adrp        x8,aucon
	ldr         x8,[x8,PageOffset(aucon)]
	add         x8,x8,#0x18
	ldr         w8,[x8]
	uxtw        x9,w8
	mov         x8,#0x1000
	udiv        x8,x9,x8
	cmp         x10,x8
	bhs         |$LN5@AuConsoleI|

; 148  : 			AuMapPage((uint64_t)fbaddr + (i * PAGE_SIZE),

	ldr         w8,[sp]
	sxtw        x9,w8
	mov         x8,#0x1000
	mul         x9,x9,x8
	ldr         x8,[sp,#0x40]
	add         x1,x8,x9
	ldr         w8,[sp]
	sxtw        x9,w8
	mov         x8,#0x1000
	mul         x9,x9,x8
	ldr         x8,[sp,#0x50]
	add         x0,x8,x9
	mov         w2,#0x48
	bl          AuMapPage

; 149  : 				vmaddr + (i * PAGE_SIZE), PTE_NORMAL_NON_CACHEABLE | PTE_AP_RW_USER);
; 150  : 
; 151  : 		}

	b           |$LN4@AuConsoleI|
|$LN5@AuConsoleI|

; 152  : 		//uint64_t buffaddr = (uint64_t)aucon->buffer;
; 153  : 		ioctl->ulong_1 = vmaddr;

	ldr         x8,[sp,#0x10]
	add         x9,x8,#0x18
	ldr         x8,[sp,#0x40]
	str         x8,[x9]

; 154  : 		break;

	b           |$LN2@AuConsoleI|
|$LN17@AuConsoleI|

; 155  : 	}
; 156  : 
; 157  : 	case SCREEN_REG_MNGR: {
; 158  : 		return 1;

	mov         w0,#1
	b           |$LN1@AuConsoleI|
|$LN2@AuConsoleI|

; 159  : 		break;
; 160  : 	}
; 161  : 
; 162  : 	}
; 163  : 	return ret;

	ldr         w0,[sp,#0x2C]
|$LN1@AuConsoleI|
	add         sp,sp,#0x60
	ldr         lr,[sp],#0x10
	ret
|__swt|
|$LN20@AuConsoleI|

; 106  : 
; 107  : 	switch (code) {

	DCB         0x8a
|$LN21@AuConsoleI|
	DCB         0x93
|$LN22@AuConsoleI|
	DCB         0x9d
|$LN23@AuConsoleI|
	DCB         0xfc
|$LN24@AuConsoleI|
	DCB         0xfc
|$LN25@AuConsoleI|
	DCB         0xa7
|$LN26@AuConsoleI|
	DCB         0xb1
|$LN27@AuConsoleI|
	DCB         0xfa
|$LN28@AuConsoleI|
	DCB         0xbb
|$LN29@AuConsoleI|
	DCB         0xbb
|$LN30@AuConsoleI|
	DCB         0xbb
|$LN31@AuConsoleI|
	DCB         0xbb

	ENDP  ; |AuConsoleIoControl|

; Function compile flags: /Odtpy
; File C:\Users\paras\source\repos\grep-name\XenevaOS\KernelAA64\aucon.c

	AREA	|.text$mn|, CODE, ARM64

|AuTestPrint| PROC

; 70   : void AuTestPrint() {

|$LN3|
	str         lr,[sp,#-0x10]!

; 71   : 	AuUartPutString("Upto here \r\n");

	adrp        x8,|$SG3527|
	add         x0,x8,PageOffset(|$SG3527|)
	bl          AuUartPutString
	ldr         lr,[sp],#0x10
	ret

	ENDP  ; |AuTestPrint|

; Function compile flags: /Odtpy
; File C:\Users\paras\source\repos\grep-name\XenevaOS\KernelAA64\aucon.c

	AREA	|.text$mn|, CODE, ARM64

|AuConsoleSetConInfo| PROC

; 608  : void AuConsoleSetConInfo(uint64_t phys, uint64_t virtual, size_t xres, size_t yres) {

|$LN3|
	sub         sp,sp,#0x20
	str         x0,[sp,#0x10]
	str         x1,[sp,#0x18]
	str         x2,[sp]
	str         x3,[sp,#8]

; 609  : 	__framebuffer = (uint32_t*)phys;

	adrp        x9,__framebuffer
	ldr         x8,[sp,#0x10]
	str         x8,[x9,PageOffset(__framebuffer)]

; 610  : 	aucon->buffer = (uint32_t*)virtual;

	adrp        x8,aucon
	ldr         x8,[x8,PageOffset(aucon)]
	add         x9,x8,#8
	ldr         x8,[sp,#0x18]
	str         x8,[x9]

; 611  : 	aucon->width = xres;

	adrp        x8,aucon
	ldr         x9,[x8,PageOffset(aucon)]
	ldr         x8,[sp]
	mov         w8,w8
	str         w8,[x9]

; 612  : 	aucon->height = yres;

	adrp        x8,aucon
	ldr         x8,[x8,PageOffset(aucon)]
	add         x9,x8,#4
	ldr         x8,[sp,#8]
	mov         w8,w8
	str         w8,[x9]

; 613  : 	aucon->size = xres * yres * 4;

	ldr         x9,[sp]
	ldr         x8,[sp,#8]
	mul         x9,x9,x8
	mov         x8,#4
	mul         x10,x9,x8
	adrp        x8,aucon
	ldr         x8,[x8,PageOffset(aucon)]
	add         x9,x8,#0x18
	mov         w8,w10
	str         w8,[x9]
	add         sp,sp,#0x20
	ret

	ENDP  ; |AuConsoleSetConInfo|

; Function compile flags: /Odtpy
; File C:\Users\paras\source\repos\grep-name\XenevaOS\KernelAA64\aucon.c

	AREA	|.text$mn|, CODE, ARM64

|AuConsoleGetScreenHeight| PROC

; 599  : 	if (!aucon)

	adrp        x8,aucon
	ldr         x8,[x8,PageOffset(aucon)]
	cmp         x8,#0
	bne         |$LN2@AuConsoleG|

; 600  : 		return 0;

	mov         w0,#0
	b           |$LN1@AuConsoleG|
|$LN2@AuConsoleG|

; 601  : 	return aucon->height;

	adrp        x8,aucon
	ldr         x8,[x8,PageOffset(aucon)]
	add         x8,x8,#4
	ldr         w0,[x8]
|$LN1@AuConsoleG|
	ret

	ENDP  ; |AuConsoleGetScreenHeight|

; Function compile flags: /Odtpy
; File C:\Users\paras\source\repos\grep-name\XenevaOS\KernelAA64\aucon.c

	AREA	|.text$mn|, CODE, ARM64

|AuConsoleGetScreenWidth| PROC

; 588  : 	if (!aucon)

	adrp        x8,aucon
	ldr         x8,[x8,PageOffset(aucon)]
	cmp         x8,#0
	bne         |$LN2@AuConsoleG|

; 589  : 		return 0;

	mov         w0,#0
	b           |$LN1@AuConsoleG|
|$LN2@AuConsoleG|

; 590  : 	return aucon->width;

	adrp        x8,aucon
	ldr         x8,[x8,PageOffset(aucon)]
	ldr         w0,[x8]
|$LN1@AuConsoleG|
	ret

	ENDP  ; |AuConsoleGetScreenWidth|

; Function compile flags: /Odtpy
; File C:\Users\paras\source\repos\grep-name\XenevaOS\KernelAA64\aucon.c

	AREA	|.text$mn|, CODE, ARM64

|AuConsoleEarlyEnable| PROC

; 578  : void AuConsoleEarlyEnable(bool value) {

|$LN3|
	sub         sp,sp,#0x10
	uxtb        w8,w0
	strb        w8,[sp]

; 579  : 	aucon->early_mode = value;

	adrp        x8,aucon
	ldr         x8,[x8,PageOffset(aucon)]
	add         x9,x8,#0x20
	ldrb        w8,[sp]
	strb        w8,[x9]
	add         sp,sp,#0x10
	ret

	ENDP  ; |AuConsoleEarlyEnable|

; Function compile flags: /Odtpy
; File C:\Users\paras\source\repos\grep-name\XenevaOS\KernelAA64\aucon.c

	AREA	|.text$mn|, CODE, ARM64

|AuTextOut| PROC

; 387  : void AuTextOut(const char* format, ...) {

|$LN29|
	str         lr,[sp,#-0x10]!
	sub         sp,sp,#0x120
	str         x0,[sp]

; 388  : 	if (early_) {

	adrp        x8,early_
	ldrb        w8,[x8,PageOffset(early_)]
	mov         w8,w8
	cmp         w8,#0
	beq         |$LN7@AuTextOut|

; 389  : 		if (is_uart_initialized())

	bl          is_uart_initialized
	uxtb        w8,w0
	mov         w8,w8
	cmp         w8,#0
	beq         |$LN8@AuTextOut|

; 390  : 			UARTDebugOut(format);

	ldr         x0,[sp]
	bl          UARTDebugOut
	b           |$LN9@AuTextOut|
|$LN8@AuTextOut|

; 391  : 		else
; 392  : 			_print_func(format);

	ldr         x0,[sp]
	adrp        x8,_print_func
	ldr         x8,[x8,PageOffset(_print_func)]
	blr         x8
|$LN9@AuTextOut|

; 393  : 		return;

	b           |$LN1@AuTextOut|
|$LN7@AuTextOut|

; 394  : 	}
; 395  : 	if (bypass_autextout)

	adrp        x8,bypass_autextout
	ldrb        w8,[x8,PageOffset(bypass_autextout)]
	mov         w8,w8
	cmp         w8,#0
	beq         |$LN10@AuTextOut|

; 396  : 		return;

	b           |$LN1@AuTextOut|
|$LN10@AuTextOut|

; 397  : 
; 398  : 	uint64_t buffer[7];
; 399  : 	store_x0_x7(buffer);

	add         x0,sp,#0xA0
	bl          store_x0_x7

; 400  : 
; 401  : 	va_list args = (va_list)buffer;

	add         x8,sp,#0xA0
	str         x8,[sp,#0x10]
|$LN2@AuTextOut|

; 402  : 	while (*format)

	ldr         x8,[sp]
	ldrsb       w8,[x8]
	mov         w8,w8
	cmp         w8,#0
	beq         |$LN3@AuTextOut|

; 403  : 	{
; 404  : 		if (*format == '%')

	ldr         x8,[sp]
	ldrsb       w8,[x8]
	mov         w8,w8
	cmp         w8,#0x25
	bne         |$LN11@AuTextOut|

; 405  : 		{
; 406  : 			++format;

	ldr         x8,[sp]
	add         x8,x8,#1
	str         x8,[sp]

; 407  : 			if (*format == 'd')

	ldr         x8,[sp]
	ldrsb       w8,[x8]
	mov         w8,w8
	cmp         w8,#0x64
	bne         |$LN13@AuTextOut|

; 408  : 			{
; 409  : 				size_t width = 0;

	mov         x8,#0
	str         x8,[sp,#0x30]

; 410  : 				if (format[1] == '.')

	ldr         x8,[sp]
	add         x8,x8,#1
	ldrsb       w8,[x8]
	mov         w8,w8
	cmp         w8,#0x2E
	bne         |$LN15@AuTextOut|

; 411  : 				{
; 412  : 					for (size_t i = 2; format[i] >= '0' && format[i] <= '9'; ++i)

	mov         x8,#2
	str         x8,[sp,#0x20]
	b           |$LN6@AuTextOut|
|$LN4@AuTextOut|
	ldr         x8,[sp,#0x20]
	add         x8,x8,#1
	str         x8,[sp,#0x20]
|$LN6@AuTextOut|
	ldr         x9,[sp,#0x20]
	mov         x8,#1
	mul         x9,x9,x8
	ldr         x8,[sp]
	add         x8,x8,x9
	ldrsb       w8,[x8]
	mov         w8,w8
	cmp         w8,#0x30
	blt         |$LN5@AuTextOut|
	ldr         x9,[sp,#0x20]
	mov         x8,#1
	mul         x9,x9,x8
	ldr         x8,[sp]
	add         x8,x8,x9
	ldrsb       w8,[x8]
	mov         w8,w8
	cmp         w8,#0x39
	bgt         |$LN5@AuTextOut|

; 413  : 					{
; 414  : 						width *= 10;

	ldr         x9,[sp,#0x30]
	mov         x8,#0xA
	mul         x8,x9,x8
	str         x8,[sp,#0x30]

; 415  : 						width += format[i] - '0';

	ldr         x9,[sp,#0x20]
	mov         x8,#1
	mul         x9,x9,x8
	ldr         x8,[sp]
	add         x8,x8,x9
	ldrsb       w8,[x8]
	mov         w8,w8
	sub         w8,w8,#0x30
	sxtw        x9,w8
	ldr         x8,[sp,#0x30]
	add         x8,x8,x9
	str         x8,[sp,#0x30]

; 416  : 					}

	b           |$LN4@AuTextOut|
|$LN5@AuTextOut|
|$LN15@AuTextOut|

; 417  : 				}
; 418  : 				size_t i = va_arg(args, size_t);

	ldr         x8,[sp,#0x10]
	add         x8,x8,#8
	str         x8,[sp,#0x10]
	ldr         x8,[sp,#0x10]
	sub         x8,x8,#8
	ldr         x8,[x8]
	str         x8,[sp,#0x28]

; 419  : 				char buffer[sizeof(size_t) * 8 + 1];
; 420  : 				//	size_t len
; 421  : 				if ((int)i < 0) {

	ldr         x8,[sp,#0x28]
	mov         w8,w8
	cmp         w8,#0
	bge         |$LN16@AuTextOut|

; 422  : 					AuPutS("-");

	adrp        x8,|$SG3766|
	add         x0,x8,PageOffset(|$SG3766|)
	bl          AuPutS

; 423  : 					i = ((int)i * -1);

	ldr         x8,[sp,#0x28]
	mov         w9,w8
	mov         w8,#-1
	mul         w8,w9,w8
	sxtw        x8,w8
	str         x8,[sp,#0x28]

; 424  : 					sztoa(i, buffer, 10);

	mov         w2,#0xA
	add         x1,sp,#0x58
	ldr         x0,[sp,#0x28]
	bl          sztoa

; 425  : 				}

	b           |$LN17@AuTextOut|
|$LN16@AuTextOut|

; 426  : 				else {
; 427  : 					sztoa(i, buffer, 10);

	mov         w2,#0xA
	add         x1,sp,#0x58
	ldr         x0,[sp,#0x28]
	bl          sztoa

; 428  : 					size_t len = strlen(buffer);

	add         x0,sp,#0x58
	bl          strlen
	str         x0,[sp,#0x50]
|$LN17@AuTextOut|

; 429  : 				}
; 430  : 				/*	while (len++ < width)
; 431  : 				puts("0");*/
; 432  : 				AuPutS(buffer);

	add         x0,sp,#0x58
	bl          AuPutS

; 433  : 			}

	b           |$LN14@AuTextOut|
|$LN13@AuTextOut|

; 434  : 			else if (*format == 'c')

	ldr         x8,[sp]
	ldrsb       w8,[x8]
	mov         w8,w8
	cmp         w8,#0x63
	bne         |$LN18@AuTextOut|

; 435  : 			{
; 436  : 				char c = va_arg(args, char);

	ldr         x8,[sp,#0x10]
	add         x8,x8,#4
	str         x8,[sp,#0x10]
	ldr         x8,[sp,#0x10]
	sub         x8,x8,#4
	ldrsb       w8,[x8]
	strb        w8,[sp,#8]

; 437  : 				//char buffer[sizeof(size_t) * 8 + 1];
; 438  : 				//sztoa(c, buffer, 10);
; 439  : 				//puts(buffer);
; 440  : 				AuPutC(c);

	ldrsb       w0,[sp,#8]
	bl          AuPutC

; 441  : 			}

	b           |$LN19@AuTextOut|
|$LN18@AuTextOut|

; 442  : 			else if (*format == 'x')

	ldr         x8,[sp]
	ldrsb       w8,[x8]
	mov         w8,w8
	cmp         w8,#0x78
	bne         |$LN20@AuTextOut|

; 443  : 			{
; 444  : 				size_t x = va_arg(args, size_t);

	ldr         x8,[sp,#0x10]
	add         x8,x8,#8
	str         x8,[sp,#0x10]
	ldr         x8,[sp,#0x10]
	sub         x8,x8,#8
	ldr         x8,[x8]
	str         x8,[sp,#0x38]

; 445  : 				char buffer[sizeof(size_t) * 8 + 1];
; 446  : 				sztoa(x, buffer, 16);

	mov         w2,#0x10
	add         x1,sp,#0xD8
	ldr         x0,[sp,#0x38]
	bl          sztoa

; 447  : 				//puts("0x");
; 448  : 				AuPutS(buffer);

	add         x0,sp,#0xD8
	bl          AuPutS

; 449  : 			}

	b           |$LN21@AuTextOut|
|$LN20@AuTextOut|

; 450  : 			else if (*format == 's')

	ldr         x8,[sp]
	ldrsb       w8,[x8]
	mov         w8,w8
	cmp         w8,#0x73
	bne         |$LN22@AuTextOut|

; 451  : 			{
; 452  : 				char* x = va_arg(args, char*);

	ldr         x8,[sp,#0x10]
	add         x8,x8,#8
	str         x8,[sp,#0x10]
	ldr         x8,[sp,#0x10]
	sub         x8,x8,#8
	ldr         x8,[x8]
	str         x8,[sp,#0x40]

; 453  : 				AuPutS(x);

	ldr         x0,[sp,#0x40]
	bl          AuPutS

; 454  : 			}

	b           |$LN23@AuTextOut|
|$LN22@AuTextOut|

; 455  : 			else if (*format == 'f')

	ldr         x8,[sp]
	ldrsb       w8,[x8]
	mov         w8,w8
	cmp         w8,#0x66
	bne         |$LN24@AuTextOut|

; 456  : 			{
; 457  : 				double x = va_arg(args, double);

	ldr         x8,[sp,#0x10]
	add         x8,x8,#8
	str         x8,[sp,#0x10]
	ldr         x8,[sp,#0x10]
	sub         x8,x8,#8
	ldr         d16,[x8]
	str         d16,[sp,#0x48]

; 458  : 				AuPutS(ftoa(x, 2));

	ldr         d16,[sp,#0x48]
	fcvt        s0,d16
	mov         w0,#2
	bl          ftoa
	bl          AuPutS

; 459  : 			}

	b           |$LN25@AuTextOut|
|$LN24@AuTextOut|

; 460  : 			else if (*format == '%')

	ldr         x8,[sp]
	ldrsb       w8,[x8]
	mov         w8,w8
	cmp         w8,#0x25
	bne         |$LN26@AuTextOut|

; 461  : 			{
; 462  : 				AuPutS(".");

	adrp        x8,|$SG3777|
	add         x0,x8,PageOffset(|$SG3777|)
	bl          AuPutS

; 463  : 			}

	b           |$LN27@AuTextOut|
|$LN26@AuTextOut|

; 464  : 			else
; 465  : 			{
; 466  : 				char buf[3];
; 467  : 				buf[0] = '%'; buf[1] = *format; buf[2] = '\0';

	mov         w8,#0x25
	strb        w8,[sp,#0x1C]
	ldr         x8,[sp]
	ldrsb       w8,[x8]
	strb        w8,[sp,#0x1D]
	mov         w8,#0
	strb        w8,[sp,#0x1E]

; 468  : 				AuPutS(buf);

	add         x0,sp,#0x1C
	bl          AuPutS
|$LN27@AuTextOut|
|$LN25@AuTextOut|
|$LN23@AuTextOut|
|$LN21@AuTextOut|
|$LN19@AuTextOut|
|$LN14@AuTextOut|

; 469  : 			}
; 470  : 		}

	b           |$LN12@AuTextOut|
|$LN11@AuTextOut|

; 471  : 		else
; 472  : 		{
; 473  : 			char buf[2];
; 474  : 			buf[0] = *format; buf[1] = '\0';

	ldr         x8,[sp]
	ldrsb       w8,[x8]
	strb        w8,[sp,#0x18]
	mov         w8,#0
	strb        w8,[sp,#0x19]

; 475  : 			AuPutS(buf);

	add         x0,sp,#0x18
	bl          AuPutS
|$LN12@AuTextOut|

; 476  : 		}
; 477  : 		++format;

	ldr         x8,[sp]
	add         x8,x8,#1
	str         x8,[sp]

; 478  : 	}

	b           |$LN2@AuTextOut|
|$LN3@AuTextOut|
|$LN1@AuTextOut|
	add         sp,sp,#0x120
	ldr         lr,[sp],#0x10
	ret

	ENDP  ; |AuTextOut|

; Function compile flags: /Odtpy
; File C:\Users\paras\source\repos\grep-name\XenevaOS\KernelAA64\aucon.c

	AREA	|.text$mn|, CODE, ARM64

|AuConsolePostInitialise| PROC

; 171  : void AuConsolePostInitialise(PKERNEL_BOOT_INFO info) {

|$LN14|
	str         lr,[sp,#-0x10]!
	sub         sp,sp,#0x30
	str         x0,[sp,#0x10]

; 172  : 	/* little boot won't support framebuffer, need to
; 173  : 	 * rely on graphics driver
; 174  : 	 */
; 175  : 	//if (info->boot_type == BOOT_LITTLEBOOT_ARM64) {
; 176  : 	//	info->graphics_framebuffer =
; 177  : 	//}
; 178  : 	if (!info->graphics_framebuffer) {

	ldr         x8,[sp,#0x10]
	add         x8,x8,#0x30
	ldr         x8,[x8]
	cmp         x8,#0
	bne         |$LN11@AuConsoleP|

; 179  : 		AuTextOut("[aurora]: tur luck nai, framebuffer daalu napali, iss iss beya lagi jai deii \r\n");

	adrp        x8,|$SG3604|
	add         x0,x8,PageOffset(|$SG3604|)
	bl          AuTextOut

; 180  : 		AuTextOut("[aurora]: return marisu deii, byee byee \r\n");

	adrp        x8,|$SG3605|
	add         x0,x8,PageOffset(|$SG3605|)
	bl          AuTextOut

; 181  : 		return;

	b           |$LN1@AuConsoleP|
|$LN11@AuConsoleP|

; 182  : 	}
; 183  : 	aucon = (AuConsole*)kmalloc(sizeof(AuConsole));

	mov         w0,#0x28
	bl          kmalloc
	adrp        x8,aucon
	str         x0,[x8,PageOffset(aucon)]

; 184  : 	memset(aucon, 0, sizeof(AuConsole));

	mov         w2,#0x28
	mov         w1,#0
	adrp        x8,aucon
	ldr         x0,[x8,PageOffset(aucon)]
	bl          memset

; 185  : 	size_t fb_sz = (info->fb_size + PAGE_SIZE - 1) / PAGE_SIZE;

	ldr         x8,[sp,#0x10]
	add         x8,x8,#0x38
	ldr         x8,[x8]
	add         x8,x8,#1,lsl #0xC
	sub         x9,x8,#1
	mov         x8,#0x1000
	udiv        x8,x9,x8
	str         x8,[sp,#0x28]

; 186  : 	for (int i = 0; i < fb_sz; i++)

	mov         w8,#0
	str         w8,[sp]
	b           |$LN4@AuConsoleP|
|$LN2@AuConsoleP|
	ldr         w8,[sp]
	add         w8,w8,#1
	str         w8,[sp]
|$LN4@AuConsoleP|
	ldr         w8,[sp]
	sxtw        x9,w8
	ldr         x8,[sp,#0x28]
	cmp         x9,x8
	bhs         |$LN3@AuConsoleP|

; 187  : 		AuMapPage((uint64_t)info->graphics_framebuffer + (i * PAGE_SIZE),

	ldr         w9,[sp]
	mov         w8,#0x1000
	mul         w8,w9,w8
	sxtw        x9,w8
	ldr         x8,|$LN13@AuConsoleP|
	add         x1,x9,x8
	ldr         x8,[sp,#0x10]
	add         x10,x8,#0x30
	ldr         w8,[sp]
	sxtw        x9,w8
	mov         x8,#0x1000
	mul         x9,x9,x8
	ldr         x8,[x10]
	add         x0,x8,x9
	mov         w2,#8
	bl          AuMapPage
	b           |$LN2@AuConsoleP|
|$LN3@AuConsoleP|

; 188  : 			0xFFFFD00000200000 +  (i * 4096), PTE_NORMAL_NON_CACHEABLE);
; 189  : 
; 190  : 	AuTextOut("[aucon]: graphics framebuffer : %x \r\n", info->graphics_framebuffer);

	ldr         x8,[sp,#0x10]
	add         x8,x8,#0x30
	ldr         x1,[x8]
	adrp        x8,|$SG3606|
	add         x0,x8,PageOffset(|$SG3606|)
	bl          AuTextOut

; 191  : 	AuTextOut("[aucon]: width : %d px , height : %d px \r\n", info->X_Resolution, info->Y_Resolution);

	ldr         x8,[sp,#0x10]
	add         x8,x8,#0x42
	ldrh        w2,[x8]
	mov         w2,w2
	ldr         x8,[sp,#0x10]
	add         x8,x8,#0x40
	ldrh        w1,[x8]
	mov         w1,w1
	mov         w2,w2
	mov         w1,w1
	adrp        x8,|$SG3607|
	add         x0,x8,PageOffset(|$SG3607|)
	bl          AuTextOut

; 192  : 	early_ = false;

	adrp        x9,early_
	mov         w8,#0
	strb        w8,[x9,PageOffset(early_)]

; 193  : 	aucon->buffer = (uint32_t*)0xFFFFD00000200000;

	adrp        x8,aucon
	ldr         x8,[x8,PageOffset(aucon)]
	add         x9,x8,#8
	ldr         x8,|$LN13@AuConsoleP|
	str         x8,[x9]

; 194  : 	aucon->width = info->X_Resolution;

	ldr         x8,[sp,#0x10]
	add         x10,x8,#0x40
	adrp        x8,aucon
	ldr         x9,[x8,PageOffset(aucon)]
	ldrh        w8,[x10]
	mov         w8,w8
	str         w8,[x9]

; 195  : 	aucon->height = info->Y_Resolution;

	ldr         x8,[sp,#0x10]
	add         x10,x8,#0x42
	adrp        x8,aucon
	ldr         x8,[x8,PageOffset(aucon)]
	add         x9,x8,#4
	ldrh        w8,[x10]
	mov         w8,w8
	str         w8,[x9]

; 196  : 	aucon->bpp = 32;

	adrp        x8,aucon
	ldr         x8,[x8,PageOffset(aucon)]
	add         x9,x8,#0x10
	mov         w8,#0x20
	str         w8,[x9]

; 197  : 	aucon->scanline = info->pixels_per_line;

	ldr         x8,[sp,#0x10]
	add         x10,x8,#0x44
	adrp        x8,aucon
	ldr         x8,[x8,PageOffset(aucon)]
	add         x9,x8,#0x14
	ldrh        w8,[x10]
	strh        w8,[x9]

; 198  : 	aucon->pitch = 4 * info->pixels_per_line;

	ldr         x8,[sp,#0x10]
	add         x8,x8,#0x44
	ldrh        w9,[x8]
	mov         w9,w9
	mov         w8,#4
	mul         w9,w9,w8
	adrp        x8,aucon
	ldr         x8,[x8,PageOffset(aucon)]
	add         x8,x8,#0x1C
	str         w9,[x8]

; 199  : 	aucon->size = info->fb_size;

	ldr         x8,[sp,#0x10]
	add         x10,x8,#0x38
	adrp        x8,aucon
	ldr         x8,[x8,PageOffset(aucon)]
	add         x9,x8,#0x18
	ldr         x8,[x10]
	mov         w8,w8
	str         w8,[x9]

; 200  : 
; 201  : 	/* the _framebuffer global variable was just there lying freely
; 202  : 	 * decided to use it to store the address of physical framebuffer
; 203  : 	 * from BOOT info, let's use that
; 204  : 	 */
; 205  : 	__framebuffer = info->graphics_framebuffer;

	ldr         x8,[sp,#0x10]
	add         x8,x8,#0x30
	adrp        x9,__framebuffer
	ldr         x8,[x8]
	str         x8,[x9,PageOffset(__framebuffer)]

; 206  : 
; 207  : 	aucon->early_mode = false;

	adrp        x8,aucon
	ldr         x8,[x8,PageOffset(aucon)]
	add         x9,x8,#0x20
	mov         w8,#0
	strb        w8,[x9]

; 208  : 	console_x = console_y = 0;

	adrp        x9,console_y
	mov         w8,#0
	str         w8,[x9,PageOffset(console_y)]
	adrp        x9,console_x
	adrp        x8,console_y
	ldr         w8,[x8,PageOffset(console_y)]
	str         w8,[x9,PageOffset(console_x)]

; 209  : 	redmask = info->redmask;

	ldr         x8,[sp,#0x10]
	add         x8,x8,#0x48
	adrp        x9,redmask
	ldr         w8,[x8]
	str         w8,[x9,PageOffset(redmask)]

; 210  : 	greenmask = info->greenmask;

	ldr         x8,[sp,#0x10]
	add         x8,x8,#0x4C
	adrp        x9,greenmask
	ldr         w8,[x8]
	str         w8,[x9,PageOffset(greenmask)]

; 211  : 	bluemask = info->bluemask;

	ldr         x8,[sp,#0x10]
	add         x8,x8,#0x50
	adrp        x9,bluemask
	ldr         w8,[x8]
	str         w8,[x9,PageOffset(bluemask)]

; 212  : 	h_res = info->X_Resolution; v_res = info->Y_Resolution;

	ldr         x8,[sp,#0x10]
	add         x8,x8,#0x40
	ldrh        w8,[x8]
	mov         w8,w8
	sxtw        x9,w8
	adrp        x8,h_res
	str         x9,[x8,PageOffset(h_res)]
	ldr         x8,[sp,#0x10]
	add         x8,x8,#0x42
	ldrh        w8,[x8]
	mov         w8,w8
	sxtw        x9,w8
	adrp        x8,v_res
	str         x9,[x8,PageOffset(v_res)]

; 213  : 	for (int w = 0; w < info->X_Resolution; w++) {

	mov         w8,#0
	str         w8,[sp,#8]
	b           |$LN7@AuConsoleP|
|$LN5@AuConsoleP|
	ldr         w8,[sp,#8]
	add         w8,w8,#1
	str         w8,[sp,#8]
|$LN7@AuConsoleP|
	ldr         x8,[sp,#0x10]
	add         x8,x8,#0x40
	ldrh        w9,[x8]
	mov         w9,w9
	ldr         w8,[sp,#8]
	cmp         w8,w9
	bge         |$LN6@AuConsoleP|

; 214  : 		for (int h = 0; h < info->Y_Resolution; h++) {

	mov         w8,#0
	str         w8,[sp,#4]
	b           |$LN10@AuConsoleP|
|$LN8@AuConsoleP|
	ldr         w8,[sp,#4]
	add         w8,w8,#1
	str         w8,[sp,#4]
|$LN10@AuConsoleP|
	ldr         x8,[sp,#0x10]
	add         x8,x8,#0x42
	ldrh        w9,[x8]
	mov         w9,w9
	ldr         w8,[sp,#4]
	cmp         w8,w9
	bge         |$LN9@AuConsoleP|

; 215  : 			aucon->buffer[h * info->X_Resolution + w] = CONSOLE_BACKGROUND;

	adrp        x8,aucon
	ldr         x8,[x8,PageOffset(aucon)]
	add         x10,x8,#8
	ldr         x8,[sp,#0x10]
	add         x8,x8,#0x40
	ldrh        w9,[x8]
	mov         w9,w9
	ldr         w8,[sp,#4]
	mul         w9,w8,w9
	ldr         w8,[sp,#8]
	add         w8,w9,w8
	sxtw        x9,w8
	mov         x8,#4
	mul         x9,x9,x8
	ldr         x8,[x10]
	add         x9,x8,x9
	mov         w8,#0
	str         w8,[x9]

; 216  : 		}

	b           |$LN8@AuConsoleP|
|$LN9@AuConsoleP|

; 217  : 	}

	b           |$LN5@AuConsoleP|
|$LN6@AuConsoleP|

; 218  : 
; 219  : 	early_ = 0;

	adrp        x9,early_
	mov         w8,#0
	strb        w8,[x9,PageOffset(early_)]

; 220  : 
; 221  : 	AuVFSNode* fsys = AuVFSFind("/dev");

	adrp        x8,|$SG3608|
	add         x0,x8,PageOffset(|$SG3608|)
	bl          AuVFSFind
	str         x0,[sp,#0x20]

; 222  : 	AuVFSNode* file = (AuVFSNode*)kmalloc(sizeof(AuVFSNode));

	mov         w0,#0xD0
	bl          kmalloc
	str         x0,[sp,#0x18]

; 223  : 	memset(file, 0, sizeof(AuVFSNode));

	mov         w2,#0xD0
	mov         w1,#0
	ldr         x0,[sp,#0x18]
	bl          memset

; 224  : 	strcpy(file->filename, "graph");

	ldr         x0,[sp,#0x18]
	adrp        x8,|$SG3609|
	add         x1,x8,PageOffset(|$SG3609|)
	bl          strcpy

; 225  : 	file->flags = FS_FLAG_DEVICE;

	ldr         x8,[sp,#0x18]
	add         x9,x8,#0x40
	mov         w8,#8
	strh        w8,[x9]

; 226  : 	file->device = fsys;

	ldr         x8,[sp,#0x18]
	add         x9,x8,#0x50
	ldr         x8,[sp,#0x20]
	str         x8,[x9]

; 227  : 	file->read = 0;

	ldr         x8,[sp,#0x18]
	add         x9,x8,#0x70
	mov         x8,#0
	str         x8,[x9]

; 228  : 	file->write = 0;

	ldr         x8,[sp,#0x18]
	add         x9,x8,#0x78
	mov         x8,#0
	str         x8,[x9]

; 229  : 	file->iocontrol = AuConsoleIoControl;

	ldr         x8,[sp,#0x18]
	add         x9,x8,#0xC8
	adrp        x8,AuConsoleIoControl
	add         x8,x8,PageOffset(AuConsoleIoControl)
	str         x8,[x9]

; 230  : 	AuDevFSAddFile(fsys, "/", file);

	ldr         x2,[sp,#0x18]
	adrp        x8,|$SG3610|
	add         x1,x8,PageOffset(|$SG3610|)
	ldr         x0,[sp,#0x20]
	bl          AuDevFSAddFile
|$LN1@AuConsoleP|
	add         sp,sp,#0x30
	ldr         lr,[sp],#0x10
	ret
	nop
|$LN13@AuConsoleP|
	DCQ         0xffffd00000200000

	ENDP  ; |AuConsolePostInitialise|

; Function compile flags: /Odtpy
; File C:\Users\paras\source\repos\grep-name\XenevaOS\KernelAA64\aucon.c

	AREA	|.text$mn|, CODE, ARM64

|AuConsoleInitialize| PROC

; 78   : void AuConsoleInitialize(PKERNEL_BOOT_INFO info, bool early) {

|$LN5|
	str         lr,[sp,#-0x10]!
	sub         sp,sp,#0x10
	str         x0,[sp,#8]
	uxtb        w8,w1
	strb        w8,[sp]

; 79   : 	if (early) {

	ldrb        w8,[sp]
	mov         w8,w8
	cmp         w8,#0
	beq         |$LN2@AuConsoleI|

; 80   : 		_print_func = info->printf_gui;

	ldr         x8,[sp,#8]
	add         x8,x8,#0x70
	adrp        x9,_print_func
	ldr         x8,[x8]
	str         x8,[x9,PageOffset(_print_func)]

; 81   : 		early_ = early;

	adrp        x9,early_
	ldrb        w8,[sp]
	strb        w8,[x9,PageOffset(early_)]

; 82   : 		if (info->boot_type == BOOT_LITTLEBOOT_ARM64) {

	ldr         x8,[sp,#8]
	ldr         w8,[x8]
	cmp         w8,#3
	bne         |$LN3@AuConsoleI|

; 83   : 			_print_func = UARTDebugOut;

	adrp        x9,_print_func
	adrp        x8,UARTDebugOut
	add         x8,x8,PageOffset(UARTDebugOut)
	str         x8,[x9,PageOffset(_print_func)]

; 84   : 			AuUartPutString("[aurora]: printf function set to UARTDebugOut \r\n");

	adrp        x8,|$SG3535|
	add         x0,x8,PageOffset(|$SG3535|)
	bl          AuUartPutString
|$LN3@AuConsoleI|
|$LN2@AuConsoleI|

; 85   : 		}
; 86   : 	}
; 87   : 	aucon = NULL;

	adrp        x9,aucon
	mov         x8,#0
	str         x8,[x9,PageOffset(aucon)]

; 88   : 	bypass_autextout = false;

	adrp        x9,bypass_autextout
	mov         w8,#0
	strb        w8,[x9,PageOffset(bypass_autextout)]
	add         sp,sp,#0x10
	ldr         lr,[sp],#0x10
	ret

	ENDP  ; |AuConsoleInitialize|

	END
