; Listing generated by Microsoft (R) Optimizing Compiler Version 19.29.30159.0 

	TTL	C:\Users\paras\source\repos\grep-name\XenevaOS\KernelAA64\ARM64\Debug\audrv.obj
	ARM64

	AREA	|.drectve|, DRECTVE


	AREA	|.data|, DATA
	 COMMON	|drivers|, 0x7b0

	 COMMON	|bootDrivers|, 0x50

	 COMMON	|au_devices|, 0x800


	AREA	|.bss|, NOINIT
|_dev_count_| %	0x4

	AREA	|.data|, DATA
	 COMMON	|scratchBuffer|, 0x8


	AREA	|.rdata|, DATA, READONLY
|MAGIC_NATIVE| DCD 0x10b
|MACHINE_NATIVE| DCD 0x14c
	EXPORT	|AuDrvMngrInitialize|
	EXPORT	|AuRegisterDevice|
	EXPORT	|AuCheckDevice|
	EXPORT	|AuBootDriverInitialise|
	EXPORT	|AuDrvMgrGetBaseAddress|
	EXPORT	|AuDrvMgrSetBaseAddress|
	EXPORT	|AuGetConfEntry|
	EXPORT	|AuGetDriverName|
	EXPORT	|AuDrvManagerCheckFault|
	EXPORT	|AuDrvCatchFault|
	EXPORT	|AuRequestDriverId|
	EXPORT	|AuRequestBootDriverId|
	EXPORT	|AuDecreaseDriverCount|
	EXPORT	|AuIncreaseDriverCount|
	EXPORT	|AuCreateDriverInstance|
	EXPORT	|AuCreateBootDriverInstance|
	EXPORT	|AuBoardIterateModule|
	EXPORT	|AuDriverLoad|
	EXPORT	|AuBootDriverLoad|
	IMPORT	|AuVFSOpen|
	IMPORT	|AuVFSFind|
	IMPORT	|AuVFSNodeReadBlock|
	IMPORT	|AuPmmngrAlloc|
	IMPORT	|AuPmmngrAllocBlocks|
	IMPORT	|P2V|
	IMPORT	|AuMapPage|
	IMPORT	|strcpy|
	IMPORT	|strchr|
	IMPORT	|memset|
	IMPORT	|memcpy|
	IMPORT	|AuGetProcAddress|
	IMPORT	|AuKernelLinkDLL|
	IMPORT	|AuKernelRelocatePE|
	IMPORT	|AuCoffResolveAddress|
	IMPORT	|atoi|
	IMPORT	|kmalloc|
	IMPORT	|kfree|
	IMPORT	|AuPCIEGetDevice|
	IMPORT	|AuPCIERead|
	IMPORT	|AuTextOut|
	IMPORT	|UARTDebugOut|
	IMPORT	|AuIsPCIeInitialized|

	AREA	|.bss|, NOINIT
|driver_class_unique_id| % 0x4
|driver_boot_unique_id| % 0x4
|driver_load_base| % 0x8

	AREA	|.pdata|, PDATA
|$pdata$AuDrvMngrInitialize| DCD imagerel |$LN29|
	DCD	0x4a00565
	;Flags[SingleProEpi] functionLength[1380] RegF[0] RegI[0] H[0] frameChainReturn[UnChainedSavedLR] frameSize[144]
|$pdata$AuRegisterDevice| DCD imagerel |$LN3|
	DCD	0x80004d
	;Flags[SingleProEpi] functionLength[76] RegF[0] RegI[0] H[0] frameChainReturn[UnChained] frameSize[16]
|$pdata$AuCheckDevice| DCD imagerel |$LN7|
	DCD	0x800111
	;Flags[SingleProEpi] functionLength[272] RegF[0] RegI[0] H[0] frameChainReturn[UnChained] frameSize[16]
|$pdata$AuBootDriverInitialise| DCD imagerel |$LN9|
	DCD	0x2200131
	;Flags[SingleProEpi] functionLength[304] RegF[0] RegI[0] H[0] frameChainReturn[UnChainedSavedLR] frameSize[64]
|$pdata$AuDrvMgrSetBaseAddress| DCD imagerel |$LN3|
	DCD	0x80001d
	;Flags[SingleProEpi] functionLength[28] RegF[0] RegI[0] H[0] frameChainReturn[UnChained] frameSize[16]
|$pdata$AuGetConfEntry| DCD imagerel |$LN21|
	DCD	0x3200321
	;Flags[SingleProEpi] functionLength[800] RegF[0] RegI[0] H[0] frameChainReturn[UnChainedSavedLR] frameSize[96]
|$pdata$AuGetDriverName| DCD imagerel |$LN9|
	DCD	0x3a0014d
	;Flags[SingleProEpi] functionLength[332] RegF[0] RegI[0] H[0] frameChainReturn[UnChainedSavedLR] frameSize[112]
|$pdata$AuDrvManagerCheckFault| DCD imagerel |$LN9|
	DCD	0x10000b1
	;Flags[SingleProEpi] functionLength[176] RegF[0] RegI[0] H[0] frameChainReturn[UnChained] frameSize[32]
|$pdata$AuDrvCatchFault| DCD imagerel |$LN3|
	DCD	0x1a00089
	;Flags[SingleProEpi] functionLength[136] RegF[0] RegI[0] H[0] frameChainReturn[UnChainedSavedLR] frameSize[48]
|$pdata$AuRequestDriverId| DCD imagerel |$LN3|
	DCD	0x800031
	;Flags[SingleProEpi] functionLength[48] RegF[0] RegI[0] H[0] frameChainReturn[UnChained] frameSize[16]
|$pdata$AuRequestBootDriverId| DCD imagerel |$LN3|
	DCD	0x800031
	;Flags[SingleProEpi] functionLength[48] RegF[0] RegI[0] H[0] frameChainReturn[UnChained] frameSize[16]
|$pdata$AuCreateDriverInstance| DCD imagerel |$LN3|
	DCD	0x1200099
	;Flags[SingleProEpi] functionLength[152] RegF[0] RegI[0] H[0] frameChainReturn[UnChainedSavedLR] frameSize[32]
|$pdata$AuCreateBootDriverInstance| DCD imagerel |$LN3|
	DCD	0x1200095
	;Flags[SingleProEpi] functionLength[148] RegF[0] RegI[0] H[0] frameChainReturn[UnChainedSavedLR] frameSize[32]
|$pdata$AuBoardIterateModule| DCD imagerel |$LN14|
	DCD	0x4a00239
	;Flags[SingleProEpi] functionLength[568] RegF[0] RegI[0] H[0] frameChainReturn[UnChainedSavedLR] frameSize[144]
|$pdata$AuDriverLoad| DCD imagerel |$LN17|
	DCD	0x7200561
	;Flags[SingleProEpi] functionLength[1376] RegF[0] RegI[0] H[0] frameChainReturn[UnChainedSavedLR] frameSize[224]
|$pdata$AuBootDriverLoad| DCD imagerel |$LN3|
	DCD	0x3200101
	;Flags[SingleProEpi] functionLength[256] RegF[0] RegI[0] H[0] frameChainReturn[UnChainedSavedLR] frameSize[96]

	AREA	|.data|, DATA
|$SG3879| DCB	"[aurora]: Board entry : %s ", 0xd, 0xa, 0x0
	%	2
|$SG3943| DCB	"[aurora]: Loading driver -> %s %x", 0xd, 0xa, 0x0
|$SG3998| DCB	"/", 0x0
	%	2
|$SG3945| DCB	"[aurora]: audrvmngr failed to load driver : %s ", 0xa, 0x0
	%	7
|$SG3948| DCB	"AuDriverMain", 0x0
	%	3
|$SG3949| DCB	"AuDriverUnload", 0x0
	%	1
|$SG3997| DCB	"[aurora]: initializing drivers, please wait... ", 0xd, 0xa
	DCB	0x0
	%	6
|$SG3999| DCB	"/audrv.cnf", 0x0
	%	13
|$SG4001| DCB	"[aurora]: Driver Manager failed to open audrv.cnf, file "
	DCB	"not found ", 0xd, 0xa, 0x0
	%	3
|$SG4003| DCB	"[aurora]: audrv.cnf read successfully %s ", 0xd, 0xa, 0x0
	%	4
|$SG4004| DCB	"/board.cnf", 0x0
	%	5
|$SG4008| DCB	"[aurora]: board.cnf read successfully %s ", 0xd, 0xa, 0x0
	%	12
|$SG4009| DCB	"[aurora] Driver Manager failed to open board.cnf, file n"
	DCB	"ot found ", 0xd, 0xa, 0x0
	%	4
|$SG4018| DCB	"[aurora]: AuDrvManager initialized successfully ", 0xd, 0xa
	DCB	0x0
	%	5
|$SG4056| DCB	"AuDriverMain", 0x0
	%	3
|$SG4057| DCB	"AuDriverUnload", 0x0
	%	1
|$SG4071| DCB	"AHCIController", 0x0
	%	1
|$SG4073| DCB	"NVMeController", 0x0
	%	1
|$SG4075| DCB	"XHCIController", 0x0
	%	1
|$SG4098| DCB	"[aurora]: crash in kernel driver : %s ", 0xd, 0xa, 0x0
	%	7
|$SG4099| DCB	"[aurora]: relocated address: %x, original address : %x ", 0xd
	DCB	0xa, 0x0
; Function compile flags: /Odtpy
; File C:\Users\paras\source\repos\grep-name\XenevaOS\KernelAA64\audrv.c

	AREA	|.text$mn|, CODE, ARM64

|AuBootDriverLoad| PROC

; 526  : void AuBootDriverLoad(void* driverBuffer, AuDriver* driver) {

|$LN3|
	str         lr,[sp,#-0x10]!
	sub         sp,sp,#0x50
	str         x0,[sp]
	str         x1,[sp,#8]

; 527  : 	int next_base_offset = 0;

	mov         w8,#0
	str         w8,[sp,#0x10]

; 528  : 
; 529  : 	uint64_t buffer = (uint64_t)driverBuffer;

	ldr         x8,[sp]
	str         x8,[sp,#0x38]

; 530  : 	next_base_offset = 1;

	mov         w8,#1
	str         w8,[sp,#0x10]

; 531  : 
; 532  : 	IMAGE_DOS_HEADER* dos_ = (IMAGE_DOS_HEADER*)driverBuffer;

	ldr         x8,[sp]
	str         x8,[sp,#0x18]

; 533  : 	PIMAGE_NT_HEADERS nt = RAW_OFFSET(PIMAGE_NT_HEADERS,dos_, dos_->e_lfanew);

	ldr         x8,[sp,#0x18]
	add         x8,x8,#0x3C
	ldrh        w8,[x8]
	mov         w8,w8
	sxtw        x9,w8
	ldr         x8,[sp,#0x18]
	add         x8,x8,x9
	str         x8,[sp,#0x20]

; 534  : 
; 535  : 	PSECTION_HEADER secthdr = RAW_OFFSET(PSECTION_HEADER,&nt->OptionalHeader, nt->FileHeader.SizeOfOptionaHeader);

	ldr         x8,[sp,#0x20]
	add         x9,x8,#0x18
	ldr         x8,[sp,#0x20]
	add         x8,x8,#0x14
	ldrh        w8,[x8]
	mov         w8,w8
	sxtw        x8,w8
	add         x8,x9,x8
	str         x8,[sp,#0x40]

; 536  : 
; 537  : 
; 538  : 	void* entry_addr = AuGetProcAddress(driverBuffer, "AuDriverMain");

	adrp        x8,|$SG4056|
	add         x1,x8,PageOffset(|$SG4056|)
	ldr         x0,[sp]
	bl          AuGetProcAddress
	str         x0,[sp,#0x28]

; 539  : 	void* unload_addr = AuGetProcAddress(driverBuffer, "AuDriverUnload");

	adrp        x8,|$SG4057|
	add         x1,x8,PageOffset(|$SG4057|)
	ldr         x0,[sp]
	bl          AuGetProcAddress
	str         x0,[sp,#0x30]

; 540  : 
; 541  : 	AuKernelLinkDLL(driverBuffer);

	ldr         x0,[sp]
	bl          AuKernelLinkDLL

; 542  : 	driver->entry = (au_drv_entry)entry_addr;

	ldr         x8,[sp,#8]
	add         x9,x8,#0x4D
	ldr         x8,[sp,#0x28]
	str         x8,[x9]

; 543  : 	driver->unload = (au_drv_unload)unload_addr;

	ldr         x8,[sp,#8]
	add         x9,x8,#0x55
	ldr         x8,[sp,#0x30]
	str         x8,[x9]

; 544  : 	driver->base = (uint64_t)driverBuffer;

	ldr         x8,[sp,#8]
	add         x9,x8,#0x23
	ldr         x8,[sp]
	str         x8,[x9]

; 545  : 	driver->end = 0;

	ldr         x8,[sp,#8]
	add         x9,x8,#0x2B
	mov         x8,#0
	str         x8,[x9]

; 546  : 	driver->present = true;

	ldr         x8,[sp,#8]
	add         x9,x8,#0x22
	mov         w8,#1
	strb        w8,[x9]
	add         sp,sp,#0x50
	ldr         lr,[sp],#0x10
	ret

	ENDP  ; |AuBootDriverLoad|

; Function compile flags: /Odtpy
; File C:\Users\paras\source\repos\grep-name\XenevaOS\KernelAA64\audrv.c

	AREA	|.text$mn|, CODE, ARM64

|AuDriverLoad| PROC

; 287  : void AuDriverLoad(char* filename, AuDriver* driver) {

|$LN17|
	str         lr,[sp,#-0x10]!
	sub         sp,sp,#0xD0
	str         x0,[sp,#0x38]
	str         x1,[sp,#0x18]

; 288  : 	int next_base_offset = 0;

	mov         w8,#0
	str         w8,[sp,#8]

; 289  : 	uint64_t* virtual_base = (uint64_t*)driver_load_base;

	adrp        x8,driver_load_base
	ldr         x8,[x8,PageOffset(driver_load_base)]
	str         x8,[sp,#0x40]

; 290  : 	AuTextOut("[aurora]: Loading driver -> %s %x\r\n", filename, driver_load_base);

	adrp        x8,driver_load_base
	ldr         x2,[x8,PageOffset(driver_load_base)]
	ldr         x1,[sp,#0x38]
	adrp        x8,|$SG3943|
	add         x0,x8,PageOffset(|$SG3943|)
	bl          AuTextOut

; 291  : 
; 292  : 	AuVFSNode* fsys = AuVFSFind(filename);

	ldr         x0,[sp,#0x38]
	bl          AuVFSFind
	str         x0,[sp,#0x98]

; 293  : 	AuVFSNode* file = AuVFSOpen(filename);

	ldr         x0,[sp,#0x38]
	bl          AuVFSOpen
	str         x0,[sp,#0x30]

; 294  : 	if (!file) {

	ldr         x8,[sp,#0x30]
	cmp         x8,#0
	bne         |$LN10@AuDriverLo|

; 295  : 		AuTextOut("[aurora]: audrvmngr failed to load driver : %s \n", filename);

	ldr         x1,[sp,#0x38]
	adrp        x8,|$SG3945|
	add         x0,x8,PageOffset(|$SG3945|)
	bl          AuTextOut

; 296  : 		return;

	b           |$LN1@AuDriverLo|
|$LN10@AuDriverLo|

; 297  : 	}
; 298  : 	
; 299  : 	int sbIndex = 0;

	mov         w8,#0
	str         w8,[sp,#0x28]
|$LN2@AuDriverLo|

; 300  : 	while (file->eof != 1) {

	ldr         x8,[sp,#0x30]
	add         x8,x8,#0x24
	ldrb        w8,[x8]
	mov         w8,w8
	cmp         w8,#1
	beq         |$LN3@AuDriverLo|

; 301  : 		uint64_t block = ((uint64_t)scratchBuffer + (sbIndex * 0x1000));

	ldr         w9,[sp,#0x28]
	mov         w8,#0x1000
	mul         w8,w9,w8
	sxtw        x9,w8
	adrp        x8,scratchBuffer
	ldr         x8,[x8,PageOffset(scratchBuffer)]
	add         x8,x8,x9
	str         x8,[sp,#0x50]

; 302  : 		memset(block, 0, 4096);

	mov         w2,#0x1000
	mov         w1,#0
	ldr         x0,[sp,#0x50]
	bl          memset

; 303  : 		AuVFSNodeReadBlock(fsys, file, block);

	ldr         x2,[sp,#0x50]
	ldr         x1,[sp,#0x30]
	ldr         x0,[sp,#0x98]
	bl          AuVFSNodeReadBlock

; 304  : 		sbIndex++;

	ldr         w8,[sp,#0x28]
	add         w8,w8,#1
	str         w8,[sp,#0x28]

; 305  : 		//AuMapPage((uint64_t)block, (driver_load_base + next_base_offset * 4096), 0);
; 306  : 		//next_base_offset++;
; 307  : 	}

	b           |$LN2@AuDriverLo|
|$LN3@AuDriverLo|

; 308  : 
; 309  : 	IMAGE_DOS_HEADER* dos_ = (IMAGE_DOS_HEADER*)scratchBuffer;

	adrp        x8,scratchBuffer
	ldr         x8,[x8,PageOffset(scratchBuffer)]
	str         x8,[sp,#0x58]

; 310  : 	PIMAGE_NT_HEADERS nt = RAW_OFFSET(PIMAGE_NT_HEADERS,dos_, dos_->e_lfanew);

	ldr         x8,[sp,#0x58]
	add         x8,x8,#0x3C
	ldrh        w8,[x8]
	mov         w8,w8
	sxtw        x9,w8
	ldr         x8,[sp,#0x58]
	add         x8,x8,x9
	str         x8,[sp,#0x20]

; 311  : 	driver->original_load_base = nt->OptionalHeader.ImageBase;

	ldr         x8,[sp,#0x20]
	add         x10,x8,#0x30
	ldr         x8,[sp,#0x18]
	add         x9,x8,#0x5D
	ldr         x8,[x10]
	str         x8,[x9]

; 312  : 	driver->image_sz = nt->OptionalHeader.SizeOfImage;

	ldr         x8,[sp,#0x20]
	add         x10,x8,#0x50
	ldr         x8,[sp,#0x18]
	add         x9,x8,#0x6D
	ldr         w8,[x10]
	uxtw        x8,w8
	str         x8,[x9]

; 313  : 	PSECTION_HEADER sectionHeader = RAW_OFFSET(PSECTION_HEADER,&nt->OptionalHeader, nt->FileHeader.SizeOfOptionaHeader);

	ldr         x8,[sp,#0x20]
	add         x9,x8,#0x18
	ldr         x8,[sp,#0x20]
	add         x8,x8,#0x14
	ldrh        w8,[x8]
	mov         w8,w8
	sxtw        x8,w8
	add         x8,x9,x8
	str         x8,[sp,#0x10]

; 314  : 	
; 315  : 	uint64_t first_block = (uint64_t)AuPmmngrAlloc();

	bl          AuPmmngrAlloc
	str         x0,[sp,#0x60]

; 316  : 	memset((void*)first_block, 0, 4096);

	mov         w2,#0x1000
	mov         w1,#0
	ldr         x0,[sp,#0x60]
	bl          memset

; 317  : 	AuMapPage(first_block, driver_load_base, PTE_NORMAL_MEM);

	mov         w2,#4
	adrp        x8,driver_load_base
	ldr         x1,[x8,PageOffset(driver_load_base)]
	ldr         x0,[sp,#0x60]
	bl          AuMapPage

; 318  : 	memcpy((void*)driver_load_base, scratchBuffer,nt->OptionalHeader.SizeOfHeaders);

	ldr         x8,[sp,#0x20]
	add         x8,x8,#0x54
	ldr         w8,[x8]
	uxtw        x2,w8
	adrp        x8,scratchBuffer
	ldr         x1,[x8,PageOffset(scratchBuffer)]
	adrp        x8,driver_load_base
	ldr         x0,[x8,PageOffset(driver_load_base)]
	bl          memcpy

; 319  : 	next_base_offset++;

	ldr         w8,[sp,#8]
	add         w8,w8,#1
	str         w8,[sp,#8]

; 320  : 
; 321  : 	for (size_t i = 0; i < nt->FileHeader.NumberOfSections; ++i) {

	mov         x8,#0
	str         x8,[sp]
	b           |$LN6@AuDriverLo|
|$LN4@AuDriverLo|
	ldr         x8,[sp]
	add         x8,x8,#1
	str         x8,[sp]
|$LN6@AuDriverLo|
	ldr         x8,[sp,#0x20]
	add         x8,x8,#6
	ldrh        w8,[x8]
	mov         w8,w8
	sxtw        x9,w8
	ldr         x8,[sp]
	cmp         x8,x9
	bhs         |$LN5@AuDriverLo|

; 322  : 	
; 323  : 		size_t load_addr = (size_t)virtual_base + sectionHeader[i].VirtualAddress;

	ldr         x9,[sp]
	mov         x8,#0x28
	mul         x9,x9,x8
	ldr         x8,[sp,#0x10]
	add         x8,x8,x9
	add         x8,x8,#0xC
	ldr         w8,[x8]
	uxtw        x9,w8
	ldr         x8,[sp,#0x40]
	add         x8,x8,x9
	str         x8,[sp,#0x70]

; 324  : 		void* sect_addr = (void*)load_addr;

	ldr         x8,[sp,#0x70]
	str         x8,[sp,#0x88]

; 325  : 		size_t sectsz = sectionHeader[i].VirtualSize;

	ldr         x9,[sp]
	mov         x8,#0x28
	mul         x9,x9,x8
	ldr         x8,[sp,#0x10]
	add         x8,x8,x9
	add         x8,x8,#8
	ldr         w8,[x8]
	uxtw        x8,w8
	str         x8,[sp,#0x68]

; 326  : 		int req_pages = sectsz / 4096 +

	ldr         x10,[sp,#0x68]
	mov         x9,#0x1000
	udiv        x8,x10,x9
	mul         x8,x8,x9
	sub         x8,x10,x8
	cmp         x8,#0
	beq         |$LN14@AuDriverLo|
	mov         w8,#1
	str         w8,[sp,#0x2C]
	b           |$LN15@AuDriverLo|
|$LN14@AuDriverLo|
	mov         w8,#0
	str         w8,[sp,#0x2C]
|$LN15@AuDriverLo|
	ldr         x9,[sp,#0x68]
	mov         x8,#0x1000
	udiv        x9,x9,x8
	ldr         w8,[sp,#0x2C]
	sxtw        x8,w8
	add         x8,x9,x8
	mov         w8,w8
	str         w8,[sp,#0x48]

; 327  : 			((sectsz % 4096) ? 1 : 0);
; 328  : 		uint64_t* block = 0;

	mov         x8,#0
	str         x8,[sp,#0x80]

; 329  : 		for (int j = 0; j < req_pages; j++) {

	mov         w8,#0
	str         w8,[sp,#0xC]
	b           |$LN9@AuDriverLo|
|$LN7@AuDriverLo|
	ldr         w8,[sp,#0xC]
	add         w8,w8,#1
	str         w8,[sp,#0xC]
|$LN9@AuDriverLo|
	ldr         w9,[sp,#0x48]
	ldr         w8,[sp,#0xC]
	cmp         w8,w9
	bge         |$LN8@AuDriverLo|

; 330  : 			uint64_t alloc = (load_addr + j * 0x1000);

	ldr         w9,[sp,#0xC]
	mov         w8,#0x1000
	mul         w8,w9,w8
	sxtw        x9,w8
	ldr         x8,[sp,#0x70]
	add         x8,x8,x9
	str         x8,[sp,#0x78]

; 331  : 			AuMapPage((uint64_t)AuPmmngrAlloc(), alloc, PTE_NORMAL_MEM);

	bl          AuPmmngrAlloc
	mov         w2,#4
	ldr         x1,[sp,#0x78]
	bl          AuMapPage

; 332  : 			if (!block)

	ldr         x8,[sp,#0x80]
	cmp         x8,#0
	bne         |$LN11@AuDriverLo|

; 333  : 				block = (uint64_t*)alloc;

	ldr         x8,[sp,#0x78]
	str         x8,[sp,#0x80]
|$LN11@AuDriverLo|

; 334  : 			next_base_offset++;

	ldr         w8,[sp,#8]
	add         w8,w8,#1
	str         w8,[sp,#8]

; 335  : 		}

	b           |$LN7@AuDriverLo|
|$LN8@AuDriverLo|

; 336  : 
; 337  : 		memcpy(sect_addr, RAW_OFFSET(void*,scratchBuffer, sectionHeader[i].PointerToRawData), sectionHeader[i].SizeOfRawData);

	ldr         x9,[sp]
	mov         x8,#0x28
	mul         x9,x9,x8
	ldr         x8,[sp,#0x10]
	add         x8,x8,x9
	add         x8,x8,#0x10
	ldr         w8,[x8]
	uxtw        x2,w8
	ldr         x9,[sp]
	mov         x8,#0x28
	mul         x9,x9,x8
	ldr         x8,[sp,#0x10]
	add         x8,x8,x9
	add         x8,x8,#0x14
	ldr         w8,[x8]
	uxtw        x9,w8
	adrp        x8,scratchBuffer
	ldr         x8,[x8,PageOffset(scratchBuffer)]
	add         x1,x8,x9
	ldr         x0,[sp,#0x88]
	bl          memcpy

; 338  : 		if (sectionHeader[i].VirtualSize > sectionHeader[i].SizeOfRawData)

	ldr         x9,[sp]
	mov         x8,#0x28
	mul         x9,x9,x8
	ldr         x8,[sp,#0x10]
	add         x8,x8,x9
	add         x10,x8,#8
	ldr         x9,[sp]
	mov         x8,#0x28
	mul         x9,x9,x8
	ldr         x8,[sp,#0x10]
	add         x8,x8,x9
	add         x8,x8,#0x10
	ldr         w9,[x8]
	ldr         w8,[x10]
	cmp         w8,w9
	bls         |$LN12@AuDriverLo|

; 339  : 			memset(RAW_OFFSET(void*,sect_addr, sectionHeader[i].SizeOfRawData),0, sectionHeader[i].VirtualSize - sectionHeader[i].SizeOfRawData);

	ldr         x9,[sp]
	mov         x8,#0x28
	mul         x9,x9,x8
	ldr         x8,[sp,#0x10]
	add         x8,x8,x9
	add         x10,x8,#8
	ldr         x9,[sp]
	mov         x8,#0x28
	mul         x9,x9,x8
	ldr         x8,[sp,#0x10]
	add         x8,x8,x9
	add         x8,x8,#0x10
	ldr         w9,[x10]
	ldr         w8,[x8]
	sub         w2,w9,w8
	ldr         x9,[sp]
	mov         x8,#0x28
	mul         x9,x9,x8
	ldr         x8,[sp,#0x10]
	add         x8,x8,x9
	add         x8,x8,#0x10
	ldr         w8,[x8]
	uxtw        x9,w8
	ldr         x8,[sp,#0x88]
	add         x0,x8,x9
	mov         w2,w2
	mov         w1,#0
	bl          memset
|$LN12@AuDriverLo|

; 340  : 	}

	b           |$LN4@AuDriverLo|
|$LN5@AuDriverLo|

; 341  : 
; 342  : 	uint8_t* relocatebuff = (uint8_t*)virtual_base;

	ldr         x8,[sp,#0x40]
	str         x8,[sp,#0xB0]

; 343  : 	uint64_t original_base = nt->OptionalHeader.ImageBase;

	ldr         x8,[sp,#0x20]
	add         x8,x8,#0x30
	ldr         x8,[x8]
	str         x8,[sp,#0xA0]

; 344  : 	uint64_t new_addr = (uint64_t)virtual_base;

	ldr         x8,[sp,#0x40]
	str         x8,[sp,#0x90]

; 345  : 	driver->new_load_base = new_addr;

	ldr         x8,[sp,#0x18]
	add         x9,x8,#0x65
	ldr         x8,[sp,#0x90]
	str         x8,[x9]

; 346  : 	uint64_t diff = new_addr - original_base;

	ldr         x9,[sp,#0x90]
	ldr         x8,[sp,#0xA0]
	sub         x8,x9,x8
	str         x8,[sp,#0xA8]

; 347  : 
; 348  : 	AuKernelRelocatePE(relocatebuff, nt, diff);

	ldr         x8,[sp,#0xA8]
	mov         w2,w8
	mov         w2,w2
	ldr         x1,[sp,#0x20]
	ldr         x0,[sp,#0xB0]
	bl          AuKernelRelocatePE

; 349  : 
; 350  : 	void* entry_addr = AuGetProcAddress((void*)driver_load_base, "AuDriverMain");

	adrp        x8,|$SG3948|
	add         x1,x8,PageOffset(|$SG3948|)
	adrp        x8,driver_load_base
	ldr         x0,[x8,PageOffset(driver_load_base)]
	bl          AuGetProcAddress
	str         x0,[sp,#0xB8]

; 351  : 	void* unload_addr = AuGetProcAddress((void*)driver_load_base, "AuDriverUnload");

	adrp        x8,|$SG3949|
	add         x1,x8,PageOffset(|$SG3949|)
	adrp        x8,driver_load_base
	ldr         x0,[x8,PageOffset(driver_load_base)]
	bl          AuGetProcAddress
	str         x0,[sp,#0xC0]

; 352  : 
; 353  : 	AuKernelLinkDLL((void*)virtual_base);

	ldr         x0,[sp,#0x40]
	bl          AuKernelLinkDLL

; 354  : 	driver->entry = (au_drv_entry)entry_addr;

	ldr         x8,[sp,#0x18]
	add         x9,x8,#0x4D
	ldr         x8,[sp,#0xB8]
	str         x8,[x9]

; 355  : 	driver->unload = (au_drv_unload)unload_addr;

	ldr         x8,[sp,#0x18]
	add         x9,x8,#0x55
	ldr         x8,[sp,#0xC0]
	str         x8,[x9]

; 356  : 	driver->base = AU_DRIVER_BASE_START;

	ldr         x8,[sp,#0x18]
	add         x9,x8,#0x23
	ldr         x8,|$LN16@AuDriverLo|
	str         x8,[x9]

; 357  : 	driver->end = driver->base + file->size;

	ldr         x8,[sp,#0x18]
	add         x10,x8,#0x23
	ldr         x8,[sp,#0x30]
	add         x8,x8,#0x20
	ldr         w8,[x8]
	uxtw        x9,w8
	ldr         x8,[x10]
	add         x9,x8,x9
	ldr         x8,[sp,#0x18]
	add         x8,x8,#0x2B
	str         x9,[x8]

; 358  : 	driver->present = true;

	ldr         x8,[sp,#0x18]
	add         x9,x8,#0x22
	mov         w8,#1
	strb        w8,[x9]

; 359  : 	driver_load_base = driver_load_base + (next_base_offset * 4096);

	ldr         w9,[sp,#8]
	mov         w8,#0x1000
	mul         w8,w9,w8
	sxtw        x9,w8
	adrp        x8,driver_load_base
	ldr         x8,[x8,PageOffset(driver_load_base)]
	add         x9,x8,x9
	adrp        x8,driver_load_base
	str         x9,[x8,PageOffset(driver_load_base)]

; 360  : 
; 361  : 	kfree(file);

	ldr         x0,[sp,#0x30]
	bl          kfree
|$LN1@AuDriverLo|
	add         sp,sp,#0xD0
	ldr         lr,[sp],#0x10
	ret
|$LN16@AuDriverLo|
	DCQ         0xffffc00000a00000

	ENDP  ; |AuDriverLoad|

; Function compile flags: /Odtpy
; File C:\Users\paras\source\repos\grep-name\XenevaOS\KernelAA64\audrv.c

	AREA	|.text$mn|, CODE, ARM64

|AuBoardIterateModule| PROC

; 239  : void AuBoardIterateModule(uint8_t* board, int moduleCount) {

|$LN14|
	str         lr,[sp,#-0x10]!
	sub         sp,sp,#0x80
	str         x0,[sp,#0x20]
	str         w1,[sp,#0x18]

; 240  : 	char* fbuf = (char*)board;

	ldr         x8,[sp,#0x20]
	str         x8,[sp,#8]

; 241  : 	int fcount = 0;

	mov         w8,#0
	str         w8,[sp,#0x1C]
|$search$15|

; 242  : search:
; 243  : 	if (fcount >= moduleCount)

	ldr         w9,[sp,#0x18]
	ldr         w8,[sp,#0x1C]
	cmp         w8,w9
	blt         |$LN8@AuBoardIte|

; 244  : 		return;

	b           |$LN1@AuBoardIte|
|$LN8@AuBoardIte|

; 245  : 	char* p = strchr(fbuf, '[');

	mov         w1,#0x5B
	ldr         x0,[sp,#8]
	bl          strchr
	str         x0,[sp,#0x10]

; 246  : 	if (p) {

	ldr         x8,[sp,#0x10]
	cmp         x8,#0
	beq         |$LN9@AuBoardIte|

; 247  : 		p++;

	ldr         x8,[sp,#0x10]
	add         x8,x8,#1
	str         x8,[sp,#0x10]

; 248  : 		fbuf++;

	ldr         x8,[sp,#8]
	add         x8,x8,#1
	str         x8,[sp,#8]

; 249  : 	}

	b           |$LN10@AuBoardIte|
|$LN9@AuBoardIte|

; 250  : 	else {
; 251  : 		return;

	b           |$LN1@AuBoardIte|
|$LN10@AuBoardIte|

; 252  : 	}
; 253  : 
; 254  : 	char fontname[33];
; 255  : 	int i = 0;

	mov         w8,#0
	str         w8,[sp]

; 256  : 	for (i = 0; i < 32; i++) {

	mov         w8,#0
	str         w8,[sp]
	b           |$LN4@AuBoardIte|
|$LN2@AuBoardIte|
	ldr         w8,[sp]
	add         w8,w8,#1
	str         w8,[sp]
|$LN4@AuBoardIte|
	ldr         w8,[sp]
	cmp         w8,#0x20
	bge         |$LN3@AuBoardIte|

; 257  : 		if (p[i] == ']') {

	ldr         w8,[sp]
	sxtw        x9,w8
	mov         x8,#1
	mul         x9,x9,x8
	ldr         x8,[sp,#0x10]
	add         x8,x8,x9
	ldrsb       w8,[x8]
	mov         w8,w8
	cmp         w8,#0x5D
	bne         |$LN11@AuBoardIte|

; 258  : 			fbuf = p + i;

	ldr         w8,[sp]
	sxtw        x9,w8
	ldr         x8,[sp,#0x10]
	add         x8,x8,x9
	str         x8,[sp,#8]

; 259  : 			fbuf++;

	ldr         x8,[sp,#8]
	add         x8,x8,#1
	str         x8,[sp,#8]

; 260  : 			break;

	b           |$LN3@AuBoardIte|
|$LN11@AuBoardIte|

; 261  : 		}
; 262  : 		fontname[i] = p[i];

	ldr         w8,[sp]
	sxtw        x9,w8
	mov         x8,#1
	mul         x9,x9,x8
	ldr         x8,[sp,#0x10]
	add         x10,x8,x9
	ldr         w8,[sp]
	sxtw        x9,w8
	mov         x8,#1
	mul         x9,x9,x8
	add         x8,sp,#0x50
	add         x9,x8,x9
	ldrsb       w8,[x10]
	strb        w8,[x9]

; 263  : 		fbuf++;

	ldr         x8,[sp,#8]
	add         x8,x8,#1
	str         x8,[sp,#8]

; 264  : 	}

	b           |$LN2@AuBoardIte|
|$LN3@AuBoardIte|

; 265  : 	fontname[i] = 0;

	ldr         w8,[sp]
	sxtw        x9,w8
	mov         x8,#1
	mul         x9,x9,x8
	add         x8,sp,#0x50
	add         x9,x8,x9
	mov         w8,#0
	strb        w8,[x9]

; 266  : 
; 267  : 	p = fbuf;

	ldr         x8,[sp,#8]
	str         x8,[sp,#0x10]

; 268  : 	char filename[33];
; 269  : 	for (i = 0; i < 32; i++) {

	mov         w8,#0
	str         w8,[sp]
	b           |$LN7@AuBoardIte|
|$LN5@AuBoardIte|
	ldr         w8,[sp]
	add         w8,w8,#1
	str         w8,[sp]
|$LN7@AuBoardIte|
	ldr         w8,[sp]
	cmp         w8,#0x20
	bge         |$LN6@AuBoardIte|

; 270  : 		if (p[i] == '|')

	ldr         w8,[sp]
	sxtw        x9,w8
	mov         x8,#1
	mul         x9,x9,x8
	ldr         x8,[sp,#0x10]
	add         x8,x8,x9
	ldrsb       w8,[x8]
	mov         w8,w8
	cmp         w8,#0x7C
	bne         |$LN12@AuBoardIte|

; 271  : 			break;

	b           |$LN6@AuBoardIte|
|$LN12@AuBoardIte|

; 272  : 		filename[i] = p[i];

	ldr         w8,[sp]
	sxtw        x9,w8
	mov         x8,#1
	mul         x9,x9,x8
	ldr         x8,[sp,#0x10]
	add         x10,x8,x9
	ldr         w8,[sp]
	sxtw        x9,w8
	mov         x8,#1
	mul         x9,x9,x8
	add         x8,sp,#0x28
	add         x9,x8,x9
	ldrsb       w8,[x10]
	strb        w8,[x9]

; 273  : 		fbuf++;

	ldr         x8,[sp,#8]
	add         x8,x8,#1
	str         x8,[sp,#8]

; 274  : 	}

	b           |$LN5@AuBoardIte|
|$LN6@AuBoardIte|

; 275  : 	filename[i] = 0;

	ldr         w8,[sp]
	sxtw        x9,w8
	mov         x8,#1
	mul         x9,x9,x8
	add         x8,sp,#0x28
	add         x9,x8,x9
	mov         w8,#0
	strb        w8,[x9]

; 276  : 
; 277  : 	AuTextOut("[aurora]: Board entry : %s \r\n", filename);

	add         x1,sp,#0x28
	adrp        x8,|$SG3879|
	add         x0,x8,PageOffset(|$SG3879|)
	bl          AuTextOut

; 278  : 	AuCreateDriverInstance(filename);

	add         x0,sp,#0x28
	bl          AuCreateDriverInstance

; 279  : 	goto search;

	b           |$search$15|
|$LN1@AuBoardIte|
	add         sp,sp,#0x80
	ldr         lr,[sp],#0x10
	ret

	ENDP  ; |AuBoardIterateModule|

; Function compile flags: /Odtpy
; File C:\Users\paras\source\repos\grep-name\XenevaOS\KernelAA64\audrv.c

	AREA	|.text$mn|, CODE, ARM64

|AuCreateBootDriverInstance| PROC

; 191  : AuDriver* AuCreateBootDriverInstance(char* drivername) {

|$LN3|
	str         lr,[sp,#-0x10]!
	sub         sp,sp,#0x10
	str         x0,[sp,#8]

; 192  : 	AuDriver* driver = (AuDriver*)kmalloc(sizeof(AuDriver));

	mov         w0,#0x75
	bl          kmalloc
	str         x0,[sp]

; 193  : 	memset(driver, 0, sizeof(AuDriver));

	mov         w2,#0x75
	mov         w1,#0
	ldr         x0,[sp]
	bl          memset

; 194  : 	strcpy(driver->name, drivername);

	ldr         x8,[sp]
	add         x0,x8,#2
	ldr         x1,[sp,#8]
	bl          strcpy

; 195  : 	driver->id = AuRequestBootDriverId();

	bl          AuRequestBootDriverId
	mov         w0,w0
	ldr         x9,[sp]
	uxtb        w8,w0
	strb        w8,[x9]

; 196  : 	driver->present = false;

	ldr         x8,[sp]
	add         x9,x8,#0x22
	mov         w8,#0
	strb        w8,[x9]

; 197  : 	bootDrivers[driver->id] = driver;

	ldr         x8,[sp]
	ldrb        w8,[x8]
	mov         w9,w8
	mov         x8,#8
	mul         x9,x9,x8
	adrp        x8,bootDrivers
	add         x8,x8,PageOffset(bootDrivers)
	add         x9,x8,x9
	ldr         x8,[sp]
	str         x8,[x9]

; 198  : 	return driver;

	ldr         x0,[sp]
	add         sp,sp,#0x10
	ldr         lr,[sp],#0x10
	ret

	ENDP  ; |AuCreateBootDriverInstance|

; Function compile flags: /Odtpy
; File C:\Users\paras\source\repos\grep-name\XenevaOS\KernelAA64\audrv.c

	AREA	|.text$mn|, CODE, ARM64

|AuCreateDriverInstance| PROC

; 175  : AuDriver* AuCreateDriverInstance(char* drivername) {

|$LN3|
	str         lr,[sp,#-0x10]!
	sub         sp,sp,#0x10
	str         x0,[sp,#8]

; 176  : 	AuDriver* driver = (AuDriver*)kmalloc(sizeof(AuDriver));

	mov         w0,#0x75
	bl          kmalloc
	str         x0,[sp]

; 177  : 	memset(driver, 0, sizeof(AuDriver));

	mov         w2,#0x75
	mov         w1,#0
	ldr         x0,[sp]
	bl          memset

; 178  : 	strcpy(driver->name, drivername);

	ldr         x8,[sp]
	add         x0,x8,#2
	ldr         x1,[sp,#8]
	bl          strcpy

; 179  : 	driver->id = AuRequestDriverId();

	bl          AuRequestDriverId
	mov         w0,w0
	ldr         x9,[sp]
	uxtb        w8,w0
	strb        w8,[x9]

; 180  : 	driver->present = false;

	ldr         x8,[sp]
	add         x9,x8,#0x22
	mov         w8,#0
	strb        w8,[x9]

; 181  : 	drivers[driver->id] = driver;

	ldr         x8,[sp]
	ldrb        w8,[x8]
	mov         w9,w8
	mov         x8,#8
	mul         x9,x9,x8
	adrp        x8,drivers
	add         x8,x8,PageOffset(drivers)
	add         x9,x8,x9
	ldr         x8,[sp]
	str         x8,[x9]

; 182  : 	AuIncreaseDriverCount();

	bl          AuIncreaseDriverCount

; 183  : 	return driver;

	ldr         x0,[sp]
	add         sp,sp,#0x10
	ldr         lr,[sp],#0x10
	ret

	ENDP  ; |AuCreateDriverInstance|

; Function compile flags: /Odtpy
; File C:\Users\paras\source\repos\grep-name\XenevaOS\KernelAA64\audrv.c

	AREA	|.text$mn|, CODE, ARM64

|AuIncreaseDriverCount| PROC

; 89   : 	_dev_count_++;

	adrp        x8,_dev_count_
	ldr         w8,[x8,PageOffset(_dev_count_)]
	add         w9,w8,#1
	adrp        x8,_dev_count_
	str         w9,[x8,PageOffset(_dev_count_)]
	ret

	ENDP  ; |AuIncreaseDriverCount|

; Function compile flags: /Odtpy
; File C:\Users\paras\source\repos\grep-name\XenevaOS\KernelAA64\audrv.c

	AREA	|.text$mn|, CODE, ARM64

|AuDecreaseDriverCount| PROC

; 81   : 	_dev_count_--;

	adrp        x8,_dev_count_
	ldr         w8,[x8,PageOffset(_dev_count_)]
	sub         w9,w8,#1
	adrp        x8,_dev_count_
	str         w9,[x8,PageOffset(_dev_count_)]
	ret

	ENDP  ; |AuDecreaseDriverCount|

; Function compile flags: /Odtpy
; File C:\Users\paras\source\repos\grep-name\XenevaOS\KernelAA64\audrv.c

	AREA	|.text$mn|, CODE, ARM64

|AuRequestBootDriverId| PROC

; 70   : uint32_t AuRequestBootDriverId() {

|$LN3|
	sub         sp,sp,#0x10

; 71   : 	uint32_t uid = driver_boot_unique_id;

	adrp        x8,driver_boot_unique_id
	ldr         w8,[x8,PageOffset(driver_boot_unique_id)]
	str         w8,[sp]

; 72   : 	driver_boot_unique_id++;

	adrp        x8,driver_boot_unique_id
	ldr         w8,[x8,PageOffset(driver_boot_unique_id)]
	add         w9,w8,#1
	adrp        x8,driver_boot_unique_id
	str         w9,[x8,PageOffset(driver_boot_unique_id)]

; 73   : 	return uid;

	ldr         w0,[sp]
	add         sp,sp,#0x10
	ret

	ENDP  ; |AuRequestBootDriverId|

; Function compile flags: /Odtpy
; File C:\Users\paras\source\repos\grep-name\XenevaOS\KernelAA64\audrv.c

	AREA	|.text$mn|, CODE, ARM64

|AuRequestDriverId| PROC

; 64   : uint32_t AuRequestDriverId() {

|$LN3|
	sub         sp,sp,#0x10

; 65   : 	uint32_t uid = driver_class_unique_id;

	adrp        x8,driver_class_unique_id
	ldr         w8,[x8,PageOffset(driver_class_unique_id)]
	str         w8,[sp]

; 66   : 	driver_class_unique_id++;

	adrp        x8,driver_class_unique_id
	ldr         w8,[x8,PageOffset(driver_class_unique_id)]
	add         w9,w8,#1
	adrp        x8,driver_class_unique_id
	str         w9,[x8,PageOffset(driver_class_unique_id)]

; 67   : 	return uid;

	ldr         w0,[sp]
	add         sp,sp,#0x10
	ret

	ENDP  ; |AuRequestDriverId|

; Function compile flags: /Odtpy
; File C:\Users\paras\source\repos\grep-name\XenevaOS\KernelAA64\audrv.c

	AREA	|.text$mn|, CODE, ARM64

|AuDrvCatchFault| PROC

; 622  : void AuDrvCatchFault(AuDriver* drv, uint64_t fault_addr) {

|$LN3|
	str         lr,[sp,#-0x10]!
	sub         sp,sp,#0x20
	str         x0,[sp]
	str         x1,[sp,#8]

; 623  : 	UARTDebugOut("[aurora]: crash in kernel driver : %s \r\n", drv->name);

	ldr         x8,[sp]
	add         x1,x8,#2
	adrp        x8,|$SG4098|
	add         x0,x8,PageOffset(|$SG4098|)
	bl          UARTDebugOut

; 624  : 	uint64_t rva = fault_addr - drv->new_load_base;

	ldr         x8,[sp]
	add         x8,x8,#0x65
	ldr         x9,[sp,#8]
	ldr         x8,[x8]
	sub         x8,x9,x8
	str         x8,[sp,#0x10]

; 625  : 	uint64_t original_va = drv->original_load_base + rva;

	ldr         x8,[sp]
	add         x8,x8,#0x5D
	ldr         x9,[x8]
	ldr         x8,[sp,#0x10]
	add         x8,x9,x8
	str         x8,[sp,#0x18]

; 626  : 
; 627  : 	UARTDebugOut("[aurora]: relocated address: %x, original address : %x \r\n", fault_addr, original_va);

	ldr         x2,[sp,#0x18]
	ldr         x1,[sp,#8]
	adrp        x8,|$SG4099|
	add         x0,x8,PageOffset(|$SG4099|)
	bl          UARTDebugOut

; 628  : 	AuCoffResolveAddress(drv->new_load_base, fault_addr);

	ldr         x8,[sp]
	add         x8,x8,#0x65
	ldr         x1,[sp,#8]
	ldr         x0,[x8]
	bl          AuCoffResolveAddress
	add         sp,sp,#0x20
	ldr         lr,[sp],#0x10
	ret

	ENDP  ; |AuDrvCatchFault|

; Function compile flags: /Odtpy
; File C:\Users\paras\source\repos\grep-name\XenevaOS\KernelAA64\audrv.c

	AREA	|.text$mn|, CODE, ARM64

|AuDrvManagerCheckFault| PROC

; 606  : AuDriver* AuDrvManagerCheckFault(uint64_t fault_addr) {

|$LN9|
	sub         sp,sp,#0x20
	str         x0,[sp,#0x10]

; 607  : 	for (int i = 0; i < 246; i++) {

	mov         w8,#0
	str         w8,[sp]
	b           |$LN4@AuDrvManag|
|$LN2@AuDrvManag|
	ldr         w8,[sp]
	add         w8,w8,#1
	str         w8,[sp]
|$LN4@AuDrvManag|
	ldr         w8,[sp]
	cmp         w8,#0xF6
	bge         |$LN3@AuDrvManag|

; 608  : 		AuDriver* drv = drivers[i];

	ldr         w8,[sp]
	sxtw        x9,w8
	mov         x8,#8
	mul         x9,x9,x8
	adrp        x8,drivers
	add         x8,x8,PageOffset(drivers)
	add         x8,x8,x9
	ldr         x8,[x8]
	str         x8,[sp,#8]

; 609  : 		if (drv) {

	ldr         x8,[sp,#8]
	cmp         x8,#0
	beq         |$LN5@AuDrvManag|

; 610  : 			if (fault_addr > drv->new_load_base || fault_addr <= drv->new_load_base + drv->image_sz)

	ldr         x8,[sp,#8]
	add         x8,x8,#0x65
	ldr         x9,[x8]
	ldr         x8,[sp,#0x10]
	cmp         x8,x9
	bhi         |$LN7@AuDrvManag|
	ldr         x8,[sp,#8]
	add         x9,x8,#0x65
	ldr         x8,[sp,#8]
	add         x8,x8,#0x6D
	ldr         x9,[x9]
	ldr         x8,[x8]
	add         x9,x9,x8
	ldr         x8,[sp,#0x10]
	cmp         x8,x9
	bhi         |$LN6@AuDrvManag|
|$LN7@AuDrvManag|

; 611  : 				return drv;

	ldr         x0,[sp,#8]
	b           |$LN1@AuDrvManag|
|$LN6@AuDrvManag|
|$LN5@AuDrvManag|

; 612  : 		}
; 613  : 	}

	b           |$LN2@AuDrvManag|
|$LN3@AuDrvManag|
|$LN1@AuDrvManag|
	add         sp,sp,#0x20
	ret

	ENDP  ; |AuDrvManagerCheckFault|

; Function compile flags: /Odtpy
; File C:\Users\paras\source\repos\grep-name\XenevaOS\KernelAA64\audrv.c

	AREA	|.text$mn|, CODE, ARM64

|AuGetDriverName| PROC

; 208  : AuDriver* AuGetDriverName(uint32_t vendor_id, uint32_t device_id, uint8_t* buffer, int entryoff) {

|$LN9|
	str         lr,[sp,#-0x10]!
	sub         sp,sp,#0x60
	str         w0,[sp,#0x18]
	str         w1,[sp,#0x14]
	str         x2,[sp,#0x28]
	str         w3,[sp,#0x10]

; 209  : 	/* Get the entry offset for required device driver */
; 210  : 	char* offset = AuGetConfEntry(vendor_id, device_id, buffer, entryoff);

	ldr         w3,[sp,#0x10]
	ldr         x2,[sp,#0x28]
	ldr         w1,[sp,#0x14]
	ldr         w0,[sp,#0x18]
	bl          AuGetConfEntry
	str         x0,[sp,#0x20]

; 211  : 	if (offset == NULL)

	ldr         x8,[sp,#0x20]
	cmp         x8,#0
	bne         |$LN5@AuGetDrive|

; 212  : 		return NULL;

	mov         x0,#0
	b           |$LN1@AuGetDrive|
|$LN5@AuGetDrive|

; 213  : 	char* p = strchr(offset, ']');

	mov         w1,#0x5D
	ldr         x0,[sp,#0x20]
	bl          strchr
	str         x0,[sp,#8]

; 214  : 	if (p)

	ldr         x8,[sp,#8]
	cmp         x8,#0
	beq         |$LN6@AuGetDrive|

; 215  : 		p++;

	ldr         x8,[sp,#8]
	add         x8,x8,#1
	str         x8,[sp,#8]
|$LN6@AuGetDrive|

; 216  : 
; 217  : 	/* get the driver path */
; 218  : 	char drivername[32];
; 219  : 	memset(drivername, 0, 32);

	mov         w2,#0x20
	mov         w1,#0
	add         x0,sp,#0x38
	bl          memset

; 220  : 	int i = 0;

	mov         w8,#0
	str         w8,[sp]

; 221  : 	for (i = 0; i < 32; i++) {

	mov         w8,#0
	str         w8,[sp]
	b           |$LN4@AuGetDrive|
|$LN2@AuGetDrive|
	ldr         w8,[sp]
	add         w8,w8,#1
	str         w8,[sp]
|$LN4@AuGetDrive|
	ldr         w8,[sp]
	cmp         w8,#0x20
	bge         |$LN3@AuGetDrive|

; 222  : 		if (p[i] == '|')

	ldr         w8,[sp]
	sxtw        x9,w8
	mov         x8,#1
	mul         x9,x9,x8
	ldr         x8,[sp,#8]
	add         x8,x8,x9
	ldrsb       w8,[x8]
	mov         w8,w8
	cmp         w8,#0x7C
	bne         |$LN7@AuGetDrive|

; 223  : 			break;

	b           |$LN3@AuGetDrive|
|$LN7@AuGetDrive|

; 224  : 		drivername[i] = p[i];

	ldr         w8,[sp]
	sxtw        x9,w8
	mov         x8,#1
	mul         x9,x9,x8
	ldr         x8,[sp,#8]
	add         x10,x8,x9
	ldr         w8,[sp]
	sxtw        x9,w8
	mov         x8,#1
	mul         x9,x9,x8
	add         x8,sp,#0x38
	add         x9,x8,x9
	ldrsb       w8,[x10]
	strb        w8,[x9]

; 225  : 	}

	b           |$LN2@AuGetDrive|
|$LN3@AuGetDrive|

; 226  : 
; 227  : 	drivername[i] = 0;

	ldr         w8,[sp]
	sxtw        x9,w8
	mov         x8,#1
	mul         x9,x9,x8
	add         x8,sp,#0x38
	add         x9,x8,x9
	mov         w8,#0
	strb        w8,[x9]

; 228  : 
; 229  : 	AuDriver* drv = AuCreateDriverInstance(drivername);

	add         x0,sp,#0x38
	bl          AuCreateDriverInstance
	str         x0,[sp,#0x30]

; 230  : 	return drv;

	ldr         x0,[sp,#0x30]
|$LN1@AuGetDrive|
	add         sp,sp,#0x60
	ldr         lr,[sp],#0x10
	ret

	ENDP  ; |AuGetDriverName|

; Function compile flags: /Odtpy
; File C:\Users\paras\source\repos\grep-name\XenevaOS\KernelAA64\audrv.c

	AREA	|.text$mn|, CODE, ARM64

|AuGetConfEntry| PROC

; 99   : char* AuGetConfEntry(uint32_t vendor_id, uint32_t device_id, uint8_t* buffer, int entryoff) {

|$LN21|
	str         lr,[sp,#-0x10]!
	sub         sp,sp,#0x50
	str         w0,[sp,#0x30]
	str         w1,[sp,#0x34]
	str         x2,[sp,#0x40]
	str         w3,[sp,#0x20]
|$re$22|

; 100  : re:
; 101  : 	int entry_num = entryoff;

	ldr         w8,[sp,#0x20]
	str         w8,[sp,#0x38]

; 102  : 	char* fbuf = (char*)buffer;

	ldr         x8,[sp,#0x40]
	str         x8,[sp,#0x18]
|$search$23|

; 103  : 	/* Check the entry for the device */
; 104  : search:
; 105  : 	char* p = strchr(fbuf, '(');

	mov         w1,#0x28
	ldr         x0,[sp,#0x18]
	bl          strchr
	str         x0,[sp]

; 106  : 	if (p) {

	ldr         x8,[sp]
	cmp         x8,#0
	beq         |$LN8@AuGetConfE|

; 107  : 		p++;

	ldr         x8,[sp]
	add         x8,x8,#1
	str         x8,[sp]

; 108  : 		fbuf++;

	ldr         x8,[sp,#0x18]
	add         x8,x8,#1
	str         x8,[sp,#0x18]
|$LN8@AuGetConfE|

; 109  : 	}
; 110  : 	int entret = atoi(p);

	ldr         x0,[sp]
	bl          atoi
	mov         w0,w0
	str         w0,[sp,#0x28]

; 111  : 
; 112  : 	/* Check for last entry '(0)' it indicates that
; 113  : 	* there is no more entry
; 114  : 	*/
; 115  : 	if (entret == 0) {

	ldr         w8,[sp,#0x28]
	cmp         w8,#0
	bne         |$LN9@AuGetConfE|

; 116  : 		return 0;

	mov         x0,#0
	b           |$LN1@AuGetConfE|
|$LN9@AuGetConfE|

; 117  : 	}
; 118  : 
; 119  : 	if (entret != entry_num)

	ldr         w9,[sp,#0x38]
	ldr         w8,[sp,#0x28]
	cmp         w8,w9
	beq         |$LN10@AuGetConfE|

; 120  : 		goto search;

	b           |$search$23|
|$LN10@AuGetConfE|

; 121  : 
; 122  : 
; 123  : 	/* Search for vendor id of the product */
; 124  : 	fbuf = p;

	ldr         x8,[sp]
	str         x8,[sp,#0x18]

; 125  : 	p = strchr(fbuf, '[');

	mov         w1,#0x5B
	ldr         x0,[sp,#0x18]
	bl          strchr
	str         x0,[sp]

; 126  : 	int venid, devid = 0;

	mov         w8,#0
	str         w8,[sp,#0x24]

; 127  : 	int pi = 0;

	mov         w8,#0
	str         w8,[sp,#0x3C]

; 128  : 	if (p)

	ldr         x8,[sp]
	cmp         x8,#0
	beq         |$LN11@AuGetConfE|

; 129  : 		p++;

	ldr         x8,[sp]
	add         x8,x8,#1
	str         x8,[sp]
|$LN11@AuGetConfE|

; 130  : 
; 131  : 	fbuf = p;

	ldr         x8,[sp]
	str         x8,[sp,#0x18]

; 132  : 	char num[4];
; 133  : 	memset(num, 0, 4);

	mov         w2,#4
	mov         w1,#0
	add         x0,sp,#0x10
	bl          memset

; 134  : 	int i;
; 135  : 	for (i = 0; i < 4; i++) {

	mov         w8,#0
	str         w8,[sp,#8]
	b           |$LN4@AuGetConfE|
|$LN2@AuGetConfE|
	ldr         w8,[sp,#8]
	add         w8,w8,#1
	str         w8,[sp,#8]
|$LN4@AuGetConfE|
	ldr         w8,[sp,#8]
	cmp         w8,#4
	bge         |$LN3@AuGetConfE|

; 136  : 		if (p[i] == ',' || p[i] == ']')

	ldr         w8,[sp,#8]
	sxtw        x9,w8
	mov         x8,#1
	mul         x9,x9,x8
	ldr         x8,[sp]
	add         x8,x8,x9
	ldrsb       w8,[x8]
	mov         w8,w8
	cmp         w8,#0x2C
	beq         |$LN13@AuGetConfE|
	ldr         w8,[sp,#8]
	sxtw        x9,w8
	mov         x8,#1
	mul         x9,x9,x8
	ldr         x8,[sp]
	add         x8,x8,x9
	ldrsb       w8,[x8]
	mov         w8,w8
	cmp         w8,#0x5D
	bne         |$LN12@AuGetConfE|
|$LN13@AuGetConfE|

; 137  : 			break;

	b           |$LN3@AuGetConfE|
|$LN12@AuGetConfE|

; 138  : 		num[i] = p[i];

	ldr         w8,[sp,#8]
	sxtw        x9,w8
	mov         x8,#1
	mul         x9,x9,x8
	ldr         x8,[sp]
	add         x10,x8,x9
	ldr         w8,[sp,#8]
	sxtw        x9,w8
	mov         x8,#1
	mul         x9,x9,x8
	add         x8,sp,#0x10
	add         x9,x8,x9
	ldrsb       w8,[x10]
	strb        w8,[x9]

; 139  : 		fbuf++;

	ldr         x8,[sp,#0x18]
	add         x8,x8,#1
	str         x8,[sp,#0x18]

; 140  : 	}

	b           |$LN2@AuGetConfE|
|$LN3@AuGetConfE|

; 141  : 
; 142  : 	venid = atoi(num);

	add         x0,sp,#0x10
	bl          atoi
	mov         w0,w0
	str         w0,[sp,#0x2C]

; 143  : 
; 144  : 	memset(num, 0, 4);

	mov         w2,#4
	mov         w1,#0
	add         x0,sp,#0x10
	bl          memset

; 145  : 	/* Now search for device id / product id */
; 146  : 	p = strchr(fbuf, ',');

	mov         w1,#0x2C
	ldr         x0,[sp,#0x18]
	bl          strchr
	str         x0,[sp]

; 147  : 	if (p)

	ldr         x8,[sp]
	cmp         x8,#0
	beq         |$LN14@AuGetConfE|

; 148  : 		p++;

	ldr         x8,[sp]
	add         x8,x8,#1
	str         x8,[sp]
|$LN14@AuGetConfE|

; 149  : 	for (int i = 0; i < 4; i++) {

	mov         w8,#0
	str         w8,[sp,#0xC]
	b           |$LN7@AuGetConfE|
|$LN5@AuGetConfE|
	ldr         w8,[sp,#0xC]
	add         w8,w8,#1
	str         w8,[sp,#0xC]
|$LN7@AuGetConfE|
	ldr         w8,[sp,#0xC]
	cmp         w8,#4
	bge         |$LN6@AuGetConfE|

; 150  : 		if (p[i] == ',' || p[i] == ']')

	ldr         w8,[sp,#0xC]
	sxtw        x9,w8
	mov         x8,#1
	mul         x9,x9,x8
	ldr         x8,[sp]
	add         x8,x8,x9
	ldrsb       w8,[x8]
	mov         w8,w8
	cmp         w8,#0x2C
	beq         |$LN16@AuGetConfE|
	ldr         w8,[sp,#0xC]
	sxtw        x9,w8
	mov         x8,#1
	mul         x9,x9,x8
	ldr         x8,[sp]
	add         x8,x8,x9
	ldrsb       w8,[x8]
	mov         w8,w8
	cmp         w8,#0x5D
	bne         |$LN15@AuGetConfE|
|$LN16@AuGetConfE|

; 151  : 			break;

	b           |$LN6@AuGetConfE|
|$LN15@AuGetConfE|

; 152  : 		num[i] = p[i];

	ldr         w8,[sp,#0xC]
	sxtw        x9,w8
	mov         x8,#1
	mul         x9,x9,x8
	ldr         x8,[sp]
	add         x10,x8,x9
	ldr         w8,[sp,#0xC]
	sxtw        x9,w8
	mov         x8,#1
	mul         x9,x9,x8
	add         x8,sp,#0x10
	add         x9,x8,x9
	ldrsb       w8,[x10]
	strb        w8,[x9]

; 153  : 	}

	b           |$LN5@AuGetConfE|
|$LN6@AuGetConfE|

; 154  : 
; 155  : 	devid = atoi(num);

	add         x0,sp,#0x10
	bl          atoi
	mov         w0,w0
	str         w0,[sp,#0x24]

; 156  : 
; 157  : 	if (vendor_id != venid || devid != device_id) {

	ldr         w9,[sp,#0x2C]
	ldr         w8,[sp,#0x30]
	cmp         w8,w9
	bne         |$LN18@AuGetConfE|
	ldr         w9,[sp,#0x34]
	ldr         w8,[sp,#0x24]
	cmp         w8,w9
	beq         |$LN17@AuGetConfE|
|$LN18@AuGetConfE|

; 158  : 		entryoff++;

	ldr         w8,[sp,#0x20]
	add         w8,w8,#1
	str         w8,[sp,#0x20]

; 159  : 		goto re;

	b           |$re$22|
|$LN17@AuGetConfE|

; 160  : 	}
; 161  : 
; 162  : 	/* Finally we found the device driver */
; 163  : 	if (vendor_id == venid && devid == device_id) {

	ldr         w9,[sp,#0x2C]
	ldr         w8,[sp,#0x30]
	cmp         w8,w9
	bne         |$LN19@AuGetConfE|
	ldr         w9,[sp,#0x34]
	ldr         w8,[sp,#0x24]
	cmp         w8,w9
	bne         |$LN19@AuGetConfE|

; 164  : 		return fbuf;

	ldr         x0,[sp,#0x18]
	b           |$LN1@AuGetConfE|
|$LN19@AuGetConfE|

; 165  : 	}
; 166  : 
; 167  : 	return 0;

	mov         x0,#0
|$LN1@AuGetConfE|
	add         sp,sp,#0x50
	ldr         lr,[sp],#0x10
	ret

	ENDP  ; |AuGetConfEntry|

; Function compile flags: /Odtpy
; File C:\Users\paras\source\repos\grep-name\XenevaOS\KernelAA64\audrv.c

	AREA	|.text$mn|, CODE, ARM64

|AuDrvMgrSetBaseAddress| PROC

; 597  : void AuDrvMgrSetBaseAddress(uint64_t base_address) {

|$LN3|
	sub         sp,sp,#0x10
	str         x0,[sp]

; 598  : 	driver_load_base = base_address;

	adrp        x9,driver_load_base
	ldr         x8,[sp]
	str         x8,[x9,PageOffset(driver_load_base)]
	add         sp,sp,#0x10
	ret

	ENDP  ; |AuDrvMgrSetBaseAddress|

; Function compile flags: /Odtpy
; File C:\Users\paras\source\repos\grep-name\XenevaOS\KernelAA64\audrv.c

	AREA	|.text$mn|, CODE, ARM64

|AuDrvMgrGetBaseAddress| PROC

; 588  : 	return driver_load_base;

	adrp        x8,driver_load_base
	ldr         x0,[x8,PageOffset(driver_load_base)]
	ret

	ENDP  ; |AuDrvMgrGetBaseAddress|

; Function compile flags: /Odtpy
; File C:\Users\paras\source\repos\grep-name\XenevaOS\KernelAA64\audrv.c

	AREA	|.text$mn|, CODE, ARM64

|AuBootDriverInitialise| PROC

; 554  : AU_EXTERN AU_EXPORT void AuBootDriverInitialise(KERNEL_BOOT_INFO* info) {

|$LN9|
	str         lr,[sp,#-0x10]!
	sub         sp,sp,#0x30
	str         x0,[sp,#8]

; 555  : 	int total_boot_driver = 0;

	mov         w8,#0
	str         w8,[sp,#4]

; 556  : 	/* HARD CODED */
; 557  : 
; 558  : 	/* THE AHCI Controller */
; 559  : 	if (info->driver_entry1) {

	ldr         x8,[sp,#8]
	add         x8,x8,#0x78
	ldr         x8,[x8]
	cmp         x8,#0
	beq         |$LN5@AuBootDriv|

; 560  : 		AuDriver* driver = AuCreateBootDriverInstance("AHCIController");

	adrp        x8,|$SG4071|
	add         x0,x8,PageOffset(|$SG4071|)
	bl          AuCreateBootDriverInstance
	str         x0,[sp,#0x18]

; 561  : 		AuBootDriverLoad(info->driver_entry1, driver);

	ldr         x8,[sp,#8]
	add         x8,x8,#0x78
	ldr         x1,[sp,#0x18]
	ldr         x0,[x8]
	bl          AuBootDriverLoad
|$LN5@AuBootDriv|

; 562  : 	}
; 563  : 
; 564  : 	/* THE NVMe Controller */
; 565  : 	if (info->driver_entry2) {

	ldr         x8,[sp,#8]
	add         x8,x8,#0x80
	ldr         x8,[x8]
	cmp         x8,#0
	beq         |$LN6@AuBootDriv|

; 566  : 		AuDriver* driver = AuCreateBootDriverInstance("NVMeController");

	adrp        x8,|$SG4073|
	add         x0,x8,PageOffset(|$SG4073|)
	bl          AuCreateBootDriverInstance
	str         x0,[sp,#0x20]

; 567  : 		AuBootDriverLoad(info->driver_entry2, driver);

	ldr         x8,[sp,#8]
	add         x8,x8,#0x80
	ldr         x1,[sp,#0x20]
	ldr         x0,[x8]
	bl          AuBootDriverLoad
|$LN6@AuBootDriv|

; 568  : 	}
; 569  : 
; 570  : 	/* The USB 3.x Controller*/
; 571  : 	if (info->driver_entry3) {

	ldr         x8,[sp,#8]
	add         x8,x8,#0x88
	ldr         x8,[x8]
	cmp         x8,#0
	beq         |$LN7@AuBootDriv|

; 572  : 		AuDriver* driver = AuCreateBootDriverInstance("XHCIController");

	adrp        x8,|$SG4075|
	add         x0,x8,PageOffset(|$SG4075|)
	bl          AuCreateBootDriverInstance
	str         x0,[sp,#0x28]

; 573  : 		AuBootDriverLoad(info->driver_entry3, driver);

	ldr         x8,[sp,#8]
	add         x8,x8,#0x88
	ldr         x1,[sp,#0x28]
	ldr         x0,[x8]
	bl          AuBootDriverLoad
|$LN7@AuBootDriv|

; 574  : 	}
; 575  : 
; 576  : 	/* Serially call each startup entries of each driver */
; 577  : 	for (int i = 0; i < driver_boot_unique_id; i++) {

	mov         w8,#0
	str         w8,[sp]
	b           |$LN4@AuBootDriv|
|$LN2@AuBootDriv|
	ldr         w8,[sp]
	add         w8,w8,#1
	str         w8,[sp]
|$LN4@AuBootDriv|
	adrp        x8,driver_boot_unique_id
	ldr         w9,[x8,PageOffset(driver_boot_unique_id)]
	ldr         w8,[sp]
	cmp         w8,w9
	bhs         |$LN3@AuBootDriv|

; 578  : 		AuDriver* driver = bootDrivers[i];

	ldr         w8,[sp]
	sxtw        x9,w8
	mov         x8,#8
	mul         x9,x9,x8
	adrp        x8,bootDrivers
	add         x8,x8,PageOffset(bootDrivers)
	add         x8,x8,x9
	ldr         x8,[x8]
	str         x8,[sp,#0x10]

; 579  : 		driver->entry(driver);

	ldr         x8,[sp,#0x10]
	add         x8,x8,#0x4D
	ldr         x0,[sp,#0x10]
	ldr         x8,[x8]
	blr         x8

; 580  : 	}

	b           |$LN2@AuBootDriv|
|$LN3@AuBootDriv|
	add         sp,sp,#0x30
	ldr         lr,[sp],#0x10
	ret

	ENDP  ; |AuBootDriverInitialise|

; Function compile flags: /Odtpy
; File C:\Users\paras\source\repos\grep-name\XenevaOS\KernelAA64\audrv.c

	AREA	|.text$mn|, CODE, ARM64

|AuCheckDevice| PROC

; 511  : AU_EXTERN AU_EXPORT bool AuCheckDevice(uint16_t classC, uint16_t subclassC, uint8_t progIF) {

|$LN7|
	sub         sp,sp,#0x10
	uxth        w8,w0
	strh        w8,[sp,#2]
	uxth        w8,w1
	strh        w8,[sp,#4]
	uxtb        w8,w2
	strb        w8,[sp]

; 512  : 	for (int i = 0; i < _dev_count_; i++) {

	mov         w8,#0
	str         w8,[sp,#8]
	b           |$LN4@AuCheckDev|
|$LN2@AuCheckDev|
	ldr         w8,[sp,#8]
	add         w8,w8,#1
	str         w8,[sp,#8]
|$LN4@AuCheckDev|
	adrp        x8,_dev_count_
	ldr         w9,[x8,PageOffset(_dev_count_)]
	ldr         w8,[sp,#8]
	cmp         w8,w9
	bge         |$LN3@AuCheckDev|

; 513  : 		if (au_devices[i]->classCode == classC &&
; 514  : 			au_devices[i]->subClassCode == subclassC &&

	ldr         w8,[sp,#8]
	sxtw        x9,w8
	mov         x8,#8
	mul         x9,x9,x8
	adrp        x8,au_devices
	add         x8,x8,PageOffset(au_devices)
	add         x8,x8,x9
	ldr         x8,[x8]
	ldrh        w9,[x8]
	mov         w9,w9
	ldrh        w8,[sp,#2]
	mov         w8,w8
	cmp         w9,w8
	bne         |$LN5@AuCheckDev|
	ldr         w8,[sp,#8]
	sxtw        x9,w8
	mov         x8,#8
	mul         x9,x9,x8
	adrp        x8,au_devices
	add         x8,x8,PageOffset(au_devices)
	add         x8,x8,x9
	ldr         x8,[x8]
	add         x8,x8,#2
	ldrh        w9,[x8]
	mov         w9,w9
	ldrh        w8,[sp,#4]
	mov         w8,w8
	cmp         w9,w8
	bne         |$LN5@AuCheckDev|
	ldr         w8,[sp,#8]
	sxtw        x9,w8
	mov         x8,#8
	mul         x9,x9,x8
	adrp        x8,au_devices
	add         x8,x8,PageOffset(au_devices)
	add         x8,x8,x9
	ldr         x8,[x8]
	add         x8,x8,#4
	ldrb        w9,[x8]
	mov         w9,w9
	ldrb        w8,[sp]
	mov         w8,w8
	cmp         w9,w8
	bne         |$LN5@AuCheckDev|

; 515  : 			au_devices[i]->progIf == progIF)
; 516  : 			return true;

	mov         w0,#1
	b           |$LN1@AuCheckDev|
|$LN5@AuCheckDev|

; 517  : 	}

	b           |$LN2@AuCheckDev|
|$LN3@AuCheckDev|

; 518  : 	return false;

	mov         w0,#0
|$LN1@AuCheckDev|
	add         sp,sp,#0x10
	ret

	ENDP  ; |AuCheckDevice|

; Function compile flags: /Odtpy
; File C:\Users\paras\source\repos\grep-name\XenevaOS\KernelAA64\audrv.c

	AREA	|.text$mn|, CODE, ARM64

|AuRegisterDevice| PROC

; 499  : AU_EXTERN AU_EXPORT void AuRegisterDevice(AuDevice* dev) {

|$LN3|
	sub         sp,sp,#0x10
	str         x0,[sp]

; 500  : 	au_devices[_dev_count_] = dev;

	adrp        x8,_dev_count_
	ldr         w8,[x8,PageOffset(_dev_count_)]
	sxtw        x9,w8
	mov         x8,#8
	mul         x9,x9,x8
	adrp        x8,au_devices
	add         x8,x8,PageOffset(au_devices)
	add         x9,x8,x9
	ldr         x8,[sp]
	str         x8,[x9]

; 501  : 	_dev_count_++;

	adrp        x8,_dev_count_
	ldr         w8,[x8,PageOffset(_dev_count_)]
	add         w9,w8,#1
	adrp        x8,_dev_count_
	str         w9,[x8,PageOffset(_dev_count_)]
	add         sp,sp,#0x10
	ret

	ENDP  ; |AuRegisterDevice|

; Function compile flags: /Odtpy
; File C:\Users\paras\source\repos\grep-name\XenevaOS\KernelAA64\audrv.c

	AREA	|.text$mn|, CODE, ARM64

|AuDrvMngrInitialize| PROC

; 375  : void AuDrvMngrInitialize(KERNEL_BOOT_INFO* info) {

|$LN29|
	str         lr,[sp,#-0x10]!
	sub         sp,sp,#0x80
	str         x0,[sp,#0x78]

; 376  : 	driver_class_unique_id = 0;

	adrp        x9,driver_class_unique_id
	mov         w8,#0
	str         w8,[x9,PageOffset(driver_class_unique_id)]

; 377  : 	driver_boot_unique_id = 0;

	adrp        x9,driver_boot_unique_id
	mov         w8,#0
	str         w8,[x9,PageOffset(driver_boot_unique_id)]

; 378  : 	driver_load_base = AU_DRIVER_BASE_START;

	adrp        x9,driver_load_base
	ldr         x8,|$LN28@AuDrvMngrI|
	str         x8,[x9,PageOffset(driver_load_base)]

; 379  : 	_dev_count_ = 0;

	adrp        x9,_dev_count_
	mov         w8,#0
	str         w8,[x9,PageOffset(_dev_count_)]

; 380  : 
; 381  : 	scratchBuffer = (uint64_t*)P2V((uint64_t)AuPmmngrAllocBlocks((1024 * 1024) / 0x1000));

	mov         w0,#0x100
	bl          AuPmmngrAllocBlocks
	bl          P2V
	adrp        x8,scratchBuffer
	str         x0,[x8,PageOffset(scratchBuffer)]

; 382  : 	memset(scratchBuffer, 0, 1024 * 1024);

	mov         w2,#0x100000
	mov         w1,#0
	adrp        x8,scratchBuffer
	ldr         x0,[x8,PageOffset(scratchBuffer)]
	bl          memset

; 383  : 
; 384  : 	AuTextOut("[aurora]: initializing drivers, please wait... \r\n");

	adrp        x8,|$SG3997|
	add         x0,x8,PageOffset(|$SG3997|)
	bl          AuTextOut

; 385  : 	/* Load the conf data */
; 386  : 	uint64_t* conf = (uint64_t*)P2V((size_t)AuPmmngrAlloc());

	bl          AuPmmngrAlloc
	bl          P2V
	str         x0,[sp,#0x48]

; 387  : 	uint64_t* boardcnf = (uint64_t*)P2V((size_t)AuPmmngrAlloc());

	bl          AuPmmngrAlloc
	bl          P2V
	str         x0,[sp,#0x58]

; 388  : 	memset(conf, 0, PAGE_SIZE);

	mov         w2,#0x1000
	mov         w1,#0
	ldr         x0,[sp,#0x48]
	bl          memset

; 389  : 	memset(boardcnf, 0, PAGE_SIZE);

	mov         w2,#0x1000
	mov         w1,#0
	ldr         x0,[sp,#0x58]
	bl          memset

; 390  : 
; 391  : 	AuVFSNode* fsys = AuVFSFind("/");

	adrp        x8,|$SG3998|
	add         x0,x8,PageOffset(|$SG3998|)
	bl          AuVFSFind
	str         x0,[sp,#0x60]

; 392  : 	AuVFSNode* file = AuVFSOpen("/audrv.cnf");

	adrp        x8,|$SG3999|
	add         x0,x8,PageOffset(|$SG3999|)
	bl          AuVFSOpen
	str         x0,[sp,#0x38]

; 393  : 	if (!file) {

	ldr         x8,[sp,#0x38]
	cmp         x8,#0
	bne         |$LN14@AuDrvMngrI|

; 394  : 		AuTextOut("[aurora]: Driver Manager failed to open audrv.cnf, file not found \r\n");

	adrp        x8,|$SG4001|
	add         x0,x8,PageOffset(|$SG4001|)
	bl          AuTextOut

; 395  : 		return;

	b           |$LN1@AuDrvMngrI|
|$LN14@AuDrvMngrI|

; 396  : 	}
; 397  : 	int filesize = file->size / 1024;

	ldr         x8,[sp,#0x38]
	add         x8,x8,#0x20
	ldr         w9,[x8]
	mov         w8,#0x400
	udiv        w8,w9,w8
	str         w8,[sp,#0x18]

; 398  : 
; 399  : 	if (filesize < 4096)

	ldr         w8,[sp,#0x18]
	cmp         w8,#1,lsl #0xC
	bge         |$LN15@AuDrvMngrI|

; 400  : 		AuVFSNodeReadBlock(fsys, file, conf);

	ldr         x2,[sp,#0x48]
	ldr         x1,[sp,#0x38]
	ldr         x0,[sp,#0x60]
	bl          AuVFSNodeReadBlock
|$LN15@AuDrvMngrI|

; 401  : 
; 402  : 	uint8_t* confdata = (uint8_t*)conf;

	ldr         x8,[sp,#0x48]
	str         x8,[sp,#0x50]

; 403  : 
; 404  : 	bool proceed = 0;

	mov         w8,#0
	strb        w8,[sp,#6]

; 405  : 
; 406  : 	AuTextOut("[aurora]: audrv.cnf read successfully %s \r\n", file->filename);

	ldr         x1,[sp,#0x38]
	adrp        x8,|$SG4003|
	add         x0,x8,PageOffset(|$SG4003|)
	bl          AuTextOut

; 407  : 
; 408  : 	/** now initialize board specific driver list **/
; 409  : 	AuVFSNode* board = AuVFSOpen("/board.cnf");

	adrp        x8,|$SG4004|
	add         x0,x8,PageOffset(|$SG4004|)
	bl          AuVFSOpen
	str         x0,[sp,#0x40]

; 410  : 	if (board) {

	ldr         x8,[sp,#0x40]
	cmp         x8,#0
	beq         |$LN16@AuDrvMngrI|

; 411  : 		filesize = board->size / 1024;

	ldr         x8,[sp,#0x40]
	add         x8,x8,#0x20
	ldr         w9,[x8]
	mov         w8,#0x400
	udiv        w8,w9,w8
	str         w8,[sp,#0x18]

; 412  : 		if (filesize < 4096) {

	ldr         w8,[sp,#0x18]
	cmp         w8,#1,lsl #0xC
	bge         |$LN18@AuDrvMngrI|

; 413  : 			AuVFSNodeReadBlock(fsys, board, boardcnf);

	ldr         x2,[sp,#0x58]
	ldr         x1,[sp,#0x40]
	ldr         x0,[sp,#0x60]
	bl          AuVFSNodeReadBlock
|$LN18@AuDrvMngrI|

; 414  : 		}
; 415  : 		AuTextOut("[aurora]: board.cnf read successfully %s \r\n", board->filename);

	ldr         x1,[sp,#0x40]
	adrp        x8,|$SG4008|
	add         x0,x8,PageOffset(|$SG4008|)
	bl          AuTextOut

; 416  : 
; 417  : 	}else

	b           |$LN17@AuDrvMngrI|
|$LN16@AuDrvMngrI|

; 418  : 		AuTextOut("[aurora] Driver Manager failed to open board.cnf, file not found \r\n");

	adrp        x8,|$SG4009|
	add         x0,x8,PageOffset(|$SG4009|)
	bl          AuTextOut
|$LN17@AuDrvMngrI|

; 419  : 	
; 420  : 
; 421  : 	AuDriver* drv = NULL;

	mov         x8,#0
	str         x8,[sp,#8]

; 422  : 	/* AuDrvManager will be responsible for loading drivers through
; 423  : 	 * scanning MMIO, PCIe and other bus systems
; 424  : 	 */
; 425  : 	if (AuIsPCIeInitialized()) {

	bl          AuIsPCIeInitialized
	uxtb        w8,w0
	mov         w8,w8
	cmp         w8,#0
	beq         |$LN19@AuDrvMngrI|

; 426  : 		uint32_t vend_id, dev_id, class_code, sub_class = 0;

	mov         w8,#0
	str         w8,[sp,#0x10]

; 427  : 		uint32_t device = 0;

	mov         w8,#0
	str         w8,[sp,#0x68]

; 428  : 		for (uint16_t bus = 0; bus < 0x20; bus++) {

	mov         w8,#0
	strh        w8,[sp]
	b           |$LN4@AuDrvMngrI|
|$LN2@AuDrvMngrI|
	ldrh        w8,[sp]
	add         w8,w8,#1
	uxth        w8,w8
	strh        w8,[sp]
|$LN4@AuDrvMngrI|
	ldrh        w8,[sp]
	mov         w8,w8
	cmp         w8,#0x20
	bge         |$LN3@AuDrvMngrI|

; 429  : 			for (uint16_t dev = 0; dev < 32; dev++) {

	mov         w8,#0
	strh        w8,[sp,#4]
	b           |$LN7@AuDrvMngrI|
|$LN5@AuDrvMngrI|
	ldrh        w8,[sp,#4]
	add         w8,w8,#1
	uxth        w8,w8
	strh        w8,[sp,#4]
|$LN7@AuDrvMngrI|
	ldrh        w8,[sp,#4]
	mov         w8,w8
	cmp         w8,#0x20
	bge         |$LN6@AuDrvMngrI|

; 430  : 				for (uint16_t func = 0; func < 8; func++) {

	mov         w8,#0
	strh        w8,[sp,#2]
	b           |$LN10@AuDrvMngrI|
|$LN8@AuDrvMngrI|
	ldrh        w8,[sp,#2]
	add         w8,w8,#1
	uxth        w8,w8
	strh        w8,[sp,#2]
|$LN10@AuDrvMngrI|
	ldrh        w8,[sp,#2]
	mov         w8,w8
	cmp         w8,#8
	bge         |$LN9@AuDrvMngrI|

; 431  : 
; 432  : 					uint64_t device = AuPCIEGetDevice(0, bus, dev, func);

	ldrh        w3,[sp,#2]
	mov         w3,w3
	ldrh        w2,[sp,#4]
	mov         w2,w2
	ldrh        w1,[sp]
	mov         w1,w1
	mov         w3,w3
	mov         w2,w2
	mov         w1,w1
	mov         w0,#0
	bl          AuPCIEGetDevice
	str         x0,[sp,#0x28]

; 433  : 
; 434  : 					vend_id = AuPCIERead(device, PCI_VENDOR_ID, bus, dev, func);

	ldrh        w4,[sp,#2]
	mov         w4,w4
	ldrh        w3,[sp,#4]
	mov         w3,w3
	ldrh        w2,[sp]
	mov         w2,w2
	mov         w4,w4
	mov         w3,w3
	mov         w2,w2
	mov         w1,#0
	ldr         x0,[sp,#0x28]
	bl          AuPCIERead
	mov         w0,w0
	str         w0,[sp,#0x20]

; 435  : 					dev_id = AuPCIERead(device, PCI_DEVICE_ID, bus, dev, func);

	ldrh        w4,[sp,#2]
	mov         w4,w4
	ldrh        w3,[sp,#4]
	mov         w3,w3
	ldrh        w2,[sp]
	mov         w2,w2
	mov         w4,w4
	mov         w3,w3
	mov         w2,w2
	mov         w1,#2
	ldr         x0,[sp,#0x28]
	bl          AuPCIERead
	mov         w0,w0
	str         w0,[sp,#0x24]

; 436  : 					class_code = AuPCIERead(device, PCI_CLASS, bus, dev, func);

	ldrh        w4,[sp,#2]
	mov         w4,w4
	ldrh        w3,[sp,#4]
	mov         w3,w3
	ldrh        w2,[sp]
	mov         w2,w2
	mov         w4,w4
	mov         w3,w3
	mov         w2,w2
	mov         w1,#0xB
	ldr         x0,[sp,#0x28]
	bl          AuPCIERead
	mov         w0,w0
	str         w0,[sp,#0x1C]

; 437  : 					sub_class = AuPCIERead(device, PCI_SUBCLASS, bus, dev, func);

	ldrh        w4,[sp,#2]
	mov         w4,w4
	ldrh        w3,[sp,#4]
	mov         w3,w3
	ldrh        w2,[sp]
	mov         w2,w2
	mov         w4,w4
	mov         w3,w3
	mov         w2,w2
	mov         w1,#0xA
	ldr         x0,[sp,#0x28]
	bl          AuPCIERead
	mov         w0,w0
	str         w0,[sp,#0x10]

; 438  : 					/*if (class_code != 0xFF && sub_class != 0xFF) {
; 439  : 						AuTextOut("Class Code : %x, subClass : %x \n", class_code, sub_class);
; 440  : 					}*/
; 441  : 					if (dev_id == 0xFFFF || vend_id == 0xFFFF)

	mov         w9,#0xFFFF
	ldr         w8,[sp,#0x24]
	cmp         w8,w9
	beq         |$LN21@AuDrvMngrI|
	mov         w9,#0xFFFF
	ldr         w8,[sp,#0x20]
	cmp         w8,w9
	bne         |$LN20@AuDrvMngrI|
|$LN21@AuDrvMngrI|

; 442  : 						continue;

	b           |$LN8@AuDrvMngrI|
|$LN20@AuDrvMngrI|

; 443  : 					char* offset = AuGetConfEntry(class_code, sub_class, confdata, 1);

	mov         w3,#1
	ldr         x2,[sp,#0x50]
	ldr         w1,[sp,#0x10]
	ldr         w0,[sp,#0x1C]
	bl          AuGetConfEntry
	str         x0,[sp,#0x70]

; 444  : 					if (offset == NULL)

	ldr         x8,[sp,#0x70]
	cmp         x8,#0
	bne         |$LN22@AuDrvMngrI|

; 445  : 						drv = AuGetDriverName(vend_id, dev_id, confdata, 1);

	mov         w3,#1
	ldr         x2,[sp,#0x50]
	ldr         w1,[sp,#0x24]
	ldr         w0,[sp,#0x20]
	bl          AuGetDriverName
	str         x0,[sp,#8]
	b           |$LN23@AuDrvMngrI|
|$LN22@AuDrvMngrI|

; 446  : 					else
; 447  : 						drv = AuGetDriverName(class_code, sub_class, confdata, 1);

	mov         w3,#1
	ldr         x2,[sp,#0x50]
	ldr         w1,[sp,#0x10]
	ldr         w0,[sp,#0x1C]
	bl          AuGetDriverName
	str         x0,[sp,#8]
|$LN23@AuDrvMngrI|

; 448  : 
; 449  : 					if (drv) {

	ldr         x8,[sp,#8]
	cmp         x8,#0
	beq         |$LN24@AuDrvMngrI|

; 450  : 						drv->classCode = class_code;

	ldr         x8,[sp,#8]
	add         x9,x8,#0x37
	ldr         w8,[sp,#0x1C]
	uxtb        w8,w8
	strb        w8,[x9]

; 451  : 						drv->subClassCode = sub_class;

	ldr         x8,[sp,#8]
	add         x9,x8,#0x38
	ldr         w8,[sp,#0x10]
	uxtb        w8,w8
	strb        w8,[x9]

; 452  : 						drv->device = device;

	ldr         x8,[sp,#8]
	add         x9,x8,#0x45
	ldr         x8,[sp,#0x28]
	str         x8,[x9]

; 453  : 						drv->vendorID = vend_id;

	ldr         x8,[sp,#8]
	add         x9,x8,#0x33
	ldr         w8,[sp,#0x20]
	uxth        w8,w8
	strh        w8,[x9]

; 454  : 						drv->deviceID = dev_id;

	ldr         x8,[sp,#8]
	add         x9,x8,#0x35
	ldr         w8,[sp,#0x24]
	uxth        w8,w8
	strh        w8,[x9]

; 455  : 						drv->bus = bus;

	ldr         x8,[sp,#8]
	add         x9,x8,#0x39
	ldrh        w8,[sp]
	mov         w8,w8
	str         w8,[x9]

; 456  : 						drv->func = func;

	ldr         x8,[sp,#8]
	add         x9,x8,#0x3D
	ldrh        w8,[sp,#2]
	mov         w8,w8
	str         w8,[x9]

; 457  : 						drv->dev = dev;

	ldr         x8,[sp,#8]
	add         x9,x8,#0x41
	ldrh        w8,[sp,#4]
	mov         w8,w8
	str         w8,[x9]

; 458  : 						drv = NULL;

	mov         x8,#0
	str         x8,[sp,#8]
|$LN24@AuDrvMngrI|

; 459  : 					}
; 460  : 				}

	b           |$LN8@AuDrvMngrI|
|$LN9@AuDrvMngrI|

; 461  : 			}

	b           |$LN5@AuDrvMngrI|
|$LN6@AuDrvMngrI|

; 462  : 		}

	b           |$LN2@AuDrvMngrI|
|$LN3@AuDrvMngrI|

; 463  : 		proceed = 1;

	mov         w8,#1
	strb        w8,[sp,#6]
|$LN19@AuDrvMngrI|

; 464  : 	}
; 465  : 
; 466  : #if !defined(__TARGET_BOARD_QEMU_VIRT__)
; 467  : 	/*if PCIe fails then */
; 468  : 	if (board) {
; 469  : 		/** using font manager's function because both board config
; 470  : 		 * data and font manager config data shares same style
; 471  : 		 */
; 472  : 		int num_module_entry = FontManagerGetFontCount((uint8_t*)boardcnf);
; 473  : 		AuTextOut("[aurora]: number of board's module entry : %d \r\n", num_module_entry);
; 474  : 		AuBoardIterateModule(boardcnf, num_module_entry);
; 475  : 		proceed = 1;
; 476  : 	}
; 477  : #endif
; 478  : 
; 479  : 	if (proceed) {

	ldrb        w8,[sp,#6]
	mov         w8,w8
	cmp         w8,#0
	beq         |$LN25@AuDrvMngrI|

; 480  : 		/* Serially call each startup entries of each driver */
; 481  : 		for (int i = 0; i < driver_class_unique_id; i++) {

	mov         w8,#0
	str         w8,[sp,#0x14]
	b           |$LN13@AuDrvMngrI|
|$LN11@AuDrvMngrI|
	ldr         w8,[sp,#0x14]
	add         w8,w8,#1
	str         w8,[sp,#0x14]
|$LN13@AuDrvMngrI|
	adrp        x8,driver_class_unique_id
	ldr         w9,[x8,PageOffset(driver_class_unique_id)]
	ldr         w8,[sp,#0x14]
	cmp         w8,w9
	bhs         |$LN12@AuDrvMngrI|

; 482  : 			AuDriver* driver = drivers[i];

	ldr         w8,[sp,#0x14]
	sxtw        x9,w8
	mov         x8,#8
	mul         x9,x9,x8
	adrp        x8,drivers
	add         x8,x8,PageOffset(drivers)
	add         x8,x8,x9
	ldr         x8,[x8]
	str         x8,[sp,#0x30]

; 483  : 			AuDriverLoad(driver->name, driver);

	ldr         x8,[sp,#0x30]
	add         x0,x8,#2
	ldr         x1,[sp,#0x30]
	bl          AuDriverLoad

; 484  : 			if (driver->entry) {

	ldr         x8,[sp,#0x30]
	add         x8,x8,#0x4D
	ldr         x8,[x8]
	cmp         x8,#0
	beq         |$LN26@AuDrvMngrI|

; 485  : 				driver->entry(driver);

	ldr         x8,[sp,#0x30]
	add         x8,x8,#0x4D
	ldr         x0,[sp,#0x30]
	ldr         x8,[x8]
	blr         x8
|$LN26@AuDrvMngrI|

; 486  : 			}
; 487  : 		}

	b           |$LN11@AuDrvMngrI|
|$LN12@AuDrvMngrI|
|$LN25@AuDrvMngrI|

; 488  : 	}
; 489  : 
; 490  : 	AuTextOut("[aurora]: AuDrvManager initialized successfully \r\n");

	adrp        x8,|$SG4018|
	add         x0,x8,PageOffset(|$SG4018|)
	bl          AuTextOut

; 491  : 	kfree(file);

	ldr         x0,[sp,#0x38]
	bl          kfree
|$LN1@AuDrvMngrI|
	add         sp,sp,#0x80
	ldr         lr,[sp],#0x10
	ret
	nop
|$LN28@AuDrvMngrI|
	DCQ         0xffffc00000a00000

	ENDP  ; |AuDrvMngrInitialize|

	END
