; Listing generated by Microsoft (R) Optimizing Compiler Version 19.29.30159.0 

	TTL	C:\Users\paras\source\repos\grep-name\XenevaOS\KernelAA64\ARM64\Debug\aunet.obj
	ARM64

	AREA	|.drectve|, DRECTVE


	AREA	|.bss|, NOINIT
|netadapters| %	0x8
	EXPORT	|AuInitialiseNet|
	EXPORT	|AuAddNetAdapter|
	EXPORT	|AuGetNetworkAdapter|
	EXPORT	|AuNetworkRoute|
	IMPORT	|AuVFSFind|
	IMPORT	|ARPProtocolInitialise|
	IMPORT	|AuHashmapCreate|
	IMPORT	|AuHashmapSet|
	IMPORT	|AuHashmapGet|
	IMPORT	|AuDevFSCreateFile|
	IMPORT	|AuDevFSAddFile|
	IMPORT	|AuSocketInstall|
	IMPORT	|AuRouteTableInitialise|
	IMPORT	|AuRouteTableDoRouteLookup|
	IMPORT	|UDPProtocolInstall|
	IMPORT	|ICMPInitialise|
	IMPORT	|AuTextOut|
	IMPORT	|UARTDebugOut|

	AREA	|.pdata|, PDATA
|$pdata$AuInitialiseNet| DCD imagerel |$LN3|
	DCD	0x1200069
	;Flags[SingleProEpi] functionLength[104] RegF[0] RegI[0] H[0] frameChainReturn[UnChainedSavedLR] frameSize[32]
|$pdata$AuAddNetAdapter| DCD imagerel |$LN3|
	DCD	0x1a00065
	;Flags[SingleProEpi] functionLength[100] RegF[0] RegI[0] H[0] frameChainReturn[UnChainedSavedLR] frameSize[48]
|$pdata$AuGetNetworkAdapter| DCD imagerel |$LN3|
	DCD	0x1200031
	;Flags[SingleProEpi] functionLength[48] RegF[0] RegI[0] H[0] frameChainReturn[UnChainedSavedLR] frameSize[32]
|$pdata$AuNetworkRoute| DCD imagerel |$LN4|
	DCD	0x120004d
	;Flags[SingleProEpi] functionLength[76] RegF[0] RegI[0] H[0] frameChainReturn[UnChainedSavedLR] frameSize[32]

	AREA	|.data|, DATA
|$SG3244| DCB	"/dev", 0x0
	%	3
|$SG3245| DCB	"/dev/net", 0x0
	%	7
|$SG3246| DCB	"[aurora]: net system initialised ", 0xd, 0xa, 0x0
	%	4
|$SG3254| DCB	"NetAdapter adding : %x ", 0xd, 0xa, 0x0
	%	2
|$SG3255| DCB	"/dev", 0x0
	%	7
|$SG3256| DCB	"/dev/net", 0x0
	%	7
|$SG3267| DCB	"virtio-net", 0x0
; Function compile flags: /Odtpy
; File C:\Users\paras\source\repos\grep-name\XenevaOS\KernelAA64\Net\aunet.c

	AREA	|.text$mn|, CODE, ARM64

|AuNetworkRoute| PROC

; 92   : AuVFSNode* AuNetworkRoute(uint32_t address) {

|$LN4|
	str         lr,[sp,#-0x10]!
	sub         sp,sp,#0x10
	str         w0,[sp]

; 93   : 	/*if (address == 0x0100007F)*/ /* loop device */
; 94   : 	AuRouteEntry* rt = AuRouteTableDoRouteLookup(address);

	ldr         w0,[sp]
	bl          AuRouteTableDoRouteLookup
	str         x0,[sp,#8]

; 95   : 	if (!rt)

	ldr         x8,[sp,#8]
	cmp         x8,#0
	bne         |$LN2@AuNetworkR|

; 96   : 		return AuGetNetworkAdapter("virtio-net");

	adrp        x8,|$SG3267|
	add         x0,x8,PageOffset(|$SG3267|)
	bl          AuGetNetworkAdapter
	b           |$LN1@AuNetworkR|
|$LN2@AuNetworkR|

; 97   : 	return AuGetNetworkAdapter(rt->ifname);

	ldr         x8,[sp,#8]
	ldr         x0,[x8]
	bl          AuGetNetworkAdapter
|$LN1@AuNetworkR|
	add         sp,sp,#0x10
	ldr         lr,[sp],#0x10
	ret

	ENDP  ; |AuNetworkRoute|

; Function compile flags: /Odtpy
; File C:\Users\paras\source\repos\grep-name\XenevaOS\KernelAA64\Net\aunet.c

	AREA	|.text$mn|, CODE, ARM64

|AuGetNetworkAdapter| PROC

; 81   : AuVFSNode* AuGetNetworkAdapter(char* name) {

|$LN3|
	str         lr,[sp,#-0x10]!
	sub         sp,sp,#0x10
	str         x0,[sp]

; 82   : 	AuVFSNode* node = (AuVFSNode*)AuHashmapGet(netadapters, name);

	ldr         x1,[sp]
	adrp        x8,netadapters
	ldr         x0,[x8,PageOffset(netadapters)]
	bl          AuHashmapGet
	str         x0,[sp,#8]

; 83   : 	return node;

	ldr         x0,[sp,#8]
	add         sp,sp,#0x10
	ldr         lr,[sp],#0x10
	ret

	ENDP  ; |AuGetNetworkAdapter|

; Function compile flags: /Odtpy
; File C:\Users\paras\source\repos\grep-name\XenevaOS\KernelAA64\Net\aunet.c

	AREA	|.text$mn|, CODE, ARM64

|AuAddNetAdapter| PROC

; 70   : void AuAddNetAdapter(AuVFSNode* netfs, char* name) {

|$LN3|
	str         lr,[sp,#-0x10]!
	sub         sp,sp,#0x20
	str         x0,[sp,#8]
	str         x1,[sp]

; 71   : 	AuHashmapSet(netadapters, name, netfs);

	ldr         x2,[sp,#8]
	ldr         x1,[sp]
	adrp        x8,netadapters
	ldr         x0,[x8,PageOffset(netadapters)]
	bl          AuHashmapSet

; 72   : 	UARTDebugOut("NetAdapter adding : %x \r\n", name);

	ldr         x1,[sp]
	adrp        x8,|$SG3254|
	add         x0,x8,PageOffset(|$SG3254|)
	bl          UARTDebugOut

; 73   : 	AuVFSNode* fs = AuVFSFind("/dev");

	adrp        x8,|$SG3255|
	add         x0,x8,PageOffset(|$SG3255|)
	bl          AuVFSFind
	str         x0,[sp,#0x10]

; 74   : 	AuDevFSAddFile(fs, "/dev/net", netfs);

	ldr         x2,[sp,#8]
	adrp        x8,|$SG3256|
	add         x1,x8,PageOffset(|$SG3256|)
	ldr         x0,[sp,#0x10]
	bl          AuDevFSAddFile
	add         sp,sp,#0x20
	ldr         lr,[sp],#0x10
	ret

	ENDP  ; |AuAddNetAdapter|

; Function compile flags: /Odtpy
; File C:\Users\paras\source\repos\grep-name\XenevaOS\KernelAA64\Net\aunet.c

	AREA	|.text$mn|, CODE, ARM64

|AuInitialiseNet| PROC

; 51   : void AuInitialiseNet() {

|$LN3|
	str         lr,[sp,#-0x10]!
	sub         sp,sp,#0x10

; 52   : 	netadapters = AuHashmapCreate(10);

	mov         w0,#0xA
	bl          AuHashmapCreate
	adrp        x8,netadapters
	str         x0,[x8,PageOffset(netadapters)]

; 53   : 	AuVFSNode* fs = AuVFSFind("/dev");

	adrp        x8,|$SG3244|
	add         x0,x8,PageOffset(|$SG3244|)
	bl          AuVFSFind
	str         x0,[sp]

; 54   : 	AuDevFSCreateFile(fs, "/dev/net", FS_FLAG_DIRECTORY);

	mov         w2,#2
	adrp        x8,|$SG3245|
	add         x1,x8,PageOffset(|$SG3245|)
	ldr         x0,[sp]
	bl          AuDevFSCreateFile

; 55   : 	AuSocketInstall();

	bl          AuSocketInstall

; 56   : 	AuRouteTableInitialise();

	bl          AuRouteTableInitialise

; 57   : 	/* ARP Protocol for Ethernet devices */
; 58   : 	ARPProtocolInitialise();

	bl          ARPProtocolInitialise

; 59   : 	UDPProtocolInstall();

	bl          UDPProtocolInstall

; 60   : 	ICMPInitialise();

	bl          ICMPInitialise

; 61   : 	//TCPProtocolInstall();
; 62   : 	AuTextOut("[aurora]: net system initialised \r\n");

	adrp        x8,|$SG3246|
	add         x0,x8,PageOffset(|$SG3246|)
	bl          AuTextOut
	add         sp,sp,#0x10
	ldr         lr,[sp],#0x10
	ret

	ENDP  ; |AuInitialiseNet|

	END
