; Listing generated by Microsoft (R) Optimizing Compiler Version 19.29.30159.0 

	TTL	C:\Users\paras\source\repos\grep-name\XenevaOS\KernelAA64\ARM64\Debug\basicacpi.obj
	ARM64

	AREA	|.drectve|, DRECTVE


	AREA	|.data|, DATA
	 COMMON	|__AuroraBasicAcpi|, 0x8

	 COMMON	|__PCIESupported|, 0x1

	 COMMON	|__ACPIRSDP|, 0x8

	EXPORT	|AuACPIInitialise|
	EXPORT	|AuACPIGetMCFG|
	EXPORT	|AuACPIPCIESupported|
	EXPORT	|AuACPIGetRSDP|
	EXPORT	|search_s5|
	EXPORT	|AuACPIParseMADT|
	IMPORT	|kmalloc|
	IMPORT	|AuGetSystemGIC|
	IMPORT	|AuTextOut|
	IMPORT	|UARTDebugOut|
	IMPORT	|memset|
	IMPORT	|strncpy|
	IMPORT	|strncmp|
	IMPORT	|strlen|

	AREA	|.pdata|, PDATA
|$pdata$AuACPIInitialise| DCD imagerel |$LN34|
	DCD	0x3200629
	;Flags[SingleProEpi] functionLength[1576] RegF[0] RegI[0] H[0] frameChainReturn[UnChainedSavedLR] frameSize[96]
|$pdata$search_s5| DCD imagerel |$LN7|
	DCD	0x1000091
	;Flags[SingleProEpi] functionLength[144] RegF[0] RegI[0] H[0] frameChainReturn[UnChained] frameSize[32]
|$pdata$AuACPIParseMADT| DCD imagerel |$LN31|
	DCD	0x3a00301
	;Flags[SingleProEpi] functionLength[768] RegF[0] RegI[0] H[0] frameChainReturn[UnChainedSavedLR] frameSize[112]

	AREA	|.data|, DATA
|$SG2921| DCB	"acpi ioapic base -> %x, gsi -> %d ", 0xa, 0x0
|$SG2988| DCB	"%c", 0x0
	%	1
|$SG2923| DCB	"acpi interrupt source override gsi -> %d, src-> %d ", 0xa
	DCB	0x0
	%	3
|$SG2925| DCB	"GIC CPU Interface found ", 0xa, 0x0
	%	6
|$SG2926| DCB	"GIC CPU Interface Phys Base : %x ", 0xa, 0x0
	%	5
|$SG2927| DCB	"GICR Phys Base : %x ", 0xa, 0x0
	%	2
|$SG2929| DCB	"GIC Distributor found ", 0xa, 0x0
|$SG2930| DCB	"GIC Distributor Phys Base : %x ", 0xa, 0x0
	%	7
|$SG2931| DCB	"GIC Version : %x , GIC ID -> %d ", 0xa, 0x0
	%	6
|$SG2933| DCB	"GIC MSI Frame found ", 0xa, 0x0
	%	2
|$SG2934| DCB	"GIC MSI Frame Base : %x ", 0xa, 0x0
	%	6
|$SG2935| DCB	"GIC MSI SPI Base : %d, SPICount : %d ", 0xa, 0x0
	%	1
|$SG2985| DCB	"Could not find ACPI base %x ", 0xd, 0xa, 0x0
	%	1
|$SG2986| DCB	"Getting physical address of ACPIBASE ", 0xd, 0xa, 0x0
|$SG2987| DCB	"ACPI initializing -> %x", 0xa, 0x0
	%	7
|$SG2989| DCB	"ACPI xsdt -> %x ", 0xa, 0x0
	%	2
|$SG2997| DCB	"FACP", 0x0
	%	3
|$SG2998| DCB	"FACP", 0x0
	%	7
|$SG2999| DCB	"acpi fadt supported ", 0xa, 0x0
	%	2
|$SG3002| DCB	"CIPA", 0x0
	%	3
|$SG3003| DCB	"APIC", 0x0
	%	3
|$SG3004| DCB	"acpi madt supported ", 0xa, 0x0
	%	2
|$SG3007| DCB	"SRAT", 0x0
	%	3
|$SG3008| DCB	"SRAT", 0x0
	%	3
|$SG3009| DCB	"acpi srat supported ", 0xa, 0x0
	%	2
|$SG3012| DCB	"SLIT", 0x0
	%	3
|$SG3013| DCB	"SLIT", 0x0
	%	3
|$SG3014| DCB	"acpi slit supported ", 0xa, 0x0
	%	2
|$SG3017| DCB	"MCFG", 0x0
	%	3
|$SG3018| DCB	"MCFG", 0x0
	%	3
|$SG3019| DCB	"acpi mcfg supported ", 0xa, 0x0
	%	2
|$SG3022| DCB	"HPET", 0x0
	%	3
|$SG3023| DCB	"HPET", 0x0
	%	3
|$SG3024| DCB	"acpi hpet supported ", 0xa, 0x0
	%	2
|$SG3026| DCB	"MCHI", 0x0
	%	3
|$SG3027| DCB	"MCHI", 0x0
	%	3
|$SG3028| DCB	"acpi management controller host interface supported", 0xa
	DCB	0x0
	%	3
|$SG3035| DCB	"ACPI Madt : %x ", 0xa, 0x0
; Function compile flags: /Odtpy
; File C:\Users\paras\source\repos\grep-name\XenevaOS\KernelAA64\Hal\basicacpi.c

	AREA	|.text$mn|, CODE, ARM64

|AuACPIParseMADT| PROC

; 36   : void AuACPIParseMADT() {

|$LN31|
	str         lr,[sp,#-0x10]!
	sub         sp,sp,#0x60

; 37   : 	acpiApicHeader* apic_header = (acpiApicHeader*)__AuroraBasicAcpi->madt->entry;

	adrp        x8,__AuroraBasicAcpi
	ldr         x8,[x8,PageOffset(__AuroraBasicAcpi)]
	add         x8,x8,#1
	ldr         x8,[x8]
	add         x8,x8,#0x2C
	str         x8,[sp]
|$LN2@AuACPIPars|

; 38   : 	while (RAW_DIFF(apic_header, __AuroraBasicAcpi->madt) < __AuroraBasicAcpi->madt->header.length) {

	ldr         x8,[sp]
	mov         w9,w8
	adrp        x8,__AuroraBasicAcpi
	ldr         x8,[x8,PageOffset(__AuroraBasicAcpi)]
	add         x8,x8,#1
	ldr         x8,[x8]
	mov         w8,w8
	sub         w9,w9,w8
	adrp        x8,__AuroraBasicAcpi
	ldr         x8,[x8,PageOffset(__AuroraBasicAcpi)]
	add         x8,x8,#1
	ldr         x8,[x8]
	add         x8,x8,#4
	ldr         w8,[x8]
	cmp         w9,w8
	bhs         |$LN3@AuACPIPars|

; 39   : 		switch (apic_header->type) {

	ldr         x8,[sp]
	ldrb        w8,[x8]
	mov         w8,w8
	str         w8,[sp,#0x10]
	ldr         w8,[sp,#0x10]
	cmp         w8,#0xD
	bhi         |$LN13@AuACPIPars|
	ldr         w10,[sp,#0x10]
	adr         x9,__swt
	ldrsw       x8,[x9,w10 uxtw #2]
	adr         x9,|$LN16@AuACPIPars|
	add         x8,x9,x8,lsl #2
	br          x8
|$LN6@AuACPIPars|

; 40   : 		case ACPI_APICTYPE_LAPIC: {
; 41   : 			acpiLocalApic* lapic = (acpiLocalApic*)apic_header;

	ldr         x8,[sp]
	str         x8,[sp,#0x30]

; 42   : 			if (lapic->procId != 0)

	ldr         x8,[sp,#0x30]
	add         x8,x8,#2
	ldrb        w8,[x8]
	mov         w8,w8
	cmp         w8,#0
	beq         |$LN7@AuACPIPars|

; 43   : 				__AuroraBasicAcpi->num_cpu = lapic->procId;

	ldr         x8,[sp,#0x30]
	add         x10,x8,#2
	adrp        x8,__AuroraBasicAcpi
	ldr         x8,[x8,PageOffset(__AuroraBasicAcpi)]
	add         x9,x8,#0x2D
	ldrb        w8,[x10]
	strb        w8,[x9]
|$LN7@AuACPIPars|

; 44   : 			// AuTextOut("acpi cpu count -> %d \n", __AuroraBasicAcpi->num_cpu);
; 45   : 			break;

	b           |$LN4@AuACPIPars|
|$LN8@AuACPIPars|

; 46   : 		}
; 47   : 		case ACPI_APICTYPE_IOAPIC: {
; 48   : 			acpiIoApic* io_apic = (acpiIoApic*)apic_header;

	ldr         x8,[sp]
	str         x8,[sp,#0x38]

; 49   : 			AuTextOut("acpi ioapic base -> %x, gsi -> %d \n", io_apic->ioApicAddr, io_apic->gsiBase);

	ldr         x8,[sp,#0x38]
	add         x9,x8,#8
	ldr         x8,[sp,#0x38]
	add         x8,x8,#4
	ldr         w2,[x9]
	ldr         w1,[x8]
	adrp        x8,|$SG2921|
	add         x0,x8,PageOffset(|$SG2921|)
	bl          AuTextOut

; 50   : 			break;

	b           |$LN4@AuACPIPars|
|$LN9@AuACPIPars|

; 51   : 		}
; 52   : 		case ACPI_APICTYPE_ISOVER: {
; 53   : 			apic_interrupt_override* over = (apic_interrupt_override*)apic_header;

	ldr         x8,[sp]
	str         x8,[sp,#0x40]

; 54   : 			AuTextOut("acpi interrupt source override gsi -> %d, src-> %d \n", over->interrupt, over->source);

	ldr         x8,[sp,#0x40]
	add         x8,x8,#3
	ldrb        w2,[x8]
	mov         w2,w2
	ldr         x8,[sp,#0x40]
	add         x8,x8,#4
	mov         w2,w2
	ldr         w1,[x8]
	adrp        x8,|$SG2923|
	add         x0,x8,PageOffset(|$SG2923|)
	bl          AuTextOut

; 55   : 			break;

	b           |$LN4@AuACPIPars|
|$LN10@AuACPIPars|
|$LN16@AuACPIPars|

; 56   : 		}
; 57   : 
; 58   : 		case ACPI_MADTTYPE_GICC: {
; 59   : 			UARTDebugOut("GIC CPU Interface found \n");

	adrp        x8,|$SG2925|
	add         x0,x8,PageOffset(|$SG2925|)
	bl          UARTDebugOut

; 60   : 			acpiGICCpuInterface* gicc = (acpiGICCpuInterface*)apic_header;

	ldr         x8,[sp]
	str         x8,[sp,#0x20]

; 61   : 			UARTDebugOut("GIC CPU Interface Phys Base : %x \n", gicc->physicalBaseAddress);

	ldr         x8,[sp,#0x20]
	add         x8,x8,#0x20
	ldr         x1,[x8]
	adrp        x8,|$SG2926|
	add         x0,x8,PageOffset(|$SG2926|)
	bl          UARTDebugOut

; 62   : 			UARTDebugOut("GICR Phys Base : %x \n", gicc->gicrBaseAddress);

	ldr         x8,[sp,#0x20]
	add         x8,x8,#0x3C
	ldr         x1,[x8]
	adrp        x8,|$SG2927|
	add         x0,x8,PageOffset(|$SG2927|)
	bl          UARTDebugOut

; 63   : 			GIC* gic = AuGetSystemGIC();

	bl          AuGetSystemGIC
	str         x0,[sp,#0x48]

; 64   : 			gic->gicCPhys = gicc->physicalBaseAddress;

	ldr         x8,[sp,#0x20]
	add         x10,x8,#0x20
	ldr         x8,[sp,#0x48]
	add         x9,x8,#0x10
	ldr         x8,[x10]
	str         x8,[x9]

; 65   : 			break;

	b           |$LN4@AuACPIPars|
|$LN11@AuACPIPars|

; 66   : 		}
; 67   : 
; 68   : 		case ACPI_MADTTYPE_GICD: {
; 69   : 			AuTextOut("GIC Distributor found \n");

	adrp        x8,|$SG2929|
	add         x0,x8,PageOffset(|$SG2929|)
	bl          AuTextOut

; 70   : 			acpiGICDistributor* gicd = (acpiGICDistributor*)apic_header;

	ldr         x8,[sp]
	str         x8,[sp,#0x18]

; 71   : 			UARTDebugOut("GIC Distributor Phys Base : %x \n", gicd->physicalBaseAddress);

	ldr         x8,[sp,#0x18]
	add         x8,x8,#8
	ldr         x1,[x8]
	adrp        x8,|$SG2930|
	add         x0,x8,PageOffset(|$SG2930|)
	bl          UARTDebugOut

; 72   : 			UARTDebugOut("GIC Version : %x , GIC ID -> %d \n", gicd->gicVersion, gicd->gicID);

	ldr         x8,[sp,#0x18]
	add         x9,x8,#4
	ldr         x8,[sp,#0x18]
	add         x8,x8,#0x14
	ldrb        w1,[x8]
	mov         w1,w1
	ldr         w2,[x9]
	mov         w1,w1
	adrp        x8,|$SG2931|
	add         x0,x8,PageOffset(|$SG2931|)
	bl          UARTDebugOut

; 73   : 			GIC* gic = AuGetSystemGIC();

	bl          AuGetSystemGIC
	str         x0,[sp,#0x50]

; 74   : 			gic->gicDPhys = gicd->physicalBaseAddress;

	ldr         x8,[sp,#0x18]
	add         x10,x8,#8
	ldr         x8,[sp,#0x50]
	add         x9,x8,#8
	ldr         x8,[x10]
	str         x8,[x9]

; 75   : 			break;

	b           |$LN4@AuACPIPars|
|$LN12@AuACPIPars|

; 76   : 		}
; 77   : 		case ACPI_MADTTYPE_GICMSI: {
; 78   : 			AuTextOut("GIC MSI Frame found \n"); 

	adrp        x8,|$SG2933|
	add         x0,x8,PageOffset(|$SG2933|)
	bl          AuTextOut

; 79   : 			acpiGICv2MFrame* msiframe = (acpiGICv2MFrame*)apic_header;

	ldr         x8,[sp]
	str         x8,[sp,#8]

; 80   : 			UARTDebugOut("GIC MSI Frame Base : %x \n", msiframe->physicalBaseAddress);

	ldr         x8,[sp,#8]
	add         x8,x8,#8
	ldr         x1,[x8]
	adrp        x8,|$SG2934|
	add         x0,x8,PageOffset(|$SG2934|)
	bl          UARTDebugOut

; 81   : 			UARTDebugOut("GIC MSI SPI Base : %d, SPICount : %d \n", msiframe->spiBase, msiframe->spiCount);

	ldr         x8,[sp,#8]
	add         x8,x8,#0x14
	ldrh        w2,[x8]
	mov         w2,w2
	ldr         x8,[sp,#8]
	add         x8,x8,#0x16
	ldrh        w1,[x8]
	mov         w1,w1
	mov         w2,w2
	mov         w1,w1
	adrp        x8,|$SG2935|
	add         x0,x8,PageOffset(|$SG2935|)
	bl          UARTDebugOut

; 82   : 			GIC* gic = AuGetSystemGIC();

	bl          AuGetSystemGIC
	str         x0,[sp,#0x28]

; 83   : 			gic->gicMSIPhys = msiframe->physicalBaseAddress;

	ldr         x8,[sp,#8]
	add         x10,x8,#8
	ldr         x8,[sp,#0x28]
	add         x9,x8,#0x20
	ldr         x8,[x10]
	str         x8,[x9]

; 84   : 			gic->spiBase = msiframe->spiBase;

	ldr         x8,[sp,#8]
	add         x10,x8,#0x16
	ldr         x8,[sp,#0x28]
	add         x9,x8,#0x48
	ldrh        w8,[x10]
	strh        w8,[x9]

; 85   : 			gic->spiCount = msiframe->spiCount;

	ldr         x8,[sp,#8]
	add         x10,x8,#0x14
	ldr         x8,[sp,#0x28]
	add         x9,x8,#0x4A
	ldrh        w8,[x10]
	strh        w8,[x9]
|$LN13@AuACPIPars|
|$LN4@AuACPIPars|

; 86   : 			break;
; 87   : 		}
; 88   : 
; 89   : 		default:
; 90   : 			break;
; 91   : 		}
; 92   : 
; 93   : 		apic_header = RAW_OFFSET(acpiApicHeader*,apic_header, apic_header->length);

	ldr         x8,[sp]
	add         x8,x8,#1
	ldrb        w8,[x8]
	mov         w8,w8
	sxtw        x9,w8
	ldr         x8,[sp]
	add         x8,x8,x9
	str         x8,[sp]

; 94   : 	}

	b           |$LN2@AuACPIPars|
|$LN3@AuACPIPars|
	add         sp,sp,#0x60
	ldr         lr,[sp],#0x10
	ret
|__swt|
|$LN17@AuACPIPars|

; 39   : 		switch (apic_header->type) {

	DCD         0xffffffd6
|$LN18@AuACPIPars|
	DCD         0xffffffe6
|$LN19@AuACPIPars|
	DCD         0xfffffff2
|$LN20@AuACPIPars|
	DCD         0x65
|$LN21@AuACPIPars|
	DCD         0x65
|$LN22@AuACPIPars|
	DCD         0x65
|$LN23@AuACPIPars|
	DCD         0x65
|$LN24@AuACPIPars|
	DCD         0x65
|$LN25@AuACPIPars|
	DCD         0x65
|$LN26@AuACPIPars|
	DCD         0x65
|$LN27@AuACPIPars|
	DCD         0x65
|$LN28@AuACPIPars|
	DCD         0x0
|$LN29@AuACPIPars|
	DCD         0x1a
|$LN30@AuACPIPars|
	DCD         0x39

	ENDP  ; |AuACPIParseMADT|

; Function compile flags: /Odtpy
; File C:\Users\paras\source\repos\grep-name\XenevaOS\KernelAA64\Hal\basicacpi.c

	AREA	|.text$mn|, CODE, ARM64

|search_s5| PROC

; 16   : uint8_t* search_s5(acpiDsdt* header) {

|$LN7|
	sub         sp,sp,#0x20
	str         x0,[sp,#0x10]

; 17   : 	uint32_t l;
; 18   : 	uint32_t* S5;
; 19   : 
; 20   : 	l = header->header.length - sizeof(acpiDsdt);

	ldr         x8,[sp,#0x10]
	add         x8,x8,#4
	ldr         w8,[x8]
	uxtw        x8,w8
	sub         x8,x8,#0x24
	mov         w8,w8
	str         w8,[sp]

; 21   : 	S5 = (uint32_t*)(header + sizeof(acpiDsdt));

	ldr         x8,[sp,#0x10]
	add         x8,x8,#0x510
	str         x8,[sp,#8]
|$LN2@search_s5|

; 22   : 	while (l--) {

	ldr         w8,[sp]
	str         w8,[sp,#4]
	ldr         w8,[sp]
	sub         w8,w8,#1
	str         w8,[sp]
	ldr         w8,[sp,#4]
	cmp         w8,#0
	beq         |$LN3@search_s5|

; 23   : 		if (*S5 == (uint32_t)'_5S_') {

	ldr         w9,|$LN6@search_s5|
	ldr         x8,[sp,#8]
	ldr         w8,[x8]
	cmp         w8,w9
	bne         |$LN4@search_s5|

; 24   : 			return (uint8_t*)S5;

	ldr         x0,[sp,#8]
	b           |$LN1@search_s5|
|$LN4@search_s5|

; 25   : 		}
; 26   : 		S5 = (uint32_t*)((uint32_t)S5 + 1);

	ldr         x8,[sp,#8]
	mov         w8,w8
	add         w8,w8,#1
	uxtw        x8,w8
	str         x8,[sp,#8]

; 27   : 	}

	b           |$LN2@search_s5|
|$LN3@search_s5|

; 28   : 
; 29   : 	return (uint8_t*)NULL;

	mov         x0,#0
|$LN1@search_s5|
	add         sp,sp,#0x20
	ret
|$LN6@search_s5|
	DCD         0x5f35535f

	ENDP  ; |search_s5|

; Function compile flags: /Odtpy
; File C:\Users\paras\source\repos\grep-name\XenevaOS\KernelAA64\Hal\basicacpi.c

	AREA	|.text$mn|, CODE, ARM64

|AuACPIGetRSDP| PROC

; 252  : 	return __ACPIRSDP;

	adrp        x8,__ACPIRSDP
	ldr         x0,[x8,PageOffset(__ACPIRSDP)]
	ret

	ENDP  ; |AuACPIGetRSDP|

; Function compile flags: /Odtpy
; File C:\Users\paras\source\repos\grep-name\XenevaOS\KernelAA64\Hal\basicacpi.c

	AREA	|.text$mn|, CODE, ARM64

|AuACPIPCIESupported| PROC

; 244  : 	return __PCIESupported;

	adrp        x8,__PCIESupported
	ldrb        w0,[x8,PageOffset(__PCIESupported)]
	ret

	ENDP  ; |AuACPIPCIESupported|

; Function compile flags: /Odtpy
; File C:\Users\paras\source\repos\grep-name\XenevaOS\KernelAA64\Hal\basicacpi.c

	AREA	|.text$mn|, CODE, ARM64

|AuACPIGetMCFG| PROC

; 234  : 	if (!__AuroraBasicAcpi)

	adrp        x8,__AuroraBasicAcpi
	ldr         x8,[x8,PageOffset(__AuroraBasicAcpi)]
	cmp         x8,#0
	bne         |$LN2@AuACPIGetM|

; 235  : 		return NULL;

	mov         x0,#0
	b           |$LN1@AuACPIGetM|
|$LN2@AuACPIGetM|

; 236  : 	return __AuroraBasicAcpi->mcfg;

	adrp        x8,__AuroraBasicAcpi
	ldr         x8,[x8,PageOffset(__AuroraBasicAcpi)]
	add         x8,x8,#0x21
	ldr         x0,[x8]
|$LN1@AuACPIGetM|
	ret

	ENDP  ; |AuACPIGetMCFG|

; Function compile flags: /Odtpy
; File C:\Users\paras\source\repos\grep-name\XenevaOS\KernelAA64\Hal\basicacpi.c

	AREA	|.text$mn|, CODE, ARM64

|AuACPIInitialise| PROC

; 120  : void AuACPIInitialise(void* acpi_base) {

|$LN34|
	str         lr,[sp,#-0x10]!
	sub         sp,sp,#0x50
	str         x0,[sp,#0x28]

; 121  : 	if (!acpi_base) {

	ldr         x8,[sp,#0x28]
	cmp         x8,#0
	bne         |$LN8@AuACPIInit|

; 122  : 		AuTextOut("Could not find ACPI base %x \r\n", acpi_base);

	ldr         x1,[sp,#0x28]
	adrp        x8,|$SG2985|
	add         x0,x8,PageOffset(|$SG2985|)
	bl          AuTextOut

; 123  : 		return;

	b           |$LN1@AuACPIInit|
|$LN8@AuACPIInit|

; 124  : 	}
; 125  : 
; 126  : 	/** bypassing acpi on qemu virt **/
; 127  : #ifdef __TARGET_BOARD_QEMU_VIRT__
; 128  : 	return;

	b           |$LN1@AuACPIInit|

; 129  : #endif
; 130  : 	/*AuUpdatePageFlags((uint64_t)acpi_base, PTE_VALID | PTE_TABLE |
; 131  : 		PTE_AF | PTE_SH_INNER | PTE_AP_RW | PTE_NORMAL_MEM);*/
; 132  : 	__AuroraBasicAcpi = (AuroraBasicACPI*)kmalloc(sizeof(AuroraBasicACPI));

	mov         w0,#0x2E
	bl          kmalloc
	adrp        x8,__AuroraBasicAcpi
	str         x0,[x8,PageOffset(__AuroraBasicAcpi)]

; 133  : 	memset(__AuroraBasicAcpi, 0, sizeof(AuroraBasicACPI));

	mov         x2,#0x2E
	mov         w1,#0
	adrp        x8,__AuroraBasicAcpi
	ldr         x0,[x8,PageOffset(__AuroraBasicAcpi)]
	bl          memset

; 134  : 	__ACPIRSDP = acpi_base;

	adrp        x9,__ACPIRSDP
	ldr         x8,[sp,#0x28]
	str         x8,[x9,PageOffset(__ACPIRSDP)]

; 135  : 	acpiRsdp2* rsdp = (acpiRsdp2*)acpi_base;

	ldr         x8,[sp,#0x28]
	str         x8,[sp,#0x30]

; 136  : 	acpiRsdt* rsdt = (acpiRsdt*)rsdp->rsdtAddr;

	ldr         x8,[sp,#0x30]
	add         x8,x8,#0x10
	ldr         w8,[x8]
	uxtw        x8,w8
	str         x8,[sp,#0x38]

; 137  : 	acpiXsdt* xsdt = (acpiXsdt*)rsdp->xsdtAddr;

	ldr         x8,[sp,#0x30]
	add         x8,x8,#0x18
	ldr         x8,[x8]
	str         x8,[sp,#0x40]

; 138  : 	AuTextOut("Getting physical address of ACPIBASE \r\n");

	adrp        x8,|$SG2986|
	add         x0,x8,PageOffset(|$SG2986|)
	bl          AuTextOut

; 139  : 	//AuFreePages(acpi_base, 0, 4096);
; 140  : 	char sig[5];
; 141  : 	AuTextOut("ACPI initializing -> %x\n", acpi_base);

	ldr         x1,[sp,#0x28]
	adrp        x8,|$SG2987|
	add         x0,x8,PageOffset(|$SG2987|)
	bl          AuTextOut

; 142  : 	for (int i = 0; i < 8; i++)

	mov         w8,#0
	str         w8,[sp,#0x14]
	b           |$LN4@AuACPIInit|
|$LN2@AuACPIInit|
	ldr         w8,[sp,#0x14]
	add         w8,w8,#1
	str         w8,[sp,#0x14]
|$LN4@AuACPIInit|
	ldr         w8,[sp,#0x14]
	cmp         w8,#8
	bge         |$LN3@AuACPIInit|

; 143  : 		AuTextOut("%c", rsdp->oemId[i]);

	ldr         x8,[sp,#0x30]
	add         x10,x8,#9
	ldr         w8,[sp,#0x14]
	sxtw        x9,w8
	mov         x8,#1
	mul         x8,x9,x8
	add         x8,x10,x8
	ldrsb       w1,[x8]
	mov         w1,w1
	mov         w1,w1
	adrp        x8,|$SG2988|
	add         x0,x8,PageOffset(|$SG2988|)
	bl          AuTextOut
	b           |$LN2@AuACPIInit|
|$LN3@AuACPIInit|

; 144  : 	AuTextOut("ACPI xsdt -> %x \n", rsdp->xsdtAddr);

	ldr         x8,[sp,#0x30]
	add         x8,x8,#0x18
	ldr         x1,[x8]
	adrp        x8,|$SG2989|
	add         x0,x8,PageOffset(|$SG2989|)
	bl          AuTextOut

; 145  : 	int entries = 0;

	mov         w8,#0
	str         w8,[sp,#0x18]

; 146  : 	if (rsdt) {

	ldr         x8,[sp,#0x38]
	cmp         x8,#0
	beq         |$LN9@AuACPIInit|

; 147  : 		entries = (rsdt->header.length - sizeof(rsdt->header)) / 4;

	ldr         x8,[sp,#0x38]
	add         x8,x8,#4
	ldr         w8,[x8]
	uxtw        x8,w8
	sub         x9,x8,#0x24
	mov         x8,#4
	udiv        x8,x9,x8
	mov         w8,w8
	str         w8,[sp,#0x18]

; 148  : 	}

	b           |$LN10@AuACPIInit|
|$LN9@AuACPIInit|

; 149  : 	else if (xsdt) {

	ldr         x8,[sp,#0x40]
	cmp         x8,#0
	beq         |$LN11@AuACPIInit|

; 150  : 		entries = (xsdt->header.length - sizeof(xsdt->header)) / sizeof(uint64_t);

	ldr         x8,[sp,#0x40]
	add         x8,x8,#4
	ldr         w8,[x8]
	uxtw        x8,w8
	sub         x9,x8,#0x24
	mov         x8,#8
	udiv        x8,x9,x8
	mov         w8,w8
	str         w8,[sp,#0x18]
|$LN11@AuACPIInit|
|$LN10@AuACPIInit|

; 151  : 	}
; 152  : 	acpiSysDescHeader* header = NULL;

	mov         x8,#0
	str         x8,[sp,#0x20]

; 153  : 	__PCIESupported = false;

	adrp        x9,__PCIESupported
	mov         w8,#0
	strb        w8,[x9,PageOffset(__PCIESupported)]

; 154  : 	
; 155  : 	for (int count = 0; count < entries; count++) {

	mov         w8,#0
	str         w8,[sp,#0x10]
	b           |$LN7@AuACPIInit|
|$LN5@AuACPIInit|
	ldr         w8,[sp,#0x10]
	add         w8,w8,#1
	str         w8,[sp,#0x10]
|$LN7@AuACPIInit|
	ldr         w9,[sp,#0x18]
	ldr         w8,[sp,#0x10]
	cmp         w8,w9
	bge         |$LN6@AuACPIInit|

; 156  : 		if (rsdt) {

	ldr         x8,[sp,#0x38]
	cmp         x8,#0
	beq         |$LN12@AuACPIInit|

; 157  : 			header = (acpiSysDescHeader*)rsdt->entry[count];

	ldr         x8,[sp,#0x38]
	add         x10,x8,#0x24
	ldr         w8,[sp,#0x10]
	sxtw        x9,w8
	mov         x8,#4
	mul         x8,x9,x8
	add         x8,x10,x8
	ldr         w8,[x8]
	uxtw        x8,w8
	str         x8,[sp,#0x20]

; 158  : 		}

	b           |$LN13@AuACPIInit|
|$LN12@AuACPIInit|

; 159  : 		else {
; 160  : 			header = (acpiSysDescHeader*)xsdt->entry[count];

	ldr         x8,[sp,#0x40]
	add         x10,x8,#0x24
	ldr         w8,[sp,#0x10]
	sxtw        x9,w8
	mov         x8,#8
	mul         x8,x9,x8
	add         x8,x10,x8
	ldr         x8,[x8]
	str         x8,[sp,#0x20]
|$LN13@AuACPIInit|

; 161  : 		}
; 162  : 
; 163  : 
; 164  : 		strncpy(sig, header->signature, 4);

	ldr         x1,[sp,#0x20]
	mov         w2,#4
	add         x0,sp,#8
	bl          strncpy

; 165  : 		sig[4] = '\0';

	mov         w8,#0
	strb        w8,[sp,#0xC]

; 166  : 
; 167  : 		if (!strncmp(sig, ACPI_SIG_FADT, strlen(ACPI_SIG_FADT))) {

	adrp        x8,|$SG2997|
	add         x0,x8,PageOffset(|$SG2997|)
	bl          strlen
	mov         w0,w0
	mov         w2,w0
	adrp        x8,|$SG2998|
	add         x1,x8,PageOffset(|$SG2998|)
	add         x0,sp,#8
	bl          strncmp
	mov         w0,w0
	cmp         w0,#0
	bne         |$LN14@AuACPIInit|

; 168  : 			__AuroraBasicAcpi->fadt = (acpiFadt*)header;

	adrp        x8,__AuroraBasicAcpi
	ldr         x8,[x8,PageOffset(__AuroraBasicAcpi)]
	add         x9,x8,#9
	ldr         x8,[sp,#0x20]
	str         x8,[x9]

; 169  : 			AuTextOut("acpi fadt supported \n");

	adrp        x8,|$SG2999|
	add         x0,x8,PageOffset(|$SG2999|)
	bl          AuTextOut

; 170  : 		}

	b           |$LN15@AuACPIInit|
|$LN14@AuACPIInit|

; 171  : 
; 172  : 		else if (!strncmp(sig, ACPI_SIG_APIC, strlen("CIPA"))) {

	adrp        x8,|$SG3002|
	add         x0,x8,PageOffset(|$SG3002|)
	bl          strlen
	mov         w0,w0
	mov         w2,w0
	adrp        x8,|$SG3003|
	add         x1,x8,PageOffset(|$SG3003|)
	add         x0,sp,#8
	bl          strncmp
	mov         w0,w0
	cmp         w0,#0
	bne         |$LN16@AuACPIInit|

; 173  : 			__AuroraBasicAcpi->madt = (acpiMadt*)header;

	adrp        x8,__AuroraBasicAcpi
	ldr         x8,[x8,PageOffset(__AuroraBasicAcpi)]
	add         x9,x8,#1
	ldr         x8,[sp,#0x20]
	str         x8,[x9]

; 174  : 			AuTextOut("acpi madt supported \n");

	adrp        x8,|$SG3004|
	add         x0,x8,PageOffset(|$SG3004|)
	bl          AuTextOut

; 175  : 		}

	b           |$LN17@AuACPIInit|
|$LN16@AuACPIInit|

; 176  : 		else if (!strncmp(sig, ACPI_SIG_SRAT, strlen(ACPI_SIG_SRAT))) {

	adrp        x8,|$SG3007|
	add         x0,x8,PageOffset(|$SG3007|)
	bl          strlen
	mov         w0,w0
	mov         w2,w0
	adrp        x8,|$SG3008|
	add         x1,x8,PageOffset(|$SG3008|)
	add         x0,sp,#8
	bl          strncmp
	mov         w0,w0
	cmp         w0,#0
	bne         |$LN18@AuACPIInit|

; 177  : 			AuTextOut("acpi srat supported \n");

	adrp        x8,|$SG3009|
	add         x0,x8,PageOffset(|$SG3009|)
	bl          AuTextOut

; 178  : 			/* here needs to parse the srat table for
; 179  : 			 * numa memory */
; 180  : 		}

	b           |$LN19@AuACPIInit|
|$LN18@AuACPIInit|

; 181  : 		else if (!strncmp(sig, ACPI_SIG_SLIT, strlen(ACPI_SIG_SLIT))) {

	adrp        x8,|$SG3012|
	add         x0,x8,PageOffset(|$SG3012|)
	bl          strlen
	mov         w0,w0
	mov         w2,w0
	adrp        x8,|$SG3013|
	add         x1,x8,PageOffset(|$SG3013|)
	add         x0,sp,#8
	bl          strncmp
	mov         w0,w0
	cmp         w0,#0
	bne         |$LN20@AuACPIInit|

; 182  : 			AuTextOut("acpi slit supported \n");

	adrp        x8,|$SG3014|
	add         x0,x8,PageOffset(|$SG3014|)
	bl          AuTextOut

; 183  : 		}

	b           |$LN21@AuACPIInit|
|$LN20@AuACPIInit|

; 184  : 		else if (!strncmp(sig, ACPI_SIG_MCFG, strlen(ACPI_SIG_MCFG))) {

	adrp        x8,|$SG3017|
	add         x0,x8,PageOffset(|$SG3017|)
	bl          strlen
	mov         w0,w0
	mov         w2,w0
	adrp        x8,|$SG3018|
	add         x1,x8,PageOffset(|$SG3018|)
	add         x0,sp,#8
	bl          strncmp
	mov         w0,w0
	cmp         w0,#0
	bne         |$LN22@AuACPIInit|

; 185  : 			AuTextOut("acpi mcfg supported \n");

	adrp        x8,|$SG3019|
	add         x0,x8,PageOffset(|$SG3019|)
	bl          AuTextOut

; 186  : 			__AuroraBasicAcpi->mcfg = (acpiMcfg*)header;

	adrp        x8,__AuroraBasicAcpi
	ldr         x8,[x8,PageOffset(__AuroraBasicAcpi)]
	add         x9,x8,#0x21
	ldr         x8,[sp,#0x20]
	str         x8,[x9]

; 187  : 			__PCIESupported = true;

	adrp        x9,__PCIESupported
	mov         w8,#1
	strb        w8,[x9,PageOffset(__PCIESupported)]

; 188  : 		}

	b           |$LN23@AuACPIInit|
|$LN22@AuACPIInit|

; 189  : 		else if (!strncmp(sig, ACPI_SIG_HPET, strlen(ACPI_SIG_HPET))) {

	adrp        x8,|$SG3022|
	add         x0,x8,PageOffset(|$SG3022|)
	bl          strlen
	mov         w0,w0
	mov         w2,w0
	adrp        x8,|$SG3023|
	add         x1,x8,PageOffset(|$SG3023|)
	add         x0,sp,#8
	bl          strncmp
	mov         w0,w0
	cmp         w0,#0
	bne         |$LN24@AuACPIInit|

; 190  : 			AuTextOut("acpi hpet supported \n");

	adrp        x8,|$SG3024|
	add         x0,x8,PageOffset(|$SG3024|)
	bl          AuTextOut

; 191  : 		}

	b           |$LN25@AuACPIInit|
|$LN24@AuACPIInit|

; 192  : 		else if (!strncmp(sig, ACPI_SIG_MCHI, strlen(ACPI_SIG_MCHI))) {

	adrp        x8,|$SG3026|
	add         x0,x8,PageOffset(|$SG3026|)
	bl          strlen
	mov         w0,w0
	mov         w2,w0
	adrp        x8,|$SG3027|
	add         x1,x8,PageOffset(|$SG3027|)
	add         x0,sp,#8
	bl          strncmp
	mov         w0,w0
	cmp         w0,#0
	bne         |$LN26@AuACPIInit|

; 193  : 			AuTextOut("acpi management controller host interface supported\n");

	adrp        x8,|$SG3028|
	add         x0,x8,PageOffset(|$SG3028|)
	bl          AuTextOut
|$LN26@AuACPIInit|
|$LN25@AuACPIInit|
|$LN23@AuACPIInit|
|$LN21@AuACPIInit|
|$LN19@AuACPIInit|
|$LN17@AuACPIInit|
|$LN15@AuACPIInit|

; 194  : 		}
; 195  : 	}

	b           |$LN5@AuACPIInit|
|$LN6@AuACPIInit|

; 196  : 
; 197  : 	if (__AuroraBasicAcpi->fadt && __AuroraBasicAcpi->fadt->facsAddr)

	adrp        x8,__AuroraBasicAcpi
	ldr         x8,[x8,PageOffset(__AuroraBasicAcpi)]
	add         x8,x8,#9
	ldr         x8,[x8]
	cmp         x8,#0
	beq         |$LN27@AuACPIInit|
	adrp        x8,__AuroraBasicAcpi
	ldr         x8,[x8,PageOffset(__AuroraBasicAcpi)]
	add         x8,x8,#9
	ldr         x8,[x8]
	add         x8,x8,#0x24
	ldr         w8,[x8]
	cmp         w8,#0
	beq         |$LN27@AuACPIInit|

; 198  : 		__AuroraBasicAcpi->facs = (acpiFacs*)__AuroraBasicAcpi->fadt->facsAddr;

	adrp        x8,__AuroraBasicAcpi
	ldr         x8,[x8,PageOffset(__AuroraBasicAcpi)]
	add         x8,x8,#9
	ldr         x8,[x8]
	add         x8,x8,#0x24
	ldr         w8,[x8]
	uxtw        x9,w8
	adrp        x8,__AuroraBasicAcpi
	ldr         x8,[x8,PageOffset(__AuroraBasicAcpi)]
	add         x8,x8,#0x11
	str         x9,[x8]
|$LN27@AuACPIInit|

; 199  : 
; 200  : 	if (__AuroraBasicAcpi->fadt && __AuroraBasicAcpi->fadt->dsdtAddr) {

	adrp        x8,__AuroraBasicAcpi
	ldr         x8,[x8,PageOffset(__AuroraBasicAcpi)]
	add         x8,x8,#9
	ldr         x8,[x8]
	cmp         x8,#0
	beq         |$LN28@AuACPIInit|
	adrp        x8,__AuroraBasicAcpi
	ldr         x8,[x8,PageOffset(__AuroraBasicAcpi)]
	add         x8,x8,#9
	ldr         x8,[x8]
	add         x8,x8,#0x28
	ldr         w8,[x8]
	cmp         w8,#0
	beq         |$LN28@AuACPIInit|

; 201  : 		__AuroraBasicAcpi->dsdt = (acpiDsdt*)__AuroraBasicAcpi->fadt->dsdtAddr;

	adrp        x8,__AuroraBasicAcpi
	ldr         x8,[x8,PageOffset(__AuroraBasicAcpi)]
	add         x8,x8,#9
	ldr         x8,[x8]
	add         x8,x8,#0x28
	ldr         w8,[x8]
	uxtw        x9,w8
	adrp        x8,__AuroraBasicAcpi
	ldr         x8,[x8,PageOffset(__AuroraBasicAcpi)]
	add         x8,x8,#0x19
	str         x9,[x8]

; 202  : 		//AuHalRegisterIRQ(__AuroraBasicAcpi->fadt->sciInt, AuFADTHandler, __AuroraBasicAcpi->fadt->sciInt, false);
; 203  : 
; 204  : 		uint8_t* S5Block = search_s5(__AuroraBasicAcpi->dsdt);

	adrp        x8,__AuroraBasicAcpi
	ldr         x8,[x8,PageOffset(__AuroraBasicAcpi)]
	add         x8,x8,#0x19
	ldr         x0,[x8]
	bl          search_s5
	str         x0,[sp]

; 205  : 		if (S5Block) {

	ldr         x8,[sp]
	cmp         x8,#0
	beq         |$LN29@AuACPIInit|

; 206  : 			S5Block += 4;

	ldr         x8,[sp]
	add         x8,x8,#4
	str         x8,[sp]

; 207  : 			S5Block += ((*S5Block & 0xC0) >> 6) + 2;

	ldr         x8,[sp]
	ldrb        w8,[x8]
	mov         w8,w8
	and         w8,w8,#0xC0
	asr         w8,w8,#6
	add         w8,w8,#2
	sxtw        x9,w8
	ldr         x8,[sp]
	add         x8,x8,x9
	str         x8,[sp]

; 208  : 
; 209  : 			if (*S5Block == 0x0A)

	ldr         x8,[sp]
	ldrb        w8,[x8]
	mov         w8,w8
	cmp         w8,#0xA
	bne         |$LN30@AuACPIInit|

; 210  : 				S5Block++;

	ldr         x8,[sp]
	add         x8,x8,#1
	str         x8,[sp]
|$LN30@AuACPIInit|

; 211  : 			__AuroraBasicAcpi->slp_typa = *S5Block;

	adrp        x8,__AuroraBasicAcpi
	ldr         x8,[x8,PageOffset(__AuroraBasicAcpi)]
	add         x9,x8,#0x29
	ldr         x8,[sp]
	ldrb        w8,[x8]
	mov         w8,w8
	strh        w8,[x9]

; 212  : 			S5Block++;

	ldr         x8,[sp]
	add         x8,x8,#1
	str         x8,[sp]

; 213  : 
; 214  : 			if (*S5Block == 0x0A)

	ldr         x8,[sp]
	ldrb        w8,[x8]
	mov         w8,w8
	cmp         w8,#0xA
	bne         |$LN31@AuACPIInit|

; 215  : 				S5Block++;

	ldr         x8,[sp]
	add         x8,x8,#1
	str         x8,[sp]
|$LN31@AuACPIInit|

; 216  : 
; 217  : 			__AuroraBasicAcpi->slp_typb = *S5Block;

	adrp        x8,__AuroraBasicAcpi
	ldr         x8,[x8,PageOffset(__AuroraBasicAcpi)]
	add         x9,x8,#0x2B
	ldr         x8,[sp]
	ldrb        w8,[x8]
	mov         w8,w8
	strh        w8,[x9]
|$LN29@AuACPIInit|
|$LN28@AuACPIInit|

; 218  : 
; 219  : 		}
; 220  : 	}
; 221  : 
; 222  : 	if (__AuroraBasicAcpi->madt) {

	adrp        x8,__AuroraBasicAcpi
	ldr         x8,[x8,PageOffset(__AuroraBasicAcpi)]
	add         x8,x8,#1
	ldr         x8,[x8]
	cmp         x8,#0
	beq         |$LN32@AuACPIInit|

; 223  : 		AuTextOut("ACPI Madt : %x \n", __AuroraBasicAcpi->madt);

	adrp        x8,__AuroraBasicAcpi
	ldr         x8,[x8,PageOffset(__AuroraBasicAcpi)]
	add         x8,x8,#1
	ldr         x1,[x8]
	adrp        x8,|$SG3035|
	add         x0,x8,PageOffset(|$SG3035|)
	bl          AuTextOut

; 224  : 		AuACPIParseMADT();

	bl          AuACPIParseMADT
|$LN32@AuACPIInit|
|$LN1@AuACPIInit|
	add         sp,sp,#0x50
	ldr         lr,[sp],#0x10
	ret

	ENDP  ; |AuACPIInitialise|

	END
