; Listing generated by Microsoft (R) Optimizing Compiler Version 19.29.30159.0 

	TTL	C:\Users\paras\source\repos\grep-name\XenevaOS\KernelAA64\ARM64\Debug\board.obj
	ARM64

	AREA	|.drectve|, DRECTVE

	EXPORT	|AuAA64BoardInitialize|
	EXPORT	|AuAA64BoardSleepUS|
	EXPORT	|AuAA64BoardSleepMS|
	EXPORT	|AuAA64BoardPowerDown|
	EXPORT	|AuAA64BoardReboot|
	IMPORT	|UARTDebugOut|
	IMPORT	|AuTextOut|
	IMPORT	|virt_power_down|
	IMPORT	|virt_power_reboot|

	AREA	|.pdata|, PDATA
|$pdata$AuAA64BoardInitialize| DCD imagerel |$LN3|
	DCD	0xa00019
	;Flags[SingleProEpi] functionLength[24] RegF[0] RegI[0] H[0] frameChainReturn[UnChainedSavedLR] frameSize[16]
|$pdata$AuAA64BoardSleepUS| DCD imagerel |$LN3|
	DCD	0x800011
	;Flags[SingleProEpi] functionLength[16] RegF[0] RegI[0] H[0] frameChainReturn[UnChained] frameSize[16]
|$pdata$AuAA64BoardSleepMS| DCD imagerel |$LN3|
	DCD	0x800011
	;Flags[SingleProEpi] functionLength[16] RegF[0] RegI[0] H[0] frameChainReturn[UnChained] frameSize[16]
|$pdata$AuAA64BoardPowerDown| DCD imagerel |$LN4|
	DCD	0xa00021
	;Flags[SingleProEpi] functionLength[32] RegF[0] RegI[0] H[0] frameChainReturn[UnChainedSavedLR] frameSize[16]
|$pdata$AuAA64BoardReboot| DCD imagerel |$LN4|
	DCD	0xa00021
	;Flags[SingleProEpi] functionLength[32] RegF[0] RegI[0] H[0] frameChainReturn[UnChainedSavedLR] frameSize[16]

	AREA	|.data|, DATA
|$SG2547| DCB	"[aurora]: initializing board data ", 0xd, 0xa, 0x0
	%	3
|$SG2555| DCB	"[aurora]: shutting down your system ", 0xd, 0xa, 0x0
	%	1
|$SG2557| DCB	"[aurora]: restarting your system ", 0xd, 0xa, 0x0
; Function compile flags: /Odtpy
; File C:\Users\paras\source\repos\grep-name\XenevaOS\KernelAA64\Board\board.c

	AREA	|.text$mn|, CODE, ARM64

|AuAA64BoardReboot| PROC

; 93   : void AuAA64BoardReboot() {

|$LN4|
	str         lr,[sp,#-0x10]!

; 94   : #ifdef __TARGET_BOARD_QEMU_VIRT__
; 95   : 	UARTDebugOut("[aurora]: restarting your system \r\n");

	adrp        x8,|$SG2557|
	add         x0,x8,PageOffset(|$SG2557|)
	bl          UARTDebugOut

; 96   : 	virt_power_reboot(0x84000009);

	ldr         x0,|$LN3@AuAA64Boar|
	bl          virt_power_reboot
	ldr         lr,[sp],#0x10
	ret
|$LN3@AuAA64Boar|
	DCQ         0x84000009

	ENDP  ; |AuAA64BoardReboot|

; Function compile flags: /Odtpy
; File C:\Users\paras\source\repos\grep-name\XenevaOS\KernelAA64\Board\board.c

	AREA	|.text$mn|, CODE, ARM64

|AuAA64BoardPowerDown| PROC

; 83   : void AuAA64BoardPowerDown() {

|$LN4|
	str         lr,[sp,#-0x10]!

; 84   : #ifdef __TARGET_BOARD_QEMU_VIRT__
; 85   : 	UARTDebugOut("[aurora]: shutting down your system \r\n");

	adrp        x8,|$SG2555|
	add         x0,x8,PageOffset(|$SG2555|)
	bl          UARTDebugOut

; 86   : 	virt_power_down(0x84000008);

	ldr         x0,|$LN3@AuAA64Boar|
	bl          virt_power_down
	ldr         lr,[sp],#0x10
	ret
|$LN3@AuAA64Boar|
	DCQ         0x84000008

	ENDP  ; |AuAA64BoardPowerDown|

; Function compile flags: /Odtpy
; File C:\Users\paras\source\repos\grep-name\XenevaOS\KernelAA64\Board\board.c

	AREA	|.text$mn|, CODE, ARM64

|AuAA64BoardSleepMS| PROC

; 74   : void AuAA64BoardSleepMS(uint32_t ms) {

|$LN3|
	sub         sp,sp,#0x10
	str         w0,[sp]
	add         sp,sp,#0x10
	ret

	ENDP  ; |AuAA64BoardSleepMS|

; Function compile flags: /Odtpy
; File C:\Users\paras\source\repos\grep-name\XenevaOS\KernelAA64\Board\board.c

	AREA	|.text$mn|, CODE, ARM64

|AuAA64BoardSleepUS| PROC

; 64   : void AuAA64BoardSleepUS(uint32_t us) {

|$LN3|
	sub         sp,sp,#0x10
	str         w0,[sp]
	add         sp,sp,#0x10
	ret

	ENDP  ; |AuAA64BoardSleepUS|

; Function compile flags: /Odtpy
; File C:\Users\paras\source\repos\grep-name\XenevaOS\KernelAA64\Board\board.c

	AREA	|.text$mn|, CODE, ARM64

|AuAA64BoardInitialize| PROC

; 50   : void AuAA64BoardInitialize() {

|$LN3|
	str         lr,[sp,#-0x10]!

; 51   : 	AuTextOut("[aurora]: initializing board data \r\n");

	adrp        x8,|$SG2547|
	add         x0,x8,PageOffset(|$SG2547|)
	bl          AuTextOut
	ldr         lr,[sp],#0x10
	ret

	ENDP  ; |AuAA64BoardInitialize|

	END
