; Listing generated by Microsoft (R) Optimizing Compiler Version 19.29.30159.0 

	TTL	C:\Users\paras\source\repos\grep-name\XenevaOS\KernelAA64\ARM64\Debug\circbuf.obj
	ARM64

	AREA	|.drectve|, DRECTVE

	EXPORT	|AuAdvancePointer|
	EXPORT	|AuRetreatPointer|
	EXPORT	|AuCircBufReset|
	EXPORT	|AuCircBufInitialise|
	EXPORT	|AuCircBufFree|
	EXPORT	|AuCircBufSize|
	EXPORT	|AuCircBufCapacity|
	EXPORT	|AuCircBufPutData|
	EXPORT	|AuCircBufPut|
	EXPORT	|AuCircBufGet|
	EXPORT	|CircBufEmpty|
	EXPORT	|CircBufFull|
	IMPORT	|kmalloc|
	IMPORT	|kfree|

	AREA	|.pdata|, PDATA
|$pdata$AuAdvancePointer| DCD imagerel |$LN8|
	DCD	0x8000e9
	;Flags[SingleProEpi] functionLength[232] RegF[0] RegI[0] H[0] frameChainReturn[UnChained] frameSize[16]
|$pdata$AuRetreatPointer| DCD imagerel |$LN4|
	DCD	0x80005d
	;Flags[SingleProEpi] functionLength[92] RegF[0] RegI[0] H[0] frameChainReturn[UnChained] frameSize[16]
|$pdata$AuCircBufReset| DCD imagerel |$LN3|
	DCD	0x800041
	;Flags[SingleProEpi] functionLength[64] RegF[0] RegI[0] H[0] frameChainReturn[UnChained] frameSize[16]
|$pdata$AuCircBufInitialise| DCD imagerel |$LN3|
	DCD	0x1a00051
	;Flags[SingleProEpi] functionLength[80] RegF[0] RegI[0] H[0] frameChainReturn[UnChainedSavedLR] frameSize[48]
|$pdata$AuCircBufFree| DCD imagerel |$LN3|
	DCD	0x1200021
	;Flags[SingleProEpi] functionLength[32] RegF[0] RegI[0] H[0] frameChainReturn[UnChainedSavedLR] frameSize[32]
|$pdata$AuCircBufSize| DCD imagerel |$LN6|
	DCD	0x8000b1
	;Flags[SingleProEpi] functionLength[176] RegF[0] RegI[0] H[0] frameChainReturn[UnChained] frameSize[16]
|$pdata$AuCircBufCapacity| DCD imagerel |$LN3|
	DCD	0x80001d
	;Flags[SingleProEpi] functionLength[28] RegF[0] RegI[0] H[0] frameChainReturn[UnChained] frameSize[16]
|$pdata$AuCircBufPutData| DCD imagerel |$LN3|
	DCD	0x1200051
	;Flags[SingleProEpi] functionLength[80] RegF[0] RegI[0] H[0] frameChainReturn[UnChainedSavedLR] frameSize[32]
|$pdata$AuCircBufPut| DCD imagerel |$LN4|
	DCD	0x120007d
	;Flags[SingleProEpi] functionLength[124] RegF[0] RegI[0] H[0] frameChainReturn[UnChainedSavedLR] frameSize[32]
|$pdata$AuCircBufGet| DCD imagerel |$LN4|
	DCD	0x1a0007d
	;Flags[SingleProEpi] functionLength[124] RegF[0] RegI[0] H[0] frameChainReturn[UnChainedSavedLR] frameSize[48]
|$pdata$CircBufEmpty| DCD imagerel |$LN5|
	DCD	0x800069
	;Flags[SingleProEpi] functionLength[104] RegF[0] RegI[0] H[0] frameChainReturn[UnChained] frameSize[16]
|$pdata$CircBufFull| DCD imagerel |$LN3|
	DCD	0x80001d
	;Flags[SingleProEpi] functionLength[28] RegF[0] RegI[0] H[0] frameChainReturn[UnChained] frameSize[16]
; Function compile flags: /Odtpy
; File C:\Users\paras\source\repos\grep-name\XenevaOS\KernelAA64\circbuf.c

	AREA	|.text$mn|, CODE, ARM64

|CircBufFull| PROC

; 179  : {

|$LN3|
	sub         sp,sp,#0x10
	str         x0,[sp]

; 180  : 	return cbuf->full;

	ldr         x8,[sp]
	add         x8,x8,#0x20
	ldrb        w0,[x8]
	add         sp,sp,#0x10
	ret

	ENDP  ; |CircBufFull|

; Function compile flags: /Odtpy
; File C:\Users\paras\source\repos\grep-name\XenevaOS\KernelAA64\circbuf.c

	AREA	|.text$mn|, CODE, ARM64

|CircBufEmpty| PROC

; 168  : {

|$LN5|
	sub         sp,sp,#0x10
	str         x0,[sp,#8]

; 169  : 	return (!cbuf->full && (cbuf->head == cbuf->tail));

	ldr         x8,[sp,#8]
	add         x8,x8,#0x20
	ldrb        w8,[x8]
	mov         w8,w8
	cmp         w8,#0
	bne         |$LN3@CircBufEmp|
	ldr         x8,[sp,#8]
	add         x10,x8,#8
	ldr         x8,[sp,#8]
	add         x8,x8,#0x10
	ldr         x9,[x8]
	ldr         x8,[x10]
	cmp         x8,x9
	bne         |$LN3@CircBufEmp|
	mov         w8,#1
	str         w8,[sp]
	b           |$LN4@CircBufEmp|
|$LN3@CircBufEmp|
	mov         w8,#0
	str         w8,[sp]
|$LN4@CircBufEmp|
	ldr         w8,[sp]
	uxtb        w0,w8
	mov         w0,w0
	add         sp,sp,#0x10
	ret

	ENDP  ; |CircBufEmpty|

; Function compile flags: /Odtpy
; File C:\Users\paras\source\repos\grep-name\XenevaOS\KernelAA64\circbuf.c

	AREA	|.text$mn|, CODE, ARM64

|AuCircBufGet| PROC

; 150  : {

|$LN4|
	str         lr,[sp,#-0x10]!
	sub         sp,sp,#0x20
	str         x0,[sp,#8]
	str         x1,[sp,#0x10]

; 151  : 	int r = -1;

	mov         w8,#-1
	str         w8,[sp]

; 152  : 
; 153  : 	if (!CircBufEmpty(cbuf)) {

	ldr         x0,[sp,#8]
	bl          CircBufEmpty
	uxtb        w8,w0
	mov         w8,w8
	cmp         w8,#0
	bne         |$LN2@AuCircBufG|

; 154  : 		*data = cbuf->buffer[cbuf->tail];

	ldr         x10,[sp,#8]
	ldr         x8,[sp,#8]
	add         x8,x8,#0x10
	ldr         x9,[x8]
	mov         x8,#1
	mul         x9,x9,x8
	ldr         x8,[x10]
	add         x8,x8,x9
	ldr         x9,[sp,#0x10]
	ldrb        w8,[x8]
	strb        w8,[x9]

; 155  : 		AuRetreatPointer(cbuf);

	ldr         x0,[sp,#8]
	bl          AuRetreatPointer

; 156  : 		r = 0;

	mov         w8,#0
	str         w8,[sp]
|$LN2@AuCircBufG|

; 157  : 	}
; 158  : 	return r;

	ldr         w0,[sp]
	add         sp,sp,#0x20
	ldr         lr,[sp],#0x10
	ret

	ENDP  ; |AuCircBufGet|

; Function compile flags: /Odtpy
; File C:\Users\paras\source\repos\grep-name\XenevaOS\KernelAA64\circbuf.c

	AREA	|.text$mn|, CODE, ARM64

|AuCircBufPut| PROC

; 131  : int AuCircBufPut(CircBuffer* cbuf, uint8_t data) {

|$LN4|
	str         lr,[sp,#-0x10]!
	sub         sp,sp,#0x10
	str         x0,[sp,#8]
	uxtb        w8,w1
	strb        w8,[sp]

; 132  : 	int r = -1;

	mov         w8,#-1
	str         w8,[sp,#4]

; 133  : 	if (!CircBufFull(cbuf)) {

	ldr         x0,[sp,#8]
	bl          CircBufFull
	uxtb        w8,w0
	mov         w8,w8
	cmp         w8,#0
	bne         |$LN2@AuCircBufP|

; 134  : 		cbuf->buffer[cbuf->head] = data;

	ldr         x10,[sp,#8]
	ldr         x8,[sp,#8]
	add         x8,x8,#8
	ldr         x9,[x8]
	mov         x8,#1
	mul         x9,x9,x8
	ldr         x8,[x10]
	add         x9,x8,x9
	ldrb        w8,[sp]
	strb        w8,[x9]

; 135  : 		AuAdvancePointer(cbuf);

	ldr         x0,[sp,#8]
	bl          AuAdvancePointer

; 136  : 		r = 0;

	mov         w8,#0
	str         w8,[sp,#4]
|$LN2@AuCircBufP|

; 137  : 	}
; 138  : 
; 139  : 	return r;

	ldr         w0,[sp,#4]
	add         sp,sp,#0x10
	ldr         lr,[sp],#0x10
	ret

	ENDP  ; |AuCircBufPut|

; Function compile flags: /Odtpy
; File C:\Users\paras\source\repos\grep-name\XenevaOS\KernelAA64\circbuf.c

	AREA	|.text$mn|, CODE, ARM64

|AuCircBufPutData| PROC

; 121  : void AuCircBufPutData(CircBuffer* cbuf, uint8_t data) {

|$LN3|
	str         lr,[sp,#-0x10]!
	sub         sp,sp,#0x10
	str         x0,[sp,#8]
	uxtb        w8,w1
	strb        w8,[sp]

; 122  : 	cbuf->buffer[cbuf->head] = data;

	ldr         x10,[sp,#8]
	ldr         x8,[sp,#8]
	add         x8,x8,#8
	ldr         x9,[x8]
	mov         x8,#1
	mul         x9,x9,x8
	ldr         x8,[x10]
	add         x9,x8,x9
	ldrb        w8,[sp]
	strb        w8,[x9]

; 123  : 	AuAdvancePointer(cbuf);

	ldr         x0,[sp,#8]
	bl          AuAdvancePointer
	add         sp,sp,#0x10
	ldr         lr,[sp],#0x10
	ret

	ENDP  ; |AuCircBufPutData|

; Function compile flags: /Odtpy
; File C:\Users\paras\source\repos\grep-name\XenevaOS\KernelAA64\circbuf.c

	AREA	|.text$mn|, CODE, ARM64

|AuCircBufCapacity| PROC

; 112  : size_t AuCircBufCapacity(CircBuffer* cbuf) {

|$LN3|
	sub         sp,sp,#0x10
	str         x0,[sp]

; 113  : 	return cbuf->max;

	ldr         x8,[sp]
	add         x8,x8,#0x18
	ldr         x0,[x8]
	add         sp,sp,#0x10
	ret

	ENDP  ; |AuCircBufCapacity|

; Function compile flags: /Odtpy
; File C:\Users\paras\source\repos\grep-name\XenevaOS\KernelAA64\circbuf.c

	AREA	|.text$mn|, CODE, ARM64

|AuCircBufSize| PROC

; 96   : size_t AuCircBufSize(CircBuffer* cbuf) {

|$LN6|
	sub         sp,sp,#0x10
	str         x0,[sp]

; 97   : 	size_t sz = cbuf->max;

	ldr         x8,[sp]
	add         x8,x8,#0x18
	ldr         x8,[x8]
	str         x8,[sp,#8]

; 98   : 
; 99   : 	if (!cbuf->full) {

	ldr         x8,[sp]
	add         x8,x8,#0x20
	ldrb        w8,[x8]
	mov         w8,w8
	cmp         w8,#0
	bne         |$LN2@AuCircBufS|

; 100  : 		if (cbuf->head >= cbuf->tail)

	ldr         x8,[sp]
	add         x10,x8,#8
	ldr         x8,[sp]
	add         x8,x8,#0x10
	ldr         x9,[x8]
	ldr         x8,[x10]
	cmp         x8,x9
	blo         |$LN3@AuCircBufS|

; 101  : 			sz = (cbuf->head - cbuf->tail);

	ldr         x8,[sp]
	add         x9,x8,#8
	ldr         x8,[sp]
	add         x8,x8,#0x10
	ldr         x9,[x9]
	ldr         x8,[x8]
	sub         x8,x9,x8
	str         x8,[sp,#8]
	b           |$LN4@AuCircBufS|
|$LN3@AuCircBufS|

; 102  : 		else
; 103  : 			sz = (cbuf->max + cbuf->head - cbuf->tail);

	ldr         x8,[sp]
	add         x9,x8,#0x18
	ldr         x8,[sp]
	add         x8,x8,#8
	ldr         x9,[x9]
	ldr         x8,[x8]
	add         x9,x9,x8
	ldr         x8,[sp]
	add         x8,x8,#0x10
	ldr         x8,[x8]
	sub         x8,x9,x8
	str         x8,[sp,#8]
|$LN4@AuCircBufS|
|$LN2@AuCircBufS|

; 104  : 	}
; 105  : 	return sz;

	ldr         x0,[sp,#8]
	add         sp,sp,#0x10
	ret

	ENDP  ; |AuCircBufSize|

; Function compile flags: /Odtpy
; File C:\Users\paras\source\repos\grep-name\XenevaOS\KernelAA64\circbuf.c

	AREA	|.text$mn|, CODE, ARM64

|AuCircBufFree| PROC

; 86   : void AuCircBufFree(CircBuffer* cbuf) {

|$LN3|
	str         lr,[sp,#-0x10]!
	sub         sp,sp,#0x10
	str         x0,[sp]

; 87   : 	kfree(cbuf);

	ldr         x0,[sp]
	bl          kfree
	add         sp,sp,#0x10
	ldr         lr,[sp],#0x10
	ret

	ENDP  ; |AuCircBufFree|

; Function compile flags: /Odtpy
; File C:\Users\paras\source\repos\grep-name\XenevaOS\KernelAA64\circbuf.c

	AREA	|.text$mn|, CODE, ARM64

|AuCircBufInitialise| PROC

; 73   : CircBuffer* AuCircBufInitialise(uint8_t* buffer, size_t sz) {

|$LN3|
	str         lr,[sp,#-0x10]!
	sub         sp,sp,#0x20
	str         x0,[sp,#8]
	str         x1,[sp,#0x10]

; 74   : 	CircBuffer* cbuf = (CircBuffer*)kmalloc(sizeof(CircBuffer));

	mov         w0,#0x28
	bl          kmalloc
	str         x0,[sp]

; 75   : 	cbuf->buffer = buffer;

	ldr         x9,[sp]
	ldr         x8,[sp,#8]
	str         x8,[x9]

; 76   : 	cbuf->max = sz;

	ldr         x8,[sp]
	add         x9,x8,#0x18
	ldr         x8,[sp,#0x10]
	str         x8,[x9]

; 77   : 	AuCircBufReset(cbuf);

	ldr         x0,[sp]
	bl          AuCircBufReset

; 78   : 	return cbuf;

	ldr         x0,[sp]
	add         sp,sp,#0x20
	ldr         lr,[sp],#0x10
	ret

	ENDP  ; |AuCircBufInitialise|

; Function compile flags: /Odtpy
; File C:\Users\paras\source\repos\grep-name\XenevaOS\KernelAA64\circbuf.c

	AREA	|.text$mn|, CODE, ARM64

|AuCircBufReset| PROC

; 62   : void AuCircBufReset(CircBuffer* cbuf) {

|$LN3|
	sub         sp,sp,#0x10
	str         x0,[sp]

; 63   : 	cbuf->head = 0;

	ldr         x8,[sp]
	add         x9,x8,#8
	mov         x8,#0
	str         x8,[x9]

; 64   : 	cbuf->tail = 0;

	ldr         x8,[sp]
	add         x9,x8,#0x10
	mov         x8,#0
	str         x8,[x9]

; 65   : 	cbuf->full = false;

	ldr         x8,[sp]
	add         x9,x8,#0x20
	mov         w8,#0
	strb        w8,[x9]
	add         sp,sp,#0x10
	ret

	ENDP  ; |AuCircBufReset|

; Function compile flags: /Odtpy
; File C:\Users\paras\source\repos\grep-name\XenevaOS\KernelAA64\circbuf.c

	AREA	|.text$mn|, CODE, ARM64

|AuRetreatPointer| PROC

; 53   : void AuRetreatPointer(CircBuffer* cbuf) {

|$LN4|
	sub         sp,sp,#0x10
	str         x0,[sp]

; 54   : 	cbuf->full = false;

	ldr         x8,[sp]
	add         x9,x8,#0x20
	mov         w8,#0
	strb        w8,[x9]

; 55   : 	cbuf->tail = (cbuf->tail + 1) % cbuf->max;

	ldr         x8,[sp]
	add         x8,x8,#0x10
	ldr         x8,[x8]
	add         x10,x8,#1
	ldr         x8,[sp]
	add         x8,x8,#0x18
	ldr         x9,[x8]
	cbnz        x9,|$LN3@AuRetreatP|
	brk         #0xF004
|$LN3@AuRetreatP|
	udiv        x8,x10,x9
	mul         x8,x8,x9
	sub         x9,x10,x8
	ldr         x8,[sp]
	add         x8,x8,#0x10
	str         x9,[x8]
	add         sp,sp,#0x10
	ret

	ENDP  ; |AuRetreatPointer|

; Function compile flags: /Odtpy
; File C:\Users\paras\source\repos\grep-name\XenevaOS\KernelAA64\circbuf.c

	AREA	|.text$mn|, CODE, ARM64

|AuAdvancePointer| PROC

; 40   : void AuAdvancePointer(CircBuffer* cbuf) {

|$LN8|
	sub         sp,sp,#0x10
	str         x0,[sp,#8]

; 41   : 	if (cbuf->full)

	ldr         x8,[sp,#8]
	add         x8,x8,#0x20
	ldrb        w8,[x8]
	mov         w8,w8
	cmp         w8,#0
	beq         |$LN2@AuAdvanceP|

; 42   : 		cbuf->tail = (cbuf->tail + 1) % cbuf->max;

	ldr         x8,[sp,#8]
	add         x8,x8,#0x10
	ldr         x8,[x8]
	add         x10,x8,#1
	ldr         x8,[sp,#8]
	add         x8,x8,#0x18
	ldr         x9,[x8]
	cbnz        x9,|$LN6@AuAdvanceP|
	brk         #0xF004
|$LN6@AuAdvanceP|
	udiv        x8,x10,x9
	mul         x8,x8,x9
	sub         x9,x10,x8
	ldr         x8,[sp,#8]
	add         x8,x8,#0x10
	str         x9,[x8]
|$LN2@AuAdvanceP|

; 43   : 
; 44   : 	cbuf->head = (cbuf->head + 1) % cbuf->max;

	ldr         x8,[sp,#8]
	add         x8,x8,#8
	ldr         x8,[x8]
	add         x10,x8,#1
	ldr         x8,[sp,#8]
	add         x8,x8,#0x18
	ldr         x9,[x8]
	cbnz        x9,|$LN7@AuAdvanceP|
	brk         #0xF004
|$LN7@AuAdvanceP|
	udiv        x8,x10,x9
	mul         x8,x8,x9
	sub         x9,x10,x8
	ldr         x8,[sp,#8]
	add         x8,x8,#8
	str         x9,[x8]

; 45   : 	cbuf->full = (cbuf->head == cbuf->tail);

	ldr         x8,[sp,#8]
	add         x10,x8,#8
	ldr         x8,[sp,#8]
	add         x8,x8,#0x10
	ldr         x9,[x8]
	ldr         x8,[x10]
	cmp         x8,x9
	bne         |$LN4@AuAdvanceP|
	mov         w8,#1
	str         w8,[sp]
	b           |$LN5@AuAdvanceP|
|$LN4@AuAdvanceP|
	mov         w8,#0
	str         w8,[sp]
|$LN5@AuAdvanceP|
	ldr         x8,[sp,#8]
	add         x9,x8,#0x20
	ldr         w8,[sp]
	uxtb        w8,w8
	strb        w8,[x9]
	add         sp,sp,#0x10
	ret

	ENDP  ; |AuAdvancePointer|

	END
