; Listing generated by Microsoft (R) Optimizing Compiler Version 19.29.30159.0 

	TTL	C:\Users\paras\source\repos\grep-name\XenevaOS\KernelAA64\ARM64\Debug\clean.obj
	ARM64

	AREA	|.drectve|, DRECTVE

	EXPORT	|AuProcessClean|
	EXPORT	|AuCleanMMap|
	EXPORT	|AuCleanHeapMem|
	EXPORT	|AuCleanUserStack|
	EXPORT	|AuCleanKernelStack|
	IMPORT	|AuThreadCleanTrash|
	IMPORT	|AuRemoveProcess|
	IMPORT	|UARTDebugOut|
	IMPORT	|AuGetPhysicalAddress|
	IMPORT	|AuGetPhysicalAddressEx|
	IMPORT	|AuPmmngrFree|
	IMPORT	|AuPmmngrGetFreeMem|
	IMPORT	|AuPmmngrGetUsedMem|
	IMPORT	|AuPmmngrGetTotalMem|
	IMPORT	|AuPmmngrGetPageDesc|
	IMPORT	|kfree|

	AREA	|.pdata|, PDATA
|$pdata$AuProcessClean| DCD imagerel |$LN37|
	DCD	0x5a00501
	;Flags[SingleProEpi] functionLength[1280] RegF[0] RegI[0] H[0] frameChainReturn[UnChainedSavedLR] frameSize[176]
|$pdata$AuCleanMMap| DCD imagerel |$LN8|
	DCD	0x1a000c9
	;Flags[SingleProEpi] functionLength[200] RegF[0] RegI[0] H[0] frameChainReturn[UnChainedSavedLR] frameSize[48]
|$pdata$AuCleanHeapMem| DCD imagerel |$LN8|
	DCD	0x1a000c9
	;Flags[SingleProEpi] functionLength[200] RegF[0] RegI[0] H[0] frameChainReturn[UnChainedSavedLR] frameSize[48]
|$pdata$AuCleanUserStack| DCD imagerel |$LN8|
	DCD	0x22000c9
	;Flags[SingleProEpi] functionLength[200] RegF[0] RegI[0] H[0] frameChainReturn[UnChainedSavedLR] frameSize[64]
|$pdata$AuCleanKernelStack| DCD imagerel |$LN8|
	DCD	0x22000c1
	;Flags[SingleProEpi] functionLength[192] RegF[0] RegI[0] H[0] frameChainReturn[UnChainedSavedLR] frameSize[64]

	AREA	|.data|, DATA
|$SG3210| DCB	"stack location : %x ", 0xd, 0xa, 0x0
	%	1
|$SG3228| DCB	"kstack location to clean: %x ", 0xd, 0xa, 0x0
|$SG3273| DCB	"[aurora-clean]: killing process : %s ", 0xd, 0xa, 0x0
|$SG3293| DCB	"[aurora-clean]: process cleaned successfully ", 0xd, 0xa
	DCB	0x0
|$SG3294| DCB	"total mem : %d mb, used mem : %d mb , free mem : %d mb", 0xd
	DCB	0xa, 0x0
; Function compile flags: /Odtpy
; File C:\Users\paras\source\repos\grep-name\XenevaOS\KernelAA64\clean.c

	AREA	|.text$mn|, CODE, ARM64

|AuCleanKernelStack| PROC

; 98   : void AuCleanKernelStack(AuProcess* proc, AA64Thread *thr) {

|$LN8|
	str         lr,[sp,#-0x10]!
	sub         sp,sp,#0x30
	str         x0,[sp,#0x28]
	str         x1,[sp,#0x18]

; 99   : 	uint64_t location = (thr->originalKSp + 64) - KERNEL_STACK_SIZE;

	ldr         x8,[sp,#0x18]
	add         x8,x8,#0x100
	ldr         x8,[x8]
	add         x8,x8,#0x40
	sub         x8,x8,#0xA,lsl #0xC
	str         x8,[sp,#0x10]

; 100  : 	UARTDebugOut("kstack location to clean: %x \r\n", location);

	ldr         x1,[sp,#0x10]
	adrp        x8,|$SG3228|
	add         x0,x8,PageOffset(|$SG3228|)
	bl          UARTDebugOut

; 101  : 	for (int i = 0; i < KERNEL_STACK_SIZE / 0x1000; i++) {

	mov         w8,#0
	str         w8,[sp]
	b           |$LN4@AuCleanKer|
|$LN2@AuCleanKer|
	ldr         w8,[sp]
	add         w8,w8,#1
	str         w8,[sp]
|$LN4@AuCleanKer|
	ldr         w8,[sp]
	cmp         w8,#0xA
	bge         |$LN3@AuCleanKer|

; 102  : 		uint64_t phys = (uint64_t)AuGetPhysicalAddress(location + i * 0x1000);

	ldr         w9,[sp]
	mov         w8,#0x1000
	mul         w8,w9,w8
	sxtw        x9,w8
	ldr         x8,[sp,#0x10]
	add         x0,x8,x9
	bl          AuGetPhysicalAddress
	str         x0,[sp,#8]

; 103  : 		if (phys) {

	ldr         x8,[sp,#8]
	cmp         x8,#0
	beq         |$LN5@AuCleanKer|

; 104  : 			AuPageDesc* desc = AuPmmngrGetPageDesc(phys);

	ldr         x0,[sp,#8]
	bl          AuPmmngrGetPageDesc
	str         x0,[sp,#0x20]

; 105  : 			if (desc->diskblock == -1) 

	ldr         x8,[sp,#0x20]
	add         x8,x8,#0x20
	ldr         x8,[x8]
	cmn         x8,#1
	bne         |$LN6@AuCleanKer|

; 106  : 				AuPmmngrFree((void*)phys);

	ldr         x0,[sp,#8]
	bl          AuPmmngrFree
|$LN6@AuCleanKer|
|$LN5@AuCleanKer|

; 107  : 		}
; 108  : 	}

	b           |$LN2@AuCleanKer|
|$LN3@AuCleanKer|
	add         sp,sp,#0x30
	ldr         lr,[sp],#0x10
	ret

	ENDP  ; |AuCleanKernelStack|

; Function compile flags: /Odtpy
; File C:\Users\paras\source\repos\grep-name\XenevaOS\KernelAA64\clean.c

	AREA	|.text$mn|, CODE, ARM64

|AuCleanUserStack| PROC

; 80   : void AuCleanUserStack(AuProcess* proc, AuUserEntry* uentry) {

|$LN8|
	str         lr,[sp,#-0x10]!
	sub         sp,sp,#0x30
	str         x0,[sp,#0x20]
	str         x1,[sp,#0x18]

; 81   : 	uint64_t location = uentry->stackBase - PROCESS_USER_STACK_SZ;

	ldr         x8,[sp,#0x18]
	add         x8,x8,#0x38
	ldr         x8,[x8]
	sub         x8,x8,#0x80,lsl #0xC
	str         x8,[sp,#0x10]

; 82   : 	UARTDebugOut("stack location : %x \r\n", location);

	ldr         x1,[sp,#0x10]
	adrp        x8,|$SG3210|
	add         x0,x8,PageOffset(|$SG3210|)
	bl          UARTDebugOut

; 83   : 	for (int i = 0; i < PROCESS_USER_STACK_SZ / 0x1000; i++) {

	mov         w8,#0
	str         w8,[sp]
	b           |$LN4@AuCleanUse|
|$LN2@AuCleanUse|
	ldr         w8,[sp]
	add         w8,w8,#1
	str         w8,[sp]
|$LN4@AuCleanUse|
	ldr         w8,[sp]
	cmp         w8,#0x80
	bge         |$LN3@AuCleanUse|

; 84   : 		uint64_t phys = (uint64_t)AuGetPhysicalAddressEx(proc->cr3, location + i * 0x1000);

	ldr         w9,[sp]
	mov         w8,#0x1000
	mul         w8,w9,w8
	sxtw        x9,w8
	ldr         x8,[sp,#0x10]
	add         x1,x8,x9
	ldr         x8,[sp,#0x20]
	add         x8,x8,#0x18
	ldr         x0,[x8]
	bl          AuGetPhysicalAddressEx
	str         x0,[sp,#8]

; 85   : 		if (phys) {

	ldr         x8,[sp,#8]
	cmp         x8,#0
	beq         |$LN5@AuCleanUse|

; 86   : 			AuPageDesc* desc = AuPmmngrGetPageDesc(phys);

	ldr         x0,[sp,#8]
	bl          AuPmmngrGetPageDesc
	str         x0,[sp,#0x28]

; 87   : 			if (desc->diskblock == -1)

	ldr         x8,[sp,#0x28]
	add         x8,x8,#0x20
	ldr         x8,[x8]
	cmn         x8,#1
	bne         |$LN6@AuCleanUse|

; 88   : 				AuPmmngrFree((void*)phys);

	ldr         x0,[sp,#8]
	bl          AuPmmngrFree
|$LN6@AuCleanUse|
|$LN5@AuCleanUse|

; 89   : 		}
; 90   : 	}

	b           |$LN2@AuCleanUse|
|$LN3@AuCleanUse|
	add         sp,sp,#0x30
	ldr         lr,[sp],#0x10
	ret

	ENDP  ; |AuCleanUserStack|

; Function compile flags: /Odtpy
; File C:\Users\paras\source\repos\grep-name\XenevaOS\KernelAA64\clean.c

	AREA	|.text$mn|, CODE, ARM64

|AuCleanHeapMem| PROC

; 63   : void AuCleanHeapMem(AuProcess* proc) {

|$LN8|
	str         lr,[sp,#-0x10]!
	sub         sp,sp,#0x20
	str         x0,[sp,#0x10]

; 64   : 	for (int i = 0; i < proc->proc_heapmem_len / 0x1000; i++) {

	mov         w8,#0
	str         w8,[sp]
	b           |$LN4@AuCleanHea|
|$LN2@AuCleanHea|
	ldr         w8,[sp]
	add         w8,w8,#1
	str         w8,[sp]
|$LN4@AuCleanHea|
	ldr         w8,[sp]
	sxtw        x10,w8
	ldr         x8,[sp,#0x10]
	add         x8,x8,#0x460
	ldr         x9,[x8]
	mov         x8,#0x1000
	udiv        x8,x9,x8
	cmp         x10,x8
	bhs         |$LN3@AuCleanHea|

; 65   : 		uint64_t phys = (uint64_t)AuGetPhysicalAddressEx(proc->cr3, PROCESS_BREAK_ADDRESS + i * 0x1000);

	ldr         w9,[sp]
	mov         w8,#0x1000
	mul         w8,w9,w8
	sxtw        x9,w8
	mov         x8,#0x3000000000
	add         x1,x9,x8
	ldr         x8,[sp,#0x10]
	add         x8,x8,#0x18
	ldr         x0,[x8]
	bl          AuGetPhysicalAddressEx
	str         x0,[sp,#8]

; 66   : 		if (phys) {

	ldr         x8,[sp,#8]
	cmp         x8,#0
	beq         |$LN5@AuCleanHea|

; 67   : 			AuPageDesc* desc = AuPmmngrGetPageDesc(phys);

	ldr         x0,[sp,#8]
	bl          AuPmmngrGetPageDesc
	str         x0,[sp,#0x18]

; 68   : 			if (desc->diskblock == -1) 

	ldr         x8,[sp,#0x18]
	add         x8,x8,#0x20
	ldr         x8,[x8]
	cmn         x8,#1
	bne         |$LN6@AuCleanHea|

; 69   : 				AuPmmngrFree((void*)phys);

	ldr         x0,[sp,#8]
	bl          AuPmmngrFree
|$LN6@AuCleanHea|
|$LN5@AuCleanHea|

; 70   : 		}
; 71   : 	}

	b           |$LN2@AuCleanHea|
|$LN3@AuCleanHea|

; 72   : 	proc->proc_heapmem_len = 0;

	ldr         x8,[sp,#0x10]
	add         x9,x8,#0x460
	mov         x8,#0
	str         x8,[x9]
	add         sp,sp,#0x20
	ldr         lr,[sp],#0x10
	ret

	ENDP  ; |AuCleanHeapMem|

; Function compile flags: /Odtpy
; File C:\Users\paras\source\repos\grep-name\XenevaOS\KernelAA64\clean.c

	AREA	|.text$mn|, CODE, ARM64

|AuCleanMMap| PROC

; 42   : void AuCleanMMap(AuProcess* proc) {

|$LN8|
	str         lr,[sp,#-0x10]!
	sub         sp,sp,#0x20
	str         x0,[sp,#0x10]

; 43   : 	for (int i = 0; i < proc->proc_mmap_len / 0x1000; i++) {

	mov         w8,#0
	str         w8,[sp]
	b           |$LN4@AuCleanMMa|
|$LN2@AuCleanMMa|
	ldr         w8,[sp]
	add         w8,w8,#1
	str         w8,[sp]
|$LN4@AuCleanMMa|
	ldr         w8,[sp]
	sxtw        x10,w8
	ldr         x8,[sp,#0x10]
	add         x8,x8,#0x468
	ldr         x9,[x8]
	mov         x8,#0x1000
	udiv        x8,x9,x8
	cmp         x10,x8
	bhs         |$LN3@AuCleanMMa|

; 44   : 		uint64_t phys = (uint64_t)AuGetPhysicalAddressEx(proc->cr3, PROCESS_MMAP_ADDRESS + i * 0x1000);

	ldr         w9,[sp]
	mov         w8,#0x1000
	mul         w8,w9,w8
	sxtw        x9,w8
	mov         x8,#0xC00000000
	add         x1,x9,x8
	ldr         x8,[sp,#0x10]
	add         x8,x8,#0x18
	ldr         x0,[x8]
	bl          AuGetPhysicalAddressEx
	str         x0,[sp,#8]

; 45   : 
; 46   : 		/* also do check, if the physical address is backed by file, 
; 47   : 		 * need to behave differently with file backed physical addresses 
; 48   : 		 */
; 49   : 		AuPageDesc* desc = AuPmmngrGetPageDesc(phys);

	ldr         x0,[sp,#8]
	bl          AuPmmngrGetPageDesc
	str         x0,[sp,#0x18]

; 50   : 		if (phys != 0) {

	ldr         x8,[sp,#8]
	cmp         x8,#0
	beq         |$LN5@AuCleanMMa|

; 51   : 			if (desc->diskblock == -1) {

	ldr         x8,[sp,#0x18]
	add         x8,x8,#0x20
	ldr         x8,[x8]
	cmn         x8,#1
	bne         |$LN6@AuCleanMMa|

; 52   : 				AuPmmngrFree((void*)phys);

	ldr         x0,[sp,#8]
	bl          AuPmmngrFree
|$LN6@AuCleanMMa|
|$LN5@AuCleanMMa|

; 53   : 			}
; 54   : 		}
; 55   : 	}

	b           |$LN2@AuCleanMMa|
|$LN3@AuCleanMMa|

; 56   : 	proc->proc_mmap_len = 0;

	ldr         x8,[sp,#0x10]
	add         x9,x8,#0x468
	mov         x8,#0
	str         x8,[x9]
	add         sp,sp,#0x20
	ldr         lr,[sp],#0x10
	ret

	ENDP  ; |AuCleanMMap|

; Function compile flags: /Odtpy
; File C:\Users\paras\source\repos\grep-name\XenevaOS\KernelAA64\clean.c

	AREA	|.text$mn|, CODE, ARM64

|AuProcessClean| PROC

; 116  : void AuProcessClean(AuProcess* parent, AuProcess* killable) {

|$LN37|
	str         lr,[sp,#-0x10]!
	sub         sp,sp,#0xA0
	str         x0,[sp,#0x78]
	str         x1,[sp]

; 117  : 	UARTDebugOut("[aurora-clean]: killing process : %s \r\n", killable->name);

	ldr         x1,[sp]
	adrp        x8,|$SG3273|
	add         x0,x8,PageOffset(|$SG3273|)
	bl          UARTDebugOut

; 118  : 	/** first clean up process_mmap areas **/
; 119  : 	AuCleanMMap(killable);

	ldr         x0,[sp]
	bl          AuCleanMMap

; 120  : 
; 121  : 	/** clean up heap areas **/
; 122  : 	AuCleanHeapMem(killable);

	ldr         x0,[sp]
	bl          AuCleanHeapMem

; 123  : 
; 124  : 	
; 125  : 
; 126  : 	/** clean up user allocated areas **/
; 127  : 
; 128  : 	/** free up each sub thread's user stack **/
; 129  : 	for (int i = 0; i < killable->num_thread; i++) {

	mov         w8,#0
	str         w8,[sp,#8]
	b           |$LN4@AuProcessC|
|$LN2@AuProcessC|
	ldr         w8,[sp,#8]
	add         w8,w8,#1
	str         w8,[sp,#8]
|$LN4@AuProcessC|
	ldr         x8,[sp]
	add         x8,x8,#0x58
	ldrb        w9,[x8]
	mov         w9,w9
	ldr         w8,[sp,#8]
	cmp         w8,w9
	bge         |$LN3@AuProcessC|

; 130  : 		AA64Thread* subthr = killable->threads[i];

	ldr         x8,[sp]
	add         x10,x8,#0x68
	ldr         w8,[sp,#8]
	sxtw        x9,w8
	mov         x8,#8
	mul         x8,x9,x8
	add         x8,x10,x8
	ldr         x8,[x8]
	str         x8,[sp,#0x38]

; 131  : 		if (subthr) {

	ldr         x8,[sp,#0x38]
	cmp         x8,#0
	beq         |$LN17@AuProcessC|

; 132  : 			if (!subthr->uentry)

	ldr         x8,[sp,#0x38]
	add         x8,x8,#0xE0
	ldr         x8,[x8]
	cmp         x8,#0
	bne         |$LN18@AuProcessC|

; 133  : 				continue;

	b           |$LN2@AuProcessC|
|$LN18@AuProcessC|

; 134  : 			AuCleanUserStack(killable, subthr->uentry);

	ldr         x8,[sp,#0x38]
	add         x8,x8,#0xE0
	ldr         x1,[x8]
	ldr         x0,[sp]
	bl          AuCleanUserStack
|$LN17@AuProcessC|

; 135  : 		}
; 136  : 	}

	b           |$LN2@AuProcessC|
|$LN3@AuProcessC|

; 137  : 	/** free up the user stack **/
; 138  : 	if (killable->main_thread) {

	ldr         x8,[sp]
	add         x8,x8,#0x50
	ldr         x8,[x8]
	cmp         x8,#0
	beq         |$LN19@AuProcessC|

; 139  : 		AuUserEntry* uentry = killable->main_thread->uentry;

	ldr         x8,[sp]
	add         x8,x8,#0x50
	ldr         x8,[x8]
	add         x8,x8,#0xE0
	ldr         x8,[x8]
	str         x8,[sp,#0x48]

; 140  : 		if (uentry) 

	ldr         x8,[sp,#0x48]
	cmp         x8,#0
	beq         |$LN20@AuProcessC|

; 141  : 			AuCleanUserStack(killable, uentry);

	ldr         x1,[sp,#0x48]
	ldr         x0,[sp]
	bl          AuCleanUserStack
|$LN20@AuProcessC|
|$LN19@AuProcessC|

; 142  : 		
; 143  : 	}
; 144  : 
; 145  : 	/** clean up the kernel stack of sub threads **/
; 146  : 	for (int i = 0; i < killable->num_thread; i++) {

	mov         w8,#0
	str         w8,[sp,#0xC]
	b           |$LN7@AuProcessC|
|$LN5@AuProcessC|
	ldr         w8,[sp,#0xC]
	add         w8,w8,#1
	str         w8,[sp,#0xC]
|$LN7@AuProcessC|
	ldr         x8,[sp]
	add         x8,x8,#0x58
	ldrb        w9,[x8]
	mov         w9,w9
	ldr         w8,[sp,#0xC]
	cmp         w8,w9
	bge         |$LN6@AuProcessC|

; 147  : 		AA64Thread* subthr = killable->threads[i];

	ldr         x8,[sp]
	add         x10,x8,#0x68
	ldr         w8,[sp,#0xC]
	sxtw        x9,w8
	mov         x8,#8
	mul         x8,x9,x8
	add         x8,x10,x8
	ldr         x8,[x8]
	str         x8,[sp,#0x50]

; 148  : 		if (subthr) {

	ldr         x8,[sp,#0x50]
	cmp         x8,#0
	beq         |$LN21@AuProcessC|

; 149  : 			AuCleanKernelStack(killable, subthr);

	ldr         x1,[sp,#0x50]
	ldr         x0,[sp]
	bl          AuCleanKernelStack
|$LN21@AuProcessC|

; 150  : 		}
; 151  : 	}

	b           |$LN5@AuProcessC|
|$LN6@AuProcessC|

; 152  : 
; 153  : 	/** free up the kernel stack of main thread **/
; 154  : 	if (killable->main_thread) 

	ldr         x8,[sp]
	add         x8,x8,#0x50
	ldr         x8,[x8]
	cmp         x8,#0
	beq         |$LN22@AuProcessC|

; 155  : 		AuCleanKernelStack(killable, killable->main_thread);

	ldr         x8,[sp]
	add         x8,x8,#0x50
	ldr         x1,[x8]
	ldr         x0,[sp]
	bl          AuCleanKernelStack
|$LN22@AuProcessC|

; 156  : 	
; 157  : 
; 158  : 	/** check for argument blocks **/
; 159  : 	AuUserEntry* uentry = killable->main_thread->uentry;

	ldr         x8,[sp]
	add         x8,x8,#0x50
	ldr         x8,[x8]
	add         x8,x8,#0xE0
	ldr         x8,[x8]
	str         x8,[sp,#0x20]

; 160  : 	if (uentry) {

	ldr         x8,[sp,#0x20]
	cmp         x8,#0
	beq         |$LN23@AuProcessC|

; 161  : 		if (uentry->argvaddr != 0) {

	ldr         x8,[sp,#0x20]
	add         x8,x8,#0x28
	ldr         x8,[x8]
	cmp         x8,#0
	beq         |$LN24@AuProcessC|

; 162  : 			void* phys = AuGetPhysicalAddressEx(killable->cr3, uentry->argvaddr);

	ldr         x8,[sp,#0x20]
	add         x9,x8,#0x28
	ldr         x8,[sp]
	add         x8,x8,#0x18
	ldr         x1,[x9]
	ldr         x0,[x8]
	bl          AuGetPhysicalAddressEx
	str         x0,[sp,#0x58]

; 163  : 			if (phys) 

	ldr         x8,[sp,#0x58]
	cmp         x8,#0
	beq         |$LN25@AuProcessC|

; 164  : 				AuPmmngrFree((void*)phys);

	ldr         x0,[sp,#0x58]
	bl          AuPmmngrFree
|$LN25@AuProcessC|
|$LN24@AuProcessC|
|$LN23@AuProcessC|

; 165  : 		}
; 166  : 	}
; 167  : 
; 168  : 	/** Check for additional argument block allocated for sub threads **/
; 169  : 	for (int i = 0; i < killable->num_thread; i++) {

	mov         w8,#0
	str         w8,[sp,#0x10]
	b           |$LN10@AuProcessC|
|$LN8@AuProcessC|
	ldr         w8,[sp,#0x10]
	add         w8,w8,#1
	str         w8,[sp,#0x10]
|$LN10@AuProcessC|
	ldr         x8,[sp]
	add         x8,x8,#0x58
	ldrb        w9,[x8]
	mov         w9,w9
	ldr         w8,[sp,#0x10]
	cmp         w8,w9
	bge         |$LN9@AuProcessC|

; 170  : 		AA64Thread* subthr = killable->threads[i];

	ldr         x8,[sp]
	add         x10,x8,#0x68
	ldr         w8,[sp,#0x10]
	sxtw        x9,w8
	mov         x8,#8
	mul         x8,x9,x8
	add         x8,x10,x8
	ldr         x8,[x8]
	str         x8,[sp,#0x28]

; 171  : 		if (subthr) {

	ldr         x8,[sp,#0x28]
	cmp         x8,#0
	beq         |$LN26@AuProcessC|

; 172  : 			if (!subthr->uentry)

	ldr         x8,[sp,#0x28]
	add         x8,x8,#0xE0
	ldr         x8,[x8]
	cmp         x8,#0
	bne         |$LN27@AuProcessC|

; 173  : 				continue;

	b           |$LN8@AuProcessC|
|$LN27@AuProcessC|

; 174  : 			if (subthr->uentry->argvaddr != 0) {

	ldr         x8,[sp,#0x28]
	add         x8,x8,#0xE0
	ldr         x8,[x8]
	add         x8,x8,#0x28
	ldr         x8,[x8]
	cmp         x8,#0
	beq         |$LN28@AuProcessC|

; 175  : 				void* phys = AuGetPhysicalAddressEx(killable->cr3, subthr->uentry->argvaddr);

	ldr         x8,[sp,#0x28]
	add         x8,x8,#0xE0
	ldr         x8,[x8]
	add         x9,x8,#0x28
	ldr         x8,[sp]
	add         x8,x8,#0x18
	ldr         x1,[x9]
	ldr         x0,[x8]
	bl          AuGetPhysicalAddressEx
	str         x0,[sp,#0x60]

; 176  : 				if (phys) 

	ldr         x8,[sp,#0x60]
	cmp         x8,#0
	beq         |$LN29@AuProcessC|

; 177  : 					AuPmmngrFree((void*)phys);

	ldr         x0,[sp,#0x60]
	bl          AuPmmngrFree
|$LN29@AuProcessC|
|$LN28@AuProcessC|
|$LN26@AuProcessC|

; 178  : 			}
; 179  : 		}
; 180  : 	}

	b           |$LN8@AuProcessC|
|$LN9@AuProcessC|

; 181  : 
; 182  : 	/** free up environment block **/
; 183  : 	void* envBlock = AuGetPhysicalAddressEx(killable->cr3, 0x5000);

	ldr         x8,[sp]
	add         x8,x8,#0x18
	mov         x1,#0x5000
	ldr         x0,[x8]
	bl          AuGetPhysicalAddressEx
	str         x0,[sp,#0x68]

; 184  : 	if (envBlock) 

	ldr         x8,[sp,#0x68]
	cmp         x8,#0
	beq         |$LN30@AuProcessC|

; 185  : 		AuPmmngrFree((void*)envBlock);

	ldr         x0,[sp,#0x68]
	bl          AuPmmngrFree
|$LN30@AuProcessC|

; 186  : 	
; 187  : 	/** free up uentry structs **/
; 188  : 	if (uentry)

	ldr         x8,[sp,#0x20]
	cmp         x8,#0
	beq         |$LN31@AuProcessC|

; 189  : 		kfree(uentry);

	ldr         x0,[sp,#0x20]
	bl          kfree
|$LN31@AuProcessC|

; 190  : 
; 191  : 	/** free up uentry structs of sub threads **/
; 192  : 	for (int i = 0; i < killable->num_thread; i++) {

	mov         w8,#0
	str         w8,[sp,#0x14]
	b           |$LN13@AuProcessC|
|$LN11@AuProcessC|
	ldr         w8,[sp,#0x14]
	add         w8,w8,#1
	str         w8,[sp,#0x14]
|$LN13@AuProcessC|
	ldr         x8,[sp]
	add         x8,x8,#0x58
	ldrb        w9,[x8]
	mov         w9,w9
	ldr         w8,[sp,#0x14]
	cmp         w8,w9
	bge         |$LN12@AuProcessC|

; 193  : 		AA64Thread* subthr = killable->threads[i];

	ldr         x8,[sp]
	add         x10,x8,#0x68
	ldr         w8,[sp,#0x14]
	sxtw        x9,w8
	mov         x8,#8
	mul         x8,x9,x8
	add         x8,x10,x8
	ldr         x8,[x8]
	str         x8,[sp,#0x30]

; 194  : 		if (subthr) {

	ldr         x8,[sp,#0x30]
	cmp         x8,#0
	beq         |$LN32@AuProcessC|

; 195  : 			if (!subthr->uentry)

	ldr         x8,[sp,#0x30]
	add         x8,x8,#0xE0
	ldr         x8,[x8]
	cmp         x8,#0
	bne         |$LN33@AuProcessC|

; 196  : 				continue;

	b           |$LN11@AuProcessC|
|$LN33@AuProcessC|

; 197  : 			if (subthr->uentry) 

	ldr         x8,[sp,#0x30]
	add         x8,x8,#0xE0
	ldr         x8,[x8]
	cmp         x8,#0
	beq         |$LN34@AuProcessC|

; 198  : 				kfree(subthr->uentry);

	ldr         x8,[sp,#0x30]
	add         x8,x8,#0xE0
	ldr         x0,[x8]
	bl          kfree
|$LN34@AuProcessC|
|$LN32@AuProcessC|

; 199  : 		}
; 200  : 	}

	b           |$LN11@AuProcessC|
|$LN12@AuProcessC|

; 201  : 
; 202  : 	/** now free up thread data structures **/
; 203  : 	AA64Thread* mainThr = killable->main_thread;

	ldr         x8,[sp]
	add         x8,x8,#0x50
	ldr         x8,[x8]
	str         x8,[sp,#0x70]

; 204  : 	AuThreadCleanTrash(mainThr);

	ldr         x0,[sp,#0x70]
	bl          AuThreadCleanTrash

; 205  : 	kfree(mainThr);

	ldr         x0,[sp,#0x70]
	bl          kfree

; 206  : 
; 207  : 	for (int i = 0; i < killable->num_thread; i++) {

	mov         w8,#0
	str         w8,[sp,#0x18]
	b           |$LN16@AuProcessC|
|$LN14@AuProcessC|
	ldr         w8,[sp,#0x18]
	add         w8,w8,#1
	str         w8,[sp,#0x18]
|$LN16@AuProcessC|
	ldr         x8,[sp]
	add         x8,x8,#0x58
	ldrb        w9,[x8]
	mov         w9,w9
	ldr         w8,[sp,#0x18]
	cmp         w8,w9
	bge         |$LN15@AuProcessC|

; 208  : 		AA64Thread* subthr = killable->threads[i];

	ldr         x8,[sp]
	add         x10,x8,#0x68
	ldr         w8,[sp,#0x18]
	sxtw        x9,w8
	mov         x8,#8
	mul         x8,x9,x8
	add         x8,x10,x8
	ldr         x8,[x8]
	str         x8,[sp,#0x40]

; 209  : 		if (subthr) {

	ldr         x8,[sp,#0x40]
	cmp         x8,#0
	beq         |$LN35@AuProcessC|

; 210  : 			AuThreadCleanTrash(subthr);

	ldr         x0,[sp,#0x40]
	bl          AuThreadCleanTrash

; 211  : 			kfree(subthr);

	ldr         x0,[sp,#0x40]
	bl          kfree
|$LN35@AuProcessC|

; 212  : 		}
; 213  : 	}

	b           |$LN14@AuProcessC|
|$LN15@AuProcessC|

; 214  : 
; 215  : 	/** clear up the process data structure **/
; 216  : 	AuRemoveProcess(parent, killable);

	ldr         x1,[sp]
	ldr         x0,[sp,#0x78]
	bl          AuRemoveProcess

; 217  : 
; 218  : 	size_t totalRam = (AuPmmngrGetTotalMem() * 0x1000) / 1024 / 1024;

	bl          AuPmmngrGetTotalMem
	mov         x8,#0x1000
	mul         x9,x0,x8
	mov         x8,#0x400
	udiv        x9,x9,x8
	mov         x8,#0x400
	udiv        x8,x9,x8
	str         x8,[sp,#0x90]

; 219  : 	size_t usedRam = (AuPmmngrGetUsedMem() * 0x1000) / 1024 / 1024;

	bl          AuPmmngrGetUsedMem
	mov         x8,#0x1000
	mul         x9,x0,x8
	mov         x8,#0x400
	udiv        x9,x9,x8
	mov         x8,#0x400
	udiv        x8,x9,x8
	str         x8,[sp,#0x88]

; 220  : 	size_t freeRam = (AuPmmngrGetFreeMem() * 0x1000) / 1024 / 1024;

	bl          AuPmmngrGetFreeMem
	mov         x8,#0x1000
	mul         x9,x0,x8
	mov         x8,#0x400
	udiv        x9,x9,x8
	mov         x8,#0x400
	udiv        x8,x9,x8
	str         x8,[sp,#0x80]

; 221  : 	UARTDebugOut("[aurora-clean]: process cleaned successfully \r\n");

	adrp        x8,|$SG3293|
	add         x0,x8,PageOffset(|$SG3293|)
	bl          UARTDebugOut

; 222  : 	UARTDebugOut("total mem : %d mb, used mem : %d mb , free mem : %d mb\r\n", totalRam, usedRam, freeRam);

	ldr         x3,[sp,#0x80]
	ldr         x2,[sp,#0x88]
	ldr         x1,[sp,#0x90]
	adrp        x8,|$SG3294|
	add         x0,x8,PageOffset(|$SG3294|)
	bl          UARTDebugOut
	add         sp,sp,#0xA0
	ldr         lr,[sp],#0x10
	ret

	ENDP  ; |AuProcessClean|

	END
