; Listing generated by Microsoft (R) Optimizing Compiler Version 19.29.30159.0 

	TTL	C:\Users\paras\source\repos\grep-name\XenevaOS\KernelAA64\ARM64\Debug\cred.obj
	ARM64

	AREA	|.drectve|, DRECTVE


	AREA	|.bss|, NOINIT
|_groups| %	0x30
	EXPORT	|AuCredGroupInitialize|
	EXPORT	|AuCredGroupAdd|
	EXPORT	|AuCredGetGroupCategory|
	EXPORT	|AuCredGetGroupID|
	EXPORT	|AuCredChangeID|
	EXPORT	|AuCredAddSGroup|
	EXPORT	|AuCredSetCap|
	EXPORT	|AuCredGetCap|
	EXPORT	|AuCredCheckPermissions|
	EXPORT	|AuSetUID|
	EXPORT	|AuSetGID|
	IMPORT	|AuGetCurrentThread|
	IMPORT	|AuProcessFindPID|
	IMPORT	|AuProcessFindThread|
	IMPORT	|AuProcessFindSubThread|
	IMPORT	|strlen|
	IMPORT	|UARTDebugOut|
	IMPORT	|get_cntvct_el0|
	IMPORT	|_wfi|
	IMPORT	|AuTextOut|

	AREA	|.pdata|, PDATA
|$pdata$AuCredGroupInitialize| DCD imagerel |$LN30|
	DCD	0x2a002b9
	;Flags[SingleProEpi] functionLength[696] RegF[0] RegI[0] H[0] frameChainReturn[UnChainedSavedLR] frameSize[80]
|$pdata$AuCredGroupAdd| DCD imagerel |$LN5|
	DCD	0x800089
	;Flags[SingleProEpi] functionLength[136] RegF[0] RegI[0] H[0] frameChainReturn[UnChained] frameSize[16]
|$pdata$AuCredGetGroupCategory| DCD imagerel |$LN4|
	DCD	0x1200035
	;Flags[SingleProEpi] functionLength[52] RegF[0] RegI[0] H[0] frameChainReturn[UnChainedSavedLR] frameSize[32]
|$pdata$AuCredGetGroupID| DCD imagerel |$LN4|
	DCD	0x80004d
	;Flags[SingleProEpi] functionLength[76] RegF[0] RegI[0] H[0] frameChainReturn[UnChained] frameSize[16]
|$pdata$AuCredChangeID| DCD imagerel |$LN6|
	DCD	0x22000d5
	;Flags[SingleProEpi] functionLength[212] RegF[0] RegI[0] H[0] frameChainReturn[UnChainedSavedLR] frameSize[64]
|$pdata$AuCredAddSGroup| DCD imagerel |$LN6|
	DCD	0x1a000c9
	;Flags[SingleProEpi] functionLength[200] RegF[0] RegI[0] H[0] frameChainReturn[UnChainedSavedLR] frameSize[48]
|$pdata$AuCredSetCap| DCD imagerel |$LN6|
	DCD	0x1a00091
	;Flags[SingleProEpi] functionLength[144] RegF[0] RegI[0] H[0] frameChainReturn[UnChainedSavedLR] frameSize[48]
|$pdata$AuCredGetCap| DCD imagerel |$LN6|
	DCD	0x1a00089
	;Flags[SingleProEpi] functionLength[136] RegF[0] RegI[0] H[0] frameChainReturn[UnChainedSavedLR] frameSize[48]
|$pdata$AuCredCheckPermissions| DCD imagerel |$LN11|
	DCD	0x1a00139
	;Flags[SingleProEpi] functionLength[312] RegF[0] RegI[0] H[0] frameChainReturn[UnChainedSavedLR] frameSize[48]
|$pdata$AuSetUID| DCD imagerel |$LN8|
	DCD	0x1a000d9
	;Flags[SingleProEpi] functionLength[216] RegF[0] RegI[0] H[0] frameChainReturn[UnChainedSavedLR] frameSize[48]
|$pdata$AuSetGID| DCD imagerel |$LN8|
	DCD	0x1a000d9
	;Flags[SingleProEpi] functionLength[216] RegF[0] RegI[0] H[0] frameChainReturn[UnChainedSavedLR] frameSize[48]

	AREA	|.pdata|, PDATA
|$pdata$_mix64| DCD imagerel |_mix64|
	DCD	0x800071
	;Flags[SingleProEpi] functionLength[112] RegF[0] RegI[0] H[0] frameChainReturn[UnChained] frameSize[16]

	AREA	|.pdata|, PDATA
|$pdata$_cred_gen_gid| DCD imagerel |_cred_gen_gid|
	DCD	0x1a0009d
	;Flags[SingleProEpi] functionLength[156] RegF[0] RegI[0] H[0] frameChainReturn[UnChainedSavedLR] frameSize[48]
|$pdata$_collision_check_gid| DCD imagerel |_collision_check_gid|
	DCD	0x800079
	;Flags[SingleProEpi] functionLength[120] RegF[0] RegI[0] H[0] frameChainReturn[UnChained] frameSize[16]

	AREA	|.data|, DATA
|$SG3346| DCB	"[aurora]: generating global group table... ", 0xd, 0xa, 0x0
	%	2
|$SG3347| DCB	"[aurora]: global group table initialized ", 0xd, 0xa, 0x0
	%	4
|$SG3419| DCB	"[aurora]: file : %s is not accessible to uid : %d ", 0xd
	DCB	0xa, 0x0
	%	3
|$SG3431| DCB	"[aurora]: root process is not allowed to change its uid "
	DCB	0xd, 0xa, 0x0
	%	5
|$SG3444| DCB	"[aurora]: root process is not allowed to change its uid "
	DCB	0xd, 0xa, 0x0
; Function compile flags: /Odtpy
; File C:\Users\paras\source\repos\grep-name\XenevaOS\KernelAA64\Cred\cred.c

	AREA	|.text$mn|, CODE, ARM64

|_collision_check_gid| PROC

; 73   : static int _collision_check_gid(int count, GID_NUM val) {

	sub         sp,sp,#0x10
	str         w0,[sp,#4]
	str         w1,[sp,#8]

; 74   : 	for (int i = 0; i < count; i++) 

	mov         w8,#0
	str         w8,[sp]
	b           |$LN4@collision_|
|$LN2@collision_|
	ldr         w8,[sp]
	add         w8,w8,#1
	str         w8,[sp]
|$LN4@collision_|
	ldr         w9,[sp,#4]
	ldr         w8,[sp]
	cmp         w8,w9
	bge         |$LN3@collision_|

; 75   : 		if (_groups[i] == val) return 1;

	ldr         w8,[sp]
	sxtw        x9,w8
	mov         x8,#4
	mul         x9,x9,x8
	adrp        x8,_groups
	add         x8,x8,PageOffset(_groups)
	add         x8,x8,x9
	ldr         w9,[sp,#8]
	ldr         w8,[x8]
	cmp         w8,w9
	bne         |$LN5@collision_|
	mov         w0,#1
	b           |$LN1@collision_|
|$LN5@collision_|
	b           |$LN2@collision_|
|$LN3@collision_|

; 76   : 	return 0;

	mov         w0,#0
|$LN1@collision_|
	add         sp,sp,#0x10
	ret

	ENDP  ; |_collision_check_gid|

; Function compile flags: /Odtpy
; File C:\Users\paras\source\repos\grep-name\XenevaOS\KernelAA64\Cred\cred.c

	AREA	|.text$mn|, CODE, ARM64

|_cred_gen_gid| PROC

; 61   : static uint32_t _cred_gen_gid(uint32_t min, uint32_t max, uint64_t* seed) {

	str         lr,[sp,#-0x10]!
	sub         sp,sp,#0x20
	str         w0,[sp]
	str         w1,[sp,#4]
	str         x2,[sp,#0x10]

; 62   : 	uint64_t tick = get_cntvct_el0();

	bl          get_cntvct_el0
	str         x0,[sp,#0x18]

; 63   : 	*seed ^= tick;

	ldr         x8,[sp,#0x10]
	ldr         x9,[x8]
	ldr         x8,[sp,#0x18]
	eor         x9,x9,x8
	ldr         x8,[sp,#0x10]
	str         x9,[x8]

; 64   : 	*seed = _mix64(*seed);

	ldr         x8,[sp,#0x10]
	ldr         x0,[x8]
	bl          _mix64
	ldr         x8,[sp,#0x10]
	str         x0,[x8]

; 65   : 
; 66   : 	uint32_t range = max - min + 1;

	ldr         w9,[sp,#4]
	ldr         w8,[sp]
	sub         w8,w9,w8
	add         w8,w8,#1
	str         w8,[sp,#8]

; 67   : 	return min + (uint32_t)(*seed % range);

	ldr         w8,[sp,#8]
	uxtw        x10,w8
	ldr         x8,[sp,#0x10]
	ldr         x9,[x8]
	cbnz        x10,|$LN3@cred_gen_g|
	brk         #0xF004
|$LN3@cred_gen_g|
	udiv        x8,x9,x10
	mul         x8,x8,x10
	sub         x8,x9,x8
	mov         w9,w8
	ldr         w8,[sp]
	add         w0,w8,w9
	mov         w0,w0
	add         sp,sp,#0x20
	ldr         lr,[sp],#0x10
	ret

	ENDP  ; |_cred_gen_gid|

; Function compile flags: /Odtpy
; File C:\Users\paras\source\repos\grep-name\XenevaOS\KernelAA64\Cred\cred.c

	AREA	|.text$mn|, CODE, ARM64

|_mix64| PROC

; 46   : static inline uint64 _mix64(uint64_t x) {

	sub         sp,sp,#0x10
	str         x0,[sp]

; 47   : 	x ^= (x >> 30);

	ldr         x8,[sp]
	lsr         x9,x8,#0x1E
	ldr         x8,[sp]
	eor         x8,x8,x9
	str         x8,[sp]

; 48   : 	x *= 0xbf58476d1ce4e5b9ULL;

	ldr         x9,[sp]
	ldr         x8,|$LN3@mix64|
	mul         x8,x9,x8
	str         x8,[sp]

; 49   : 	x ^= (x >> 27);

	ldr         x8,[sp]
	lsr         x9,x8,#0x1B
	ldr         x8,[sp]
	eor         x8,x8,x9
	str         x8,[sp]

; 50   : 	x *= 0x94d049bb133111ebULL;

	ldr         x9,[sp]
	ldr         x8,|$LN4@mix64|
	mul         x8,x9,x8
	str         x8,[sp]

; 51   : 	x ^= (x >> 31);

	ldr         x8,[sp]
	lsr         x9,x8,#0x1F
	ldr         x8,[sp]
	eor         x8,x8,x9
	str         x8,[sp]

; 52   : 	return x;

	ldr         x0,[sp]
	add         sp,sp,#0x10
	ret
|$LN3@mix64|
	DCQ         0xbf58476d1ce4e5b9
|$LN4@mix64|
	DCQ         0x94d049bb133111eb

	ENDP  ; |_mix64|

; Function compile flags: /Odtpy
; File C:\Users\paras\source\repos\grep-name\XenevaOS\KernelAA64\Cred\cred.c

	AREA	|.text$mn|, CODE, ARM64

|AuSetGID| PROC

; 368  : int AuSetGID(int proc_id, GID_NUM gid) {

|$LN8|
	str         lr,[sp,#-0x10]!
	sub         sp,sp,#0x20
	str         w0,[sp]
	str         w1,[sp,#4]

; 369  : 	AA64Thread* current_thr = AuGetCurrentThread();

	bl          AuGetCurrentThread
	str         x0,[sp,#0x10]

; 370  : 	AuProcess* proc = AuProcessFindThread(current_thr);

	ldr         x0,[sp,#0x10]
	bl          AuProcessFindThread
	str         x0,[sp,#8]

; 371  : 
; 372  : 	if (!proc)

	ldr         x8,[sp,#8]
	cmp         x8,#0
	bne         |$LN2@AuSetGID|

; 373  : 		proc = AuProcessFindSubThread(current_thr);

	ldr         x0,[sp,#0x10]
	bl          AuProcessFindSubThread
	str         x0,[sp,#8]
|$LN2@AuSetGID|

; 374  : 
; 375  : 	if (!proc)

	ldr         x8,[sp,#8]
	cmp         x8,#0
	bne         |$LN3@AuSetGID|

; 376  : 		return 1;

	mov         w0,#1
	b           |$LN1@AuSetGID|
|$LN3@AuSetGID|

; 377  : 
; 378  : 	if (!CRED_IS_CAPABLE(proc->creds.caps, CRED_CAP_SETGID))

	ldr         x8,[sp,#8]
	add         x8,x8,#0x470
	ldrb        w8,[x8]
	mov         w8,w8
	tbnz        x8,#1,|$LN4@AuSetGID|

; 379  : 		return 1;

	mov         w0,#1
	b           |$LN1@AuSetGID|
|$LN4@AuSetGID|

; 380  : 
; 381  : 	/**
; 382  : 	   *don't allow root process to change it's uid/gid,
; 383  : 		in Xeneva the root process get process id of one
; 384  : 		*/
; 385  : 	if ((proc_id == 0 && proc->proc_id == 1)) {

	ldr         w8,[sp]
	cmp         w8,#0
	bne         |$LN5@AuSetGID|
	ldr         x8,[sp,#8]
	add         x8,x8,#0x10
	ldr         w8,[x8]
	cmp         w8,#1
	bne         |$LN5@AuSetGID|

; 386  : 		UARTDebugOut("[aurora]: root process is not allowed to change its uid \r\n");

	adrp        x8,|$SG3444|
	add         x0,x8,PageOffset(|$SG3444|)
	bl          UARTDebugOut

; 387  : 		return 1;

	mov         w0,#1
	b           |$LN1@AuSetGID|
|$LN5@AuSetGID|

; 388  : 	}
; 389  : 
; 390  : 	if (proc_id != 0)

	ldr         w8,[sp]
	cmp         w8,#0
	beq         |$LN6@AuSetGID|

; 391  : 		proc = AuProcessFindPID(proc_id);

	ldr         w0,[sp]
	bl          AuProcessFindPID
	str         x0,[sp,#8]
|$LN6@AuSetGID|

; 392  : 
; 393  : 	proc->creds.gid = gid;

	ldr         x8,[sp,#8]
	add         x9,x8,#0x478
	ldr         w8,[sp,#4]
	str         w8,[x9]

; 394  : 	return 0;

	mov         w0,#0
|$LN1@AuSetGID|
	add         sp,sp,#0x20
	ldr         lr,[sp],#0x10
	ret

	ENDP  ; |AuSetGID|

; Function compile flags: /Odtpy
; File C:\Users\paras\source\repos\grep-name\XenevaOS\KernelAA64\Cred\cred.c

	AREA	|.text$mn|, CODE, ARM64

|AuSetUID| PROC

; 334  : int AuSetUID(int proc_id, UID_NUM uid) {

|$LN8|
	str         lr,[sp,#-0x10]!
	sub         sp,sp,#0x20
	str         w0,[sp]
	str         w1,[sp,#4]

; 335  : 	AA64Thread* current_thr = AuGetCurrentThread();

	bl          AuGetCurrentThread
	str         x0,[sp,#0x10]

; 336  : 	AuProcess* proc = AuProcessFindThread(current_thr);

	ldr         x0,[sp,#0x10]
	bl          AuProcessFindThread
	str         x0,[sp,#8]

; 337  : 
; 338  : 	if (!proc) 

	ldr         x8,[sp,#8]
	cmp         x8,#0
	bne         |$LN2@AuSetUID|

; 339  : 		proc = AuProcessFindSubThread(current_thr);

	ldr         x0,[sp,#0x10]
	bl          AuProcessFindSubThread
	str         x0,[sp,#8]
|$LN2@AuSetUID|

; 340  : 	
; 341  : 	if (!proc)

	ldr         x8,[sp,#8]
	cmp         x8,#0
	bne         |$LN3@AuSetUID|

; 342  : 		return 1;

	mov         w0,#1
	b           |$LN1@AuSetUID|
|$LN3@AuSetUID|

; 343  : 
; 344  : 	if (!CRED_IS_CAPABLE(proc->creds.caps, CRED_CAP_SETUID))

	ldr         x8,[sp,#8]
	add         x8,x8,#0x470
	ldrb        w8,[x8]
	mov         w8,w8
	tbnz        x8,#0,|$LN4@AuSetUID|

; 345  : 		return 1;

	mov         w0,#1
	b           |$LN1@AuSetUID|
|$LN4@AuSetUID|

; 346  : 
; 347  : 	/** 
; 348  : 	   *don't allow root process to change it's uid/gid, 
; 349  : 	    in Xeneva the root process get process id of one 
; 350  : 		*/
; 351  : 	if ((proc_id == 0 && proc->proc_id == 1)) {

	ldr         w8,[sp]
	cmp         w8,#0
	bne         |$LN5@AuSetUID|
	ldr         x8,[sp,#8]
	add         x8,x8,#0x10
	ldr         w8,[x8]
	cmp         w8,#1
	bne         |$LN5@AuSetUID|

; 352  : 		UARTDebugOut("[aurora]: root process is not allowed to change its uid \r\n");

	adrp        x8,|$SG3431|
	add         x0,x8,PageOffset(|$SG3431|)
	bl          UARTDebugOut

; 353  : 		return 1;

	mov         w0,#1
	b           |$LN1@AuSetUID|
|$LN5@AuSetUID|

; 354  : 	}
; 355  : 
; 356  : 	if (proc_id != 0) 

	ldr         w8,[sp]
	cmp         w8,#0
	beq         |$LN6@AuSetUID|

; 357  : 		proc = AuProcessFindPID(proc_id);

	ldr         w0,[sp]
	bl          AuProcessFindPID
	str         x0,[sp,#8]
|$LN6@AuSetUID|

; 358  : 
; 359  : 	proc->creds.uid = uid;

	ldr         x8,[sp,#8]
	add         x9,x8,#0x474
	ldr         w8,[sp,#4]
	str         w8,[x9]

; 360  : 	return 0;

	mov         w0,#0
|$LN1@AuSetUID|
	add         sp,sp,#0x20
	ldr         lr,[sp],#0x10
	ret

	ENDP  ; |AuSetUID|

; Function compile flags: /Odtpy
; File C:\Users\paras\source\repos\grep-name\XenevaOS\KernelAA64\Cred\cred.c

	AREA	|.text$mn|, CODE, ARM64

|AuCredCheckPermissions| PROC

; 299  : int AuCredCheckPermissions(AuVFSNode* node, AuProcCredentials *cred) {

|$LN11|
	str         lr,[sp,#-0x10]!
	sub         sp,sp,#0x20
	str         x0,[sp,#0x10]
	str         x1,[sp,#8]

; 300  : 	if (!node)

	ldr         x8,[sp,#0x10]
	cmp         x8,#0
	bne         |$LN5@AuCredChec|

; 301  : 		return 1;

	mov         w0,#1
	b           |$LN1@AuCredChec|
|$LN5@AuCredChec|

; 302  : 	/** root get access to everything */
; 303  : 	if (cred->uid == 0)

	ldr         x8,[sp,#8]
	add         x8,x8,#4
	ldr         w8,[x8]
	cmp         w8,#0
	bne         |$LN6@AuCredChec|

; 304  : 		return 0;

	mov         w0,#0
	b           |$LN1@AuCredChec|
|$LN6@AuCredChec|

; 305  : 	
; 306  : 	/** maybe this process's user, created the file and owner 
; 307  : 	 * of this file
; 308  : 	 */
; 309  : 	if (cred->uid == node->uid)

	ldr         x8,[sp,#8]
	add         x10,x8,#4
	ldr         x8,[sp,#0x10]
	add         x8,x8,#0x44
	ldr         w9,[x8]
	ldr         w8,[x10]
	cmp         w8,w9
	bne         |$LN7@AuCredChec|

; 310  : 		return 0;

	mov         w0,#0
	b           |$LN1@AuCredChec|
|$LN7@AuCredChec|

; 311  : 
; 312  : 	/** maybe this process directly belong to the group */
; 313  : 	if (cred->gid == node->gid)

	ldr         x8,[sp,#8]
	add         x10,x8,#8
	ldr         x8,[sp,#0x10]
	add         x8,x8,#0x48
	ldr         w9,[x8]
	ldr         w8,[x10]
	cmp         w8,w9
	bne         |$LN8@AuCredChec|

; 314  : 		return 0;

	mov         w0,#0
	b           |$LN1@AuCredChec|
|$LN8@AuCredChec|

; 315  : 
; 316  : 	/** now search for supplimentary gids **/
; 317  : 	for (int i = 0; i < cred->num_sgid; i++) {

	mov         w8,#0
	str         w8,[sp]
	b           |$LN4@AuCredChec|
|$LN2@AuCredChec|
	ldr         w8,[sp]
	add         w8,w8,#1
	str         w8,[sp]
|$LN4@AuCredChec|
	ldr         x8,[sp,#8]
	add         x8,x8,#0x3C
	ldrh        w9,[x8]
	mov         w9,w9
	ldr         w8,[sp]
	cmp         w8,w9
	bge         |$LN3@AuCredChec|

; 318  : 		GID_NUM sgid = cred->sgid[i];

	ldr         x8,[sp,#8]
	add         x10,x8,#0xC
	ldr         w8,[sp]
	sxtw        x9,w8
	mov         x8,#4
	mul         x8,x9,x8
	add         x8,x10,x8
	ldr         w8,[x8]
	str         w8,[sp,#4]

; 319  : 		if (sgid == node->gid)

	ldr         x8,[sp,#0x10]
	add         x8,x8,#0x48
	ldr         w9,[x8]
	ldr         w8,[sp,#4]
	cmp         w8,w9
	bne         |$LN9@AuCredChec|

; 320  : 			return 0;

	mov         w0,#0
	b           |$LN1@AuCredChec|
|$LN9@AuCredChec|

; 321  : 	}

	b           |$LN2@AuCredChec|
|$LN3@AuCredChec|

; 322  : 
; 323  : 	AuTextOut("[aurora]: file : %s is not accessible to uid : %d \r\n", node->filename,

	ldr         x8,[sp,#8]
	add         x8,x8,#4
	ldr         x1,[sp,#0x10]
	ldr         w2,[x8]
	adrp        x8,|$SG3419|
	add         x0,x8,PageOffset(|$SG3419|)
	bl          AuTextOut

; 324  : 		cred->uid);
; 325  : 	/** sorry,kela, no access to the file **/
; 326  : 	return 1;

	mov         w0,#1
|$LN1@AuCredChec|
	add         sp,sp,#0x20
	ldr         lr,[sp],#0x10
	ret

	ENDP  ; |AuCredCheckPermissions|

; Function compile flags: /Odtpy
; File C:\Users\paras\source\repos\grep-name\XenevaOS\KernelAA64\Cred\cred.c

	AREA	|.text$mn|, CODE, ARM64

|AuCredGetCap| PROC

; 275  : int AuCredGetCap(int proc_id) {

|$LN6|
	str         lr,[sp,#-0x10]!
	sub         sp,sp,#0x20
	str         w0,[sp]

; 276  : 	AA64Thread* current_thr = AuGetCurrentThread();

	bl          AuGetCurrentThread
	str         x0,[sp,#0x10]

; 277  : 	AuProcess* proc = AuProcessFindThread(current_thr);

	ldr         x0,[sp,#0x10]
	bl          AuProcessFindThread
	str         x0,[sp,#8]

; 278  : 
; 279  : 	if (!proc)

	ldr         x8,[sp,#8]
	cmp         x8,#0
	bne         |$LN2@AuCredGetC|

; 280  : 		return 1;

	mov         w0,#1
	b           |$LN1@AuCredGetC|
|$LN2@AuCredGetC|

; 281  : 
; 282  : 	/** check capabilities **/
; 283  : 	if (!CRED_IS_CAPABLE(proc->creds.caps, CRED_CAP_SETCAP))

	ldr         x8,[sp,#8]
	add         x8,x8,#0x470
	ldrb        w8,[x8]
	mov         w8,w8
	tbnz        x8,#5,|$LN3@AuCredGetC|

; 284  : 		return 1;

	mov         w0,#1
	b           |$LN1@AuCredGetC|
|$LN3@AuCredGetC|

; 285  : 
; 286  : 	if (proc_id == 0)

	ldr         w8,[sp]
	cmp         w8,#0
	bne         |$LN4@AuCredGetC|

; 287  : 		proc = AuProcessFindPID(proc_id);

	ldr         w0,[sp]
	bl          AuProcessFindPID
	str         x0,[sp,#8]
|$LN4@AuCredGetC|

; 288  : 
; 289  : 	return proc->creds.caps;

	ldr         x8,[sp,#8]
	add         x8,x8,#0x470
	ldrb        w0,[x8]
	mov         w0,w0
	mov         w0,w0
|$LN1@AuCredGetC|
	add         sp,sp,#0x20
	ldr         lr,[sp],#0x10
	ret

	ENDP  ; |AuCredGetCap|

; Function compile flags: /Odtpy
; File C:\Users\paras\source\repos\grep-name\XenevaOS\KernelAA64\Cred\cred.c

	AREA	|.text$mn|, CODE, ARM64

|AuCredSetCap| PROC

; 253  : int AuCredSetCap(int proc_id, int cap) {

|$LN6|
	str         lr,[sp,#-0x10]!
	sub         sp,sp,#0x20
	str         w0,[sp]
	str         w1,[sp,#4]

; 254  : 	AA64Thread* current_thr = AuGetCurrentThread();

	bl          AuGetCurrentThread
	str         x0,[sp,#0x10]

; 255  : 	AuProcess* proc = AuProcessFindThread(current_thr);

	ldr         x0,[sp,#0x10]
	bl          AuProcessFindThread
	str         x0,[sp,#8]

; 256  : 
; 257  : 	if (!proc)

	ldr         x8,[sp,#8]
	cmp         x8,#0
	bne         |$LN2@AuCredSetC|

; 258  : 		return 1;

	mov         w0,#1
	b           |$LN1@AuCredSetC|
|$LN2@AuCredSetC|

; 259  : 
; 260  : 	/** check capabilities **/
; 261  : 	if (!CRED_IS_CAPABLE(proc->creds.caps, CRED_CAP_SETCAP))

	ldr         x8,[sp,#8]
	add         x8,x8,#0x470
	ldrb        w8,[x8]
	mov         w8,w8
	tbnz        x8,#5,|$LN3@AuCredSetC|

; 262  : 		return 1;

	mov         w0,#1
	b           |$LN1@AuCredSetC|
|$LN3@AuCredSetC|

; 263  : 
; 264  : 	if (proc_id != 0) 

	ldr         w8,[sp]
	cmp         w8,#0
	beq         |$LN4@AuCredSetC|

; 265  : 		proc = AuProcessFindPID(proc_id);

	ldr         w0,[sp]
	bl          AuProcessFindPID
	str         x0,[sp,#8]
|$LN4@AuCredSetC|

; 266  : 
; 267  : 	proc->creds.caps = cap;

	ldr         x8,[sp,#8]
	add         x9,x8,#0x470
	ldr         w8,[sp,#4]
	uxtb        w8,w8
	strb        w8,[x9]

; 268  : 	return 0;

	mov         w0,#0
|$LN1@AuCredSetC|
	add         sp,sp,#0x20
	ldr         lr,[sp],#0x10
	ret

	ENDP  ; |AuCredSetCap|

; Function compile flags: /Odtpy
; File C:\Users\paras\source\repos\grep-name\XenevaOS\KernelAA64\Cred\cred.c

	AREA	|.text$mn|, CODE, ARM64

|AuCredAddSGroup| PROC

; 228  : int AuCredAddSGroup(int proc_id,int sgid) {

|$LN6|
	str         lr,[sp,#-0x10]!
	sub         sp,sp,#0x20
	str         w0,[sp]
	str         w1,[sp,#4]

; 229  : 	AA64Thread* current_thr = AuGetCurrentThread();

	bl          AuGetCurrentThread
	str         x0,[sp,#0x10]

; 230  : 	AuProcess* proc = AuProcessFindThread(current_thr);

	ldr         x0,[sp,#0x10]
	bl          AuProcessFindThread
	str         x0,[sp,#8]

; 231  : 
; 232  : 	if (!proc)

	ldr         x8,[sp,#8]
	cmp         x8,#0
	bne         |$LN2@AuCredAddS|

; 233  : 		return 1;

	mov         w0,#1
	b           |$LN1@AuCredAddS|
|$LN2@AuCredAddS|

; 234  : 
; 235  : 	/** check capabilities **/
; 236  : 	if (!CRED_IS_CAPABLE(proc->creds.caps, CRED_CAP_SETGID))

	ldr         x8,[sp,#8]
	add         x8,x8,#0x470
	ldrb        w8,[x8]
	mov         w8,w8
	tbnz        x8,#1,|$LN3@AuCredAddS|

; 237  : 		return 1;

	mov         w0,#1
	b           |$LN1@AuCredAddS|
|$LN3@AuCredAddS|

; 238  : 
; 239  : 	if (proc_id != 0)

	ldr         w8,[sp]
	cmp         w8,#0
	beq         |$LN4@AuCredAddS|

; 240  : 		proc = AuProcessFindPID(proc_id);

	ldr         w0,[sp]
	bl          AuProcessFindPID
	str         x0,[sp,#8]
|$LN4@AuCredAddS|

; 241  : 
; 242  : 	proc->creds.sgid[proc->creds.num_sgid] = sgid;

	ldr         x8,[sp,#8]
	add         x10,x8,#0x47C
	ldr         x8,[sp,#8]
	add         x8,x8,#0x4AC
	ldrh        w8,[x8]
	mov         w9,w8
	mov         x8,#4
	mul         x8,x9,x8
	add         x9,x10,x8
	ldr         w8,[sp,#4]
	str         w8,[x9]

; 243  : 	proc->creds.num_sgid++;

	ldr         x8,[sp,#8]
	add         x8,x8,#0x4AC
	ldrh        w8,[x8]
	add         w8,w8,#1
	uxth        w9,w8
	ldr         x8,[sp,#8]
	add         x8,x8,#0x4AC
	strh        w9,[x8]

; 244  : 
; 245  : 	return 0;

	mov         w0,#0
|$LN1@AuCredAddS|
	add         sp,sp,#0x20
	ldr         lr,[sp],#0x10
	ret

	ENDP  ; |AuCredAddSGroup|

; Function compile flags: /Odtpy
; File C:\Users\paras\source\repos\grep-name\XenevaOS\KernelAA64\Cred\cred.c

	AREA	|.text$mn|, CODE, ARM64

|AuCredChangeID| PROC

; 201  : int AuCredChangeID(int fd, UID_NUM uid, GID_NUM gid) {

|$LN6|
	str         lr,[sp,#-0x10]!
	sub         sp,sp,#0x30
	str         w0,[sp]
	str         w1,[sp,#4]
	str         w2,[sp,#8]

; 202  : 	AA64Thread* current_thr = AuGetCurrentThread();

	bl          AuGetCurrentThread
	str         x0,[sp,#0x20]

; 203  : 	AuProcess* proc = AuProcessFindThread(current_thr);

	ldr         x0,[sp,#0x20]
	bl          AuProcessFindThread
	str         x0,[sp,#0x10]

; 204  : 
; 205  : 	if (!proc)

	ldr         x8,[sp,#0x10]
	cmp         x8,#0
	bne         |$LN2@AuCredChan|

; 206  : 		return 1;

	mov         w0,#1
	b           |$LN1@AuCredChan|
|$LN2@AuCredChan|

; 207  : 
; 208  : 	/** check capabilities **/
; 209  : 	if (!CRED_IS_CAPABLE(proc->creds.caps, CRED_CAP_SETUID) && 

	ldr         x8,[sp,#0x10]
	add         x8,x8,#0x470
	ldrb        w8,[x8]
	mov         w8,w8
	tbnz        x8,#0,|$LN3@AuCredChan|
	ldr         x8,[sp,#0x10]
	add         x8,x8,#0x470
	ldrb        w8,[x8]
	mov         w8,w8
	tbnz        x8,#1,|$LN3@AuCredChan|

; 210  : 		!CRED_IS_CAPABLE(proc->creds.caps, CRED_CAP_SETGID)) 
; 211  : 		return 1;

	mov         w0,#1
	b           |$LN1@AuCredChan|
|$LN3@AuCredChan|

; 212  : 
; 213  : 	AuVFSNode* file = proc->fds[fd];

	ldr         x8,[sp,#0x10]
	add         x10,x8,#0x248
	ldr         w8,[sp]
	sxtw        x9,w8
	mov         x8,#8
	mul         x8,x9,x8
	add         x8,x10,x8
	ldr         x8,[x8]
	str         x8,[sp,#0x18]

; 214  : 	if (!file)

	ldr         x8,[sp,#0x18]
	cmp         x8,#0
	bne         |$LN4@AuCredChan|

; 215  : 		return 1;

	mov         w0,#1
	b           |$LN1@AuCredChan|
|$LN4@AuCredChan|

; 216  : 
; 217  : 	file->uid = uid;

	ldr         x8,[sp,#0x18]
	add         x9,x8,#0x44
	ldr         w8,[sp,#4]
	str         w8,[x9]

; 218  : 	file->gid = gid;

	ldr         x8,[sp,#0x18]
	add         x9,x8,#0x48
	ldr         w8,[sp,#8]
	str         w8,[x9]

; 219  : 
; 220  : 	return 0;

	mov         w0,#0
|$LN1@AuCredChan|
	add         sp,sp,#0x30
	ldr         lr,[sp],#0x10
	ret

	ENDP  ; |AuCredChangeID|

; Function compile flags: /Odtpy
; File C:\Users\paras\source\repos\grep-name\XenevaOS\KernelAA64\Cred\cred.c

	AREA	|.text$mn|, CODE, ARM64

|AuCredGetGroupID| PROC

; 187  : GID_NUM AuCredGetGroupID(uint8_t category) {

|$LN4|
	sub         sp,sp,#0x10
	uxtb        w8,w0
	strb        w8,[sp]

; 188  : 	if (category > AURORA_MAX_GROUPS)

	ldrb        w8,[sp]
	mov         w8,w8
	cmp         w8,#0xC
	ble         |$LN2@AuCredGetG|

; 189  : 		return 0;

	mov         w0,#0
	b           |$LN1@AuCredGetG|
|$LN2@AuCredGetG|

; 190  : 	return _groups[category];

	ldrb        w8,[sp]
	mov         w9,w8
	mov         x8,#4
	mul         x9,x9,x8
	adrp        x8,_groups
	add         x8,x8,PageOffset(_groups)
	add         x8,x8,x9
	ldr         w0,[x8]
|$LN1@AuCredGetG|
	add         sp,sp,#0x10
	ret

	ENDP  ; |AuCredGetGroupID|

; Function compile flags: /Odtpy
; File C:\Users\paras\source\repos\grep-name\XenevaOS\KernelAA64\Cred\cred.c

	AREA	|.text$mn|, CODE, ARM64

|AuCredGetGroupCategory| PROC

; 162  : uint8_t AuCredGetGroupCategory(const char* string) {

|$LN4|
	str         lr,[sp,#-0x10]!
	sub         sp,sp,#0x10
	str         x0,[sp]

; 163  : 	if (strlen(string) == 0)

	ldr         x0,[sp]
	bl          strlen
	cmp         x0,#0
	bne         |$LN2@AuCredGetG|

; 164  : 		return AURORA_MAX_GROUPS + 1;

	mov         w0,#0xD
	b           |$LN1@AuCredGetG|
|$LN2@AuCredGetG|

; 165  : 
; 166  : 	/*if (strcmp(string, GROUP_NAME_NETWORK) == 0)
; 167  : 		return AURORA_GID_NETWORK;
; 168  : 	else if (strcmp(string, GROUP_NAME_AUDIO) == 0)
; 169  : 		return AURORA_GID_AUDIO;
; 170  : 	else if (strcmp(string, GROUP_NAME_TTY) == 0)
; 171  : 		return AURORA_GID_TTY;
; 172  : 	else if (strcmp(string, GROUP_NAME_STORAGE) == 0)
; 173  : 		return AURORA_GID_STORAGE;
; 174  : 	else if (strcmp(string, GROUP_NAME_GRAPHICS) == 0)
; 175  : 		return AURORA_GID_GRAPHICS;
; 176  : 	else if (strcmp(string, GROUP_NAME_IPC_POSTBOX) == 0)
; 177  : 		return AURORA_GID_IPC_POSTBOX;*/
; 178  : 	
; 179  : 	return AURORA_MAX_GROUPS + 1;

	mov         w0,#0xD
|$LN1@AuCredGetG|
	add         sp,sp,#0x10
	ldr         lr,[sp],#0x10
	ret

	ENDP  ; |AuCredGetGroupCategory|

; Function compile flags: /Odtpy
; File C:\Users\paras\source\repos\grep-name\XenevaOS\KernelAA64\Cred\cred.c

	AREA	|.text$mn|, CODE, ARM64

|AuCredGroupAdd| PROC

; 145  : int AuCredGroupAdd(uint8_t category, GID_NUM value) {

|$LN5|
	sub         sp,sp,#0x10
	uxtb        w8,w0
	strb        w8,[sp]
	str         w1,[sp,#4]

; 146  : 	if (category > AURORA_MAX_GROUPS)

	ldrb        w8,[sp]
	mov         w8,w8
	cmp         w8,#0xC
	ble         |$LN2@AuCredGrou|

; 147  : 		return -1;

	mov         w0,#-1
	b           |$LN1@AuCredGrou|
|$LN2@AuCredGrou|

; 148  : 
; 149  : 	if (_groups[category] == 0) {

	ldrb        w8,[sp]
	mov         w9,w8
	mov         x8,#4
	mul         x9,x9,x8
	adrp        x8,_groups
	add         x8,x8,PageOffset(_groups)
	add         x8,x8,x9
	ldr         w8,[x8]
	cmp         w8,#0
	bne         |$LN3@AuCredGrou|

; 150  : 		_groups[category] = value;

	ldrb        w8,[sp]
	mov         w9,w8
	mov         x8,#4
	mul         x9,x9,x8
	adrp        x8,_groups
	add         x8,x8,PageOffset(_groups)
	add         x9,x8,x9
	ldr         w8,[sp,#4]
	str         w8,[x9]

; 151  : 		return 0;

	mov         w0,#0
	b           |$LN1@AuCredGrou|
|$LN3@AuCredGrou|

; 152  : 	}
; 153  : 	/** could not add value **/
; 154  : 	return 1;

	mov         w0,#1
|$LN1@AuCredGrou|
	add         sp,sp,#0x10
	ret

	ENDP  ; |AuCredGroupAdd|

; Function compile flags: /Odtpy
; File C:\Users\paras\source\repos\grep-name\XenevaOS\KernelAA64\Cred\cred.c

	AREA	|.text$mn|, CODE, ARM64

|AuCredGroupInitialize| PROC

; 83   : void AuCredGroupInitialize() {

|$LN30|
	str         lr,[sp,#-0x10]!
	sub         sp,sp,#0x40

; 84   : 	for (int i = 0; i < AURORA_MAX_GROUPS; i++) {

	mov         w8,#0
	str         w8,[sp,#4]
	b           |$LN4@AuCredGrou|
|$LN2@AuCredGrou|
	ldr         w8,[sp,#4]
	add         w8,w8,#1
	str         w8,[sp,#4]
|$LN4@AuCredGrou|
	ldr         w8,[sp,#4]
	cmp         w8,#0xC
	bge         |$LN3@AuCredGrou|

; 85   : 		_groups[i] = 0;

	ldr         w8,[sp,#4]
	sxtw        x9,w8
	mov         x8,#4
	mul         x9,x9,x8
	adrp        x8,_groups
	add         x8,x8,PageOffset(_groups)
	add         x9,x8,x9
	mov         w8,#0
	str         w8,[x9]

; 86   : 	}

	b           |$LN2@AuCredGrou|
|$LN3@AuCredGrou|

; 87   : 
; 88   : 	uint64_t seed = get_cntvct_el0();

	bl          get_cntvct_el0
	str         x0,[sp,#0x18]

; 89   : 	for (int i = 0; i < 100; i++)

	mov         w8,#0
	str         w8,[sp,#0x20]
	b           |$LN7@AuCredGrou|
|$LN5@AuCredGrou|
	ldr         w8,[sp,#0x20]
	add         w8,w8,#1
	str         w8,[sp,#0x20]
|$LN7@AuCredGrou|
	ldr         w8,[sp,#0x20]
	cmp         w8,#0x64
	bge         |$LN6@AuCredGrou|

; 90   : 		_wfi();

	bl          _wfi
	b           |$LN5@AuCredGrou|
|$LN6@AuCredGrou|

; 91   : 	seed ^= get_cntvct_el0() << 17;

	bl          get_cntvct_el0
	lsl         x9,x0,#0x11
	ldr         x8,[sp,#0x18]
	eor         x8,x8,x9
	str         x8,[sp,#0x18]

; 92   : 	for (int i = 0; i < 200; i++)

	mov         w8,#0
	str         w8,[sp,#0x24]
	b           |$LN10@AuCredGrou|
|$LN8@AuCredGrou|
	ldr         w8,[sp,#0x24]
	add         w8,w8,#1
	str         w8,[sp,#0x24]
|$LN10@AuCredGrou|
	ldr         w8,[sp,#0x24]
	cmp         w8,#0xC8
	bge         |$LN9@AuCredGrou|

; 93   : 		_wfi();

	bl          _wfi
	b           |$LN8@AuCredGrou|
|$LN9@AuCredGrou|

; 94   : 	seed ^= get_cntvct_el0() << 37;

	bl          get_cntvct_el0
	lsl         x9,x0,#0x25
	ldr         x8,[sp,#0x18]
	eor         x8,x8,x9
	str         x8,[sp,#0x18]

; 95   : 	seed = _mix64(seed);

	ldr         x0,[sp,#0x18]
	bl          _mix64
	str         x0,[sp,#0x18]

; 96   : 
; 97   : 	int filled = 0;

	mov         w8,#0
	str         w8,[sp]

; 98   : 
; 99   : 
; 100  : #define GID_GROUP_NET_MIN 0x1000
; 101  : #define GID_GROUP_NET_MAX 0x1FFF
; 102  : 
; 103  : 	UARTDebugOut("[aurora]: generating global group table... \r\n");

	adrp        x8,|$SG3346|
	add         x0,x8,PageOffset(|$SG3346|)
	bl          UARTDebugOut

; 104  : 	for (int i = 0; i < GID_GLOBAL_NET_COUNT; i++) {

	mov         w8,#0
	str         w8,[sp,#8]
	b           |$LN13@AuCredGrou|
|$LN11@AuCredGrou|
	ldr         w8,[sp,#8]
	add         w8,w8,#1
	str         w8,[sp,#8]
|$LN13@AuCredGrou|
	ldr         w8,[sp,#8]
	cmp         w8,#4
	bge         |$LN12@AuCredGrou|
|$LN16@AuCredGrou|

; 105  : 		GID_NUM g;
; 106  : 		do {
; 107  : 			g = (GID_NUM)_cred_gen_gid(GID_GROUP_NET_MIN, GID_GROUP_NET_MAX, &seed);

	add         x2,sp,#0x18
	mov         w1,#0x1FFF
	mov         w0,#0x1000
	bl          _cred_gen_gid
	mov         w0,w0
	str         w0,[sp,#0x28]

; 108  : 		} while (_collision_check_gid(filled, g));

	ldr         w1,[sp,#0x28]
	ldr         w0,[sp]
	bl          _collision_check_gid
	mov         w0,w0
	cmp         w0,#0
	bne         |$LN16@AuCredGrou|

; 109  : 		_groups[GID_GLOBAL_NET + i] = g;

	ldr         w8,[sp,#8]
	mov         w8,w8
	sxtw        x9,w8
	mov         x8,#4
	mul         x9,x9,x8
	adrp        x8,_groups
	add         x8,x8,PageOffset(_groups)
	add         x9,x8,x9
	ldr         w8,[sp,#0x28]
	str         w8,[x9]

; 110  : 		filled++;

	ldr         w8,[sp]
	add         w8,w8,#1
	str         w8,[sp]

; 111  : 	}

	b           |$LN11@AuCredGrou|
|$LN12@AuCredGrou|

; 112  : 
; 113  : 	/** fill up the IPC group gid **/
; 114  : #define GID_GROUP_IPC_MIN 0x2000
; 115  : #define GID_GROUP_IPC_MAX 0x2FFF
; 116  : 
; 117  : 	for (int i = 0; i < GID_GLOBAL_IPC_COUNT; i++) {

	mov         w8,#0
	str         w8,[sp,#0xC]
	b           |$LN19@AuCredGrou|
|$LN17@AuCredGrou|
	ldr         w8,[sp,#0xC]
	add         w8,w8,#1
	str         w8,[sp,#0xC]
|$LN19@AuCredGrou|
	ldr         w8,[sp,#0xC]
	cmp         w8,#4
	bge         |$LN18@AuCredGrou|
|$LN22@AuCredGrou|

; 118  : 		GID_NUM g;
; 119  : 		do {
; 120  : 			g = (GID_NUM)_cred_gen_gid(GID_GROUP_IPC_MIN, GID_GROUP_IPC_MAX, &seed);

	add         x2,sp,#0x18
	mov         w1,#0x2FFF
	mov         w0,#0x2000
	bl          _cred_gen_gid
	mov         w0,w0
	str         w0,[sp,#0x2C]

; 121  : 		} while (_collision_check_gid(filled, g));

	ldr         w1,[sp,#0x2C]
	ldr         w0,[sp]
	bl          _collision_check_gid
	mov         w0,w0
	cmp         w0,#0
	bne         |$LN22@AuCredGrou|

; 122  : 		_groups[GID_GLOBAL_IPC + i] = g;

	ldr         w8,[sp,#0xC]
	add         w8,w8,#4
	sxtw        x9,w8
	mov         x8,#4
	mul         x9,x9,x8
	adrp        x8,_groups
	add         x8,x8,PageOffset(_groups)
	add         x9,x8,x9
	ldr         w8,[sp,#0x2C]
	str         w8,[x9]

; 123  : 		filled++;

	ldr         w8,[sp]
	add         w8,w8,#1
	str         w8,[sp]

; 124  : 	}

	b           |$LN17@AuCredGrou|
|$LN18@AuCredGrou|

; 125  : 
; 126  : 	/** fill up the MISC group gid **/
; 127  : #define GID_GROUP_MISC_MIN 0x3000
; 128  : #define GID_GROUP_MISC_MAX 0x3FFF
; 129  : 	for (int i = 0; i < GID_GLOBAL_MISC_COUNT; i++) {

	mov         w8,#0
	str         w8,[sp,#0x10]
	b           |$LN25@AuCredGrou|
|$LN23@AuCredGrou|
	ldr         w8,[sp,#0x10]
	add         w8,w8,#1
	str         w8,[sp,#0x10]
|$LN25@AuCredGrou|
	ldr         w8,[sp,#0x10]
	cmp         w8,#4
	bge         |$LN24@AuCredGrou|
|$LN28@AuCredGrou|

; 130  : 		GID_NUM g;
; 131  : 		do {
; 132  : 			g = (GID_NUM)_cred_gen_gid(GID_GROUP_MISC_MIN, GID_GROUP_MISC_MAX, &seed);

	add         x2,sp,#0x18
	mov         w1,#0x3FFF
	mov         w0,#0x3000
	bl          _cred_gen_gid
	mov         w0,w0
	str         w0,[sp,#0x30]

; 133  : 		} while (_collision_check_gid(filled, g));

	ldr         w1,[sp,#0x30]
	ldr         w0,[sp]
	bl          _collision_check_gid
	mov         w0,w0
	cmp         w0,#0
	bne         |$LN28@AuCredGrou|

; 134  : 		_groups[GID_GLOBAL_MISC + i] = g;

	ldr         w8,[sp,#0x10]
	add         w8,w8,#8
	sxtw        x9,w8
	mov         x8,#4
	mul         x9,x9,x8
	adrp        x8,_groups
	add         x8,x8,PageOffset(_groups)
	add         x9,x8,x9
	ldr         w8,[sp,#0x30]
	str         w8,[x9]

; 135  : 		filled++;

	ldr         w8,[sp]
	add         w8,w8,#1
	str         w8,[sp]

; 136  : 	}

	b           |$LN23@AuCredGrou|
|$LN24@AuCredGrou|

; 137  : 	UARTDebugOut("[aurora]: global group table initialized \r\n");

	adrp        x8,|$SG3347|
	add         x0,x8,PageOffset(|$SG3347|)
	bl          UARTDebugOut
	add         sp,sp,#0x40
	ldr         lr,[sp],#0x10
	ret

	ENDP  ; |AuCredGroupInitialize|

	END
