; Listing generated by Microsoft (R) Optimizing Compiler Version 19.29.30159.0 

	TTL	C:\Users\paras\source\repos\grep-name\XenevaOS\KernelAA64\ARM64\Debug\ctype.obj
	ARM64

	AREA	|.drectve|, DRECTVE

	EXPORT	|isspace|
	EXPORT	|isascii|
	EXPORT	|isupper|
	EXPORT	|islower|
	EXPORT	|isalpha|
	EXPORT	|isdigit|
	EXPORT	|isxdigit|
	EXPORT	|isprint|
	EXPORT	|toupper|
	EXPORT	|tolower|
	EXPORT	|toascii|

	AREA	|.pdata|, PDATA
|$pdata$isspace| DCD imagerel |$LN6|
	DCD	0x80004d
	;Flags[SingleProEpi] functionLength[76] RegF[0] RegI[0] H[0] frameChainReturn[UnChained] frameSize[16]
|$pdata$isascii| DCD imagerel |$LN5|
	DCD	0x800035
	;Flags[SingleProEpi] functionLength[52] RegF[0] RegI[0] H[0] frameChainReturn[UnChained] frameSize[16]
|$pdata$isupper| DCD imagerel |$LN5|
	DCD	0x800041
	;Flags[SingleProEpi] functionLength[64] RegF[0] RegI[0] H[0] frameChainReturn[UnChained] frameSize[16]
|$pdata$islower| DCD imagerel |$LN5|
	DCD	0x800041
	;Flags[SingleProEpi] functionLength[64] RegF[0] RegI[0] H[0] frameChainReturn[UnChained] frameSize[16]
|$pdata$isalpha| DCD imagerel |$LN5|
	DCD	0x1200059
	;Flags[SingleProEpi] functionLength[88] RegF[0] RegI[0] H[0] frameChainReturn[UnChainedSavedLR] frameSize[32]
|$pdata$isdigit| DCD imagerel |$LN5|
	DCD	0x800041
	;Flags[SingleProEpi] functionLength[64] RegF[0] RegI[0] H[0] frameChainReturn[UnChained] frameSize[16]
|$pdata$isxdigit| DCD imagerel |$LN8|
	DCD	0x800071
	;Flags[SingleProEpi] functionLength[112] RegF[0] RegI[0] H[0] frameChainReturn[UnChained] frameSize[16]
|$pdata$isprint| DCD imagerel |$LN5|
	DCD	0x800041
	;Flags[SingleProEpi] functionLength[64] RegF[0] RegI[0] H[0] frameChainReturn[UnChained] frameSize[16]
|$pdata$toupper| DCD imagerel |$LN5|
	DCD	0x800055
	;Flags[SingleProEpi] functionLength[84] RegF[0] RegI[0] H[0] frameChainReturn[UnChained] frameSize[16]
|$pdata$tolower| DCD imagerel |$LN5|
	DCD	0x800055
	;Flags[SingleProEpi] functionLength[84] RegF[0] RegI[0] H[0] frameChainReturn[UnChained] frameSize[16]
|$pdata$toascii| DCD imagerel |$LN3|
	DCD	0x80001d
	;Flags[SingleProEpi] functionLength[28] RegF[0] RegI[0] H[0] frameChainReturn[UnChained] frameSize[16]
; Function compile flags: /Odtpy
; File C:\Users\paras\source\repos\grep-name\XenevaOS\KernelAA64\ctype.c

	AREA	|.text$mn|, CODE, ARM64

|toascii| PROC

; 74   : int toascii(int c) {

|$LN3|
	sub         sp,sp,#0x10
	str         w0,[sp]

; 75   : 	return ((unsigned)(c) & 0x7F);

	ldr         w8,[sp]
	and         w0,w8,#0x7F
	mov         w0,w0
	add         sp,sp,#0x10
	ret

	ENDP  ; |toascii|

; Function compile flags: /Odtpy
; File C:\Users\paras\source\repos\grep-name\XenevaOS\KernelAA64\ctype.c

	AREA	|.text$mn|, CODE, ARM64

|tolower| PROC

; 70   : int tolower(int c) {

|$LN5|
	sub         sp,sp,#0x10
	str         w0,[sp]

; 71   : 	return ((c)+0x20 * (((c) >= 'A') && ((c) <= 'Z')));

	ldr         w8,[sp]
	cmp         w8,#0x41
	blt         |$LN3@tolower|
	ldr         w8,[sp]
	cmp         w8,#0x5A
	bgt         |$LN3@tolower|
	mov         w8,#1
	str         w8,[sp,#4]
	b           |$LN4@tolower|
|$LN3@tolower|
	mov         w8,#0
	str         w8,[sp,#4]
|$LN4@tolower|
	ldr         w9,[sp,#4]
	mov         w8,#0x20
	mul         w9,w9,w8
	ldr         w8,[sp]
	add         w0,w8,w9
	mov         w0,w0
	add         sp,sp,#0x10
	ret

	ENDP  ; |tolower|

; Function compile flags: /Odtpy
; File C:\Users\paras\source\repos\grep-name\XenevaOS\KernelAA64\ctype.c

	AREA	|.text$mn|, CODE, ARM64

|toupper| PROC

; 66   : int toupper(int c) {

|$LN5|
	sub         sp,sp,#0x10
	str         w0,[sp]

; 67   : 	return ((c)-0x20 * (((c) >= 'a') && ((c) <= 'z')));

	ldr         w8,[sp]
	cmp         w8,#0x61
	blt         |$LN3@toupper|
	ldr         w8,[sp]
	cmp         w8,#0x7A
	bgt         |$LN3@toupper|
	mov         w8,#1
	str         w8,[sp,#4]
	b           |$LN4@toupper|
|$LN3@toupper|
	mov         w8,#0
	str         w8,[sp,#4]
|$LN4@toupper|
	ldr         w9,[sp,#4]
	mov         w8,#0x20
	mul         w9,w9,w8
	ldr         w8,[sp]
	sub         w0,w8,w9
	mov         w0,w0
	add         sp,sp,#0x10
	ret

	ENDP  ; |toupper|

; Function compile flags: /Odtpy
; File C:\Users\paras\source\repos\grep-name\XenevaOS\KernelAA64\ctype.c

	AREA	|.text$mn|, CODE, ARM64

|isprint| PROC

; 62   : int isprint(int c) {

|$LN5|
	sub         sp,sp,#0x10
	str         w0,[sp]

; 63   : 	return ((c) >= ' ' && (c) <= '~');

	ldr         w8,[sp]
	cmp         w8,#0x20
	blt         |$LN3@isprint|
	ldr         w8,[sp]
	cmp         w8,#0x7E
	bgt         |$LN3@isprint|
	mov         w8,#1
	str         w8,[sp,#4]
	b           |$LN4@isprint|
|$LN3@isprint|
	mov         w8,#0
	str         w8,[sp,#4]
|$LN4@isprint|
	ldr         w0,[sp,#4]
	add         sp,sp,#0x10
	ret

	ENDP  ; |isprint|

; Function compile flags: /Odtpy
; File C:\Users\paras\source\repos\grep-name\XenevaOS\KernelAA64\ctype.c

	AREA	|.text$mn|, CODE, ARM64

|isxdigit| PROC

; 58   : int isxdigit(int c) {

|$LN8|
	sub         sp,sp,#0x10
	str         w0,[sp]

; 59   : 	return ((c >= '0' && c <= '9') || (c >= 'a' && c <= 'f') || (c >= 'A' && c <= 'F'));

	ldr         w8,[sp]
	cmp         w8,#0x30
	blt         |$LN3@isxdigit|
	ldr         w8,[sp]
	cmp         w8,#0x39
	ble         |$LN5@isxdigit|
|$LN3@isxdigit|
	ldr         w8,[sp]
	cmp         w8,#0x61
	blt         |$LN4@isxdigit|
	ldr         w8,[sp]
	cmp         w8,#0x66
	ble         |$LN5@isxdigit|
|$LN4@isxdigit|
	ldr         w8,[sp]
	cmp         w8,#0x41
	blt         |$LN6@isxdigit|
	ldr         w8,[sp]
	cmp         w8,#0x46
	ble         |$LN5@isxdigit|
|$LN6@isxdigit|
	mov         w8,#0
	str         w8,[sp,#4]
	b           |$LN7@isxdigit|
|$LN5@isxdigit|
	mov         w8,#1
	str         w8,[sp,#4]
|$LN7@isxdigit|
	ldr         w0,[sp,#4]
	add         sp,sp,#0x10
	ret

	ENDP  ; |isxdigit|

; Function compile flags: /Odtpy
; File C:\Users\paras\source\repos\grep-name\XenevaOS\KernelAA64\ctype.c

	AREA	|.text$mn|, CODE, ARM64

|isdigit| PROC

; 54   : int isdigit(int c) {

|$LN5|
	sub         sp,sp,#0x10
	str         w0,[sp]

; 55   : 	return ((c) >= '0' && (c) <= '9');

	ldr         w8,[sp]
	cmp         w8,#0x30
	blt         |$LN3@isdigit|
	ldr         w8,[sp]
	cmp         w8,#0x39
	bgt         |$LN3@isdigit|
	mov         w8,#1
	str         w8,[sp,#4]
	b           |$LN4@isdigit|
|$LN3@isdigit|
	mov         w8,#0
	str         w8,[sp,#4]
|$LN4@isdigit|
	ldr         w0,[sp,#4]
	add         sp,sp,#0x10
	ret

	ENDP  ; |isdigit|

; Function compile flags: /Odtpy
; File C:\Users\paras\source\repos\grep-name\XenevaOS\KernelAA64\ctype.c

	AREA	|.text$mn|, CODE, ARM64

|isalpha| PROC

; 50   : int isalpha(int c) {

|$LN5|
	str         lr,[sp,#-0x10]!
	sub         sp,sp,#0x10
	str         w0,[sp]

; 51   : 	return (isupper(c) || islower(c));

	ldr         w0,[sp]
	bl          isupper
	mov         w0,w0
	cmp         w0,#0
	bne         |$LN3@isalpha|
	ldr         w0,[sp]
	bl          islower
	mov         w0,w0
	cmp         w0,#0
	bne         |$LN3@isalpha|
	mov         w8,#0
	str         w8,[sp,#4]
	b           |$LN4@isalpha|
|$LN3@isalpha|
	mov         w8,#1
	str         w8,[sp,#4]
|$LN4@isalpha|
	ldr         w0,[sp,#4]
	add         sp,sp,#0x10
	ldr         lr,[sp],#0x10
	ret

	ENDP  ; |isalpha|

; Function compile flags: /Odtpy
; File C:\Users\paras\source\repos\grep-name\XenevaOS\KernelAA64\ctype.c

	AREA	|.text$mn|, CODE, ARM64

|islower| PROC

; 46   : int islower(int c) {

|$LN5|
	sub         sp,sp,#0x10
	str         w0,[sp]

; 47   : 	return ((c) >= 'a' && (c) <= 'z');

	ldr         w8,[sp]
	cmp         w8,#0x61
	blt         |$LN3@islower|
	ldr         w8,[sp]
	cmp         w8,#0x7A
	bgt         |$LN3@islower|
	mov         w8,#1
	str         w8,[sp,#4]
	b           |$LN4@islower|
|$LN3@islower|
	mov         w8,#0
	str         w8,[sp,#4]
|$LN4@islower|
	ldr         w0,[sp,#4]
	add         sp,sp,#0x10
	ret

	ENDP  ; |islower|

; Function compile flags: /Odtpy
; File C:\Users\paras\source\repos\grep-name\XenevaOS\KernelAA64\ctype.c

	AREA	|.text$mn|, CODE, ARM64

|isupper| PROC

; 42   : int isupper(int c) {

|$LN5|
	sub         sp,sp,#0x10
	str         w0,[sp]

; 43   : 	return ((c) >= 'A' && (c) <= 'Z');

	ldr         w8,[sp]
	cmp         w8,#0x41
	blt         |$LN3@isupper|
	ldr         w8,[sp]
	cmp         w8,#0x5A
	bgt         |$LN3@isupper|
	mov         w8,#1
	str         w8,[sp,#4]
	b           |$LN4@isupper|
|$LN3@isupper|
	mov         w8,#0
	str         w8,[sp,#4]
|$LN4@isupper|
	ldr         w0,[sp,#4]
	add         sp,sp,#0x10
	ret

	ENDP  ; |isupper|

; Function compile flags: /Odtpy
; File C:\Users\paras\source\repos\grep-name\XenevaOS\KernelAA64\ctype.c

	AREA	|.text$mn|, CODE, ARM64

|isascii| PROC

; 38   : int isascii(int c) {

|$LN5|
	sub         sp,sp,#0x10
	str         w0,[sp,#4]

; 39   : 	return (c <= 0x7f);

	ldr         w8,[sp,#4]
	cmp         w8,#0x7F
	bgt         |$LN3@isascii|
	mov         w8,#1
	str         w8,[sp]
	b           |$LN4@isascii|
|$LN3@isascii|
	mov         w8,#0
	str         w8,[sp]
|$LN4@isascii|
	ldr         w0,[sp]
	add         sp,sp,#0x10
	ret

	ENDP  ; |isascii|

; Function compile flags: /Odtpy
; File C:\Users\paras\source\repos\grep-name\XenevaOS\KernelAA64\ctype.c

	AREA	|.text$mn|, CODE, ARM64

|isspace| PROC

; 34   : int isspace(int c) {

|$LN6|
	sub         sp,sp,#0x10
	str         w0,[sp]

; 35   : 	return ((c) == ' ' || ((c) >= '\t' && (c) <= '\r'));

	ldr         w8,[sp]
	cmp         w8,#0x20
	beq         |$LN4@isspace|
	ldr         w8,[sp]
	cmp         w8,#9
	blt         |$LN3@isspace|
	ldr         w8,[sp]
	cmp         w8,#0xD
	ble         |$LN4@isspace|
|$LN3@isspace|
	mov         w8,#0
	str         w8,[sp,#4]
	b           |$LN5@isspace|
|$LN4@isspace|
	mov         w8,#1
	str         w8,[sp,#4]
|$LN5@isspace|
	ldr         w0,[sp,#4]
	add         sp,sp,#0x10
	ret

	ENDP  ; |isspace|

	END
