; Listing generated by Microsoft (R) Optimizing Compiler Version 19.29.30159.0 

	TTL	C:\Users\paras\source\repos\grep-name\XenevaOS\KernelAA64\ARM64\Debug\devfs.obj
	ARM64

	AREA	|.drectve|, DRECTVE

	EXPORT	|AuDeviceFsInitialize|
	EXPORT	|AuDevFSCreateFile|
	EXPORT	|AuDevFSAddFile|
	EXPORT	|AuDevFSOpen|
	EXPORT	|AuDevFSList|
	EXPORT	|AuDevFSRemoveFile|
	EXPORT	|AuDevFSListDir|
	IMPORT	|initialize_list|
	IMPORT	|list_add|
	IMPORT	|list_remove|
	IMPORT	|list_get_at|
	IMPORT	|AuVFSAddFileSystem|
	IMPORT	|kmalloc|
	IMPORT	|kfree|
	IMPORT	|strcmp|
	IMPORT	|strcpy|
	IMPORT	|strchr|
	IMPORT	|memset|
	IMPORT	|AuTextOut|
	IMPORT	|UARTDebugOut|
	IMPORT	|aa64_data_cache_clean_range|
	IMPORT	|AuDevInputInitialise|

	AREA	|.bss|, NOINIT
|$SG3169| %	0x1
|$SG3191| %	0x1

	AREA	|.pdata|, PDATA
|$pdata$AuDeviceFsInitialize| DCD imagerel |$LN3|
	DCD	0x12000b9
	;Flags[SingleProEpi] functionLength[184] RegF[0] RegI[0] H[0] frameChainReturn[UnChainedSavedLR] frameSize[32]
|$pdata$AuDevFSCreateFile| DCD imagerel |$LN20|
	DCD	0x3a002d1
	;Flags[SingleProEpi] functionLength[720] RegF[0] RegI[0] H[0] frameChainReturn[UnChainedSavedLR] frameSize[112]
|$pdata$AuDevFSAddFile| DCD imagerel |$LN18|
	DCD	0x3a0021d
	;Flags[SingleProEpi] functionLength[540] RegF[0] RegI[0] H[0] frameChainReturn[UnChainedSavedLR] frameSize[112]
|$pdata$AuDevFSOpen| DCD imagerel |$LN21|
	DCD	0x3a00245
	;Flags[SingleProEpi] functionLength[580] RegF[0] RegI[0] H[0] frameChainReturn[UnChainedSavedLR] frameSize[112]
|$pdata$AuDevFSList| DCD imagerel |$LN13|
	DCD	0x2200135
	;Flags[SingleProEpi] functionLength[308] RegF[0] RegI[0] H[0] frameChainReturn[UnChainedSavedLR] frameSize[64]
|$pdata$AuDevFSRemoveFile| DCD imagerel |$LN22|
	DCD	0x3a002c1
	;Flags[SingleProEpi] functionLength[704] RegF[0] RegI[0] H[0] frameChainReturn[UnChainedSavedLR] frameSize[112]
|$pdata$AuDevFSListDir| DCD imagerel |$LN10|
	DCD	0x22000f9
	;Flags[SingleProEpi] functionLength[248] RegF[0] RegI[0] H[0] frameChainReturn[UnChainedSavedLR] frameSize[64]

	AREA	|.data|, DATA
|$SG3077| DCB	"dev", 0x0
	%	4
|$SG3078| DCB	"[aurora]: devfs initialized ", 0xd, 0xa, 0x0
	%	1
|$SG3168| DCB	"Listing Directory -> %s ", 0xd, 0xa, 0x0
	%	1
|$SG3172| DCB	"Device", 0x0
	%	5
|$SG3175| DCB	"Directory", 0x0
	%	6
|$SG3176| DCB	"Unknown", 0x0
|$SG3177| DCB	"File ->  %s mode - %s ", 0xd, 0xa, 0x0
	%	7
|$SG3190| DCB	"Listing device fs ", 0xd, 0xa, 0x0
	%	3
|$SG3194| DCB	"Device", 0x0
	%	1
|$SG3197| DCB	"Directory", 0x0
	%	2
|$SG3200| DCB	"Pipe", 0x0
	%	7
|$SG3201| DCB	"Unknown", 0x0
|$SG3202| DCB	"%s mode - %s ", 0xd, 0xa, 0x0
|$SG3231| DCB	"devfs: open: %s ", 0xd, 0xa, 0x0
; Function compile flags: /Odtpy
; File C:\Users\paras\source\repos\grep-name\XenevaOS\KernelAA64\Fs\Dev\devfs.c

	AREA	|.text$mn|, CODE, ARM64

|AuDevFSListDir| PROC

; 167  : void AuDevFSListDir(AuVFSNode* fs, AuVFSNode* dir) {

|$LN10|
	str         lr,[sp,#-0x10]!
	sub         sp,sp,#0x30
	str         x0,[sp,#0x28]
	str         x1,[sp,#0x18]

; 168  : 	AuVFSContainer* entries = (AuVFSContainer*)dir->device;

	ldr         x8,[sp,#0x18]
	add         x8,x8,#0x50
	ldr         x8,[x8]
	str         x8,[sp,#0x20]

; 169  : 	UARTDebugOut("Listing Directory -> %s \r\n", dir->filename);

	ldr         x1,[sp,#0x18]
	adrp        x8,|$SG3168|
	add         x0,x8,PageOffset(|$SG3168|)
	bl          UARTDebugOut

; 170  : 	for (int i = 0; i < entries->childs->pointer; i++) {

	mov         w8,#0
	str         w8,[sp]
	b           |$LN4@AuDevFSLis|
|$LN2@AuDevFSLis|
	ldr         w8,[sp]
	add         w8,w8,#1
	str         w8,[sp]
|$LN4@AuDevFSLis|
	ldr         x8,[sp,#0x20]
	ldr         x8,[x8]
	ldr         w9,[x8]
	ldr         w8,[sp]
	cmp         w8,w9
	bhs         |$LN3@AuDevFSLis|

; 171  : 		AuVFSNode* node_ = (AuVFSNode*)list_get_at(entries->childs, i);

	ldr         x8,[sp,#0x20]
	ldr         w1,[sp]
	ldr         x0,[x8]
	bl          list_get_at
	str         x0,[sp,#0x10]

; 172  : 		char* mode = "";

	adrp        x8,|$SG3169|
	add         x8,x8,PageOffset(|$SG3169|)
	str         x8,[sp,#8]

; 173  : 		if (node_->flags & FS_FLAG_DEVICE)

	ldr         x8,[sp,#0x10]
	add         x8,x8,#0x40
	ldrh        w8,[x8]
	mov         w8,w8
	tbz         x8,#3,|$LN5@AuDevFSLis|

; 174  : 			mode = "Device";

	adrp        x8,|$SG3172|
	add         x8,x8,PageOffset(|$SG3172|)
	str         x8,[sp,#8]
	b           |$LN6@AuDevFSLis|
|$LN5@AuDevFSLis|

; 175  : 		else if (node_->flags & FS_FLAG_DIRECTORY)

	ldr         x8,[sp,#0x10]
	add         x8,x8,#0x40
	ldrh        w8,[x8]
	mov         w8,w8
	tbz         x8,#1,|$LN7@AuDevFSLis|

; 176  : 			mode = "Directory";

	adrp        x8,|$SG3175|
	add         x8,x8,PageOffset(|$SG3175|)
	str         x8,[sp,#8]
	b           |$LN8@AuDevFSLis|
|$LN7@AuDevFSLis|

; 177  : 		else
; 178  : 			mode = "Unknown";

	adrp        x8,|$SG3176|
	add         x8,x8,PageOffset(|$SG3176|)
	str         x8,[sp,#8]
|$LN8@AuDevFSLis|
|$LN6@AuDevFSLis|

; 179  : 		UARTDebugOut("File ->  %s mode - %s \r\n", node_->filename, mode);

	ldr         x1,[sp,#0x10]
	ldr         x2,[sp,#8]
	adrp        x8,|$SG3177|
	add         x0,x8,PageOffset(|$SG3177|)
	bl          UARTDebugOut

; 180  : 	}

	b           |$LN2@AuDevFSLis|
|$LN3@AuDevFSLis|
	add         sp,sp,#0x30
	ldr         lr,[sp],#0x10
	ret

	ENDP  ; |AuDevFSListDir|

; Function compile flags: /Odtpy
; File C:\Users\paras\source\repos\grep-name\XenevaOS\KernelAA64\Fs\Dev\devfs.c

	AREA	|.text$mn|, CODE, ARM64

|AuDevFSRemoveFile| PROC

; 259  : int AuDevFSRemoveFile(AuVFSNode* fs, char* path) {

|$LN22|
	str         lr,[sp,#-0x10]!
	sub         sp,sp,#0x60
	str         x0,[sp,#0x38]
	str         x1,[sp,#0x40]

; 260  : 	AuVFSContainer* entries = (AuVFSContainer*)fs->device;

	ldr         x8,[sp,#0x38]
	add         x8,x8,#0x50
	ldr         x8,[x8]
	str         x8,[sp,#0x48]

; 261  : 	/* now verify the path and add the directory to the list */
; 262  : 	char* next = strchr(path, '/');

	mov         w1,#0x2F
	ldr         x0,[sp,#0x40]
	bl          strchr
	str         x0,[sp,#8]

; 263  : 	if (next)

	ldr         x8,[sp,#8]
	cmp         x8,#0
	beq         |$LN10@AuDevFSRem|

; 264  : 		next++;

	ldr         x8,[sp,#8]
	add         x8,x8,#1
	str         x8,[sp,#8]
|$LN10@AuDevFSRem|

; 265  : 
; 266  : 	AuVFSContainer* first_list = entries;

	ldr         x8,[sp,#0x48]
	str         x8,[sp,#0x30]

; 267  : 	AuVFSNode* node_to_rem = NULL;

	mov         x8,#0
	str         x8,[sp,#0x18]

; 268  : 	int index = 0;

	mov         w8,#0
	str         w8,[sp,#0x20]
|$LN2@AuDevFSRem|

; 269  : 	while (next) {

	ldr         x8,[sp,#8]
	cmp         x8,#0
	beq         |$LN3@AuDevFSRem|

; 270  : 		char pathname[16];
; 271  : 		int i;
; 272  : 		for (i = 0; i < 16; i++) {

	mov         w8,#0
	str         w8,[sp]
	b           |$LN6@AuDevFSRem|
|$LN4@AuDevFSRem|
	ldr         w8,[sp]
	add         w8,w8,#1
	str         w8,[sp]
|$LN6@AuDevFSRem|
	ldr         w8,[sp]
	cmp         w8,#0x10
	bge         |$LN5@AuDevFSRem|

; 273  : 			if (next[i] == '/' || next[i] == '\0')

	ldr         w8,[sp]
	sxtw        x9,w8
	mov         x8,#1
	mul         x9,x9,x8
	ldr         x8,[sp,#8]
	add         x8,x8,x9
	ldrsb       w8,[x8]
	mov         w8,w8
	cmp         w8,#0x2F
	beq         |$LN12@AuDevFSRem|
	ldr         w8,[sp]
	sxtw        x9,w8
	mov         x8,#1
	mul         x9,x9,x8
	ldr         x8,[sp,#8]
	add         x8,x8,x9
	ldrsb       w8,[x8]
	mov         w8,w8
	cmp         w8,#0
	bne         |$LN11@AuDevFSRem|
|$LN12@AuDevFSRem|

; 274  : 				break;

	b           |$LN5@AuDevFSRem|
|$LN11@AuDevFSRem|

; 275  : 			pathname[i] = next[i];

	ldr         w8,[sp]
	sxtw        x9,w8
	mov         x8,#1
	mul         x9,x9,x8
	ldr         x8,[sp,#8]
	add         x10,x8,x9
	ldr         w8,[sp]
	sxtw        x9,w8
	mov         x8,#1
	mul         x9,x9,x8
	add         x8,sp,#0x50
	add         x9,x8,x9
	ldrsb       w8,[x10]
	strb        w8,[x9]

; 276  : 		}

	b           |$LN4@AuDevFSRem|
|$LN5@AuDevFSRem|

; 277  : 		pathname[i] = 0;

	ldr         w8,[sp]
	sxtw        x9,w8
	mov         x8,#1
	mul         x9,x9,x8
	add         x8,sp,#0x50
	add         x9,x8,x9
	mov         w8,#0
	strb        w8,[x9]

; 278  : 
; 279  : 		for (int j = 0; j < first_list->childs->pointer; j++) {

	mov         w8,#0
	str         w8,[sp,#0x10]
	b           |$LN9@AuDevFSRem|
|$LN7@AuDevFSRem|
	ldr         w8,[sp,#0x10]
	add         w8,w8,#1
	str         w8,[sp,#0x10]
|$LN9@AuDevFSRem|
	ldr         x8,[sp,#0x30]
	ldr         x8,[x8]
	ldr         w9,[x8]
	ldr         w8,[sp,#0x10]
	cmp         w8,w9
	bhs         |$LN8@AuDevFSRem|

; 280  : 			AuVFSNode* node_ = (AuVFSNode*)list_get_at(first_list->childs, j);

	ldr         x8,[sp,#0x30]
	ldr         w1,[sp,#0x10]
	ldr         x0,[x8]
	bl          list_get_at
	str         x0,[sp,#0x28]

; 281  : 			if (strcmp(node_->filename, pathname) == 0) {

	ldr         x0,[sp,#0x28]
	add         x1,sp,#0x50
	bl          strcmp
	mov         w0,w0
	cmp         w0,#0
	bne         |$LN13@AuDevFSRem|

; 282  : 				if (node_->flags & FS_FLAG_DIRECTORY)

	ldr         x8,[sp,#0x28]
	add         x8,x8,#0x40
	ldrh        w8,[x8]
	mov         w8,w8
	tbz         x8,#1,|$LN14@AuDevFSRem|

; 283  : 					first_list = (AuVFSContainer*)node_->device;

	ldr         x8,[sp,#0x28]
	add         x8,x8,#0x50
	ldr         x8,[x8]
	str         x8,[sp,#0x30]
	b           |$LN15@AuDevFSRem|
|$LN14@AuDevFSRem|

; 284  : 				else if (node_->flags & FS_FLAG_DEVICE) {

	ldr         x8,[sp,#0x28]
	add         x8,x8,#0x40
	ldrh        w8,[x8]
	mov         w8,w8
	tbz         x8,#3,|$LN16@AuDevFSRem|

; 285  : 					node_to_rem = node_;

	ldr         x8,[sp,#0x28]
	str         x8,[sp,#0x18]

; 286  : 					index = j;

	ldr         w8,[sp,#0x10]
	str         w8,[sp,#0x20]
|$LN16@AuDevFSRem|
|$LN15@AuDevFSRem|
|$LN13@AuDevFSRem|

; 287  : 				}
; 288  : 			}
; 289  : 		}

	b           |$LN7@AuDevFSRem|
|$LN8@AuDevFSRem|

; 290  : 
; 291  : 		next = strchr(next + 1, '/');

	ldr         x8,[sp,#8]
	add         x0,x8,#1
	mov         w1,#0x2F
	bl          strchr
	str         x0,[sp,#8]

; 292  : 		if (next)

	ldr         x8,[sp,#8]
	cmp         x8,#0
	beq         |$LN17@AuDevFSRem|

; 293  : 			next++;

	ldr         x8,[sp,#8]
	add         x8,x8,#1
	str         x8,[sp,#8]
|$LN17@AuDevFSRem|

; 294  : 	}

	b           |$LN2@AuDevFSRem|
|$LN3@AuDevFSRem|

; 295  : 
; 296  : 	/* only files can be removed */
; 297  : 	if (node_to_rem && node_to_rem->flags & FS_FLAG_DIRECTORY)

	ldr         x8,[sp,#0x18]
	cmp         x8,#0
	beq         |$LN18@AuDevFSRem|
	ldr         x8,[sp,#0x18]
	add         x8,x8,#0x40
	ldrh        w8,[x8]
	mov         w8,w8
	tbz         x8,#1,|$LN18@AuDevFSRem|

; 298  : 		return -1;

	mov         w0,#-1
	b           |$LN1@AuDevFSRem|
|$LN18@AuDevFSRem|

; 299  : 
; 300  : 	if (node_to_rem && (node_to_rem->flags & FS_FLAG_DEVICE)) {

	ldr         x8,[sp,#0x18]
	cmp         x8,#0
	beq         |$LN19@AuDevFSRem|
	ldr         x8,[sp,#0x18]
	add         x8,x8,#0x40
	ldrh        w8,[x8]
	mov         w8,w8
	tbz         x8,#3,|$LN19@AuDevFSRem|

; 301  : 		list_remove(first_list->childs, index);

	ldr         x8,[sp,#0x30]
	ldr         w1,[sp,#0x20]
	ldr         x0,[x8]
	bl          list_remove

; 302  : 		/* here, call node_to_rem->close(node_to_rem) in order
; 303  : 		 * to inform the device to shutdown itself */
; 304  : 		if (node_to_rem->close)

	ldr         x8,[sp,#0x18]
	add         x8,x8,#0xA0
	ldr         x8,[x8]
	cmp         x8,#0
	beq         |$LN20@AuDevFSRem|

; 305  : 			node_to_rem->close(node_to_rem, NULL);

	ldr         x8,[sp,#0x18]
	add         x8,x8,#0xA0
	mov         x1,#0
	ldr         x0,[sp,#0x18]
	ldr         x8,[x8]
	blr         x8
|$LN20@AuDevFSRem|

; 306  : 		kfree(node_to_rem);

	ldr         x0,[sp,#0x18]
	bl          kfree

; 307  : 		return 1;

	mov         w0,#1
	b           |$LN1@AuDevFSRem|
|$LN19@AuDevFSRem|

; 308  : 	}
; 309  : 
; 310  : 	return -1;

	mov         w0,#-1
|$LN1@AuDevFSRem|
	add         sp,sp,#0x60
	ldr         lr,[sp],#0x10
	ret

	ENDP  ; |AuDevFSRemoveFile|

; Function compile flags: /Odtpy
; File C:\Users\paras\source\repos\grep-name\XenevaOS\KernelAA64\Fs\Dev\devfs.c

	AREA	|.text$mn|, CODE, ARM64

|AuDevFSList| PROC

; 183  : void AuDevFSList(AuVFSNode* fs) {

|$LN13|
	str         lr,[sp,#-0x10]!
	sub         sp,sp,#0x30
	str         x0,[sp,#0x20]

; 184  : 	AuVFSContainer* entries = (AuVFSContainer*)fs->device;

	ldr         x8,[sp,#0x20]
	add         x8,x8,#0x50
	ldr         x8,[x8]
	str         x8,[sp,#0x18]

; 185  : 	UARTDebugOut("Listing device fs \r\n");

	adrp        x8,|$SG3190|
	add         x0,x8,PageOffset(|$SG3190|)
	bl          UARTDebugOut

; 186  : 	for (int i = 0; i < entries->childs->pointer; i++) {

	mov         w8,#0
	str         w8,[sp]
	b           |$LN4@AuDevFSLis|
|$LN2@AuDevFSLis|
	ldr         w8,[sp]
	add         w8,w8,#1
	str         w8,[sp]
|$LN4@AuDevFSLis|
	ldr         x8,[sp,#0x18]
	ldr         x8,[x8]
	ldr         w9,[x8]
	ldr         w8,[sp]
	cmp         w8,w9
	bhs         |$LN3@AuDevFSLis|

; 187  : 		AuVFSNode* node_ = (AuVFSNode*)list_get_at(entries->childs, i);

	ldr         x8,[sp,#0x18]
	ldr         w1,[sp]
	ldr         x0,[x8]
	bl          list_get_at
	str         x0,[sp,#8]

; 188  : 		char* mode = "";

	adrp        x8,|$SG3191|
	add         x8,x8,PageOffset(|$SG3191|)
	str         x8,[sp,#0x10]

; 189  : 		if (node_->flags & FS_FLAG_DEVICE)

	ldr         x8,[sp,#8]
	add         x8,x8,#0x40
	ldrh        w8,[x8]
	mov         w8,w8
	tbz         x8,#3,|$LN5@AuDevFSLis|

; 190  : 			mode = "Device";

	adrp        x8,|$SG3194|
	add         x8,x8,PageOffset(|$SG3194|)
	str         x8,[sp,#0x10]
	b           |$LN6@AuDevFSLis|
|$LN5@AuDevFSLis|

; 191  : 		else if (node_->flags & FS_FLAG_DIRECTORY)

	ldr         x8,[sp,#8]
	add         x8,x8,#0x40
	ldrh        w8,[x8]
	mov         w8,w8
	tbz         x8,#1,|$LN7@AuDevFSLis|

; 192  : 			mode = "Directory";

	adrp        x8,|$SG3197|
	add         x8,x8,PageOffset(|$SG3197|)
	str         x8,[sp,#0x10]
	b           |$LN8@AuDevFSLis|
|$LN7@AuDevFSLis|

; 193  : 		else if (node_->flags & FS_FLAG_PIPE)

	ldr         x8,[sp,#8]
	add         x8,x8,#0x40
	ldrh        w8,[x8]
	mov         w8,w8
	tbz         x8,#7,|$LN9@AuDevFSLis|

; 194  : 			mode = "Pipe";

	adrp        x8,|$SG3200|
	add         x8,x8,PageOffset(|$SG3200|)
	str         x8,[sp,#0x10]
	b           |$LN10@AuDevFSLis|
|$LN9@AuDevFSLis|

; 195  : 		else
; 196  : 			mode = "Unknown";

	adrp        x8,|$SG3201|
	add         x8,x8,PageOffset(|$SG3201|)
	str         x8,[sp,#0x10]
|$LN10@AuDevFSLis|
|$LN8@AuDevFSLis|
|$LN6@AuDevFSLis|

; 197  : 		UARTDebugOut("\%s mode - %s \r\n", node_->filename, mode);

	ldr         x1,[sp,#8]
	ldr         x2,[sp,#0x10]
	adrp        x8,|$SG3202|
	add         x0,x8,PageOffset(|$SG3202|)
	bl          UARTDebugOut

; 198  : 		if (node_->flags & FS_FLAG_DIRECTORY)

	ldr         x8,[sp,#8]
	add         x8,x8,#0x40
	ldrh        w8,[x8]
	mov         w8,w8
	tbz         x8,#1,|$LN11@AuDevFSLis|

; 199  : 			AuDevFSListDir(fs, node_);

	ldr         x1,[sp,#8]
	ldr         x0,[sp,#0x20]
	bl          AuDevFSListDir
|$LN11@AuDevFSLis|

; 200  : 	}

	b           |$LN2@AuDevFSLis|
|$LN3@AuDevFSLis|
	add         sp,sp,#0x30
	ldr         lr,[sp],#0x10
	ret

	ENDP  ; |AuDevFSList|

; Function compile flags: /Odtpy
; File C:\Users\paras\source\repos\grep-name\XenevaOS\KernelAA64\Fs\Dev\devfs.c

	AREA	|.text$mn|, CODE, ARM64

|AuDevFSOpen| PROC

; 209  : AuVFSNode* AuDevFSOpen(AuVFSNode* fs, char* path) {

|$LN21|
	str         lr,[sp,#-0x10]!
	sub         sp,sp,#0x60
	str         x0,[sp,#0x30]
	str         x1,[sp,#0x38]

; 210  : 	AuVFSContainer* entries = (AuVFSContainer*)fs->device;

	ldr         x8,[sp,#0x30]
	add         x8,x8,#0x50
	ldr         x8,[x8]
	str         x8,[sp,#0x40]

; 211  : 	/* now verify the path and add the directory to the list */
; 212  : 	char* next = strchr(path, '/');

	mov         w1,#0x2F
	ldr         x0,[sp,#0x38]
	bl          strchr
	str         x0,[sp,#8]

; 213  : 	if (next)

	ldr         x8,[sp,#8]
	cmp         x8,#0
	beq         |$LN10@AuDevFSOpe|

; 214  : 		next++;

	ldr         x8,[sp,#8]
	add         x8,x8,#1
	str         x8,[sp,#8]
|$LN10@AuDevFSOpe|

; 215  : 
; 216  : 	AuVFSContainer* first_list = entries;

	ldr         x8,[sp,#0x40]
	str         x8,[sp,#0x20]

; 217  : 	AuVFSNode* node_to_ret = NULL;

	mov         x8,#0
	str         x8,[sp,#0x28]
|$LN2@AuDevFSOpe|

; 218  : 	//UARTDebugOut("[aurora]: DevFS opening : %s \r\n", path);
; 219  : 	while (next) {

	ldr         x8,[sp,#8]
	cmp         x8,#0
	beq         |$LN3@AuDevFSOpe|

; 220  : 		char pathname[16];
; 221  : 		int i;
; 222  : 		for (i = 0; i < 16; i++) {

	mov         w8,#0
	str         w8,[sp]
	b           |$LN6@AuDevFSOpe|
|$LN4@AuDevFSOpe|
	ldr         w8,[sp]
	add         w8,w8,#1
	str         w8,[sp]
|$LN6@AuDevFSOpe|
	ldr         w8,[sp]
	cmp         w8,#0x10
	bge         |$LN5@AuDevFSOpe|

; 223  : 			if (next[i] == '/' || next[i] == '\0')

	ldr         w8,[sp]
	sxtw        x9,w8
	mov         x8,#1
	mul         x9,x9,x8
	ldr         x8,[sp,#8]
	add         x8,x8,x9
	ldrsb       w8,[x8]
	mov         w8,w8
	cmp         w8,#0x2F
	beq         |$LN12@AuDevFSOpe|
	ldr         w8,[sp]
	sxtw        x9,w8
	mov         x8,#1
	mul         x9,x9,x8
	ldr         x8,[sp,#8]
	add         x8,x8,x9
	ldrsb       w8,[x8]
	mov         w8,w8
	cmp         w8,#0
	bne         |$LN11@AuDevFSOpe|
|$LN12@AuDevFSOpe|

; 224  : 				break;

	b           |$LN5@AuDevFSOpe|
|$LN11@AuDevFSOpe|

; 225  : 			pathname[i] = next[i];

	ldr         w8,[sp]
	sxtw        x9,w8
	mov         x8,#1
	mul         x9,x9,x8
	ldr         x8,[sp,#8]
	add         x10,x8,x9
	ldr         w8,[sp]
	sxtw        x9,w8
	mov         x8,#1
	mul         x9,x9,x8
	add         x8,sp,#0x48
	add         x9,x8,x9
	ldrsb       w8,[x10]
	strb        w8,[x9]

; 226  : 		}

	b           |$LN4@AuDevFSOpe|
|$LN5@AuDevFSOpe|

; 227  : 		pathname[i] = 0;

	ldr         w8,[sp]
	sxtw        x9,w8
	mov         x8,#1
	mul         x9,x9,x8
	add         x8,sp,#0x48
	add         x9,x8,x9
	mov         w8,#0
	strb        w8,[x9]

; 228  : 		//aa64_data_cache_clean_range(&pathname, 16);
; 229  : 		//AA64SleepUS(600);
; 230  : 		UARTDebugOut("devfs: open: %s \r\n", pathname);

	add         x1,sp,#0x48
	adrp        x8,|$SG3231|
	add         x0,x8,PageOffset(|$SG3231|)
	bl          UARTDebugOut

; 231  : 		for (int j = 0; j < first_list->childs->pointer; j++) {

	mov         w8,#0
	str         w8,[sp,#0x10]
	b           |$LN9@AuDevFSOpe|
|$LN7@AuDevFSOpe|
	ldr         w8,[sp,#0x10]
	add         w8,w8,#1
	str         w8,[sp,#0x10]
|$LN9@AuDevFSOpe|
	ldr         x8,[sp,#0x20]
	ldr         x8,[x8]
	ldr         w9,[x8]
	ldr         w8,[sp,#0x10]
	cmp         w8,w9
	bhs         |$LN8@AuDevFSOpe|

; 232  : 			AuVFSNode* node_ = (AuVFSNode*)list_get_at(first_list->childs, j);

	ldr         x8,[sp,#0x20]
	ldr         w1,[sp,#0x10]
	ldr         x0,[x8]
	bl          list_get_at
	str         x0,[sp,#0x18]

; 233  : 			//UARTDebugOut("node_->filename : %s \r\n", node_->filename);
; 234  : 			if (strcmp(node_->filename, pathname) == 0) {

	ldr         x0,[sp,#0x18]
	add         x1,sp,#0x48
	bl          strcmp
	mov         w0,w0
	cmp         w0,#0
	bne         |$LN13@AuDevFSOpe|

; 235  : 				if (node_->flags & FS_FLAG_DIRECTORY)

	ldr         x8,[sp,#0x18]
	add         x8,x8,#0x40
	ldrh        w8,[x8]
	mov         w8,w8
	tbz         x8,#1,|$LN14@AuDevFSOpe|

; 236  : 					first_list = (AuVFSContainer*)node_->device;

	ldr         x8,[sp,#0x18]
	add         x8,x8,#0x50
	ldr         x8,[x8]
	str         x8,[sp,#0x20]
	b           |$LN15@AuDevFSOpe|
|$LN14@AuDevFSOpe|

; 237  : 				else if (node_->flags & FS_FLAG_DEVICE)

	ldr         x8,[sp,#0x18]
	add         x8,x8,#0x40
	ldrh        w8,[x8]
	mov         w8,w8
	tbz         x8,#3,|$LN16@AuDevFSOpe|

; 238  : 					node_to_ret = node_;

	ldr         x8,[sp,#0x18]
	str         x8,[sp,#0x28]
|$LN16@AuDevFSOpe|
|$LN15@AuDevFSOpe|
|$LN13@AuDevFSOpe|

; 239  : 			}
; 240  : 		}

	b           |$LN7@AuDevFSOpe|
|$LN8@AuDevFSOpe|

; 241  : 
; 242  : 		next = strchr(next + 1, '/');

	ldr         x8,[sp,#8]
	add         x0,x8,#1
	mov         w1,#0x2F
	bl          strchr
	str         x0,[sp,#8]

; 243  : 		if (next)

	ldr         x8,[sp,#8]
	cmp         x8,#0
	beq         |$LN17@AuDevFSOpe|

; 244  : 			next++;

	ldr         x8,[sp,#8]
	add         x8,x8,#1
	str         x8,[sp,#8]
|$LN17@AuDevFSOpe|

; 245  : 	}

	b           |$LN2@AuDevFSOpe|
|$LN3@AuDevFSOpe|

; 246  : 
; 247  : 	if (node_to_ret)

	ldr         x8,[sp,#0x28]
	cmp         x8,#0
	beq         |$LN18@AuDevFSOpe|

; 248  : 		return node_to_ret;

	ldr         x0,[sp,#0x28]
	b           |$LN1@AuDevFSOpe|
	b           |$LN19@AuDevFSOpe|
|$LN18@AuDevFSOpe|

; 249  : 	else
; 250  : 		return NULL;

	mov         x0,#0
|$LN19@AuDevFSOpe|
|$LN1@AuDevFSOpe|
	add         sp,sp,#0x60
	ldr         lr,[sp],#0x10
	ret

	ENDP  ; |AuDevFSOpen|

; Function compile flags: /Odtpy
; File C:\Users\paras\source\repos\grep-name\XenevaOS\KernelAA64\Fs\Dev\devfs.c

	AREA	|.text$mn|, CODE, ARM64

|AuDevFSAddFile| PROC

; 128  : int AuDevFSAddFile(AuVFSNode* fs, char* path, AuVFSNode* file) {

|$LN18|
	str         lr,[sp,#-0x10]!
	sub         sp,sp,#0x60
	str         x0,[sp,#0x30]
	str         x1,[sp,#0x38]
	str         x2,[sp,#0x40]

; 129  : 	AuVFSContainer* entries = (AuVFSContainer*)fs->device;

	ldr         x8,[sp,#0x30]
	add         x8,x8,#0x50
	ldr         x8,[x8]
	str         x8,[sp,#0x28]

; 130  : 	if (!entries)

	ldr         x8,[sp,#0x28]
	cmp         x8,#0
	bne         |$LN10@AuDevFSAdd|

; 131  : 		return -1;

	mov         w0,#-1
	b           |$LN1@AuDevFSAdd|
|$LN10@AuDevFSAdd|

; 132  : 
; 133  : 	char* next = strchr(path, '/');

	mov         w1,#0x2F
	ldr         x0,[sp,#0x38]
	bl          strchr
	str         x0,[sp,#8]

; 134  : 	if (next)

	ldr         x8,[sp,#8]
	cmp         x8,#0
	beq         |$LN11@AuDevFSAdd|

; 135  : 		next++;

	ldr         x8,[sp,#8]
	add         x8,x8,#1
	str         x8,[sp,#8]
|$LN11@AuDevFSAdd|

; 136  : 
; 137  : 	AuVFSContainer* first_list = entries;

	ldr         x8,[sp,#0x28]
	str         x8,[sp,#0x18]
|$LN2@AuDevFSAdd|

; 138  : 	char pathname[16];
; 139  : 	while (next) {

	ldr         x8,[sp,#8]
	cmp         x8,#0
	beq         |$LN3@AuDevFSAdd|

; 140  : 		int i;
; 141  : 		for (i = 0; i < 16; i++) {

	mov         w8,#0
	str         w8,[sp]
	b           |$LN6@AuDevFSAdd|
|$LN4@AuDevFSAdd|
	ldr         w8,[sp]
	add         w8,w8,#1
	str         w8,[sp]
|$LN6@AuDevFSAdd|
	ldr         w8,[sp]
	cmp         w8,#0x10
	bge         |$LN5@AuDevFSAdd|

; 142  : 			if (next[i] == '/' || next[i] == '\0')

	ldr         w8,[sp]
	sxtw        x9,w8
	mov         x8,#1
	mul         x9,x9,x8
	ldr         x8,[sp,#8]
	add         x8,x8,x9
	ldrsb       w8,[x8]
	mov         w8,w8
	cmp         w8,#0x2F
	beq         |$LN13@AuDevFSAdd|
	ldr         w8,[sp]
	sxtw        x9,w8
	mov         x8,#1
	mul         x9,x9,x8
	ldr         x8,[sp,#8]
	add         x8,x8,x9
	ldrsb       w8,[x8]
	mov         w8,w8
	cmp         w8,#0
	bne         |$LN12@AuDevFSAdd|
|$LN13@AuDevFSAdd|

; 143  : 				break;

	b           |$LN5@AuDevFSAdd|
|$LN12@AuDevFSAdd|

; 144  : 			pathname[i] = next[i];

	ldr         w8,[sp]
	sxtw        x9,w8
	mov         x8,#1
	mul         x9,x9,x8
	ldr         x8,[sp,#8]
	add         x10,x8,x9
	ldr         w8,[sp]
	sxtw        x9,w8
	mov         x8,#1
	mul         x9,x9,x8
	add         x8,sp,#0x48
	add         x9,x8,x9
	ldrsb       w8,[x10]
	strb        w8,[x9]

; 145  : 		}

	b           |$LN4@AuDevFSAdd|
|$LN5@AuDevFSAdd|

; 146  : 		pathname[i] = 0;

	ldr         w8,[sp]
	sxtw        x9,w8
	mov         x8,#1
	mul         x9,x9,x8
	add         x8,sp,#0x48
	add         x9,x8,x9
	mov         w8,#0
	strb        w8,[x9]

; 147  : 
; 148  : 		for (int j = 0; j < first_list->childs->pointer; j++) {

	mov         w8,#0
	str         w8,[sp,#0x10]
	b           |$LN9@AuDevFSAdd|
|$LN7@AuDevFSAdd|
	ldr         w8,[sp,#0x10]
	add         w8,w8,#1
	str         w8,[sp,#0x10]
|$LN9@AuDevFSAdd|
	ldr         x8,[sp,#0x18]
	ldr         x8,[x8]
	ldr         w9,[x8]
	ldr         w8,[sp,#0x10]
	cmp         w8,w9
	bhs         |$LN8@AuDevFSAdd|

; 149  : 			AuVFSNode* node_ = (AuVFSNode*)list_get_at(first_list->childs, j);

	ldr         x8,[sp,#0x18]
	ldr         w1,[sp,#0x10]
	ldr         x0,[x8]
	bl          list_get_at
	str         x0,[sp,#0x20]

; 150  : 			if (strcmp(node_->filename, pathname) == 0) {

	ldr         x0,[sp,#0x20]
	add         x1,sp,#0x48
	bl          strcmp
	mov         w0,w0
	cmp         w0,#0
	bne         |$LN14@AuDevFSAdd|

; 151  : 				if (node_->flags & FS_FLAG_DIRECTORY)

	ldr         x8,[sp,#0x20]
	add         x8,x8,#0x40
	ldrh        w8,[x8]
	mov         w8,w8
	tbz         x8,#1,|$LN15@AuDevFSAdd|

; 152  : 					first_list = (AuVFSContainer*)node_->device;

	ldr         x8,[sp,#0x20]
	add         x8,x8,#0x50
	ldr         x8,[x8]
	str         x8,[sp,#0x18]
|$LN15@AuDevFSAdd|
|$LN14@AuDevFSAdd|

; 153  : 			}
; 154  : 		}

	b           |$LN7@AuDevFSAdd|
|$LN8@AuDevFSAdd|

; 155  : 
; 156  : 		next = strchr(next + 1, '/');

	ldr         x8,[sp,#8]
	add         x0,x8,#1
	mov         w1,#0x2F
	bl          strchr
	str         x0,[sp,#8]

; 157  : 		if (next)

	ldr         x8,[sp,#8]
	cmp         x8,#0
	beq         |$LN16@AuDevFSAdd|

; 158  : 			next++;

	ldr         x8,[sp,#8]
	add         x8,x8,#1
	str         x8,[sp,#8]
|$LN16@AuDevFSAdd|

; 159  : 	}

	b           |$LN2@AuDevFSAdd|
|$LN3@AuDevFSAdd|

; 160  : 
; 161  : 	list_add(first_list->childs, file);

	ldr         x8,[sp,#0x18]
	ldr         x1,[sp,#0x40]
	ldr         x0,[x8]
	bl          list_add

; 162  : 
; 163  : 	return 1;

	mov         w0,#1
|$LN1@AuDevFSAdd|
	add         sp,sp,#0x60
	ldr         lr,[sp],#0x10
	ret

	ENDP  ; |AuDevFSAddFile|

; Function compile flags: /Odtpy
; File C:\Users\paras\source\repos\grep-name\XenevaOS\KernelAA64\Fs\Dev\devfs.c

	AREA	|.text$mn|, CODE, ARM64

|AuDevFSCreateFile| PROC

; 69   : int AuDevFSCreateFile(AuVFSNode* fs, char* path, uint8_t mode) {

|$LN20|
	str         lr,[sp,#-0x10]!
	sub         sp,sp,#0x60
	str         x0,[sp,#0x38]
	str         x1,[sp,#0x48]
	uxtb        w8,w2
	strb        w8,[sp,#4]

; 70   : 	AuVFSContainer* entries = (AuVFSContainer*)fs->device;

	ldr         x8,[sp,#0x38]
	add         x8,x8,#0x50
	ldr         x8,[x8]
	str         x8,[sp,#0x40]

; 71   : 	if (!entries)

	ldr         x8,[sp,#0x40]
	cmp         x8,#0
	bne         |$LN10@AuDevFSCre|

; 72   : 		return -1;

	mov         w0,#-1
	b           |$LN1@AuDevFSCre|
|$LN10@AuDevFSCre|

; 73   : 
; 74   : 	AuVFSNode* file = (AuVFSNode*)kmalloc(sizeof(AuVFSNode));

	mov         w0,#0xD0
	bl          kmalloc
	str         x0,[sp,#0x18]

; 75   : 	memset(file, 0, sizeof(AuVFSNode));

	mov         w2,#0xD0
	mov         w1,#0
	ldr         x0,[sp,#0x18]
	bl          memset

; 76   : 
; 77   : 	if (mode & FS_FLAG_DIRECTORY) {

	ldrb        w8,[sp,#4]
	mov         w8,w8
	tbz         x8,#1,|$LN11@AuDevFSCre|

; 78   : 		AuVFSContainer* list = (AuVFSContainer*)kmalloc(sizeof(AuVFSContainer));

	mov         w0,#8
	bl          kmalloc
	str         x0,[sp,#0x30]

; 79   : 		list->childs = initialize_list();

	bl          initialize_list
	ldr         x8,[sp,#0x30]
	str         x0,[x8]

; 80   : 		file->flags |= FS_FLAG_DIRECTORY;

	ldr         x8,[sp,#0x18]
	add         x8,x8,#0x40
	ldrh        w8,[x8]
	mov         w8,w8
	orr         w10,w8,#2
	ldr         x8,[sp,#0x18]
	add         x9,x8,#0x40
	uxth        w8,w10
	strh        w8,[x9]

; 81   : 		file->device = list;

	ldr         x8,[sp,#0x18]
	add         x9,x8,#0x50
	ldr         x8,[sp,#0x30]
	str         x8,[x9]

; 82   : 	}

	b           |$LN12@AuDevFSCre|
|$LN11@AuDevFSCre|

; 83   : 	else {
; 84   : 		file->flags = FS_FLAG_GENERAL | FS_FLAG_DEVICE;

	ldr         x8,[sp,#0x18]
	add         x9,x8,#0x40
	mov         w8,#0xC
	strh        w8,[x9]

; 85   : 		file->device = fs;

	ldr         x8,[sp,#0x18]
	add         x9,x8,#0x50
	ldr         x8,[sp,#0x38]
	str         x8,[x9]
|$LN12@AuDevFSCre|

; 86   : 	}
; 87   : 
; 88   : 
; 89   : 	char* next = strchr(path, '/');

	mov         w1,#0x2F
	ldr         x0,[sp,#0x48]
	bl          strchr
	str         x0,[sp,#8]

; 90   : 	if (next)

	ldr         x8,[sp,#8]
	cmp         x8,#0
	beq         |$LN13@AuDevFSCre|

; 91   : 		next++;

	ldr         x8,[sp,#8]
	add         x8,x8,#1
	str         x8,[sp,#8]
|$LN13@AuDevFSCre|

; 92   : 
; 93   : 	AuVFSContainer* first_list = entries;

	ldr         x8,[sp,#0x40]
	str         x8,[sp,#0x20]
|$LN2@AuDevFSCre|

; 94   : 	char pathname[16];
; 95   : 	while (next) {

	ldr         x8,[sp,#8]
	cmp         x8,#0
	beq         |$LN3@AuDevFSCre|

; 96   : 		int i;
; 97   : 		for (i = 0; i < 16; i++) {

	mov         w8,#0
	str         w8,[sp]
	b           |$LN6@AuDevFSCre|
|$LN4@AuDevFSCre|
	ldr         w8,[sp]
	add         w8,w8,#1
	str         w8,[sp]
|$LN6@AuDevFSCre|
	ldr         w8,[sp]
	cmp         w8,#0x10
	bge         |$LN5@AuDevFSCre|

; 98   : 			if (next[i] == '/' || next[i] == '\0')

	ldr         w8,[sp]
	sxtw        x9,w8
	mov         x8,#1
	mul         x9,x9,x8
	ldr         x8,[sp,#8]
	add         x8,x8,x9
	ldrsb       w8,[x8]
	mov         w8,w8
	cmp         w8,#0x2F
	beq         |$LN15@AuDevFSCre|
	ldr         w8,[sp]
	sxtw        x9,w8
	mov         x8,#1
	mul         x9,x9,x8
	ldr         x8,[sp,#8]
	add         x8,x8,x9
	ldrsb       w8,[x8]
	mov         w8,w8
	cmp         w8,#0
	bne         |$LN14@AuDevFSCre|
|$LN15@AuDevFSCre|

; 99   : 				break;

	b           |$LN5@AuDevFSCre|
|$LN14@AuDevFSCre|

; 100  : 			pathname[i] = next[i];

	ldr         w8,[sp]
	sxtw        x9,w8
	mov         x8,#1
	mul         x9,x9,x8
	ldr         x8,[sp,#8]
	add         x10,x8,x9
	ldr         w8,[sp]
	sxtw        x9,w8
	mov         x8,#1
	mul         x9,x9,x8
	add         x8,sp,#0x50
	add         x9,x8,x9
	ldrsb       w8,[x10]
	strb        w8,[x9]

; 101  : 		}

	b           |$LN4@AuDevFSCre|
|$LN5@AuDevFSCre|

; 102  : 		pathname[i] = 0;

	ldr         w8,[sp]
	sxtw        x9,w8
	mov         x8,#1
	mul         x9,x9,x8
	add         x8,sp,#0x50
	add         x9,x8,x9
	mov         w8,#0
	strb        w8,[x9]

; 103  : 
; 104  : 		for (int j = 0; j < first_list->childs->pointer; j++) {

	mov         w8,#0
	str         w8,[sp,#0x10]
	b           |$LN9@AuDevFSCre|
|$LN7@AuDevFSCre|
	ldr         w8,[sp,#0x10]
	add         w8,w8,#1
	str         w8,[sp,#0x10]
|$LN9@AuDevFSCre|
	ldr         x8,[sp,#0x20]
	ldr         x8,[x8]
	ldr         w9,[x8]
	ldr         w8,[sp,#0x10]
	cmp         w8,w9
	bhs         |$LN8@AuDevFSCre|

; 105  : 			AuVFSNode* node_ = (AuVFSNode*)list_get_at(first_list->childs, j);

	ldr         x8,[sp,#0x20]
	ldr         w1,[sp,#0x10]
	ldr         x0,[x8]
	bl          list_get_at
	str         x0,[sp,#0x28]

; 106  : 			if (strcmp(node_->filename, pathname) == 0) {

	ldr         x0,[sp,#0x28]
	add         x1,sp,#0x50
	bl          strcmp
	mov         w0,w0
	cmp         w0,#0
	bne         |$LN16@AuDevFSCre|

; 107  : 				if (node_->flags & FS_FLAG_DIRECTORY)

	ldr         x8,[sp,#0x28]
	add         x8,x8,#0x40
	ldrh        w8,[x8]
	mov         w8,w8
	tbz         x8,#1,|$LN17@AuDevFSCre|

; 108  : 					first_list = (AuVFSContainer*)node_->device;

	ldr         x8,[sp,#0x28]
	add         x8,x8,#0x50
	ldr         x8,[x8]
	str         x8,[sp,#0x20]
|$LN17@AuDevFSCre|
|$LN16@AuDevFSCre|

; 109  : 			}
; 110  : 		}

	b           |$LN7@AuDevFSCre|
|$LN8@AuDevFSCre|

; 111  : 
; 112  : 		next = strchr(next + 1, '/');

	ldr         x8,[sp,#8]
	add         x0,x8,#1
	mov         w1,#0x2F
	bl          strchr
	str         x0,[sp,#8]

; 113  : 		if (next)

	ldr         x8,[sp,#8]
	cmp         x8,#0
	beq         |$LN18@AuDevFSCre|

; 114  : 			next++;

	ldr         x8,[sp,#8]
	add         x8,x8,#1
	str         x8,[sp,#8]
|$LN18@AuDevFSCre|

; 115  : 	}

	b           |$LN2@AuDevFSCre|
|$LN3@AuDevFSCre|

; 116  : 	strcpy(file->filename, pathname);

	ldr         x0,[sp,#0x18]
	add         x1,sp,#0x50
	bl          strcpy

; 117  : 	list_add(first_list->childs, file);

	ldr         x8,[sp,#0x20]
	ldr         x1,[sp,#0x18]
	ldr         x0,[x8]
	bl          list_add

; 118  : 	aa64_data_cache_clean_range(first_list, sizeof(list_t));

	mov         x1,#0x10
	ldr         x0,[sp,#0x20]
	bl          aa64_data_cache_clean_range

; 119  : 	return 1;

	mov         w0,#1
|$LN1@AuDevFSCre|
	add         sp,sp,#0x60
	ldr         lr,[sp],#0x10
	ret

	ENDP  ; |AuDevFSCreateFile|

; Function compile flags: /Odtpy
; File C:\Users\paras\source\repos\grep-name\XenevaOS\KernelAA64\Fs\Dev\devfs.c

	AREA	|.text$mn|, CODE, ARM64

|AuDeviceFsInitialize| PROC

; 46   : void AuDeviceFsInitialize() {

|$LN3|
	str         lr,[sp,#-0x10]!
	sub         sp,sp,#0x10

; 47   : 	AuVFSContainer* entries = (AuVFSContainer*)kmalloc(sizeof(AuVFSContainer));

	mov         w0,#8
	bl          kmalloc
	str         x0,[sp,#8]

; 48   : 	entries->childs = initialize_list();

	bl          initialize_list
	ldr         x8,[sp,#8]
	str         x0,[x8]

; 49   : 
; 50   : 	AuVFSNode* node = (AuVFSNode*)kmalloc(sizeof(AuVFSNode));

	mov         w0,#0xD0
	bl          kmalloc
	str         x0,[sp]

; 51   : 	memset(node, 0, sizeof(AuVFSNode));

	mov         w2,#0xD0
	mov         w1,#0
	ldr         x0,[sp]
	bl          memset

; 52   : 	strcpy(node->filename, "dev");

	ldr         x0,[sp]
	adrp        x8,|$SG3077|
	add         x1,x8,PageOffset(|$SG3077|)
	bl          strcpy

; 53   : 	node->device = entries;

	ldr         x8,[sp]
	add         x9,x8,#0x50
	ldr         x8,[sp,#8]
	str         x8,[x9]

; 54   : 	node->flags |= FS_FLAG_FILE_SYSTEM;

	ldr         x8,[sp]
	add         x8,x8,#0x40
	ldrh        w8,[x8]
	mov         w8,w8
	orr         w10,w8,#0x40
	ldr         x8,[sp]
	add         x9,x8,#0x40
	uxth        w8,w10
	strh        w8,[x9]

; 55   : 	node->open = AuDevFSOpen;

	ldr         x8,[sp]
	add         x9,x8,#0x60
	adrp        x8,AuDevFSOpen
	add         x8,x8,PageOffset(AuDevFSOpen)
	str         x8,[x9]

; 56   : 	AuVFSAddFileSystem(node);

	ldr         x0,[sp]
	bl          AuVFSAddFileSystem

; 57   : 
; 58   : 	AuDevInputInitialise();

	bl          AuDevInputInitialise

; 59   : 	AuTextOut("[aurora]: devfs initialized \r\n");

	adrp        x8,|$SG3078|
	add         x0,x8,PageOffset(|$SG3078|)
	bl          AuTextOut
	add         sp,sp,#0x10
	ldr         lr,[sp],#0x10
	ret

	ENDP  ; |AuDeviceFsInitialize|

	END
