; Listing generated by Microsoft (R) Optimizing Compiler Version 19.29.30159.0 

	TTL	C:\Users\paras\source\repos\grep-name\XenevaOS\KernelAA64\ARM64\Debug\devinput.obj
	ARM64

	AREA	|.drectve|, DRECTVE


	AREA	|.data|, DATA
	 COMMON	|mice_|, 0x8

	 COMMON	|kybrd_|, 0x8

	EXPORT	|AuDevInputInitialise|
	EXPORT	|AuDevReadMice|
	EXPORT	|AuDevWriteMice|
	EXPORT	|AuDevReadKybrd|
	EXPORT	|AuDevWriteKybrd|
	EXPORT	|AuDevInputMiceWrite|
	EXPORT	|AuDevInputMiceRead|
	EXPORT	|AuDevInputKybrdWrite|
	EXPORT	|AuDevInputKybrdRead|
	EXPORT	|AuDevMouseIoControl|
	IMPORT	|AuVFSFind|
	IMPORT	|AuDevFSAddFile|
	IMPORT	|strcpy|
	IMPORT	|memset|
	IMPORT	|memcpy|
	IMPORT	|kmalloc|
	IMPORT	|AuTextOut|

	AREA	|.pdata|, PDATA
|$pdata$AuDevInputInitialise| DCD imagerel |$LN4|
	DCD	0x1a00225
	;Flags[SingleProEpi] functionLength[548] RegF[0] RegI[0] H[0] frameChainReturn[UnChainedSavedLR] frameSize[48]
|$pdata$AuDevReadMice| DCD imagerel |$LN4|
	DCD	0x1200065
	;Flags[SingleProEpi] functionLength[100] RegF[0] RegI[0] H[0] frameChainReturn[UnChainedSavedLR] frameSize[32]
|$pdata$AuDevWriteMice| DCD imagerel |$LN4|
	DCD	0x1200049
	;Flags[SingleProEpi] functionLength[72] RegF[0] RegI[0] H[0] frameChainReturn[UnChainedSavedLR] frameSize[32]
|$pdata$AuDevReadKybrd| DCD imagerel |$LN4|
	DCD	0x1200065
	;Flags[SingleProEpi] functionLength[100] RegF[0] RegI[0] H[0] frameChainReturn[UnChainedSavedLR] frameSize[32]
|$pdata$AuDevWriteKybrd| DCD imagerel |$LN4|
	DCD	0x1200049
	;Flags[SingleProEpi] functionLength[72] RegF[0] RegI[0] H[0] frameChainReturn[UnChainedSavedLR] frameSize[32]
|$pdata$AuDevInputMiceWrite| DCD imagerel |$LN5|
	DCD	0x2200071
	;Flags[SingleProEpi] functionLength[112] RegF[0] RegI[0] H[0] frameChainReturn[UnChainedSavedLR] frameSize[64]
|$pdata$AuDevInputMiceRead| DCD imagerel |$LN5|
	DCD	0x2200081
	;Flags[SingleProEpi] functionLength[128] RegF[0] RegI[0] H[0] frameChainReturn[UnChainedSavedLR] frameSize[64]
|$pdata$AuDevInputKybrdWrite| DCD imagerel |$LN5|
	DCD	0x2200071
	;Flags[SingleProEpi] functionLength[112] RegF[0] RegI[0] H[0] frameChainReturn[UnChainedSavedLR] frameSize[64]
|$pdata$AuDevInputKybrdRead| DCD imagerel |$LN5|
	DCD	0x2200081
	;Flags[SingleProEpi] functionLength[128] RegF[0] RegI[0] H[0] frameChainReturn[UnChainedSavedLR] frameSize[64]
|$pdata$AuDevMouseIoControl| DCD imagerel |$LN9|
	DCD	0x1000055
	;Flags[SingleProEpi] functionLength[84] RegF[0] RegI[0] H[0] frameChainReturn[UnChained] frameSize[32]

	AREA	|.data|, DATA
|$SG3004| DCB	"/dev", 0x0
	%	11
|$SG3006| DCB	"[aurora]: critical error in devinput, no dev file system"
	DCB	" found ", 0xd, 0xa, 0x0
	%	2
|$SG3007| DCB	"mice", 0x0
	%	3
|$SG3008| DCB	"/", 0x0
	%	2
|$SG3009| DCB	"kybrd", 0x0
	%	2
|$SG3010| DCB	"/", 0x0
	%	6
|$SG3011| DCB	"[aurora]: device input : kybrd and mouse fs registerd ", 0xd
	DCB	0xa, 0x0
; Function compile flags: /Odtpy
; File C:\Users\paras\source\repos\grep-name\XenevaOS\KernelAA64\Fs\Dev\devinput.c

	AREA	|.text$mn|, CODE, ARM64

|AuDevMouseIoControl| PROC

; 162  : int AuDevMouseIoControl(AuVFSNode* file, int code, void* arg) {

|$LN9|
	sub         sp,sp,#0x20
	str         x0,[sp,#0x10]
	str         w1,[sp]
	str         x2,[sp,#8]

; 163  : 	if (!file)

	ldr         x8,[sp,#0x10]
	cmp         x8,#0
	bne         |$LN4@AuDevMouse|

; 164  : 		return 0;

	mov         w0,#0
	b           |$LN1@AuDevMouse|
|$LN4@AuDevMouse|

; 165  : 	AuFileIOControl* ioctl = (AuFileIOControl*)arg;

	ldr         x8,[sp,#8]
	str         x8,[sp,#0x18]

; 166  : 	if (!arg)

	ldr         x8,[sp,#8]
	cmp         x8,#0
	bne         |$LN5@AuDevMouse|

; 167  : 		return 0;

	mov         w0,#0
	b           |$LN1@AuDevMouse|
|$LN5@AuDevMouse|

; 168  : 	/*if (ioctl->syscall_magic != AURORA_SYSCALL_MAGIC)
; 169  : 		return 0;*/
; 170  : 
; 171  : 	switch (code)

	ldr         w8,[sp]
	str         w8,[sp,#4]

; 172  : 	{
; 173  : 	case MOUSE_IOCODE_SETPOS:
; 174  : #ifdef ARCH_X64
; 175  : 		AuPS2MouseSetPos(ioctl->uint_1, ioctl->uint_2);
; 176  : #endif
; 177  : 		break;
; 178  : 	default:
; 179  : 		break;
; 180  : 	}
; 181  : 
; 182  : 	return 1;

	mov         w0,#1
|$LN1@AuDevMouse|
	add         sp,sp,#0x20
	ret

	ENDP  ; |AuDevMouseIoControl|

; Function compile flags: /Odtpy
; File C:\Users\paras\source\repos\grep-name\XenevaOS\KernelAA64\Fs\Dev\devinput.c

	AREA	|.text$mn|, CODE, ARM64

|AuDevInputKybrdRead| PROC

; 145  : size_t AuDevInputKybrdRead(AuVFSNode* fs, AuVFSNode* file, uint64_t* buffer, uint32_t length) {

|$LN5|
	str         lr,[sp,#-0x10]!
	sub         sp,sp,#0x30
	str         x0,[sp,#0x20]
	str         x1,[sp,#8]
	str         x2,[sp,#0x10]
	str         w3,[sp]

; 146  : 	if (!file)

	ldr         x8,[sp,#8]
	cmp         x8,#0
	bne         |$LN2@AuDevInput|

; 147  : 		return 0;

	mov         x0,#0
	b           |$LN1@AuDevInput|
|$LN2@AuDevInput|

; 148  : 	if (!buffer)

	ldr         x8,[sp,#0x10]
	cmp         x8,#0
	bne         |$LN3@AuDevInput|

; 149  : 		return 0;

	mov         x0,#0
	b           |$LN1@AuDevInput|
|$LN3@AuDevInput|

; 150  : 	void* key_buf = file->device;

	ldr         x8,[sp,#8]
	add         x8,x8,#0x50
	ldr         x8,[x8]
	str         x8,[sp,#0x18]

; 151  : 	memcpy(buffer, key_buf, sizeof(AuInputMessage));

	mov         x2,#0x20
	ldr         x1,[sp,#0x18]
	ldr         x0,[sp,#0x10]
	bl          memcpy

; 152  : 	memset(key_buf, 0, sizeof(AuInputMessage));

	mov         w2,#0x20
	mov         w1,#0
	ldr         x0,[sp,#0x18]
	bl          memset

; 153  : 	return (sizeof(AuInputMessage));

	mov         x0,#0x20
|$LN1@AuDevInput|
	add         sp,sp,#0x30
	ldr         lr,[sp],#0x10
	ret

	ENDP  ; |AuDevInputKybrdRead|

; Function compile flags: /Odtpy
; File C:\Users\paras\source\repos\grep-name\XenevaOS\KernelAA64\Fs\Dev\devinput.c

	AREA	|.text$mn|, CODE, ARM64

|AuDevInputKybrdWrite| PROC

; 128  : size_t AuDevInputKybrdWrite(AuVFSNode* fs, AuVFSNode* file, uint64_t* buffer, uint32_t length) {

|$LN5|
	str         lr,[sp,#-0x10]!
	sub         sp,sp,#0x30
	str         x0,[sp,#0x20]
	str         x1,[sp,#8]
	str         x2,[sp,#0x10]
	str         w3,[sp]

; 129  : 	if (!file)

	ldr         x8,[sp,#8]
	cmp         x8,#0
	bne         |$LN2@AuDevInput|

; 130  : 		return 0;

	mov         x0,#0
	b           |$LN1@AuDevInput|
|$LN2@AuDevInput|

; 131  : 	if (!buffer)

	ldr         x8,[sp,#0x10]
	cmp         x8,#0
	bne         |$LN3@AuDevInput|

; 132  : 		return 0;

	mov         x0,#0
	b           |$LN1@AuDevInput|
|$LN3@AuDevInput|

; 133  : 	void* key_buf = file->device;

	ldr         x8,[sp,#8]
	add         x8,x8,#0x50
	ldr         x8,[x8]
	str         x8,[sp,#0x18]

; 134  : 	memcpy(key_buf, buffer, sizeof(AuInputMessage));

	mov         x2,#0x20
	ldr         x1,[sp,#0x10]
	ldr         x0,[sp,#0x18]
	bl          memcpy

; 135  : 	return (sizeof(AuInputMessage));

	mov         x0,#0x20
|$LN1@AuDevInput|
	add         sp,sp,#0x30
	ldr         lr,[sp],#0x10
	ret

	ENDP  ; |AuDevInputKybrdWrite|

; Function compile flags: /Odtpy
; File C:\Users\paras\source\repos\grep-name\XenevaOS\KernelAA64\Fs\Dev\devinput.c

	AREA	|.text$mn|, CODE, ARM64

|AuDevInputMiceRead| PROC

; 110  : size_t AuDevInputMiceRead(AuVFSNode* fs, AuVFSNode* file, uint64_t* buffer, uint32_t length) {

|$LN5|
	str         lr,[sp,#-0x10]!
	sub         sp,sp,#0x30
	str         x0,[sp,#0x20]
	str         x1,[sp,#8]
	str         x2,[sp,#0x10]
	str         w3,[sp]

; 111  : 	if (!file)

	ldr         x8,[sp,#8]
	cmp         x8,#0
	bne         |$LN2@AuDevInput|

; 112  : 		return 0;

	mov         x0,#0
	b           |$LN1@AuDevInput|
|$LN2@AuDevInput|

; 113  : 	if (!buffer)

	ldr         x8,[sp,#0x10]
	cmp         x8,#0
	bne         |$LN3@AuDevInput|

; 114  : 		return 0;

	mov         x0,#0
	b           |$LN1@AuDevInput|
|$LN3@AuDevInput|

; 115  : 	void* mice_buf = file->device;

	ldr         x8,[sp,#8]
	add         x8,x8,#0x50
	ldr         x8,[x8]
	str         x8,[sp,#0x18]

; 116  : 	memcpy(buffer, mice_buf, sizeof(AuInputMessage));

	mov         x2,#0x20
	ldr         x1,[sp,#0x18]
	ldr         x0,[sp,#0x10]
	bl          memcpy

; 117  : 	memset(mice_buf, 0, sizeof(AuInputMessage));

	mov         w2,#0x20
	mov         w1,#0
	ldr         x0,[sp,#0x18]
	bl          memset

; 118  : 	return (sizeof(AuInputMessage));

	mov         x0,#0x20
|$LN1@AuDevInput|
	add         sp,sp,#0x30
	ldr         lr,[sp],#0x10
	ret

	ENDP  ; |AuDevInputMiceRead|

; Function compile flags: /Odtpy
; File C:\Users\paras\source\repos\grep-name\XenevaOS\KernelAA64\Fs\Dev\devinput.c

	AREA	|.text$mn|, CODE, ARM64

|AuDevInputMiceWrite| PROC

; 93   : size_t AuDevInputMiceWrite(AuVFSNode* fs, AuVFSNode* file, uint64_t* buffer, uint32_t length) {

|$LN5|
	str         lr,[sp,#-0x10]!
	sub         sp,sp,#0x30
	str         x0,[sp,#0x20]
	str         x1,[sp,#8]
	str         x2,[sp,#0x10]
	str         w3,[sp]

; 94   : 	if (!file)

	ldr         x8,[sp,#8]
	cmp         x8,#0
	bne         |$LN2@AuDevInput|

; 95   : 		return 0;

	mov         x0,#0
	b           |$LN1@AuDevInput|
|$LN2@AuDevInput|

; 96   : 	if (!buffer)

	ldr         x8,[sp,#0x10]
	cmp         x8,#0
	bne         |$LN3@AuDevInput|

; 97   : 		return 0;

	mov         x0,#0
	b           |$LN1@AuDevInput|
|$LN3@AuDevInput|

; 98   : 	void* mice_buf = file->device;

	ldr         x8,[sp,#8]
	add         x8,x8,#0x50
	ldr         x8,[x8]
	str         x8,[sp,#0x18]

; 99   : 	memcpy(mice_buf, buffer, sizeof(AuInputMessage));

	mov         x2,#0x20
	ldr         x1,[sp,#0x10]
	ldr         x0,[sp,#0x18]
	bl          memcpy

; 100  : 	return (sizeof(AuInputMessage));

	mov         x0,#0x20
|$LN1@AuDevInput|
	add         sp,sp,#0x30
	ldr         lr,[sp],#0x10
	ret

	ENDP  ; |AuDevInputMiceWrite|

; Function compile flags: /Odtpy
; File C:\Users\paras\source\repos\grep-name\XenevaOS\KernelAA64\Fs\Dev\devinput.c

	AREA	|.text$mn|, CODE, ARM64

|AuDevWriteKybrd| PROC

; 80   : void AuDevWriteKybrd(AuInputMessage* outmsg) {

|$LN4|
	str         lr,[sp,#-0x10]!
	sub         sp,sp,#0x10
	str         x0,[sp]

; 81   : 	if (!kybrd_)

	adrp        x8,kybrd_
	ldr         x8,[x8,PageOffset(kybrd_)]
	cmp         x8,#0
	bne         |$LN2@AuDevWrite|

; 82   : 		return;

	b           |$LN1@AuDevWrite|
|$LN2@AuDevWrite|

; 83   : 	memcpy(kybrd_->device, outmsg, sizeof(AuInputMessage));

	adrp        x8,kybrd_
	ldr         x8,[x8,PageOffset(kybrd_)]
	add         x8,x8,#0x50
	mov         x2,#0x20
	ldr         x1,[sp]
	ldr         x0,[x8]
	bl          memcpy
|$LN1@AuDevWrite|
	add         sp,sp,#0x10
	ldr         lr,[sp],#0x10
	ret

	ENDP  ; |AuDevWriteKybrd|

; Function compile flags: /Odtpy
; File C:\Users\paras\source\repos\grep-name\XenevaOS\KernelAA64\Fs\Dev\devinput.c

	AREA	|.text$mn|, CODE, ARM64

|AuDevReadKybrd| PROC

; 69   : void AuDevReadKybrd(AuInputMessage* inputmsg) {

|$LN4|
	str         lr,[sp,#-0x10]!
	sub         sp,sp,#0x10
	str         x0,[sp]

; 70   : 	if (!kybrd_)

	adrp        x8,kybrd_
	ldr         x8,[x8,PageOffset(kybrd_)]
	cmp         x8,#0
	bne         |$LN2@AuDevReadK|

; 71   : 		return;

	b           |$LN1@AuDevReadK|
|$LN2@AuDevReadK|

; 72   : 	memcpy(inputmsg, kybrd_->device, sizeof(AuInputMessage));

	adrp        x8,kybrd_
	ldr         x8,[x8,PageOffset(kybrd_)]
	add         x8,x8,#0x50
	mov         x2,#0x20
	ldr         x1,[x8]
	ldr         x0,[sp]
	bl          memcpy

; 73   : 	memset(kybrd_->device, 0, sizeof(AuInputMessage));

	adrp        x8,kybrd_
	ldr         x8,[x8,PageOffset(kybrd_)]
	add         x8,x8,#0x50
	mov         w2,#0x20
	mov         w1,#0
	ldr         x0,[x8]
	bl          memset
|$LN1@AuDevReadK|
	add         sp,sp,#0x10
	ldr         lr,[sp],#0x10
	ret

	ENDP  ; |AuDevReadKybrd|

; Function compile flags: /Odtpy
; File C:\Users\paras\source\repos\grep-name\XenevaOS\KernelAA64\Fs\Dev\devinput.c

	AREA	|.text$mn|, CODE, ARM64

|AuDevWriteMice| PROC

; 58   : void AuDevWriteMice(AuInputMessage* outmsg) {

|$LN4|
	str         lr,[sp,#-0x10]!
	sub         sp,sp,#0x10
	str         x0,[sp]

; 59   : 	if (!mice_)

	adrp        x8,mice_
	ldr         x8,[x8,PageOffset(mice_)]
	cmp         x8,#0
	bne         |$LN2@AuDevWrite|

; 60   : 		return;

	b           |$LN1@AuDevWrite|
|$LN2@AuDevWrite|

; 61   : 	memcpy(mice_->device, outmsg, sizeof(AuInputMessage));

	adrp        x8,mice_
	ldr         x8,[x8,PageOffset(mice_)]
	add         x8,x8,#0x50
	mov         x2,#0x20
	ldr         x1,[sp]
	ldr         x0,[x8]
	bl          memcpy
|$LN1@AuDevWrite|
	add         sp,sp,#0x10
	ldr         lr,[sp],#0x10
	ret

	ENDP  ; |AuDevWriteMice|

; Function compile flags: /Odtpy
; File C:\Users\paras\source\repos\grep-name\XenevaOS\KernelAA64\Fs\Dev\devinput.c

	AREA	|.text$mn|, CODE, ARM64

|AuDevReadMice| PROC

; 47   : void AuDevReadMice(AuInputMessage* inputmsg) {

|$LN4|
	str         lr,[sp,#-0x10]!
	sub         sp,sp,#0x10
	str         x0,[sp]

; 48   : 	if (!mice_)

	adrp        x8,mice_
	ldr         x8,[x8,PageOffset(mice_)]
	cmp         x8,#0
	bne         |$LN2@AuDevReadM|

; 49   : 		return;

	b           |$LN1@AuDevReadM|
|$LN2@AuDevReadM|

; 50   : 	memcpy(inputmsg, mice_->device, sizeof(AuInputMessage));

	adrp        x8,mice_
	ldr         x8,[x8,PageOffset(mice_)]
	add         x8,x8,#0x50
	mov         x2,#0x20
	ldr         x1,[x8]
	ldr         x0,[sp]
	bl          memcpy

; 51   : 	memset(mice_->device, 0, sizeof(AuInputMessage));

	adrp        x8,mice_
	ldr         x8,[x8,PageOffset(mice_)]
	add         x8,x8,#0x50
	mov         w2,#0x20
	mov         w1,#0
	ldr         x0,[x8]
	bl          memset
|$LN1@AuDevReadM|
	add         sp,sp,#0x10
	ldr         lr,[sp],#0x10
	ret

	ENDP  ; |AuDevReadMice|

; Function compile flags: /Odtpy
; File C:\Users\paras\source\repos\grep-name\XenevaOS\KernelAA64\Fs\Dev\devinput.c

	AREA	|.text$mn|, CODE, ARM64

|AuDevInputInitialise| PROC

; 189  : void AuDevInputInitialise() {

|$LN4|
	str         lr,[sp,#-0x10]!
	sub         sp,sp,#0x20

; 190  : 	AuVFSNode* devfs = AuVFSFind("/dev");

	adrp        x8,|$SG3004|
	add         x0,x8,PageOffset(|$SG3004|)
	bl          AuVFSFind
	str         x0,[sp,#8]

; 191  : 	if (!devfs) {

	ldr         x8,[sp,#8]
	cmp         x8,#0
	bne         |$LN2@AuDevInput|

; 192  : 		AuTextOut("[aurora]: critical error in devinput, no dev file system found \r\n");

	adrp        x8,|$SG3006|
	add         x0,x8,PageOffset(|$SG3006|)
	bl          AuTextOut

; 193  : 		return;

	b           |$LN1@AuDevInput|
|$LN2@AuDevInput|

; 194  : 	}
; 195  : 	void* mice_input_buf = kmalloc(sizeof(AuInputMessage));

	mov         w0,#0x20
	bl          kmalloc
	str         x0,[sp,#0x10]

; 196  : 	memset(mice_input_buf, 0, sizeof(AuInputMessage));

	mov         w2,#0x20
	mov         w1,#0
	ldr         x0,[sp,#0x10]
	bl          memset

; 197  : 	/* avoiding using pipe for latency issue */
; 198  : 	AuVFSNode* node = (AuVFSNode*)kmalloc(sizeof(AuVFSNode));

	mov         w0,#0xD0
	bl          kmalloc
	str         x0,[sp]

; 199  : 	memset(node, 0, sizeof(AuVFSNode));

	mov         w2,#0xD0
	mov         w1,#0
	ldr         x0,[sp]
	bl          memset

; 200  : 	strcpy(node->filename, "mice");

	ldr         x0,[sp]
	adrp        x8,|$SG3007|
	add         x1,x8,PageOffset(|$SG3007|)
	bl          strcpy

; 201  : 	node->flags |= FS_FLAG_DEVICE;

	ldr         x8,[sp]
	add         x8,x8,#0x40
	ldrh        w8,[x8]
	mov         w8,w8
	orr         w10,w8,#8
	ldr         x8,[sp]
	add         x9,x8,#0x40
	uxth        w8,w10
	strh        w8,[x9]

; 202  : 	node->device = mice_input_buf;

	ldr         x8,[sp]
	add         x9,x8,#0x50
	ldr         x8,[sp,#0x10]
	str         x8,[x9]

; 203  : 	node->read = AuDevInputMiceRead;

	ldr         x8,[sp]
	add         x9,x8,#0x70
	adrp        x8,AuDevInputMiceRead
	add         x8,x8,PageOffset(AuDevInputMiceRead)
	str         x8,[x9]

; 204  : 	node->write =AuDevInputMiceWrite;

	ldr         x8,[sp]
	add         x9,x8,#0x78
	adrp        x8,AuDevInputMiceWrite
	add         x8,x8,PageOffset(AuDevInputMiceWrite)
	str         x8,[x9]

; 205  : 	node->open = 0;

	ldr         x8,[sp]
	add         x9,x8,#0x60
	mov         x8,#0
	str         x8,[x9]

; 206  : 	node->close = 0;

	ldr         x8,[sp]
	add         x9,x8,#0xA0
	mov         x8,#0
	str         x8,[x9]

; 207  : 	node->iocontrol = AuDevMouseIoControl;

	ldr         x8,[sp]
	add         x9,x8,#0xC8
	adrp        x8,AuDevMouseIoControl
	add         x8,x8,PageOffset(AuDevMouseIoControl)
	str         x8,[x9]

; 208  : 	mice_ = node;

	adrp        x9,mice_
	ldr         x8,[sp]
	str         x8,[x9,PageOffset(mice_)]

; 209  : 	AuDevFSAddFile(devfs, "/", mice_);

	adrp        x8,mice_
	ldr         x2,[x8,PageOffset(mice_)]
	adrp        x8,|$SG3008|
	add         x1,x8,PageOffset(|$SG3008|)
	ldr         x0,[sp,#8]
	bl          AuDevFSAddFile

; 210  : 
; 211  : 	void* keybuf = kmalloc(sizeof(AuInputMessage));

	mov         w0,#0x20
	bl          kmalloc
	str         x0,[sp,#0x18]

; 212  : 	memset(keybuf, 0, sizeof(AuInputMessage));

	mov         w2,#0x20
	mov         w1,#0
	ldr         x0,[sp,#0x18]
	bl          memset

; 213  : 
; 214  : 	kybrd_ = (AuVFSNode*)kmalloc(sizeof(AuVFSNode));

	mov         w0,#0xD0
	bl          kmalloc
	adrp        x8,kybrd_
	str         x0,[x8,PageOffset(kybrd_)]

; 215  : 	memset(kybrd_, 0, sizeof(AuVFSNode));

	mov         w2,#0xD0
	mov         w1,#0
	adrp        x8,kybrd_
	ldr         x0,[x8,PageOffset(kybrd_)]
	bl          memset

; 216  : 	strcpy(kybrd_->filename, "kybrd");

	adrp        x8,kybrd_
	ldr         x0,[x8,PageOffset(kybrd_)]
	adrp        x8,|$SG3009|
	add         x1,x8,PageOffset(|$SG3009|)
	bl          strcpy

; 217  : 	kybrd_->flags |= FS_FLAG_DEVICE;

	adrp        x8,kybrd_
	ldr         x8,[x8,PageOffset(kybrd_)]
	add         x8,x8,#0x40
	ldrh        w8,[x8]
	mov         w8,w8
	orr         w10,w8,#8
	adrp        x8,kybrd_
	ldr         x8,[x8,PageOffset(kybrd_)]
	add         x9,x8,#0x40
	uxth        w8,w10
	strh        w8,[x9]

; 218  : 	kybrd_->device = keybuf;

	adrp        x8,kybrd_
	ldr         x8,[x8,PageOffset(kybrd_)]
	add         x9,x8,#0x50
	ldr         x8,[sp,#0x18]
	str         x8,[x9]

; 219  : 	kybrd_->read = AuDevInputKybrdRead;

	adrp        x8,kybrd_
	ldr         x8,[x8,PageOffset(kybrd_)]
	add         x9,x8,#0x70
	adrp        x8,AuDevInputKybrdRead
	add         x8,x8,PageOffset(AuDevInputKybrdRead)
	str         x8,[x9]

; 220  : 	kybrd_->write = AuDevInputKybrdWrite;

	adrp        x8,kybrd_
	ldr         x8,[x8,PageOffset(kybrd_)]
	add         x9,x8,#0x78
	adrp        x8,AuDevInputKybrdWrite
	add         x8,x8,PageOffset(AuDevInputKybrdWrite)
	str         x8,[x9]

; 221  : 	AuDevFSAddFile(devfs, "/", kybrd_);

	adrp        x8,kybrd_
	ldr         x2,[x8,PageOffset(kybrd_)]
	adrp        x8,|$SG3010|
	add         x1,x8,PageOffset(|$SG3010|)
	ldr         x0,[sp,#8]
	bl          AuDevFSAddFile

; 222  : 	AuTextOut("[aurora]: device input : kybrd and mouse fs registerd \r\n");

	adrp        x8,|$SG3011|
	add         x0,x8,PageOffset(|$SG3011|)
	bl          AuTextOut
|$LN1@AuDevInput|
	add         sp,sp,#0x20
	ldr         lr,[sp],#0x10
	ret

	ENDP  ; |AuDevInputInitialise|

	END
