; Listing generated by Microsoft (R) Optimizing Compiler Version 19.29.30159.0 

	TTL	C:\Users\paras\source\repos\grep-name\XenevaOS\KernelAA64\ARM64\Debug\dlmalloc.obj
	ARM64

	AREA	|.drectve|, DRECTVE


	AREA	|.bss|, NOINIT
|mparams| %	0x30
|_gm_|	%	0x3a8
	EXPORT	|dlmalloc|
	EXPORT	|dlfree|
	EXPORT	|dlcalloc|
	EXPORT	|dlrealloc|
	EXPORT	|dlrealloc_in_place|
	EXPORT	|dlmemalign|
	EXPORT	|dlposix_memalign|
	EXPORT	|dlvalloc|
	EXPORT	|dlmallopt|
	EXPORT	|dlmalloc_footprint|
	EXPORT	|dlmalloc_max_footprint|
	EXPORT	|dlmalloc_footprint_limit|
	EXPORT	|dlmalloc_set_footprint_limit|
	EXPORT	|dlindependent_calloc|
	EXPORT	|dlindependent_comalloc|
	EXPORT	|dlbulk_free|
	EXPORT	|dlpvalloc|
	EXPORT	|dlmalloc_trim|
	EXPORT	|dlmalloc_usable_size|
	IMPORT	|memset|
	IMPORT	|memcpy|
	IMPORT	|au_request_page|

	AREA	|.pdata|, PDATA
|$pdata$dlmalloc| DCD imagerel |$LN46|
	DCD	0x82007f5
	;Flags[SingleProEpi] functionLength[2036] RegF[0] RegI[0] H[0] frameChainReturn[UnChainedSavedLR] frameSize[256]
|$pdata$dlfree| DCD imagerel |$LN187|
	DCD	0xc20118d
	;Flags[SingleProEpi] functionLength[4492] RegF[0] RegI[0] H[0] frameChainReturn[UnChainedSavedLR] frameSize[384]
|$pdata$dlcalloc| DCD imagerel |$LN7|
	DCD	0x1a000d1
	;Flags[SingleProEpi] functionLength[208] RegF[0] RegI[0] H[0] frameChainReturn[UnChainedSavedLR] frameSize[48]
|$pdata$dlrealloc| DCD imagerel |$LN17|
	DCD	0x3a00179
	;Flags[SingleProEpi] functionLength[376] RegF[0] RegI[0] H[0] frameChainReturn[UnChainedSavedLR] frameSize[112]
|$pdata$dlrealloc_in_place| DCD imagerel |$LN10|
	DCD	0x2a000c9
	;Flags[SingleProEpi] functionLength[200] RegF[0] RegI[0] H[0] frameChainReturn[UnChainedSavedLR] frameSize[80]
|$pdata$dlmemalign| DCD imagerel |$LN4|
	DCD	0x1200049
	;Flags[SingleProEpi] functionLength[72] RegF[0] RegI[0] H[0] frameChainReturn[UnChainedSavedLR] frameSize[32]
|$pdata$dlposix_memalign| DCD imagerel |$LN12|
	DCD	0x2200115
	;Flags[SingleProEpi] functionLength[276] RegF[0] RegI[0] H[0] frameChainReturn[UnChainedSavedLR] frameSize[64]
|$pdata$dlvalloc| DCD imagerel |$LN4|
	DCD	0x1200045
	;Flags[SingleProEpi] functionLength[68] RegF[0] RegI[0] H[0] frameChainReturn[UnChainedSavedLR] frameSize[32]
|$pdata$dlmallopt| DCD imagerel |$LN3|
	DCD	0x1200031
	;Flags[SingleProEpi] functionLength[48] RegF[0] RegI[0] H[0] frameChainReturn[UnChainedSavedLR] frameSize[32]
|$pdata$dlmalloc_footprint_limit| DCD imagerel |$LN5|
	DCD	0x80003d
	;Flags[SingleProEpi] functionLength[60] RegF[0] RegI[0] H[0] frameChainReturn[UnChained] frameSize[16]
|$pdata$dlmalloc_set_footprint_limit| DCD imagerel |$LN6|
	DCD	0x80009d
	;Flags[SingleProEpi] functionLength[156] RegF[0] RegI[0] H[0] frameChainReturn[UnChained] frameSize[16]
|$pdata$dlindependent_calloc| DCD imagerel |$LN3|
	DCD	0x1a00045
	;Flags[SingleProEpi] functionLength[68] RegF[0] RegI[0] H[0] frameChainReturn[UnChainedSavedLR] frameSize[48]
|$pdata$dlindependent_comalloc| DCD imagerel |$LN3|
	DCD	0x1a0003d
	;Flags[SingleProEpi] functionLength[60] RegF[0] RegI[0] H[0] frameChainReturn[UnChainedSavedLR] frameSize[48]
|$pdata$dlbulk_free| DCD imagerel |$LN3|
	DCD	0x1200031
	;Flags[SingleProEpi] functionLength[48] RegF[0] RegI[0] H[0] frameChainReturn[UnChainedSavedLR] frameSize[32]
|$pdata$dlpvalloc| DCD imagerel |$LN4|
	DCD	0x1200061
	;Flags[SingleProEpi] functionLength[96] RegF[0] RegI[0] H[0] frameChainReturn[UnChainedSavedLR] frameSize[32]
|$pdata$dlmalloc_trim| DCD imagerel |$LN5|
	DCD	0x120005d
	;Flags[SingleProEpi] functionLength[92] RegF[0] RegI[0] H[0] frameChainReturn[UnChainedSavedLR] frameSize[32]
|$pdata$dlmalloc_usable_size| DCD imagerel |$LN7|
	DCD	0x100008d
	;Flags[SingleProEpi] functionLength[140] RegF[0] RegI[0] H[0] frameChainReturn[UnChained] frameSize[32]

	AREA	|.pdata|, PDATA
|$pdata$segment_holding| DCD imagerel |segment_holding|
	DCD	0x1000089
	;Flags[SingleProEpi] functionLength[136] RegF[0] RegI[0] H[0] frameChainReturn[UnChained] frameSize[32]

	AREA	|.pdata|, PDATA
|$pdata$init_mparams| DCD imagerel |init_mparams|
	DCD	0x10000f1
	;Flags[SingleProEpi] functionLength[240] RegF[0] RegI[0] H[0] frameChainReturn[UnChained] frameSize[32]
|$pdata$change_mparam| DCD imagerel |change_mparam|
	DCD	0x1a00105
	;Flags[SingleProEpi] functionLength[260] RegF[0] RegI[0] H[0] frameChainReturn[UnChainedSavedLR] frameSize[48]
|$pdata$mmap_alloc| DCD imagerel |mmap_alloc|
	DCD	0x2800229
	;Flags[SingleProEpi] functionLength[552] RegF[0] RegI[0] H[0] frameChainReturn[UnChained] frameSize[80]
|$pdata$mmap_resize| DCD imagerel |mmap_resize|
	DCD	0x30001e9
	;Flags[SingleProEpi] functionLength[488] RegF[0] RegI[0] H[0] frameChainReturn[UnChained] frameSize[96]
|$pdata$init_top| DCD imagerel |init_top|
	DCD	0x180010d
	;Flags[SingleProEpi] functionLength[268] RegF[0] RegI[0] H[0] frameChainReturn[UnChained] frameSize[48]
|$pdata$init_bins| DCD imagerel |init_bins|
	DCD	0x100007d
	;Flags[SingleProEpi] functionLength[124] RegF[0] RegI[0] H[0] frameChainReturn[UnChained] frameSize[32]
|$pdata$prepend_alloc| DCD imagerel |prepend_alloc|
	DCD	0xa800ba9
	;Flags[SingleProEpi] functionLength[2984] RegF[0] RegI[0] H[0] frameChainReturn[UnChained] frameSize[336]
|$pdata$add_segment| DCD imagerel |add_segment|
	DCD	0xaa00721
	;Flags[SingleProEpi] functionLength[1824] RegF[0] RegI[0] H[0] frameChainReturn[UnChainedSavedLR] frameSize[336]
|$pdata$sys_alloc| DCD imagerel |sys_alloc|
	DCD	0x9a00b75
	;Flags[SingleProEpi] functionLength[2932] RegF[0] RegI[0] H[0] frameChainReturn[UnChainedSavedLR] frameSize[304]
|$pdata$release_unused_segments| DCD imagerel |release_unused_segments|
	DCD	0x800091d
	;Flags[SingleProEpi] functionLength[2332] RegF[0] RegI[0] H[0] frameChainReturn[UnChained] frameSize[256]
|$pdata$sys_trim| DCD imagerel |sys_trim|
	DCD	0x3a00321
	;Flags[SingleProEpi] functionLength[800] RegF[0] RegI[0] H[0] frameChainReturn[UnChainedSavedLR] frameSize[112]
|$pdata$dispose_chunk| DCD imagerel |dispose_chunk|
	DCD	0xc001191
	;Flags[SingleProEpi] functionLength[4496] RegF[0] RegI[0] H[0] frameChainReturn[UnChained] frameSize[384]
|$pdata$tmalloc_large| DCD imagerel |tmalloc_large|
	DCD	0x9800c29
	;Flags[SingleProEpi] functionLength[3112] RegF[0] RegI[0] H[0] frameChainReturn[UnChained] frameSize[304]
|$pdata$tmalloc_small| DCD imagerel |tmalloc_small|
	DCD	0x60006d5
	;Flags[SingleProEpi] functionLength[1748] RegF[0] RegI[0] H[0] frameChainReturn[UnChained] frameSize[192]
|$pdata$try_realloc_chunk| DCD imagerel |try_realloc_chunk|
	DCD	0x9200b21
	;Flags[SingleProEpi] functionLength[2848] RegF[0] RegI[0] H[0] frameChainReturn[UnChainedSavedLR] frameSize[288]
|$pdata$internal_memalign| DCD imagerel |internal_memalign|
	DCD	0x52003f5
	;Flags[SingleProEpi] functionLength[1012] RegF[0] RegI[0] H[0] frameChainReturn[UnChainedSavedLR] frameSize[160]
|$pdata$ialloc| DCD imagerel |ialloc|
	DCD	0x620040d
	;Flags[SingleProEpi] functionLength[1036] RegF[0] RegI[0] H[0] frameChainReturn[UnChainedSavedLR] frameSize[192]
|$pdata$internal_bulk_free| DCD imagerel |internal_bulk_free|
	DCD	0x3a001f9
	;Flags[SingleProEpi] functionLength[504] RegF[0] RegI[0] H[0] frameChainReturn[UnChainedSavedLR] frameSize[112]
; Function compile flags: /Odtpy
; File C:\Users\paras\source\repos\grep-name\XenevaOS\KernelAA64\Mm\dlmalloc.c

	AREA	|.text$mn|, CODE, ARM64

|internal_bulk_free| PROC

; 5176 : static size_t internal_bulk_free(mstate m, void* array[], size_t nelem) {

	str         lr,[sp,#-0x10]!
	sub         sp,sp,#0x60
	str         x0,[sp,#0x20]
	str         x1,[sp,#0x28]
	str         x2,[sp,#0x50]

; 5177 :     size_t unfreed = 0;

	mov         x8,#0
	str         x8,[sp,#0x58]

; 5178 :     if (!PREACTION(m)) {

	mov         w8,#1
	cmp         w8,#0
	beq         |$LN8@internal_b|

; 5179 :         void** a;
; 5180 :         void** fence = &(array[nelem]);

	ldr         x9,[sp,#0x50]
	mov         x8,#8
	mul         x9,x9,x8
	ldr         x8,[sp,#0x28]
	add         x8,x8,x9
	str         x8,[sp,#0x38]

; 5181 :         for (a = array; a != fence; ++a) {

	ldr         x8,[sp,#0x28]
	str         x8,[sp,#8]
	b           |$LN4@internal_b|
|$LN2@internal_b|
	ldr         x8,[sp,#8]
	add         x8,x8,#8
	str         x8,[sp,#8]
|$LN4@internal_b|
	ldr         x9,[sp,#0x38]
	ldr         x8,[sp,#8]
	cmp         x8,x9
	beq         |$LN3@internal_b|

; 5182 :             void* mem = *a;

	ldr         x8,[sp,#8]
	ldr         x8,[x8]
	str         x8,[sp,#0x30]

; 5183 :             if (mem != 0) {

	ldr         x8,[sp,#0x30]
	cmp         x8,#0
	beq         |$LN9@internal_b|

; 5184 :                 mchunkptr p = mem2chunk(mem);

	ldr         x8,[sp,#0x30]
	sub         x8,x8,#0x10
	str         x8,[sp]

; 5185 :                 size_t psize = chunksize(p);

	ldr         x8,[sp]
	add         x8,x8,#8
	ldr         x8,[x8]
	and         x8,x8,#-8
	str         x8,[sp,#0x48]

; 5186 : #if FOOTERS
; 5187 :                 if (get_mstate_for(p) != m) {
; 5188 :                     ++unfreed;
; 5189 :                     continue;
; 5190 :                 }
; 5191 : #endif
; 5192 :                 check_inuse_chunk(m, p);
; 5193 :                 *a = 0;

	ldr         x9,[sp,#8]
	mov         x8,#0
	str         x8,[x9]

; 5194 :                 if (RTCHECK(ok_address(m, p) && ok_inuse(p))) {

	ldr         x8,[sp,#0x20]
	add         x8,x8,#0x18
	ldr         x9,[x8]
	ldr         x8,[sp]
	cmp         x8,x9
	blo         |$LN10@internal_b|
	ldr         x8,[sp]
	add         x8,x8,#8
	ldr         x8,[x8]
	and         x8,x8,#3
	cmp         x8,#1
	beq         |$LN10@internal_b|

; 5195 :                     void** b = a + 1; /* try to merge with next chunk */

	ldr         x8,[sp,#8]
	add         x8,x8,#8
	str         x8,[sp,#0x18]

; 5196 :                     mchunkptr next = next_chunk(p);

	ldr         x8,[sp]
	add         x8,x8,#8
	ldr         x8,[x8]
	and         x9,x8,#-8
	ldr         x8,[sp]
	add         x8,x8,x9
	str         x8,[sp,#0x40]

; 5197 :                     if (b != fence && *b == chunk2mem(next)) {

	ldr         x9,[sp,#0x38]
	ldr         x8,[sp,#0x18]
	cmp         x8,x9
	beq         |$LN12@internal_b|
	ldr         x8,[sp,#0x40]
	add         x9,x8,#0x10
	ldr         x8,[sp,#0x18]
	ldr         x8,[x8]
	cmp         x8,x9
	bne         |$LN12@internal_b|

; 5198 :                         size_t newsize = chunksize(next) + psize;

	ldr         x8,[sp,#0x40]
	add         x8,x8,#8
	ldr         x8,[x8]
	and         x9,x8,#-8
	ldr         x8,[sp,#0x48]
	add         x8,x9,x8
	str         x8,[sp,#0x10]

; 5199 :                         set_inuse(m, p, newsize);

	ldr         x8,[sp]
	add         x8,x8,#8
	ldr         x8,[x8]
	and         x9,x8,#1
	ldr         x8,[sp,#0x10]
	orr         x8,x9,x8
	orr         x9,x8,#2
	ldr         x8,[sp]
	add         x8,x8,#8
	str         x9,[x8]
	ldr         x9,[sp]
	ldr         x8,[sp,#0x10]
	add         x8,x9,x8
	add         x8,x8,#8
	ldr         x8,[x8]
	orr         x10,x8,#1
	ldr         x9,[sp]
	ldr         x8,[sp,#0x10]
	add         x8,x9,x8
	add         x8,x8,#8
	str         x10,[x8]

; 5200 :                         *b = chunk2mem(p);

	ldr         x8,[sp]
	add         x9,x8,#0x10
	ldr         x8,[sp,#0x18]
	str         x9,[x8]

; 5201 :                     }

	b           |$LN13@internal_b|
|$LN12@internal_b|

; 5202 :                     else
; 5203 :                         dispose_chunk(m, p, psize);

	ldr         x2,[sp,#0x48]
	ldr         x1,[sp]
	ldr         x0,[sp,#0x20]
	bl          dispose_chunk
|$LN13@internal_b|

; 5204 :                 }

	b           |$LN11@internal_b|
|$LN10@internal_b|
|$LN5@internal_b|

; 5205 :                 else {
; 5206 :                     CORRUPTION_ERROR_ACTION(m);

	b           |$LN5@internal_b|

; 5207 :                     break;

	b           |$LN3@internal_b|
|$LN11@internal_b|
|$LN9@internal_b|

; 5208 :                 }
; 5209 :             }
; 5210 :         }

	b           |$LN2@internal_b|
|$LN3@internal_b|

; 5211 :         if (should_trim(m, m->topsize))

	mov         w8,#0
	cmp         w8,#0
	beq         |$LN14@internal_b|

; 5212 :             sys_trim(m, 0);

	mov         x1,#0
	ldr         x0,[sp,#0x20]
	bl          sys_trim
|$LN14@internal_b|
|$LN8@internal_b|

; 5213 :         POSTACTION(m);
; 5214 :     }
; 5215 :     return unfreed;

	ldr         x0,[sp,#0x58]
	add         sp,sp,#0x60
	ldr         lr,[sp],#0x10
	ret

	ENDP  ; |internal_bulk_free|

; Function compile flags: /Odtpy
; File C:\Users\paras\source\repos\grep-name\XenevaOS\KernelAA64\Mm\dlmalloc.c

	AREA	|.text$mn|, CODE, ARM64

|ialloc| PROC

; 5054 :     void* chunks[]) {

	str         lr,[sp,#-0x10]!
	sub         sp,sp,#0xB0
	str         x0,[sp,#0x60]
	str         x1,[sp,#0x10]
	str         x2,[sp,#0x20]
	str         w3,[sp,#0x38]
	str         x4,[sp,#0x58]

; 5055 : 
; 5056 :     size_t    element_size;   /* chunksize of each element, if all same */
; 5057 :     size_t    contents_size;  /* total size of elements */
; 5058 :     size_t    array_size;     /* request size of pointer array */
; 5059 :     void* mem;            /* malloced aggregate space */
; 5060 :     mchunkptr p;              /* corresponding chunk */
; 5061 :     size_t    remainder_size; /* remaining bytes while splitting */
; 5062 :     void** marray;         /* either "chunks" or malloced ptr array */
; 5063 :     mchunkptr array_chunk;    /* chunk for malloced ptr array */
; 5064 :     flag_t    was_enabled;    /* to disable mmap */
; 5065 :     size_t    size;
; 5066 :     size_t    i;
; 5067 : 
; 5068 :     ensure_initialization();

	adrp        x8,mparams
	ldr         x8,[x8,PageOffset(mparams)]
	cmp         x8,#0
	bne         |$LN24@ialloc|
	bl          init_mparams
|$LN24@ialloc|

; 5069 :     /* compute array length, if needed */
; 5070 :     if (chunks != 0) {

	ldr         x8,[sp,#0x58]
	cmp         x8,#0
	beq         |$LN8@ialloc|

; 5071 :         if (n_elements == 0)

	ldr         x8,[sp,#0x10]
	cmp         x8,#0
	bne         |$LN10@ialloc|

; 5072 :             return chunks; /* nothing to do */

	ldr         x0,[sp,#0x58]
	b           |$LN1@ialloc|
|$LN10@ialloc|

; 5073 :         marray = chunks;

	ldr         x8,[sp,#0x58]
	str         x8,[sp,#0x40]

; 5074 :         array_size = 0;

	mov         x8,#0
	str         x8,[sp,#0x68]

; 5075 :     }

	b           |$LN9@ialloc|
|$LN8@ialloc|

; 5076 :     else {
; 5077 :         /* if empty req, must still return chunk representing empty array */
; 5078 :         if (n_elements == 0)

	ldr         x8,[sp,#0x10]
	cmp         x8,#0
	bne         |$LN11@ialloc|

; 5079 :             return (void**)internal_malloc(m, 0);

	mov         x0,#0
	bl          dlmalloc
	b           |$LN1@ialloc|
|$LN11@ialloc|

; 5080 :         marray = 0;

	mov         x8,#0
	str         x8,[sp,#0x40]

; 5081 :         array_size = request2size(n_elements * (sizeof(void*)));

	ldr         x9,[sp,#0x10]
	mov         x8,#8
	mul         x8,x9,x8
	cmp         x8,#0x17
	bhs         |$LN25@ialloc|
	mov         x8,#0x20
	str         x8,[sp,#0x78]
	b           |$LN26@ialloc|
|$LN25@ialloc|
	ldr         x9,[sp,#0x10]
	mov         x8,#8
	mul         x8,x9,x8
	add         x8,x8,#0x17
	and         x8,x8,#-0x10
	str         x8,[sp,#0x78]
|$LN26@ialloc|
	ldr         x8,[sp,#0x78]
	str         x8,[sp,#0x68]
|$LN9@ialloc|

; 5082 :     }
; 5083 : 
; 5084 :     /* compute total element size */
; 5085 :     if (opts & 0x1) { /* all-same-size */

	ldr         w8,[sp,#0x38]
	tbz         x8,#0,|$LN12@ialloc|

; 5086 :         element_size = request2size(*sizes);

	ldr         x8,[sp,#0x20]
	ldr         x8,[x8]
	cmp         x8,#0x17
	bhs         |$LN27@ialloc|
	mov         x8,#0x20
	str         x8,[sp,#0x80]
	b           |$LN28@ialloc|
|$LN27@ialloc|
	ldr         x8,[sp,#0x20]
	ldr         x8,[x8]
	add         x8,x8,#0x17
	and         x8,x8,#-0x10
	str         x8,[sp,#0x80]
|$LN28@ialloc|
	ldr         x8,[sp,#0x80]
	str         x8,[sp,#0x48]

; 5087 :         contents_size = n_elements * element_size;

	ldr         x9,[sp,#0x10]
	ldr         x8,[sp,#0x48]
	mul         x8,x9,x8
	str         x8,[sp,#8]

; 5088 :     }

	b           |$LN13@ialloc|
|$LN12@ialloc|

; 5089 :     else { /* add up all the sizes */
; 5090 :         element_size = 0;

	mov         x8,#0
	str         x8,[sp,#0x48]

; 5091 :         contents_size = 0;

	mov         x8,#0
	str         x8,[sp,#8]

; 5092 :         for (i = 0; i != n_elements; ++i)

	mov         x8,#0
	str         x8,[sp]
	b           |$LN4@ialloc|
|$LN2@ialloc|
	ldr         x8,[sp]
	add         x8,x8,#1
	str         x8,[sp]
|$LN4@ialloc|
	ldr         x9,[sp,#0x10]
	ldr         x8,[sp]
	cmp         x8,x9
	beq         |$LN3@ialloc|

; 5093 :             contents_size += request2size(sizes[i]);

	ldr         x9,[sp]
	mov         x8,#8
	mul         x9,x9,x8
	ldr         x8,[sp,#0x20]
	add         x8,x8,x9
	ldr         x8,[x8]
	cmp         x8,#0x17
	bhs         |$LN29@ialloc|
	mov         x8,#0x20
	str         x8,[sp,#0x88]
	b           |$LN30@ialloc|
|$LN29@ialloc|
	ldr         x9,[sp]
	mov         x8,#8
	mul         x9,x9,x8
	ldr         x8,[sp,#0x20]
	add         x8,x8,x9
	ldr         x8,[x8]
	add         x8,x8,#0x17
	and         x8,x8,#-0x10
	str         x8,[sp,#0x88]
|$LN30@ialloc|
	ldr         x9,[sp,#8]
	ldr         x8,[sp,#0x88]
	add         x8,x9,x8
	str         x8,[sp,#8]
	b           |$LN2@ialloc|
|$LN3@ialloc|
|$LN13@ialloc|

; 5094 :     }
; 5095 : 
; 5096 :     size = contents_size + array_size;

	ldr         x9,[sp,#8]
	ldr         x8,[sp,#0x68]
	add         x8,x9,x8
	str         x8,[sp,#0x28]

; 5097 : 
; 5098 :     /*
; 5099 :        Allocate the aggregate chunk.  First disable direct-mmapping so
; 5100 :        malloc won't use it, since we would not be able to later
; 5101 :        free/realloc space internal to a segregated mmap region.
; 5102 :     */
; 5103 :     was_enabled = use_mmap(m);

	ldr         x8,[sp,#0x60]
	add         x8,x8,#0x370
	ldr         w8,[x8]
	uxtw        x9,w8
	mov         x8,#0
	and         x8,x9,x8
	mov         w8,w8
	str         w8,[sp,#0x50]

; 5104 :     disable_mmap(m);
; 5105 :     mem = internal_malloc(m, size - CHUNK_OVERHEAD);

	ldr         x8,[sp,#0x28]
	sub         x0,x8,#8
	bl          dlmalloc
	str         x0,[sp,#0x70]

; 5106 :     if (was_enabled)

	ldr         w8,[sp,#0x50]
	cmp         w8,#0
	beq         |$LN14@ialloc|

; 5107 :         enable_mmap(m);

	ldr         x8,[sp,#0x60]
	add         x10,x8,#0x370
	ldr         x8,[sp,#0x60]
	add         x9,x8,#0x370
	ldr         w8,[x10]
	str         w8,[x9]
|$LN14@ialloc|

; 5108 :     if (mem == 0)

	ldr         x8,[sp,#0x70]
	cmp         x8,#0
	bne         |$LN15@ialloc|

; 5109 :         return 0;

	mov         x0,#0
	b           |$LN1@ialloc|
|$LN15@ialloc|

; 5110 : 
; 5111 :     if (PREACTION(m)) return 0;

	mov         w8,#0
	cmp         w8,#0
	beq         |$LN16@ialloc|
	mov         x0,#0
	b           |$LN1@ialloc|
|$LN16@ialloc|

; 5112 :     p = mem2chunk(mem);

	ldr         x8,[sp,#0x70]
	sub         x8,x8,#0x10
	str         x8,[sp,#0x18]

; 5113 :     remainder_size = chunksize(p);

	ldr         x8,[sp,#0x18]
	add         x8,x8,#8
	ldr         x8,[x8]
	and         x8,x8,#-8
	str         x8,[sp,#0x30]

; 5114 : 
; 5115 :     assert(!is_mmapped(p));
; 5116 : 
; 5117 :     if (opts & 0x2) {       /* optionally clear the elements */

	ldr         w8,[sp,#0x38]
	tbz         x8,#1,|$LN17@ialloc|

; 5118 :         memset((size_t*)mem, 0, remainder_size - SIZE_T_SIZE - array_size);

	ldr         x8,[sp,#0x30]
	sub         x9,x8,#8
	ldr         x8,[sp,#0x68]
	sub         x8,x9,x8
	mov         w2,w8
	mov         w2,w2
	mov         w1,#0
	ldr         x0,[sp,#0x70]
	bl          memset
|$LN17@ialloc|

; 5119 :     }
; 5120 : 
; 5121 :     /* If not provided, allocate the pointer array as final part of chunk */
; 5122 :     if (marray == 0) {

	ldr         x8,[sp,#0x40]
	cmp         x8,#0
	bne         |$LN18@ialloc|

; 5123 :         size_t  array_chunk_size;
; 5124 :         array_chunk = chunk_plus_offset(p, contents_size);

	ldr         x9,[sp,#0x18]
	ldr         x8,[sp,#8]
	add         x8,x9,x8
	str         x8,[sp,#0x90]

; 5125 :         array_chunk_size = remainder_size - contents_size;

	ldr         x9,[sp,#0x30]
	ldr         x8,[sp,#8]
	sub         x8,x9,x8
	str         x8,[sp,#0xA0]

; 5126 :         marray = (void**)(chunk2mem(array_chunk));

	ldr         x8,[sp,#0x90]
	add         x8,x8,#0x10
	str         x8,[sp,#0x40]

; 5127 :         set_size_and_pinuse_of_inuse_chunk(m, array_chunk, array_chunk_size);

	ldr         x8,[sp,#0xA0]
	orr         x8,x8,#1
	orr         x9,x8,#2
	ldr         x8,[sp,#0x90]
	add         x8,x8,#8
	str         x9,[x8]

; 5128 :         remainder_size = contents_size;

	ldr         x8,[sp,#8]
	str         x8,[sp,#0x30]
|$LN18@ialloc|

; 5129 :     }
; 5130 : 
; 5131 :     /* split out elements */
; 5132 :     for (i = 0; ; ++i) {

	mov         x8,#0
	str         x8,[sp]
	b           |$LN7@ialloc|
|$LN5@ialloc|
	ldr         x8,[sp]
	add         x8,x8,#1
	str         x8,[sp]
|$LN7@ialloc|

; 5133 :         marray[i] = chunk2mem(p);

	ldr         x8,[sp,#0x18]
	add         x10,x8,#0x10
	ldr         x9,[sp]
	mov         x8,#8
	mul         x9,x9,x8
	ldr         x8,[sp,#0x40]
	add         x8,x8,x9
	str         x10,[x8]

; 5134 :         if (i != n_elements - 1) {

	ldr         x8,[sp,#0x10]
	sub         x9,x8,#1
	ldr         x8,[sp]
	cmp         x8,x9
	beq         |$LN19@ialloc|

; 5135 :             if (element_size != 0)

	ldr         x8,[sp,#0x48]
	cmp         x8,#0
	beq         |$LN21@ialloc|

; 5136 :                 size = element_size;

	ldr         x8,[sp,#0x48]
	str         x8,[sp,#0x28]
	b           |$LN22@ialloc|
|$LN21@ialloc|

; 5137 :             else
; 5138 :                 size = request2size(sizes[i]);

	ldr         x9,[sp]
	mov         x8,#8
	mul         x9,x9,x8
	ldr         x8,[sp,#0x20]
	add         x8,x8,x9
	ldr         x8,[x8]
	cmp         x8,#0x17
	bhs         |$LN31@ialloc|
	mov         x8,#0x20
	str         x8,[sp,#0x98]
	b           |$LN32@ialloc|
|$LN31@ialloc|
	ldr         x9,[sp]
	mov         x8,#8
	mul         x9,x9,x8
	ldr         x8,[sp,#0x20]
	add         x8,x8,x9
	ldr         x8,[x8]
	add         x8,x8,#0x17
	and         x8,x8,#-0x10
	str         x8,[sp,#0x98]
|$LN32@ialloc|
	ldr         x8,[sp,#0x98]
	str         x8,[sp,#0x28]
|$LN22@ialloc|

; 5139 :             remainder_size -= size;

	ldr         x9,[sp,#0x30]
	ldr         x8,[sp,#0x28]
	sub         x8,x9,x8
	str         x8,[sp,#0x30]

; 5140 :             set_size_and_pinuse_of_inuse_chunk(m, p, size);

	ldr         x8,[sp,#0x28]
	orr         x8,x8,#1
	orr         x9,x8,#2
	ldr         x8,[sp,#0x18]
	add         x8,x8,#8
	str         x9,[x8]

; 5141 :             p = chunk_plus_offset(p, size);

	ldr         x9,[sp,#0x18]
	ldr         x8,[sp,#0x28]
	add         x8,x9,x8
	str         x8,[sp,#0x18]

; 5142 :         }

	b           |$LN20@ialloc|
|$LN19@ialloc|

; 5143 :         else { /* the final element absorbs any overallocation slop */
; 5144 :             set_size_and_pinuse_of_inuse_chunk(m, p, remainder_size);

	ldr         x8,[sp,#0x30]
	orr         x8,x8,#1
	orr         x9,x8,#2
	ldr         x8,[sp,#0x18]
	add         x8,x8,#8
	str         x9,[x8]

; 5145 :             break;

	b           |$LN6@ialloc|
|$LN20@ialloc|

; 5146 :         }
; 5147 :     }

	b           |$LN5@ialloc|
|$LN6@ialloc|

; 5148 : 
; 5149 : #if DEBUG
; 5150 :     if (marray != chunks) {
; 5151 :         /* final element must have exactly exhausted chunk */
; 5152 :         if (element_size != 0) {
; 5153 :             assert(remainder_size == element_size);
; 5154 :         }
; 5155 :         else {
; 5156 :             assert(remainder_size == request2size(sizes[i]));
; 5157 :         }
; 5158 :         check_inuse_chunk(m, mem2chunk(marray));
; 5159 :     }
; 5160 :     for (i = 0; i != n_elements; ++i)
; 5161 :         check_inuse_chunk(m, mem2chunk(marray[i]));
; 5162 : 
; 5163 : #endif /* DEBUG */
; 5164 : 
; 5165 :     POSTACTION(m);
; 5166 :     return marray;

	ldr         x0,[sp,#0x40]
|$LN1@ialloc|
	add         sp,sp,#0xB0
	ldr         lr,[sp],#0x10
	ret

	ENDP  ; |ialloc|

; Function compile flags: /Odtpy
; File C:\Users\paras\source\repos\grep-name\XenevaOS\KernelAA64\Mm\dlmalloc.c

	AREA	|.text$mn|, CODE, ARM64

|internal_memalign| PROC

; 4969 : static void* internal_memalign(mstate m, size_t alignment, size_t bytes) {

	str         lr,[sp,#-0x10]!
	sub         sp,sp,#0x90
	str         x0,[sp,#0x60]
	str         x1,[sp,#8]
	str         x2,[sp,#0x50]

; 4970 :     void* mem = 0;

	mov         x8,#0
	str         x8,[sp,#0x20]

; 4971 :     if (alignment < MIN_CHUNK_SIZE) /* must be at least a minimum chunk size */

	ldr         x8,[sp,#8]
	cmp         x8,#0x20
	bhs         |$LN4@internal_m|

; 4972 :         alignment = MIN_CHUNK_SIZE;

	mov         x8,#0x20
	str         x8,[sp,#8]
|$LN4@internal_m|

; 4973 :     if ((alignment & (alignment - SIZE_T_ONE)) != 0) {/* Ensure a power of 2 */

	ldr         x8,[sp,#8]
	sub         x9,x8,#1
	ldr         x8,[sp,#8]
	and         x8,x8,x9
	cmp         x8,#0
	beq         |$LN5@internal_m|

; 4974 :         size_t a = MALLOC_ALIGNMENT << 1;

	mov         x8,#0x20
	str         x8,[sp,#0x38]
|$LN2@internal_m|

; 4975 :         while (a < alignment) a <<= 1;

	ldr         x9,[sp,#8]
	ldr         x8,[sp,#0x38]
	cmp         x8,x9
	bhs         |$LN3@internal_m|
	ldr         x8,[sp,#0x38]
	lsl         x8,x8,#1
	str         x8,[sp,#0x38]
	b           |$LN2@internal_m|
|$LN3@internal_m|

; 4976 :         alignment = a;

	ldr         x8,[sp,#0x38]
	str         x8,[sp,#8]
|$LN5@internal_m|

; 4977 :     }
; 4978 :     if (bytes >= MAX_REQUEST - alignment) {

	mov         x9,#-0x80
	ldr         x8,[sp,#8]
	sub         x9,x9,x8
	ldr         x8,[sp,#0x50]
	cmp         x8,x9
	blo         |$LN6@internal_m|

; 4979 :         if (m != 0) { /* Test isn't needed but avoids compiler warning */
; 4980 :             MALLOC_FAILURE_ACTION;
; 4981 :         }
; 4982 :     }

	b           |$LN7@internal_m|
|$LN6@internal_m|

; 4983 :     else {
; 4984 :         size_t nb = request2size(bytes);

	ldr         x8,[sp,#0x50]
	cmp         x8,#0x17
	bhs         |$LN17@internal_m|
	mov         x8,#0x20
	str         x8,[sp,#0x68]
	b           |$LN18@internal_m|
|$LN17@internal_m|
	ldr         x8,[sp,#0x50]
	add         x8,x8,#0x17
	and         x8,x8,#-0x10
	str         x8,[sp,#0x68]
|$LN18@internal_m|
	ldr         x8,[sp,#0x68]
	str         x8,[sp,#0x18]

; 4985 :         size_t req = nb + alignment + MIN_CHUNK_SIZE - CHUNK_OVERHEAD;

	ldr         x9,[sp,#0x18]
	ldr         x8,[sp,#8]
	add         x8,x9,x8
	add         x8,x8,#0x20
	sub         x8,x8,#8
	str         x8,[sp,#0x88]

; 4986 :         mem = internal_malloc(m, req);

	ldr         x0,[sp,#0x88]
	bl          dlmalloc
	str         x0,[sp,#0x20]

; 4987 :         if (mem != 0) {

	ldr         x8,[sp,#0x20]
	cmp         x8,#0
	beq         |$LN9@internal_m|

; 4988 :             mchunkptr p = mem2chunk(mem);

	ldr         x8,[sp,#0x20]
	sub         x8,x8,#0x10
	str         x8,[sp]

; 4989 :             if (PREACTION(m))

	mov         w8,#0
	cmp         w8,#0
	beq         |$LN10@internal_m|

; 4990 :                 return 0;

	mov         x0,#0
	b           |$LN1@internal_m|
|$LN10@internal_m|

; 4991 :             if ((((size_t)(mem)) & (alignment - 1)) != 0) { /* misaligned */

	ldr         x8,[sp,#8]
	sub         x9,x8,#1
	ldr         x8,[sp,#0x20]
	and         x8,x8,x9
	cmp         x8,#0
	beq         |$LN11@internal_m|

; 4992 :               /*
; 4993 :                 Find an aligned spot inside chunk.  Since we need to give
; 4994 :                 back leading space in a chunk of at least MIN_CHUNK_SIZE, if
; 4995 :                 the first calculation places us at a spot with less than
; 4996 :                 MIN_CHUNK_SIZE leader, we can move to the next aligned spot.
; 4997 :                 We've allocated enough total room so that this is always
; 4998 :                 possible.
; 4999 :               */
; 5000 :                 char* br = (char*)mem2chunk((size_t)(((size_t)((char*)mem + alignment -

	ldr         x9,[sp,#0x20]
	ldr         x8,[sp,#8]
	add         x8,x9,x8
	sub         x9,x8,#1
	ldr         x8,[sp,#8]
	neg         x8,x8
	and         x8,x9,x8
	sub         x8,x8,#0x10
	str         x8,[sp,#0x58]

; 5001 :                     SIZE_T_ONE)) &
; 5002 :                     -alignment));
; 5003 :                 char* pos = ((size_t)(br - (char*)(p)) >= MIN_CHUNK_SIZE) ?

	ldr         x9,[sp,#0x58]
	ldr         x8,[sp]
	sub         x8,x9,x8
	cmp         x8,#0x20
	blo         |$LN19@internal_m|
	ldr         x8,[sp,#0x58]
	str         x8,[sp,#0x70]
	b           |$LN20@internal_m|
|$LN19@internal_m|
	ldr         x9,[sp,#0x58]
	ldr         x8,[sp,#8]
	add         x8,x9,x8
	str         x8,[sp,#0x70]
|$LN20@internal_m|
	ldr         x8,[sp,#0x70]
	str         x8,[sp,#0x78]

; 5004 :                     br : br + alignment;
; 5005 :                 mchunkptr newp = (mchunkptr)pos;

	ldr         x8,[sp,#0x78]
	str         x8,[sp,#0x10]

; 5006 :                 size_t leadsize = pos - (char*)(p);

	ldr         x9,[sp,#0x78]
	ldr         x8,[sp]
	sub         x8,x9,x8
	str         x8,[sp,#0x28]

; 5007 :                 size_t newsize = chunksize(p) - leadsize;

	ldr         x8,[sp]
	add         x8,x8,#8
	ldr         x8,[x8]
	and         x9,x8,#-8
	ldr         x8,[sp,#0x28]
	sub         x8,x9,x8
	str         x8,[sp,#0x40]

; 5008 : 
; 5009 :                 if (is_mmapped(p)) { /* For mmapped chunks, just adjust offset */

	ldr         x8,[sp]
	add         x8,x8,#8
	ldr         x8,[x8]
	and         x8,x8,#3
	cmp         x8,#0
	bne         |$LN12@internal_m|

; 5010 :                     newp->prev_foot = p->prev_foot + leadsize;

	ldr         x8,[sp]
	ldr         x9,[x8]
	ldr         x8,[sp,#0x28]
	add         x9,x9,x8
	ldr         x8,[sp,#0x10]
	str         x9,[x8]

; 5011 :                     newp->head = newsize;

	ldr         x8,[sp,#0x10]
	add         x9,x8,#8
	ldr         x8,[sp,#0x40]
	str         x8,[x9]

; 5012 :                 }

	b           |$LN13@internal_m|
|$LN12@internal_m|

; 5013 :                 else { /* Otherwise, give back leader, use the rest */
; 5014 :                     set_inuse(m, newp, newsize);

	ldr         x8,[sp,#0x10]
	add         x8,x8,#8
	ldr         x8,[x8]
	and         x9,x8,#1
	ldr         x8,[sp,#0x40]
	orr         x8,x9,x8
	orr         x9,x8,#2
	ldr         x8,[sp,#0x10]
	add         x8,x8,#8
	str         x9,[x8]
	ldr         x9,[sp,#0x10]
	ldr         x8,[sp,#0x40]
	add         x8,x9,x8
	add         x8,x8,#8
	ldr         x8,[x8]
	orr         x10,x8,#1
	ldr         x9,[sp,#0x10]
	ldr         x8,[sp,#0x40]
	add         x8,x9,x8
	add         x8,x8,#8
	str         x10,[x8]

; 5015 :                     set_inuse(m, p, leadsize);

	ldr         x8,[sp]
	add         x8,x8,#8
	ldr         x8,[x8]
	and         x9,x8,#1
	ldr         x8,[sp,#0x28]
	orr         x8,x9,x8
	orr         x9,x8,#2
	ldr         x8,[sp]
	add         x8,x8,#8
	str         x9,[x8]
	ldr         x9,[sp]
	ldr         x8,[sp,#0x28]
	add         x8,x9,x8
	add         x8,x8,#8
	ldr         x8,[x8]
	orr         x10,x8,#1
	ldr         x9,[sp]
	ldr         x8,[sp,#0x28]
	add         x8,x9,x8
	add         x8,x8,#8
	str         x10,[x8]

; 5016 :                     dispose_chunk(m, p, leadsize);

	ldr         x2,[sp,#0x28]
	ldr         x1,[sp]
	ldr         x0,[sp,#0x60]
	bl          dispose_chunk
|$LN13@internal_m|

; 5017 :                 }
; 5018 :                 p = newp;

	ldr         x8,[sp,#0x10]
	str         x8,[sp]
|$LN11@internal_m|

; 5019 :             }
; 5020 : 
; 5021 :             /* Give back spare room at the end */
; 5022 :             if (!is_mmapped(p)) {

	ldr         x8,[sp]
	add         x8,x8,#8
	ldr         x8,[x8]
	and         x8,x8,#3
	cmp         x8,#0
	beq         |$LN14@internal_m|

; 5023 :                 size_t size = chunksize(p);

	ldr         x8,[sp]
	add         x8,x8,#8
	ldr         x8,[x8]
	and         x8,x8,#-8
	str         x8,[sp,#0x80]

; 5024 :                 if (size > nb + MIN_CHUNK_SIZE) {

	ldr         x8,[sp,#0x18]
	add         x9,x8,#0x20
	ldr         x8,[sp,#0x80]
	cmp         x8,x9
	bls         |$LN15@internal_m|

; 5025 :                     size_t remainder_size = size - nb;

	ldr         x9,[sp,#0x80]
	ldr         x8,[sp,#0x18]
	sub         x8,x9,x8
	str         x8,[sp,#0x48]

; 5026 :                     mchunkptr remainder = chunk_plus_offset(p, nb);

	ldr         x9,[sp]
	ldr         x8,[sp,#0x18]
	add         x8,x9,x8
	str         x8,[sp,#0x30]

; 5027 :                     set_inuse(m, p, nb);

	ldr         x8,[sp]
	add         x8,x8,#8
	ldr         x8,[x8]
	and         x9,x8,#1
	ldr         x8,[sp,#0x18]
	orr         x8,x9,x8
	orr         x9,x8,#2
	ldr         x8,[sp]
	add         x8,x8,#8
	str         x9,[x8]
	ldr         x9,[sp]
	ldr         x8,[sp,#0x18]
	add         x8,x9,x8
	add         x8,x8,#8
	ldr         x8,[x8]
	orr         x10,x8,#1
	ldr         x9,[sp]
	ldr         x8,[sp,#0x18]
	add         x8,x9,x8
	add         x8,x8,#8
	str         x10,[x8]

; 5028 :                     set_inuse(m, remainder, remainder_size);

	ldr         x8,[sp,#0x30]
	add         x8,x8,#8
	ldr         x8,[x8]
	and         x9,x8,#1
	ldr         x8,[sp,#0x48]
	orr         x8,x9,x8
	orr         x9,x8,#2
	ldr         x8,[sp,#0x30]
	add         x8,x8,#8
	str         x9,[x8]
	ldr         x9,[sp,#0x30]
	ldr         x8,[sp,#0x48]
	add         x8,x9,x8
	add         x8,x8,#8
	ldr         x8,[x8]
	orr         x10,x8,#1
	ldr         x9,[sp,#0x30]
	ldr         x8,[sp,#0x48]
	add         x8,x9,x8
	add         x8,x8,#8
	str         x10,[x8]

; 5029 :                     dispose_chunk(m, remainder, remainder_size);

	ldr         x2,[sp,#0x48]
	ldr         x1,[sp,#0x30]
	ldr         x0,[sp,#0x60]
	bl          dispose_chunk
|$LN15@internal_m|
|$LN14@internal_m|

; 5030 :                 }
; 5031 :             }
; 5032 : 
; 5033 :             mem = chunk2mem(p);

	ldr         x8,[sp]
	add         x8,x8,#0x10
	str         x8,[sp,#0x20]
|$LN9@internal_m|
|$LN7@internal_m|

; 5034 :             assert(chunksize(p) >= nb);
; 5035 :             assert(((size_t)mem & (alignment - 1)) == 0);
; 5036 :             check_inuse_chunk(m, p);
; 5037 :             POSTACTION(m);
; 5038 :         }
; 5039 :     }
; 5040 :     return mem;

	ldr         x0,[sp,#0x20]
|$LN1@internal_m|
	add         sp,sp,#0x90
	ldr         lr,[sp],#0x10
	ret

	ENDP  ; |internal_memalign|

; Function compile flags: /Odtpy
; File C:\Users\paras\source\repos\grep-name\XenevaOS\KernelAA64\Mm\dlmalloc.c

	AREA	|.text$mn|, CODE, ARM64

|try_realloc_chunk| PROC

; 4891 :     int can_move) {

	str         lr,[sp,#-0x10]!
	sub         sp,sp,#0x110
	str         x0,[sp,#8]
	str         x1,[sp]
	str         x2,[sp,#0x10]
	str         w3,[sp,#0xC0]

; 4892 :     mchunkptr newp = 0;

	mov         x8,#0
	str         x8,[sp,#0x48]

; 4893 :     size_t oldsize = chunksize(p);

	ldr         x8,[sp]
	add         x8,x8,#8
	ldr         x8,[x8]
	and         x8,x8,#-8
	str         x8,[sp,#0x30]

; 4894 :     mchunkptr next = chunk_plus_offset(p, oldsize);

	ldr         x9,[sp]
	ldr         x8,[sp,#0x30]
	add         x8,x9,x8
	str         x8,[sp,#0x28]

; 4895 :     if (RTCHECK(ok_address(m, p) && ok_inuse(p) &&

	ldr         x8,[sp,#8]
	add         x8,x8,#0x18
	ldr         x9,[x8]
	ldr         x8,[sp]
	cmp         x8,x9
	blo         |$LN31@try_reallo|
	ldr         x8,[sp]
	add         x8,x8,#8
	ldr         x8,[x8]
	and         x8,x8,#3
	cmp         x8,#1
	beq         |$LN31@try_reallo|
	ldr         x9,[sp,#0x28]
	ldr         x8,[sp]
	cmp         x8,x9
	bhs         |$LN31@try_reallo|
	ldr         x8,[sp,#0x28]
	add         x8,x8,#8
	ldr         x8,[x8]
	tbz         x8,#0,|$LN31@try_reallo|

; 4896 :         ok_next(p, next) && ok_pinuse(next))) {
; 4897 :         if (is_mmapped(p)) {

	ldr         x8,[sp]
	add         x8,x8,#8
	ldr         x8,[x8]
	and         x8,x8,#3
	cmp         x8,#0
	bne         |$LN33@try_reallo|

; 4898 :             newp = mmap_resize(m, p, nb, can_move);

	ldr         w3,[sp,#0xC0]
	ldr         x2,[sp,#0x10]
	ldr         x1,[sp]
	ldr         x0,[sp,#8]
	bl          mmap_resize
	str         x0,[sp,#0x48]

; 4899 :         }

	b           |$LN34@try_reallo|
|$LN33@try_reallo|

; 4900 :         else if (oldsize >= nb) {             /* already big enough */

	ldr         x9,[sp,#0x10]
	ldr         x8,[sp,#0x30]
	cmp         x8,x9
	blo         |$LN35@try_reallo|

; 4901 :             size_t rsize = oldsize - nb;

	ldr         x9,[sp,#0x30]
	ldr         x8,[sp,#0x10]
	sub         x8,x9,x8
	str         x8,[sp,#0x78]

; 4902 :             if (rsize >= MIN_CHUNK_SIZE) {      /* split off remainder */

	ldr         x8,[sp,#0x78]
	cmp         x8,#0x20
	blo         |$LN37@try_reallo|

; 4903 :                 mchunkptr r = chunk_plus_offset(p, nb);

	ldr         x9,[sp]
	ldr         x8,[sp,#0x10]
	add         x8,x9,x8
	str         x8,[sp,#0x80]

; 4904 :                 set_inuse(m, p, nb);

	ldr         x8,[sp]
	add         x8,x8,#8
	ldr         x8,[x8]
	and         x9,x8,#1
	ldr         x8,[sp,#0x10]
	orr         x8,x9,x8
	orr         x9,x8,#2
	ldr         x8,[sp]
	add         x8,x8,#8
	str         x9,[x8]
	ldr         x9,[sp]
	ldr         x8,[sp,#0x10]
	add         x8,x9,x8
	add         x8,x8,#8
	ldr         x8,[x8]
	orr         x10,x8,#1
	ldr         x9,[sp]
	ldr         x8,[sp,#0x10]
	add         x8,x9,x8
	add         x8,x8,#8
	str         x10,[x8]

; 4905 :                 set_inuse(m, r, rsize);

	ldr         x8,[sp,#0x80]
	add         x8,x8,#8
	ldr         x8,[x8]
	and         x9,x8,#1
	ldr         x8,[sp,#0x78]
	orr         x8,x9,x8
	orr         x9,x8,#2
	ldr         x8,[sp,#0x80]
	add         x8,x8,#8
	str         x9,[x8]
	ldr         x9,[sp,#0x80]
	ldr         x8,[sp,#0x78]
	add         x8,x9,x8
	add         x8,x8,#8
	ldr         x8,[x8]
	orr         x10,x8,#1
	ldr         x9,[sp,#0x80]
	ldr         x8,[sp,#0x78]
	add         x8,x9,x8
	add         x8,x8,#8
	str         x10,[x8]

; 4906 :                 dispose_chunk(m, r, rsize);

	ldr         x2,[sp,#0x78]
	ldr         x1,[sp,#0x80]
	ldr         x0,[sp,#8]
	bl          dispose_chunk
|$LN37@try_reallo|

; 4907 :             }
; 4908 :             newp = p;

	ldr         x8,[sp]
	str         x8,[sp,#0x48]

; 4909 :         }

	b           |$LN36@try_reallo|
|$LN35@try_reallo|

; 4910 :         else if (next == m->top) {  /* extend into top */

	ldr         x8,[sp,#8]
	add         x8,x8,#0x28
	ldr         x9,[x8]
	ldr         x8,[sp,#0x28]
	cmp         x8,x9
	bne         |$LN38@try_reallo|

; 4911 :             if (oldsize + m->topsize > nb) {

	ldr         x8,[sp,#8]
	add         x8,x8,#0x10
	ldr         x9,[sp,#0x30]
	ldr         x8,[x8]
	add         x9,x9,x8
	ldr         x8,[sp,#0x10]
	cmp         x9,x8
	bls         |$LN40@try_reallo|

; 4912 :                 size_t newsize = oldsize + m->topsize;

	ldr         x8,[sp,#8]
	add         x8,x8,#0x10
	ldr         x9,[sp,#0x30]
	ldr         x8,[x8]
	add         x8,x9,x8
	str         x8,[sp,#0x100]

; 4913 :                 size_t newtopsize = newsize - nb;

	ldr         x9,[sp,#0x100]
	ldr         x8,[sp,#0x10]
	sub         x8,x9,x8
	str         x8,[sp,#0xE8]

; 4914 :                 mchunkptr newtop = chunk_plus_offset(p, nb);

	ldr         x9,[sp]
	ldr         x8,[sp,#0x10]
	add         x8,x9,x8
	str         x8,[sp,#0xE0]

; 4915 :                 set_inuse(m, p, nb);

	ldr         x8,[sp]
	add         x8,x8,#8
	ldr         x8,[x8]
	and         x9,x8,#1
	ldr         x8,[sp,#0x10]
	orr         x8,x9,x8
	orr         x9,x8,#2
	ldr         x8,[sp]
	add         x8,x8,#8
	str         x9,[x8]
	ldr         x9,[sp]
	ldr         x8,[sp,#0x10]
	add         x8,x9,x8
	add         x8,x8,#8
	ldr         x8,[x8]
	orr         x10,x8,#1
	ldr         x9,[sp]
	ldr         x8,[sp,#0x10]
	add         x8,x9,x8
	add         x8,x8,#8
	str         x10,[x8]

; 4916 :                 newtop->head = newtopsize | PINUSE_BIT;

	ldr         x8,[sp,#0xE8]
	orr         x9,x8,#1
	ldr         x8,[sp,#0xE0]
	add         x8,x8,#8
	str         x9,[x8]

; 4917 :                 m->top = newtop;

	ldr         x8,[sp,#8]
	add         x9,x8,#0x28
	ldr         x8,[sp,#0xE0]
	str         x8,[x9]

; 4918 :                 m->topsize = newtopsize;

	ldr         x8,[sp,#8]
	add         x9,x8,#0x10
	ldr         x8,[sp,#0xE8]
	str         x8,[x9]

; 4919 :                 newp = p;

	ldr         x8,[sp]
	str         x8,[sp,#0x48]
|$LN40@try_reallo|

; 4920 :             }
; 4921 :         }

	b           |$LN39@try_reallo|
|$LN38@try_reallo|

; 4922 :         else if (next == m->dv) { /* extend into dv */

	ldr         x8,[sp,#8]
	add         x8,x8,#0x20
	ldr         x9,[x8]
	ldr         x8,[sp,#0x28]
	cmp         x8,x9
	bne         |$LN41@try_reallo|

; 4923 :             size_t dvs = m->dvsize;

	ldr         x8,[sp,#8]
	add         x8,x8,#8
	ldr         x8,[x8]
	str         x8,[sp,#0xC8]

; 4924 :             if (oldsize + dvs >= nb) {

	ldr         x9,[sp,#0x30]
	ldr         x8,[sp,#0xC8]
	add         x9,x9,x8
	ldr         x8,[sp,#0x10]
	cmp         x9,x8
	blo         |$LN43@try_reallo|

; 4925 :                 size_t dsize = oldsize + dvs - nb;

	ldr         x9,[sp,#0x30]
	ldr         x8,[sp,#0xC8]
	add         x9,x9,x8
	ldr         x8,[sp,#0x10]
	sub         x8,x9,x8
	str         x8,[sp,#0x50]

; 4926 :                 if (dsize >= MIN_CHUNK_SIZE) {

	ldr         x8,[sp,#0x50]
	cmp         x8,#0x20
	blo         |$LN44@try_reallo|

; 4927 :                     mchunkptr r = chunk_plus_offset(p, nb);

	ldr         x9,[sp]
	ldr         x8,[sp,#0x10]
	add         x8,x9,x8
	str         x8,[sp,#0x98]

; 4928 :                     mchunkptr n = chunk_plus_offset(r, dsize);

	ldr         x9,[sp,#0x98]
	ldr         x8,[sp,#0x50]
	add         x8,x9,x8
	str         x8,[sp,#0xF0]

; 4929 :                     set_inuse(m, p, nb);

	ldr         x8,[sp]
	add         x8,x8,#8
	ldr         x8,[x8]
	and         x9,x8,#1
	ldr         x8,[sp,#0x10]
	orr         x8,x9,x8
	orr         x9,x8,#2
	ldr         x8,[sp]
	add         x8,x8,#8
	str         x9,[x8]
	ldr         x9,[sp]
	ldr         x8,[sp,#0x10]
	add         x8,x9,x8
	add         x8,x8,#8
	ldr         x8,[x8]
	orr         x10,x8,#1
	ldr         x9,[sp]
	ldr         x8,[sp,#0x10]
	add         x8,x9,x8
	add         x8,x8,#8
	str         x10,[x8]

; 4930 :                     set_size_and_pinuse_of_free_chunk(r, dsize);

	ldr         x8,[sp,#0x50]
	orr         x9,x8,#1
	ldr         x8,[sp,#0x98]
	add         x8,x8,#8
	str         x9,[x8]
	ldr         x9,[sp,#0x98]
	ldr         x8,[sp,#0x50]
	add         x9,x9,x8
	ldr         x8,[sp,#0x50]
	str         x8,[x9]

; 4931 :                     clear_pinuse(n);

	ldr         x8,[sp,#0xF0]
	add         x8,x8,#8
	ldr         x8,[x8]
	and         x9,x8,#-2
	ldr         x8,[sp,#0xF0]
	add         x8,x8,#8
	str         x9,[x8]

; 4932 :                     m->dvsize = dsize;

	ldr         x8,[sp,#8]
	add         x9,x8,#8
	ldr         x8,[sp,#0x50]
	str         x8,[x9]

; 4933 :                     m->dv = r;

	ldr         x8,[sp,#8]
	add         x9,x8,#0x20
	ldr         x8,[sp,#0x98]
	str         x8,[x9]

; 4934 :                 }

	b           |$LN45@try_reallo|
|$LN44@try_reallo|

; 4935 :                 else { /* exhaust dv */
; 4936 :                     size_t newsize = oldsize + dvs;

	ldr         x9,[sp,#0x30]
	ldr         x8,[sp,#0xC8]
	add         x8,x9,x8
	str         x8,[sp,#0xD0]

; 4937 :                     set_inuse(m, p, newsize);

	ldr         x8,[sp]
	add         x8,x8,#8
	ldr         x8,[x8]
	and         x9,x8,#1
	ldr         x8,[sp,#0xD0]
	orr         x8,x9,x8
	orr         x9,x8,#2
	ldr         x8,[sp]
	add         x8,x8,#8
	str         x9,[x8]
	ldr         x9,[sp]
	ldr         x8,[sp,#0xD0]
	add         x8,x9,x8
	add         x8,x8,#8
	ldr         x8,[x8]
	orr         x10,x8,#1
	ldr         x9,[sp]
	ldr         x8,[sp,#0xD0]
	add         x8,x9,x8
	add         x8,x8,#8
	str         x10,[x8]

; 4938 :                     m->dvsize = 0;

	ldr         x8,[sp,#8]
	add         x9,x8,#8
	mov         x8,#0
	str         x8,[x9]

; 4939 :                     m->dv = 0;

	ldr         x8,[sp,#8]
	add         x9,x8,#0x20
	mov         x8,#0
	str         x8,[x9]
|$LN45@try_reallo|

; 4940 :                 }
; 4941 :                 newp = p;

	ldr         x8,[sp]
	str         x8,[sp,#0x48]
|$LN43@try_reallo|

; 4942 :             }
; 4943 :         }

	b           |$LN42@try_reallo|
|$LN41@try_reallo|

; 4944 :         else if (!cinuse(next)) { /* extend into next free chunk */

	ldr         x8,[sp,#0x28]
	add         x8,x8,#8
	ldr         x8,[x8]
	tbnz        x8,#1,|$LN46@try_reallo|

; 4945 :             size_t nextsize = chunksize(next);

	ldr         x8,[sp,#0x28]
	add         x8,x8,#8
	ldr         x8,[x8]
	and         x8,x8,#-8
	str         x8,[sp,#0x88]

; 4946 :             if (oldsize + nextsize >= nb) {

	ldr         x9,[sp,#0x30]
	ldr         x8,[sp,#0x88]
	add         x9,x9,x8
	ldr         x8,[sp,#0x10]
	cmp         x9,x8
	blo         |$LN47@try_reallo|

; 4947 :                 size_t rsize = oldsize + nextsize - nb;

	ldr         x9,[sp,#0x30]
	ldr         x8,[sp,#0x88]
	add         x9,x9,x8
	ldr         x8,[sp,#0x10]
	sub         x8,x9,x8
	str         x8,[sp,#0x90]

; 4948 :                 unlink_chunk(m, next, nextsize);

	ldr         x8,[sp,#0x88]
	lsr         x8,x8,#3
	cmp         x8,#0x20
	bhs         |$LN48@try_reallo|
	ldr         x8,[sp,#0x28]
	add         x8,x8,#0x10
	ldr         x8,[x8]
	str         x8,[sp,#0x60]
	ldr         x8,[sp,#0x28]
	add         x8,x8,#0x18
	ldr         x8,[x8]
	str         x8,[sp,#0x58]
	ldr         x8,[sp,#0x88]
	lsr         x8,x8,#3
	mov         w8,w8
	str         w8,[sp,#0x38]
	ldr         x8,[sp,#8]
	add         x10,x8,#0x48
	ldr         w8,[sp,#0x38]
	lsl         w8,w8,#1
	uxtw        x9,w8
	mov         x8,#8
	mul         x8,x9,x8
	add         x9,x10,x8
	ldr         x8,[sp,#0x60]
	cmp         x8,x9
	beq         |$LN52@try_reallo|
	ldr         x8,[sp,#8]
	add         x8,x8,#0x18
	ldr         x9,[x8]
	ldr         x8,[sp,#0x60]
	cmp         x8,x9
	blo         |$LN50@try_reallo|
	ldr         x8,[sp,#0x60]
	add         x8,x8,#0x18
	ldr         x9,[sp,#0x28]
	ldr         x8,[x8]
	cmp         x8,x9
	bne         |$LN50@try_reallo|
|$LN52@try_reallo|
	ldr         x9,[sp,#0x60]
	ldr         x8,[sp,#0x58]
	cmp         x8,x9
	bne         |$LN53@try_reallo|
	ldr         x10,[sp,#8]
	mov         w9,#1
	ldr         w8,[sp,#0x38]
	lsl         w8,w9,w8
	mvn         w9,w8
	ldr         w8,[x10]
	and         w9,w8,w9
	ldr         x8,[sp,#8]
	str         w9,[x8]
	b           |$LN54@try_reallo|
|$LN53@try_reallo|
	ldr         x8,[sp,#8]
	add         x10,x8,#0x48
	ldr         w8,[sp,#0x38]
	lsl         w8,w8,#1
	uxtw        x9,w8
	mov         x8,#8
	mul         x8,x9,x8
	add         x9,x10,x8
	ldr         x8,[sp,#0x58]
	cmp         x8,x9
	beq         |$LN57@try_reallo|
	ldr         x8,[sp,#8]
	add         x8,x8,#0x18
	ldr         x9,[x8]
	ldr         x8,[sp,#0x58]
	cmp         x8,x9
	blo         |$LN55@try_reallo|
	ldr         x8,[sp,#0x58]
	add         x8,x8,#0x10
	ldr         x9,[sp,#0x28]
	ldr         x8,[x8]
	cmp         x8,x9
	bne         |$LN55@try_reallo|
|$LN57@try_reallo|
	ldr         x8,[sp,#0x60]
	add         x9,x8,#0x18
	ldr         x8,[sp,#0x58]
	str         x8,[x9]
	ldr         x8,[sp,#0x58]
	add         x9,x8,#0x10
	ldr         x8,[sp,#0x60]
	str         x8,[x9]
	b           |$LN56@try_reallo|
|$LN55@try_reallo|
|$LN2@try_reallo|
	b           |$LN2@try_reallo|
|$LN56@try_reallo|
|$LN54@try_reallo|
	b           |$LN51@try_reallo|
|$LN50@try_reallo|
|$LN5@try_reallo|
	b           |$LN5@try_reallo|
|$LN51@try_reallo|
	b           |$LN49@try_reallo|
|$LN48@try_reallo|
	ldr         x8,[sp,#0x28]
	str         x8,[sp,#0x20]
	ldr         x8,[sp,#0x20]
	add         x8,x8,#0x30
	ldr         x8,[x8]
	str         x8,[sp,#0x68]
	ldr         x8,[sp,#0x20]
	add         x8,x8,#0x18
	ldr         x9,[sp,#0x20]
	ldr         x8,[x8]
	cmp         x8,x9
	beq         |$LN58@try_reallo|
	ldr         x8,[sp,#0x20]
	add         x8,x8,#0x10
	ldr         x8,[x8]
	str         x8,[sp,#0xA0]
	ldr         x8,[sp,#0x20]
	add         x8,x8,#0x18
	ldr         x8,[x8]
	str         x8,[sp,#0x18]
	ldr         x8,[sp,#8]
	add         x8,x8,#0x18
	ldr         x9,[x8]
	ldr         x8,[sp,#0xA0]
	cmp         x8,x9
	blo         |$LN60@try_reallo|
	ldr         x8,[sp,#0xA0]
	add         x8,x8,#0x18
	ldr         x9,[sp,#0x20]
	ldr         x8,[x8]
	cmp         x8,x9
	bne         |$LN60@try_reallo|
	ldr         x8,[sp,#0x18]
	add         x8,x8,#0x10
	ldr         x9,[sp,#0x20]
	ldr         x8,[x8]
	cmp         x8,x9
	bne         |$LN60@try_reallo|
	ldr         x8,[sp,#0xA0]
	add         x9,x8,#0x18
	ldr         x8,[sp,#0x18]
	str         x8,[x9]
	ldr         x8,[sp,#0x18]
	add         x9,x8,#0x10
	ldr         x8,[sp,#0xA0]
	str         x8,[x9]
	b           |$LN61@try_reallo|
|$LN60@try_reallo|
|$LN8@try_reallo|
	b           |$LN8@try_reallo|
|$LN61@try_reallo|
	b           |$LN59@try_reallo|
|$LN58@try_reallo|
	ldr         x8,[sp,#0x20]
	add         x8,x8,#0x28
	str         x8,[sp,#0x40]
	ldr         x8,[sp,#0x40]
	ldr         x8,[x8]
	str         x8,[sp,#0x18]
	ldr         x8,[sp,#0x18]
	cmp         x8,#0
	bne         |$LN63@try_reallo|
	ldr         x8,[sp,#0x20]
	add         x8,x8,#0x20
	str         x8,[sp,#0x40]
	ldr         x8,[sp,#0x40]
	ldr         x8,[x8]
	str         x8,[sp,#0x18]
	ldr         x8,[sp,#0x18]
	cmp         x8,#0
	beq         |$LN62@try_reallo|
|$LN63@try_reallo|
|$LN11@try_reallo|
	ldr         x8,[sp,#0x18]
	add         x8,x8,#0x28
	str         x8,[sp,#0xA8]
	ldr         x8,[sp,#0xA8]
	ldr         x8,[x8]
	cmp         x8,#0
	bne         |$LN64@try_reallo|
	ldr         x8,[sp,#0x18]
	add         x8,x8,#0x20
	str         x8,[sp,#0xA8]
	ldr         x8,[sp,#0xA8]
	ldr         x8,[x8]
	cmp         x8,#0
	beq         |$LN12@try_reallo|
|$LN64@try_reallo|
	ldr         x8,[sp,#0xA8]
	str         x8,[sp,#0x40]
	ldr         x8,[sp,#0x40]
	ldr         x8,[x8]
	str         x8,[sp,#0x18]
	b           |$LN11@try_reallo|
|$LN12@try_reallo|
	ldr         x8,[sp,#8]
	add         x8,x8,#0x18
	ldr         x9,[x8]
	ldr         x8,[sp,#0x40]
	cmp         x8,x9
	blo         |$LN65@try_reallo|
	ldr         x9,[sp,#0x40]
	mov         x8,#0
	str         x8,[x9]
	b           |$LN66@try_reallo|
|$LN65@try_reallo|
|$LN13@try_reallo|
	b           |$LN13@try_reallo|
|$LN66@try_reallo|
|$LN62@try_reallo|
|$LN59@try_reallo|
	ldr         x8,[sp,#0x68]
	cmp         x8,#0
	beq         |$LN67@try_reallo|
	ldr         x8,[sp,#8]
	add         x10,x8,#0x258
	ldr         x8,[sp,#0x20]
	add         x8,x8,#0x38
	ldr         w8,[x8]
	uxtw        x9,w8
	mov         x8,#8
	mul         x8,x9,x8
	add         x8,x10,x8
	str         x8,[sp,#0xF8]
	ldr         x8,[sp,#0xF8]
	ldr         x9,[x8]
	ldr         x8,[sp,#0x20]
	cmp         x8,x9
	bne         |$LN68@try_reallo|
	ldr         x9,[sp,#0xF8]
	ldr         x8,[sp,#0x18]
	str         x8,[x9]
	ldr         x8,[sp,#0x18]
	cmp         x8,#0
	bne         |$LN70@try_reallo|
	ldr         x8,[sp,#8]
	add         x10,x8,#4
	ldr         x8,[sp,#0x20]
	add         x8,x8,#0x38
	mov         w9,#1
	ldr         w8,[x8]
	lsl         w8,w9,w8
	mvn         w9,w8
	ldr         w8,[x10]
	and         w9,w8,w9
	ldr         x8,[sp,#8]
	add         x8,x8,#4
	str         w9,[x8]
|$LN70@try_reallo|
	b           |$LN69@try_reallo|
|$LN68@try_reallo|
	ldr         x8,[sp,#8]
	add         x8,x8,#0x18
	ldr         x9,[x8]
	ldr         x8,[sp,#0x68]
	cmp         x8,x9
	blo         |$LN71@try_reallo|
	ldr         x8,[sp,#0x68]
	add         x8,x8,#0x20
	ldr         x9,[sp,#0x20]
	ldr         x8,[x8]
	cmp         x8,x9
	bne         |$LN73@try_reallo|
	ldr         x8,[sp,#0x68]
	add         x9,x8,#0x20
	ldr         x8,[sp,#0x18]
	str         x8,[x9]
	b           |$LN74@try_reallo|
|$LN73@try_reallo|
	ldr         x8,[sp,#0x68]
	add         x9,x8,#0x28
	ldr         x8,[sp,#0x18]
	str         x8,[x9]
|$LN74@try_reallo|
	b           |$LN72@try_reallo|
|$LN71@try_reallo|
|$LN16@try_reallo|
	b           |$LN16@try_reallo|
|$LN72@try_reallo|
|$LN69@try_reallo|
	ldr         x8,[sp,#0x18]
	cmp         x8,#0
	beq         |$LN75@try_reallo|
	ldr         x8,[sp,#8]
	add         x8,x8,#0x18
	ldr         x9,[x8]
	ldr         x8,[sp,#0x18]
	cmp         x8,x9
	blo         |$LN76@try_reallo|
	ldr         x8,[sp,#0x18]
	add         x9,x8,#0x30
	ldr         x8,[sp,#0x68]
	str         x8,[x9]
	ldr         x8,[sp,#0x20]
	add         x8,x8,#0x20
	ldr         x8,[x8]
	str         x8,[sp,#0xB0]
	ldr         x8,[sp,#0xB0]
	cmp         x8,#0
	beq         |$LN78@try_reallo|
	ldr         x8,[sp,#8]
	add         x8,x8,#0x18
	ldr         x9,[x8]
	ldr         x8,[sp,#0xB0]
	cmp         x8,x9
	blo         |$LN79@try_reallo|
	ldr         x8,[sp,#0x18]
	add         x9,x8,#0x20
	ldr         x8,[sp,#0xB0]
	str         x8,[x9]
	ldr         x8,[sp,#0xB0]
	add         x9,x8,#0x30
	ldr         x8,[sp,#0x18]
	str         x8,[x9]
	b           |$LN80@try_reallo|
|$LN79@try_reallo|
|$LN19@try_reallo|
	b           |$LN19@try_reallo|
|$LN80@try_reallo|
|$LN78@try_reallo|
	ldr         x8,[sp,#0x20]
	add         x8,x8,#0x28
	ldr         x8,[x8]
	str         x8,[sp,#0xB8]
	ldr         x8,[sp,#0xB8]
	cmp         x8,#0
	beq         |$LN81@try_reallo|
	ldr         x8,[sp,#8]
	add         x8,x8,#0x18
	ldr         x9,[x8]
	ldr         x8,[sp,#0xB8]
	cmp         x8,x9
	blo         |$LN82@try_reallo|
	ldr         x8,[sp,#0x18]
	add         x9,x8,#0x28
	ldr         x8,[sp,#0xB8]
	str         x8,[x9]
	ldr         x8,[sp,#0xB8]
	add         x9,x8,#0x30
	ldr         x8,[sp,#0x18]
	str         x8,[x9]
	b           |$LN83@try_reallo|
|$LN82@try_reallo|
|$LN22@try_reallo|
	b           |$LN22@try_reallo|
|$LN83@try_reallo|
|$LN81@try_reallo|
	b           |$LN77@try_reallo|
|$LN76@try_reallo|
|$LN25@try_reallo|
	b           |$LN25@try_reallo|
|$LN77@try_reallo|
|$LN75@try_reallo|
|$LN67@try_reallo|
|$LN49@try_reallo|

; 4949 :                 if (rsize < MIN_CHUNK_SIZE) {

	ldr         x8,[sp,#0x90]
	cmp         x8,#0x20
	bhs         |$LN84@try_reallo|

; 4950 :                     size_t newsize = oldsize + nextsize;

	ldr         x9,[sp,#0x30]
	ldr         x8,[sp,#0x88]
	add         x8,x9,x8
	str         x8,[sp,#0xD8]

; 4951 :                     set_inuse(m, p, newsize);

	ldr         x8,[sp]
	add         x8,x8,#8
	ldr         x8,[x8]
	and         x9,x8,#1
	ldr         x8,[sp,#0xD8]
	orr         x8,x9,x8
	orr         x9,x8,#2
	ldr         x8,[sp]
	add         x8,x8,#8
	str         x9,[x8]
	ldr         x9,[sp]
	ldr         x8,[sp,#0xD8]
	add         x8,x9,x8
	add         x8,x8,#8
	ldr         x8,[x8]
	orr         x10,x8,#1
	ldr         x9,[sp]
	ldr         x8,[sp,#0xD8]
	add         x8,x9,x8
	add         x8,x8,#8
	str         x10,[x8]

; 4952 :                 }

	b           |$LN85@try_reallo|
|$LN84@try_reallo|

; 4953 :                 else {
; 4954 :                     mchunkptr r = chunk_plus_offset(p, nb);

	ldr         x9,[sp]
	ldr         x8,[sp,#0x10]
	add         x8,x9,x8
	str         x8,[sp,#0x70]

; 4955 :                     set_inuse(m, p, nb);

	ldr         x8,[sp]
	add         x8,x8,#8
	ldr         x8,[x8]
	and         x9,x8,#1
	ldr         x8,[sp,#0x10]
	orr         x8,x9,x8
	orr         x9,x8,#2
	ldr         x8,[sp]
	add         x8,x8,#8
	str         x9,[x8]
	ldr         x9,[sp]
	ldr         x8,[sp,#0x10]
	add         x8,x9,x8
	add         x8,x8,#8
	ldr         x8,[x8]
	orr         x10,x8,#1
	ldr         x9,[sp]
	ldr         x8,[sp,#0x10]
	add         x8,x9,x8
	add         x8,x8,#8
	str         x10,[x8]

; 4956 :                     set_inuse(m, r, rsize);

	ldr         x8,[sp,#0x70]
	add         x8,x8,#8
	ldr         x8,[x8]
	and         x9,x8,#1
	ldr         x8,[sp,#0x90]
	orr         x8,x9,x8
	orr         x9,x8,#2
	ldr         x8,[sp,#0x70]
	add         x8,x8,#8
	str         x9,[x8]
	ldr         x9,[sp,#0x70]
	ldr         x8,[sp,#0x90]
	add         x8,x9,x8
	add         x8,x8,#8
	ldr         x8,[x8]
	orr         x10,x8,#1
	ldr         x9,[sp,#0x70]
	ldr         x8,[sp,#0x90]
	add         x8,x9,x8
	add         x8,x8,#8
	str         x10,[x8]

; 4957 :                     dispose_chunk(m, r, rsize);

	ldr         x2,[sp,#0x90]
	ldr         x1,[sp,#0x70]
	ldr         x0,[sp,#8]
	bl          dispose_chunk
|$LN85@try_reallo|

; 4958 :                 }
; 4959 :                 newp = p;

	ldr         x8,[sp]
	str         x8,[sp,#0x48]
|$LN47@try_reallo|
|$LN46@try_reallo|
|$LN42@try_reallo|
|$LN39@try_reallo|
|$LN36@try_reallo|
|$LN34@try_reallo|

; 4960 :             }
; 4961 :         }
; 4962 :     }

	b           |$LN32@try_reallo|
|$LN31@try_reallo|
|$LN28@try_reallo|

; 4963 :     else {
; 4964 :         USAGE_ERROR_ACTION(m, chunk2mem(p));

	b           |$LN28@try_reallo|
|$LN32@try_reallo|

; 4965 :     }
; 4966 :     return newp;

	ldr         x0,[sp,#0x48]
	add         sp,sp,#0x110
	ldr         lr,[sp],#0x10
	ret

	ENDP  ; |try_realloc_chunk|

; Function compile flags: /Odtpy
; File C:\Users\paras\source\repos\grep-name\XenevaOS\KernelAA64\Mm\dlmalloc.c

	AREA	|.text$mn|, CODE, ARM64

|tmalloc_small| PROC

; 4584 : static void* tmalloc_small(mstate m, size_t nb) {

	sub         sp,sp,#0xC0
	str         x0,[sp,#8]
	str         x1,[sp,#0x38]

; 4585 :     tchunkptr t, v;
; 4586 :     size_t rsize;
; 4587 :     bindex_t i;
; 4588 :     binmap_t leastbit = least_bit(m->treemap);

	ldr         x8,[sp,#8]
	add         x10,x8,#4
	ldr         x8,[sp,#8]
	add         x8,x8,#4
	ldr         w8,[x8]
	neg         w9,w8
	ldr         w8,[x10]
	and         w8,w8,w9
	str         w8,[sp,#0x80]

; 4589 :     compute_bit2idx(leastbit, i);

	ldr         w8,[sp,#0x80]
	rbit        w8,w8
	clz         w8,w8
	str         w8,[sp,#0x84]
	add         x9,sp,#0x88
	ldr         w8,[sp,#0x84]
	str         w8,[x9]
	ldr         w8,[sp,#0x88]
	str         w8,[sp,#0x8C]

; 4590 :     v = t = *treebin_at(m, i);

	ldr         x8,[sp,#8]
	add         x10,x8,#0x258
	ldr         w8,[sp,#0x8C]
	uxtw        x9,w8
	mov         x8,#8
	mul         x8,x9,x8
	add         x8,x10,x8
	ldr         x8,[x8]
	str         x8,[sp,#0x20]
	ldr         x8,[sp,#0x20]
	str         x8,[sp]

; 4591 :     rsize = chunksize(t) - nb;

	ldr         x8,[sp,#0x20]
	add         x8,x8,#8
	ldr         x8,[x8]
	and         x9,x8,#-8
	ldr         x8,[sp,#0x38]
	sub         x8,x9,x8
	str         x8,[sp,#0x18]
|$LN2@tmalloc_sm|

; 4592 : 
; 4593 :     while ((t = leftmost_child(t)) != 0) {

	ldr         x8,[sp,#0x20]
	add         x8,x8,#0x20
	ldr         x8,[x8]
	cmp         x8,#0
	beq         |$LN67@tmalloc_sm|
	ldr         x8,[sp,#0x20]
	add         x8,x8,#0x20
	ldr         x8,[x8]
	str         x8,[sp,#0x98]
	b           |$LN68@tmalloc_sm|
|$LN67@tmalloc_sm|
	ldr         x8,[sp,#0x20]
	add         x8,x8,#0x28
	ldr         x8,[x8]
	str         x8,[sp,#0x98]
|$LN68@tmalloc_sm|
	ldr         x8,[sp,#0x98]
	str         x8,[sp,#0x20]
	ldr         x8,[sp,#0x20]
	cmp         x8,#0
	beq         |$LN3@tmalloc_sm|

; 4594 :         size_t trem = chunksize(t) - nb;

	ldr         x8,[sp,#0x20]
	add         x8,x8,#8
	ldr         x8,[x8]
	and         x9,x8,#-8
	ldr         x8,[sp,#0x38]
	sub         x8,x9,x8
	str         x8,[sp,#0xA0]

; 4595 :         if (trem < rsize) {

	ldr         x9,[sp,#0x18]
	ldr         x8,[sp,#0xA0]
	cmp         x8,x9
	bhs         |$LN30@tmalloc_sm|

; 4596 :             rsize = trem;

	ldr         x8,[sp,#0xA0]
	str         x8,[sp,#0x18]

; 4597 :             v = t;

	ldr         x8,[sp,#0x20]
	str         x8,[sp]
|$LN30@tmalloc_sm|

; 4598 :         }
; 4599 :     }

	b           |$LN2@tmalloc_sm|
|$LN3@tmalloc_sm|

; 4600 : 
; 4601 :     if (RTCHECK(ok_address(m, v))) {

	ldr         x8,[sp,#8]
	add         x8,x8,#0x18
	ldr         x9,[x8]
	ldr         x8,[sp]
	cmp         x8,x9
	blo         |$LN31@tmalloc_sm|

; 4602 :         mchunkptr r = chunk_plus_offset(v, nb);

	ldr         x9,[sp]
	ldr         x8,[sp,#0x38]
	add         x8,x9,x8
	str         x8,[sp,#0x78]

; 4603 :         assert(chunksize(v) == rsize + nb);
; 4604 :         if (RTCHECK(ok_next(v, r))) {

	ldr         x9,[sp,#0x78]
	ldr         x8,[sp]
	cmp         x8,x9
	bhs         |$LN32@tmalloc_sm|

; 4605 :             unlink_large_chunk(m, v);

	ldr         x8,[sp]
	add         x8,x8,#0x30
	ldr         x8,[x8]
	str         x8,[sp,#0x40]
	ldr         x8,[sp]
	add         x8,x8,#0x18
	ldr         x9,[sp]
	ldr         x8,[x8]
	cmp         x8,x9
	beq         |$LN33@tmalloc_sm|
	ldr         x8,[sp]
	add         x8,x8,#0x10
	ldr         x8,[x8]
	str         x8,[sp,#0x50]
	ldr         x8,[sp]
	add         x8,x8,#0x18
	ldr         x8,[x8]
	str         x8,[sp,#0x10]
	ldr         x8,[sp,#8]
	add         x8,x8,#0x18
	ldr         x9,[x8]
	ldr         x8,[sp,#0x50]
	cmp         x8,x9
	blo         |$LN35@tmalloc_sm|
	ldr         x8,[sp,#0x50]
	add         x8,x8,#0x18
	ldr         x9,[sp]
	ldr         x8,[x8]
	cmp         x8,x9
	bne         |$LN35@tmalloc_sm|
	ldr         x8,[sp,#0x10]
	add         x8,x8,#0x10
	ldr         x9,[sp]
	ldr         x8,[x8]
	cmp         x8,x9
	bne         |$LN35@tmalloc_sm|
	ldr         x8,[sp,#0x50]
	add         x9,x8,#0x18
	ldr         x8,[sp,#0x10]
	str         x8,[x9]
	ldr         x8,[sp,#0x10]
	add         x9,x8,#0x10
	ldr         x8,[sp,#0x50]
	str         x8,[x9]
	b           |$LN36@tmalloc_sm|
|$LN35@tmalloc_sm|
|$LN4@tmalloc_sm|
	b           |$LN4@tmalloc_sm|
|$LN36@tmalloc_sm|
	b           |$LN34@tmalloc_sm|
|$LN33@tmalloc_sm|
	ldr         x8,[sp]
	add         x8,x8,#0x28
	str         x8,[sp,#0x30]
	ldr         x8,[sp,#0x30]
	ldr         x8,[x8]
	str         x8,[sp,#0x10]
	ldr         x8,[sp,#0x10]
	cmp         x8,#0
	bne         |$LN38@tmalloc_sm|
	ldr         x8,[sp]
	add         x8,x8,#0x20
	str         x8,[sp,#0x30]
	ldr         x8,[sp,#0x30]
	ldr         x8,[x8]
	str         x8,[sp,#0x10]
	ldr         x8,[sp,#0x10]
	cmp         x8,#0
	beq         |$LN37@tmalloc_sm|
|$LN38@tmalloc_sm|
|$LN7@tmalloc_sm|
	ldr         x8,[sp,#0x10]
	add         x8,x8,#0x28
	str         x8,[sp,#0x58]
	ldr         x8,[sp,#0x58]
	ldr         x8,[x8]
	cmp         x8,#0
	bne         |$LN39@tmalloc_sm|
	ldr         x8,[sp,#0x10]
	add         x8,x8,#0x20
	str         x8,[sp,#0x58]
	ldr         x8,[sp,#0x58]
	ldr         x8,[x8]
	cmp         x8,#0
	beq         |$LN8@tmalloc_sm|
|$LN39@tmalloc_sm|
	ldr         x8,[sp,#0x58]
	str         x8,[sp,#0x30]
	ldr         x8,[sp,#0x30]
	ldr         x8,[x8]
	str         x8,[sp,#0x10]
	b           |$LN7@tmalloc_sm|
|$LN8@tmalloc_sm|
	ldr         x8,[sp,#8]
	add         x8,x8,#0x18
	ldr         x9,[x8]
	ldr         x8,[sp,#0x30]
	cmp         x8,x9
	blo         |$LN40@tmalloc_sm|
	ldr         x9,[sp,#0x30]
	mov         x8,#0
	str         x8,[x9]
	b           |$LN41@tmalloc_sm|
|$LN40@tmalloc_sm|
|$LN9@tmalloc_sm|
	b           |$LN9@tmalloc_sm|
|$LN41@tmalloc_sm|
|$LN37@tmalloc_sm|
|$LN34@tmalloc_sm|
	ldr         x8,[sp,#0x40]
	cmp         x8,#0
	beq         |$LN42@tmalloc_sm|
	ldr         x8,[sp,#8]
	add         x10,x8,#0x258
	ldr         x8,[sp]
	add         x8,x8,#0x38
	ldr         w8,[x8]
	uxtw        x9,w8
	mov         x8,#8
	mul         x8,x9,x8
	add         x8,x10,x8
	str         x8,[sp,#0xA8]
	ldr         x8,[sp,#0xA8]
	ldr         x9,[x8]
	ldr         x8,[sp]
	cmp         x8,x9
	bne         |$LN43@tmalloc_sm|
	ldr         x9,[sp,#0xA8]
	ldr         x8,[sp,#0x10]
	str         x8,[x9]
	ldr         x8,[sp,#0x10]
	cmp         x8,#0
	bne         |$LN45@tmalloc_sm|
	ldr         x8,[sp,#8]
	add         x10,x8,#4
	ldr         x8,[sp]
	add         x8,x8,#0x38
	mov         w9,#1
	ldr         w8,[x8]
	lsl         w8,w9,w8
	mvn         w9,w8
	ldr         w8,[x10]
	and         w9,w8,w9
	ldr         x8,[sp,#8]
	add         x8,x8,#4
	str         w9,[x8]
|$LN45@tmalloc_sm|
	b           |$LN44@tmalloc_sm|
|$LN43@tmalloc_sm|
	ldr         x8,[sp,#8]
	add         x8,x8,#0x18
	ldr         x9,[x8]
	ldr         x8,[sp,#0x40]
	cmp         x8,x9
	blo         |$LN46@tmalloc_sm|
	ldr         x8,[sp,#0x40]
	add         x8,x8,#0x20
	ldr         x9,[sp]
	ldr         x8,[x8]
	cmp         x8,x9
	bne         |$LN48@tmalloc_sm|
	ldr         x8,[sp,#0x40]
	add         x9,x8,#0x20
	ldr         x8,[sp,#0x10]
	str         x8,[x9]
	b           |$LN49@tmalloc_sm|
|$LN48@tmalloc_sm|
	ldr         x8,[sp,#0x40]
	add         x9,x8,#0x28
	ldr         x8,[sp,#0x10]
	str         x8,[x9]
|$LN49@tmalloc_sm|
	b           |$LN47@tmalloc_sm|
|$LN46@tmalloc_sm|
|$LN12@tmalloc_sm|
	b           |$LN12@tmalloc_sm|
|$LN47@tmalloc_sm|
|$LN44@tmalloc_sm|
	ldr         x8,[sp,#0x10]
	cmp         x8,#0
	beq         |$LN50@tmalloc_sm|
	ldr         x8,[sp,#8]
	add         x8,x8,#0x18
	ldr         x9,[x8]
	ldr         x8,[sp,#0x10]
	cmp         x8,x9
	blo         |$LN51@tmalloc_sm|
	ldr         x8,[sp,#0x10]
	add         x9,x8,#0x30
	ldr         x8,[sp,#0x40]
	str         x8,[x9]
	ldr         x8,[sp]
	add         x8,x8,#0x20
	ldr         x8,[x8]
	str         x8,[sp,#0x60]
	ldr         x8,[sp,#0x60]
	cmp         x8,#0
	beq         |$LN53@tmalloc_sm|
	ldr         x8,[sp,#8]
	add         x8,x8,#0x18
	ldr         x9,[x8]
	ldr         x8,[sp,#0x60]
	cmp         x8,x9
	blo         |$LN54@tmalloc_sm|
	ldr         x8,[sp,#0x10]
	add         x9,x8,#0x20
	ldr         x8,[sp,#0x60]
	str         x8,[x9]
	ldr         x8,[sp,#0x60]
	add         x9,x8,#0x30
	ldr         x8,[sp,#0x10]
	str         x8,[x9]
	b           |$LN55@tmalloc_sm|
|$LN54@tmalloc_sm|
|$LN15@tmalloc_sm|
	b           |$LN15@tmalloc_sm|
|$LN55@tmalloc_sm|
|$LN53@tmalloc_sm|
	ldr         x8,[sp]
	add         x8,x8,#0x28
	ldr         x8,[x8]
	str         x8,[sp,#0x68]
	ldr         x8,[sp,#0x68]
	cmp         x8,#0
	beq         |$LN56@tmalloc_sm|
	ldr         x8,[sp,#8]
	add         x8,x8,#0x18
	ldr         x9,[x8]
	ldr         x8,[sp,#0x68]
	cmp         x8,x9
	blo         |$LN57@tmalloc_sm|
	ldr         x8,[sp,#0x10]
	add         x9,x8,#0x28
	ldr         x8,[sp,#0x68]
	str         x8,[x9]
	ldr         x8,[sp,#0x68]
	add         x9,x8,#0x30
	ldr         x8,[sp,#0x10]
	str         x8,[x9]
	b           |$LN58@tmalloc_sm|
|$LN57@tmalloc_sm|
|$LN18@tmalloc_sm|
	b           |$LN18@tmalloc_sm|
|$LN58@tmalloc_sm|
|$LN56@tmalloc_sm|
	b           |$LN52@tmalloc_sm|
|$LN51@tmalloc_sm|
|$LN21@tmalloc_sm|
	b           |$LN21@tmalloc_sm|
|$LN52@tmalloc_sm|
|$LN50@tmalloc_sm|
|$LN42@tmalloc_sm|

; 4606 :             if (rsize < MIN_CHUNK_SIZE)

	ldr         x8,[sp,#0x18]
	cmp         x8,#0x20
	bhs         |$LN59@tmalloc_sm|

; 4607 :                 set_inuse_and_pinuse(m, v, (rsize + nb));

	ldr         x9,[sp,#0x18]
	ldr         x8,[sp,#0x38]
	add         x8,x9,x8
	orr         x8,x8,#1
	orr         x9,x8,#2
	ldr         x8,[sp]
	add         x8,x8,#8
	str         x9,[x8]
	ldr         x9,[sp,#0x18]
	ldr         x8,[sp,#0x38]
	add         x9,x9,x8
	ldr         x8,[sp]
	add         x8,x8,x9
	add         x8,x8,#8
	ldr         x8,[x8]
	orr         x10,x8,#1
	ldr         x9,[sp,#0x18]
	ldr         x8,[sp,#0x38]
	add         x9,x9,x8
	ldr         x8,[sp]
	add         x8,x8,x9
	add         x8,x8,#8
	str         x10,[x8]
	b           |$LN60@tmalloc_sm|
|$LN59@tmalloc_sm|

; 4608 :             else {
; 4609 :                 set_size_and_pinuse_of_inuse_chunk(m, v, nb);

	ldr         x8,[sp,#0x38]
	orr         x8,x8,#1
	orr         x9,x8,#2
	ldr         x8,[sp]
	add         x8,x8,#8
	str         x9,[x8]

; 4610 :                 set_size_and_pinuse_of_free_chunk(r, rsize);

	ldr         x8,[sp,#0x18]
	orr         x9,x8,#1
	ldr         x8,[sp,#0x78]
	add         x8,x8,#8
	str         x9,[x8]
	ldr         x9,[sp,#0x78]
	ldr         x8,[sp,#0x18]
	add         x9,x9,x8
	ldr         x8,[sp,#0x18]
	str         x8,[x9]

; 4611 :                 replace_dv(m, r, rsize);

	ldr         x8,[sp,#8]
	add         x8,x8,#8
	ldr         x8,[x8]
	str         x8,[sp,#0xB0]
	ldr         x8,[sp,#0xB0]
	cmp         x8,#0
	beq         |$LN61@tmalloc_sm|
	ldr         x8,[sp,#8]
	add         x8,x8,#0x20
	ldr         x8,[x8]
	str         x8,[sp,#0x70]
	ldr         x8,[sp,#0xB0]
	lsr         x8,x8,#3
	mov         w8,w8
	str         w8,[sp,#0x28]
	ldr         x8,[sp,#8]
	add         x10,x8,#0x48
	ldr         w8,[sp,#0x28]
	lsl         w8,w8,#1
	uxtw        x9,w8
	mov         x8,#8
	mul         x8,x9,x8
	add         x8,x10,x8
	str         x8,[sp,#0x48]
	ldr         x8,[sp,#0x48]
	str         x8,[sp,#0x90]
	ldr         x10,[sp,#8]
	mov         w9,#1
	ldr         w8,[sp,#0x28]
	lsl         w9,w9,w8
	ldr         w8,[x10]
	and         w8,w8,w9
	cmp         w8,#0
	bne         |$LN62@tmalloc_sm|
	ldr         x10,[sp,#8]
	mov         w9,#1
	ldr         w8,[sp,#0x28]
	lsl         w9,w9,w8
	ldr         w8,[x10]
	orr         w9,w8,w9
	ldr         x8,[sp,#8]
	str         w9,[x8]
	b           |$LN63@tmalloc_sm|
|$LN62@tmalloc_sm|
	ldr         x8,[sp,#0x48]
	add         x10,x8,#0x10
	ldr         x8,[sp,#8]
	add         x8,x8,#0x18
	ldr         x9,[x8]
	ldr         x8,[x10]
	cmp         x8,x9
	blo         |$LN64@tmalloc_sm|
	ldr         x8,[sp,#0x48]
	add         x8,x8,#0x10
	ldr         x8,[x8]
	str         x8,[sp,#0x90]
	b           |$LN65@tmalloc_sm|
|$LN64@tmalloc_sm|
|$LN24@tmalloc_sm|
	b           |$LN24@tmalloc_sm|
|$LN65@tmalloc_sm|
|$LN63@tmalloc_sm|
	ldr         x8,[sp,#0x48]
	add         x9,x8,#0x10
	ldr         x8,[sp,#0x70]
	str         x8,[x9]
	ldr         x8,[sp,#0x90]
	add         x9,x8,#0x18
	ldr         x8,[sp,#0x70]
	str         x8,[x9]
	ldr         x8,[sp,#0x70]
	add         x9,x8,#0x10
	ldr         x8,[sp,#0x90]
	str         x8,[x9]
	ldr         x8,[sp,#0x70]
	add         x9,x8,#0x18
	ldr         x8,[sp,#0x48]
	str         x8,[x9]
|$LN61@tmalloc_sm|
	ldr         x8,[sp,#8]
	add         x9,x8,#8
	ldr         x8,[sp,#0x18]
	str         x8,[x9]
	ldr         x8,[sp,#8]
	add         x9,x8,#0x20
	ldr         x8,[sp,#0x78]
	str         x8,[x9]
|$LN60@tmalloc_sm|

; 4612 :             }
; 4613 :             return chunk2mem(v);

	ldr         x8,[sp]
	add         x0,x8,#0x10
	b           |$LN1@tmalloc_sm|
|$LN32@tmalloc_sm|
|$LN31@tmalloc_sm|
|$LN27@tmalloc_sm|

; 4614 :         }
; 4615 :     }
; 4616 : 
; 4617 :     CORRUPTION_ERROR_ACTION(m);

	b           |$LN27@tmalloc_sm|

; 4618 :     return 0;

	mov         x0,#0
|$LN1@tmalloc_sm|
	add         sp,sp,#0xC0
	ret

	ENDP  ; |tmalloc_small|

; Function compile flags: /Odtpy
; File C:\Users\paras\source\repos\grep-name\XenevaOS\KernelAA64\Mm\dlmalloc.c

	AREA	|.text$mn|, CODE, ARM64

|tmalloc_large| PROC

; 4513 : static void* tmalloc_large(mstate m, size_t nb) {

	sub         sp,sp,#0x130
	str         x0,[sp,#8]
	str         x1,[sp,#0x38]

; 4514 :     tchunkptr v = 0;

	mov         x8,#0
	str         x8,[sp]

; 4515 :     size_t rsize = -nb; /* Unsigned negation */

	ldr         x8,[sp,#0x38]
	neg         x8,x8
	str         x8,[sp,#0x20]

; 4516 :     tchunkptr t;
; 4517 :     bindex_t idx;
; 4518 :     compute_tree_index(nb, idx);

	ldr         x8,[sp,#0x38]
	lsr         x8,x8,#8
	str         x8,[sp,#0xB8]
	ldr         x8,[sp,#0xB8]
	cmp         x8,#0
	bne         |$LN42@tmalloc_la|
	mov         w8,#0
	str         w8,[sp,#0x34]
	b           |$LN43@tmalloc_la|
|$LN42@tmalloc_la|
	mov         x9,#0xFFFF
	ldr         x8,[sp,#0xB8]
	cmp         x8,x9
	bls         |$LN44@tmalloc_la|
	mov         w8,#0x1F
	str         w8,[sp,#0x34]
	b           |$LN45@tmalloc_la|
|$LN44@tmalloc_la|
	ldr         x8,[sp,#0xB8]
	mov         w8,w8
	clz         w8,w8
	str         w8,[sp,#0xA0]
	mov         w9,#0x1F
	ldr         w8,[sp,#0xA0]
	sub         w9,w9,w8
	add         x8,sp,#0x68
	str         w9,[x8]
	ldr         w8,[sp,#0x68]
	lsl         w8,w8,#1
	uxtw        x10,w8
	ldr         w8,[sp,#0x68]
	add         w8,w8,#7
	uxtw        x9,w8
	ldr         x8,[sp,#0x38]
	lsr         x8,x8,x9
	and         x8,x8,#1
	add         x8,x10,x8
	mov         w8,w8
	str         w8,[sp,#0x34]
|$LN45@tmalloc_la|
|$LN43@tmalloc_la|

; 4519 :     if ((t = *treebin_at(m, idx)) != 0) {

	ldr         x8,[sp,#8]
	add         x10,x8,#0x258
	ldr         w8,[sp,#0x34]
	uxtw        x9,w8
	mov         x8,#8
	mul         x8,x9,x8
	add         x8,x10,x8
	ldr         x8,[x8]
	str         x8,[sp,#0x28]
	ldr         x8,[sp,#0x28]
	cmp         x8,#0
	beq         |$LN46@tmalloc_la|

; 4520 :         /* Traverse tree for this bin looking for node with size == nb */
; 4521 :         size_t sizebits = nb << leftshift_for_tree_index(idx);

	ldr         w8,[sp,#0x34]
	cmp         w8,#0x1F
	bne         |$LN106@tmalloc_la|
	mov         x8,#0
	str         x8,[sp,#0xF8]
	b           |$LN107@tmalloc_la|
|$LN106@tmalloc_la|
	ldr         w8,[sp,#0x34]
	lsr         w8,w8,#1
	add         w8,w8,#8
	sub         w8,w8,#2
	uxtw        x9,w8
	mov         x8,#0x3F
	sub         x8,x8,x9
	str         x8,[sp,#0xF8]
|$LN107@tmalloc_la|
	ldr         x9,[sp,#0x38]
	ldr         x8,[sp,#0xF8]
	lsl         x8,x9,x8
	str         x8,[sp,#0xC8]

; 4522 :         tchunkptr rst = 0;  /* The deepest untaken right subtree */

	mov         x8,#0
	str         x8,[sp,#0x108]
|$LN2@tmalloc_la|

; 4523 :         for (;;) {
; 4524 :             tchunkptr rt;
; 4525 :             size_t trem = chunksize(t) - nb;

	ldr         x8,[sp,#0x28]
	add         x8,x8,#8
	ldr         x8,[x8]
	and         x9,x8,#-8
	ldr         x8,[sp,#0x38]
	sub         x8,x9,x8
	str         x8,[sp,#0x100]

; 4526 :             if (trem < rsize) {

	ldr         x9,[sp,#0x20]
	ldr         x8,[sp,#0x100]
	cmp         x8,x9
	bhs         |$LN47@tmalloc_la|

; 4527 :                 v = t;

	ldr         x8,[sp,#0x28]
	str         x8,[sp]

; 4528 :                 if ((rsize = trem) == 0)

	ldr         x8,[sp,#0x100]
	str         x8,[sp,#0x20]
	ldr         x8,[sp,#0x20]
	cmp         x8,#0
	bne         |$LN48@tmalloc_la|

; 4529 :                     break;

	b           |$LN3@tmalloc_la|
|$LN48@tmalloc_la|
|$LN47@tmalloc_la|

; 4530 :             }
; 4531 :             rt = t->child[1];

	ldr         x8,[sp,#0x28]
	add         x8,x8,#0x28
	ldr         x8,[x8]
	str         x8,[sp,#0xC0]

; 4532 :             t = t->child[(sizebits >> (SIZE_T_BITSIZE - SIZE_T_ONE)) & 1];

	ldr         x8,[sp,#0x28]
	add         x10,x8,#0x20
	ldr         x8,[sp,#0xC8]
	lsr         x9,x8,#0x3F
	mov         x8,#8
	mul         x8,x9,x8
	add         x8,x10,x8
	ldr         x8,[x8]
	str         x8,[sp,#0x28]

; 4533 :             if (rt != 0 && rt != t)

	ldr         x8,[sp,#0xC0]
	cmp         x8,#0
	beq         |$LN49@tmalloc_la|
	ldr         x9,[sp,#0x28]
	ldr         x8,[sp,#0xC0]
	cmp         x8,x9
	beq         |$LN49@tmalloc_la|

; 4534 :                 rst = rt;

	ldr         x8,[sp,#0xC0]
	str         x8,[sp,#0x108]
|$LN49@tmalloc_la|

; 4535 :             if (t == 0) {

	ldr         x8,[sp,#0x28]
	cmp         x8,#0
	bne         |$LN50@tmalloc_la|

; 4536 :                 t = rst; /* set t to least subtree holding sizes > nb */

	ldr         x8,[sp,#0x108]
	str         x8,[sp,#0x28]

; 4537 :                 break;

	b           |$LN3@tmalloc_la|
|$LN50@tmalloc_la|

; 4538 :             }
; 4539 :             sizebits <<= 1;

	ldr         x8,[sp,#0xC8]
	lsl         x8,x8,#1
	str         x8,[sp,#0xC8]

; 4540 :         }

	b           |$LN2@tmalloc_la|
|$LN3@tmalloc_la|
|$LN46@tmalloc_la|

; 4541 :     }
; 4542 :     if (t == 0 && v == 0) { /* set t to root of next non-empty treebin */

	ldr         x8,[sp,#0x28]
	cmp         x8,#0
	bne         |$LN51@tmalloc_la|
	ldr         x8,[sp]
	cmp         x8,#0
	bne         |$LN51@tmalloc_la|

; 4543 :         binmap_t leftbits = left_bits(idx2bit(idx)) & m->treemap;

	mov         w9,#1
	ldr         w8,[sp,#0x34]
	lsl         w8,w9,w8
	lsl         w10,w8,#1
	mov         w9,#1
	ldr         w8,[sp,#0x34]
	lsl         w8,w9,w8
	lsl         w8,w8,#1
	neg         w8,w8
	orr         w9,w10,w8
	ldr         x8,[sp,#8]
	add         x8,x8,#4
	ldr         w8,[x8]
	and         w8,w9,w8
	str         w8,[sp,#0x50]

; 4544 :         if (leftbits != 0) {

	ldr         w8,[sp,#0x50]
	cmp         w8,#0
	beq         |$LN52@tmalloc_la|

; 4545 :             bindex_t i;
; 4546 :             binmap_t leastbit = least_bit(leftbits);

	ldr         w8,[sp,#0x50]
	neg         w9,w8
	ldr         w8,[sp,#0x50]
	and         w8,w8,w9
	str         w8,[sp,#0xA4]

; 4547 :             compute_bit2idx(leastbit, i);

	ldr         w8,[sp,#0xA4]
	rbit        w8,w8
	clz         w8,w8
	str         w8,[sp,#0xA8]
	add         x9,sp,#0xAC
	ldr         w8,[sp,#0xA8]
	str         w8,[x9]
	ldr         w8,[sp,#0xAC]
	str         w8,[sp,#0xB0]

; 4548 :             t = *treebin_at(m, i);

	ldr         x8,[sp,#8]
	add         x10,x8,#0x258
	ldr         w8,[sp,#0xB0]
	uxtw        x9,w8
	mov         x8,#8
	mul         x8,x9,x8
	add         x8,x10,x8
	ldr         x8,[x8]
	str         x8,[sp,#0x28]
|$LN52@tmalloc_la|
|$LN51@tmalloc_la|
|$LN5@tmalloc_la|

; 4549 :         }
; 4550 :     }
; 4551 : 
; 4552 :     while (t != 0) { /* find smallest of tree or subtree */

	ldr         x8,[sp,#0x28]
	cmp         x8,#0
	beq         |$LN6@tmalloc_la|

; 4553 :         size_t trem = chunksize(t) - nb;

	ldr         x8,[sp,#0x28]
	add         x8,x8,#8
	ldr         x8,[x8]
	and         x9,x8,#-8
	ldr         x8,[sp,#0x38]
	sub         x8,x9,x8
	str         x8,[sp,#0x110]

; 4554 :         if (trem < rsize) {

	ldr         x9,[sp,#0x20]
	ldr         x8,[sp,#0x110]
	cmp         x8,x9
	bhs         |$LN53@tmalloc_la|

; 4555 :             rsize = trem;

	ldr         x8,[sp,#0x110]
	str         x8,[sp,#0x20]

; 4556 :             v = t;

	ldr         x8,[sp,#0x28]
	str         x8,[sp]
|$LN53@tmalloc_la|

; 4557 :         }
; 4558 :         t = leftmost_child(t);

	ldr         x8,[sp,#0x28]
	add         x8,x8,#0x20
	ldr         x8,[x8]
	cmp         x8,#0
	beq         |$LN108@tmalloc_la|
	ldr         x8,[sp,#0x28]
	add         x8,x8,#0x20
	ldr         x8,[x8]
	str         x8,[sp,#0x118]
	b           |$LN109@tmalloc_la|
|$LN108@tmalloc_la|
	ldr         x8,[sp,#0x28]
	add         x8,x8,#0x28
	ldr         x8,[x8]
	str         x8,[sp,#0x118]
|$LN109@tmalloc_la|
	ldr         x8,[sp,#0x118]
	str         x8,[sp,#0x28]

; 4559 :     }

	b           |$LN5@tmalloc_la|
|$LN6@tmalloc_la|

; 4560 : 
; 4561 :     /*  If dv is a better fit, return 0 so malloc will use it */
; 4562 :     if (v != 0 && rsize < (size_t)(m->dvsize - nb)) {

	ldr         x8,[sp]
	cmp         x8,#0
	beq         |$LN54@tmalloc_la|
	ldr         x8,[sp,#8]
	add         x8,x8,#8
	ldr         x9,[x8]
	ldr         x8,[sp,#0x38]
	sub         x9,x9,x8
	ldr         x8,[sp,#0x20]
	cmp         x8,x9
	bhs         |$LN54@tmalloc_la|

; 4563 :         if (RTCHECK(ok_address(m, v))) { /* split */

	ldr         x8,[sp,#8]
	add         x8,x8,#0x18
	ldr         x9,[x8]
	ldr         x8,[sp]
	cmp         x8,x9
	blo         |$LN55@tmalloc_la|

; 4564 :             mchunkptr r = chunk_plus_offset(v, nb);

	ldr         x9,[sp]
	ldr         x8,[sp,#0x38]
	add         x8,x9,x8
	str         x8,[sp,#0x40]

; 4565 :             assert(chunksize(v) == rsize + nb);
; 4566 :             if (RTCHECK(ok_next(v, r))) {

	ldr         x9,[sp,#0x40]
	ldr         x8,[sp]
	cmp         x8,x9
	bhs         |$LN56@tmalloc_la|

; 4567 :                 unlink_large_chunk(m, v);

	ldr         x8,[sp]
	add         x8,x8,#0x30
	ldr         x8,[x8]
	str         x8,[sp,#0x60]
	ldr         x8,[sp]
	add         x8,x8,#0x18
	ldr         x9,[sp]
	ldr         x8,[x8]
	cmp         x8,x9
	beq         |$LN57@tmalloc_la|
	ldr         x8,[sp]
	add         x8,x8,#0x10
	ldr         x8,[x8]
	str         x8,[sp,#0x78]
	ldr         x8,[sp]
	add         x8,x8,#0x18
	ldr         x8,[x8]
	str         x8,[sp,#0x10]
	ldr         x8,[sp,#8]
	add         x8,x8,#0x18
	ldr         x9,[x8]
	ldr         x8,[sp,#0x78]
	cmp         x8,x9
	blo         |$LN59@tmalloc_la|
	ldr         x8,[sp,#0x78]
	add         x8,x8,#0x18
	ldr         x9,[sp]
	ldr         x8,[x8]
	cmp         x8,x9
	bne         |$LN59@tmalloc_la|
	ldr         x8,[sp,#0x10]
	add         x8,x8,#0x10
	ldr         x9,[sp]
	ldr         x8,[x8]
	cmp         x8,x9
	bne         |$LN59@tmalloc_la|
	ldr         x8,[sp,#0x78]
	add         x9,x8,#0x18
	ldr         x8,[sp,#0x10]
	str         x8,[x9]
	ldr         x8,[sp,#0x10]
	add         x9,x8,#0x10
	ldr         x8,[sp,#0x78]
	str         x8,[x9]
	b           |$LN60@tmalloc_la|
|$LN59@tmalloc_la|
|$LN7@tmalloc_la|
	b           |$LN7@tmalloc_la|
|$LN60@tmalloc_la|
	b           |$LN58@tmalloc_la|
|$LN57@tmalloc_la|
	ldr         x8,[sp]
	add         x8,x8,#0x28
	str         x8,[sp,#0x58]
	ldr         x8,[sp,#0x58]
	ldr         x8,[x8]
	str         x8,[sp,#0x10]
	ldr         x8,[sp,#0x10]
	cmp         x8,#0
	bne         |$LN62@tmalloc_la|
	ldr         x8,[sp]
	add         x8,x8,#0x20
	str         x8,[sp,#0x58]
	ldr         x8,[sp,#0x58]
	ldr         x8,[x8]
	str         x8,[sp,#0x10]
	ldr         x8,[sp,#0x10]
	cmp         x8,#0
	beq         |$LN61@tmalloc_la|
|$LN62@tmalloc_la|
|$LN10@tmalloc_la|
	ldr         x8,[sp,#0x10]
	add         x8,x8,#0x28
	str         x8,[sp,#0x80]
	ldr         x8,[sp,#0x80]
	ldr         x8,[x8]
	cmp         x8,#0
	bne         |$LN63@tmalloc_la|
	ldr         x8,[sp,#0x10]
	add         x8,x8,#0x20
	str         x8,[sp,#0x80]
	ldr         x8,[sp,#0x80]
	ldr         x8,[x8]
	cmp         x8,#0
	beq         |$LN11@tmalloc_la|
|$LN63@tmalloc_la|
	ldr         x8,[sp,#0x80]
	str         x8,[sp,#0x58]
	ldr         x8,[sp,#0x58]
	ldr         x8,[x8]
	str         x8,[sp,#0x10]
	b           |$LN10@tmalloc_la|
|$LN11@tmalloc_la|
	ldr         x8,[sp,#8]
	add         x8,x8,#0x18
	ldr         x9,[x8]
	ldr         x8,[sp,#0x58]
	cmp         x8,x9
	blo         |$LN64@tmalloc_la|
	ldr         x9,[sp,#0x58]
	mov         x8,#0
	str         x8,[x9]
	b           |$LN65@tmalloc_la|
|$LN64@tmalloc_la|
|$LN12@tmalloc_la|
	b           |$LN12@tmalloc_la|
|$LN65@tmalloc_la|
|$LN61@tmalloc_la|
|$LN58@tmalloc_la|
	ldr         x8,[sp,#0x60]
	cmp         x8,#0
	beq         |$LN66@tmalloc_la|
	ldr         x8,[sp,#8]
	add         x10,x8,#0x258
	ldr         x8,[sp]
	add         x8,x8,#0x38
	ldr         w8,[x8]
	uxtw        x9,w8
	mov         x8,#8
	mul         x8,x9,x8
	add         x8,x10,x8
	str         x8,[sp,#0x120]
	ldr         x8,[sp,#0x120]
	ldr         x9,[x8]
	ldr         x8,[sp]
	cmp         x8,x9
	bne         |$LN67@tmalloc_la|
	ldr         x9,[sp,#0x120]
	ldr         x8,[sp,#0x10]
	str         x8,[x9]
	ldr         x8,[sp,#0x10]
	cmp         x8,#0
	bne         |$LN69@tmalloc_la|
	ldr         x8,[sp,#8]
	add         x10,x8,#4
	ldr         x8,[sp]
	add         x8,x8,#0x38
	mov         w9,#1
	ldr         w8,[x8]
	lsl         w8,w9,w8
	mvn         w9,w8
	ldr         w8,[x10]
	and         w9,w8,w9
	ldr         x8,[sp,#8]
	add         x8,x8,#4
	str         w9,[x8]
|$LN69@tmalloc_la|
	b           |$LN68@tmalloc_la|
|$LN67@tmalloc_la|
	ldr         x8,[sp,#8]
	add         x8,x8,#0x18
	ldr         x9,[x8]
	ldr         x8,[sp,#0x60]
	cmp         x8,x9
	blo         |$LN70@tmalloc_la|
	ldr         x8,[sp,#0x60]
	add         x8,x8,#0x20
	ldr         x9,[sp]
	ldr         x8,[x8]
	cmp         x8,x9
	bne         |$LN72@tmalloc_la|
	ldr         x8,[sp,#0x60]
	add         x9,x8,#0x20
	ldr         x8,[sp,#0x10]
	str         x8,[x9]
	b           |$LN73@tmalloc_la|
|$LN72@tmalloc_la|
	ldr         x8,[sp,#0x60]
	add         x9,x8,#0x28
	ldr         x8,[sp,#0x10]
	str         x8,[x9]
|$LN73@tmalloc_la|
	b           |$LN71@tmalloc_la|
|$LN70@tmalloc_la|
|$LN15@tmalloc_la|
	b           |$LN15@tmalloc_la|
|$LN71@tmalloc_la|
|$LN68@tmalloc_la|
	ldr         x8,[sp,#0x10]
	cmp         x8,#0
	beq         |$LN74@tmalloc_la|
	ldr         x8,[sp,#8]
	add         x8,x8,#0x18
	ldr         x9,[x8]
	ldr         x8,[sp,#0x10]
	cmp         x8,x9
	blo         |$LN75@tmalloc_la|
	ldr         x8,[sp,#0x10]
	add         x9,x8,#0x30
	ldr         x8,[sp,#0x60]
	str         x8,[x9]
	ldr         x8,[sp]
	add         x8,x8,#0x20
	ldr         x8,[x8]
	str         x8,[sp,#0x88]
	ldr         x8,[sp,#0x88]
	cmp         x8,#0
	beq         |$LN77@tmalloc_la|
	ldr         x8,[sp,#8]
	add         x8,x8,#0x18
	ldr         x9,[x8]
	ldr         x8,[sp,#0x88]
	cmp         x8,x9
	blo         |$LN78@tmalloc_la|
	ldr         x8,[sp,#0x10]
	add         x9,x8,#0x20
	ldr         x8,[sp,#0x88]
	str         x8,[x9]
	ldr         x8,[sp,#0x88]
	add         x9,x8,#0x30
	ldr         x8,[sp,#0x10]
	str         x8,[x9]
	b           |$LN79@tmalloc_la|
|$LN78@tmalloc_la|
|$LN18@tmalloc_la|
	b           |$LN18@tmalloc_la|
|$LN79@tmalloc_la|
|$LN77@tmalloc_la|
	ldr         x8,[sp]
	add         x8,x8,#0x28
	ldr         x8,[x8]
	str         x8,[sp,#0x90]
	ldr         x8,[sp,#0x90]
	cmp         x8,#0
	beq         |$LN80@tmalloc_la|
	ldr         x8,[sp,#8]
	add         x8,x8,#0x18
	ldr         x9,[x8]
	ldr         x8,[sp,#0x90]
	cmp         x8,x9
	blo         |$LN81@tmalloc_la|
	ldr         x8,[sp,#0x10]
	add         x9,x8,#0x28
	ldr         x8,[sp,#0x90]
	str         x8,[x9]
	ldr         x8,[sp,#0x90]
	add         x9,x8,#0x30
	ldr         x8,[sp,#0x10]
	str         x8,[x9]
	b           |$LN82@tmalloc_la|
|$LN81@tmalloc_la|
|$LN21@tmalloc_la|
	b           |$LN21@tmalloc_la|
|$LN82@tmalloc_la|
|$LN80@tmalloc_la|
	b           |$LN76@tmalloc_la|
|$LN75@tmalloc_la|
|$LN24@tmalloc_la|
	b           |$LN24@tmalloc_la|
|$LN76@tmalloc_la|
|$LN74@tmalloc_la|
|$LN66@tmalloc_la|

; 4568 :                 if (rsize < MIN_CHUNK_SIZE)

	ldr         x8,[sp,#0x20]
	cmp         x8,#0x20
	bhs         |$LN83@tmalloc_la|

; 4569 :                     set_inuse_and_pinuse(m, v, (rsize + nb));

	ldr         x9,[sp,#0x20]
	ldr         x8,[sp,#0x38]
	add         x8,x9,x8
	orr         x8,x8,#1
	orr         x9,x8,#2
	ldr         x8,[sp]
	add         x8,x8,#8
	str         x9,[x8]
	ldr         x9,[sp,#0x20]
	ldr         x8,[sp,#0x38]
	add         x9,x9,x8
	ldr         x8,[sp]
	add         x8,x8,x9
	add         x8,x8,#8
	ldr         x8,[x8]
	orr         x10,x8,#1
	ldr         x9,[sp,#0x20]
	ldr         x8,[sp,#0x38]
	add         x9,x9,x8
	ldr         x8,[sp]
	add         x8,x8,x9
	add         x8,x8,#8
	str         x10,[x8]
	b           |$LN84@tmalloc_la|
|$LN83@tmalloc_la|

; 4570 :                 else {
; 4571 :                     set_size_and_pinuse_of_inuse_chunk(m, v, nb);

	ldr         x8,[sp,#0x38]
	orr         x8,x8,#1
	orr         x9,x8,#2
	ldr         x8,[sp]
	add         x8,x8,#8
	str         x9,[x8]

; 4572 :                     set_size_and_pinuse_of_free_chunk(r, rsize);

	ldr         x8,[sp,#0x20]
	orr         x9,x8,#1
	ldr         x8,[sp,#0x40]
	add         x8,x8,#8
	str         x9,[x8]
	ldr         x9,[sp,#0x40]
	ldr         x8,[sp,#0x20]
	add         x9,x9,x8
	ldr         x8,[sp,#0x20]
	str         x8,[x9]

; 4573 :                     insert_chunk(m, r, rsize);

	ldr         x8,[sp,#0x20]
	lsr         x8,x8,#3
	cmp         x8,#0x20
	bhs         |$LN85@tmalloc_la|
	ldr         x8,[sp,#0x20]
	lsr         x8,x8,#3
	mov         w8,w8
	str         w8,[sp,#0x54]
	ldr         x8,[sp,#8]
	add         x10,x8,#0x48
	ldr         w8,[sp,#0x54]
	lsl         w8,w8,#1
	uxtw        x9,w8
	mov         x8,#8
	mul         x8,x9,x8
	add         x8,x10,x8
	str         x8,[sp,#0x70]
	ldr         x8,[sp,#0x70]
	str         x8,[sp,#0xD0]
	ldr         x10,[sp,#8]
	mov         w9,#1
	ldr         w8,[sp,#0x54]
	lsl         w9,w9,w8
	ldr         w8,[x10]
	and         w8,w8,w9
	cmp         w8,#0
	bne         |$LN87@tmalloc_la|
	ldr         x10,[sp,#8]
	mov         w9,#1
	ldr         w8,[sp,#0x54]
	lsl         w9,w9,w8
	ldr         w8,[x10]
	orr         w9,w8,w9
	ldr         x8,[sp,#8]
	str         w9,[x8]
	b           |$LN88@tmalloc_la|
|$LN87@tmalloc_la|
	ldr         x8,[sp,#0x70]
	add         x10,x8,#0x10
	ldr         x8,[sp,#8]
	add         x8,x8,#0x18
	ldr         x9,[x8]
	ldr         x8,[x10]
	cmp         x8,x9
	blo         |$LN89@tmalloc_la|
	ldr         x8,[sp,#0x70]
	add         x8,x8,#0x10
	ldr         x8,[x8]
	str         x8,[sp,#0xD0]
	b           |$LN90@tmalloc_la|
|$LN89@tmalloc_la|
|$LN27@tmalloc_la|
	b           |$LN27@tmalloc_la|
|$LN90@tmalloc_la|
|$LN88@tmalloc_la|
	ldr         x8,[sp,#0x70]
	add         x9,x8,#0x10
	ldr         x8,[sp,#0x40]
	str         x8,[x9]
	ldr         x8,[sp,#0xD0]
	add         x9,x8,#0x18
	ldr         x8,[sp,#0x40]
	str         x8,[x9]
	ldr         x8,[sp,#0x40]
	add         x9,x8,#0x10
	ldr         x8,[sp,#0xD0]
	str         x8,[x9]
	ldr         x8,[sp,#0x40]
	add         x9,x8,#0x18
	ldr         x8,[sp,#0x70]
	str         x8,[x9]
	b           |$LN86@tmalloc_la|
|$LN85@tmalloc_la|
	ldr         x8,[sp,#0x40]
	str         x8,[sp,#0x18]
	ldr         x8,[sp,#0x20]
	lsr         x8,x8,#8
	str         x8,[sp,#0xD8]
	ldr         x8,[sp,#0xD8]
	cmp         x8,#0
	bne         |$LN91@tmalloc_la|
	mov         w8,#0
	str         w8,[sp,#0x30]
	b           |$LN92@tmalloc_la|
|$LN91@tmalloc_la|
	mov         x9,#0xFFFF
	ldr         x8,[sp,#0xD8]
	cmp         x8,x9
	bls         |$LN93@tmalloc_la|
	mov         w8,#0x1F
	str         w8,[sp,#0x30]
	b           |$LN94@tmalloc_la|
|$LN93@tmalloc_la|
	ldr         x8,[sp,#0xD8]
	mov         w8,w8
	clz         w8,w8
	str         w8,[sp,#0xB4]
	mov         w9,#0x1F
	ldr         w8,[sp,#0xB4]
	sub         w9,w9,w8
	add         x8,sp,#0x6C
	str         w9,[x8]
	ldr         w8,[sp,#0x6C]
	lsl         w8,w8,#1
	uxtw        x10,w8
	ldr         w8,[sp,#0x6C]
	add         w8,w8,#7
	uxtw        x9,w8
	ldr         x8,[sp,#0x20]
	lsr         x8,x8,x9
	and         x8,x8,#1
	add         x8,x10,x8
	mov         w8,w8
	str         w8,[sp,#0x30]
|$LN94@tmalloc_la|
|$LN92@tmalloc_la|
	ldr         x8,[sp,#8]
	add         x10,x8,#0x258
	ldr         w8,[sp,#0x30]
	uxtw        x9,w8
	mov         x8,#8
	mul         x8,x9,x8
	add         x8,x10,x8
	str         x8,[sp,#0xE0]
	ldr         x8,[sp,#0x18]
	add         x9,x8,#0x38
	ldr         w8,[sp,#0x30]
	str         w8,[x9]
	ldr         x8,[sp,#0x18]
	add         x9,x8,#0x28
	mov         x8,#0
	str         x8,[x9]
	ldr         x8,[sp,#0x18]
	add         x9,x8,#0x20
	mov         x8,#0
	str         x8,[x9]
	ldr         x8,[sp,#8]
	add         x10,x8,#4
	mov         w9,#1
	ldr         w8,[sp,#0x30]
	lsl         w9,w9,w8
	ldr         w8,[x10]
	and         w8,w8,w9
	cmp         w8,#0
	bne         |$LN95@tmalloc_la|
	ldr         x8,[sp,#8]
	add         x10,x8,#4
	mov         w9,#1
	ldr         w8,[sp,#0x30]
	lsl         w9,w9,w8
	ldr         w8,[x10]
	orr         w9,w8,w9
	ldr         x8,[sp,#8]
	add         x8,x8,#4
	str         w9,[x8]
	ldr         x9,[sp,#0xE0]
	ldr         x8,[sp,#0x18]
	str         x8,[x9]
	ldr         x8,[sp,#0x18]
	add         x9,x8,#0x30
	ldr         x8,[sp,#0xE0]
	str         x8,[x9]
	ldr         x8,[sp,#0x18]
	add         x9,x8,#0x18
	ldr         x8,[sp,#0x18]
	str         x8,[x9]
	ldr         x8,[sp,#0x18]
	add         x9,x8,#0x10
	ldr         x8,[sp,#0x18]
	str         x8,[x9]
	b           |$LN96@tmalloc_la|
|$LN95@tmalloc_la|
	ldr         x8,[sp,#0xE0]
	ldr         x8,[x8]
	str         x8,[sp,#0x48]
	ldr         w8,[sp,#0x30]
	cmp         w8,#0x1F
	bne         |$LN110@tmalloc_la|
	mov         x8,#0
	str         x8,[sp,#0x128]
	b           |$LN111@tmalloc_la|
|$LN110@tmalloc_la|
	ldr         w8,[sp,#0x30]
	lsr         w8,w8,#1
	add         w8,w8,#8
	sub         w8,w8,#2
	uxtw        x9,w8
	mov         x8,#0x3F
	sub         x8,x8,x9
	str         x8,[sp,#0x128]
|$LN111@tmalloc_la|
	ldr         x9,[sp,#0x20]
	ldr         x8,[sp,#0x128]
	lsl         x8,x9,x8
	str         x8,[sp,#0xE8]
|$LN30@tmalloc_la|
	ldr         x8,[sp,#0x48]
	add         x8,x8,#8
	ldr         x8,[x8]
	and         x9,x8,#-8
	ldr         x8,[sp,#0x20]
	cmp         x9,x8
	beq         |$LN97@tmalloc_la|
	ldr         x8,[sp,#0x48]
	add         x10,x8,#0x20
	ldr         x8,[sp,#0xE8]
	lsr         x9,x8,#0x3F
	mov         x8,#8
	mul         x8,x9,x8
	add         x8,x10,x8
	str         x8,[sp,#0x98]
	ldr         x8,[sp,#0xE8]
	lsl         x8,x8,#1
	str         x8,[sp,#0xE8]
	ldr         x8,[sp,#0x98]
	ldr         x8,[x8]
	cmp         x8,#0
	beq         |$LN99@tmalloc_la|
	ldr         x8,[sp,#0x98]
	ldr         x8,[x8]
	str         x8,[sp,#0x48]
	b           |$LN100@tmalloc_la|
|$LN99@tmalloc_la|
	ldr         x8,[sp,#8]
	add         x8,x8,#0x18
	ldr         x9,[x8]
	ldr         x8,[sp,#0x98]
	cmp         x8,x9
	blo         |$LN101@tmalloc_la|
	ldr         x9,[sp,#0x98]
	ldr         x8,[sp,#0x18]
	str         x8,[x9]
	ldr         x8,[sp,#0x18]
	add         x9,x8,#0x30
	ldr         x8,[sp,#0x48]
	str         x8,[x9]
	ldr         x8,[sp,#0x18]
	add         x9,x8,#0x18
	ldr         x8,[sp,#0x18]
	str         x8,[x9]
	ldr         x8,[sp,#0x18]
	add         x9,x8,#0x10
	ldr         x8,[sp,#0x18]
	str         x8,[x9]
	b           |$LN31@tmalloc_la|
	b           |$LN102@tmalloc_la|
|$LN101@tmalloc_la|
|$LN33@tmalloc_la|
	b           |$LN33@tmalloc_la|
	b           |$LN31@tmalloc_la|
|$LN102@tmalloc_la|
|$LN100@tmalloc_la|
	b           |$LN98@tmalloc_la|
|$LN97@tmalloc_la|
	ldr         x8,[sp,#0x48]
	add         x8,x8,#0x10
	ldr         x8,[x8]
	str         x8,[sp,#0xF0]
	ldr         x8,[sp,#8]
	add         x8,x8,#0x18
	ldr         x9,[x8]
	ldr         x8,[sp,#0x48]
	cmp         x8,x9
	blo         |$LN103@tmalloc_la|
	ldr         x8,[sp,#8]
	add         x8,x8,#0x18
	ldr         x9,[x8]
	ldr         x8,[sp,#0xF0]
	cmp         x8,x9
	blo         |$LN103@tmalloc_la|
	ldr         x8,[sp,#0xF0]
	add         x9,x8,#0x18
	ldr         x8,[sp,#0x18]
	str         x8,[x9]
	ldr         x8,[sp,#0x48]
	add         x9,x8,#0x10
	ldr         x8,[sp,#0x18]
	str         x8,[x9]
	ldr         x8,[sp,#0x18]
	add         x9,x8,#0x10
	ldr         x8,[sp,#0xF0]
	str         x8,[x9]
	ldr         x8,[sp,#0x18]
	add         x9,x8,#0x18
	ldr         x8,[sp,#0x48]
	str         x8,[x9]
	ldr         x8,[sp,#0x18]
	add         x9,x8,#0x30
	mov         x8,#0
	str         x8,[x9]
	b           |$LN31@tmalloc_la|
	b           |$LN104@tmalloc_la|
|$LN103@tmalloc_la|
|$LN36@tmalloc_la|
	b           |$LN36@tmalloc_la|
	b           |$LN31@tmalloc_la|
|$LN104@tmalloc_la|
|$LN98@tmalloc_la|
	b           |$LN30@tmalloc_la|
|$LN31@tmalloc_la|
|$LN96@tmalloc_la|
|$LN86@tmalloc_la|
|$LN84@tmalloc_la|

; 4574 :                 }
; 4575 :                 return chunk2mem(v);

	ldr         x8,[sp]
	add         x0,x8,#0x10
	b           |$LN1@tmalloc_la|
|$LN56@tmalloc_la|
|$LN55@tmalloc_la|
|$LN39@tmalloc_la|

; 4576 :             }
; 4577 :         }
; 4578 :         CORRUPTION_ERROR_ACTION(m);

	b           |$LN39@tmalloc_la|
|$LN54@tmalloc_la|

; 4579 :     }
; 4580 :     return 0;

	mov         x0,#0
|$LN1@tmalloc_la|
	add         sp,sp,#0x130
	ret

	ENDP  ; |tmalloc_large|

; Function compile flags: /Odtpy
; File C:\Users\paras\source\repos\grep-name\XenevaOS\KernelAA64\Mm\dlmalloc.c

	AREA	|.text$mn|, CODE, ARM64

|dispose_chunk| PROC

; 4442 : static void dispose_chunk(mstate m, mchunkptr p, size_t psize) {

	sub         sp,sp,#0x180
	str         x0,[sp]
	str         x1,[sp,#8]
	str         x2,[sp,#0x10]

; 4443 :     mchunkptr next = chunk_plus_offset(p, psize);

	ldr         x9,[sp,#8]
	ldr         x8,[sp,#0x10]
	add         x8,x9,x8
	str         x8,[sp,#0x48]

; 4444 :     if (!pinuse(p)) {

	ldr         x8,[sp,#8]
	add         x8,x8,#8
	ldr         x8,[x8]
	tbnz        x8,#0,|$LN72@dispose_ch|

; 4445 :         mchunkptr prev;
; 4446 :         size_t prevsize = p->prev_foot;

	ldr         x8,[sp,#8]
	ldr         x8,[x8]
	str         x8,[sp,#0xB8]

; 4447 :         if (is_mmapped(p)) {

	ldr         x8,[sp,#8]
	add         x8,x8,#8
	ldr         x8,[x8]
	and         x8,x8,#3
	cmp         x8,#0
	bne         |$LN73@dispose_ch|

; 4448 :             psize += prevsize + MMAP_FOOT_PAD;

	ldr         x8,[sp,#0xB8]
	add         x9,x8,#0x20
	ldr         x8,[sp,#0x10]
	add         x8,x8,x9
	str         x8,[sp,#0x10]

; 4449 :             if (CALL_MUNMAP((char*)p - prevsize, psize) == 0)

	mov         w8,#0
	cmp         w8,#0
	beq         |$LN74@dispose_ch|

; 4450 :                 m->footprint -= psize;

	ldr         x8,[sp]
	add         x8,x8,#0x358
	ldr         x9,[x8]
	ldr         x8,[sp,#0x10]
	sub         x9,x9,x8
	ldr         x8,[sp]
	add         x8,x8,#0x358
	str         x9,[x8]
|$LN74@dispose_ch|

; 4451 :             return;

	b           |$LN1@dispose_ch|
|$LN73@dispose_ch|

; 4452 :         }
; 4453 :         prev = chunk_minus_offset(p, prevsize);

	ldr         x9,[sp,#8]
	ldr         x8,[sp,#0xB8]
	sub         x8,x9,x8
	str         x8,[sp,#0x148]

; 4454 :         psize += prevsize;

	ldr         x9,[sp,#0x10]
	ldr         x8,[sp,#0xB8]
	add         x8,x9,x8
	str         x8,[sp,#0x10]

; 4455 :         p = prev;

	ldr         x8,[sp,#0x148]
	str         x8,[sp,#8]

; 4456 :         if (RTCHECK(ok_address(m, prev))) { /* consolidate backward */

	ldr         x8,[sp]
	add         x8,x8,#0x18
	ldr         x9,[x8]
	ldr         x8,[sp,#0x148]
	cmp         x8,x9
	blo         |$LN75@dispose_ch|

; 4457 :             if (p != m->dv) {

	ldr         x8,[sp]
	add         x8,x8,#0x20
	ldr         x9,[x8]
	ldr         x8,[sp,#8]
	cmp         x8,x9
	beq         |$LN77@dispose_ch|

; 4458 :                 unlink_chunk(m, p, prevsize);

	ldr         x8,[sp,#0xB8]
	lsr         x8,x8,#3
	cmp         x8,#0x20
	bhs         |$LN79@dispose_ch|
	ldr         x8,[sp,#8]
	add         x8,x8,#0x10
	ldr         x8,[x8]
	str         x8,[sp,#0x90]
	ldr         x8,[sp,#8]
	add         x8,x8,#0x18
	ldr         x8,[x8]
	str         x8,[sp,#0x88]
	ldr         x8,[sp,#0xB8]
	lsr         x8,x8,#3
	mov         w8,w8
	str         w8,[sp,#0x58]
	ldr         x8,[sp]
	add         x10,x8,#0x48
	ldr         w8,[sp,#0x58]
	lsl         w8,w8,#1
	uxtw        x9,w8
	mov         x8,#8
	mul         x8,x9,x8
	add         x9,x10,x8
	ldr         x8,[sp,#0x90]
	cmp         x8,x9
	beq         |$LN83@dispose_ch|
	ldr         x8,[sp]
	add         x8,x8,#0x18
	ldr         x9,[x8]
	ldr         x8,[sp,#0x90]
	cmp         x8,x9
	blo         |$LN81@dispose_ch|
	ldr         x8,[sp,#0x90]
	add         x8,x8,#0x18
	ldr         x9,[sp,#8]
	ldr         x8,[x8]
	cmp         x8,x9
	bne         |$LN81@dispose_ch|
|$LN83@dispose_ch|
	ldr         x9,[sp,#0x90]
	ldr         x8,[sp,#0x88]
	cmp         x8,x9
	bne         |$LN84@dispose_ch|
	ldr         x10,[sp]
	mov         w9,#1
	ldr         w8,[sp,#0x58]
	lsl         w8,w9,w8
	mvn         w9,w8
	ldr         w8,[x10]
	and         w9,w8,w9
	ldr         x8,[sp]
	str         w9,[x8]
	b           |$LN85@dispose_ch|
|$LN84@dispose_ch|
	ldr         x8,[sp]
	add         x10,x8,#0x48
	ldr         w8,[sp,#0x58]
	lsl         w8,w8,#1
	uxtw        x9,w8
	mov         x8,#8
	mul         x8,x9,x8
	add         x9,x10,x8
	ldr         x8,[sp,#0x88]
	cmp         x8,x9
	beq         |$LN88@dispose_ch|
	ldr         x8,[sp]
	add         x8,x8,#0x18
	ldr         x9,[x8]
	ldr         x8,[sp,#0x88]
	cmp         x8,x9
	blo         |$LN86@dispose_ch|
	ldr         x8,[sp,#0x88]
	add         x8,x8,#0x10
	ldr         x9,[sp,#8]
	ldr         x8,[x8]
	cmp         x8,x9
	bne         |$LN86@dispose_ch|
|$LN88@dispose_ch|
	ldr         x8,[sp,#0x90]
	add         x9,x8,#0x18
	ldr         x8,[sp,#0x88]
	str         x8,[x9]
	ldr         x8,[sp,#0x88]
	add         x9,x8,#0x10
	ldr         x8,[sp,#0x90]
	str         x8,[x9]
	b           |$LN87@dispose_ch|
|$LN86@dispose_ch|
|$LN2@dispose_ch|
	b           |$LN2@dispose_ch|
|$LN87@dispose_ch|
|$LN85@dispose_ch|
	b           |$LN82@dispose_ch|
|$LN81@dispose_ch|
|$LN5@dispose_ch|
	b           |$LN5@dispose_ch|
|$LN82@dispose_ch|
	b           |$LN80@dispose_ch|
|$LN79@dispose_ch|
	ldr         x8,[sp,#8]
	str         x8,[sp,#0x38]
	ldr         x8,[sp,#0x38]
	add         x8,x8,#0x30
	ldr         x8,[x8]
	str         x8,[sp,#0x98]
	ldr         x8,[sp,#0x38]
	add         x8,x8,#0x18
	ldr         x9,[sp,#0x38]
	ldr         x8,[x8]
	cmp         x8,x9
	beq         |$LN89@dispose_ch|
	ldr         x8,[sp,#0x38]
	add         x8,x8,#0x10
	ldr         x8,[x8]
	str         x8,[sp,#0xC0]
	ldr         x8,[sp,#0x38]
	add         x8,x8,#0x18
	ldr         x8,[x8]
	str         x8,[sp,#0x18]
	ldr         x8,[sp]
	add         x8,x8,#0x18
	ldr         x9,[x8]
	ldr         x8,[sp,#0xC0]
	cmp         x8,x9
	blo         |$LN91@dispose_ch|
	ldr         x8,[sp,#0xC0]
	add         x8,x8,#0x18
	ldr         x9,[sp,#0x38]
	ldr         x8,[x8]
	cmp         x8,x9
	bne         |$LN91@dispose_ch|
	ldr         x8,[sp,#0x18]
	add         x8,x8,#0x10
	ldr         x9,[sp,#0x38]
	ldr         x8,[x8]
	cmp         x8,x9
	bne         |$LN91@dispose_ch|
	ldr         x8,[sp,#0xC0]
	add         x9,x8,#0x18
	ldr         x8,[sp,#0x18]
	str         x8,[x9]
	ldr         x8,[sp,#0x18]
	add         x9,x8,#0x10
	ldr         x8,[sp,#0xC0]
	str         x8,[x9]
	b           |$LN92@dispose_ch|
|$LN91@dispose_ch|
|$LN8@dispose_ch|
	b           |$LN8@dispose_ch|
|$LN92@dispose_ch|
	b           |$LN90@dispose_ch|
|$LN89@dispose_ch|
	ldr         x8,[sp,#0x38]
	add         x8,x8,#0x28
	str         x8,[sp,#0x68]
	ldr         x8,[sp,#0x68]
	ldr         x8,[x8]
	str         x8,[sp,#0x18]
	ldr         x8,[sp,#0x18]
	cmp         x8,#0
	bne         |$LN94@dispose_ch|
	ldr         x8,[sp,#0x38]
	add         x8,x8,#0x20
	str         x8,[sp,#0x68]
	ldr         x8,[sp,#0x68]
	ldr         x8,[x8]
	str         x8,[sp,#0x18]
	ldr         x8,[sp,#0x18]
	cmp         x8,#0
	beq         |$LN93@dispose_ch|
|$LN94@dispose_ch|
|$LN11@dispose_ch|
	ldr         x8,[sp,#0x18]
	add         x8,x8,#0x28
	str         x8,[sp,#0xC8]
	ldr         x8,[sp,#0xC8]
	ldr         x8,[x8]
	cmp         x8,#0
	bne         |$LN95@dispose_ch|
	ldr         x8,[sp,#0x18]
	add         x8,x8,#0x20
	str         x8,[sp,#0xC8]
	ldr         x8,[sp,#0xC8]
	ldr         x8,[x8]
	cmp         x8,#0
	beq         |$LN12@dispose_ch|
|$LN95@dispose_ch|
	ldr         x8,[sp,#0xC8]
	str         x8,[sp,#0x68]
	ldr         x8,[sp,#0x68]
	ldr         x8,[x8]
	str         x8,[sp,#0x18]
	b           |$LN11@dispose_ch|
|$LN12@dispose_ch|
	ldr         x8,[sp]
	add         x8,x8,#0x18
	ldr         x9,[x8]
	ldr         x8,[sp,#0x68]
	cmp         x8,x9
	blo         |$LN96@dispose_ch|
	ldr         x9,[sp,#0x68]
	mov         x8,#0
	str         x8,[x9]
	b           |$LN97@dispose_ch|
|$LN96@dispose_ch|
|$LN13@dispose_ch|
	b           |$LN13@dispose_ch|
|$LN97@dispose_ch|
|$LN93@dispose_ch|
|$LN90@dispose_ch|
	ldr         x8,[sp,#0x98]
	cmp         x8,#0
	beq         |$LN98@dispose_ch|
	ldr         x8,[sp]
	add         x10,x8,#0x258
	ldr         x8,[sp,#0x38]
	add         x8,x8,#0x38
	ldr         w8,[x8]
	uxtw        x9,w8
	mov         x8,#8
	mul         x8,x9,x8
	add         x8,x10,x8
	str         x8,[sp,#0x150]
	ldr         x8,[sp,#0x150]
	ldr         x9,[x8]
	ldr         x8,[sp,#0x38]
	cmp         x8,x9
	bne         |$LN99@dispose_ch|
	ldr         x9,[sp,#0x150]
	ldr         x8,[sp,#0x18]
	str         x8,[x9]
	ldr         x8,[sp,#0x18]
	cmp         x8,#0
	bne         |$LN101@dispose_ch|
	ldr         x8,[sp]
	add         x10,x8,#4
	ldr         x8,[sp,#0x38]
	add         x8,x8,#0x38
	mov         w9,#1
	ldr         w8,[x8]
	lsl         w8,w9,w8
	mvn         w9,w8
	ldr         w8,[x10]
	and         w9,w8,w9
	ldr         x8,[sp]
	add         x8,x8,#4
	str         w9,[x8]
|$LN101@dispose_ch|
	b           |$LN100@dispose_ch|
|$LN99@dispose_ch|
	ldr         x8,[sp]
	add         x8,x8,#0x18
	ldr         x9,[x8]
	ldr         x8,[sp,#0x98]
	cmp         x8,x9
	blo         |$LN102@dispose_ch|
	ldr         x8,[sp,#0x98]
	add         x8,x8,#0x20
	ldr         x9,[sp,#0x38]
	ldr         x8,[x8]
	cmp         x8,x9
	bne         |$LN104@dispose_ch|
	ldr         x8,[sp,#0x98]
	add         x9,x8,#0x20
	ldr         x8,[sp,#0x18]
	str         x8,[x9]
	b           |$LN105@dispose_ch|
|$LN104@dispose_ch|
	ldr         x8,[sp,#0x98]
	add         x9,x8,#0x28
	ldr         x8,[sp,#0x18]
	str         x8,[x9]
|$LN105@dispose_ch|
	b           |$LN103@dispose_ch|
|$LN102@dispose_ch|
|$LN16@dispose_ch|
	b           |$LN16@dispose_ch|
|$LN103@dispose_ch|
|$LN100@dispose_ch|
	ldr         x8,[sp,#0x18]
	cmp         x8,#0
	beq         |$LN106@dispose_ch|
	ldr         x8,[sp]
	add         x8,x8,#0x18
	ldr         x9,[x8]
	ldr         x8,[sp,#0x18]
	cmp         x8,x9
	blo         |$LN107@dispose_ch|
	ldr         x8,[sp,#0x18]
	add         x9,x8,#0x30
	ldr         x8,[sp,#0x98]
	str         x8,[x9]
	ldr         x8,[sp,#0x38]
	add         x8,x8,#0x20
	ldr         x8,[x8]
	str         x8,[sp,#0xD0]
	ldr         x8,[sp,#0xD0]
	cmp         x8,#0
	beq         |$LN109@dispose_ch|
	ldr         x8,[sp]
	add         x8,x8,#0x18
	ldr         x9,[x8]
	ldr         x8,[sp,#0xD0]
	cmp         x8,x9
	blo         |$LN110@dispose_ch|
	ldr         x8,[sp,#0x18]
	add         x9,x8,#0x20
	ldr         x8,[sp,#0xD0]
	str         x8,[x9]
	ldr         x8,[sp,#0xD0]
	add         x9,x8,#0x30
	ldr         x8,[sp,#0x18]
	str         x8,[x9]
	b           |$LN111@dispose_ch|
|$LN110@dispose_ch|
|$LN19@dispose_ch|
	b           |$LN19@dispose_ch|
|$LN111@dispose_ch|
|$LN109@dispose_ch|
	ldr         x8,[sp,#0x38]
	add         x8,x8,#0x28
	ldr         x8,[x8]
	str         x8,[sp,#0xD8]
	ldr         x8,[sp,#0xD8]
	cmp         x8,#0
	beq         |$LN112@dispose_ch|
	ldr         x8,[sp]
	add         x8,x8,#0x18
	ldr         x9,[x8]
	ldr         x8,[sp,#0xD8]
	cmp         x8,x9
	blo         |$LN113@dispose_ch|
	ldr         x8,[sp,#0x18]
	add         x9,x8,#0x28
	ldr         x8,[sp,#0xD8]
	str         x8,[x9]
	ldr         x8,[sp,#0xD8]
	add         x9,x8,#0x30
	ldr         x8,[sp,#0x18]
	str         x8,[x9]
	b           |$LN114@dispose_ch|
|$LN113@dispose_ch|
|$LN22@dispose_ch|
	b           |$LN22@dispose_ch|
|$LN114@dispose_ch|
|$LN112@dispose_ch|
	b           |$LN108@dispose_ch|
|$LN107@dispose_ch|
|$LN25@dispose_ch|
	b           |$LN25@dispose_ch|
|$LN108@dispose_ch|
|$LN106@dispose_ch|
|$LN98@dispose_ch|
|$LN80@dispose_ch|

; 4459 :             }

	b           |$LN78@dispose_ch|
|$LN77@dispose_ch|

; 4460 :             else if ((next->head & INUSE_BITS) == INUSE_BITS) {

	ldr         x8,[sp,#0x48]
	add         x8,x8,#8
	ldr         x8,[x8]
	and         x8,x8,#3
	cmp         x8,#3
	bne         |$LN115@dispose_ch|

; 4461 :                 m->dvsize = psize;

	ldr         x8,[sp]
	add         x9,x8,#8
	ldr         x8,[sp,#0x10]
	str         x8,[x9]

; 4462 :                 set_free_with_pinuse(p, psize, next);

	ldr         x8,[sp,#0x48]
	add         x8,x8,#8
	ldr         x8,[x8]
	and         x9,x8,#-2
	ldr         x8,[sp,#0x48]
	add         x8,x8,#8
	str         x9,[x8]
	ldr         x8,[sp,#0x10]
	orr         x9,x8,#1
	ldr         x8,[sp,#8]
	add         x8,x8,#8
	str         x9,[x8]
	ldr         x9,[sp,#8]
	ldr         x8,[sp,#0x10]
	add         x9,x9,x8
	ldr         x8,[sp,#0x10]
	str         x8,[x9]

; 4463 :                 return;

	b           |$LN1@dispose_ch|
|$LN115@dispose_ch|
|$LN78@dispose_ch|

; 4464 :             }
; 4465 :         }

	b           |$LN76@dispose_ch|
|$LN75@dispose_ch|
|$LN28@dispose_ch|

; 4466 :         else {
; 4467 :             CORRUPTION_ERROR_ACTION(m);

	b           |$LN28@dispose_ch|

; 4468 :             return;

	b           |$LN1@dispose_ch|
|$LN76@dispose_ch|
|$LN72@dispose_ch|

; 4469 :         }
; 4470 :     }
; 4471 :     if (RTCHECK(ok_address(m, next))) {

	ldr         x8,[sp]
	add         x8,x8,#0x18
	ldr         x9,[x8]
	ldr         x8,[sp,#0x48]
	cmp         x8,x9
	blo         |$LN116@dispose_ch|

; 4472 :         if (!cinuse(next)) {  /* consolidate forward */

	ldr         x8,[sp,#0x48]
	add         x8,x8,#8
	ldr         x8,[x8]
	tbnz        x8,#1,|$LN118@dispose_ch|

; 4473 :             if (next == m->top) {

	ldr         x8,[sp]
	add         x8,x8,#0x28
	ldr         x9,[x8]
	ldr         x8,[sp,#0x48]
	cmp         x8,x9
	bne         |$LN120@dispose_ch|

; 4474 :                 size_t tsize = m->topsize += psize;

	ldr         x8,[sp]
	add         x8,x8,#0x10
	ldr         x9,[x8]
	ldr         x8,[sp,#0x10]
	add         x8,x9,x8
	str         x8,[sp,#0x158]
	ldr         x8,[sp]
	add         x9,x8,#0x10
	ldr         x8,[sp,#0x158]
	str         x8,[x9]
	ldr         x8,[sp,#0x158]
	str         x8,[sp,#0x178]

; 4475 :                 m->top = p;

	ldr         x8,[sp]
	add         x9,x8,#0x28
	ldr         x8,[sp,#8]
	str         x8,[x9]

; 4476 :                 p->head = tsize | PINUSE_BIT;

	ldr         x8,[sp,#0x178]
	orr         x9,x8,#1
	ldr         x8,[sp,#8]
	add         x8,x8,#8
	str         x9,[x8]

; 4477 :                 if (p == m->dv) {

	ldr         x8,[sp]
	add         x8,x8,#0x20
	ldr         x9,[x8]
	ldr         x8,[sp,#8]
	cmp         x8,x9
	bne         |$LN122@dispose_ch|

; 4478 :                     m->dv = 0;

	ldr         x8,[sp]
	add         x9,x8,#0x20
	mov         x8,#0
	str         x8,[x9]

; 4479 :                     m->dvsize = 0;

	ldr         x8,[sp]
	add         x9,x8,#8
	mov         x8,#0
	str         x8,[x9]
|$LN122@dispose_ch|

; 4480 :                 }
; 4481 :                 return;

	b           |$LN1@dispose_ch|

; 4482 :             }

	b           |$LN121@dispose_ch|
|$LN120@dispose_ch|

; 4483 :             else if (next == m->dv) {

	ldr         x8,[sp]
	add         x8,x8,#0x20
	ldr         x9,[x8]
	ldr         x8,[sp,#0x48]
	cmp         x8,x9
	bne         |$LN123@dispose_ch|

; 4484 :                 size_t dsize = m->dvsize += psize;

	ldr         x8,[sp]
	add         x8,x8,#8
	ldr         x9,[x8]
	ldr         x8,[sp,#0x10]
	add         x8,x9,x8
	str         x8,[sp,#0x160]
	ldr         x8,[sp]
	add         x9,x8,#8
	ldr         x8,[sp,#0x160]
	str         x8,[x9]
	ldr         x8,[sp,#0x160]
	str         x8,[sp,#0x110]

; 4485 :                 m->dv = p;

	ldr         x8,[sp]
	add         x9,x8,#0x20
	ldr         x8,[sp,#8]
	str         x8,[x9]

; 4486 :                 set_size_and_pinuse_of_free_chunk(p, dsize);

	ldr         x8,[sp,#0x110]
	orr         x9,x8,#1
	ldr         x8,[sp,#8]
	add         x8,x8,#8
	str         x9,[x8]
	ldr         x9,[sp,#8]
	ldr         x8,[sp,#0x110]
	add         x9,x9,x8
	ldr         x8,[sp,#0x110]
	str         x8,[x9]

; 4487 :                 return;

	b           |$LN1@dispose_ch|

; 4488 :             }

	b           |$LN124@dispose_ch|
|$LN123@dispose_ch|

; 4489 :             else {
; 4490 :                 size_t nsize = chunksize(next);

	ldr         x8,[sp,#0x48]
	add         x8,x8,#8
	ldr         x8,[x8]
	and         x8,x8,#-8
	str         x8,[sp,#0x118]

; 4491 :                 psize += nsize;

	ldr         x9,[sp,#0x10]
	ldr         x8,[sp,#0x118]
	add         x8,x9,x8
	str         x8,[sp,#0x10]

; 4492 :                 unlink_chunk(m, next, nsize);

	ldr         x8,[sp,#0x118]
	lsr         x8,x8,#3
	cmp         x8,#0x20
	bhs         |$LN125@dispose_ch|
	ldr         x8,[sp,#0x48]
	add         x8,x8,#0x10
	ldr         x8,[x8]
	str         x8,[sp,#0x78]
	ldr         x8,[sp,#0x48]
	add         x8,x8,#0x18
	ldr         x8,[x8]
	str         x8,[sp,#0xA0]
	ldr         x8,[sp,#0x118]
	lsr         x8,x8,#3
	mov         w8,w8
	str         w8,[sp,#0x5C]
	ldr         x8,[sp]
	add         x10,x8,#0x48
	ldr         w8,[sp,#0x5C]
	lsl         w8,w8,#1
	uxtw        x9,w8
	mov         x8,#8
	mul         x8,x9,x8
	add         x9,x10,x8
	ldr         x8,[sp,#0x78]
	cmp         x8,x9
	beq         |$LN129@dispose_ch|
	ldr         x8,[sp]
	add         x8,x8,#0x18
	ldr         x9,[x8]
	ldr         x8,[sp,#0x78]
	cmp         x8,x9
	blo         |$LN127@dispose_ch|
	ldr         x8,[sp,#0x78]
	add         x8,x8,#0x18
	ldr         x9,[sp,#0x48]
	ldr         x8,[x8]
	cmp         x8,x9
	bne         |$LN127@dispose_ch|
|$LN129@dispose_ch|
	ldr         x9,[sp,#0x78]
	ldr         x8,[sp,#0xA0]
	cmp         x8,x9
	bne         |$LN130@dispose_ch|
	ldr         x10,[sp]
	mov         w9,#1
	ldr         w8,[sp,#0x5C]
	lsl         w8,w9,w8
	mvn         w9,w8
	ldr         w8,[x10]
	and         w9,w8,w9
	ldr         x8,[sp]
	str         w9,[x8]
	b           |$LN131@dispose_ch|
|$LN130@dispose_ch|
	ldr         x8,[sp]
	add         x10,x8,#0x48
	ldr         w8,[sp,#0x5C]
	lsl         w8,w8,#1
	uxtw        x9,w8
	mov         x8,#8
	mul         x8,x9,x8
	add         x9,x10,x8
	ldr         x8,[sp,#0xA0]
	cmp         x8,x9
	beq         |$LN134@dispose_ch|
	ldr         x8,[sp]
	add         x8,x8,#0x18
	ldr         x9,[x8]
	ldr         x8,[sp,#0xA0]
	cmp         x8,x9
	blo         |$LN132@dispose_ch|
	ldr         x8,[sp,#0xA0]
	add         x8,x8,#0x10
	ldr         x9,[sp,#0x48]
	ldr         x8,[x8]
	cmp         x8,x9
	bne         |$LN132@dispose_ch|
|$LN134@dispose_ch|
	ldr         x8,[sp,#0x78]
	add         x9,x8,#0x18
	ldr         x8,[sp,#0xA0]
	str         x8,[x9]
	ldr         x8,[sp,#0xA0]
	add         x9,x8,#0x10
	ldr         x8,[sp,#0x78]
	str         x8,[x9]
	b           |$LN133@dispose_ch|
|$LN132@dispose_ch|
|$LN31@dispose_ch|
	b           |$LN31@dispose_ch|
|$LN133@dispose_ch|
|$LN131@dispose_ch|
	b           |$LN128@dispose_ch|
|$LN127@dispose_ch|
|$LN34@dispose_ch|
	b           |$LN34@dispose_ch|
|$LN128@dispose_ch|
	b           |$LN126@dispose_ch|
|$LN125@dispose_ch|
	ldr         x8,[sp,#0x48]
	str         x8,[sp,#0x40]
	ldr         x8,[sp,#0x40]
	add         x8,x8,#0x30
	ldr         x8,[x8]
	str         x8,[sp,#0x80]
	ldr         x8,[sp,#0x40]
	add         x8,x8,#0x18
	ldr         x9,[sp,#0x40]
	ldr         x8,[x8]
	cmp         x8,x9
	beq         |$LN135@dispose_ch|
	ldr         x8,[sp,#0x40]
	add         x8,x8,#0x10
	ldr         x8,[x8]
	str         x8,[sp,#0xE0]
	ldr         x8,[sp,#0x40]
	add         x8,x8,#0x18
	ldr         x8,[x8]
	str         x8,[sp,#0x20]
	ldr         x8,[sp]
	add         x8,x8,#0x18
	ldr         x9,[x8]
	ldr         x8,[sp,#0xE0]
	cmp         x8,x9
	blo         |$LN137@dispose_ch|
	ldr         x8,[sp,#0xE0]
	add         x8,x8,#0x18
	ldr         x9,[sp,#0x40]
	ldr         x8,[x8]
	cmp         x8,x9
	bne         |$LN137@dispose_ch|
	ldr         x8,[sp,#0x20]
	add         x8,x8,#0x10
	ldr         x9,[sp,#0x40]
	ldr         x8,[x8]
	cmp         x8,x9
	bne         |$LN137@dispose_ch|
	ldr         x8,[sp,#0xE0]
	add         x9,x8,#0x18
	ldr         x8,[sp,#0x20]
	str         x8,[x9]
	ldr         x8,[sp,#0x20]
	add         x9,x8,#0x10
	ldr         x8,[sp,#0xE0]
	str         x8,[x9]
	b           |$LN138@dispose_ch|
|$LN137@dispose_ch|
|$LN37@dispose_ch|
	b           |$LN37@dispose_ch|
|$LN138@dispose_ch|
	b           |$LN136@dispose_ch|
|$LN135@dispose_ch|
	ldr         x8,[sp,#0x40]
	add         x8,x8,#0x28
	str         x8,[sp,#0x70]
	ldr         x8,[sp,#0x70]
	ldr         x8,[x8]
	str         x8,[sp,#0x20]
	ldr         x8,[sp,#0x20]
	cmp         x8,#0
	bne         |$LN140@dispose_ch|
	ldr         x8,[sp,#0x40]
	add         x8,x8,#0x20
	str         x8,[sp,#0x70]
	ldr         x8,[sp,#0x70]
	ldr         x8,[x8]
	str         x8,[sp,#0x20]
	ldr         x8,[sp,#0x20]
	cmp         x8,#0
	beq         |$LN139@dispose_ch|
|$LN140@dispose_ch|
|$LN40@dispose_ch|
	ldr         x8,[sp,#0x20]
	add         x8,x8,#0x28
	str         x8,[sp,#0xE8]
	ldr         x8,[sp,#0xE8]
	ldr         x8,[x8]
	cmp         x8,#0
	bne         |$LN141@dispose_ch|
	ldr         x8,[sp,#0x20]
	add         x8,x8,#0x20
	str         x8,[sp,#0xE8]
	ldr         x8,[sp,#0xE8]
	ldr         x8,[x8]
	cmp         x8,#0
	beq         |$LN41@dispose_ch|
|$LN141@dispose_ch|
	ldr         x8,[sp,#0xE8]
	str         x8,[sp,#0x70]
	ldr         x8,[sp,#0x70]
	ldr         x8,[x8]
	str         x8,[sp,#0x20]
	b           |$LN40@dispose_ch|
|$LN41@dispose_ch|
	ldr         x8,[sp]
	add         x8,x8,#0x18
	ldr         x9,[x8]
	ldr         x8,[sp,#0x70]
	cmp         x8,x9
	blo         |$LN142@dispose_ch|
	ldr         x9,[sp,#0x70]
	mov         x8,#0
	str         x8,[x9]
	b           |$LN143@dispose_ch|
|$LN142@dispose_ch|
|$LN42@dispose_ch|
	b           |$LN42@dispose_ch|
|$LN143@dispose_ch|
|$LN139@dispose_ch|
|$LN136@dispose_ch|
	ldr         x8,[sp,#0x80]
	cmp         x8,#0
	beq         |$LN144@dispose_ch|
	ldr         x8,[sp]
	add         x10,x8,#0x258
	ldr         x8,[sp,#0x40]
	add         x8,x8,#0x38
	ldr         w8,[x8]
	uxtw        x9,w8
	mov         x8,#8
	mul         x8,x9,x8
	add         x8,x10,x8
	str         x8,[sp,#0x168]
	ldr         x8,[sp,#0x168]
	ldr         x9,[x8]
	ldr         x8,[sp,#0x40]
	cmp         x8,x9
	bne         |$LN145@dispose_ch|
	ldr         x9,[sp,#0x168]
	ldr         x8,[sp,#0x20]
	str         x8,[x9]
	ldr         x8,[sp,#0x20]
	cmp         x8,#0
	bne         |$LN147@dispose_ch|
	ldr         x8,[sp]
	add         x10,x8,#4
	ldr         x8,[sp,#0x40]
	add         x8,x8,#0x38
	mov         w9,#1
	ldr         w8,[x8]
	lsl         w8,w9,w8
	mvn         w9,w8
	ldr         w8,[x10]
	and         w9,w8,w9
	ldr         x8,[sp]
	add         x8,x8,#4
	str         w9,[x8]
|$LN147@dispose_ch|
	b           |$LN146@dispose_ch|
|$LN145@dispose_ch|
	ldr         x8,[sp]
	add         x8,x8,#0x18
	ldr         x9,[x8]
	ldr         x8,[sp,#0x80]
	cmp         x8,x9
	blo         |$LN148@dispose_ch|
	ldr         x8,[sp,#0x80]
	add         x8,x8,#0x20
	ldr         x9,[sp,#0x40]
	ldr         x8,[x8]
	cmp         x8,x9
	bne         |$LN150@dispose_ch|
	ldr         x8,[sp,#0x80]
	add         x9,x8,#0x20
	ldr         x8,[sp,#0x20]
	str         x8,[x9]
	b           |$LN151@dispose_ch|
|$LN150@dispose_ch|
	ldr         x8,[sp,#0x80]
	add         x9,x8,#0x28
	ldr         x8,[sp,#0x20]
	str         x8,[x9]
|$LN151@dispose_ch|
	b           |$LN149@dispose_ch|
|$LN148@dispose_ch|
|$LN45@dispose_ch|
	b           |$LN45@dispose_ch|
|$LN149@dispose_ch|
|$LN146@dispose_ch|
	ldr         x8,[sp,#0x20]
	cmp         x8,#0
	beq         |$LN152@dispose_ch|
	ldr         x8,[sp]
	add         x8,x8,#0x18
	ldr         x9,[x8]
	ldr         x8,[sp,#0x20]
	cmp         x8,x9
	blo         |$LN153@dispose_ch|
	ldr         x8,[sp,#0x20]
	add         x9,x8,#0x30
	ldr         x8,[sp,#0x80]
	str         x8,[x9]
	ldr         x8,[sp,#0x40]
	add         x8,x8,#0x20
	ldr         x8,[x8]
	str         x8,[sp,#0xF0]
	ldr         x8,[sp,#0xF0]
	cmp         x8,#0
	beq         |$LN155@dispose_ch|
	ldr         x8,[sp]
	add         x8,x8,#0x18
	ldr         x9,[x8]
	ldr         x8,[sp,#0xF0]
	cmp         x8,x9
	blo         |$LN156@dispose_ch|
	ldr         x8,[sp,#0x20]
	add         x9,x8,#0x20
	ldr         x8,[sp,#0xF0]
	str         x8,[x9]
	ldr         x8,[sp,#0xF0]
	add         x9,x8,#0x30
	ldr         x8,[sp,#0x20]
	str         x8,[x9]
	b           |$LN157@dispose_ch|
|$LN156@dispose_ch|
|$LN48@dispose_ch|
	b           |$LN48@dispose_ch|
|$LN157@dispose_ch|
|$LN155@dispose_ch|
	ldr         x8,[sp,#0x40]
	add         x8,x8,#0x28
	ldr         x8,[x8]
	str         x8,[sp,#0xF8]
	ldr         x8,[sp,#0xF8]
	cmp         x8,#0
	beq         |$LN158@dispose_ch|
	ldr         x8,[sp]
	add         x8,x8,#0x18
	ldr         x9,[x8]
	ldr         x8,[sp,#0xF8]
	cmp         x8,x9
	blo         |$LN159@dispose_ch|
	ldr         x8,[sp,#0x20]
	add         x9,x8,#0x28
	ldr         x8,[sp,#0xF8]
	str         x8,[x9]
	ldr         x8,[sp,#0xF8]
	add         x9,x8,#0x30
	ldr         x8,[sp,#0x20]
	str         x8,[x9]
	b           |$LN160@dispose_ch|
|$LN159@dispose_ch|
|$LN51@dispose_ch|
	b           |$LN51@dispose_ch|
|$LN160@dispose_ch|
|$LN158@dispose_ch|
	b           |$LN154@dispose_ch|
|$LN153@dispose_ch|
|$LN54@dispose_ch|
	b           |$LN54@dispose_ch|
|$LN154@dispose_ch|
|$LN152@dispose_ch|
|$LN144@dispose_ch|
|$LN126@dispose_ch|

; 4493 :                 set_size_and_pinuse_of_free_chunk(p, psize);

	ldr         x8,[sp,#0x10]
	orr         x9,x8,#1
	ldr         x8,[sp,#8]
	add         x8,x8,#8
	str         x9,[x8]
	ldr         x9,[sp,#8]
	ldr         x8,[sp,#0x10]
	add         x9,x9,x8
	ldr         x8,[sp,#0x10]
	str         x8,[x9]

; 4494 :                 if (p == m->dv) {

	ldr         x8,[sp]
	add         x8,x8,#0x20
	ldr         x9,[x8]
	ldr         x8,[sp,#8]
	cmp         x8,x9
	bne         |$LN161@dispose_ch|

; 4495 :                     m->dvsize = psize;

	ldr         x8,[sp]
	add         x9,x8,#8
	ldr         x8,[sp,#0x10]
	str         x8,[x9]

; 4496 :                     return;

	b           |$LN1@dispose_ch|
|$LN161@dispose_ch|
|$LN124@dispose_ch|
|$LN121@dispose_ch|

; 4497 :                 }
; 4498 :             }
; 4499 :         }

	b           |$LN119@dispose_ch|
|$LN118@dispose_ch|

; 4500 :         else {
; 4501 :             set_free_with_pinuse(p, psize, next);

	ldr         x8,[sp,#0x48]
	add         x8,x8,#8
	ldr         x8,[x8]
	and         x9,x8,#-2
	ldr         x8,[sp,#0x48]
	add         x8,x8,#8
	str         x9,[x8]
	ldr         x8,[sp,#0x10]
	orr         x9,x8,#1
	ldr         x8,[sp,#8]
	add         x8,x8,#8
	str         x9,[x8]
	ldr         x9,[sp,#8]
	ldr         x8,[sp,#0x10]
	add         x9,x9,x8
	ldr         x8,[sp,#0x10]
	str         x8,[x9]
|$LN119@dispose_ch|

; 4502 :         }
; 4503 :         insert_chunk(m, p, psize);

	ldr         x8,[sp,#0x10]
	lsr         x8,x8,#3
	cmp         x8,#0x20
	bhs         |$LN162@dispose_ch|
	ldr         x8,[sp,#0x10]
	lsr         x8,x8,#3
	mov         w8,w8
	str         w8,[sp,#0x60]
	ldr         x8,[sp]
	add         x10,x8,#0x48
	ldr         w8,[sp,#0x60]
	lsl         w8,w8,#1
	uxtw        x9,w8
	mov         x8,#8
	mul         x8,x9,x8
	add         x8,x10,x8
	str         x8,[sp,#0xB0]
	ldr         x8,[sp,#0xB0]
	str         x8,[sp,#0x120]
	ldr         x10,[sp]
	mov         w9,#1
	ldr         w8,[sp,#0x60]
	lsl         w9,w9,w8
	ldr         w8,[x10]
	and         w8,w8,w9
	cmp         w8,#0
	bne         |$LN164@dispose_ch|
	ldr         x10,[sp]
	mov         w9,#1
	ldr         w8,[sp,#0x60]
	lsl         w9,w9,w8
	ldr         w8,[x10]
	orr         w9,w8,w9
	ldr         x8,[sp]
	str         w9,[x8]
	b           |$LN165@dispose_ch|
|$LN164@dispose_ch|
	ldr         x8,[sp,#0xB0]
	add         x10,x8,#0x10
	ldr         x8,[sp]
	add         x8,x8,#0x18
	ldr         x9,[x8]
	ldr         x8,[x10]
	cmp         x8,x9
	blo         |$LN166@dispose_ch|
	ldr         x8,[sp,#0xB0]
	add         x8,x8,#0x10
	ldr         x8,[x8]
	str         x8,[sp,#0x120]
	b           |$LN167@dispose_ch|
|$LN166@dispose_ch|
|$LN57@dispose_ch|
	b           |$LN57@dispose_ch|
|$LN167@dispose_ch|
|$LN165@dispose_ch|
	ldr         x8,[sp,#0xB0]
	add         x9,x8,#0x10
	ldr         x8,[sp,#8]
	str         x8,[x9]
	ldr         x8,[sp,#0x120]
	add         x9,x8,#0x18
	ldr         x8,[sp,#8]
	str         x8,[x9]
	ldr         x8,[sp,#8]
	add         x9,x8,#0x10
	ldr         x8,[sp,#0x120]
	str         x8,[x9]
	ldr         x8,[sp,#8]
	add         x9,x8,#0x18
	ldr         x8,[sp,#0xB0]
	str         x8,[x9]
	b           |$LN163@dispose_ch|
|$LN162@dispose_ch|
	ldr         x8,[sp,#8]
	str         x8,[sp,#0x28]
	ldr         x8,[sp,#0x10]
	lsr         x8,x8,#8
	str         x8,[sp,#0x128]
	ldr         x8,[sp,#0x128]
	cmp         x8,#0
	bne         |$LN168@dispose_ch|
	mov         w8,#0
	str         w8,[sp,#0x30]
	b           |$LN169@dispose_ch|
|$LN168@dispose_ch|
	mov         x9,#0xFFFF
	ldr         x8,[sp,#0x128]
	cmp         x8,x9
	bls         |$LN170@dispose_ch|
	mov         w8,#0x1F
	str         w8,[sp,#0x30]
	b           |$LN171@dispose_ch|
|$LN170@dispose_ch|
	ldr         x8,[sp,#0x128]
	mov         w8,w8
	clz         w8,w8
	str         w8,[sp,#0x108]
	mov         w9,#0x1F
	ldr         w8,[sp,#0x108]
	sub         w9,w9,w8
	add         x8,sp,#0xA8
	str         w9,[x8]
	ldr         w8,[sp,#0xA8]
	lsl         w8,w8,#1
	uxtw        x10,w8
	ldr         w8,[sp,#0xA8]
	add         w8,w8,#7
	uxtw        x9,w8
	ldr         x8,[sp,#0x10]
	lsr         x8,x8,x9
	and         x8,x8,#1
	add         x8,x10,x8
	mov         w8,w8
	str         w8,[sp,#0x30]
|$LN171@dispose_ch|
|$LN169@dispose_ch|
	ldr         x8,[sp]
	add         x10,x8,#0x258
	ldr         w8,[sp,#0x30]
	uxtw        x9,w8
	mov         x8,#8
	mul         x8,x9,x8
	add         x8,x10,x8
	str         x8,[sp,#0x130]
	ldr         x8,[sp,#0x28]
	add         x9,x8,#0x38
	ldr         w8,[sp,#0x30]
	str         w8,[x9]
	ldr         x8,[sp,#0x28]
	add         x9,x8,#0x28
	mov         x8,#0
	str         x8,[x9]
	ldr         x8,[sp,#0x28]
	add         x9,x8,#0x20
	mov         x8,#0
	str         x8,[x9]
	ldr         x8,[sp]
	add         x10,x8,#4
	mov         w9,#1
	ldr         w8,[sp,#0x30]
	lsl         w9,w9,w8
	ldr         w8,[x10]
	and         w8,w8,w9
	cmp         w8,#0
	bne         |$LN172@dispose_ch|
	ldr         x8,[sp]
	add         x10,x8,#4
	mov         w9,#1
	ldr         w8,[sp,#0x30]
	lsl         w9,w9,w8
	ldr         w8,[x10]
	orr         w9,w8,w9
	ldr         x8,[sp]
	add         x8,x8,#4
	str         w9,[x8]
	ldr         x9,[sp,#0x130]
	ldr         x8,[sp,#0x28]
	str         x8,[x9]
	ldr         x8,[sp,#0x28]
	add         x9,x8,#0x30
	ldr         x8,[sp,#0x130]
	str         x8,[x9]
	ldr         x8,[sp,#0x28]
	add         x9,x8,#0x18
	ldr         x8,[sp,#0x28]
	str         x8,[x9]
	ldr         x8,[sp,#0x28]
	add         x9,x8,#0x10
	ldr         x8,[sp,#0x28]
	str         x8,[x9]
	b           |$LN173@dispose_ch|
|$LN172@dispose_ch|
	ldr         x8,[sp,#0x130]
	ldr         x8,[x8]
	str         x8,[sp,#0x50]
	ldr         w8,[sp,#0x30]
	cmp         w8,#0x1F
	bne         |$LN183@dispose_ch|
	mov         x8,#0
	str         x8,[sp,#0x170]
	b           |$LN184@dispose_ch|
|$LN183@dispose_ch|
	ldr         w8,[sp,#0x30]
	lsr         w8,w8,#1
	add         w8,w8,#8
	sub         w8,w8,#2
	uxtw        x9,w8
	mov         x8,#0x3F
	sub         x8,x8,x9
	str         x8,[sp,#0x170]
|$LN184@dispose_ch|
	ldr         x9,[sp,#0x10]
	ldr         x8,[sp,#0x170]
	lsl         x8,x9,x8
	str         x8,[sp,#0x138]
|$LN60@dispose_ch|
	ldr         x8,[sp,#0x50]
	add         x8,x8,#8
	ldr         x8,[x8]
	and         x9,x8,#-8
	ldr         x8,[sp,#0x10]
	cmp         x9,x8
	beq         |$LN174@dispose_ch|
	ldr         x8,[sp,#0x50]
	add         x10,x8,#0x20
	ldr         x8,[sp,#0x138]
	lsr         x9,x8,#0x3F
	mov         x8,#8
	mul         x8,x9,x8
	add         x8,x10,x8
	str         x8,[sp,#0x100]
	ldr         x8,[sp,#0x138]
	lsl         x8,x8,#1
	str         x8,[sp,#0x138]
	ldr         x8,[sp,#0x100]
	ldr         x8,[x8]
	cmp         x8,#0
	beq         |$LN176@dispose_ch|
	ldr         x8,[sp,#0x100]
	ldr         x8,[x8]
	str         x8,[sp,#0x50]
	b           |$LN177@dispose_ch|
|$LN176@dispose_ch|
	ldr         x8,[sp]
	add         x8,x8,#0x18
	ldr         x9,[x8]
	ldr         x8,[sp,#0x100]
	cmp         x8,x9
	blo         |$LN178@dispose_ch|
	ldr         x9,[sp,#0x100]
	ldr         x8,[sp,#0x28]
	str         x8,[x9]
	ldr         x8,[sp,#0x28]
	add         x9,x8,#0x30
	ldr         x8,[sp,#0x50]
	str         x8,[x9]
	ldr         x8,[sp,#0x28]
	add         x9,x8,#0x18
	ldr         x8,[sp,#0x28]
	str         x8,[x9]
	ldr         x8,[sp,#0x28]
	add         x9,x8,#0x10
	ldr         x8,[sp,#0x28]
	str         x8,[x9]
	b           |$LN61@dispose_ch|
	b           |$LN179@dispose_ch|
|$LN178@dispose_ch|
|$LN63@dispose_ch|
	b           |$LN63@dispose_ch|
	b           |$LN61@dispose_ch|
|$LN179@dispose_ch|
|$LN177@dispose_ch|
	b           |$LN175@dispose_ch|
|$LN174@dispose_ch|
	ldr         x8,[sp,#0x50]
	add         x8,x8,#0x10
	ldr         x8,[x8]
	str         x8,[sp,#0x140]
	ldr         x8,[sp]
	add         x8,x8,#0x18
	ldr         x9,[x8]
	ldr         x8,[sp,#0x50]
	cmp         x8,x9
	blo         |$LN180@dispose_ch|
	ldr         x8,[sp]
	add         x8,x8,#0x18
	ldr         x9,[x8]
	ldr         x8,[sp,#0x140]
	cmp         x8,x9
	blo         |$LN180@dispose_ch|
	ldr         x8,[sp,#0x140]
	add         x9,x8,#0x18
	ldr         x8,[sp,#0x28]
	str         x8,[x9]
	ldr         x8,[sp,#0x50]
	add         x9,x8,#0x10
	ldr         x8,[sp,#0x28]
	str         x8,[x9]
	ldr         x8,[sp,#0x28]
	add         x9,x8,#0x10
	ldr         x8,[sp,#0x140]
	str         x8,[x9]
	ldr         x8,[sp,#0x28]
	add         x9,x8,#0x18
	ldr         x8,[sp,#0x50]
	str         x8,[x9]
	ldr         x8,[sp,#0x28]
	add         x9,x8,#0x30
	mov         x8,#0
	str         x8,[x9]
	b           |$LN61@dispose_ch|
	b           |$LN181@dispose_ch|
|$LN180@dispose_ch|
|$LN66@dispose_ch|
	b           |$LN66@dispose_ch|
	b           |$LN61@dispose_ch|
|$LN181@dispose_ch|
|$LN175@dispose_ch|
	b           |$LN60@dispose_ch|
|$LN61@dispose_ch|
|$LN173@dispose_ch|
|$LN163@dispose_ch|

; 4504 :     }

	b           |$LN117@dispose_ch|
|$LN116@dispose_ch|
|$LN69@dispose_ch|

; 4505 :     else {
; 4506 :         CORRUPTION_ERROR_ACTION(m);

	b           |$LN69@dispose_ch|
|$LN117@dispose_ch|
|$LN1@dispose_ch|
	add         sp,sp,#0x180
	ret

	ENDP  ; |dispose_chunk|

; Function compile flags: /Odtpy
; File C:\Users\paras\source\repos\grep-name\XenevaOS\KernelAA64\Mm\dlmalloc.c

	AREA	|.text$mn|, CODE, ARM64

|sys_trim| PROC

; 4374 : static int sys_trim(mstate m, size_t pad) {

	str         lr,[sp,#-0x10]!
	sub         sp,sp,#0x60
	str         x0,[sp]
	str         x1,[sp,#0x20]

; 4375 :     size_t released = 0;

	mov         x8,#0
	str         x8,[sp,#8]

; 4376 :     ensure_initialization();

	adrp        x8,mparams
	ldr         x8,[x8,PageOffset(mparams)]
	cmp         x8,#0
	bne         |$LN17@sys_trim|
	bl          init_mparams
|$LN17@sys_trim|

; 4377 :     if (pad < MAX_REQUEST && is_initialized(m)) {

	ldr         x8,[sp,#0x20]
	cmn         x8,#0x80
	bhs         |$LN2@sys_trim|
	ldr         x8,[sp]
	add         x8,x8,#0x28
	ldr         x8,[x8]
	cmp         x8,#0
	beq         |$LN2@sys_trim|

; 4378 :         pad += TOP_FOOT_SIZE; /* ensure enough room for segment overhead */

	mov         x8,#0xF
	tbnz        x8,#4,|$LN18@sys_trim|
	mov         x8,#0
	str         x8,[sp,#0x40]
	b           |$LN19@sys_trim|
|$LN18@sys_trim|
	mov         x8,#0xF
	and         x9,x8,#0x10
	mov         x8,#0x10
	sub         x8,x8,x9
	and         x8,x8,#0xF
	str         x8,[sp,#0x40]
|$LN19@sys_trim|
	ldr         x8,[sp,#0x40]
	add         x9,x8,#0x50
	ldr         x8,[sp,#0x20]
	add         x8,x8,x9
	str         x8,[sp,#0x20]

; 4379 : 
; 4380 :         if (m->topsize > pad) {

	ldr         x8,[sp]
	add         x8,x8,#0x10
	ldr         x9,[sp,#0x20]
	ldr         x8,[x8]
	cmp         x8,x9
	bls         |$LN3@sys_trim|

; 4381 :             /* Shrink top space in granularity-size units, keeping at least one */
; 4382 :             size_t unit = mparams.granularity;

	adrp        x8,mparams+#0x10
	ldr         x8,[x8,PageOffset(mparams)+#0x10]
	str         x8,[sp,#0x30]

; 4383 :             size_t extra = ((m->topsize - pad + (unit - SIZE_T_ONE)) / unit -

	ldr         x8,[sp]
	add         x8,x8,#0x10
	ldr         x9,[x8]
	ldr         x8,[sp,#0x20]
	sub         x9,x9,x8
	ldr         x8,[sp,#0x30]
	sub         x8,x8,#1
	add         x9,x9,x8
	ldr         x8,[sp,#0x30]
	cbnz        x8,|$LN22@sys_trim|
	brk         #0xF004
|$LN22@sys_trim|
	udiv        x8,x9,x8
	sub         x9,x8,#1
	ldr         x8,[sp,#0x30]
	mul         x8,x9,x8
	str         x8,[sp,#0x28]

; 4384 :                 SIZE_T_ONE) * unit;
; 4385 :             msegmentptr sp = segment_holding(m, (char*)m->top);

	ldr         x8,[sp]
	add         x8,x8,#0x28
	ldr         x1,[x8]
	ldr         x0,[sp]
	bl          segment_holding
	str         x0,[sp,#0x10]

; 4386 : 
; 4387 :             if (!is_extern_segment(sp)) {

	ldr         x8,[sp,#0x10]
	add         x8,x8,#0x18
	ldr         w8,[x8]
	tbnz        x8,#3,|$LN4@sys_trim|

; 4388 :                 if (is_mmapped_segment(sp)) {

	ldr         x8,[sp,#0x10]
	add         x8,x8,#0x18
	ldr         w8,[x8]
	uxtw        x9,w8
	mov         x8,#0
	and         x8,x9,x8
	cmp         x8,#0
	beq         |$LN5@sys_trim|

; 4389 :                     if (HAVE_MMAP &&
; 4390 :                         sp->size >= extra &&

	mov         w8,#0
	cmp         w8,#0
	beq         |$LN7@sys_trim|

; 4391 :                         !has_segment_link(m, sp)) { /* can't shrink if pinned */
; 4392 :                         size_t newsize = sp->size - extra;

	ldr         x8,[sp,#0x10]
	add         x8,x8,#8
	ldr         x9,[x8]
	ldr         x8,[sp,#0x28]
	sub         x8,x9,x8
	str         x8,[sp,#0x58]

; 4393 :                         (void)newsize; /* placate people compiling -Wunused-variable */
; 4394 :                         /* Prefer mremap, fall back to munmap */
; 4395 :                         if ((CALL_MREMAP(sp->base, sp->size, newsize, 0) != MFAIL) ||

	mov         w8,#0
	cmp         w8,#0
	beq         |$LN8@sys_trim|

; 4396 :                             (CALL_MUNMAP(sp->base + newsize, extra) == 0)) {
; 4397 :                             released = extra;

	ldr         x8,[sp,#0x28]
	str         x8,[sp,#8]
|$LN8@sys_trim|
|$LN7@sys_trim|

; 4398 :                         }
; 4399 :                     }
; 4400 :                 }

	b           |$LN6@sys_trim|
|$LN5@sys_trim|

; 4401 :                 else if (HAVE_MORECORE) {

	mov         w8,#1
	cmp         w8,#0
	beq         |$LN9@sys_trim|

; 4402 :                     if (extra >= HALF_MAX_SIZE_T) /* Avoid wrapping negative */

	mov         x9,#0x7FFFFFFFFFFFFFFF
	ldr         x8,[sp,#0x28]
	cmp         x8,x9
	blo         |$LN10@sys_trim|

; 4403 :                         extra = (HALF_MAX_SIZE_T)+SIZE_T_ONE - unit;

	mov         x9,#-0x8000000000000000
	ldr         x8,[sp,#0x30]
	sub         x8,x9,x8
	str         x8,[sp,#0x28]
|$LN10@sys_trim|

; 4404 :                     ACQUIRE_MALLOC_GLOBAL_LOCK();
; 4405 :                     {
; 4406 :                         /* Make sure end of memory is where we last set it. */
; 4407 :                         char* old_br = (char*)(CALL_MORECORE(0));

	mov         w0,#0
	bl          au_request_page
	str         x0,[sp,#0x38]

; 4408 :                         if (old_br == sp->base + sp->size) {

	ldr         x9,[sp,#0x10]
	ldr         x8,[sp,#0x10]
	add         x8,x8,#8
	ldr         x9,[x9]
	ldr         x8,[x8]
	add         x9,x9,x8
	ldr         x8,[sp,#0x38]
	cmp         x8,x9
	bne         |$LN11@sys_trim|

; 4409 :                             char* rel_br = (char*)(CALL_MORECORE(-extra));

	ldr         x8,[sp,#0x28]
	neg         x8,x8
	mov         w0,w8
	mov         w0,w0
	bl          au_request_page
	str         x0,[sp,#0x50]

; 4410 :                             char* new_br = (char*)(CALL_MORECORE(0));

	mov         w0,#0
	bl          au_request_page
	str         x0,[sp,#0x48]

; 4411 :                             if (rel_br != CMFAIL && new_br < old_br)

	ldr         x8,[sp,#0x50]
	cmn         x8,#1
	beq         |$LN12@sys_trim|
	ldr         x9,[sp,#0x38]
	ldr         x8,[sp,#0x48]
	cmp         x8,x9
	bhs         |$LN12@sys_trim|

; 4412 :                                 released = old_br - new_br;

	ldr         x9,[sp,#0x38]
	ldr         x8,[sp,#0x48]
	sub         x8,x9,x8
	str         x8,[sp,#8]
|$LN12@sys_trim|
|$LN11@sys_trim|
|$LN9@sys_trim|
|$LN6@sys_trim|
|$LN4@sys_trim|

; 4413 :                         }
; 4414 :                     }
; 4415 :                     RELEASE_MALLOC_GLOBAL_LOCK();
; 4416 :                 }
; 4417 :             }
; 4418 : 
; 4419 :             if (released != 0) {

	ldr         x8,[sp,#8]
	cmp         x8,#0
	beq         |$LN13@sys_trim|

; 4420 :                 sp->size -= released;

	ldr         x8,[sp,#0x10]
	add         x8,x8,#8
	ldr         x9,[x8]
	ldr         x8,[sp,#8]
	sub         x9,x9,x8
	ldr         x8,[sp,#0x10]
	add         x8,x8,#8
	str         x9,[x8]

; 4421 :                 m->footprint -= released;

	ldr         x8,[sp]
	add         x8,x8,#0x358
	ldr         x9,[x8]
	ldr         x8,[sp,#8]
	sub         x9,x9,x8
	ldr         x8,[sp]
	add         x8,x8,#0x358
	str         x9,[x8]

; 4422 :                 init_top(m, m->top, m->topsize - released);

	ldr         x8,[sp]
	add         x8,x8,#0x10
	ldr         x9,[x8]
	ldr         x8,[sp,#8]
	sub         x2,x9,x8
	ldr         x8,[sp]
	add         x8,x8,#0x28
	ldr         x1,[x8]
	ldr         x0,[sp]
	bl          init_top
|$LN13@sys_trim|
|$LN3@sys_trim|

; 4423 :                 check_top_chunk(m, m->top);
; 4424 :             }
; 4425 :         }
; 4426 : 
; 4427 :         /* Unmap any unused mmapped segments */
; 4428 :         if (HAVE_MMAP)

	mov         w8,#0
	cmp         w8,#0
	beq         |$LN14@sys_trim|

; 4429 :             released += release_unused_segments(m);

	ldr         x0,[sp]
	bl          release_unused_segments
	ldr         x8,[sp,#8]
	add         x8,x8,x0
	str         x8,[sp,#8]
|$LN14@sys_trim|

; 4430 : 
; 4431 :         /* On failure, disable autotrim to avoid repeated failed future calls */
; 4432 :         if (released == 0 && m->topsize > m->trim_check)

	ldr         x8,[sp,#8]
	cmp         x8,#0
	bne         |$LN15@sys_trim|
	ldr         x8,[sp]
	add         x10,x8,#0x10
	ldr         x8,[sp]
	add         x8,x8,#0x30
	ldr         x9,[x8]
	ldr         x8,[x10]
	cmp         x8,x9
	bls         |$LN15@sys_trim|

; 4433 :             m->trim_check = MAX_SIZE_T;

	ldr         x8,[sp]
	add         x9,x8,#0x30
	mov         x8,#-1
	str         x8,[x9]
|$LN15@sys_trim|
|$LN2@sys_trim|

; 4434 :     }
; 4435 : 
; 4436 :     return (released != 0) ? 1 : 0;

	ldr         x8,[sp,#8]
	cmp         x8,#0
	beq         |$LN20@sys_trim|
	mov         w8,#1
	str         w8,[sp,#0x18]
	b           |$LN21@sys_trim|
|$LN20@sys_trim|
	mov         w8,#0
	str         w8,[sp,#0x18]
|$LN21@sys_trim|
	ldr         w0,[sp,#0x18]
	add         sp,sp,#0x60
	ldr         lr,[sp],#0x10
	ret

	ENDP  ; |sys_trim|

; Function compile flags: /Odtpy
; File C:\Users\paras\source\repos\grep-name\XenevaOS\KernelAA64\Mm\dlmalloc.c

	AREA	|.text$mn|, CODE, ARM64

|release_unused_segments| PROC

; 4327 : static size_t release_unused_segments(mstate m) {

	sub         sp,sp,#0x100
	str         x0,[sp,#8]

; 4328 :     size_t released = 0;

	mov         x8,#0
	str         x8,[sp,#0xC8]

; 4329 :     int nsegs = 0;

	mov         w8,#0
	str         w8,[sp,#0x28]

; 4330 :     msegmentptr pred = &m->seg;

	ldr         x8,[sp,#8]
	add         x8,x8,#0x378
	str         x8,[sp,#0xC0]

; 4331 :     msegmentptr sp = pred->next;

	ldr         x8,[sp,#0xC0]
	add         x8,x8,#0x10
	ldr         x8,[x8]
	str         x8,[sp,#0x20]
|$LN2@release_un|

; 4332 :     while (sp != 0) {

	ldr         x8,[sp,#0x20]
	cmp         x8,#0
	beq         |$LN3@release_un|

; 4333 :         char* base = sp->base;

	ldr         x8,[sp,#0x20]
	ldr         x8,[x8]
	str         x8,[sp,#0x60]

; 4334 :         size_t size = sp->size;

	ldr         x8,[sp,#0x20]
	add         x8,x8,#8
	ldr         x8,[x8]
	str         x8,[sp,#0x98]

; 4335 :         msegmentptr next = sp->next;

	ldr         x8,[sp,#0x20]
	add         x8,x8,#0x10
	ldr         x8,[x8]
	str         x8,[sp,#0xF0]

; 4336 :         ++nsegs;

	ldr         w8,[sp,#0x28]
	add         w8,w8,#1
	str         w8,[sp,#0x28]

; 4337 :         if (is_mmapped_segment(sp) && !is_extern_segment(sp)) {

	ldr         x8,[sp,#0x20]
	add         x8,x8,#0x18
	ldr         w8,[x8]
	uxtw        x9,w8
	mov         x8,#0
	and         x8,x9,x8
	cmp         x8,#0
	beq         |$LN33@release_un|
	ldr         x8,[sp,#0x20]
	add         x8,x8,#0x18
	ldr         w8,[x8]
	tbnz        x8,#3,|$LN33@release_un|

; 4338 :             mchunkptr p = align_as_chunk(base);

	ldr         x8,[sp,#0x60]
	add         x8,x8,#0x10
	and         x8,x8,#0xF
	cmp         x8,#0
	bne         |$LN81@release_un|
	mov         x8,#0
	str         x8,[sp,#0xD0]
	b           |$LN82@release_un|
|$LN81@release_un|
	ldr         x8,[sp,#0x60]
	add         x8,x8,#0x10
	and         x9,x8,#0xF
	mov         x8,#0x10
	sub         x8,x8,x9
	and         x8,x8,#0xF
	str         x8,[sp,#0xD0]
|$LN82@release_un|
	ldr         x9,[sp,#0x60]
	ldr         x8,[sp,#0xD0]
	add         x8,x9,x8
	str         x8,[sp,#0x50]

; 4339 :             size_t psize = chunksize(p);

	ldr         x8,[sp,#0x50]
	add         x8,x8,#8
	ldr         x8,[x8]
	and         x8,x8,#-8
	str         x8,[sp,#0x58]

; 4340 :             /* Can unmap if first chunk holds entire segment and not pinned */
; 4341 :             if (!is_inuse(p) && (char*)p + psize >= base + size - TOP_FOOT_SIZE) {

	ldr         x8,[sp,#0x50]
	add         x8,x8,#8
	ldr         x8,[x8]
	and         x8,x8,#3
	cmp         x8,#1
	bne         |$LN34@release_un|
	mov         x8,#0xF
	tbnz        x8,#4,|$LN83@release_un|
	mov         x8,#0
	str         x8,[sp,#0xD8]
	b           |$LN84@release_un|
|$LN83@release_un|
	mov         x8,#0xF
	and         x9,x8,#0x10
	mov         x8,#0x10
	sub         x8,x8,x9
	and         x8,x8,#0xF
	str         x8,[sp,#0xD8]
|$LN84@release_un|
	ldr         x9,[sp,#0x50]
	ldr         x8,[sp,#0x58]
	add         x10,x9,x8
	ldr         x9,[sp,#0x60]
	ldr         x8,[sp,#0x98]
	add         x9,x9,x8
	ldr         x8,[sp,#0xD8]
	add         x8,x8,#0x50
	sub         x8,x9,x8
	cmp         x10,x8
	blo         |$LN34@release_un|

; 4342 :                 tchunkptr tp = (tchunkptr)p;

	ldr         x8,[sp,#0x50]
	str         x8,[sp]

; 4343 :                 assert(segment_holds(sp, (char*)sp));
; 4344 :                 if (p == m->dv) {

	ldr         x8,[sp,#8]
	add         x8,x8,#0x20
	ldr         x9,[x8]
	ldr         x8,[sp,#0x50]
	cmp         x8,x9
	bne         |$LN35@release_un|

; 4345 :                     m->dv = 0;

	ldr         x8,[sp,#8]
	add         x9,x8,#0x20
	mov         x8,#0
	str         x8,[x9]

; 4346 :                     m->dvsize = 0;

	ldr         x8,[sp,#8]
	add         x9,x8,#8
	mov         x8,#0
	str         x8,[x9]

; 4347 :                 }

	b           |$LN36@release_un|
|$LN35@release_un|

; 4348 :                 else {
; 4349 :                     unlink_large_chunk(m, tp);

	ldr         x8,[sp]
	add         x8,x8,#0x30
	ldr         x8,[x8]
	str         x8,[sp,#0x40]
	ldr         x8,[sp]
	add         x8,x8,#0x18
	ldr         x9,[sp]
	ldr         x8,[x8]
	cmp         x8,x9
	beq         |$LN37@release_un|
	ldr         x8,[sp]
	add         x8,x8,#0x10
	ldr         x8,[x8]
	str         x8,[sp,#0x68]
	ldr         x8,[sp]
	add         x8,x8,#0x18
	ldr         x8,[x8]
	str         x8,[sp,#0x10]
	ldr         x8,[sp,#8]
	add         x8,x8,#0x18
	ldr         x9,[x8]
	ldr         x8,[sp,#0x68]
	cmp         x8,x9
	blo         |$LN39@release_un|
	ldr         x8,[sp,#0x68]
	add         x8,x8,#0x18
	ldr         x9,[sp]
	ldr         x8,[x8]
	cmp         x8,x9
	bne         |$LN39@release_un|
	ldr         x8,[sp,#0x10]
	add         x8,x8,#0x10
	ldr         x9,[sp]
	ldr         x8,[x8]
	cmp         x8,x9
	bne         |$LN39@release_un|
	ldr         x8,[sp,#0x68]
	add         x9,x8,#0x18
	ldr         x8,[sp,#0x10]
	str         x8,[x9]
	ldr         x8,[sp,#0x10]
	add         x9,x8,#0x10
	ldr         x8,[sp,#0x68]
	str         x8,[x9]
	b           |$LN40@release_un|
|$LN39@release_un|
|$LN4@release_un|
	b           |$LN4@release_un|
|$LN40@release_un|
	b           |$LN38@release_un|
|$LN37@release_un|
	ldr         x8,[sp]
	add         x8,x8,#0x28
	str         x8,[sp,#0x38]
	ldr         x8,[sp,#0x38]
	ldr         x8,[x8]
	str         x8,[sp,#0x10]
	ldr         x8,[sp,#0x10]
	cmp         x8,#0
	bne         |$LN42@release_un|
	ldr         x8,[sp]
	add         x8,x8,#0x20
	str         x8,[sp,#0x38]
	ldr         x8,[sp,#0x38]
	ldr         x8,[x8]
	str         x8,[sp,#0x10]
	ldr         x8,[sp,#0x10]
	cmp         x8,#0
	beq         |$LN41@release_un|
|$LN42@release_un|
|$LN7@release_un|
	ldr         x8,[sp,#0x10]
	add         x8,x8,#0x28
	str         x8,[sp,#0x70]
	ldr         x8,[sp,#0x70]
	ldr         x8,[x8]
	cmp         x8,#0
	bne         |$LN43@release_un|
	ldr         x8,[sp,#0x10]
	add         x8,x8,#0x20
	str         x8,[sp,#0x70]
	ldr         x8,[sp,#0x70]
	ldr         x8,[x8]
	cmp         x8,#0
	beq         |$LN8@release_un|
|$LN43@release_un|
	ldr         x8,[sp,#0x70]
	str         x8,[sp,#0x38]
	ldr         x8,[sp,#0x38]
	ldr         x8,[x8]
	str         x8,[sp,#0x10]
	b           |$LN7@release_un|
|$LN8@release_un|
	ldr         x8,[sp,#8]
	add         x8,x8,#0x18
	ldr         x9,[x8]
	ldr         x8,[sp,#0x38]
	cmp         x8,x9
	blo         |$LN44@release_un|
	ldr         x9,[sp,#0x38]
	mov         x8,#0
	str         x8,[x9]
	b           |$LN45@release_un|
|$LN44@release_un|
|$LN9@release_un|
	b           |$LN9@release_un|
|$LN45@release_un|
|$LN41@release_un|
|$LN38@release_un|
	ldr         x8,[sp,#0x40]
	cmp         x8,#0
	beq         |$LN46@release_un|
	ldr         x8,[sp,#8]
	add         x10,x8,#0x258
	ldr         x8,[sp]
	add         x8,x8,#0x38
	ldr         w8,[x8]
	uxtw        x9,w8
	mov         x8,#8
	mul         x8,x9,x8
	add         x8,x10,x8
	str         x8,[sp,#0xE0]
	ldr         x8,[sp,#0xE0]
	ldr         x9,[x8]
	ldr         x8,[sp]
	cmp         x8,x9
	bne         |$LN47@release_un|
	ldr         x9,[sp,#0xE0]
	ldr         x8,[sp,#0x10]
	str         x8,[x9]
	ldr         x8,[sp,#0x10]
	cmp         x8,#0
	bne         |$LN49@release_un|
	ldr         x8,[sp,#8]
	add         x10,x8,#4
	ldr         x8,[sp]
	add         x8,x8,#0x38
	mov         w9,#1
	ldr         w8,[x8]
	lsl         w8,w9,w8
	mvn         w9,w8
	ldr         w8,[x10]
	and         w9,w8,w9
	ldr         x8,[sp,#8]
	add         x8,x8,#4
	str         w9,[x8]
|$LN49@release_un|
	b           |$LN48@release_un|
|$LN47@release_un|
	ldr         x8,[sp,#8]
	add         x8,x8,#0x18
	ldr         x9,[x8]
	ldr         x8,[sp,#0x40]
	cmp         x8,x9
	blo         |$LN50@release_un|
	ldr         x8,[sp,#0x40]
	add         x8,x8,#0x20
	ldr         x9,[sp]
	ldr         x8,[x8]
	cmp         x8,x9
	bne         |$LN52@release_un|
	ldr         x8,[sp,#0x40]
	add         x9,x8,#0x20
	ldr         x8,[sp,#0x10]
	str         x8,[x9]
	b           |$LN53@release_un|
|$LN52@release_un|
	ldr         x8,[sp,#0x40]
	add         x9,x8,#0x28
	ldr         x8,[sp,#0x10]
	str         x8,[x9]
|$LN53@release_un|
	b           |$LN51@release_un|
|$LN50@release_un|
|$LN12@release_un|
	b           |$LN12@release_un|
|$LN51@release_un|
|$LN48@release_un|
	ldr         x8,[sp,#0x10]
	cmp         x8,#0
	beq         |$LN54@release_un|
	ldr         x8,[sp,#8]
	add         x8,x8,#0x18
	ldr         x9,[x8]
	ldr         x8,[sp,#0x10]
	cmp         x8,x9
	blo         |$LN55@release_un|
	ldr         x8,[sp,#0x10]
	add         x9,x8,#0x30
	ldr         x8,[sp,#0x40]
	str         x8,[x9]
	ldr         x8,[sp]
	add         x8,x8,#0x20
	ldr         x8,[x8]
	str         x8,[sp,#0x78]
	ldr         x8,[sp,#0x78]
	cmp         x8,#0
	beq         |$LN57@release_un|
	ldr         x8,[sp,#8]
	add         x8,x8,#0x18
	ldr         x9,[x8]
	ldr         x8,[sp,#0x78]
	cmp         x8,x9
	blo         |$LN58@release_un|
	ldr         x8,[sp,#0x10]
	add         x9,x8,#0x20
	ldr         x8,[sp,#0x78]
	str         x8,[x9]
	ldr         x8,[sp,#0x78]
	add         x9,x8,#0x30
	ldr         x8,[sp,#0x10]
	str         x8,[x9]
	b           |$LN59@release_un|
|$LN58@release_un|
|$LN15@release_un|
	b           |$LN15@release_un|
|$LN59@release_un|
|$LN57@release_un|
	ldr         x8,[sp]
	add         x8,x8,#0x28
	ldr         x8,[x8]
	str         x8,[sp,#0x80]
	ldr         x8,[sp,#0x80]
	cmp         x8,#0
	beq         |$LN60@release_un|
	ldr         x8,[sp,#8]
	add         x8,x8,#0x18
	ldr         x9,[x8]
	ldr         x8,[sp,#0x80]
	cmp         x8,x9
	blo         |$LN61@release_un|
	ldr         x8,[sp,#0x10]
	add         x9,x8,#0x28
	ldr         x8,[sp,#0x80]
	str         x8,[x9]
	ldr         x8,[sp,#0x80]
	add         x9,x8,#0x30
	ldr         x8,[sp,#0x10]
	str         x8,[x9]
	b           |$LN62@release_un|
|$LN61@release_un|
|$LN18@release_un|
	b           |$LN18@release_un|
|$LN62@release_un|
|$LN60@release_un|
	b           |$LN56@release_un|
|$LN55@release_un|
|$LN21@release_un|
	b           |$LN21@release_un|
|$LN56@release_un|
|$LN54@release_un|
|$LN46@release_un|
|$LN36@release_un|

; 4350 :                 }
; 4351 :                 if (CALL_MUNMAP(base, size) == 0) {

	mov         w8,#0
	cmp         w8,#0
	beq         |$LN63@release_un|

; 4352 :                     released += size;

	ldr         x9,[sp,#0xC8]
	ldr         x8,[sp,#0x98]
	add         x8,x9,x8
	str         x8,[sp,#0xC8]

; 4353 :                     m->footprint -= size;

	ldr         x8,[sp,#8]
	add         x8,x8,#0x358
	ldr         x9,[x8]
	ldr         x8,[sp,#0x98]
	sub         x9,x9,x8
	ldr         x8,[sp,#8]
	add         x8,x8,#0x358
	str         x9,[x8]

; 4354 :                     /* unlink obsoleted record */
; 4355 :                     sp = pred;

	ldr         x8,[sp,#0xC0]
	str         x8,[sp,#0x20]

; 4356 :                     sp->next = next;

	ldr         x8,[sp,#0x20]
	add         x9,x8,#0x10
	ldr         x8,[sp,#0xF0]
	str         x8,[x9]

; 4357 :                 }

	b           |$LN64@release_un|
|$LN63@release_un|

; 4358 :                 else { /* back out if cannot unmap */
; 4359 :                     insert_large_chunk(m, tp, psize);

	ldr         x8,[sp,#0x58]
	lsr         x8,x8,#8
	str         x8,[sp,#0xA0]
	ldr         x8,[sp,#0xA0]
	cmp         x8,#0
	bne         |$LN65@release_un|
	mov         w8,#0
	str         w8,[sp,#0x18]
	b           |$LN66@release_un|
|$LN65@release_un|
	mov         x9,#0xFFFF
	ldr         x8,[sp,#0xA0]
	cmp         x8,x9
	bls         |$LN67@release_un|
	mov         w8,#0x1F
	str         w8,[sp,#0x18]
	b           |$LN68@release_un|
|$LN67@release_un|
	ldr         x8,[sp,#0xA0]
	mov         w8,w8
	clz         w8,w8
	str         w8,[sp,#0x90]
	mov         w9,#0x1F
	ldr         w8,[sp,#0x90]
	sub         w9,w9,w8
	add         x8,sp,#0x48
	str         w9,[x8]
	ldr         w8,[sp,#0x48]
	lsl         w8,w8,#1
	uxtw        x10,w8
	ldr         w8,[sp,#0x48]
	add         w8,w8,#7
	uxtw        x9,w8
	ldr         x8,[sp,#0x58]
	lsr         x8,x8,x9
	and         x8,x8,#1
	add         x8,x10,x8
	mov         w8,w8
	str         w8,[sp,#0x18]
|$LN68@release_un|
|$LN66@release_un|
	ldr         x8,[sp,#8]
	add         x10,x8,#0x258
	ldr         w8,[sp,#0x18]
	uxtw        x9,w8
	mov         x8,#8
	mul         x8,x9,x8
	add         x8,x10,x8
	str         x8,[sp,#0xA8]
	ldr         x8,[sp]
	add         x9,x8,#0x38
	ldr         w8,[sp,#0x18]
	str         w8,[x9]
	ldr         x8,[sp]
	add         x9,x8,#0x28
	mov         x8,#0
	str         x8,[x9]
	ldr         x8,[sp]
	add         x9,x8,#0x20
	mov         x8,#0
	str         x8,[x9]
	ldr         x8,[sp,#8]
	add         x10,x8,#4
	mov         w9,#1
	ldr         w8,[sp,#0x18]
	lsl         w9,w9,w8
	ldr         w8,[x10]
	and         w8,w8,w9
	cmp         w8,#0
	bne         |$LN69@release_un|
	ldr         x8,[sp,#8]
	add         x10,x8,#4
	mov         w9,#1
	ldr         w8,[sp,#0x18]
	lsl         w9,w9,w8
	ldr         w8,[x10]
	orr         w9,w8,w9
	ldr         x8,[sp,#8]
	add         x8,x8,#4
	str         w9,[x8]
	ldr         x9,[sp,#0xA8]
	ldr         x8,[sp]
	str         x8,[x9]
	ldr         x8,[sp]
	add         x9,x8,#0x30
	ldr         x8,[sp,#0xA8]
	str         x8,[x9]
	ldr         x8,[sp]
	add         x9,x8,#0x18
	ldr         x8,[sp]
	str         x8,[x9]
	ldr         x8,[sp]
	add         x9,x8,#0x10
	ldr         x8,[sp]
	str         x8,[x9]
	b           |$LN70@release_un|
|$LN69@release_un|
	ldr         x8,[sp,#0xA8]
	ldr         x8,[x8]
	str         x8,[sp,#0x30]
	ldr         w8,[sp,#0x18]
	cmp         w8,#0x1F
	bne         |$LN85@release_un|
	mov         x8,#0
	str         x8,[sp,#0xE8]
	b           |$LN86@release_un|
|$LN85@release_un|
	ldr         w8,[sp,#0x18]
	lsr         w8,w8,#1
	add         w8,w8,#8
	sub         w8,w8,#2
	uxtw        x9,w8
	mov         x8,#0x3F
	sub         x8,x8,x9
	str         x8,[sp,#0xE8]
|$LN86@release_un|
	ldr         x9,[sp,#0x58]
	ldr         x8,[sp,#0xE8]
	lsl         x8,x9,x8
	str         x8,[sp,#0xB0]
|$LN24@release_un|
	ldr         x8,[sp,#0x30]
	add         x8,x8,#8
	ldr         x8,[x8]
	and         x9,x8,#-8
	ldr         x8,[sp,#0x58]
	cmp         x9,x8
	beq         |$LN71@release_un|
	ldr         x8,[sp,#0x30]
	add         x10,x8,#0x20
	ldr         x8,[sp,#0xB0]
	lsr         x9,x8,#0x3F
	mov         x8,#8
	mul         x8,x9,x8
	add         x8,x10,x8
	str         x8,[sp,#0x88]
	ldr         x8,[sp,#0xB0]
	lsl         x8,x8,#1
	str         x8,[sp,#0xB0]
	ldr         x8,[sp,#0x88]
	ldr         x8,[x8]
	cmp         x8,#0
	beq         |$LN73@release_un|
	ldr         x8,[sp,#0x88]
	ldr         x8,[x8]
	str         x8,[sp,#0x30]
	b           |$LN74@release_un|
|$LN73@release_un|
	ldr         x8,[sp,#8]
	add         x8,x8,#0x18
	ldr         x9,[x8]
	ldr         x8,[sp,#0x88]
	cmp         x8,x9
	blo         |$LN75@release_un|
	ldr         x9,[sp,#0x88]
	ldr         x8,[sp]
	str         x8,[x9]
	ldr         x8,[sp]
	add         x9,x8,#0x30
	ldr         x8,[sp,#0x30]
	str         x8,[x9]
	ldr         x8,[sp]
	add         x9,x8,#0x18
	ldr         x8,[sp]
	str         x8,[x9]
	ldr         x8,[sp]
	add         x9,x8,#0x10
	ldr         x8,[sp]
	str         x8,[x9]
	b           |$LN25@release_un|
	b           |$LN76@release_un|
|$LN75@release_un|
|$LN27@release_un|
	b           |$LN27@release_un|
	b           |$LN25@release_un|
|$LN76@release_un|
|$LN74@release_un|
	b           |$LN72@release_un|
|$LN71@release_un|
	ldr         x8,[sp,#0x30]
	add         x8,x8,#0x10
	ldr         x8,[x8]
	str         x8,[sp,#0xB8]
	ldr         x8,[sp,#8]
	add         x8,x8,#0x18
	ldr         x9,[x8]
	ldr         x8,[sp,#0x30]
	cmp         x8,x9
	blo         |$LN77@release_un|
	ldr         x8,[sp,#8]
	add         x8,x8,#0x18
	ldr         x9,[x8]
	ldr         x8,[sp,#0xB8]
	cmp         x8,x9
	blo         |$LN77@release_un|
	ldr         x8,[sp,#0xB8]
	add         x9,x8,#0x18
	ldr         x8,[sp]
	str         x8,[x9]
	ldr         x8,[sp,#0x30]
	add         x9,x8,#0x10
	ldr         x8,[sp]
	str         x8,[x9]
	ldr         x8,[sp]
	add         x9,x8,#0x10
	ldr         x8,[sp,#0xB8]
	str         x8,[x9]
	ldr         x8,[sp]
	add         x9,x8,#0x18
	ldr         x8,[sp,#0x30]
	str         x8,[x9]
	ldr         x8,[sp]
	add         x9,x8,#0x30
	mov         x8,#0
	str         x8,[x9]
	b           |$LN25@release_un|
	b           |$LN78@release_un|
|$LN77@release_un|
|$LN30@release_un|
	b           |$LN30@release_un|
	b           |$LN25@release_un|
|$LN78@release_un|
|$LN72@release_un|
	b           |$LN24@release_un|
|$LN25@release_un|
|$LN70@release_un|
|$LN64@release_un|
|$LN34@release_un|
|$LN33@release_un|

; 4360 :                 }
; 4361 :             }
; 4362 :         }
; 4363 :         if (NO_SEGMENT_TRAVERSAL) /* scan only first segment */

	mov         w8,#0
	cmp         w8,#0
	beq         |$LN79@release_un|

; 4364 :             break;

	b           |$LN3@release_un|
|$LN79@release_un|

; 4365 :         pred = sp;

	ldr         x8,[sp,#0x20]
	str         x8,[sp,#0xC0]

; 4366 :         sp = next;

	ldr         x8,[sp,#0xF0]
	str         x8,[sp,#0x20]

; 4367 :     }

	b           |$LN2@release_un|
|$LN3@release_un|

; 4368 :     /* Reset check counter */
; 4369 :     m->release_checks = (((size_t)nsegs > (size_t)MAX_RELEASE_CHECK_RATE) ?

	ldr         w8,[sp,#0x28]
	sxtw        x8,w8
	cmn         x8,#1
	bls         |$LN87@release_un|
	ldr         w8,[sp,#0x28]
	sxtw        x8,w8
	str         x8,[sp,#0xF8]
	b           |$LN88@release_un|
|$LN87@release_un|
	mov         x8,#-1
	str         x8,[sp,#0xF8]
|$LN88@release_un|
	ldr         x8,[sp,#8]
	add         x9,x8,#0x38
	ldr         x8,[sp,#0xF8]
	str         x8,[x9]

; 4370 :         (size_t)nsegs : (size_t)MAX_RELEASE_CHECK_RATE);
; 4371 :     return released;

	ldr         x0,[sp,#0xC8]
	add         sp,sp,#0x100
	ret

	ENDP  ; |release_unused_segments|

; Function compile flags: /Odtpy
; File C:\Users\paras\source\repos\grep-name\XenevaOS\KernelAA64\Mm\dlmalloc.c

	AREA	|.text$mn|, CODE, ARM64

|sys_alloc| PROC

; 4116 : static void* sys_alloc(mstate m, size_t nb) {

	str         lr,[sp,#-0x10]!
	sub         sp,sp,#0x120
	str         x0,[sp]
	str         x1,[sp,#0x28]

; 4117 :     char* tbase = CMFAIL;

	mov         x8,#-1
	str         x8,[sp,#0x10]

; 4118 :     size_t tsize = 0;

	mov         x8,#0
	str         x8,[sp,#0x20]

; 4119 :     flag_t mmap_flag = 0;

	mov         w8,#0
	str         w8,[sp,#0x30]

; 4120 :     size_t asize; /* allocation size */
; 4121 : 
; 4122 :     ensure_initialization();

	adrp        x8,mparams
	ldr         x8,[x8,PageOffset(mparams)]
	cmp         x8,#0
	bne         |$LN49@sys_alloc|
	bl          init_mparams
|$LN49@sys_alloc|

; 4123 : 
; 4124 :     /* Directly map large chunks, but only if already initialized */
; 4125 :     if (use_mmap(m) && nb >= mparams.mmap_threshold && m->topsize != 0) {

	ldr         x8,[sp]
	add         x8,x8,#0x370
	ldr         w8,[x8]
	uxtw        x9,w8
	mov         x8,#0
	and         x8,x9,x8
	cmp         x8,#0
	beq         |$LN6@sys_alloc|
	adrp        x8,mparams+#0x18
	ldr         x9,[x8,PageOffset(mparams)+#0x18]
	ldr         x8,[sp,#0x28]
	cmp         x8,x9
	blo         |$LN6@sys_alloc|
	ldr         x8,[sp]
	add         x8,x8,#0x10
	ldr         x8,[x8]
	cmp         x8,#0
	beq         |$LN6@sys_alloc|

; 4126 :         void* mem = mmap_alloc(m, nb);

	ldr         x1,[sp,#0x28]
	ldr         x0,[sp]
	bl          mmap_alloc
	str         x0,[sp,#0x78]

; 4127 :         if (mem != 0)

	ldr         x8,[sp,#0x78]
	cmp         x8,#0
	beq         |$LN7@sys_alloc|

; 4128 :             return mem;

	ldr         x0,[sp,#0x78]
	b           |$LN1@sys_alloc|
|$LN7@sys_alloc|
|$LN6@sys_alloc|

; 4129 :     }
; 4130 : 
; 4131 :     asize = granularity_align(nb + SYS_ALLOC_PADDING);

	mov         x8,#0xF
	tbnz        x8,#4,|$LN50@sys_alloc|
	mov         x8,#0
	str         x8,[sp,#0x80]
	b           |$LN51@sys_alloc|
|$LN50@sys_alloc|
	mov         x8,#0xF
	and         x9,x8,#0x10
	mov         x8,#0x10
	sub         x8,x8,x9
	and         x8,x8,#0xF
	str         x8,[sp,#0x80]
|$LN51@sys_alloc|
	ldr         x8,[sp,#0x80]
	add         x9,x8,#0x60
	ldr         x8,[sp,#0x28]
	add         x9,x8,x9
	adrp        x8,mparams+#0x10
	ldr         x8,[x8,PageOffset(mparams)+#0x10]
	sub         x8,x8,#1
	add         x9,x9,x8
	adrp        x8,mparams+#0x10
	ldr         x8,[x8,PageOffset(mparams)+#0x10]
	sub         x8,x8,#1
	mvn         x8,x8
	and         x8,x9,x8
	str         x8,[sp,#0x48]

; 4132 :     if (asize <= nb)

	ldr         x9,[sp,#0x28]
	ldr         x8,[sp,#0x48]
	cmp         x8,x9
	bhi         |$LN8@sys_alloc|

; 4133 :         return 0; /* wraparound */

	mov         x0,#0
	b           |$LN1@sys_alloc|
|$LN8@sys_alloc|

; 4134 :     if (m->footprint_limit != 0) {

	ldr         x8,[sp]
	add         x8,x8,#0x368
	ldr         x8,[x8]
	cmp         x8,#0
	beq         |$LN9@sys_alloc|

; 4135 :         size_t fp = m->footprint + asize;

	ldr         x8,[sp]
	add         x8,x8,#0x358
	ldr         x9,[x8]
	ldr         x8,[sp,#0x48]
	add         x8,x9,x8
	str         x8,[sp,#0x88]

; 4136 :         if (fp <= m->footprint || fp > m->footprint_limit)

	ldr         x8,[sp]
	add         x8,x8,#0x358
	ldr         x9,[x8]
	ldr         x8,[sp,#0x88]
	cmp         x8,x9
	bls         |$LN11@sys_alloc|
	ldr         x8,[sp]
	add         x8,x8,#0x368
	ldr         x9,[x8]
	ldr         x8,[sp,#0x88]
	cmp         x8,x9
	bls         |$LN10@sys_alloc|
|$LN11@sys_alloc|

; 4137 :             return 0;

	mov         x0,#0
	b           |$LN1@sys_alloc|
|$LN10@sys_alloc|
|$LN9@sys_alloc|

; 4138 :     }
; 4139 : 
; 4140 :     /*
; 4141 :       Try getting memory in any of three ways (in most-preferred to
; 4142 :       least-preferred order):
; 4143 :       1. A call to MORECORE that can normally contiguously extend memory.
; 4144 :          (disabled if not MORECORE_CONTIGUOUS or not HAVE_MORECORE or
; 4145 :          or main space is mmapped or a previous contiguous call failed)
; 4146 :       2. A call to MMAP new space (disabled if not HAVE_MMAP).
; 4147 :          Note that under the default settings, if MORECORE is unable to
; 4148 :          fulfill a request, and HAVE_MMAP is true, then mmap is
; 4149 :          used as a noncontiguous system allocator. This is a useful backup
; 4150 :          strategy for systems with holes in address spaces -- in this case
; 4151 :          sbrk cannot contiguously expand the heap, but mmap may be able to
; 4152 :          find space.
; 4153 :       3. A call to MORECORE that cannot usually contiguously extend memory.
; 4154 :          (disabled if not HAVE_MORECORE)
; 4155 : 
; 4156 :      In all cases, we need to request enough bytes from system to ensure
; 4157 :      we can malloc nb bytes upon success, so pad with enough space for
; 4158 :      top_foot, plus alignment-pad to make sure we don't lose bytes if
; 4159 :      not on boundary, and round this up to a granularity unit.
; 4160 :     */
; 4161 : 
; 4162 :     if (MORECORE_CONTIGUOUS && !use_noncontiguous(m)) {

	mov         w8,#0
	cmp         w8,#0
	beq         |$LN12@sys_alloc|

; 4163 :         char* br = CMFAIL;

	mov         x8,#-1
	str         x8,[sp,#0x38]

; 4164 :         size_t ssize = asize; /* sbrk call size */

	ldr         x8,[sp,#0x48]
	str         x8,[sp,#0x18]

; 4165 :         msegmentptr ss = (m->top == 0) ? 0 : segment_holding(m, (char*)m->top);

	ldr         x8,[sp]
	add         x8,x8,#0x28
	ldr         x8,[x8]
	cmp         x8,#0
	bne         |$LN52@sys_alloc|
	mov         x8,#0
	str         x8,[sp,#0x90]
	b           |$LN53@sys_alloc|
|$LN52@sys_alloc|
	ldr         x8,[sp]
	add         x8,x8,#0x28
	ldr         x1,[x8]
	ldr         x0,[sp]
	bl          segment_holding
	str         x0,[sp,#0x90]
|$LN53@sys_alloc|
	ldr         x8,[sp,#0x90]
	str         x8,[sp,#0x60]

; 4166 :         ACQUIRE_MALLOC_GLOBAL_LOCK();
; 4167 : 
; 4168 :         if (ss == 0) {  /* First time through or recovery */

	ldr         x8,[sp,#0x60]
	cmp         x8,#0
	bne         |$LN13@sys_alloc|

; 4169 :             char* base = (char*)CALL_MORECORE(0);

	mov         w0,#0
	bl          au_request_page
	str         x0,[sp,#0x40]

; 4170 :             if (base != CMFAIL) {

	ldr         x8,[sp,#0x40]
	cmn         x8,#1
	beq         |$LN15@sys_alloc|

; 4171 :                 size_t fp;
; 4172 :                 /* Adjust to end on a page boundary */
; 4173 :                 if (!is_page_aligned(base))

	adrp        x8,mparams+#8
	ldr         x8,[x8,PageOffset(mparams)+#8]
	sub         x9,x8,#1
	ldr         x8,[sp,#0x40]
	and         x8,x8,x9
	cmp         x8,#0
	beq         |$LN16@sys_alloc|

; 4174 :                     ssize += (page_align((size_t)base) - (size_t)base);

	adrp        x8,mparams+#8
	ldr         x8,[x8,PageOffset(mparams)+#8]
	sub         x9,x8,#1
	ldr         x8,[sp,#0x40]
	add         x9,x8,x9
	adrp        x8,mparams+#8
	ldr         x8,[x8,PageOffset(mparams)+#8]
	sub         x8,x8,#1
	mvn         x8,x8
	and         x9,x9,x8
	ldr         x8,[sp,#0x40]
	sub         x9,x9,x8
	ldr         x8,[sp,#0x18]
	add         x8,x8,x9
	str         x8,[sp,#0x18]
|$LN16@sys_alloc|

; 4175 :                 fp = m->footprint + ssize; /* recheck limits */

	ldr         x8,[sp]
	add         x8,x8,#0x358
	ldr         x9,[x8]
	ldr         x8,[sp,#0x18]
	add         x8,x9,x8
	str         x8,[sp,#0x98]

; 4176 :                 if (ssize > nb && ssize < HALF_MAX_SIZE_T &&
; 4177 :                     (m->footprint_limit == 0 ||
; 4178 :                         (fp > m->footprint && fp <= m->footprint_limit)) &&

	ldr         x9,[sp,#0x28]
	ldr         x8,[sp,#0x18]
	cmp         x8,x9
	bls         |$LN17@sys_alloc|
	mov         x9,#0x7FFFFFFFFFFFFFFF
	ldr         x8,[sp,#0x18]
	cmp         x8,x9
	bhs         |$LN17@sys_alloc|
	ldr         x8,[sp]
	add         x8,x8,#0x368
	ldr         x8,[x8]
	cmp         x8,#0
	beq         |$LN18@sys_alloc|
	ldr         x8,[sp]
	add         x8,x8,#0x358
	ldr         x9,[x8]
	ldr         x8,[sp,#0x98]
	cmp         x8,x9
	bls         |$LN17@sys_alloc|
	ldr         x8,[sp]
	add         x8,x8,#0x368
	ldr         x9,[x8]
	ldr         x8,[sp,#0x98]
	cmp         x8,x9
	bhi         |$LN17@sys_alloc|
|$LN18@sys_alloc|
	ldr         x8,[sp,#0x18]
	mov         w0,w8
	mov         w0,w0
	bl          au_request_page
	str         x0,[sp,#0x38]
	ldr         x9,[sp,#0x40]
	ldr         x8,[sp,#0x38]
	cmp         x8,x9
	bne         |$LN17@sys_alloc|

; 4179 :                     (br = (char*)(CALL_MORECORE(ssize))) == base) {
; 4180 :                     tbase = base;

	ldr         x8,[sp,#0x40]
	str         x8,[sp,#0x10]

; 4181 :                     tsize = ssize;

	ldr         x8,[sp,#0x18]
	str         x8,[sp,#0x20]
|$LN17@sys_alloc|
|$LN15@sys_alloc|

; 4182 :                 }
; 4183 :             }
; 4184 :         }

	b           |$LN14@sys_alloc|
|$LN13@sys_alloc|

; 4185 :         else {
; 4186 :             /* Subtract out existing available top space from MORECORE request. */
; 4187 :             ssize = granularity_align(nb - m->topsize + SYS_ALLOC_PADDING);

	mov         x8,#0xF
	tbnz        x8,#4,|$LN54@sys_alloc|
	mov         x8,#0
	str         x8,[sp,#0xA0]
	b           |$LN55@sys_alloc|
|$LN54@sys_alloc|
	mov         x8,#0xF
	and         x9,x8,#0x10
	mov         x8,#0x10
	sub         x8,x8,x9
	and         x8,x8,#0xF
	str         x8,[sp,#0xA0]
|$LN55@sys_alloc|
	ldr         x8,[sp]
	add         x8,x8,#0x10
	ldr         x9,[sp,#0x28]
	ldr         x8,[x8]
	sub         x9,x9,x8
	ldr         x8,[sp,#0xA0]
	add         x8,x8,#0x60
	add         x9,x9,x8
	adrp        x8,mparams+#0x10
	ldr         x8,[x8,PageOffset(mparams)+#0x10]
	sub         x8,x8,#1
	add         x9,x9,x8
	adrp        x8,mparams+#0x10
	ldr         x8,[x8,PageOffset(mparams)+#0x10]
	sub         x8,x8,#1
	mvn         x8,x8
	and         x8,x9,x8
	str         x8,[sp,#0x18]

; 4188 :             /* Use mem here only if it did continuously extend old space */
; 4189 :             if (ssize < HALF_MAX_SIZE_T &&

	mov         x9,#0x7FFFFFFFFFFFFFFF
	ldr         x8,[sp,#0x18]
	cmp         x8,x9
	bhs         |$LN19@sys_alloc|
	ldr         x8,[sp,#0x18]
	mov         w0,w8
	mov         w0,w0
	bl          au_request_page
	str         x0,[sp,#0x38]
	ldr         x9,[sp,#0x60]
	ldr         x8,[sp,#0x60]
	add         x8,x8,#8
	ldr         x9,[x9]
	ldr         x8,[x8]
	add         x9,x9,x8
	ldr         x8,[sp,#0x38]
	cmp         x8,x9
	bne         |$LN19@sys_alloc|

; 4190 :                 (br = (char*)(CALL_MORECORE(ssize))) == ss->base + ss->size) {
; 4191 :                 tbase = br;

	ldr         x8,[sp,#0x38]
	str         x8,[sp,#0x10]

; 4192 :                 tsize = ssize;

	ldr         x8,[sp,#0x18]
	str         x8,[sp,#0x20]
|$LN19@sys_alloc|
|$LN14@sys_alloc|

; 4193 :             }
; 4194 :         }
; 4195 : 
; 4196 :         if (tbase == CMFAIL) {    /* Cope with partial failure */

	ldr         x8,[sp,#0x10]
	cmn         x8,#1
	bne         |$LN20@sys_alloc|

; 4197 :             if (br != CMFAIL) {    /* Try to use/extend the space we did get */

	ldr         x8,[sp,#0x38]
	cmn         x8,#1
	beq         |$LN21@sys_alloc|

; 4198 :                 if (ssize < HALF_MAX_SIZE_T &&

	mov         x9,#0x7FFFFFFFFFFFFFFF
	ldr         x8,[sp,#0x18]
	cmp         x8,x9
	bhs         |$LN22@sys_alloc|
	mov         x8,#0xF
	tbnz        x8,#4,|$LN56@sys_alloc|
	mov         x8,#0
	str         x8,[sp,#0xA8]
	b           |$LN57@sys_alloc|
|$LN56@sys_alloc|
	mov         x8,#0xF
	and         x9,x8,#0x10
	mov         x8,#0x10
	sub         x8,x8,x9
	and         x8,x8,#0xF
	str         x8,[sp,#0xA8]
|$LN57@sys_alloc|
	ldr         x8,[sp,#0xA8]
	add         x9,x8,#0x60
	ldr         x8,[sp,#0x28]
	add         x9,x8,x9
	ldr         x8,[sp,#0x18]
	cmp         x8,x9
	bhs         |$LN22@sys_alloc|

; 4199 :                     ssize < nb + SYS_ALLOC_PADDING) {
; 4200 :                     size_t esize = granularity_align(nb + SYS_ALLOC_PADDING - ssize);

	mov         x8,#0xF
	tbnz        x8,#4,|$LN58@sys_alloc|
	mov         x8,#0
	str         x8,[sp,#0xB0]
	b           |$LN59@sys_alloc|
|$LN58@sys_alloc|
	mov         x8,#0xF
	and         x9,x8,#0x10
	mov         x8,#0x10
	sub         x8,x8,x9
	and         x8,x8,#0xF
	str         x8,[sp,#0xB0]
|$LN59@sys_alloc|
	ldr         x8,[sp,#0xB0]
	add         x9,x8,#0x60
	ldr         x8,[sp,#0x28]
	add         x9,x8,x9
	ldr         x8,[sp,#0x18]
	sub         x9,x9,x8
	adrp        x8,mparams+#0x10
	ldr         x8,[x8,PageOffset(mparams)+#0x10]
	sub         x8,x8,#1
	add         x9,x9,x8
	adrp        x8,mparams+#0x10
	ldr         x8,[x8,PageOffset(mparams)+#0x10]
	sub         x8,x8,#1
	mvn         x8,x8
	and         x8,x9,x8
	str         x8,[sp,#0x68]

; 4201 :                     if (esize < HALF_MAX_SIZE_T) {

	mov         x9,#0x7FFFFFFFFFFFFFFF
	ldr         x8,[sp,#0x68]
	cmp         x8,x9
	bhs         |$LN23@sys_alloc|

; 4202 :                         char* end = (char*)CALL_MORECORE(esize);

	ldr         x8,[sp,#0x68]
	mov         w0,w8
	mov         w0,w0
	bl          au_request_page
	str         x0,[sp,#0x100]

; 4203 :                         if (end != CMFAIL)

	ldr         x8,[sp,#0x100]
	cmn         x8,#1
	beq         |$LN24@sys_alloc|

; 4204 :                             ssize += esize;

	ldr         x9,[sp,#0x18]
	ldr         x8,[sp,#0x68]
	add         x8,x9,x8
	str         x8,[sp,#0x18]
	b           |$LN25@sys_alloc|
|$LN24@sys_alloc|

; 4205 :                         else {            /* Can't use; try to release */
; 4206 :                             (void)CALL_MORECORE(-ssize);

	ldr         x8,[sp,#0x18]
	neg         x8,x8
	mov         w0,w8
	mov         w0,w0
	bl          au_request_page

; 4207 :                             br = CMFAIL;

	mov         x8,#-1
	str         x8,[sp,#0x38]
|$LN25@sys_alloc|
|$LN23@sys_alloc|
|$LN22@sys_alloc|
|$LN21@sys_alloc|

; 4208 :                         }
; 4209 :                     }
; 4210 :                 }
; 4211 :             }
; 4212 :             if (br != CMFAIL) {    /* Use the space we did get */

	ldr         x8,[sp,#0x38]
	cmn         x8,#1
	beq         |$LN26@sys_alloc|

; 4213 :                 tbase = br;

	ldr         x8,[sp,#0x38]
	str         x8,[sp,#0x10]

; 4214 :                 tsize = ssize;

	ldr         x8,[sp,#0x18]
	str         x8,[sp,#0x20]

; 4215 :             }

	b           |$LN27@sys_alloc|
|$LN26@sys_alloc|

; 4216 :             else
; 4217 :                 disable_contiguous(m); /* Don't try contiguous path in the future */

	ldr         x8,[sp]
	add         x8,x8,#0x370
	ldr         w8,[x8]
	orr         w9,w8,#4
	ldr         x8,[sp]
	add         x8,x8,#0x370
	str         w9,[x8]
|$LN27@sys_alloc|
|$LN20@sys_alloc|
|$LN12@sys_alloc|

; 4218 :         }
; 4219 : 
; 4220 :         RELEASE_MALLOC_GLOBAL_LOCK();
; 4221 :     }
; 4222 : 
; 4223 :     if (HAVE_MMAP && tbase == CMFAIL) {  /* Try MMAP */

	mov         w8,#0
	cmp         w8,#0
	beq         |$LN28@sys_alloc|

; 4224 :         char* mp = (char*)(CALL_MMAP(asize));

	mov         x8,#-1
	str         x8,[sp,#0xB8]

; 4225 :         if (mp != CMFAIL) {

	ldr         x8,[sp,#0xB8]
	cmn         x8,#1
	beq         |$LN29@sys_alloc|

; 4226 :             tbase = mp;

	ldr         x8,[sp,#0xB8]
	str         x8,[sp,#0x10]

; 4227 :             tsize = asize;

	ldr         x8,[sp,#0x48]
	str         x8,[sp,#0x20]

; 4228 :             mmap_flag = USE_MMAP_BIT;

	mov         w8,#0
	str         w8,[sp,#0x30]
|$LN29@sys_alloc|
|$LN28@sys_alloc|

; 4229 :         }
; 4230 :     }
; 4231 : 
; 4232 :     if (HAVE_MORECORE && tbase == CMFAIL) { /* Try noncontiguous MORECORE */

	mov         w8,#1
	cmp         w8,#0
	beq         |$LN30@sys_alloc|
	ldr         x8,[sp,#0x10]
	cmn         x8,#1
	bne         |$LN30@sys_alloc|

; 4233 :         if (asize < HALF_MAX_SIZE_T) {

	mov         x9,#0x7FFFFFFFFFFFFFFF
	ldr         x8,[sp,#0x48]
	cmp         x8,x9
	bhs         |$LN31@sys_alloc|

; 4234 :             char* br = CMFAIL;

	mov         x8,#-1
	str         x8,[sp,#0x50]

; 4235 :             char* end = CMFAIL;

	mov         x8,#-1
	str         x8,[sp,#0x58]

; 4236 :             ACQUIRE_MALLOC_GLOBAL_LOCK();
; 4237 :             br = (char*)(CALL_MORECORE(asize));

	ldr         x8,[sp,#0x48]
	mov         w0,w8
	mov         w0,w0
	bl          au_request_page
	str         x0,[sp,#0x50]

; 4238 :             end = (char*)(CALL_MORECORE(0));

	mov         w0,#0
	bl          au_request_page
	str         x0,[sp,#0x58]

; 4239 :             RELEASE_MALLOC_GLOBAL_LOCK();
; 4240 :             if (br != CMFAIL && end != CMFAIL && br < end) {

	ldr         x8,[sp,#0x50]
	cmn         x8,#1
	beq         |$LN32@sys_alloc|
	ldr         x8,[sp,#0x58]
	cmn         x8,#1
	beq         |$LN32@sys_alloc|
	ldr         x9,[sp,#0x58]
	ldr         x8,[sp,#0x50]
	cmp         x8,x9
	bhs         |$LN32@sys_alloc|

; 4241 :                 size_t ssize = end - br;

	ldr         x9,[sp,#0x58]
	ldr         x8,[sp,#0x50]
	sub         x8,x9,x8
	str         x8,[sp,#0xC8]

; 4242 :                 if (ssize > nb + TOP_FOOT_SIZE) {

	mov         x8,#0xF
	tbnz        x8,#4,|$LN60@sys_alloc|
	mov         x8,#0
	str         x8,[sp,#0xC0]
	b           |$LN61@sys_alloc|
|$LN60@sys_alloc|
	mov         x8,#0xF
	and         x9,x8,#0x10
	mov         x8,#0x10
	sub         x8,x8,x9
	and         x8,x8,#0xF
	str         x8,[sp,#0xC0]
|$LN61@sys_alloc|
	ldr         x8,[sp,#0xC0]
	add         x9,x8,#0x50
	ldr         x8,[sp,#0x28]
	add         x9,x8,x9
	ldr         x8,[sp,#0xC8]
	cmp         x8,x9
	bls         |$LN33@sys_alloc|

; 4243 :                     tbase = br;

	ldr         x8,[sp,#0x50]
	str         x8,[sp,#0x10]

; 4244 :                     tsize = ssize;

	ldr         x8,[sp,#0xC8]
	str         x8,[sp,#0x20]
|$LN33@sys_alloc|
|$LN32@sys_alloc|
|$LN31@sys_alloc|
|$LN30@sys_alloc|

; 4245 :                 }
; 4246 :             }
; 4247 :         }
; 4248 :     }
; 4249 : 
; 4250 :     if (tbase != CMFAIL) {

	ldr         x8,[sp,#0x10]
	cmn         x8,#1
	beq         |$LN34@sys_alloc|

; 4251 : 
; 4252 :         if ((m->footprint += tsize) > m->max_footprint)

	ldr         x8,[sp]
	add         x8,x8,#0x358
	ldr         x9,[x8]
	ldr         x8,[sp,#0x20]
	add         x8,x9,x8
	str         x8,[sp,#0xD0]
	ldr         x8,[sp]
	add         x9,x8,#0x358
	ldr         x8,[sp,#0xD0]
	str         x8,[x9]
	ldr         x8,[sp]
	add         x8,x8,#0x360
	ldr         x9,[x8]
	ldr         x8,[sp,#0xD0]
	cmp         x8,x9
	bls         |$LN35@sys_alloc|

; 4253 :             m->max_footprint = m->footprint;

	ldr         x8,[sp]
	add         x10,x8,#0x358
	ldr         x8,[sp]
	add         x9,x8,#0x360
	ldr         x8,[x10]
	str         x8,[x9]
|$LN35@sys_alloc|

; 4254 : 
; 4255 :         if (!is_initialized(m)) { /* first-time initialization */

	ldr         x8,[sp]
	add         x8,x8,#0x28
	ldr         x8,[x8]
	cmp         x8,#0
	bne         |$LN36@sys_alloc|

; 4256 :             if (m->least_addr == 0 || tbase < m->least_addr)

	ldr         x8,[sp]
	add         x8,x8,#0x18
	ldr         x8,[x8]
	cmp         x8,#0
	beq         |$LN39@sys_alloc|
	ldr         x8,[sp]
	add         x8,x8,#0x18
	ldr         x9,[x8]
	ldr         x8,[sp,#0x10]
	cmp         x8,x9
	bhs         |$LN38@sys_alloc|
|$LN39@sys_alloc|

; 4257 :                 m->least_addr = tbase;

	ldr         x8,[sp]
	add         x9,x8,#0x18
	ldr         x8,[sp,#0x10]
	str         x8,[x9]
|$LN38@sys_alloc|

; 4258 :             m->seg.base = tbase;

	ldr         x8,[sp]
	add         x9,x8,#0x378
	ldr         x8,[sp,#0x10]
	str         x8,[x9]

; 4259 :             m->seg.size = tsize;

	ldr         x8,[sp]
	add         x9,x8,#0x380
	ldr         x8,[sp,#0x20]
	str         x8,[x9]

; 4260 :             m->seg.sflags = mmap_flag;

	ldr         x8,[sp]
	add         x9,x8,#0x390
	ldr         w8,[sp,#0x30]
	str         w8,[x9]

; 4261 :             m->magic = mparams.magic;

	ldr         x8,[sp]
	add         x9,x8,#0x40
	adrp        x8,mparams
	ldr         x8,[x8,PageOffset(mparams)]
	str         x8,[x9]

; 4262 :             m->release_checks = MAX_RELEASE_CHECK_RATE;

	ldr         x8,[sp]
	add         x9,x8,#0x38
	mov         x8,#-1
	str         x8,[x9]

; 4263 :             init_bins(m);

	ldr         x0,[sp]
	bl          init_bins

; 4264 : #if !ONLY_MSPACES
; 4265 :             if (is_global(m))

	adrp        x8,_gm_
	add         x9,x8,PageOffset(_gm_)
	ldr         x8,[sp]
	cmp         x8,x9
	bne         |$LN40@sys_alloc|

; 4266 :                 init_top(m, (mchunkptr)tbase, tsize - TOP_FOOT_SIZE);

	mov         x8,#0xF
	tbnz        x8,#4,|$LN62@sys_alloc|
	mov         x8,#0
	str         x8,[sp,#0xD8]
	b           |$LN63@sys_alloc|
|$LN62@sys_alloc|
	mov         x8,#0xF
	and         x9,x8,#0x10
	mov         x8,#0x10
	sub         x8,x8,x9
	and         x8,x8,#0xF
	str         x8,[sp,#0xD8]
|$LN63@sys_alloc|
	ldr         x8,[sp,#0xD8]
	add         x9,x8,#0x50
	ldr         x8,[sp,#0x20]
	sub         x2,x8,x9
	ldr         x1,[sp,#0x10]
	ldr         x0,[sp]
	bl          init_top
	b           |$LN41@sys_alloc|
|$LN40@sys_alloc|

; 4267 :             else
; 4268 : #endif
; 4269 :             {
; 4270 :                 /* Offset top by embedded malloc_state */
; 4271 :                 mchunkptr mn = next_chunk(mem2chunk(m));

	ldr         x8,[sp]
	sub         x9,x8,#0x10
	ldr         x8,[sp]
	sub         x8,x8,#0x10
	add         x8,x8,#8
	ldr         x8,[x8]
	and         x8,x8,#-8
	add         x8,x9,x8
	str         x8,[sp,#0xE8]

; 4272 :                 init_top(m, mn, (size_t)((tbase + tsize) - (char*)mn) - TOP_FOOT_SIZE);

	mov         x8,#0xF
	tbnz        x8,#4,|$LN64@sys_alloc|
	mov         x8,#0
	str         x8,[sp,#0xE0]
	b           |$LN65@sys_alloc|
|$LN64@sys_alloc|
	mov         x8,#0xF
	and         x9,x8,#0x10
	mov         x8,#0x10
	sub         x8,x8,x9
	and         x8,x8,#0xF
	str         x8,[sp,#0xE0]
|$LN65@sys_alloc|
	ldr         x9,[sp,#0x10]
	ldr         x8,[sp,#0x20]
	add         x9,x9,x8
	ldr         x8,[sp,#0xE8]
	sub         x9,x9,x8
	ldr         x8,[sp,#0xE0]
	add         x8,x8,#0x50
	sub         x2,x9,x8
	ldr         x1,[sp,#0xE8]
	ldr         x0,[sp]
	bl          init_top
|$LN41@sys_alloc|

; 4273 :             }
; 4274 :         }

	b           |$LN37@sys_alloc|
|$LN36@sys_alloc|

; 4275 : 
; 4276 :         else {
; 4277 :             /* Try to merge with an existing segment */
; 4278 :             msegmentptr sp = &m->seg;

	ldr         x8,[sp]
	add         x8,x8,#0x378
	str         x8,[sp,#8]
|$LN2@sys_alloc|

; 4279 :             /* Only consider most recent segment if traversal suppressed */
; 4280 :             while (sp != 0 && tbase != sp->base + sp->size)

	ldr         x8,[sp,#8]
	cmp         x8,#0
	beq         |$LN3@sys_alloc|
	ldr         x9,[sp,#8]
	ldr         x8,[sp,#8]
	add         x8,x8,#8
	ldr         x9,[x9]
	ldr         x8,[x8]
	add         x9,x9,x8
	ldr         x8,[sp,#0x10]
	cmp         x8,x9
	beq         |$LN3@sys_alloc|

; 4281 :                 sp = (NO_SEGMENT_TRAVERSAL) ? 0 : sp->next;

	ldr         x8,[sp,#8]
	add         x8,x8,#0x10
	ldr         x8,[x8]
	str         x8,[sp,#8]
	b           |$LN2@sys_alloc|
|$LN3@sys_alloc|

; 4282 :             if (sp != 0 &&
; 4283 :                 !is_extern_segment(sp) &&
; 4284 :                 (sp->sflags & USE_MMAP_BIT) == mmap_flag &&

	ldr         x8,[sp,#8]
	cmp         x8,#0
	beq         |$LN42@sys_alloc|
	ldr         x8,[sp,#8]
	add         x8,x8,#0x18
	ldr         w8,[x8]
	tbnz        x8,#3,|$LN42@sys_alloc|
	ldr         x8,[sp,#8]
	add         x8,x8,#0x18
	ldr         w8,[x8]
	uxtw        x9,w8
	mov         x8,#0
	and         x9,x9,x8
	ldr         w8,[sp,#0x30]
	uxtw        x8,w8
	cmp         x9,x8
	bne         |$LN42@sys_alloc|
	ldr         x8,[sp]
	add         x10,x8,#0x28
	ldr         x8,[sp,#8]
	ldr         x9,[x8]
	ldr         x8,[x10]
	cmp         x8,x9
	blo         |$LN42@sys_alloc|
	ldr         x8,[sp]
	add         x10,x8,#0x28
	ldr         x9,[sp,#8]
	ldr         x8,[sp,#8]
	add         x8,x8,#8
	ldr         x9,[x9]
	ldr         x8,[x8]
	add         x9,x9,x8
	ldr         x8,[x10]
	cmp         x8,x9
	bhs         |$LN42@sys_alloc|

; 4285 :                 segment_holds(sp, m->top)) { /* append */
; 4286 :                 sp->size += tsize;

	ldr         x8,[sp,#8]
	add         x8,x8,#8
	ldr         x9,[x8]
	ldr         x8,[sp,#0x20]
	add         x9,x9,x8
	ldr         x8,[sp,#8]
	add         x8,x8,#8
	str         x9,[x8]

; 4287 :                 init_top(m, m->top, m->topsize + tsize);

	ldr         x8,[sp]
	add         x8,x8,#0x10
	ldr         x9,[x8]
	ldr         x8,[sp,#0x20]
	add         x2,x9,x8
	ldr         x8,[sp]
	add         x8,x8,#0x28
	ldr         x1,[x8]
	ldr         x0,[sp]
	bl          init_top

; 4288 :             }

	b           |$LN43@sys_alloc|
|$LN42@sys_alloc|

; 4289 :             else {
; 4290 :                 if (tbase < m->least_addr)

	ldr         x8,[sp]
	add         x8,x8,#0x18
	ldr         x9,[x8]
	ldr         x8,[sp,#0x10]
	cmp         x8,x9
	bhs         |$LN44@sys_alloc|

; 4291 :                     m->least_addr = tbase;

	ldr         x8,[sp]
	add         x9,x8,#0x18
	ldr         x8,[sp,#0x10]
	str         x8,[x9]
|$LN44@sys_alloc|

; 4292 :                 sp = &m->seg;

	ldr         x8,[sp]
	add         x8,x8,#0x378
	str         x8,[sp,#8]
|$LN4@sys_alloc|

; 4293 :                 while (sp != 0 && sp->base != tbase + tsize)

	ldr         x8,[sp,#8]
	cmp         x8,#0
	beq         |$LN5@sys_alloc|
	ldr         x10,[sp,#8]
	ldr         x9,[sp,#0x10]
	ldr         x8,[sp,#0x20]
	add         x9,x9,x8
	ldr         x8,[x10]
	cmp         x8,x9
	beq         |$LN5@sys_alloc|

; 4294 :                     sp = (NO_SEGMENT_TRAVERSAL) ? 0 : sp->next;

	ldr         x8,[sp,#8]
	add         x8,x8,#0x10
	ldr         x8,[x8]
	str         x8,[sp,#8]
	b           |$LN4@sys_alloc|
|$LN5@sys_alloc|

; 4295 :                 if (sp != 0 &&
; 4296 :                     !is_extern_segment(sp) &&

	ldr         x8,[sp,#8]
	cmp         x8,#0
	beq         |$LN45@sys_alloc|
	ldr         x8,[sp,#8]
	add         x8,x8,#0x18
	ldr         w8,[x8]
	tbnz        x8,#3,|$LN45@sys_alloc|
	ldr         x8,[sp,#8]
	add         x8,x8,#0x18
	ldr         w8,[x8]
	uxtw        x9,w8
	mov         x8,#0
	and         x9,x9,x8
	ldr         w8,[sp,#0x30]
	uxtw        x8,w8
	cmp         x9,x8
	bne         |$LN45@sys_alloc|

; 4297 :                     (sp->sflags & USE_MMAP_BIT) == mmap_flag) {
; 4298 :                     char* oldbase = sp->base;

	ldr         x8,[sp,#8]
	ldr         x8,[x8]
	str         x8,[sp,#0x108]

; 4299 :                     sp->base = tbase;

	ldr         x9,[sp,#8]
	ldr         x8,[sp,#0x10]
	str         x8,[x9]

; 4300 :                     sp->size += tsize;

	ldr         x8,[sp,#8]
	add         x8,x8,#8
	ldr         x9,[x8]
	ldr         x8,[sp,#0x20]
	add         x9,x9,x8
	ldr         x8,[sp,#8]
	add         x8,x8,#8
	str         x9,[x8]

; 4301 :                     return prepend_alloc(m, tbase, oldbase, nb);

	ldr         x3,[sp,#0x28]
	ldr         x2,[sp,#0x108]
	ldr         x1,[sp,#0x10]
	ldr         x0,[sp]
	bl          prepend_alloc
	b           |$LN1@sys_alloc|

; 4302 :                 }

	b           |$LN46@sys_alloc|
|$LN45@sys_alloc|

; 4303 :                 else
; 4304 :                     add_segment(m, tbase, tsize, mmap_flag);

	ldr         w3,[sp,#0x30]
	ldr         x2,[sp,#0x20]
	ldr         x1,[sp,#0x10]
	ldr         x0,[sp]
	bl          add_segment
|$LN46@sys_alloc|
|$LN43@sys_alloc|
|$LN37@sys_alloc|

; 4305 :             }
; 4306 :         }
; 4307 : 
; 4308 :         if (nb < m->topsize) { /* Allocate from new or extended top space */

	ldr         x8,[sp]
	add         x8,x8,#0x10
	ldr         x9,[x8]
	ldr         x8,[sp,#0x28]
	cmp         x8,x9
	bhs         |$LN47@sys_alloc|

; 4309 :             size_t rsize = m->topsize -= nb;

	ldr         x8,[sp]
	add         x8,x8,#0x10
	ldr         x9,[x8]
	ldr         x8,[sp,#0x28]
	sub         x8,x9,x8
	str         x8,[sp,#0xF0]
	ldr         x8,[sp]
	add         x9,x8,#0x10
	ldr         x8,[sp,#0xF0]
	str         x8,[x9]
	ldr         x8,[sp,#0xF0]
	str         x8,[sp,#0x110]

; 4310 :             mchunkptr p = m->top;

	ldr         x8,[sp]
	add         x8,x8,#0x28
	ldr         x8,[x8]
	str         x8,[sp,#0x70]

; 4311 :             mchunkptr r = m->top = chunk_plus_offset(p, nb);

	ldr         x9,[sp,#0x70]
	ldr         x8,[sp,#0x28]
	add         x8,x9,x8
	str         x8,[sp,#0xF8]
	ldr         x8,[sp]
	add         x9,x8,#0x28
	ldr         x8,[sp,#0xF8]
	str         x8,[x9]
	ldr         x8,[sp,#0xF8]
	str         x8,[sp,#0x118]

; 4312 :             r->head = rsize | PINUSE_BIT;

	ldr         x8,[sp,#0x110]
	orr         x9,x8,#1
	ldr         x8,[sp,#0x118]
	add         x8,x8,#8
	str         x9,[x8]

; 4313 :             set_size_and_pinuse_of_inuse_chunk(m, p, nb);

	ldr         x8,[sp,#0x28]
	orr         x8,x8,#1
	orr         x9,x8,#2
	ldr         x8,[sp,#0x70]
	add         x8,x8,#8
	str         x9,[x8]

; 4314 :             check_top_chunk(m, m->top);
; 4315 :             check_malloced_chunk(m, chunk2mem(p), nb);
; 4316 :             return chunk2mem(p);

	ldr         x8,[sp,#0x70]
	add         x0,x8,#0x10
	b           |$LN1@sys_alloc|
|$LN47@sys_alloc|
|$LN34@sys_alloc|

; 4317 :         }
; 4318 :     }
; 4319 : 
; 4320 :     MALLOC_FAILURE_ACTION;
; 4321 :     return 0;

	mov         x0,#0
|$LN1@sys_alloc|
	add         sp,sp,#0x120
	ldr         lr,[sp],#0x10
	ret

	ENDP  ; |sys_alloc|

; Function compile flags: /Odtpy
; File C:\Users\paras\source\repos\grep-name\XenevaOS\KernelAA64\Mm\dlmalloc.c

	AREA	|.text$mn|, CODE, ARM64

|add_segment| PROC

; 4061 : static void add_segment(mstate m, char* tbase, size_t tsize, flag_t mmapped) {

	str         lr,[sp,#-0x10]!
	sub         sp,sp,#0x140
	str         x0,[sp]
	str         x1,[sp,#0xD8]
	str         x2,[sp,#0xE0]
	str         w3,[sp,#0x58]

; 4062 :     /* Determine locations and sizes of segment, fenceposts, old top */
; 4063 :     char* old_top = (char*)m->top;

	ldr         x8,[sp]
	add         x8,x8,#0x28
	ldr         x8,[x8]
	str         x8,[sp,#0x38]

; 4064 :     msegmentptr oldsp = segment_holding(m, old_top);

	ldr         x1,[sp,#0x38]
	ldr         x0,[sp]
	bl          segment_holding
	str         x0,[sp,#0xB0]

; 4065 :     char* old_end = oldsp->base + oldsp->size;

	ldr         x9,[sp,#0xB0]
	ldr         x8,[sp,#0xB0]
	add         x8,x8,#8
	ldr         x9,[x9]
	ldr         x8,[x8]
	add         x8,x9,x8
	str         x8,[sp,#0xF0]

; 4066 :     size_t ssize = pad_request(sizeof(struct malloc_segment));

	mov         x8,#0x30
	str         x8,[sp,#0x68]

; 4067 :     char* rawsp = old_end - (ssize + FOUR_SIZE_T_SIZES + CHUNK_ALIGN_MASK);

	ldr         x8,[sp,#0x68]
	add         x9,x8,#0x2F
	ldr         x8,[sp,#0xF0]
	sub         x8,x8,x9
	str         x8,[sp,#0x60]

; 4068 :     size_t offset = align_offset(chunk2mem(rawsp));

	ldr         x8,[sp,#0x60]
	add         x8,x8,#0x10
	and         x8,x8,#0xF
	cmp         x8,#0
	bne         |$LN41@add_segmen|
	mov         x8,#0
	str         x8,[sp,#0xB8]
	b           |$LN42@add_segmen|
|$LN41@add_segmen|
	ldr         x8,[sp,#0x60]
	add         x8,x8,#0x10
	and         x9,x8,#0xF
	mov         x8,#0x10
	sub         x8,x8,x9
	and         x8,x8,#0xF
	str         x8,[sp,#0xB8]
|$LN42@add_segmen|
	ldr         x8,[sp,#0xB8]
	str         x8,[sp,#0x110]

; 4069 :     char* asp = rawsp + offset;

	ldr         x9,[sp,#0x60]
	ldr         x8,[sp,#0x110]
	add         x8,x9,x8
	str         x8,[sp,#0xC0]

; 4070 :     char* csp = (asp < (old_top + MIN_CHUNK_SIZE)) ? old_top : asp;

	ldr         x8,[sp,#0x38]
	add         x9,x8,#0x20
	ldr         x8,[sp,#0xC0]
	cmp         x8,x9
	bhs         |$LN43@add_segmen|
	ldr         x8,[sp,#0x38]
	str         x8,[sp,#0xC8]
	b           |$LN44@add_segmen|
|$LN43@add_segmen|
	ldr         x8,[sp,#0xC0]
	str         x8,[sp,#0xC8]
|$LN44@add_segmen|
	ldr         x8,[sp,#0xC8]
	str         x8,[sp,#0x80]

; 4071 :     mchunkptr sp = (mchunkptr)csp;

	ldr         x8,[sp,#0x80]
	str         x8,[sp,#0x70]

; 4072 :     msegmentptr ss = (msegmentptr)(chunk2mem(sp));

	ldr         x8,[sp,#0x70]
	add         x8,x8,#0x10
	str         x8,[sp,#0xE8]

; 4073 :     mchunkptr tnext = chunk_plus_offset(sp, ssize);

	ldr         x9,[sp,#0x70]
	ldr         x8,[sp,#0x68]
	add         x8,x9,x8
	str         x8,[sp,#0x118]

; 4074 :     mchunkptr p = tnext;

	ldr         x8,[sp,#0x118]
	str         x8,[sp,#0x78]

; 4075 :     int nfences = 0;

	mov         w8,#0
	str         w8,[sp,#0x40]

; 4076 : 
; 4077 :     /* reset top to new space */
; 4078 :     init_top(m, (mchunkptr)tbase, tsize - TOP_FOOT_SIZE);

	mov         x8,#0xF
	tbnz        x8,#4,|$LN45@add_segmen|
	mov         x8,#0
	str         x8,[sp,#0xD0]
	b           |$LN46@add_segmen|
|$LN45@add_segmen|
	mov         x8,#0xF
	and         x9,x8,#0x10
	mov         x8,#0x10
	sub         x8,x8,x9
	and         x8,x8,#0xF
	str         x8,[sp,#0xD0]
|$LN46@add_segmen|
	ldr         x8,[sp,#0xD0]
	add         x9,x8,#0x50
	ldr         x8,[sp,#0xE0]
	sub         x2,x8,x9
	ldr         x1,[sp,#0xD8]
	ldr         x0,[sp]
	bl          init_top

; 4079 : 
; 4080 :     /* Set up segment record */
; 4081 :     assert(is_aligned(ss));
; 4082 :     set_size_and_pinuse_of_inuse_chunk(m, sp, ssize);

	ldr         x8,[sp,#0x68]
	orr         x8,x8,#1
	orr         x9,x8,#2
	ldr         x8,[sp,#0x70]
	add         x8,x8,#8
	str         x9,[x8]

; 4083 :     *ss = m->seg; /* Push current record */

	ldr         x8,[sp]
	add         x10,x8,#0x378
	add         x11,sp,#0x120
	ldp         x9,x8,[x10]
	stp         x9,x8,[x11]
	ldp         x9,x8,[x10,#0x10]
	stp         x9,x8,[x11,#0x10]
	ldr         x11,[sp,#0xE8]
	add         x10,sp,#0x120
	ldp         x9,x8,[x10]
	stp         x9,x8,[x11]
	ldp         x9,x8,[x10,#0x10]
	stp         x9,x8,[x11,#0x10]

; 4084 :     m->seg.base = tbase;

	ldr         x8,[sp]
	add         x9,x8,#0x378
	ldr         x8,[sp,#0xD8]
	str         x8,[x9]

; 4085 :     m->seg.size = tsize;

	ldr         x8,[sp]
	add         x9,x8,#0x380
	ldr         x8,[sp,#0xE0]
	str         x8,[x9]

; 4086 :     m->seg.sflags = mmapped;

	ldr         x8,[sp]
	add         x9,x8,#0x390
	ldr         w8,[sp,#0x58]
	str         w8,[x9]

; 4087 :     m->seg.next = ss;

	ldr         x8,[sp]
	add         x9,x8,#0x388
	ldr         x8,[sp,#0xE8]
	str         x8,[x9]
|$LN2@add_segmen|

; 4088 : 
; 4089 :     /* Insert trailing fenceposts */
; 4090 :     for (;;) {
; 4091 :         mchunkptr nextp = chunk_plus_offset(p, SIZE_T_SIZE);

	ldr         x8,[sp,#0x78]
	add         x8,x8,#8
	str         x8,[sp,#0xF8]

; 4092 :         p->head = FENCEPOST_HEAD;

	ldr         x8,[sp,#0x78]
	add         x9,x8,#8
	mov         x8,#0xB
	str         x8,[x9]

; 4093 :         ++nfences;

	ldr         w8,[sp,#0x40]
	add         w8,w8,#1
	str         w8,[sp,#0x40]

; 4094 :         if ((char*)(&(nextp->head)) < old_end)

	ldr         x8,[sp,#0xF8]
	add         x9,x8,#8
	ldr         x8,[sp,#0xF0]
	cmp         x9,x8
	bhs         |$LN17@add_segmen|

; 4095 :             p = nextp;

	ldr         x8,[sp,#0xF8]
	str         x8,[sp,#0x78]
	b           |$LN18@add_segmen|
|$LN17@add_segmen|

; 4096 :         else
; 4097 :             break;

	b           |$LN3@add_segmen|
|$LN18@add_segmen|

; 4098 :     }

	b           |$LN2@add_segmen|
|$LN3@add_segmen|

; 4099 :     assert(nfences >= 2);
; 4100 : 
; 4101 :     /* Insert the rest of old top into a bin as an ordinary free chunk */
; 4102 :     if (csp != old_top) {

	ldr         x9,[sp,#0x38]
	ldr         x8,[sp,#0x80]
	cmp         x8,x9
	beq         |$LN19@add_segmen|

; 4103 :         mchunkptr q = (mchunkptr)old_top;

	ldr         x8,[sp,#0x38]
	str         x8,[sp,#0x20]

; 4104 :         size_t psize = csp - old_top;

	ldr         x9,[sp,#0x80]
	ldr         x8,[sp,#0x38]
	sub         x8,x9,x8
	str         x8,[sp,#0x18]

; 4105 :         mchunkptr tn = chunk_plus_offset(q, psize);

	ldr         x9,[sp,#0x20]
	ldr         x8,[sp,#0x18]
	add         x8,x9,x8
	str         x8,[sp,#0x100]

; 4106 :         set_free_with_pinuse(q, psize, tn);

	ldr         x8,[sp,#0x100]
	add         x8,x8,#8
	ldr         x8,[x8]
	and         x9,x8,#-2
	ldr         x8,[sp,#0x100]
	add         x8,x8,#8
	str         x9,[x8]
	ldr         x8,[sp,#0x18]
	orr         x9,x8,#1
	ldr         x8,[sp,#0x20]
	add         x8,x8,#8
	str         x9,[x8]
	ldr         x9,[sp,#0x20]
	ldr         x8,[sp,#0x18]
	add         x9,x9,x8
	ldr         x8,[sp,#0x18]
	str         x8,[x9]

; 4107 :         insert_chunk(m, q, psize);

	ldr         x8,[sp,#0x18]
	lsr         x8,x8,#3
	cmp         x8,#0x20
	bhs         |$LN20@add_segmen|
	ldr         x8,[sp,#0x18]
	lsr         x8,x8,#3
	mov         w8,w8
	str         w8,[sp,#0x30]
	ldr         x8,[sp]
	add         x10,x8,#0x48
	ldr         w8,[sp,#0x30]
	lsl         w8,w8,#1
	uxtw        x9,w8
	mov         x8,#8
	mul         x8,x9,x8
	add         x8,x10,x8
	str         x8,[sp,#0x48]
	ldr         x8,[sp,#0x48]
	str         x8,[sp,#0x88]
	ldr         x10,[sp]
	mov         w9,#1
	ldr         w8,[sp,#0x30]
	lsl         w9,w9,w8
	ldr         w8,[x10]
	and         w8,w8,w9
	cmp         w8,#0
	bne         |$LN22@add_segmen|
	ldr         x10,[sp]
	mov         w9,#1
	ldr         w8,[sp,#0x30]
	lsl         w9,w9,w8
	ldr         w8,[x10]
	orr         w9,w8,w9
	ldr         x8,[sp]
	str         w9,[x8]
	b           |$LN23@add_segmen|
|$LN22@add_segmen|
	ldr         x8,[sp,#0x48]
	add         x10,x8,#0x10
	ldr         x8,[sp]
	add         x8,x8,#0x18
	ldr         x9,[x8]
	ldr         x8,[x10]
	cmp         x8,x9
	blo         |$LN24@add_segmen|
	ldr         x8,[sp,#0x48]
	add         x8,x8,#0x10
	ldr         x8,[x8]
	str         x8,[sp,#0x88]
	b           |$LN25@add_segmen|
|$LN24@add_segmen|
|$LN5@add_segmen|
	b           |$LN5@add_segmen|
|$LN25@add_segmen|
|$LN23@add_segmen|
	ldr         x8,[sp,#0x48]
	add         x9,x8,#0x10
	ldr         x8,[sp,#0x20]
	str         x8,[x9]
	ldr         x8,[sp,#0x88]
	add         x9,x8,#0x18
	ldr         x8,[sp,#0x20]
	str         x8,[x9]
	ldr         x8,[sp,#0x20]
	add         x9,x8,#0x10
	ldr         x8,[sp,#0x88]
	str         x8,[x9]
	ldr         x8,[sp,#0x20]
	add         x9,x8,#0x18
	ldr         x8,[sp,#0x48]
	str         x8,[x9]
	b           |$LN21@add_segmen|
|$LN20@add_segmen|
	ldr         x8,[sp,#0x20]
	str         x8,[sp,#8]
	ldr         x8,[sp,#0x18]
	lsr         x8,x8,#8
	str         x8,[sp,#0x90]
	ldr         x8,[sp,#0x90]
	cmp         x8,#0
	bne         |$LN26@add_segmen|
	mov         w8,#0
	str         w8,[sp,#0x10]
	b           |$LN27@add_segmen|
|$LN26@add_segmen|
	mov         x9,#0xFFFF
	ldr         x8,[sp,#0x90]
	cmp         x8,x9
	bls         |$LN28@add_segmen|
	mov         w8,#0x1F
	str         w8,[sp,#0x10]
	b           |$LN29@add_segmen|
|$LN28@add_segmen|
	ldr         x8,[sp,#0x90]
	mov         w8,w8
	clz         w8,w8
	str         w8,[sp,#0x5C]
	mov         w9,#0x1F
	ldr         w8,[sp,#0x5C]
	sub         w9,w9,w8
	add         x8,sp,#0x44
	str         w9,[x8]
	ldr         w8,[sp,#0x44]
	lsl         w8,w8,#1
	uxtw        x10,w8
	ldr         w8,[sp,#0x44]
	add         w8,w8,#7
	uxtw        x9,w8
	ldr         x8,[sp,#0x18]
	lsr         x8,x8,x9
	and         x8,x8,#1
	add         x8,x10,x8
	mov         w8,w8
	str         w8,[sp,#0x10]
|$LN29@add_segmen|
|$LN27@add_segmen|
	ldr         x8,[sp]
	add         x10,x8,#0x258
	ldr         w8,[sp,#0x10]
	uxtw        x9,w8
	mov         x8,#8
	mul         x8,x9,x8
	add         x8,x10,x8
	str         x8,[sp,#0x98]
	ldr         x8,[sp,#8]
	add         x9,x8,#0x38
	ldr         w8,[sp,#0x10]
	str         w8,[x9]
	ldr         x8,[sp,#8]
	add         x9,x8,#0x28
	mov         x8,#0
	str         x8,[x9]
	ldr         x8,[sp,#8]
	add         x9,x8,#0x20
	mov         x8,#0
	str         x8,[x9]
	ldr         x8,[sp]
	add         x10,x8,#4
	mov         w9,#1
	ldr         w8,[sp,#0x10]
	lsl         w9,w9,w8
	ldr         w8,[x10]
	and         w8,w8,w9
	cmp         w8,#0
	bne         |$LN30@add_segmen|
	ldr         x8,[sp]
	add         x10,x8,#4
	mov         w9,#1
	ldr         w8,[sp,#0x10]
	lsl         w9,w9,w8
	ldr         w8,[x10]
	orr         w9,w8,w9
	ldr         x8,[sp]
	add         x8,x8,#4
	str         w9,[x8]
	ldr         x9,[sp,#0x98]
	ldr         x8,[sp,#8]
	str         x8,[x9]
	ldr         x8,[sp,#8]
	add         x9,x8,#0x30
	ldr         x8,[sp,#0x98]
	str         x8,[x9]
	ldr         x8,[sp,#8]
	add         x9,x8,#0x18
	ldr         x8,[sp,#8]
	str         x8,[x9]
	ldr         x8,[sp,#8]
	add         x9,x8,#0x10
	ldr         x8,[sp,#8]
	str         x8,[x9]
	b           |$LN31@add_segmen|
|$LN30@add_segmen|
	ldr         x8,[sp,#0x98]
	ldr         x8,[x8]
	str         x8,[sp,#0x28]
	ldr         w8,[sp,#0x10]
	cmp         w8,#0x1F
	bne         |$LN47@add_segmen|
	mov         x8,#0
	str         x8,[sp,#0x108]
	b           |$LN48@add_segmen|
|$LN47@add_segmen|
	ldr         w8,[sp,#0x10]
	lsr         w8,w8,#1
	add         w8,w8,#8
	sub         w8,w8,#2
	uxtw        x9,w8
	mov         x8,#0x3F
	sub         x8,x8,x9
	str         x8,[sp,#0x108]
|$LN48@add_segmen|
	ldr         x9,[sp,#0x18]
	ldr         x8,[sp,#0x108]
	lsl         x8,x9,x8
	str         x8,[sp,#0xA0]
|$LN8@add_segmen|
	ldr         x8,[sp,#0x28]
	add         x8,x8,#8
	ldr         x8,[x8]
	and         x9,x8,#-8
	ldr         x8,[sp,#0x18]
	cmp         x9,x8
	beq         |$LN32@add_segmen|
	ldr         x8,[sp,#0x28]
	add         x10,x8,#0x20
	ldr         x8,[sp,#0xA0]
	lsr         x9,x8,#0x3F
	mov         x8,#8
	mul         x8,x9,x8
	add         x8,x10,x8
	str         x8,[sp,#0x50]
	ldr         x8,[sp,#0xA0]
	lsl         x8,x8,#1
	str         x8,[sp,#0xA0]
	ldr         x8,[sp,#0x50]
	ldr         x8,[x8]
	cmp         x8,#0
	beq         |$LN34@add_segmen|
	ldr         x8,[sp,#0x50]
	ldr         x8,[x8]
	str         x8,[sp,#0x28]
	b           |$LN35@add_segmen|
|$LN34@add_segmen|
	ldr         x8,[sp]
	add         x8,x8,#0x18
	ldr         x9,[x8]
	ldr         x8,[sp,#0x50]
	cmp         x8,x9
	blo         |$LN36@add_segmen|
	ldr         x9,[sp,#0x50]
	ldr         x8,[sp,#8]
	str         x8,[x9]
	ldr         x8,[sp,#8]
	add         x9,x8,#0x30
	ldr         x8,[sp,#0x28]
	str         x8,[x9]
	ldr         x8,[sp,#8]
	add         x9,x8,#0x18
	ldr         x8,[sp,#8]
	str         x8,[x9]
	ldr         x8,[sp,#8]
	add         x9,x8,#0x10
	ldr         x8,[sp,#8]
	str         x8,[x9]
	b           |$LN9@add_segmen|
	b           |$LN37@add_segmen|
|$LN36@add_segmen|
|$LN11@add_segmen|
	b           |$LN11@add_segmen|
	b           |$LN9@add_segmen|
|$LN37@add_segmen|
|$LN35@add_segmen|
	b           |$LN33@add_segmen|
|$LN32@add_segmen|
	ldr         x8,[sp,#0x28]
	add         x8,x8,#0x10
	ldr         x8,[x8]
	str         x8,[sp,#0xA8]
	ldr         x8,[sp]
	add         x8,x8,#0x18
	ldr         x9,[x8]
	ldr         x8,[sp,#0x28]
	cmp         x8,x9
	blo         |$LN38@add_segmen|
	ldr         x8,[sp]
	add         x8,x8,#0x18
	ldr         x9,[x8]
	ldr         x8,[sp,#0xA8]
	cmp         x8,x9
	blo         |$LN38@add_segmen|
	ldr         x8,[sp,#0xA8]
	add         x9,x8,#0x18
	ldr         x8,[sp,#8]
	str         x8,[x9]
	ldr         x8,[sp,#0x28]
	add         x9,x8,#0x10
	ldr         x8,[sp,#8]
	str         x8,[x9]
	ldr         x8,[sp,#8]
	add         x9,x8,#0x10
	ldr         x8,[sp,#0xA8]
	str         x8,[x9]
	ldr         x8,[sp,#8]
	add         x9,x8,#0x18
	ldr         x8,[sp,#0x28]
	str         x8,[x9]
	ldr         x8,[sp,#8]
	add         x9,x8,#0x30
	mov         x8,#0
	str         x8,[x9]
	b           |$LN9@add_segmen|
	b           |$LN39@add_segmen|
|$LN38@add_segmen|
|$LN14@add_segmen|
	b           |$LN14@add_segmen|
	b           |$LN9@add_segmen|
|$LN39@add_segmen|
|$LN33@add_segmen|
	b           |$LN8@add_segmen|
|$LN9@add_segmen|
|$LN31@add_segmen|
|$LN21@add_segmen|
|$LN19@add_segmen|
	add         sp,sp,#0x140
	ldr         lr,[sp],#0x10
	ret

	ENDP  ; |add_segment|

; Function compile flags: /Odtpy
; File C:\Users\paras\source\repos\grep-name\XenevaOS\KernelAA64\Mm\dlmalloc.c

	AREA	|.text$mn|, CODE, ARM64

|prepend_alloc| PROC

; 4020 :     size_t nb) {

	sub         sp,sp,#0x150
	str         x0,[sp]
	str         x1,[sp,#0xC0]
	str         x2,[sp,#0xC8]
	str         x3,[sp,#0xD0]

; 4021 :     mchunkptr p = align_as_chunk(newbase);

	ldr         x8,[sp,#0xC0]
	add         x8,x8,#0x10
	and         x8,x8,#0xF
	cmp         x8,#0
	bne         |$LN102@prepend_al|
	mov         x8,#0
	str         x8,[sp,#0x108]
	b           |$LN103@prepend_al|
|$LN102@prepend_al|
	ldr         x8,[sp,#0xC0]
	add         x8,x8,#0x10
	and         x9,x8,#0xF
	mov         x8,#0x10
	sub         x8,x8,x9
	and         x8,x8,#0xF
	str         x8,[sp,#0x108]
|$LN103@prepend_al|
	ldr         x9,[sp,#0xC0]
	ldr         x8,[sp,#0x108]
	add         x8,x9,x8
	str         x8,[sp,#0x80]

; 4022 :     mchunkptr oldfirst = align_as_chunk(oldbase);

	ldr         x8,[sp,#0xC8]
	add         x8,x8,#0x10
	and         x8,x8,#0xF
	cmp         x8,#0
	bne         |$LN104@prepend_al|
	mov         x8,#0
	str         x8,[sp,#0x110]
	b           |$LN105@prepend_al|
|$LN104@prepend_al|
	ldr         x8,[sp,#0xC8]
	add         x8,x8,#0x10
	and         x9,x8,#0xF
	mov         x8,#0x10
	sub         x8,x8,x9
	and         x8,x8,#0xF
	str         x8,[sp,#0x110]
|$LN105@prepend_al|
	ldr         x9,[sp,#0xC8]
	ldr         x8,[sp,#0x110]
	add         x8,x9,x8
	str         x8,[sp,#0x28]

; 4023 :     size_t psize = (char*)oldfirst - (char*)p;

	ldr         x9,[sp,#0x28]
	ldr         x8,[sp,#0x80]
	sub         x8,x9,x8
	str         x8,[sp,#0x138]

; 4024 :     mchunkptr q = chunk_plus_offset(p, nb);

	ldr         x9,[sp,#0x80]
	ldr         x8,[sp,#0xD0]
	add         x8,x9,x8
	str         x8,[sp,#0x38]

; 4025 :     size_t qsize = psize - nb;

	ldr         x9,[sp,#0x138]
	ldr         x8,[sp,#0xD0]
	sub         x8,x9,x8
	str         x8,[sp,#0x30]

; 4026 :     set_size_and_pinuse_of_inuse_chunk(m, p, nb);

	ldr         x8,[sp,#0xD0]
	orr         x8,x8,#1
	orr         x9,x8,#2
	ldr         x8,[sp,#0x80]
	add         x8,x8,#8
	str         x9,[x8]

; 4027 : 
; 4028 :     assert((char*)oldfirst > (char*)q);
; 4029 :     assert(pinuse(oldfirst));
; 4030 :     assert(qsize >= MIN_CHUNK_SIZE);
; 4031 : 
; 4032 :     /* consolidate remainder with first chunk of old base */
; 4033 :     if (oldfirst == m->top) {

	ldr         x8,[sp]
	add         x8,x8,#0x28
	ldr         x9,[x8]
	ldr         x8,[sp,#0x28]
	cmp         x8,x9
	bne         |$LN40@prepend_al|

; 4034 :         size_t tsize = m->topsize += qsize;

	ldr         x8,[sp]
	add         x8,x8,#0x10
	ldr         x9,[x8]
	ldr         x8,[sp,#0x30]
	add         x8,x9,x8
	str         x8,[sp,#0x118]
	ldr         x8,[sp]
	add         x9,x8,#0x10
	ldr         x8,[sp,#0x118]
	str         x8,[x9]
	ldr         x8,[sp,#0x118]
	str         x8,[sp,#0x140]

; 4035 :         m->top = q;

	ldr         x8,[sp]
	add         x9,x8,#0x28
	ldr         x8,[sp,#0x38]
	str         x8,[x9]

; 4036 :         q->head = tsize | PINUSE_BIT;

	ldr         x8,[sp,#0x140]
	orr         x9,x8,#1
	ldr         x8,[sp,#0x38]
	add         x8,x8,#8
	str         x9,[x8]

; 4037 :         check_top_chunk(m, q);
; 4038 :     }

	b           |$LN41@prepend_al|
|$LN40@prepend_al|

; 4039 :     else if (oldfirst == m->dv) {

	ldr         x8,[sp]
	add         x8,x8,#0x20
	ldr         x9,[x8]
	ldr         x8,[sp,#0x28]
	cmp         x8,x9
	bne         |$LN42@prepend_al|

; 4040 :         size_t dsize = m->dvsize += qsize;

	ldr         x8,[sp]
	add         x8,x8,#8
	ldr         x9,[x8]
	ldr         x8,[sp,#0x30]
	add         x8,x9,x8
	str         x8,[sp,#0x120]
	ldr         x8,[sp]
	add         x9,x8,#8
	ldr         x8,[sp,#0x120]
	str         x8,[x9]
	ldr         x8,[sp,#0x120]
	str         x8,[sp,#0xD8]

; 4041 :         m->dv = q;

	ldr         x8,[sp]
	add         x9,x8,#0x20
	ldr         x8,[sp,#0x38]
	str         x8,[x9]

; 4042 :         set_size_and_pinuse_of_free_chunk(q, dsize);

	ldr         x8,[sp,#0xD8]
	orr         x9,x8,#1
	ldr         x8,[sp,#0x38]
	add         x8,x8,#8
	str         x9,[x8]
	ldr         x9,[sp,#0x38]
	ldr         x8,[sp,#0xD8]
	add         x9,x9,x8
	ldr         x8,[sp,#0xD8]
	str         x8,[x9]

; 4043 :     }

	b           |$LN43@prepend_al|
|$LN42@prepend_al|

; 4044 :     else {
; 4045 :         if (!is_inuse(oldfirst)) {

	ldr         x8,[sp,#0x28]
	add         x8,x8,#8
	ldr         x8,[x8]
	and         x8,x8,#3
	cmp         x8,#1
	bne         |$LN44@prepend_al|

; 4046 :             size_t nsize = chunksize(oldfirst);

	ldr         x8,[sp,#0x28]
	add         x8,x8,#8
	ldr         x8,[x8]
	and         x8,x8,#-8
	str         x8,[sp,#0xA8]

; 4047 :             unlink_chunk(m, oldfirst, nsize);

	ldr         x8,[sp,#0xA8]
	lsr         x8,x8,#3
	cmp         x8,#0x20
	bhs         |$LN45@prepend_al|
	ldr         x8,[sp,#0x28]
	add         x8,x8,#0x10
	ldr         x8,[x8]
	str         x8,[sp,#0x60]
	ldr         x8,[sp,#0x28]
	add         x8,x8,#0x18
	ldr         x8,[x8]
	str         x8,[sp,#0x58]
	ldr         x8,[sp,#0xA8]
	lsr         x8,x8,#3
	mov         w8,w8
	str         w8,[sp,#0x48]
	ldr         x8,[sp]
	add         x10,x8,#0x48
	ldr         w8,[sp,#0x48]
	lsl         w8,w8,#1
	uxtw        x9,w8
	mov         x8,#8
	mul         x8,x9,x8
	add         x9,x10,x8
	ldr         x8,[sp,#0x60]
	cmp         x8,x9
	beq         |$LN49@prepend_al|
	ldr         x8,[sp]
	add         x8,x8,#0x18
	ldr         x9,[x8]
	ldr         x8,[sp,#0x60]
	cmp         x8,x9
	blo         |$LN47@prepend_al|
	ldr         x8,[sp,#0x60]
	add         x8,x8,#0x18
	ldr         x9,[sp,#0x28]
	ldr         x8,[x8]
	cmp         x8,x9
	bne         |$LN47@prepend_al|
|$LN49@prepend_al|
	ldr         x9,[sp,#0x60]
	ldr         x8,[sp,#0x58]
	cmp         x8,x9
	bne         |$LN50@prepend_al|
	ldr         x10,[sp]
	mov         w9,#1
	ldr         w8,[sp,#0x48]
	lsl         w8,w9,w8
	mvn         w9,w8
	ldr         w8,[x10]
	and         w9,w8,w9
	ldr         x8,[sp]
	str         w9,[x8]
	b           |$LN51@prepend_al|
|$LN50@prepend_al|
	ldr         x8,[sp]
	add         x10,x8,#0x48
	ldr         w8,[sp,#0x48]
	lsl         w8,w8,#1
	uxtw        x9,w8
	mov         x8,#8
	mul         x8,x9,x8
	add         x9,x10,x8
	ldr         x8,[sp,#0x58]
	cmp         x8,x9
	beq         |$LN54@prepend_al|
	ldr         x8,[sp]
	add         x8,x8,#0x18
	ldr         x9,[x8]
	ldr         x8,[sp,#0x58]
	cmp         x8,x9
	blo         |$LN52@prepend_al|
	ldr         x8,[sp,#0x58]
	add         x8,x8,#0x10
	ldr         x9,[sp,#0x28]
	ldr         x8,[x8]
	cmp         x8,x9
	bne         |$LN52@prepend_al|
|$LN54@prepend_al|
	ldr         x8,[sp,#0x60]
	add         x9,x8,#0x18
	ldr         x8,[sp,#0x58]
	str         x8,[x9]
	ldr         x8,[sp,#0x58]
	add         x9,x8,#0x10
	ldr         x8,[sp,#0x60]
	str         x8,[x9]
	b           |$LN53@prepend_al|
|$LN52@prepend_al|
|$LN2@prepend_al|
	b           |$LN2@prepend_al|
|$LN53@prepend_al|
|$LN51@prepend_al|
	b           |$LN48@prepend_al|
|$LN47@prepend_al|
|$LN5@prepend_al|
	b           |$LN5@prepend_al|
|$LN48@prepend_al|
	b           |$LN46@prepend_al|
|$LN45@prepend_al|
	ldr         x8,[sp,#0x28]
	str         x8,[sp,#0x20]
	ldr         x8,[sp,#0x20]
	add         x8,x8,#0x30
	ldr         x8,[x8]
	str         x8,[sp,#0x68]
	ldr         x8,[sp,#0x20]
	add         x8,x8,#0x18
	ldr         x9,[sp,#0x20]
	ldr         x8,[x8]
	cmp         x8,x9
	beq         |$LN55@prepend_al|
	ldr         x8,[sp,#0x20]
	add         x8,x8,#0x10
	ldr         x8,[x8]
	str         x8,[sp,#0x88]
	ldr         x8,[sp,#0x20]
	add         x8,x8,#0x18
	ldr         x8,[x8]
	str         x8,[sp,#8]
	ldr         x8,[sp]
	add         x8,x8,#0x18
	ldr         x9,[x8]
	ldr         x8,[sp,#0x88]
	cmp         x8,x9
	blo         |$LN57@prepend_al|
	ldr         x8,[sp,#0x88]
	add         x8,x8,#0x18
	ldr         x9,[sp,#0x20]
	ldr         x8,[x8]
	cmp         x8,x9
	bne         |$LN57@prepend_al|
	ldr         x8,[sp,#8]
	add         x8,x8,#0x10
	ldr         x9,[sp,#0x20]
	ldr         x8,[x8]
	cmp         x8,x9
	bne         |$LN57@prepend_al|
	ldr         x8,[sp,#0x88]
	add         x9,x8,#0x18
	ldr         x8,[sp,#8]
	str         x8,[x9]
	ldr         x8,[sp,#8]
	add         x9,x8,#0x10
	ldr         x8,[sp,#0x88]
	str         x8,[x9]
	b           |$LN58@prepend_al|
|$LN57@prepend_al|
|$LN8@prepend_al|
	b           |$LN8@prepend_al|
|$LN58@prepend_al|
	b           |$LN56@prepend_al|
|$LN55@prepend_al|
	ldr         x8,[sp,#0x20]
	add         x8,x8,#0x28
	str         x8,[sp,#0x50]
	ldr         x8,[sp,#0x50]
	ldr         x8,[x8]
	str         x8,[sp,#8]
	ldr         x8,[sp,#8]
	cmp         x8,#0
	bne         |$LN60@prepend_al|
	ldr         x8,[sp,#0x20]
	add         x8,x8,#0x20
	str         x8,[sp,#0x50]
	ldr         x8,[sp,#0x50]
	ldr         x8,[x8]
	str         x8,[sp,#8]
	ldr         x8,[sp,#8]
	cmp         x8,#0
	beq         |$LN59@prepend_al|
|$LN60@prepend_al|
|$LN11@prepend_al|
	ldr         x8,[sp,#8]
	add         x8,x8,#0x28
	str         x8,[sp,#0x90]
	ldr         x8,[sp,#0x90]
	ldr         x8,[x8]
	cmp         x8,#0
	bne         |$LN61@prepend_al|
	ldr         x8,[sp,#8]
	add         x8,x8,#0x20
	str         x8,[sp,#0x90]
	ldr         x8,[sp,#0x90]
	ldr         x8,[x8]
	cmp         x8,#0
	beq         |$LN12@prepend_al|
|$LN61@prepend_al|
	ldr         x8,[sp,#0x90]
	str         x8,[sp,#0x50]
	ldr         x8,[sp,#0x50]
	ldr         x8,[x8]
	str         x8,[sp,#8]
	b           |$LN11@prepend_al|
|$LN12@prepend_al|
	ldr         x8,[sp]
	add         x8,x8,#0x18
	ldr         x9,[x8]
	ldr         x8,[sp,#0x50]
	cmp         x8,x9
	blo         |$LN62@prepend_al|
	ldr         x9,[sp,#0x50]
	mov         x8,#0
	str         x8,[x9]
	b           |$LN63@prepend_al|
|$LN62@prepend_al|
|$LN13@prepend_al|
	b           |$LN13@prepend_al|
|$LN63@prepend_al|
|$LN59@prepend_al|
|$LN56@prepend_al|
	ldr         x8,[sp,#0x68]
	cmp         x8,#0
	beq         |$LN64@prepend_al|
	ldr         x8,[sp]
	add         x10,x8,#0x258
	ldr         x8,[sp,#0x20]
	add         x8,x8,#0x38
	ldr         w8,[x8]
	uxtw        x9,w8
	mov         x8,#8
	mul         x8,x9,x8
	add         x8,x10,x8
	str         x8,[sp,#0x128]
	ldr         x8,[sp,#0x128]
	ldr         x9,[x8]
	ldr         x8,[sp,#0x20]
	cmp         x8,x9
	bne         |$LN65@prepend_al|
	ldr         x9,[sp,#0x128]
	ldr         x8,[sp,#8]
	str         x8,[x9]
	ldr         x8,[sp,#8]
	cmp         x8,#0
	bne         |$LN67@prepend_al|
	ldr         x8,[sp]
	add         x10,x8,#4
	ldr         x8,[sp,#0x20]
	add         x8,x8,#0x38
	mov         w9,#1
	ldr         w8,[x8]
	lsl         w8,w9,w8
	mvn         w9,w8
	ldr         w8,[x10]
	and         w9,w8,w9
	ldr         x8,[sp]
	add         x8,x8,#4
	str         w9,[x8]
|$LN67@prepend_al|
	b           |$LN66@prepend_al|
|$LN65@prepend_al|
	ldr         x8,[sp]
	add         x8,x8,#0x18
	ldr         x9,[x8]
	ldr         x8,[sp,#0x68]
	cmp         x8,x9
	blo         |$LN68@prepend_al|
	ldr         x8,[sp,#0x68]
	add         x8,x8,#0x20
	ldr         x9,[sp,#0x20]
	ldr         x8,[x8]
	cmp         x8,x9
	bne         |$LN70@prepend_al|
	ldr         x8,[sp,#0x68]
	add         x9,x8,#0x20
	ldr         x8,[sp,#8]
	str         x8,[x9]
	b           |$LN71@prepend_al|
|$LN70@prepend_al|
	ldr         x8,[sp,#0x68]
	add         x9,x8,#0x28
	ldr         x8,[sp,#8]
	str         x8,[x9]
|$LN71@prepend_al|
	b           |$LN69@prepend_al|
|$LN68@prepend_al|
|$LN16@prepend_al|
	b           |$LN16@prepend_al|
|$LN69@prepend_al|
|$LN66@prepend_al|
	ldr         x8,[sp,#8]
	cmp         x8,#0
	beq         |$LN72@prepend_al|
	ldr         x8,[sp]
	add         x8,x8,#0x18
	ldr         x9,[x8]
	ldr         x8,[sp,#8]
	cmp         x8,x9
	blo         |$LN73@prepend_al|
	ldr         x8,[sp,#8]
	add         x9,x8,#0x30
	ldr         x8,[sp,#0x68]
	str         x8,[x9]
	ldr         x8,[sp,#0x20]
	add         x8,x8,#0x20
	ldr         x8,[x8]
	str         x8,[sp,#0x98]
	ldr         x8,[sp,#0x98]
	cmp         x8,#0
	beq         |$LN75@prepend_al|
	ldr         x8,[sp]
	add         x8,x8,#0x18
	ldr         x9,[x8]
	ldr         x8,[sp,#0x98]
	cmp         x8,x9
	blo         |$LN76@prepend_al|
	ldr         x8,[sp,#8]
	add         x9,x8,#0x20
	ldr         x8,[sp,#0x98]
	str         x8,[x9]
	ldr         x8,[sp,#0x98]
	add         x9,x8,#0x30
	ldr         x8,[sp,#8]
	str         x8,[x9]
	b           |$LN77@prepend_al|
|$LN76@prepend_al|
|$LN19@prepend_al|
	b           |$LN19@prepend_al|
|$LN77@prepend_al|
|$LN75@prepend_al|
	ldr         x8,[sp,#0x20]
	add         x8,x8,#0x28
	ldr         x8,[x8]
	str         x8,[sp,#0xA0]
	ldr         x8,[sp,#0xA0]
	cmp         x8,#0
	beq         |$LN78@prepend_al|
	ldr         x8,[sp]
	add         x8,x8,#0x18
	ldr         x9,[x8]
	ldr         x8,[sp,#0xA0]
	cmp         x8,x9
	blo         |$LN79@prepend_al|
	ldr         x8,[sp,#8]
	add         x9,x8,#0x28
	ldr         x8,[sp,#0xA0]
	str         x8,[x9]
	ldr         x8,[sp,#0xA0]
	add         x9,x8,#0x30
	ldr         x8,[sp,#8]
	str         x8,[x9]
	b           |$LN80@prepend_al|
|$LN79@prepend_al|
|$LN22@prepend_al|
	b           |$LN22@prepend_al|
|$LN80@prepend_al|
|$LN78@prepend_al|
	b           |$LN74@prepend_al|
|$LN73@prepend_al|
|$LN25@prepend_al|
	b           |$LN25@prepend_al|
|$LN74@prepend_al|
|$LN72@prepend_al|
|$LN64@prepend_al|
|$LN46@prepend_al|

; 4048 :             oldfirst = chunk_plus_offset(oldfirst, nsize);

	ldr         x9,[sp,#0x28]
	ldr         x8,[sp,#0xA8]
	add         x8,x9,x8
	str         x8,[sp,#0x28]

; 4049 :             qsize += nsize;

	ldr         x9,[sp,#0x30]
	ldr         x8,[sp,#0xA8]
	add         x8,x9,x8
	str         x8,[sp,#0x30]
|$LN44@prepend_al|

; 4050 :         }
; 4051 :         set_free_with_pinuse(q, qsize, oldfirst);

	ldr         x8,[sp,#0x28]
	add         x8,x8,#8
	ldr         x8,[x8]
	and         x9,x8,#-2
	ldr         x8,[sp,#0x28]
	add         x8,x8,#8
	str         x9,[x8]
	ldr         x8,[sp,#0x30]
	orr         x9,x8,#1
	ldr         x8,[sp,#0x38]
	add         x8,x8,#8
	str         x9,[x8]
	ldr         x9,[sp,#0x38]
	ldr         x8,[sp,#0x30]
	add         x9,x9,x8
	ldr         x8,[sp,#0x30]
	str         x8,[x9]

; 4052 :         insert_chunk(m, q, qsize);

	ldr         x8,[sp,#0x30]
	lsr         x8,x8,#3
	cmp         x8,#0x20
	bhs         |$LN81@prepend_al|
	ldr         x8,[sp,#0x30]
	lsr         x8,x8,#3
	mov         w8,w8
	str         w8,[sp,#0x4C]
	ldr         x8,[sp]
	add         x10,x8,#0x48
	ldr         w8,[sp,#0x4C]
	lsl         w8,w8,#1
	uxtw        x9,w8
	mov         x8,#8
	mul         x8,x9,x8
	add         x8,x10,x8
	str         x8,[sp,#0x78]
	ldr         x8,[sp,#0x78]
	str         x8,[sp,#0xE0]
	ldr         x10,[sp]
	mov         w9,#1
	ldr         w8,[sp,#0x4C]
	lsl         w9,w9,w8
	ldr         w8,[x10]
	and         w8,w8,w9
	cmp         w8,#0
	bne         |$LN83@prepend_al|
	ldr         x10,[sp]
	mov         w9,#1
	ldr         w8,[sp,#0x4C]
	lsl         w9,w9,w8
	ldr         w8,[x10]
	orr         w9,w8,w9
	ldr         x8,[sp]
	str         w9,[x8]
	b           |$LN84@prepend_al|
|$LN83@prepend_al|
	ldr         x8,[sp,#0x78]
	add         x10,x8,#0x10
	ldr         x8,[sp]
	add         x8,x8,#0x18
	ldr         x9,[x8]
	ldr         x8,[x10]
	cmp         x8,x9
	blo         |$LN85@prepend_al|
	ldr         x8,[sp,#0x78]
	add         x8,x8,#0x10
	ldr         x8,[x8]
	str         x8,[sp,#0xE0]
	b           |$LN86@prepend_al|
|$LN85@prepend_al|
|$LN28@prepend_al|
	b           |$LN28@prepend_al|
|$LN86@prepend_al|
|$LN84@prepend_al|
	ldr         x8,[sp,#0x78]
	add         x9,x8,#0x10
	ldr         x8,[sp,#0x38]
	str         x8,[x9]
	ldr         x8,[sp,#0xE0]
	add         x9,x8,#0x18
	ldr         x8,[sp,#0x38]
	str         x8,[x9]
	ldr         x8,[sp,#0x38]
	add         x9,x8,#0x10
	ldr         x8,[sp,#0xE0]
	str         x8,[x9]
	ldr         x8,[sp,#0x38]
	add         x9,x8,#0x18
	ldr         x8,[sp,#0x78]
	str         x8,[x9]
	b           |$LN82@prepend_al|
|$LN81@prepend_al|
	ldr         x8,[sp,#0x38]
	str         x8,[sp,#0x10]
	ldr         x8,[sp,#0x30]
	lsr         x8,x8,#8
	str         x8,[sp,#0xE8]
	ldr         x8,[sp,#0xE8]
	cmp         x8,#0
	bne         |$LN87@prepend_al|
	mov         w8,#0
	str         w8,[sp,#0x18]
	b           |$LN88@prepend_al|
|$LN87@prepend_al|
	mov         x9,#0xFFFF
	ldr         x8,[sp,#0xE8]
	cmp         x8,x9
	bls         |$LN89@prepend_al|
	mov         w8,#0x1F
	str         w8,[sp,#0x18]
	b           |$LN90@prepend_al|
|$LN89@prepend_al|
	ldr         x8,[sp,#0xE8]
	mov         w8,w8
	clz         w8,w8
	str         w8,[sp,#0xB8]
	mov         w9,#0x1F
	ldr         w8,[sp,#0xB8]
	sub         w9,w9,w8
	add         x8,sp,#0x70
	str         w9,[x8]
	ldr         w8,[sp,#0x70]
	lsl         w8,w8,#1
	uxtw        x10,w8
	ldr         w8,[sp,#0x70]
	add         w8,w8,#7
	uxtw        x9,w8
	ldr         x8,[sp,#0x30]
	lsr         x8,x8,x9
	and         x8,x8,#1
	add         x8,x10,x8
	mov         w8,w8
	str         w8,[sp,#0x18]
|$LN90@prepend_al|
|$LN88@prepend_al|
	ldr         x8,[sp]
	add         x10,x8,#0x258
	ldr         w8,[sp,#0x18]
	uxtw        x9,w8
	mov         x8,#8
	mul         x8,x9,x8
	add         x8,x10,x8
	str         x8,[sp,#0xF0]
	ldr         x8,[sp,#0x10]
	add         x9,x8,#0x38
	ldr         w8,[sp,#0x18]
	str         w8,[x9]
	ldr         x8,[sp,#0x10]
	add         x9,x8,#0x28
	mov         x8,#0
	str         x8,[x9]
	ldr         x8,[sp,#0x10]
	add         x9,x8,#0x20
	mov         x8,#0
	str         x8,[x9]
	ldr         x8,[sp]
	add         x10,x8,#4
	mov         w9,#1
	ldr         w8,[sp,#0x18]
	lsl         w9,w9,w8
	ldr         w8,[x10]
	and         w8,w8,w9
	cmp         w8,#0
	bne         |$LN91@prepend_al|
	ldr         x8,[sp]
	add         x10,x8,#4
	mov         w9,#1
	ldr         w8,[sp,#0x18]
	lsl         w9,w9,w8
	ldr         w8,[x10]
	orr         w9,w8,w9
	ldr         x8,[sp]
	add         x8,x8,#4
	str         w9,[x8]
	ldr         x9,[sp,#0xF0]
	ldr         x8,[sp,#0x10]
	str         x8,[x9]
	ldr         x8,[sp,#0x10]
	add         x9,x8,#0x30
	ldr         x8,[sp,#0xF0]
	str         x8,[x9]
	ldr         x8,[sp,#0x10]
	add         x9,x8,#0x18
	ldr         x8,[sp,#0x10]
	str         x8,[x9]
	ldr         x8,[sp,#0x10]
	add         x9,x8,#0x10
	ldr         x8,[sp,#0x10]
	str         x8,[x9]
	b           |$LN92@prepend_al|
|$LN91@prepend_al|
	ldr         x8,[sp,#0xF0]
	ldr         x8,[x8]
	str         x8,[sp,#0x40]
	ldr         w8,[sp,#0x18]
	cmp         w8,#0x1F
	bne         |$LN106@prepend_al|
	mov         x8,#0
	str         x8,[sp,#0x130]
	b           |$LN107@prepend_al|
|$LN106@prepend_al|
	ldr         w8,[sp,#0x18]
	lsr         w8,w8,#1
	add         w8,w8,#8
	sub         w8,w8,#2
	uxtw        x9,w8
	mov         x8,#0x3F
	sub         x8,x8,x9
	str         x8,[sp,#0x130]
|$LN107@prepend_al|
	ldr         x9,[sp,#0x30]
	ldr         x8,[sp,#0x130]
	lsl         x8,x9,x8
	str         x8,[sp,#0xF8]
|$LN31@prepend_al|
	ldr         x8,[sp,#0x40]
	add         x8,x8,#8
	ldr         x8,[x8]
	and         x9,x8,#-8
	ldr         x8,[sp,#0x30]
	cmp         x9,x8
	beq         |$LN93@prepend_al|
	ldr         x8,[sp,#0x40]
	add         x10,x8,#0x20
	ldr         x8,[sp,#0xF8]
	lsr         x9,x8,#0x3F
	mov         x8,#8
	mul         x8,x9,x8
	add         x8,x10,x8
	str         x8,[sp,#0xB0]
	ldr         x8,[sp,#0xF8]
	lsl         x8,x8,#1
	str         x8,[sp,#0xF8]
	ldr         x8,[sp,#0xB0]
	ldr         x8,[x8]
	cmp         x8,#0
	beq         |$LN95@prepend_al|
	ldr         x8,[sp,#0xB0]
	ldr         x8,[x8]
	str         x8,[sp,#0x40]
	b           |$LN96@prepend_al|
|$LN95@prepend_al|
	ldr         x8,[sp]
	add         x8,x8,#0x18
	ldr         x9,[x8]
	ldr         x8,[sp,#0xB0]
	cmp         x8,x9
	blo         |$LN97@prepend_al|
	ldr         x9,[sp,#0xB0]
	ldr         x8,[sp,#0x10]
	str         x8,[x9]
	ldr         x8,[sp,#0x10]
	add         x9,x8,#0x30
	ldr         x8,[sp,#0x40]
	str         x8,[x9]
	ldr         x8,[sp,#0x10]
	add         x9,x8,#0x18
	ldr         x8,[sp,#0x10]
	str         x8,[x9]
	ldr         x8,[sp,#0x10]
	add         x9,x8,#0x10
	ldr         x8,[sp,#0x10]
	str         x8,[x9]
	b           |$LN32@prepend_al|
	b           |$LN98@prepend_al|
|$LN97@prepend_al|
|$LN34@prepend_al|
	b           |$LN34@prepend_al|
	b           |$LN32@prepend_al|
|$LN98@prepend_al|
|$LN96@prepend_al|
	b           |$LN94@prepend_al|
|$LN93@prepend_al|
	ldr         x8,[sp,#0x40]
	add         x8,x8,#0x10
	ldr         x8,[x8]
	str         x8,[sp,#0x100]
	ldr         x8,[sp]
	add         x8,x8,#0x18
	ldr         x9,[x8]
	ldr         x8,[sp,#0x40]
	cmp         x8,x9
	blo         |$LN99@prepend_al|
	ldr         x8,[sp]
	add         x8,x8,#0x18
	ldr         x9,[x8]
	ldr         x8,[sp,#0x100]
	cmp         x8,x9
	blo         |$LN99@prepend_al|
	ldr         x8,[sp,#0x100]
	add         x9,x8,#0x18
	ldr         x8,[sp,#0x10]
	str         x8,[x9]
	ldr         x8,[sp,#0x40]
	add         x9,x8,#0x10
	ldr         x8,[sp,#0x10]
	str         x8,[x9]
	ldr         x8,[sp,#0x10]
	add         x9,x8,#0x10
	ldr         x8,[sp,#0x100]
	str         x8,[x9]
	ldr         x8,[sp,#0x10]
	add         x9,x8,#0x18
	ldr         x8,[sp,#0x40]
	str         x8,[x9]
	ldr         x8,[sp,#0x10]
	add         x9,x8,#0x30
	mov         x8,#0
	str         x8,[x9]
	b           |$LN32@prepend_al|
	b           |$LN100@prepend_al|
|$LN99@prepend_al|
|$LN37@prepend_al|
	b           |$LN37@prepend_al|
	b           |$LN32@prepend_al|
|$LN100@prepend_al|
|$LN94@prepend_al|
	b           |$LN31@prepend_al|
|$LN32@prepend_al|
|$LN92@prepend_al|
|$LN82@prepend_al|
|$LN43@prepend_al|
|$LN41@prepend_al|

; 4053 :         check_free_chunk(m, q);
; 4054 :     }
; 4055 : 
; 4056 :     check_malloced_chunk(m, chunk2mem(p), nb);
; 4057 :     return chunk2mem(p);

	ldr         x8,[sp,#0x80]
	add         x0,x8,#0x10
	add         sp,sp,#0x150
	ret

	ENDP  ; |prepend_alloc|

; Function compile flags: /Odtpy
; File C:\Users\paras\source\repos\grep-name\XenevaOS\KernelAA64\Mm\dlmalloc.c

	AREA	|.text$mn|, CODE, ARM64

|init_bins| PROC

; 3990 : static void init_bins(mstate m) {

	sub         sp,sp,#0x20
	str         x0,[sp,#0x10]

; 3991 :     /* Establish circular links for smallbins */
; 3992 :     bindex_t i;
; 3993 :     for (i = 0; i < NSMALLBINS; ++i) {

	mov         w8,#0
	str         w8,[sp]
	b           |$LN4@init_bins|
|$LN2@init_bins|
	ldr         w8,[sp]
	add         w8,w8,#1
	str         w8,[sp]
|$LN4@init_bins|
	ldr         w8,[sp]
	cmp         w8,#0x20
	bhs         |$LN3@init_bins|

; 3994 :         sbinptr bin = smallbin_at(m, i);

	ldr         x8,[sp,#0x10]
	add         x10,x8,#0x48
	ldr         w8,[sp]
	lsl         w8,w8,#1
	uxtw        x9,w8
	mov         x8,#8
	mul         x8,x9,x8
	add         x8,x10,x8
	str         x8,[sp,#8]

; 3995 :         bin->fd = bin->bk = bin;

	ldr         x8,[sp,#8]
	add         x9,x8,#0x18
	ldr         x8,[sp,#8]
	str         x8,[x9]
	ldr         x8,[sp,#8]
	add         x9,x8,#0x10
	ldr         x8,[sp,#8]
	str         x8,[x9]

; 3996 :     }

	b           |$LN2@init_bins|
|$LN3@init_bins|
	add         sp,sp,#0x20
	ret

	ENDP  ; |init_bins|

; Function compile flags: /Odtpy
; File C:\Users\paras\source\repos\grep-name\XenevaOS\KernelAA64\Mm\dlmalloc.c

	AREA	|.text$mn|, CODE, ARM64

|init_top| PROC

; 3975 : static void init_top(mstate m, mchunkptr p, size_t psize) {

	sub         sp,sp,#0x30
	str         x0,[sp,#0x10]
	str         x1,[sp]
	str         x2,[sp,#8]

; 3976 :     /* Ensure alignment */
; 3977 :     size_t offset = align_offset(chunk2mem(p));

	ldr         x8,[sp]
	add         x8,x8,#0x10
	and         x8,x8,#0xF
	cmp         x8,#0
	bne         |$LN3@init_top|
	mov         x8,#0
	str         x8,[sp,#0x18]
	b           |$LN4@init_top|
|$LN3@init_top|
	ldr         x8,[sp]
	add         x8,x8,#0x10
	and         x9,x8,#0xF
	mov         x8,#0x10
	sub         x8,x8,x9
	and         x8,x8,#0xF
	str         x8,[sp,#0x18]
|$LN4@init_top|
	ldr         x8,[sp,#0x18]
	str         x8,[sp,#0x20]

; 3978 :     p = (mchunkptr)((char*)p + offset);

	ldr         x9,[sp]
	ldr         x8,[sp,#0x20]
	add         x8,x9,x8
	str         x8,[sp]

; 3979 :     psize -= offset;

	ldr         x9,[sp,#8]
	ldr         x8,[sp,#0x20]
	sub         x8,x9,x8
	str         x8,[sp,#8]

; 3980 : 
; 3981 :     m->top = p;

	ldr         x8,[sp,#0x10]
	add         x9,x8,#0x28
	ldr         x8,[sp]
	str         x8,[x9]

; 3982 :     m->topsize = psize;

	ldr         x8,[sp,#0x10]
	add         x9,x8,#0x10
	ldr         x8,[sp,#8]
	str         x8,[x9]

; 3983 :     p->head = psize | PINUSE_BIT;

	ldr         x8,[sp,#8]
	orr         x9,x8,#1
	ldr         x8,[sp]
	add         x8,x8,#8
	str         x9,[x8]

; 3984 :     /* set size of fake trailing chunk holding overhead space only once */
; 3985 :     chunk_plus_offset(p, psize)->head = TOP_FOOT_SIZE;

	mov         x8,#0xF
	tbnz        x8,#4,|$LN5@init_top|
	mov         x8,#0
	str         x8,[sp,#0x28]
	b           |$LN6@init_top|
|$LN5@init_top|
	mov         x8,#0xF
	and         x9,x8,#0x10
	mov         x8,#0x10
	sub         x8,x8,x9
	and         x8,x8,#0xF
	str         x8,[sp,#0x28]
|$LN6@init_top|
	ldr         x8,[sp,#0x28]
	add         x10,x8,#0x50
	ldr         x9,[sp]
	ldr         x8,[sp,#8]
	add         x8,x9,x8
	add         x8,x8,#8
	str         x10,[x8]

; 3986 :     m->trim_check = mparams.trim_threshold; /* reset on each update */

	ldr         x8,[sp,#0x10]
	add         x9,x8,#0x30
	adrp        x8,mparams+#0x20
	ldr         x8,[x8,PageOffset(mparams)+#0x20]
	str         x8,[x9]
	add         sp,sp,#0x30
	ret

	ENDP  ; |init_top|

; Function compile flags: /Odtpy
; File C:\Users\paras\source\repos\grep-name\XenevaOS\KernelAA64\Mm\dlmalloc.c

	AREA	|.text$mn|, CODE, ARM64

|mmap_resize| PROC

; 3937 : static mchunkptr mmap_resize(mstate m, mchunkptr oldp, size_t nb, int flags) {

	sub         sp,sp,#0x60
	str         x0,[sp]
	str         x1,[sp,#0x20]
	str         x2,[sp,#8]
	str         w3,[sp,#0x50]

; 3938 :     size_t oldsize = chunksize(oldp);

	ldr         x8,[sp,#0x20]
	add         x8,x8,#8
	ldr         x8,[x8]
	and         x8,x8,#-8
	str         x8,[sp,#0x28]

; 3939 :     (void)flags; /* placate people compiling -Wunused */
; 3940 :     if (is_small(nb)) /* Can't shrink mmap regions below small size */

	ldr         x8,[sp,#8]
	lsr         x8,x8,#3
	cmp         x8,#0x20
	bhs         |$LN2@mmap_resiz|

; 3941 :         return 0;

	mov         x0,#0
	b           |$LN1@mmap_resiz|
|$LN2@mmap_resiz|

; 3942 :     /* Keep old chunk if big enough but not too big */
; 3943 :     if (oldsize >= nb + SIZE_T_SIZE &&

	ldr         x8,[sp,#8]
	add         x9,x8,#8
	ldr         x8,[sp,#0x28]
	cmp         x8,x9
	blo         |$LN3@mmap_resiz|
	ldr         x9,[sp,#0x28]
	ldr         x8,[sp,#8]
	sub         x9,x9,x8
	adrp        x8,mparams+#0x10
	ldr         x8,[x8,PageOffset(mparams)+#0x10]
	lsl         x8,x8,#1
	cmp         x9,x8
	bhi         |$LN3@mmap_resiz|

; 3944 :         (oldsize - nb) <= (mparams.granularity << 1))
; 3945 :         return oldp;

	ldr         x0,[sp,#0x20]
	b           |$LN1@mmap_resiz|
	b           |$LN4@mmap_resiz|
|$LN3@mmap_resiz|

; 3946 :     else {
; 3947 :         size_t offset = oldp->prev_foot;

	ldr         x8,[sp,#0x20]
	ldr         x8,[x8]
	str         x8,[sp,#0x30]

; 3948 :         size_t oldmmsize = oldsize + offset + MMAP_FOOT_PAD;

	ldr         x9,[sp,#0x28]
	ldr         x8,[sp,#0x30]
	add         x8,x9,x8
	add         x8,x8,#0x20
	str         x8,[sp,#0x58]

; 3949 :         size_t newmmsize = mmap_align(nb + SIX_SIZE_T_SIZES + CHUNK_ALIGN_MASK);

	ldr         x8,[sp,#8]
	add         x9,x8,#0x3F
	adrp        x8,mparams+#8
	ldr         x8,[x8,PageOffset(mparams)+#8]
	sub         x8,x8,#1
	add         x9,x9,x8
	adrp        x8,mparams+#8
	ldr         x8,[x8,PageOffset(mparams)+#8]
	sub         x8,x8,#1
	mvn         x8,x8
	and         x8,x9,x8
	str         x8,[sp,#0x40]

; 3950 :         char* cp = (char*)CALL_MREMAP((char*)oldp - offset,

	mov         x8,#-1
	str         x8,[sp,#0x10]

; 3951 :             oldmmsize, newmmsize, flags);
; 3952 :         if (cp != CMFAIL) {

	ldr         x8,[sp,#0x10]
	cmn         x8,#1
	beq         |$LN5@mmap_resiz|

; 3953 :             mchunkptr newp = (mchunkptr)(cp + offset);

	ldr         x9,[sp,#0x10]
	ldr         x8,[sp,#0x30]
	add         x8,x9,x8
	str         x8,[sp,#0x18]

; 3954 :             size_t psize = newmmsize - offset - MMAP_FOOT_PAD;

	ldr         x9,[sp,#0x40]
	ldr         x8,[sp,#0x30]
	sub         x8,x9,x8
	sub         x8,x8,#0x20
	str         x8,[sp,#0x38]

; 3955 :             newp->head = psize;

	ldr         x8,[sp,#0x18]
	add         x9,x8,#8
	ldr         x8,[sp,#0x38]
	str         x8,[x9]

; 3956 :             mark_inuse_foot(m, newp, psize);
; 3957 :             chunk_plus_offset(newp, psize)->head = FENCEPOST_HEAD;

	ldr         x9,[sp,#0x18]
	ldr         x8,[sp,#0x38]
	add         x8,x9,x8
	add         x9,x8,#8
	mov         x8,#0xB
	str         x8,[x9]

; 3958 :             chunk_plus_offset(newp, psize + SIZE_T_SIZE)->head = 0;

	ldr         x8,[sp,#0x38]
	add         x9,x8,#8
	ldr         x8,[sp,#0x18]
	add         x8,x8,x9
	add         x9,x8,#8
	mov         x8,#0
	str         x8,[x9]

; 3959 : 
; 3960 :             if (cp < m->least_addr)

	ldr         x8,[sp]
	add         x8,x8,#0x18
	ldr         x9,[x8]
	ldr         x8,[sp,#0x10]
	cmp         x8,x9
	bhs         |$LN6@mmap_resiz|

; 3961 :                 m->least_addr = cp;

	ldr         x8,[sp]
	add         x9,x8,#0x18
	ldr         x8,[sp,#0x10]
	str         x8,[x9]
|$LN6@mmap_resiz|

; 3962 :             if ((m->footprint += newmmsize - oldmmsize) > m->max_footprint)

	ldr         x8,[sp]
	add         x10,x8,#0x358
	ldr         x9,[sp,#0x40]
	ldr         x8,[sp,#0x58]
	sub         x9,x9,x8
	ldr         x8,[x10]
	add         x8,x8,x9
	str         x8,[sp,#0x48]
	ldr         x8,[sp]
	add         x9,x8,#0x358
	ldr         x8,[sp,#0x48]
	str         x8,[x9]
	ldr         x8,[sp]
	add         x8,x8,#0x360
	ldr         x9,[x8]
	ldr         x8,[sp,#0x48]
	cmp         x8,x9
	bls         |$LN7@mmap_resiz|

; 3963 :                 m->max_footprint = m->footprint;

	ldr         x8,[sp]
	add         x10,x8,#0x358
	ldr         x8,[sp]
	add         x9,x8,#0x360
	ldr         x8,[x10]
	str         x8,[x9]
|$LN7@mmap_resiz|

; 3964 :             check_mmapped_chunk(m, newp);
; 3965 :             return newp;

	ldr         x0,[sp,#0x18]
	b           |$LN1@mmap_resiz|
|$LN5@mmap_resiz|
|$LN4@mmap_resiz|

; 3966 :         }
; 3967 :     }
; 3968 :     return 0;

	mov         x0,#0
|$LN1@mmap_resiz|
	add         sp,sp,#0x60
	ret

	ENDP  ; |mmap_resize|

; Function compile flags: /Odtpy
; File C:\Users\paras\source\repos\grep-name\XenevaOS\KernelAA64\Mm\dlmalloc.c

	AREA	|.text$mn|, CODE, ARM64

|mmap_alloc| PROC

; 3905 : static void* mmap_alloc(mstate m, size_t nb) {

	sub         sp,sp,#0x50
	str         x0,[sp]
	str         x1,[sp,#0x38]

; 3906 :     size_t mmsize = mmap_align(nb + SIX_SIZE_T_SIZES + CHUNK_ALIGN_MASK);

	ldr         x8,[sp,#0x38]
	add         x9,x8,#0x3F
	adrp        x8,mparams+#8
	ldr         x8,[x8,PageOffset(mparams)+#8]
	sub         x8,x8,#1
	add         x9,x9,x8
	adrp        x8,mparams+#8
	ldr         x8,[x8,PageOffset(mparams)+#8]
	sub         x8,x8,#1
	mvn         x8,x8
	and         x8,x9,x8
	str         x8,[sp,#0x18]

; 3907 :     if (m->footprint_limit != 0) {

	ldr         x8,[sp]
	add         x8,x8,#0x368
	ldr         x8,[x8]
	cmp         x8,#0
	beq         |$LN2@mmap_alloc|

; 3908 :         size_t fp = m->footprint + mmsize;

	ldr         x8,[sp]
	add         x8,x8,#0x358
	ldr         x9,[x8]
	ldr         x8,[sp,#0x18]
	add         x8,x9,x8
	str         x8,[sp,#0x30]

; 3909 :         if (fp <= m->footprint || fp > m->footprint_limit)

	ldr         x8,[sp]
	add         x8,x8,#0x358
	ldr         x9,[x8]
	ldr         x8,[sp,#0x30]
	cmp         x8,x9
	bls         |$LN4@mmap_alloc|
	ldr         x8,[sp]
	add         x8,x8,#0x368
	ldr         x9,[x8]
	ldr         x8,[sp,#0x30]
	cmp         x8,x9
	bls         |$LN3@mmap_alloc|
|$LN4@mmap_alloc|

; 3910 :             return 0;

	mov         x0,#0
	b           |$LN1@mmap_alloc|
|$LN3@mmap_alloc|
|$LN2@mmap_alloc|

; 3911 :     }
; 3912 :     if (mmsize > nb) {     /* Check for wrap around 0 */

	ldr         x9,[sp,#0x38]
	ldr         x8,[sp,#0x18]
	cmp         x8,x9
	bls         |$LN5@mmap_alloc|

; 3913 :         char* mm = (char*)(CALL_DIRECT_MMAP(mmsize));

	mov         x8,#-1
	str         x8,[sp,#8]

; 3914 :         if (mm != CMFAIL) {

	ldr         x8,[sp,#8]
	cmn         x8,#1
	beq         |$LN6@mmap_alloc|

; 3915 :             size_t offset = align_offset(chunk2mem(mm));

	ldr         x8,[sp,#8]
	add         x8,x8,#0x10
	and         x8,x8,#0xF
	cmp         x8,#0
	bne         |$LN11@mmap_alloc|
	mov         x8,#0
	str         x8,[sp,#0x40]
	b           |$LN12@mmap_alloc|
|$LN11@mmap_alloc|
	ldr         x8,[sp,#8]
	add         x8,x8,#0x10
	and         x9,x8,#0xF
	mov         x8,#0x10
	sub         x8,x8,x9
	and         x8,x8,#0xF
	str         x8,[sp,#0x40]
|$LN12@mmap_alloc|
	ldr         x8,[sp,#0x40]
	str         x8,[sp,#0x20]

; 3916 :             size_t psize = mmsize - offset - MMAP_FOOT_PAD;

	ldr         x9,[sp,#0x18]
	ldr         x8,[sp,#0x20]
	sub         x8,x9,x8
	sub         x8,x8,#0x20
	str         x8,[sp,#0x28]

; 3917 :             mchunkptr p = (mchunkptr)(mm + offset);

	ldr         x9,[sp,#8]
	ldr         x8,[sp,#0x20]
	add         x8,x9,x8
	str         x8,[sp,#0x10]

; 3918 :             p->prev_foot = offset;

	ldr         x9,[sp,#0x10]
	ldr         x8,[sp,#0x20]
	str         x8,[x9]

; 3919 :             p->head = psize;

	ldr         x8,[sp,#0x10]
	add         x9,x8,#8
	ldr         x8,[sp,#0x28]
	str         x8,[x9]

; 3920 :             mark_inuse_foot(m, p, psize);
; 3921 :             chunk_plus_offset(p, psize)->head = FENCEPOST_HEAD;

	ldr         x9,[sp,#0x10]
	ldr         x8,[sp,#0x28]
	add         x8,x9,x8
	add         x9,x8,#8
	mov         x8,#0xB
	str         x8,[x9]

; 3922 :             chunk_plus_offset(p, psize + SIZE_T_SIZE)->head = 0;

	ldr         x8,[sp,#0x28]
	add         x9,x8,#8
	ldr         x8,[sp,#0x10]
	add         x8,x8,x9
	add         x9,x8,#8
	mov         x8,#0
	str         x8,[x9]

; 3923 : 
; 3924 :             if (m->least_addr == 0 || mm < m->least_addr)

	ldr         x8,[sp]
	add         x8,x8,#0x18
	ldr         x8,[x8]
	cmp         x8,#0
	beq         |$LN8@mmap_alloc|
	ldr         x8,[sp]
	add         x8,x8,#0x18
	ldr         x9,[x8]
	ldr         x8,[sp,#8]
	cmp         x8,x9
	bhs         |$LN7@mmap_alloc|
|$LN8@mmap_alloc|

; 3925 :                 m->least_addr = mm;

	ldr         x8,[sp]
	add         x9,x8,#0x18
	ldr         x8,[sp,#8]
	str         x8,[x9]
|$LN7@mmap_alloc|

; 3926 :             if ((m->footprint += mmsize) > m->max_footprint)

	ldr         x8,[sp]
	add         x8,x8,#0x358
	ldr         x9,[x8]
	ldr         x8,[sp,#0x18]
	add         x8,x9,x8
	str         x8,[sp,#0x48]
	ldr         x8,[sp]
	add         x9,x8,#0x358
	ldr         x8,[sp,#0x48]
	str         x8,[x9]
	ldr         x8,[sp]
	add         x8,x8,#0x360
	ldr         x9,[x8]
	ldr         x8,[sp,#0x48]
	cmp         x8,x9
	bls         |$LN9@mmap_alloc|

; 3927 :                 m->max_footprint = m->footprint;

	ldr         x8,[sp]
	add         x10,x8,#0x358
	ldr         x8,[sp]
	add         x9,x8,#0x360
	ldr         x8,[x10]
	str         x8,[x9]
|$LN9@mmap_alloc|

; 3928 :             assert(is_aligned(chunk2mem(p)));
; 3929 :             check_mmapped_chunk(m, p);
; 3930 :             return chunk2mem(p);

	ldr         x8,[sp,#0x10]
	add         x0,x8,#0x10
	b           |$LN1@mmap_alloc|
|$LN6@mmap_alloc|
|$LN5@mmap_alloc|

; 3931 :         }
; 3932 :     }
; 3933 :     return 0;

	mov         x0,#0
|$LN1@mmap_alloc|
	add         sp,sp,#0x50
	ret

	ENDP  ; |mmap_alloc|

; Function compile flags: /Odtpy
; File C:\Users\paras\source\repos\grep-name\XenevaOS\KernelAA64\Mm\dlmalloc.c

	AREA	|.text$mn|, CODE, ARM64

|change_mparam| PROC

; 3271 : static int change_mparam(int param_number, int value) {

	str         lr,[sp,#-0x10]!
	sub         sp,sp,#0x20
	str         w0,[sp,#8]
	str         w1,[sp,#4]

; 3272 :     size_t val;
; 3273 :     ensure_initialization();

	adrp        x8,mparams
	ldr         x8,[x8,PageOffset(mparams)]
	cmp         x8,#0
	bne         |$LN11@change_mpa|
	bl          init_mparams
|$LN11@change_mpa|

; 3274 :     val = (value == -1) ? MAX_SIZE_T : (size_t)value;

	ldr         w8,[sp,#4]
	cmn         w8,#1
	bne         |$LN12@change_mpa|
	mov         x8,#-1
	str         x8,[sp,#0x18]
	b           |$LN13@change_mpa|
|$LN12@change_mpa|
	ldr         w8,[sp,#4]
	sxtw        x8,w8
	str         x8,[sp,#0x18]
|$LN13@change_mpa|
	ldr         x8,[sp,#0x18]
	str         x8,[sp,#0x10]

; 3275 :     switch (param_number) {

	ldr         w8,[sp,#8]
	str         w8,[sp]
	ldr         w8,[sp]
	cmn         w8,#3
	beq         |$LN8@change_mpa|
	ldr         w8,[sp]
	cmn         w8,#2
	beq         |$LN5@change_mpa|
	ldr         w8,[sp]
	cmn         w8,#1
	beq         |$LN4@change_mpa|
	b           |$LN9@change_mpa|
|$LN4@change_mpa|

; 3276 :     case M_TRIM_THRESHOLD:
; 3277 :         mparams.trim_threshold = val;

	adrp        x9,mparams+#0x20
	ldr         x8,[sp,#0x10]
	str         x8,[x9,PageOffset(mparams)+#0x20]

; 3278 :         return 1;

	mov         w0,#1
	b           |$LN1@change_mpa|
|$LN5@change_mpa|

; 3279 :     case M_GRANULARITY:
; 3280 :         if (val >= mparams.page_size && ((val & (val - 1)) == 0)) {

	adrp        x8,mparams+#8
	ldr         x9,[x8,PageOffset(mparams)+#8]
	ldr         x8,[sp,#0x10]
	cmp         x8,x9
	blo         |$LN6@change_mpa|
	ldr         x8,[sp,#0x10]
	sub         x9,x8,#1
	ldr         x8,[sp,#0x10]
	and         x8,x8,x9
	cmp         x8,#0
	bne         |$LN6@change_mpa|

; 3281 :             mparams.granularity = val;

	adrp        x9,mparams+#0x10
	ldr         x8,[sp,#0x10]
	str         x8,[x9,PageOffset(mparams)+#0x10]

; 3282 :             return 1;

	mov         w0,#1
	b           |$LN1@change_mpa|

; 3283 :         }

	b           |$LN7@change_mpa|
|$LN6@change_mpa|

; 3284 :         else
; 3285 :             return 0;

	mov         w0,#0
	b           |$LN1@change_mpa|
|$LN7@change_mpa|
|$LN8@change_mpa|

; 3286 :     case M_MMAP_THRESHOLD:
; 3287 :         mparams.mmap_threshold = val;

	adrp        x9,mparams+#0x18
	ldr         x8,[sp,#0x10]
	str         x8,[x9,PageOffset(mparams)+#0x18]

; 3288 :         return 1;

	mov         w0,#1
	b           |$LN1@change_mpa|
|$LN9@change_mpa|

; 3289 :     default:
; 3290 :         return 0;

	mov         w0,#0
|$LN1@change_mpa|
	add         sp,sp,#0x20
	ldr         lr,[sp],#0x10
	ret

	ENDP  ; |change_mparam|

; Function compile flags: /Odtpy
; File C:\Users\paras\source\repos\grep-name\XenevaOS\KernelAA64\Mm\dlmalloc.c

	AREA	|.text$mn|, CODE, ARM64

|init_mparams| PROC

; 3181 : static int init_mparams(void) {

	sub         sp,sp,#0x20

; 3182 : #ifdef NEED_GLOBAL_LOCK_INIT
; 3183 :     if (malloc_global_mutex_status <= 0)
; 3184 :         init_malloc_global_mutex();
; 3185 : #endif
; 3186 : 
; 3187 :     ACQUIRE_MALLOC_GLOBAL_LOCK();
; 3188 :     if (mparams.magic == 0) {

	adrp        x8,mparams
	ldr         x8,[x8,PageOffset(mparams)]
	cmp         x8,#0
	bne         |$LN5@init_mpara|

; 3189 :         size_t magic;
; 3190 :         size_t psize;
; 3191 :         size_t gsize;
; 3192 : 
; 3193 : #ifndef WIN32
; 3194 :         psize = malloc_getpagesize;

	mov         x8,#0x1000
	str         x8,[sp,#0x10]

; 3195 :         gsize = ((DEFAULT_GRANULARITY != 0) ? DEFAULT_GRANULARITY : psize);

	mov         x8,#0x40
	str         x8,[sp,#8]

; 3196 : #else /* WIN32 */
; 3197 :         {
; 3198 :             SYSTEM_INFO system_info;
; 3199 :             GetSystemInfo(&system_info);
; 3200 :             psize = system_info.dwPageSize;
; 3201 :             gsize = ((DEFAULT_GRANULARITY != 0) ?
; 3202 :                 DEFAULT_GRANULARITY : system_info.dwAllocationGranularity);
; 3203 :         }
; 3204 : #endif /* WIN32 */
; 3205 : 
; 3206 :         /* Sanity-check configuration:
; 3207 :            size_t must be unsigned and as wide as pointer type.
; 3208 :            ints must be at least 4 bytes.
; 3209 :            alignment must be at least 8.
; 3210 :            Alignment, min chunk size, and page size must all be powers of 2.
; 3211 :         */
; 3212 :         if ((sizeof(size_t) != sizeof(char*)) ||
; 3213 :             (MAX_SIZE_T < MIN_CHUNK_SIZE) ||
; 3214 :             (sizeof(int) < 4) ||
; 3215 :             (MALLOC_ALIGNMENT < (size_t)8U) ||
; 3216 :             ((MALLOC_ALIGNMENT & (MALLOC_ALIGNMENT - SIZE_T_ONE)) != 0) ||
; 3217 :             ((MCHUNK_SIZE & (MCHUNK_SIZE - SIZE_T_ONE)) != 0) ||
; 3218 :             ((gsize & (gsize - SIZE_T_ONE)) != 0) ||

	mov         w8,#0
	cmp         w8,#0
	bne         |$LN7@init_mpara|
	ldr         x8,[sp,#8]
	sub         x9,x8,#1
	ldr         x8,[sp,#8]
	and         x8,x8,x9
	cmp         x8,#0
	bne         |$LN7@init_mpara|
	ldr         x8,[sp,#0x10]
	sub         x9,x8,#1
	ldr         x8,[sp,#0x10]
	and         x8,x8,x9
	cmp         x8,#0
	beq         |$LN6@init_mpara|
|$LN7@init_mpara|
|$LN2@init_mpara|

; 3219 :             ((psize & (psize - SIZE_T_ONE)) != 0))
; 3220 :             ABORT;

	b           |$LN2@init_mpara|
|$LN6@init_mpara|

; 3221 :         mparams.granularity = gsize;

	adrp        x9,mparams+#0x10
	ldr         x8,[sp,#8]
	str         x8,[x9,PageOffset(mparams)+#0x10]

; 3222 :         mparams.page_size = psize;

	adrp        x9,mparams+#8
	ldr         x8,[sp,#0x10]
	str         x8,[x9,PageOffset(mparams)+#8]

; 3223 :         mparams.mmap_threshold = DEFAULT_MMAP_THRESHOLD;

	adrp        x9,mparams+#0x18
	mov         x8,#-1
	str         x8,[x9,PageOffset(mparams)+#0x18]

; 3224 :         mparams.trim_threshold = DEFAULT_TRIM_THRESHOLD;

	adrp        x9,mparams+#0x20
	mov         x8,#-1
	str         x8,[x9,PageOffset(mparams)+#0x20]

; 3225 : #if MORECORE_CONTIGUOUS
; 3226 :         mparams.default_mflags = USE_LOCK_BIT | USE_MMAP_BIT;
; 3227 : #else  /* MORECORE_CONTIGUOUS */
; 3228 :         mparams.default_mflags = USE_LOCK_BIT | USE_MMAP_BIT | USE_NONCONTIGUOUS_BIT;

	adrp        x9,mparams+#0x28
	mov         w8,#4
	str         w8,[x9,PageOffset(mparams)+#0x28]

; 3229 : #endif /* MORECORE_CONTIGUOUS */
; 3230 : 
; 3231 : #if !ONLY_MSPACES
; 3232 :         /* Set up lock for main malloc area */
; 3233 :         gm->mflags = mparams.default_mflags;

	adrp        x9,_gm_+#0x370
	adrp        x8,mparams+#0x28
	ldr         w8,[x8,PageOffset(mparams)+#0x28]
	str         w8,[x9,PageOffset(_gm_)+#0x370]

; 3234 :         (void)INITIAL_LOCK(&gm->mutex);
; 3235 : #endif
; 3236 : #if LOCK_AT_FORK
; 3237 :         pthread_atfork(&pre_fork, &post_fork_parent, &post_fork_child);
; 3238 : #endif
; 3239 : 
; 3240 :         {
; 3241 : #if USE_DEV_RANDOM
; 3242 :             int fd;
; 3243 :             unsigned char buf[sizeof(size_t)];
; 3244 :             /* Try to use /dev/urandom, else fall back on using time */
; 3245 :             if ((fd = open("/dev/urandom", O_RDONLY)) >= 0 &&
; 3246 :                 read(fd, buf, sizeof(buf)) == sizeof(buf)) {
; 3247 :                 magic = *((size_t*)buf);
; 3248 :                 close(fd);
; 3249 :             }
; 3250 :             else
; 3251 : #endif /* USE_DEV_RANDOM */
; 3252 : #ifdef WIN32
; 3253 :                 magic = (size_t)(GetTickCount() ^ (size_t)0x55555555U);
; 3254 : #elif defined(LACKS_TIME_H)
; 3255 :                 magic = (size_t)&magic ^ (size_t)0x55555555U;

	mov         x9,sp
	ldr         x8,|$LN9@init_mpara|
	eor         x8,x9,x8
	str         x8,[sp]

; 3256 : #else
; 3257 :                 magic = (size_t)(time(0) ^ (size_t)0x55555555U);
; 3258 : #endif
; 3259 :             magic |= (size_t)8U;    /* ensure nonzero */

	ldr         x8,[sp]
	orr         x8,x8,#8
	str         x8,[sp]

; 3260 :             magic &= ~(size_t)7U;   /* improve chances of fault for bad values */

	ldr         x8,[sp]
	and         x8,x8,#-8
	str         x8,[sp]

; 3261 :             /* Until memory modes commonly available, use volatile-write */
; 3262 :             (*(volatile size_t*)(&(mparams.magic))) = magic;

	adrp        x9,mparams
	ldr         x8,[sp]
	str         x8,[x9,PageOffset(mparams)]
|$LN5@init_mpara|

; 3263 :         }
; 3264 :     }
; 3265 : 
; 3266 :     RELEASE_MALLOC_GLOBAL_LOCK();
; 3267 :     return 1;

	mov         w0,#1
	add         sp,sp,#0x20
	ret
|$LN9@init_mpara|
	DCQ         0x55555555

	ENDP  ; |init_mparams|

; Function compile flags: /Odtpy
; File C:\Users\paras\source\repos\grep-name\XenevaOS\KernelAA64\Mm\dlmalloc.c

	AREA	|.text$mn|, CODE, ARM64

|segment_holding| PROC

; 2780 : static msegmentptr segment_holding(mstate m, char* addr) {

	sub         sp,sp,#0x20
	str         x0,[sp,#0x10]
	str         x1,[sp,#8]

; 2781 :     msegmentptr sp = &m->seg;

	ldr         x8,[sp,#0x10]
	add         x8,x8,#0x378
	str         x8,[sp]
|$LN2@segment_ho|

; 2782 :     for (;;) {
; 2783 :         if (addr >= sp->base && addr < sp->base + sp->size)

	ldr         x8,[sp]
	ldr         x9,[x8]
	ldr         x8,[sp,#8]
	cmp         x8,x9
	blo         |$LN5@segment_ho|
	ldr         x9,[sp]
	ldr         x8,[sp]
	add         x8,x8,#8
	ldr         x9,[x9]
	ldr         x8,[x8]
	add         x9,x9,x8
	ldr         x8,[sp,#8]
	cmp         x8,x9
	bhs         |$LN5@segment_ho|

; 2784 :             return sp;

	ldr         x0,[sp]
	b           |$LN1@segment_ho|
|$LN5@segment_ho|

; 2785 :         if ((sp = sp->next) == 0)

	ldr         x8,[sp]
	add         x8,x8,#0x10
	ldr         x8,[x8]
	str         x8,[sp]
	ldr         x8,[sp]
	cmp         x8,#0
	bne         |$LN6@segment_ho|

; 2786 :             return 0;

	mov         x0,#0
	b           |$LN1@segment_ho|
|$LN6@segment_ho|

; 2787 :     }

	b           |$LN2@segment_ho|
|$LN1@segment_ho|
	add         sp,sp,#0x20
	ret

	ENDP  ; |segment_holding|

; Function compile flags: /Odtpy
; File C:\Users\paras\source\repos\grep-name\XenevaOS\KernelAA64\Mm\dlmalloc.c

	AREA	|.text$mn|, CODE, ARM64

|dlmalloc_usable_size| PROC

; 5463 : size_t dlmalloc_usable_size(void* mem) {

|$LN7|
	sub         sp,sp,#0x20
	str         x0,[sp,#8]

; 5464 :     if (mem != 0) {

	ldr         x8,[sp,#8]
	cmp         x8,#0
	beq         |$LN2@dlmalloc_u|

; 5465 :         mchunkptr p = mem2chunk(mem);

	ldr         x8,[sp,#8]
	sub         x8,x8,#0x10
	str         x8,[sp]

; 5466 :         if (is_inuse(p))

	ldr         x8,[sp]
	add         x8,x8,#8
	ldr         x8,[x8]
	and         x8,x8,#3
	cmp         x8,#1
	beq         |$LN3@dlmalloc_u|

; 5467 :             return chunksize(p) - overhead_for(p);

	ldr         x8,[sp]
	add         x8,x8,#8
	ldr         x8,[x8]
	and         x8,x8,#3
	cmp         x8,#0
	bne         |$LN5@dlmalloc_u|
	mov         x8,#0x10
	str         x8,[sp,#0x10]
	b           |$LN6@dlmalloc_u|
|$LN5@dlmalloc_u|
	mov         x8,#8
	str         x8,[sp,#0x10]
|$LN6@dlmalloc_u|
	ldr         x8,[sp]
	add         x8,x8,#8
	ldr         x8,[x8]
	and         x9,x8,#-8
	ldr         x8,[sp,#0x10]
	sub         x0,x9,x8
	b           |$LN1@dlmalloc_u|
|$LN3@dlmalloc_u|
|$LN2@dlmalloc_u|

; 5468 :     }
; 5469 :     return 0;

	mov         x0,#0
|$LN1@dlmalloc_u|
	add         sp,sp,#0x20
	ret

	ENDP  ; |dlmalloc_usable_size|

; Function compile flags: /Odtpy
; File C:\Users\paras\source\repos\grep-name\XenevaOS\KernelAA64\Mm\dlmalloc.c

	AREA	|.text$mn|, CODE, ARM64

|dlmalloc_trim| PROC

; 5413 : int dlmalloc_trim(size_t pad) {

|$LN5|
	str         lr,[sp,#-0x10]!
	sub         sp,sp,#0x10
	str         x0,[sp,#8]

; 5414 :     int result = 0;

	mov         w8,#0
	str         w8,[sp]

; 5415 :     ensure_initialization();

	adrp        x8,mparams
	ldr         x8,[x8,PageOffset(mparams)]
	cmp         x8,#0
	bne         |$LN4@dlmalloc_t|
	bl          init_mparams
|$LN4@dlmalloc_t|

; 5416 :     if (!PREACTION(gm)) {

	mov         w8,#1
	cmp         w8,#0
	beq         |$LN2@dlmalloc_t|

; 5417 :         result = sys_trim(gm, pad);

	ldr         x1,[sp,#8]
	adrp        x8,_gm_
	add         x0,x8,PageOffset(_gm_)
	bl          sys_trim
	mov         w0,w0
	str         w0,[sp]
|$LN2@dlmalloc_t|

; 5418 :         POSTACTION(gm);
; 5419 :     }
; 5420 :     return result;

	ldr         w0,[sp]
	add         sp,sp,#0x10
	ldr         lr,[sp],#0x10
	ret

	ENDP  ; |dlmalloc_trim|

; Function compile flags: /Odtpy
; File C:\Users\paras\source\repos\grep-name\XenevaOS\KernelAA64\Mm\dlmalloc.c

	AREA	|.text$mn|, CODE, ARM64

|dlpvalloc| PROC

; 5377 : void* dlpvalloc(size_t bytes) {

|$LN4|
	str         lr,[sp,#-0x10]!
	sub         sp,sp,#0x10
	str         x0,[sp,#8]

; 5378 :     size_t pagesz;
; 5379 :     ensure_initialization();

	adrp        x8,mparams
	ldr         x8,[x8,PageOffset(mparams)]
	cmp         x8,#0
	bne         |$LN3@dlpvalloc|
	bl          init_mparams
|$LN3@dlpvalloc|

; 5380 :     pagesz = mparams.page_size;

	adrp        x8,mparams+#8
	ldr         x8,[x8,PageOffset(mparams)+#8]
	str         x8,[sp]

; 5381 :     return dlmemalign(pagesz, (bytes + pagesz - SIZE_T_ONE) & ~(pagesz - SIZE_T_ONE));

	ldr         x9,[sp,#8]
	ldr         x8,[sp]
	add         x8,x9,x8
	sub         x9,x8,#1
	ldr         x8,[sp]
	sub         x8,x8,#1
	mvn         x8,x8
	and         x1,x9,x8
	ldr         x0,[sp]
	bl          dlmemalign
	add         sp,sp,#0x10
	ldr         lr,[sp],#0x10
	ret

	ENDP  ; |dlpvalloc|

; Function compile flags: /Odtpy
; File C:\Users\paras\source\repos\grep-name\XenevaOS\KernelAA64\Mm\dlmalloc.c

	AREA	|.text$mn|, CODE, ARM64

|dlbulk_free| PROC

; 5395 : size_t dlbulk_free(void* array[], size_t nelem) {

|$LN3|
	str         lr,[sp,#-0x10]!
	sub         sp,sp,#0x10
	str         x0,[sp,#8]
	str         x1,[sp]

; 5396 :     return internal_bulk_free(gm, array, nelem);

	ldr         x2,[sp]
	ldr         x1,[sp,#8]
	adrp        x8,_gm_
	add         x0,x8,PageOffset(_gm_)
	bl          internal_bulk_free
	add         sp,sp,#0x10
	ldr         lr,[sp],#0x10
	ret

	ENDP  ; |dlbulk_free|

; Function compile flags: /Odtpy
; File C:\Users\paras\source\repos\grep-name\XenevaOS\KernelAA64\Mm\dlmalloc.c

	AREA	|.text$mn|, CODE, ARM64

|dlindependent_comalloc| PROC

; 5391 :     void* chunks[]) {

|$LN3|
	str         lr,[sp,#-0x10]!
	sub         sp,sp,#0x20
	str         x0,[sp,#0x10]
	str         x1,[sp,#8]
	str         x2,[sp]

; 5392 :     return ialloc(gm, n_elements, sizes, 0, chunks);

	ldr         x4,[sp]
	mov         w3,#0
	ldr         x2,[sp,#8]
	ldr         x1,[sp,#0x10]
	adrp        x8,_gm_
	add         x0,x8,PageOffset(_gm_)
	bl          ialloc
	add         sp,sp,#0x20
	ldr         lr,[sp],#0x10
	ret

	ENDP  ; |dlindependent_comalloc|

; Function compile flags: /Odtpy
; File C:\Users\paras\source\repos\grep-name\XenevaOS\KernelAA64\Mm\dlmalloc.c

	AREA	|.text$mn|, CODE, ARM64

|dlindependent_calloc| PROC

