; Listing generated by Microsoft (R) Optimizing Compiler Version 19.29.30159.0 

	TTL	C:\Users\paras\source\repos\grep-name\XenevaOS\KernelAA64\ARM64\Debug\dma.obj
	ARM64

	AREA	|.drectve|, DRECTVE


	AREA	|.rdata|, DATA, READONLY
|szClasses| DCQ	0x8, 0x0				;  = 0x0000000000000008
	DCQ	0x10, 0x0				;  = 0x0000000000000010
	DCQ	0x20, 0x0				;  = 0x0000000000000020
	DCQ	0x40, 0x0				;  = 0x0000000000000040
	DCQ	0x80, 0x0				;  = 0x0000000000000080
	DCQ	0x100, 0x0				;  = 0x0000000000000100
	DCQ	0x200, 0x0				;  = 0x0000000000000200
	EXPORT	|AuDMAPoolCreate|
	EXPORT	|AuDMAPoolAlloc|
	EXPORT	|AuDMAPoolFree|
	EXPORT	|AuDMAPoolDestroy|
	EXPORT	|AuDMAGlobalClassInitialize|
	EXPORT	|AuDMAGClassAlloc|
	EXPORT	|AuDMAGClassFree|
	EXPORT	|AuDMAGClassDestroy|
	IMPORT	|AuPmmngrAlloc|
	IMPORT	|AuPmmngrFree|
	IMPORT	|P2V|
	IMPORT	|kmalloc|
	IMPORT	|kfree|
	IMPORT	|strlen|
	IMPORT	|memset|
	IMPORT	|UARTDebugOut|

	AREA	|.pdata|, PDATA
|$pdata$AuDMAPoolCreate| DCD imagerel |$LN15|
	DCD	0x2200239
	;Flags[SingleProEpi] functionLength[568] RegF[0] RegI[0] H[0] frameChainReturn[UnChainedSavedLR] frameSize[64]
|$pdata$AuDMAPoolAlloc| DCD imagerel |$LN12|
	DCD	0x22001c9
	;Flags[SingleProEpi] functionLength[456] RegF[0] RegI[0] H[0] frameChainReturn[UnChainedSavedLR] frameSize[64]
|$pdata$AuDMAPoolFree| DCD imagerel |$LN14|
	DCD	0x22001a9
	;Flags[SingleProEpi] functionLength[424] RegF[0] RegI[0] H[0] frameChainReturn[UnChainedSavedLR] frameSize[64]
|$pdata$AuDMAPoolDestroy| DCD imagerel |$LN6|
	DCD	0x1a000a1
	;Flags[SingleProEpi] functionLength[160] RegF[0] RegI[0] H[0] frameChainReturn[UnChainedSavedLR] frameSize[48]
|$pdata$AuDMAGlobalClassInitialize| DCD imagerel |$LN7|
	DCD	0x2a00185
	;Flags[SingleProEpi] functionLength[388] RegF[0] RegI[0] H[0] frameChainReturn[UnChainedSavedLR] frameSize[80]
|$pdata$AuDMAGClassAlloc| DCD imagerel |$LN6|
	DCD	0x1a0008d
	;Flags[SingleProEpi] functionLength[140] RegF[0] RegI[0] H[0] frameChainReturn[UnChainedSavedLR] frameSize[48]
|$pdata$AuDMAGClassFree| DCD imagerel |$LN5|
	DCD	0x2200089
	;Flags[SingleProEpi] functionLength[136] RegF[0] RegI[0] H[0] frameChainReturn[UnChainedSavedLR] frameSize[64]
|$pdata$AuDMAGClassDestroy| DCD imagerel |$LN6|
	DCD	0x1200081
	;Flags[SingleProEpi] functionLength[128] RegF[0] RegI[0] H[0] frameChainReturn[UnChainedSavedLR] frameSize[32]

	AREA	|.pdata|, PDATA
|$pdata$dma_align_up| DCD imagerel |dma_align_up|
	DCD	0x800035
	;Flags[SingleProEpi] functionLength[52] RegF[0] RegI[0] H[0] frameChainReturn[UnChained] frameSize[16]

	AREA	|.pdata|, PDATA
|$pdata$is_power_of_two| DCD imagerel |is_power_of_two|
	DCD	0x80004d
	;Flags[SingleProEpi] functionLength[76] RegF[0] RegI[0] H[0] frameChainReturn[UnChained] frameSize[16]
|$pdata$__bitmap_bytes| DCD imagerel |__bitmap_bytes|
	DCD	0x800025
	;Flags[SingleProEpi] functionLength[36] RegF[0] RegI[0] H[0] frameChainReturn[UnChained] frameSize[16]
|$pdata$__bitmap_set| DCD imagerel |__bitmap_set|
	DCD	0x80008d
	;Flags[SingleProEpi] functionLength[140] RegF[0] RegI[0] H[0] frameChainReturn[UnChained] frameSize[16]
|$pdata$__bitmap_clear| DCD imagerel |__bitmap_clear|
	DCD	0x800091
	;Flags[SingleProEpi] functionLength[144] RegF[0] RegI[0] H[0] frameChainReturn[UnChained] frameSize[16]
|$pdata$__bitmap_test| DCD imagerel |__bitmap_test|
	DCD	0x80005d
	;Flags[SingleProEpi] functionLength[92] RegF[0] RegI[0] H[0] frameChainReturn[UnChained] frameSize[16]
|$pdata$_dma_pool_add_page| DCD imagerel |_dma_pool_add_page|
	DCD	0x1a001b1
	;Flags[SingleProEpi] functionLength[432] RegF[0] RegI[0] H[0] frameChainReturn[UnChainedSavedLR] frameSize[48]
|$pdata$_dma_page_find_slot| DCD imagerel |_dma_page_find_slot|
	DCD	0x2200119
	;Flags[SingleProEpi] functionLength[280] RegF[0] RegI[0] H[0] frameChainReturn[UnChainedSavedLR] frameSize[64]
|$pdata$_dma_gclass_find_class| DCD imagerel |_dma_gclass_find_class|
	DCD	0x1000149
	;Flags[SingleProEpi] functionLength[328] RegF[0] RegI[0] H[0] frameChainReturn[UnChained] frameSize[32]

	AREA	|.data|, DATA
|$SG2803| DCB	"[aurora]: dma-pool failed to allocate bitmap ", 0xd, 0xa
	DCB	0x0
; Function compile flags: /Odtpy
; File C:\Users\paras\source\repos\grep-name\XenevaOS\KernelAA64\Mm\dma.c

	AREA	|.text$mn|, CODE, ARM64

|_dma_gclass_find_class| PROC

; 325  : static int _dma_gclass_find_class(AuDMAGlobalClass* gClass, size_t sz) {

	sub         sp,sp,#0x20
	str         x0,[sp,#0x18]
	str         x1,[sp,#0x10]

; 326  : 	if (sz == 0)

	ldr         x8,[sp,#0x10]
	cmp         x8,#0
	bne         |$LN5@dma_gclass|

; 327  : 		return 1;

	mov         w0,#1
	b           |$LN1@dma_gclass|
|$LN5@dma_gclass|

; 328  : 	uint64_t size = sz;

	ldr         x8,[sp,#0x10]
	str         x8,[sp,#8]

; 329  : 	size--;

	ldr         x8,[sp,#8]
	sub         x8,x8,#1
	str         x8,[sp,#8]

; 330  : 	size |= size >> 1;

	ldr         x8,[sp,#8]
	lsr         x9,x8,#1
	ldr         x8,[sp,#8]
	orr         x8,x8,x9
	str         x8,[sp,#8]

; 331  : 	size |= size >> 2;

	ldr         x8,[sp,#8]
	lsr         x9,x8,#2
	ldr         x8,[sp,#8]
	orr         x8,x8,x9
	str         x8,[sp,#8]

; 332  : 	size |= size >> 4;

	ldr         x8,[sp,#8]
	lsr         x9,x8,#4
	ldr         x8,[sp,#8]
	orr         x8,x8,x9
	str         x8,[sp,#8]

; 333  : 	size |= size >> 8;

	ldr         x8,[sp,#8]
	lsr         x9,x8,#8
	ldr         x8,[sp,#8]
	orr         x8,x8,x9
	str         x8,[sp,#8]

; 334  : 	size |= size >> 16;

	ldr         x8,[sp,#8]
	lsr         x9,x8,#0x10
	ldr         x8,[sp,#8]
	orr         x8,x8,x9
	str         x8,[sp,#8]

; 335  : 	size |= size >> 32;

	ldr         x8,[sp,#8]
	lsr         x9,x8,#0x20
	ldr         x8,[sp,#8]
	orr         x8,x8,x9
	str         x8,[sp,#8]

; 336  : 	size++;

	ldr         x8,[sp,#8]
	add         x8,x8,#1
	str         x8,[sp,#8]

; 337  : 
; 338  : 	if (size < 8) size = 8;

	ldr         x8,[sp,#8]
	cmp         x8,#8
	bhs         |$LN6@dma_gclass|
	mov         x8,#8
	str         x8,[sp,#8]
|$LN6@dma_gclass|

; 339  : 
; 340  : 	if (size > DMA_MAX_POOL_SIZE)

	ldr         x8,[sp,#8]
	cmp         x8,#0x200
	bls         |$LN7@dma_gclass|

; 341  : 		return -1;

	mov         w0,#-1
	b           |$LN1@dma_gclass|
|$LN7@dma_gclass|

; 342  : 
; 343  : 	for (int i = 0; i < DMA_NUM_CLASSES; i++) {

	mov         w8,#0
	str         w8,[sp]
	b           |$LN4@dma_gclass|
|$LN2@dma_gclass|
	ldr         w8,[sp]
	add         w8,w8,#1
	str         w8,[sp]
|$LN4@dma_gclass|
	ldr         w8,[sp]
	cmp         w8,#7
	bge         |$LN3@dma_gclass|

; 344  : 		if (size <= gClass->szClass[i])

	ldr         x8,[sp,#0x18]
	add         x10,x8,#0x38
	ldr         w8,[sp]
	sxtw        x9,w8
	mov         x8,#8
	mul         x8,x9,x8
	add         x8,x10,x8
	ldr         x9,[x8]
	ldr         x8,[sp,#8]
	cmp         x8,x9
	bhi         |$LN8@dma_gclass|

; 345  : 			return i;

	ldr         w0,[sp]
	b           |$LN1@dma_gclass|
|$LN8@dma_gclass|

; 346  : 	}

	b           |$LN2@dma_gclass|
|$LN3@dma_gclass|

; 347  : 	return -1;

	mov         w0,#-1
|$LN1@dma_gclass|
	add         sp,sp,#0x20
	ret

	ENDP  ; |_dma_gclass_find_class|

; Function compile flags: /Odtpy
; File C:\Users\paras\source\repos\grep-name\XenevaOS\KernelAA64\Mm\dma.c

	AREA	|.text$mn|, CODE, ARM64

|_dma_page_find_slot| PROC

; 113  : static int _dma_page_find_slot(const AuDMAPage* page, const AuDMAPool* pool) {

	str         lr,[sp,#-0x10]!
	sub         sp,sp,#0x30
	str         x0,[sp,#0x10]
	str         x1,[sp,#8]

; 114  : 	for (uint32_t i = 0; i < page->slots; i++) {

	mov         w8,#0
	str         w8,[sp]
	b           |$LN4@dma_page_f|
|$LN2@dma_page_f|
	ldr         w8,[sp]
	add         w8,w8,#1
	str         w8,[sp]
|$LN4@dma_page_f|
	ldr         x8,[sp,#0x10]
	add         x8,x8,#0x14
	ldr         w9,[x8]
	ldr         w8,[sp]
	cmp         w8,w9
	bhs         |$LN3@dma_page_f|

; 115  : 		if (__bitmap_test(page->bitmap, i))

	ldr         x8,[sp,#0x10]
	add         x8,x8,#0x18
	ldr         w1,[sp]
	ldr         x0,[x8]
	bl          __bitmap_test
	mov         w0,w0
	cmp         w0,#0
	beq         |$LN5@dma_page_f|

; 116  : 			continue; //already in use

	b           |$LN2@dma_page_f|
|$LN5@dma_page_f|

; 117  : 
; 118  : 		if (pool->boundary) {

	ldr         x8,[sp,#8]
	add         x8,x8,#0x30
	ldr         x8,[x8]
	cmp         x8,#0
	beq         |$LN6@dma_page_f|

; 119  : 			uint64_t slot_start = page->phys + (uint64_t)i * pool->alloc_sz;

	ldr         x8,[sp,#0x10]
	add         x10,x8,#8
	ldr         w8,[sp]
	uxtw        x9,w8
	ldr         x8,[sp,#8]
	add         x8,x8,#0x20
	ldr         x8,[x8]
	mul         x9,x9,x8
	ldr         x8,[x10]
	add         x8,x8,x9
	str         x8,[sp,#0x18]

; 120  : 			uint64_t slot_end = slot_start + pool->alloc_sz - 1;

	ldr         x8,[sp,#8]
	add         x8,x8,#0x20
	ldr         x9,[sp,#0x18]
	ldr         x8,[x8]
	add         x8,x9,x8
	sub         x8,x8,#1
	str         x8,[sp,#0x28]

; 121  : 			uint64_t mask = ~(uint64_t)(pool->boundary - 1);

	ldr         x8,[sp,#8]
	add         x8,x8,#0x30
	ldr         x8,[x8]
	sub         x8,x8,#1
	mvn         x8,x8
	str         x8,[sp,#0x20]

; 122  : 
; 123  : 			if ((slot_start & mask) != (slot_end & mask))

	ldr         x9,[sp,#0x18]
	ldr         x8,[sp,#0x20]
	and         x10,x9,x8
	ldr         x9,[sp,#0x28]
	ldr         x8,[sp,#0x20]
	and         x8,x9,x8
	cmp         x10,x8
	beq         |$LN7@dma_page_f|

; 124  : 				continue;

	b           |$LN2@dma_page_f|
|$LN7@dma_page_f|
|$LN6@dma_page_f|

; 125  : 		}
; 126  : 		return (int)i;

	ldr         w0,[sp]
	b           |$LN1@dma_page_f|

; 127  : 	}

	b           |$LN2@dma_page_f|
|$LN3@dma_page_f|

; 128  : 
; 129  : 	return -1;

	mov         w0,#-1
|$LN1@dma_page_f|
	add         sp,sp,#0x30
	ldr         lr,[sp],#0x10
	ret

	ENDP  ; |_dma_page_find_slot|

; Function compile flags: /Odtpy
; File C:\Users\paras\source\repos\grep-name\XenevaOS\KernelAA64\Mm\dma.c

	AREA	|.text$mn|, CODE, ARM64

|_dma_pool_add_page| PROC

; 69   : static AuDMAPage* _dma_pool_add_page(AuDMAPool* pool) {

	str         lr,[sp,#-0x10]!
	sub         sp,sp,#0x20
	str         x0,[sp,#8]

; 70   : 	AuDMAPage* page = (AuDMAPage*)kmalloc(sizeof(AuDMAPage));

	mov         w0,#0x28
	bl          kmalloc
	str         x0,[sp]

; 71   : 	if (!page)

	ldr         x8,[sp]
	cmp         x8,#0
	bne         |$LN4@dma_pool_a|

; 72   : 		return NULL;

	mov         x0,#0
	b           |$LN1@dma_pool_a|
|$LN4@dma_pool_a|

; 73   : 	memset(page, 0, sizeof(AuDMAPage));

	mov         w2,#0x28
	mov         w1,#0
	ldr         x0,[sp]
	bl          memset

; 74   : 	
; 75   : 	/**
; 76   : 	 * design should be such that, allocate a physical page
; 77   : 	 * map it to dma virtual address, with non cacheable bit
; 78   : 	 * and return, but for now aurora following very straigt
; 79   : 	 * forward method
; 80   : 	 */
; 81   : 	page->phys = (uint64_t)AuPmmngrAlloc();

	bl          AuPmmngrAlloc
	ldr         x8,[sp]
	add         x8,x8,#8
	str         x0,[x8]

; 82   : 	page->virt = (void*)P2V((uint64_t)page->phys);

	ldr         x8,[sp]
	add         x8,x8,#8
	ldr         x0,[x8]
	bl          P2V
	ldr         x8,[sp]
	str         x0,[x8]

; 83   : 
; 84   : 	page->slots = pool->slots_per_page;

	ldr         x8,[sp,#8]
	add         x10,x8,#0x38
	ldr         x8,[sp]
	add         x9,x8,#0x14
	ldr         w8,[x10]
	str         w8,[x9]

; 85   : 	page->bitmap = (uint8_t*)kmalloc(__bitmap_bytes(page->slots));

	ldr         x8,[sp]
	add         x8,x8,#0x14
	ldr         w0,[x8]
	bl          __bitmap_bytes
	mov         w0,w0
	mov         w0,w0
	bl          kmalloc
	ldr         x8,[sp]
	add         x8,x8,#0x18
	str         x0,[x8]

; 86   : 	if (!page->bitmap) {

	ldr         x8,[sp]
	add         x8,x8,#0x18
	ldr         x8,[x8]
	cmp         x8,#0
	bne         |$LN5@dma_pool_a|

; 87   : 		UARTDebugOut("[aurora]: dma-pool failed to allocate bitmap \r\n");

	adrp        x8,|$SG2803|
	add         x0,x8,PageOffset(|$SG2803|)
	bl          UARTDebugOut

; 88   : 		AuPmmngrFree((void*)page->phys);

	ldr         x8,[sp]
	add         x8,x8,#8
	ldr         x0,[x8]
	bl          AuPmmngrFree

; 89   : 		kfree(page);

	ldr         x0,[sp]
	bl          kfree

; 90   : 		return NULL;

	mov         x0,#0
	b           |$LN1@dma_pool_a|
|$LN5@dma_pool_a|

; 91   : 	}
; 92   : 	memset(page->bitmap, 0, __bitmap_bytes(page->slots));

	ldr         x8,[sp]
	add         x8,x8,#0x14
	ldr         w0,[x8]
	bl          __bitmap_bytes
	mov         w0,w0
	ldr         x8,[sp]
	add         x8,x8,#0x18
	mov         w2,w0
	mov         w1,#0
	ldr         x0,[x8]
	bl          memset

; 93   : 	page->in_use = 0;

	ldr         x8,[sp]
	add         x9,x8,#0x10
	mov         w8,#0
	str         w8,[x9]

; 94   : 	page->next = NULL;

	ldr         x8,[sp]
	add         x9,x8,#0x20
	mov         x8,#0
	str         x8,[x9]

; 95   : 
; 96   : 	if (!pool->pages)

	ldr         x8,[sp,#8]
	add         x8,x8,#0x40
	ldr         x8,[x8]
	cmp         x8,#0
	bne         |$LN6@dma_pool_a|

; 97   : 		pool->pages = page;

	ldr         x8,[sp,#8]
	add         x9,x8,#0x40
	ldr         x8,[sp]
	str         x8,[x9]
	b           |$LN7@dma_pool_a|
|$LN6@dma_pool_a|

; 98   : 	else {
; 99   : 		AuDMAPage* tail = pool->pages;

	ldr         x8,[sp,#8]
	add         x8,x8,#0x40
	ldr         x8,[x8]
	str         x8,[sp,#0x10]
|$LN2@dma_pool_a|

; 100  : 		while (tail->next)

	ldr         x8,[sp,#0x10]
	add         x8,x8,#0x20
	ldr         x8,[x8]
	cmp         x8,#0
	beq         |$LN3@dma_pool_a|

; 101  : 			tail = tail->next;

	ldr         x8,[sp,#0x10]
	add         x8,x8,#0x20
	ldr         x8,[x8]
	str         x8,[sp,#0x10]
	b           |$LN2@dma_pool_a|
|$LN3@dma_pool_a|

; 102  : 		tail->next = page;

	ldr         x8,[sp,#0x10]
	add         x9,x8,#0x20
	ldr         x8,[sp]
	str         x8,[x9]
|$LN7@dma_pool_a|

; 103  : 	}
; 104  : 
; 105  : 	return page;

	ldr         x0,[sp]
|$LN1@dma_pool_a|
	add         sp,sp,#0x20
	ldr         lr,[sp],#0x10
	ret

	ENDP  ; |_dma_pool_add_page|

; Function compile flags: /Odtpy
; File C:\Users\paras\source\repos\grep-name\XenevaOS\KernelAA64\Mm\dma.c

	AREA	|.text$mn|, CODE, ARM64

|__bitmap_test| PROC

; 60   : static inline int __bitmap_test(const uint8_t* bm, uint32_t bit) {

	sub         sp,sp,#0x10
	str         x0,[sp,#8]
	str         w1,[sp]

; 61   : 	return (bm[bit / 8] >> (bit % 8)) & 1;

	ldr         w9,[sp]
	mov         w8,#8
	udiv        w8,w9,w8
	uxtw        x9,w8
	mov         x8,#1
	mul         x9,x9,x8
	ldr         x8,[sp,#8]
	add         x8,x8,x9
	ldrb        w11,[x8]
	mov         w11,w11
	ldr         w10,[sp]
	mov         w9,#8
	udiv        w8,w10,w9
	mul         w8,w8,w9
	sub         w8,w10,w8
	asr         w8,w11,w8
	and         w0,w8,#1
	mov         w0,w0
	add         sp,sp,#0x10
	ret

	ENDP  ; |__bitmap_test|

; Function compile flags: /Odtpy
; File C:\Users\paras\source\repos\grep-name\XenevaOS\KernelAA64\Mm\dma.c

	AREA	|.text$mn|, CODE, ARM64

|__bitmap_clear| PROC

; 56   : static inline void __bitmap_clear(uint8_t* bm, uint32_t bit) {

	sub         sp,sp,#0x10
	str         x0,[sp,#8]
	str         w1,[sp]

; 57   : 	bm[bit / 8] &= (uint8_t)~(1u << (bit % 8));

	ldr         w9,[sp]
	mov         w8,#8
	udiv        w8,w9,w8
	uxtw        x9,w8
	mov         x8,#1
	mul         x9,x9,x8
	ldr         x8,[sp,#8]
	add         x11,x8,x9
	ldr         w10,[sp]
	mov         w9,#8
	udiv        w8,w10,w9
	mul         w8,w8,w9
	sub         w9,w10,w8
	mov         w8,#1
	lsl         w8,w8,w9
	mvn         w8,w8
	uxtb        w9,w8
	mov         w9,w9
	ldrb        w8,[x11]
	mov         w8,w8
	and         w10,w8,w9
	ldr         w9,[sp]
	mov         w8,#8
	udiv        w8,w9,w8
	uxtw        x9,w8
	mov         x8,#1
	mul         x9,x9,x8
	ldr         x8,[sp,#8]
	add         x9,x8,x9
	uxtb        w8,w10
	strb        w8,[x9]
	add         sp,sp,#0x10
	ret

	ENDP  ; |__bitmap_clear|

; Function compile flags: /Odtpy
; File C:\Users\paras\source\repos\grep-name\XenevaOS\KernelAA64\Mm\dma.c

	AREA	|.text$mn|, CODE, ARM64

|__bitmap_set| PROC

; 52   : static inline void __bitmap_set(uint8_t* bm, uint32_t bit) {

	sub         sp,sp,#0x10
	str         x0,[sp,#8]
	str         w1,[sp]

; 53   : 	bm[bit / 8] |= (uint8_t)(1u << (bit % 8));

	ldr         w9,[sp]
	mov         w8,#8
	udiv        w8,w9,w8
	uxtw        x9,w8
	mov         x8,#1
	mul         x9,x9,x8
	ldr         x8,[sp,#8]
	add         x11,x8,x9
	ldr         w10,[sp]
	mov         w9,#8
	udiv        w8,w10,w9
	mul         w8,w8,w9
	sub         w9,w10,w8
	mov         w8,#1
	lsl         w8,w8,w9
	uxtb        w9,w8
	mov         w9,w9
	ldrb        w8,[x11]
	mov         w8,w8
	orr         w10,w8,w9
	ldr         w9,[sp]
	mov         w8,#8
	udiv        w8,w9,w8
	uxtw        x9,w8
	mov         x8,#1
	mul         x9,x9,x8
	ldr         x8,[sp,#8]
	add         x9,x8,x9
	uxtb        w8,w10
	strb        w8,[x9]
	add         sp,sp,#0x10
	ret

	ENDP  ; |__bitmap_set|

; Function compile flags: /Odtpy
; File C:\Users\paras\source\repos\grep-name\XenevaOS\KernelAA64\Mm\dma.c

	AREA	|.text$mn|, CODE, ARM64

|__bitmap_bytes| PROC

; 48   : static inline uint32_t __bitmap_bytes(uint32_t bits) {

	sub         sp,sp,#0x10
	str         w0,[sp]

; 49   : 	return (bits + 7) / 8;

	ldr         w8,[sp]
	add         w9,w8,#7
	mov         w8,#8
	udiv        w0,w9,w8
	mov         w0,w0
	add         sp,sp,#0x10
	ret

	ENDP  ; |__bitmap_bytes|

; Function compile flags: /Odtpy
; File C:\Users\paras\source\repos\grep-name\XenevaOS\KernelAA64\Mm\dma.c

	AREA	|.text$mn|, CODE, ARM64

|is_power_of_two| PROC

; 44   : static inline int is_power_of_two(size_t v) {

	sub         sp,sp,#0x10
	str         x0,[sp,#8]

; 45   : 	return v && !(v & (v - 1));

	ldr         x8,[sp,#8]
	cmp         x8,#0
	beq         |$LN3@is_power_o|
	ldr         x8,[sp,#8]
	sub         x9,x8,#1
	ldr         x8,[sp,#8]
	and         x8,x8,x9
	cmp         x8,#0
	bne         |$LN3@is_power_o|
	mov         w8,#1
	str         w8,[sp]
	b           |$LN4@is_power_o|
|$LN3@is_power_o|
	mov         w8,#0
	str         w8,[sp]
|$LN4@is_power_o|
	ldr         w0,[sp]
	add         sp,sp,#0x10
	ret

	ENDP  ; |is_power_of_two|

; Function compile flags: /Odtpy
; File C:\Users\paras\source\repos\grep-name\XenevaOS\KernelAA64\Mm\dma.c

	AREA	|.text$mn|, CODE, ARM64

|dma_align_up| PROC

; 40   : static inline size_t dma_align_up(size_t val, size_t align) {

	sub         sp,sp,#0x10
	str         x0,[sp,#8]
	str         x1,[sp]

; 41   : 	return (val + align - 1) & ~(align - 1);

	ldr         x9,[sp,#8]
	ldr         x8,[sp]
	add         x8,x9,x8
	sub         x9,x8,#1
	ldr         x8,[sp]
	sub         x8,x8,#1
	mvn         x8,x8
	and         x0,x9,x8
	add         sp,sp,#0x10
	ret

	ENDP  ; |dma_align_up|

; Function compile flags: /Odtpy
; File C:\Users\paras\source\repos\grep-name\XenevaOS\KernelAA64\Mm\dma.c

	AREA	|.text$mn|, CODE, ARM64

|AuDMAGClassDestroy| PROC

; 397  : void AuDMAGClassDestroy(AuDMAGlobalClass* gClass) {

|$LN6|
	str         lr,[sp,#-0x10]!
	sub         sp,sp,#0x10
	str         x0,[sp,#8]

; 398  : 	for (int i = 0; i < DMA_NUM_CLASSES; i++) {

	mov         w8,#0
	str         w8,[sp]
	b           |$LN4@AuDMAGClas|
|$LN2@AuDMAGClas|
	ldr         w8,[sp]
	add         w8,w8,#1
	str         w8,[sp]
|$LN4@AuDMAGClas|
	ldr         w8,[sp]
	cmp         w8,#7
	bge         |$LN3@AuDMAGClas|

; 399  : 		AuDMAPoolDestroy(gClass->pools[i]);

	ldr         x10,[sp,#8]
	ldr         w8,[sp]
	sxtw        x9,w8
	mov         x8,#8
	mul         x8,x9,x8
	add         x8,x10,x8
	ldr         x0,[x8]
	bl          AuDMAPoolDestroy

; 400  : 		gClass->pools[i] = 0;

	ldr         x10,[sp,#8]
	ldr         w8,[sp]
	sxtw        x9,w8
	mov         x8,#8
	mul         x8,x9,x8
	add         x9,x10,x8
	mov         x8,#0
	str         x8,[x9]

; 401  : 	}

	b           |$LN2@AuDMAGClas|
|$LN3@AuDMAGClas|
	add         sp,sp,#0x10
	ldr         lr,[sp],#0x10
	ret

	ENDP  ; |AuDMAGClassDestroy|

; Function compile flags: /Odtpy
; File C:\Users\paras\source\repos\grep-name\XenevaOS\KernelAA64\Mm\dma.c

	AREA	|.text$mn|, CODE, ARM64

|AuDMAGClassFree| PROC

; 379  : void AuDMAGClassFree(AuDMAGlobalClass* gClass, void* virt, uint64_t physOut, size_t sz) {

|$LN5|
	str         lr,[sp,#-0x10]!
	sub         sp,sp,#0x30
	str         x0,[sp,#8]
	str         x1,[sp,#0x18]
	str         x2,[sp,#0x10]
	str         x3,[sp,#0x20]

; 380  : 	if (!virt) return;

	ldr         x8,[sp,#0x18]
	cmp         x8,#0
	bne         |$LN2@AuDMAGClas|
	b           |$LN1@AuDMAGClas|
|$LN2@AuDMAGClas|

; 381  : 
; 382  : 	int idx = _dma_gclass_find_class(gClass, sz);

	ldr         x1,[sp,#0x20]
	ldr         x0,[sp,#8]
	bl          _dma_gclass_find_class
	mov         w0,w0
	str         w0,[sp]

; 383  : 
; 384  : 	if (idx < 0) {

	ldr         w8,[sp]
	cmp         w8,#0
	bge         |$LN3@AuDMAGClas|

; 385  : 		AuPmmngrFree((void*)physOut);

	ldr         x0,[sp,#0x10]
	bl          AuPmmngrFree

; 386  : 		return;

	b           |$LN1@AuDMAGClas|
|$LN3@AuDMAGClas|

; 387  : 	}
; 388  : 
; 389  : 	AuDMAPoolFree(gClass->pools[idx], virt, physOut);

	ldr         x10,[sp,#8]
	ldr         w8,[sp]
	sxtw        x9,w8
	mov         x8,#8
	mul         x8,x9,x8
	add         x8,x10,x8
	ldr         x2,[sp,#0x10]
	ldr         x1,[sp,#0x18]
	ldr         x0,[x8]
	bl          AuDMAPoolFree
|$LN1@AuDMAGClas|
	add         sp,sp,#0x30
	ldr         lr,[sp],#0x10
	ret

	ENDP  ; |AuDMAGClassFree|

; Function compile flags: /Odtpy
; File C:\Users\paras\source\repos\grep-name\XenevaOS\KernelAA64\Mm\dma.c

	AREA	|.text$mn|, CODE, ARM64

|AuDMAGClassAlloc| PROC

; 356  : void* AuDMAGClassAlloc(AuDMAGlobalClass* gClass, size_t sz, uint64_t* physOut) {

|$LN6|
	str         lr,[sp,#-0x10]!
	sub         sp,sp,#0x20
	str         x0,[sp,#0x10]
	str         x1,[sp,#8]
	str         x2,[sp,#0x18]

; 357  : 	if (!sz || !physOut)

	ldr         x8,[sp,#8]
	cmp         x8,#0
	beq         |$LN3@AuDMAGClas|
	ldr         x8,[sp,#0x18]
	cmp         x8,#0
	bne         |$LN2@AuDMAGClas|
|$LN3@AuDMAGClas|

; 358  : 		return NULL;

	mov         x0,#0
	b           |$LN1@AuDMAGClas|
|$LN2@AuDMAGClas|

; 359  : 
; 360  : 	int idx = _dma_gclass_find_class(gClass, sz);

	ldr         x1,[sp,#8]
	ldr         x0,[sp,#0x10]
	bl          _dma_gclass_find_class
	mov         w0,w0
	str         w0,[sp]

; 361  : 
; 362  : 	if (idx < 0) {

	ldr         w8,[sp]
	cmp         w8,#0
	bge         |$LN4@AuDMAGClas|

; 363  : 		/** return a full 4KiB page for larger than MAX_POOL_SZ */
; 364  : 		return AuPmmngrAlloc();

	bl          AuPmmngrAlloc
	b           |$LN1@AuDMAGClas|
|$LN4@AuDMAGClas|

; 365  : 	}
; 366  : 
; 367  : 	/** or allocate it using pool allocator */
; 368  : 	return AuDMAPoolAlloc(gClass->pools[idx], physOut);

	ldr         x10,[sp,#0x10]
	ldr         w8,[sp]
	sxtw        x9,w8
	mov         x8,#8
	mul         x8,x9,x8
	add         x8,x10,x8
	ldr         x1,[sp,#0x18]
	ldr         x0,[x8]
	bl          AuDMAPoolAlloc
|$LN1@AuDMAGClas|
	add         sp,sp,#0x20
	ldr         lr,[sp],#0x10
	ret

	ENDP  ; |AuDMAGClassAlloc|

; Function compile flags: /Odtpy
; File C:\Users\paras\source\repos\grep-name\XenevaOS\KernelAA64\Mm\dma.c

	AREA	|.text$mn|, CODE, ARM64

|AuDMAGlobalClassInitialize| PROC

; 302  : void AuDMAGlobalClassInitialize(AuDMAGlobalClass* gclass, char* name) {

|$LN7|
	str         lr,[sp,#-0x10]!
	sub         sp,sp,#0x40
	str         x0,[sp,#8]
	str         x1,[sp,#0x18]

; 303  : 	gclass->szClass[0] = 8;

	ldr         x8,[sp,#8]
	add         x9,x8,#0x38
	mov         x8,#8
	str         x8,[x9]

; 304  : 	gclass->szClass[1] = 16;

	ldr         x8,[sp,#8]
	add         x9,x8,#0x40
	mov         x8,#0x10
	str         x8,[x9]

; 305  : 	gclass->szClass[2] = 32;

	ldr         x8,[sp,#8]
	add         x9,x8,#0x48
	mov         x8,#0x20
	str         x8,[x9]

; 306  : 	gclass->szClass[3] = 64;

	ldr         x8,[sp,#8]
	add         x9,x8,#0x50
	mov         x8,#0x40
	str         x8,[x9]

; 307  : 	gclass->szClass[4] = 128;

	ldr         x8,[sp,#8]
	add         x9,x8,#0x58
	mov         x8,#0x80
	str         x8,[x9]

; 308  : 	gclass->szClass[5] = 256;

	ldr         x8,[sp,#8]
	add         x9,x8,#0x60
	mov         x8,#0x100
	str         x8,[x9]

; 309  : 	gclass->szClass[6] = 512;

	ldr         x8,[sp,#8]
	add         x9,x8,#0x68
	mov         x8,#0x200
	str         x8,[x9]

; 310  : 
; 311  : 	for (int i = 0; i < DMA_NUM_CLASSES; i++) {

	mov         w8,#0
	str         w8,[sp]
	b           |$LN4@AuDMAGloba|
|$LN2@AuDMAGloba|
	ldr         w8,[sp]
	add         w8,w8,#1
	str         w8,[sp]
|$LN4@AuDMAGloba|
	ldr         w8,[sp]
	cmp         w8,#7
	bge         |$LN3@AuDMAGloba|

; 312  : 		size_t sz = gclass->szClass[i];

	ldr         x8,[sp,#8]
	add         x10,x8,#0x38
	ldr         w8,[sp]
	sxtw        x9,w8
	mov         x8,#8
	mul         x8,x9,x8
	add         x8,x10,x8
	ldr         x8,[x8]
	str         x8,[sp,#0x10]

; 313  : 		char title[32];
; 314  : 		int strcount = strlen(name);

	ldr         x0,[sp,#0x18]
	bl          strlen
	mov         w8,w0
	str         w8,[sp,#4]

; 315  : 		if (strcount >= 29)

	ldr         w8,[sp,#4]
	cmp         w8,#0x1D
	blt         |$LN5@AuDMAGloba|

; 316  : 			strcount = 29;

	mov         w8,#0x1D
	str         w8,[sp,#4]
|$LN5@AuDMAGloba|

; 317  : 
; 318  : 		title[strcount + 1] = '0' + (char)i;

	ldr         w8,[sp]
	sxtb        w8,w8
	mov         w8,w8
	add         w10,w8,#0x30
	ldr         w8,[sp,#4]
	add         w8,w8,#1
	sxtw        x9,w8
	mov         x8,#1
	mul         x9,x9,x8
	add         x8,sp,#0x20
	add         x9,x8,x9
	sxtb        w8,w10
	strb        w8,[x9]

; 319  : 		title[strcount + 2] = '\0';

	ldr         w8,[sp,#4]
	add         w8,w8,#2
	sxtw        x9,w8
	mov         x8,#1
	mul         x9,x9,x8
	add         x8,sp,#0x20
	add         x9,x8,x9
	mov         w8,#0
	strb        w8,[x9]

; 320  : 
; 321  : 		gclass->pools[i] = AuDMAPoolCreate(title, sz, sz, DMA_DEFAULT_PAGE_BOUNDARY);

	mov         x3,#0x1000
	ldr         x2,[sp,#0x10]
	ldr         x1,[sp,#0x10]
	add         x0,sp,#0x20
	bl          AuDMAPoolCreate
	ldr         x10,[sp,#8]
	ldr         w8,[sp]
	sxtw        x9,w8
	mov         x8,#8
	mul         x8,x9,x8
	add         x8,x10,x8
	str         x0,[x8]

; 322  : 	}

	b           |$LN2@AuDMAGloba|
|$LN3@AuDMAGloba|
	add         sp,sp,#0x40
	ldr         lr,[sp],#0x10
	ret

	ENDP  ; |AuDMAGlobalClassInitialize|

; Function compile flags: /Odtpy
; File C:\Users\paras\source\repos\grep-name\XenevaOS\KernelAA64\Mm\dma.c

	AREA	|.text$mn|, CODE, ARM64

|AuDMAPoolDestroy| PROC

; 271  : void AuDMAPoolDestroy(AuDMAPool* pool) {

|$LN6|
	str         lr,[sp,#-0x10]!
	sub         sp,sp,#0x20
	str         x0,[sp,#8]

; 272  : 	if (!pool)

	ldr         x8,[sp,#8]
	cmp         x8,#0
	bne         |$LN4@AuDMAPoolD|

; 273  : 		return;

	b           |$LN1@AuDMAPoolD|
|$LN4@AuDMAPoolD|

; 274  : 
; 275  : 	//lock acquire
; 276  : 
; 277  : 	AuDMAPage* page = pool->pages;

	ldr         x8,[sp,#8]
	add         x8,x8,#0x40
	ldr         x8,[x8]
	str         x8,[sp]
|$LN2@AuDMAPoolD|

; 278  : 	while (page) {

	ldr         x8,[sp]
	cmp         x8,#0
	beq         |$LN3@AuDMAPoolD|

; 279  : 		AuDMAPage* next = page->next;

	ldr         x8,[sp]
	add         x8,x8,#0x20
	ldr         x8,[x8]
	str         x8,[sp,#0x10]

; 280  : 		kfree(page->bitmap);

	ldr         x8,[sp]
	add         x8,x8,#0x18
	ldr         x0,[x8]
	bl          kfree

; 281  : 		AuPmmngrFree(page->phys);

	ldr         x8,[sp]
	add         x8,x8,#8
	ldr         x0,[x8]
	bl          AuPmmngrFree

; 282  : 		kfree(page);

	ldr         x0,[sp]
	bl          kfree

; 283  : 		page = next;

	ldr         x8,[sp,#0x10]
	str         x8,[sp]

; 284  : 	}

	b           |$LN2@AuDMAPoolD|
|$LN3@AuDMAPoolD|

; 285  : 
; 286  : 	pool->pages = NULL;

	ldr         x8,[sp,#8]
	add         x9,x8,#0x40
	mov         x8,#0
	str         x8,[x9]

; 287  : 
; 288  : 	//release lock
; 289  : 	kfree(pool);

	ldr         x0,[sp,#8]
	bl          kfree
|$LN1@AuDMAPoolD|
	add         sp,sp,#0x20
	ldr         lr,[sp],#0x10
	ret

	ENDP  ; |AuDMAPoolDestroy|

; Function compile flags: /Odtpy
; File C:\Users\paras\source\repos\grep-name\XenevaOS\KernelAA64\Mm\dma.c

	AREA	|.text$mn|, CODE, ARM64

|AuDMAPoolFree| PROC

; 229  : void AuDMAPoolFree(AuDMAPool* pool, void* virt, uint64_t phys) {

|$LN14|
	str         lr,[sp,#-0x10]!
	sub         sp,sp,#0x30
	str         x0,[sp,#0x10]
	str         x1,[sp,#0x28]
	str         x2,[sp,#0x18]

; 230  : 	if (!pool || !virt)

	ldr         x8,[sp,#0x10]
	cmp         x8,#0
	beq         |$LN5@AuDMAPoolF|
	ldr         x8,[sp,#0x28]
	cmp         x8,#0
	bne         |$LN4@AuDMAPoolF|
|$LN5@AuDMAPoolF|

; 231  : 		return;

	b           |$LN1@AuDMAPoolF|
|$LN4@AuDMAPoolF|

; 232  : 
; 233  : 	//LOCK acquire
; 234  : 	AuDMAPage* page = pool->pages;

	ldr         x8,[sp,#0x10]
	add         x8,x8,#0x40
	ldr         x8,[x8]
	str         x8,[sp,#8]
|$LN2@AuDMAPoolF|

; 235  : 	while (page) {

	ldr         x8,[sp,#8]
	cmp         x8,#0
	beq         |$LN3@AuDMAPoolF|

; 236  : 		if (phys >= page->phys && phys < page->phys + 4096)

	ldr         x8,[sp,#8]
	add         x8,x8,#8
	ldr         x9,[x8]
	ldr         x8,[sp,#0x18]
	cmp         x8,x9
	blo         |$LN6@AuDMAPoolF|
	ldr         x8,[sp,#8]
	add         x8,x8,#8
	ldr         x8,[x8]
	add         x9,x8,#1,lsl #0xC
	ldr         x8,[sp,#0x18]
	cmp         x8,x9
	bhs         |$LN6@AuDMAPoolF|

; 237  : 			break;

	b           |$LN3@AuDMAPoolF|
|$LN6@AuDMAPoolF|

; 238  : 		page = page->next;

	ldr         x8,[sp,#8]
	add         x8,x8,#0x20
	ldr         x8,[x8]
	str         x8,[sp,#8]

; 239  : 	}

	b           |$LN2@AuDMAPoolF|
|$LN3@AuDMAPoolF|

; 240  : 
; 241  : 	if (!page) {

	ldr         x8,[sp,#8]
	cmp         x8,#0
	bne         |$LN7@AuDMAPoolF|

; 242  : 		//release lock
; 243  : 		return;

	b           |$LN1@AuDMAPoolF|
|$LN7@AuDMAPoolF|

; 244  : 	}
; 245  : 
; 246  : 	uint64_t offset = phys - page->phys;

	ldr         x8,[sp,#8]
	add         x8,x8,#8
	ldr         x9,[sp,#0x18]
	ldr         x8,[x8]
	sub         x8,x9,x8
	str         x8,[sp,#0x20]

; 247  : 
; 248  : 	if (offset % pool->alloc_sz != 0) {

	ldr         x8,[sp,#0x10]
	add         x8,x8,#0x20
	ldr         x10,[sp,#0x20]
	ldr         x9,[x8]
	cbnz        x9,|$LN12@AuDMAPoolF|
	brk         #0xF004
|$LN12@AuDMAPoolF|
	udiv        x8,x10,x9
	mul         x8,x8,x9
	sub         x8,x10,x8
	cmp         x8,#0
	beq         |$LN8@AuDMAPoolF|

; 249  : 		//release lock
; 250  : 		return;

	b           |$LN1@AuDMAPoolF|
|$LN8@AuDMAPoolF|

; 251  : 	}
; 252  : 
; 253  : 	uint32_t slot = (uint32_t)(offset / pool->alloc_sz);

	ldr         x8,[sp,#0x10]
	add         x8,x8,#0x20
	ldr         x9,[sp,#0x20]
	ldr         x8,[x8]
	cbnz        x8,|$LN13@AuDMAPoolF|
	brk         #0xF004
|$LN13@AuDMAPoolF|
	udiv        x8,x9,x8
	mov         w8,w8
	str         w8,[sp]

; 254  : 
; 255  : 	if (slot >= page->slots || !__bitmap_test(page->bitmap, slot)) {

	ldr         x8,[sp,#8]
	add         x8,x8,#0x14
	ldr         w9,[x8]
	ldr         w8,[sp]
	cmp         w8,w9
	bhs         |$LN10@AuDMAPoolF|
	ldr         x8,[sp,#8]
	add         x8,x8,#0x18
	ldr         w1,[sp]
	ldr         x0,[x8]
	bl          __bitmap_test
	mov         w0,w0
	cmp         w0,#0
	bne         |$LN9@AuDMAPoolF|
|$LN10@AuDMAPoolF|

; 256  : 		//release lock
; 257  : 		return;

	b           |$LN1@AuDMAPoolF|
|$LN9@AuDMAPoolF|

; 258  : 	}
; 259  : 
; 260  : 	__bitmap_clear(page->bitmap, slot);

	ldr         x8,[sp,#8]
	add         x8,x8,#0x18
	ldr         w1,[sp]
	ldr         x0,[x8]
	bl          __bitmap_clear

; 261  : 	page->in_use--;

	ldr         x8,[sp,#8]
	add         x8,x8,#0x10
	ldr         w8,[x8]
	sub         w9,w8,#1
	ldr         x8,[sp,#8]
	add         x8,x8,#0x10
	str         w9,[x8]

; 262  : 	pool->total_frees++;

	ldr         x8,[sp,#0x10]
	add         x8,x8,#0x50
	ldr         x8,[x8]
	add         x9,x8,#1
	ldr         x8,[sp,#0x10]
	add         x8,x8,#0x50
	str         x9,[x8]
|$LN1@AuDMAPoolF|
	add         sp,sp,#0x30
	ldr         lr,[sp],#0x10
	ret

	ENDP  ; |AuDMAPoolFree|

; Function compile flags: /Odtpy
; File C:\Users\paras\source\repos\grep-name\XenevaOS\KernelAA64\Mm\dma.c

	AREA	|.text$mn|, CODE, ARM64

|AuDMAPoolAlloc| PROC

; 185  : void* AuDMAPoolAlloc(AuDMAPool* pool, uint64_t* phys_out) {

|$LN12|
	str         lr,[sp,#-0x10]!
	sub         sp,sp,#0x30
	str         x0,[sp,#0x10]
	str         x1,[sp,#0x20]

; 186  : 	if (!pool || !phys_out)

	ldr         x8,[sp,#0x10]
	cmp         x8,#0
	beq         |$LN5@AuDMAPoolA|
	ldr         x8,[sp,#0x20]
	cmp         x8,#0
	bne         |$LN4@AuDMAPoolA|
|$LN5@AuDMAPoolA|

; 187  : 		return NULL;

	mov         x0,#0
	b           |$LN1@AuDMAPoolA|
|$LN4@AuDMAPoolA|

; 188  : 
; 189  : 	AuDMAPage* page = pool->pages;

	ldr         x8,[sp,#0x10]
	add         x8,x8,#0x40
	ldr         x8,[x8]
	str         x8,[sp,#8]

; 190  : 	int slot = -1;

	mov         w8,#-1
	str         w8,[sp]
|$LN2@AuDMAPoolA|

; 191  : 
; 192  : 	while (page) {

	ldr         x8,[sp,#8]
	cmp         x8,#0
	beq         |$LN3@AuDMAPoolA|

; 193  : 		if (page->in_use < page->slots) { 

	ldr         x8,[sp,#8]
	add         x10,x8,#0x10
	ldr         x8,[sp,#8]
	add         x8,x8,#0x14
	ldr         w9,[x8]
	ldr         w8,[x10]
	cmp         w8,w9
	bhs         |$LN6@AuDMAPoolA|

; 194  : 			slot = _dma_page_find_slot(page, pool); 

	ldr         x1,[sp,#0x10]
	ldr         x0,[sp,#8]
	bl          _dma_page_find_slot
	mov         w0,w0
	str         w0,[sp]

; 195  : 			if (slot >= 0)

	ldr         w8,[sp]
	cmp         w8,#0
	blt         |$LN7@AuDMAPoolA|

; 196  : 				break;

	b           |$LN3@AuDMAPoolA|
|$LN7@AuDMAPoolA|
|$LN6@AuDMAPoolA|

; 197  : 		}
; 198  : 		page = page->next;

	ldr         x8,[sp,#8]
	add         x8,x8,#0x20
	ldr         x8,[x8]
	str         x8,[sp,#8]

; 199  : 	}

	b           |$LN2@AuDMAPoolA|
|$LN3@AuDMAPoolA|

; 200  : 
; 201  : 	if (slot < 0) {

	ldr         w8,[sp]
	cmp         w8,#0
	bge         |$LN8@AuDMAPoolA|

; 202  : 		page = _dma_pool_add_page(pool);

	ldr         x0,[sp,#0x10]
	bl          _dma_pool_add_page
	str         x0,[sp,#8]

; 203  : 		if (!page)

	ldr         x8,[sp,#8]
	cmp         x8,#0
	bne         |$LN9@AuDMAPoolA|

; 204  : 			return NULL;

	mov         x0,#0
	b           |$LN1@AuDMAPoolA|
|$LN9@AuDMAPoolA|

; 205  : 
; 206  : 		slot = _dma_page_find_slot(page, pool);

	ldr         x1,[sp,#0x10]
	ldr         x0,[sp,#8]
	bl          _dma_page_find_slot
	mov         w0,w0
	str         w0,[sp]

; 207  : 		if (slot < 0) 

	ldr         w8,[sp]
	cmp         w8,#0
	bge         |$LN10@AuDMAPoolA|

; 208  : 			return NULL;

	mov         x0,#0
	b           |$LN1@AuDMAPoolA|
|$LN10@AuDMAPoolA|
|$LN8@AuDMAPoolA|

; 209  : 	}
; 210  : 
; 211  : 	__bitmap_set(page->bitmap, (uint32_t)slot);

	ldr         x8,[sp,#8]
	add         x8,x8,#0x18
	ldr         w1,[sp]
	ldr         x0,[x8]
	bl          __bitmap_set

; 212  : 	page->in_use++;

	ldr         x8,[sp,#8]
	add         x8,x8,#0x10
	ldr         w8,[x8]
	add         w9,w8,#1
	ldr         x8,[sp,#8]
	add         x8,x8,#0x10
	str         w9,[x8]

; 213  : 	pool->total_allocs++;

	ldr         x8,[sp,#0x10]
	add         x8,x8,#0x48
	ldr         x8,[x8]
	add         x9,x8,#1
	ldr         x8,[sp,#0x10]
	add         x8,x8,#0x48
	str         x9,[x8]

; 214  : 
; 215  : 	uint64_t offset = (uint64_t)slot * pool->alloc_sz;

	ldr         w8,[sp]
	sxtw        x9,w8
	ldr         x8,[sp,#0x10]
	add         x8,x8,#0x20
	ldr         x8,[x8]
	mul         x8,x9,x8
	str         x8,[sp,#0x18]

; 216  : 	void* virt = (uint8_t*)page->virt + offset;

	ldr         x8,[sp,#8]
	ldr         x9,[x8]
	ldr         x8,[sp,#0x18]
	add         x8,x9,x8
	str         x8,[sp,#0x28]

; 217  : 	*phys_out = page->phys + offset;

	ldr         x8,[sp,#8]
	add         x8,x8,#8
	ldr         x9,[x8]
	ldr         x8,[sp,#0x18]
	add         x9,x9,x8
	ldr         x8,[sp,#0x20]
	str         x9,[x8]

; 218  : 
; 219  : 	memset(virt, 0, pool->alloc_sz);

	ldr         x8,[sp,#0x10]
	add         x8,x8,#0x20
	ldr         x8,[x8]
	mov         w2,w8
	mov         w2,w2
	mov         w1,#0
	ldr         x0,[sp,#0x28]
	bl          memset

; 220  : 	return virt;

	ldr         x0,[sp,#0x28]
|$LN1@AuDMAPoolA|
	add         sp,sp,#0x30
	ldr         lr,[sp],#0x10
	ret

	ENDP  ; |AuDMAPoolAlloc|

; Function compile flags: /Odtpy
; File C:\Users\paras\source\repos\grep-name\XenevaOS\KernelAA64\Mm\dma.c

	AREA	|.text$mn|, CODE, ARM64

|AuDMAPoolCreate| PROC

; 139  : AuDMAPool* AuDMAPoolCreate(const char* name, size_t alloc_sz, size_t align, size_t boundary) {

|$LN15|
	str         lr,[sp,#-0x10]!
	sub         sp,sp,#0x30
	str         x0,[sp,#0x28]
	str         x1,[sp,#0x10]
	str         x2,[sp,#0x18]
	str         x3,[sp,#0x20]

; 140  : 	if (!alloc_sz)

	ldr         x8,[sp,#0x10]
	cmp         x8,#0
	bne         |$LN5@AuDMAPoolC|

; 141  : 		return NULL;

	mov         x0,#0
	b           |$LN1@AuDMAPoolC|
|$LN5@AuDMAPoolC|

; 142  : 	if (!align)

	ldr         x8,[sp,#0x18]
	cmp         x8,#0
	bne         |$LN6@AuDMAPoolC|

; 143  : 		align = 1;

	mov         x8,#1
	str         x8,[sp,#0x18]
|$LN6@AuDMAPoolC|

; 144  : 	if (!is_power_of_two(align))

	ldr         x0,[sp,#0x18]
	bl          is_power_of_two
	mov         w0,w0
	cmp         w0,#0
	bne         |$LN7@AuDMAPoolC|

; 145  : 		return NULL;

	mov         x0,#0
	b           |$LN1@AuDMAPoolC|
|$LN7@AuDMAPoolC|

; 146  : 	if (boundary && !is_power_of_two(boundary))

	ldr         x8,[sp,#0x20]
	cmp         x8,#0
	beq         |$LN8@AuDMAPoolC|
	ldr         x0,[sp,#0x20]
	bl          is_power_of_two
	mov         w0,w0
	cmp         w0,#0
	bne         |$LN8@AuDMAPoolC|

; 147  : 		return NULL;

	mov         x0,#0
	b           |$LN1@AuDMAPoolC|
|$LN8@AuDMAPoolC|

; 148  : 
; 149  : 	if (align > 4096)

	ldr         x8,[sp,#0x18]
	cmp         x8,#1,lsl #0xC
	bls         |$LN9@AuDMAPoolC|

; 150  : 		return NULL;

	mov         x0,#0
	b           |$LN1@AuDMAPoolC|
|$LN9@AuDMAPoolC|

; 151  : 
; 152  : 	alloc_sz = dma_align_up(alloc_sz, align);

	ldr         x1,[sp,#0x18]
	ldr         x0,[sp,#0x10]
	bl          dma_align_up
	str         x0,[sp,#0x10]

; 153  : 
; 154  : 	if (alloc_sz > 4096)

	ldr         x8,[sp,#0x10]
	cmp         x8,#1,lsl #0xC
	bls         |$LN10@AuDMAPoolC|

; 155  : 		return NULL;

	mov         x0,#0
	b           |$LN1@AuDMAPoolC|
|$LN10@AuDMAPoolC|

; 156  : 
; 157  : 	if (boundary && alloc_sz > boundary)

	ldr         x8,[sp,#0x20]
	cmp         x8,#0
	beq         |$LN11@AuDMAPoolC|
	ldr         x9,[sp,#0x20]
	ldr         x8,[sp,#0x10]
	cmp         x8,x9
	bls         |$LN11@AuDMAPoolC|

; 158  : 		return NULL;

	mov         x0,#0
	b           |$LN1@AuDMAPoolC|
|$LN11@AuDMAPoolC|

; 159  : 
; 160  : 	AuDMAPool* pool = (AuDMAPool*)kmalloc(sizeof(AuDMAPool));

	mov         w0,#0x58
	bl          kmalloc
	str         x0,[sp,#8]

; 161  : 	if (!pool)

	ldr         x8,[sp,#8]
	cmp         x8,#0
	bne         |$LN12@AuDMAPoolC|

; 162  : 		return NULL;

	mov         x0,#0
	b           |$LN1@AuDMAPoolC|
|$LN12@AuDMAPoolC|

; 163  : 
; 164  : 	memset(pool, 0, sizeof(AuDMAPool));

	mov         w2,#0x58
	mov         w1,#0
	ldr         x0,[sp,#8]
	bl          memset

; 165  : 
; 166  : 	for (int i = 0; i < 31 && name && name[i]; i++)

	mov         w8,#0
	str         w8,[sp]
	b           |$LN4@AuDMAPoolC|
|$LN2@AuDMAPoolC|
	ldr         w8,[sp]
	add         w8,w8,#1
	str         w8,[sp]
|$LN4@AuDMAPoolC|
	ldr         w8,[sp]
	cmp         w8,#0x1F
	bge         |$LN3@AuDMAPoolC|
	ldr         x8,[sp,#0x28]
	cmp         x8,#0
	beq         |$LN3@AuDMAPoolC|
	ldr         w8,[sp]
	sxtw        x9,w8
	mov         x8,#1
	mul         x9,x9,x8
	ldr         x8,[sp,#0x28]
	add         x8,x8,x9
	ldrsb       w8,[x8]
	mov         w8,w8
	cmp         w8,#0
	beq         |$LN3@AuDMAPoolC|

; 167  : 		pool->name[i] = name[i];

	ldr         w8,[sp]
	sxtw        x9,w8
	mov         x8,#1
	mul         x9,x9,x8
	ldr         x8,[sp,#0x28]
	add         x11,x8,x9
	ldr         x10,[sp,#8]
	ldr         w8,[sp]
	sxtw        x9,w8
	mov         x8,#1
	mul         x8,x9,x8
	add         x9,x10,x8
	ldrsb       w8,[x11]
	strb        w8,[x9]
	b           |$LN2@AuDMAPoolC|
|$LN3@AuDMAPoolC|

; 168  : 
; 169  : 	pool->alloc_sz = alloc_sz;

	ldr         x8,[sp,#8]
	add         x9,x8,#0x20
	ldr         x8,[sp,#0x10]
	str         x8,[x9]

; 170  : 	pool->align = align;

	ldr         x8,[sp,#8]
	add         x9,x8,#0x28
	ldr         x8,[sp,#0x18]
	str         x8,[x9]

; 171  : 	pool->boundary = boundary;

	ldr         x8,[sp,#8]
	add         x9,x8,#0x30
	ldr         x8,[sp,#0x20]
	str         x8,[x9]

; 172  : 	pool->slots_per_page = (uint32_t)(0x1000 / alloc_sz);

	mov         x9,#0x1000
	ldr         x8,[sp,#0x10]
	cbnz        x8,|$LN14@AuDMAPoolC|
	brk         #0xF004
|$LN14@AuDMAPoolC|
	udiv        x8,x9,x8
	mov         w9,w8
	ldr         x8,[sp,#8]
	add         x8,x8,#0x38
	str         w9,[x8]

; 173  : 	pool->pages = NULL;

	ldr         x8,[sp,#8]
	add         x9,x8,#0x40
	mov         x8,#0
	str         x8,[x9]

; 174  : 	pool->total_allocs = 0;

	ldr         x8,[sp,#8]
	add         x9,x8,#0x48
	mov         x8,#0
	str         x8,[x9]

; 175  : 	pool->total_frees = 0;

	ldr         x8,[sp,#8]
	add         x9,x8,#0x50
	mov         x8,#0
	str         x8,[x9]

; 176  : 
; 177  : 	return pool;

	ldr         x0,[sp,#8]
|$LN1@AuDMAPoolC|
	add         sp,sp,#0x30
	ldr         lr,[sp],#0x10
	ret

	ENDP  ; |AuDMAPoolCreate|

	END
