; Listing generated by Microsoft (R) Optimizing Compiler Version 19.29.30159.0 

	TTL	C:\Users\paras\source\repos\grep-name\XenevaOS\KernelAA64\ARM64\Debug\dtb.obj
	ARM64

	AREA	|.drectve|, DRECTVE


	AREA	|.data|, DATA
	 COMMON	|dtbAddress|, 0x8

	EXPORT	|AuDTBSwap32|
	EXPORT	|AuDTBSwap64|
	EXPORT	|AuDTBSwap16|
	EXPORT	|AuDeviceTreeFindProperty|
	EXPORT	|AuDeviceTreeGetNode|
	EXPORT	|AuDeviceTreeGetAddressCells|
	EXPORT	|AuDeviceTreeGetSizeCells|
	EXPORT	|AuDeviceTreeGetRegAddress|
	EXPORT	|AuDeviceTreeGetRegSize|
	EXPORT	|AuDeviceTreeInitialize|
	EXPORT	|AuDeviceTreeMapMMIO|
	EXPORT	|AuDeviceTreeGetSubNode|
	EXPORT	|AuDeviceTreeFindPropertyInternal|
	IMPORT	|AuTextOut|
	IMPORT	|strcmp|
	IMPORT	|strlen|
	IMPORT	|memcmp|
	IMPORT	|P2V|

	AREA	|.pdata|, PDATA
|$pdata$AuDTBSwap32| DCD imagerel |$LN3|
	DCD	0x800089
	;Flags[SingleProEpi] functionLength[136] RegF[0] RegI[0] H[0] frameChainReturn[UnChained] frameSize[16]
|$pdata$AuDTBSwap64| DCD imagerel |$LN3|
	DCD	0x800125
	;Flags[SingleProEpi] functionLength[292] RegF[0] RegI[0] H[0] frameChainReturn[UnChained] frameSize[16]
|$pdata$AuDTBSwap16| DCD imagerel |$LN3|
	DCD	0x800055
	;Flags[SingleProEpi] functionLength[84] RegF[0] RegI[0] H[0] frameChainReturn[UnChained] frameSize[16]
|$pdata$AuDeviceTreeFindProperty| DCD imagerel |$LN4|
	DCD	0x2200089
	;Flags[SingleProEpi] functionLength[136] RegF[0] RegI[0] H[0] frameChainReturn[UnChainedSavedLR] frameSize[64]
|$pdata$AuDeviceTreeGetNode| DCD imagerel |$LN4|
	DCD	0x22000b5
	;Flags[SingleProEpi] functionLength[180] RegF[0] RegI[0] H[0] frameChainReturn[UnChainedSavedLR] frameSize[64]
|$pdata$AuDeviceTreeGetAddressCells| DCD imagerel |$LN5|
	DCD	0x1a00075
	;Flags[SingleProEpi] functionLength[116] RegF[0] RegI[0] H[0] frameChainReturn[UnChainedSavedLR] frameSize[48]
|$pdata$AuDeviceTreeGetSizeCells| DCD imagerel |$LN5|
	DCD	0x1a00075
	;Flags[SingleProEpi] functionLength[116] RegF[0] RegI[0] H[0] frameChainReturn[UnChainedSavedLR] frameSize[48]
|$pdata$AuDeviceTreeGetRegAddress| DCD imagerel |$LN7|
	DCD	0x1a000c1
	;Flags[SingleProEpi] functionLength[192] RegF[0] RegI[0] H[0] frameChainReturn[UnChainedSavedLR] frameSize[48]
|$pdata$AuDeviceTreeGetRegSize| DCD imagerel |$LN7|
	DCD	0x22000cd
	;Flags[SingleProEpi] functionLength[204] RegF[0] RegI[0] H[0] frameChainReturn[UnChainedSavedLR] frameSize[64]
|$pdata$AuDeviceTreeInitialize| DCD imagerel |$LN10|
	DCD	0x1a000e9
	;Flags[SingleProEpi] functionLength[232] RegF[0] RegI[0] H[0] frameChainReturn[UnChainedSavedLR] frameSize[48]
|$pdata$AuDeviceTreeMapMMIO| DCD imagerel |$LN4|
	DCD	0x1a00085
	;Flags[SingleProEpi] functionLength[132] RegF[0] RegI[0] H[0] frameChainReturn[UnChainedSavedLR] frameSize[48]
|$pdata$AuDeviceTreeGetSubNode| DCD imagerel |$LN19|
	DCD	0x2a0024d
	;Flags[SingleProEpi] functionLength[588] RegF[0] RegI[0] H[0] frameChainReturn[UnChainedSavedLR] frameSize[80]
|$pdata$AuDeviceTreeFindPropertyInternal| DCD imagerel |$LN15|
	DCD	0x22001f1
	;Flags[SingleProEpi] functionLength[496] RegF[0] RegI[0] H[0] frameChainReturn[UnChainedSavedLR] frameSize[64]
|$pdata$prefix_cmp| DCD imagerel |prefix_cmp|
	DCD	0x1a00059
	;Flags[SingleProEpi] functionLength[88] RegF[0] RegI[0] H[0] frameChainReturn[UnChainedSavedLR] frameSize[48]

	AREA	|.data|, DATA
|$SG2853| DCB	"#address-cells", 0x0
	%	1
|$SG2861| DCB	"#size-cells", 0x0
|$SG2878| DCB	"reg", 0x0
|$SG2893| DCB	"reg", 0x0
	%	4
|$SG2909| DCB	"DTB Magic : %x ", 0xd, 0xa, 0x0
	%	6
|$SG2918| DCB	"[aurora]: Device tree mmio %x mapped with page count : %"
	DCB	"d ", 0xd, 0xa, 0x0
; Function compile flags: /Odtpy
; File C:\Users\paras\source\repos\grep-name\XenevaOS\KernelAA64\dtb.c

	AREA	|.text$mn|, CODE, ARM64

|prefix_cmp| PROC

; 143  : static int prefix_cmp(const char* a, const char* b) {

	str         lr,[sp,#-0x10]!
	sub         sp,sp,#0x20
	str         x0,[sp,#0x10]
	str         x1,[sp,#8]

; 144  : 	return !memcmp(a, b, strlen(b));

	ldr         x0,[sp,#8]
	bl          strlen
	mov         x2,x0
	ldr         x1,[sp,#8]
	ldr         x0,[sp,#0x10]
	bl          memcmp
	mov         w0,w0
	cmp         w0,#0
	bne         |$LN3@prefix_cmp|
	mov         w8,#1
	str         w8,[sp]
	b           |$LN4@prefix_cmp|
|$LN3@prefix_cmp|
	mov         w8,#0
	str         w8,[sp]
|$LN4@prefix_cmp|
	ldr         w0,[sp]
	add         sp,sp,#0x20
	ldr         lr,[sp],#0x10
	ret

	ENDP  ; |prefix_cmp|

; Function compile flags: /Odtpy
; File C:\Users\paras\source\repos\grep-name\XenevaOS\KernelAA64\dtb.c

	AREA	|.text$mn|, CODE, ARM64

|AuDeviceTreeFindPropertyInternal| PROC

; 118  : 	uint32_t** out) {

|$LN15|
	str         lr,[sp,#-0x10]!
	sub         sp,sp,#0x30
	str         x0,[sp,#8]
	str         x1,[sp,#0x20]
	str         x2,[sp,#0x18]
	str         x3,[sp,#0x10]
|$LN2@AuDeviceTr|

; 119  : 	while ((*node & 0xFF000000) && (*node & 0xFF0000) && (*node & 0xFF00) && (*node & 0xFF))node++;

	ldr         x8,[sp,#8]
	ldr         w8,[x8]
	and         w8,w8,#0xFF000000
	cmp         w8,#0
	beq         |$LN3@AuDeviceTr|
	ldr         x8,[sp,#8]
	ldr         w8,[x8]
	and         w8,w8,#0xFF0000
	cmp         w8,#0
	beq         |$LN3@AuDeviceTr|
	ldr         x8,[sp,#8]
	ldr         w8,[x8]
	and         w8,w8,#0xFF00
	cmp         w8,#0
	beq         |$LN3@AuDeviceTr|
	ldr         x8,[sp,#8]
	ldr         w8,[x8]
	and         w8,w8,#0xFF
	cmp         w8,#0
	beq         |$LN3@AuDeviceTr|
	ldr         x8,[sp,#8]
	add         x8,x8,#4
	str         x8,[sp,#8]
	b           |$LN2@AuDeviceTr|
|$LN3@AuDeviceTr|

; 120  : 	node++;

	ldr         x8,[sp,#8]
	add         x8,x8,#4
	str         x8,[sp,#8]
|$LN4@AuDeviceTr|

; 121  : 
; 122  : 	while (1) {

	mov         w8,#1
	cmp         w8,#0
	beq         |$LN5@AuDeviceTr|
|$LN6@AuDeviceTr|

; 123  : 		while (AuDTBSwap32(*node) == 4) node++;

	ldr         x8,[sp,#8]
	ldr         w0,[x8]
	bl          AuDTBSwap32
	mov         w0,w0
	cmp         w0,#4
	bne         |$LN7@AuDeviceTr|
	ldr         x8,[sp,#8]
	add         x8,x8,#4
	str         x8,[sp,#8]
	b           |$LN6@AuDeviceTr|
|$LN7@AuDeviceTr|

; 124  : 		if (AuDTBSwap32(*node) == 2) return node + 1;

	ldr         x8,[sp,#8]
	ldr         w0,[x8]
	bl          AuDTBSwap32
	mov         w0,w0
	cmp         w0,#2
	bne         |$LN8@AuDeviceTr|
	ldr         x8,[sp,#8]
	add         x0,x8,#4
	b           |$LN1@AuDeviceTr|
|$LN8@AuDeviceTr|

; 125  : 		if (AuDTBSwap32(*node) == 3) {

	ldr         x8,[sp,#8]
	ldr         w0,[x8]
	bl          AuDTBSwap32
	mov         w0,w0
	cmp         w0,#3
	bne         |$LN9@AuDeviceTr|

; 126  : 			uint32_t len = AuDTBSwap32(node[1]);

	ldr         x8,[sp,#8]
	add         x8,x8,#4
	ldr         w0,[x8]
	bl          AuDTBSwap32
	mov         w0,w0
	str         w0,[sp,#4]

; 127  : 			uint32_t nameoff = AuDTBSwap32(node[2]);

	ldr         x8,[sp,#8]
	add         x8,x8,#8
	ldr         w0,[x8]
	bl          AuDTBSwap32
	mov         w0,w0
	str         w0,[sp]

; 128  : 			if (!strcmp(strings + nameoff, property)) {

	ldr         w8,[sp]
	uxtw        x9,w8
	ldr         x8,[sp,#0x20]
	add         x0,x8,x9
	ldr         x1,[sp,#0x18]
	bl          strcmp
	mov         w0,w0
	cmp         w0,#0
	bne         |$LN11@AuDeviceTr|

; 129  : 				*out = &node[1];

	ldr         x8,[sp,#8]
	add         x9,x8,#4
	ldr         x8,[sp,#0x10]
	str         x9,[x8]

; 130  : 				return NULL;

	mov         x0,#0
	b           |$LN1@AuDeviceTr|
|$LN11@AuDeviceTr|

; 131  : 			}
; 132  : 			node += 3;

	ldr         x8,[sp,#8]
	add         x8,x8,#0xC
	str         x8,[sp,#8]

; 133  : 			node += (len + 3) / 4;

	ldr         w8,[sp,#4]
	add         w9,w8,#3
	mov         w8,#4
	udiv        w8,w9,w8
	uxtw        x9,w8
	mov         x8,#4
	mul         x9,x9,x8
	ldr         x8,[sp,#8]
	add         x8,x8,x9
	str         x8,[sp,#8]

; 134  : 
; 135  : 		}

	b           |$LN10@AuDeviceTr|
|$LN9@AuDeviceTr|

; 136  : 		else if (AuDTBSwap32(*node) == 1) {

	ldr         x8,[sp,#8]
	ldr         w0,[x8]
	bl          AuDTBSwap32
	mov         w0,w0
	cmp         w0,#1
	bne         |$LN12@AuDeviceTr|

; 137  : 			node = AuDeviceTreeFindPropertyInternal(node + 1, strings, property, out);

	ldr         x8,[sp,#8]
	add         x0,x8,#4
	ldr         x3,[sp,#0x10]
	ldr         x2,[sp,#0x18]
	ldr         x1,[sp,#0x20]
	bl          AuDeviceTreeFindPropertyInternal
	str         x0,[sp,#8]

; 138  : 			if (!node) return NULL;

	ldr         x8,[sp,#8]
	cmp         x8,#0
	bne         |$LN13@AuDeviceTr|
	mov         x0,#0
	b           |$LN1@AuDeviceTr|
|$LN13@AuDeviceTr|
|$LN12@AuDeviceTr|
|$LN10@AuDeviceTr|

; 139  : 		}
; 140  : 	}

	b           |$LN4@AuDeviceTr|
|$LN5@AuDeviceTr|
|$LN1@AuDeviceTr|
	add         sp,sp,#0x30
	ldr         lr,[sp],#0x10
	ret

	ENDP  ; |AuDeviceTreeFindPropertyInternal|

; Function compile flags: /Odtpy
; File C:\Users\paras\source\repos\grep-name\XenevaOS\KernelAA64\dtb.c

	AREA	|.text$mn|, CODE, ARM64

|AuDeviceTreeGetSubNode| PROC

; 88   : 	int (*cmp)(const char* a, const char* b)) {

|$LN19|
	str         lr,[sp,#-0x10]!
	sub         sp,sp,#0x40
	str         x0,[sp,#8]
	str         x1,[sp,#0x28]
	str         x2,[sp,#0x20]
	str         x3,[sp,#0x18]
	str         x4,[sp,#0x10]
|$LN2@AuDeviceTr|

; 89   : 	while (AuDTBSwap32(*node) == 4)node++;

	ldr         x8,[sp,#8]
	ldr         w0,[x8]
	bl          AuDTBSwap32
	mov         w0,w0
	cmp         w0,#4
	bne         |$LN3@AuDeviceTr|
	ldr         x8,[sp,#8]
	add         x8,x8,#4
	str         x8,[sp,#8]
	b           |$LN2@AuDeviceTr|
|$LN3@AuDeviceTr|

; 90   : 	if (AuDTBSwap32(*node) == 9) return NULL;

	ldr         x8,[sp,#8]
	ldr         w0,[x8]
	bl          AuDTBSwap32
	mov         w0,w0
	cmp         w0,#9
	bne         |$LN10@AuDeviceTr|
	mov         x0,#0
	b           |$LN1@AuDeviceTr|
|$LN10@AuDeviceTr|

; 91   : 	if (AuDTBSwap32(*node) != 1) return NULL;

	ldr         x8,[sp,#8]
	ldr         w0,[x8]
	bl          AuDTBSwap32
	mov         w0,w0
	cmp         w0,#1
	beq         |$LN11@AuDeviceTr|
	mov         x0,#0
	b           |$LN1@AuDeviceTr|
|$LN11@AuDeviceTr|

; 92   : 	node++;

	ldr         x8,[sp,#8]
	add         x8,x8,#4
	str         x8,[sp,#8]

; 93   : 
; 94   : 	char* nodename = (char*)node;

	ldr         x8,[sp,#8]
	str         x8,[sp,#0x30]

; 95   : 	if (cmp((char*)node, name)) {

	ldr         x1,[sp,#0x20]
	ldr         x0,[sp,#8]
	ldr         x8,[sp,#0x10]
	blr         x8
	mov         w0,w0
	cmp         w0,#0
	beq         |$LN12@AuDeviceTr|

; 96   : 		*node_out = node;

	ldr         x9,[sp,#0x18]
	ldr         x8,[sp,#8]
	str         x8,[x9]

; 97   : 		return NULL;

	mov         x0,#0
	b           |$LN1@AuDeviceTr|
|$LN12@AuDeviceTr|
|$LN4@AuDeviceTr|

; 98   : 	}
; 99   : 
; 100  : 	while ((*node & 0xFF000000) && (*node & 0xFF0000) && (*node & 0xFF00) && (*node & 0xFF))node++;

	ldr         x8,[sp,#8]
	ldr         w8,[x8]
	and         w8,w8,#0xFF000000
	cmp         w8,#0
	beq         |$LN5@AuDeviceTr|
	ldr         x8,[sp,#8]
	ldr         w8,[x8]
	and         w8,w8,#0xFF0000
	cmp         w8,#0
	beq         |$LN5@AuDeviceTr|
	ldr         x8,[sp,#8]
	ldr         w8,[x8]
	and         w8,w8,#0xFF00
	cmp         w8,#0
	beq         |$LN5@AuDeviceTr|
	ldr         x8,[sp,#8]
	ldr         w8,[x8]
	and         w8,w8,#0xFF
	cmp         w8,#0
	beq         |$LN5@AuDeviceTr|
	ldr         x8,[sp,#8]
	add         x8,x8,#4
	str         x8,[sp,#8]
	b           |$LN4@AuDeviceTr|
|$LN5@AuDeviceTr|

; 101  : 	node++;

	ldr         x8,[sp,#8]
	add         x8,x8,#4
	str         x8,[sp,#8]
|$LN6@AuDeviceTr|

; 102  : 	while (1) {

	mov         w8,#1
	cmp         w8,#0
	beq         |$LN7@AuDeviceTr|
|$LN8@AuDeviceTr|

; 103  : 		while (AuDTBSwap32(*node) == 4) node++;

	ldr         x8,[sp,#8]
	ldr         w0,[x8]
	bl          AuDTBSwap32
	mov         w0,w0
	cmp         w0,#4
	bne         |$LN9@AuDeviceTr|
	ldr         x8,[sp,#8]
	add         x8,x8,#4
	str         x8,[sp,#8]
	b           |$LN8@AuDeviceTr|
|$LN9@AuDeviceTr|

; 104  : 		if (AuDTBSwap32(*node) == 2) return node + 1;

	ldr         x8,[sp,#8]
	ldr         w0,[x8]
	bl          AuDTBSwap32
	mov         w0,w0
	cmp         w0,#2
	bne         |$LN13@AuDeviceTr|
	ldr         x8,[sp,#8]
	add         x0,x8,#4
	b           |$LN1@AuDeviceTr|
|$LN13@AuDeviceTr|

; 105  : 		if (AuDTBSwap32(*node) == 3) {

	ldr         x8,[sp,#8]
	ldr         w0,[x8]
	bl          AuDTBSwap32
	mov         w0,w0
	cmp         w0,#3
	bne         |$LN14@AuDeviceTr|

; 106  : 			uint32_t len = AuDTBSwap32(node[1]);

	ldr         x8,[sp,#8]
	add         x8,x8,#4
	ldr         w0,[x8]
	bl          AuDTBSwap32
	mov         w0,w0
	str         w0,[sp]

; 107  : 			node += 3;

	ldr         x8,[sp,#8]
	add         x8,x8,#0xC
	str         x8,[sp,#8]

; 108  : 			node += (len + 3) / 4;

	ldr         w8,[sp]
	add         w9,w8,#3
	mov         w8,#4
	udiv        w8,w9,w8
	uxtw        x9,w8
	mov         x8,#4
	mul         x9,x9,x8
	ldr         x8,[sp,#8]
	add         x8,x8,x9
	str         x8,[sp,#8]

; 109  : 		}

	b           |$LN15@AuDeviceTr|
|$LN14@AuDeviceTr|

; 110  : 		else if (AuDTBSwap32(*node) == 1) {

	ldr         x8,[sp,#8]
	ldr         w0,[x8]
	bl          AuDTBSwap32
	mov         w0,w0
	cmp         w0,#1
	bne         |$LN16@AuDeviceTr|

; 111  : 			node = AuDeviceTreeGetSubNode(node, strings, name, node_out, cmp);

	ldr         x4,[sp,#0x10]
	ldr         x3,[sp,#0x18]
	ldr         x2,[sp,#0x20]
	ldr         x1,[sp,#0x28]
	ldr         x0,[sp,#8]
	bl          AuDeviceTreeGetSubNode
	str         x0,[sp,#8]

; 112  : 			if (!node) return NULL;

	ldr         x8,[sp,#8]
	cmp         x8,#0
	bne         |$LN17@AuDeviceTr|
	mov         x0,#0
	b           |$LN1@AuDeviceTr|
|$LN17@AuDeviceTr|
|$LN16@AuDeviceTr|
|$LN15@AuDeviceTr|

; 113  : 		}
; 114  : 	}

	b           |$LN6@AuDeviceTr|
|$LN7@AuDeviceTr|
|$LN1@AuDeviceTr|
	add         sp,sp,#0x40
	ldr         lr,[sp],#0x10
	ret

	ENDP  ; |AuDeviceTreeGetSubNode|

; Function compile flags: /Odtpy
; File C:\Users\paras\source\repos\grep-name\XenevaOS\KernelAA64\dtb.c

	AREA	|.text$mn|, CODE, ARM64

|AuDeviceTreeMapMMIO| PROC

; 289  : void AuDeviceTreeMapMMIO() {

|$LN4|
	str         lr,[sp,#-0x10]!
	sub         sp,sp,#0x20

; 290  : 	if (!dtbAddress)

	adrp        x8,dtbAddress
	ldr         x8,[x8,PageOffset(dtbAddress)]
	cmp         x8,#0
	bne         |$LN2@AuDeviceTr|

; 291  : 		return;

	b           |$LN1@AuDeviceTr|
|$LN2@AuDeviceTr|

; 292  : 	fdt_header_t* fdt = (fdt_header_t*)dtbAddress;

	adrp        x8,dtbAddress
	ldr         x8,[x8,PageOffset(dtbAddress)]
	str         x8,[sp,#0x10]

; 293  : 	int pageCount = AuDTBSwap32(fdt->totalSize) / 0x1000;

	ldr         x8,[sp,#0x10]
	add         x8,x8,#4
	ldr         w0,[x8]
	bl          AuDTBSwap32
	mov         w0,w0
	mov         w8,#0x1000
	udiv        w8,w0,w8
	str         w8,[sp]

; 294  : 	void* mmio = (void*)P2V((uint64_t)dtbAddress); //AuMapMMIO((uint64_t)dtbAddress, pageCount);

	adrp        x8,dtbAddress
	ldr         x0,[x8,PageOffset(dtbAddress)]
	bl          P2V
	str         x0,[sp,#8]

; 295  : 	dtbAddress = mmio;

	adrp        x9,dtbAddress
	ldr         x8,[sp,#8]
	str         x8,[x9,PageOffset(dtbAddress)]

; 296  : 	AuTextOut("[aurora]: Device tree mmio %x mapped with page count : %d \r\n",mmio, pageCount);

	ldr         w2,[sp]
	ldr         x1,[sp,#8]
	adrp        x8,|$SG2918|
	add         x0,x8,PageOffset(|$SG2918|)
	bl          AuTextOut
|$LN1@AuDeviceTr|
	add         sp,sp,#0x20
	ldr         lr,[sp],#0x10
	ret

	ENDP  ; |AuDeviceTreeMapMMIO|

; Function compile flags: /Odtpy
; File C:\Users\paras\source\repos\grep-name\XenevaOS\KernelAA64\dtb.c

	AREA	|.text$mn|, CODE, ARM64

|AuDeviceTreeInitialize| PROC

; 260  : void AuDeviceTreeInitialize(KERNEL_BOOT_INFO* info) {

|$LN10|
	str         lr,[sp,#-0x10]!
	sub         sp,sp,#0x20
	str         x0,[sp,#8]

; 261  : 	void* fdt_address = NULL; 

	mov         x8,#0
	str         x8,[sp]

; 262  : 	if (info->boot_type == BOOT_LITTLEBOOT_ARM64) {

	ldr         x8,[sp,#8]
	ldr         w8,[x8]
	cmp         w8,#3
	bne         |$LN2@AuDeviceTr|

; 263  : 		AuLittleBootProtocol* lb = (AuLittleBootProtocol*)info->driver_entry1;

	ldr         x8,[sp,#8]
	add         x8,x8,#0x78
	ldr         x8,[x8]
	str         x8,[sp,#0x10]

; 264  : 		if (!lb)

	ldr         x8,[sp,#0x10]
	cmp         x8,#0
	bne         |$LN4@AuDeviceTr|

; 265  : 			return;

	b           |$LN1@AuDeviceTr|
|$LN4@AuDeviceTr|

; 266  : 		fdt_address = lb->device_tree_base;

	ldr         x8,[sp,#0x10]
	add         x8,x8,#0x10
	ldr         x8,[x8]
	str         x8,[sp]

; 267  : 	}

	b           |$LN3@AuDeviceTr|
|$LN2@AuDeviceTr|

; 268  : 	else if (info->boot_type == BOOT_UEFI_ARM64) {

	ldr         x8,[sp,#8]
	ldr         w8,[x8]
	cmp         w8,#2
	bne         |$LN5@AuDeviceTr|

; 269  : 		fdt_address = info->apcode;

	ldr         x8,[sp,#8]
	add         x8,x8,#0xA8
	ldr         x8,[x8]
	str         x8,[sp]
|$LN5@AuDeviceTr|
|$LN3@AuDeviceTr|

; 270  : 	}
; 271  : 
; 272  : 	if (!fdt_address) {

	ldr         x8,[sp]
	cmp         x8,#0
	bne         |$LN6@AuDeviceTr|

; 273  : 		//AuTextOut("Device Tree Blob not found \r\n");
; 274  : 		return;

	b           |$LN1@AuDeviceTr|
|$LN6@AuDeviceTr|

; 275  : 	}
; 276  : 	fdt_header_t* dtb = (fdt_header_t*)fdt_address;

	ldr         x8,[sp]
	str         x8,[sp,#0x18]

; 277  : 	if (AuDTBSwap32(dtb->magic) != FDT_MAGIC) {

	ldr         x8,[sp,#0x18]
	ldr         w0,[x8]
	bl          AuDTBSwap32
	mov         w0,w0
	ldr         w8,|$LN9@AuDeviceTr|
	cmp         w0,w8
	beq         |$LN7@AuDeviceTr|

; 278  : 		//AuTextOut("[Aurora]:Device Tree invalid magic \r\n");
; 279  : 		return;

	b           |$LN1@AuDeviceTr|
|$LN7@AuDeviceTr|

; 280  : 	}
; 281  : 	AuTextOut("DTB Magic : %x \r\n", AuDTBSwap32(dtb->magic));

	ldr         x8,[sp,#0x18]
	ldr         w0,[x8]
	bl          AuDTBSwap32
	mov         w0,w0
	mov         w1,w0
	adrp        x8,|$SG2909|
	add         x0,x8,PageOffset(|$SG2909|)
	bl          AuTextOut

; 282  : 	dtbAddress = fdt_address;

	adrp        x9,dtbAddress
	ldr         x8,[sp]
	str         x8,[x9,PageOffset(dtbAddress)]
|$LN1@AuDeviceTr|
	add         sp,sp,#0x20
	ldr         lr,[sp],#0x10
	ret
|$LN9@AuDeviceTr|
	DCD         0xd00dfeed

	ENDP  ; |AuDeviceTreeInitialize|

; Function compile flags: /Odtpy
; File C:\Users\paras\source\repos\grep-name\XenevaOS\KernelAA64\dtb.c

	AREA	|.text$mn|, CODE, ARM64

|AuDeviceTreeGetRegSize| PROC

; 242  : uint64_t AuDeviceTreeGetRegSize(uint32_t* node, uint32_t addressCell, uint32_t sizeCell) {

|$LN7|
	str         lr,[sp,#-0x10]!
	sub         sp,sp,#0x30
	str         x0,[sp,#0x20]
	str         w1,[sp,#8]
	str         w2,[sp,#4]

; 243  : 	uint32_t* reg = AuDeviceTreeFindProperty(node, "reg");

	adrp        x8,|$SG2893|
	add         x1,x8,PageOffset(|$SG2893|)
	ldr         x0,[sp,#0x20]
	bl          AuDeviceTreeFindProperty
	str         x0,[sp,#0x18]

; 244  : 	if (reg) {

	ldr         x8,[sp,#0x18]
	cmp         x8,#0
	beq         |$LN5@AuDeviceTr|

; 245  : 		uint64_t size = 0;

	mov         x8,#0
	str         x8,[sp,#0x10]

; 246  : 		for (int i = 0; i < sizeCell; i++) {

	mov         w8,#0
	str         w8,[sp]
	b           |$LN4@AuDeviceTr|
|$LN2@AuDeviceTr|
	ldr         w8,[sp]
	add         w8,w8,#1
	str         w8,[sp]
|$LN4@AuDeviceTr|
	ldr         w9,[sp,#4]
	ldr         w8,[sp]
	cmp         w8,w9
	bhs         |$LN3@AuDeviceTr|

; 247  : 			size <<= 32;

	ldr         x8,[sp,#0x10]
	lsl         x8,x8,#0x20
	str         x8,[sp,#0x10]

; 248  : 			size |= AuDTBSwap32(reg[2 + addressCell + i]);

	ldr         w8,[sp,#8]
	add         w9,w8,#2
	ldr         w8,[sp]
	add         w8,w9,w8
	uxtw        x9,w8
	mov         x8,#4
	mul         x9,x9,x8
	ldr         x8,[sp,#0x18]
	add         x8,x8,x9
	ldr         w0,[x8]
	bl          AuDTBSwap32
	mov         w0,w0
	uxtw        x9,w0
	ldr         x8,[sp,#0x10]
	orr         x8,x8,x9
	str         x8,[sp,#0x10]

; 249  : 		}

	b           |$LN2@AuDeviceTr|
|$LN3@AuDeviceTr|

; 250  : 		return size;

	ldr         x0,[sp,#0x10]
	b           |$LN1@AuDeviceTr|
|$LN5@AuDeviceTr|

; 251  : 	}
; 252  : 	return 0;

	mov         x0,#0
|$LN1@AuDeviceTr|
	add         sp,sp,#0x30
	ldr         lr,[sp],#0x10
	ret

	ENDP  ; |AuDeviceTreeGetRegSize|

; Function compile flags: /Odtpy
; File C:\Users\paras\source\repos\grep-name\XenevaOS\KernelAA64\dtb.c

	AREA	|.text$mn|, CODE, ARM64

|AuDeviceTreeGetRegAddress| PROC

; 223  : uint64_t AuDeviceTreeGetRegAddress(uint32_t* node, uint32_t addressCell) {

|$LN7|
	str         lr,[sp,#-0x10]!
	sub         sp,sp,#0x20
	str         x0,[sp,#0x18]
	str         w1,[sp,#4]

; 224  : 	uint32_t* reg = AuDeviceTreeFindProperty(node, "reg");

	adrp        x8,|$SG2878|
	add         x1,x8,PageOffset(|$SG2878|)
	ldr         x0,[sp,#0x18]
	bl          AuDeviceTreeFindProperty
	str         x0,[sp,#0x10]

; 225  : 	if (reg) {

	ldr         x8,[sp,#0x10]
	cmp         x8,#0
	beq         |$LN5@AuDeviceTr|

; 226  : 		uint64_t addr = 0;

	mov         x8,#0
	str         x8,[sp,#8]

; 227  : 		for (int i = 0; i < addressCell; i++) {

	mov         w8,#0
	str         w8,[sp]
	b           |$LN4@AuDeviceTr|
|$LN2@AuDeviceTr|
	ldr         w8,[sp]
	add         w8,w8,#1
	str         w8,[sp]
|$LN4@AuDeviceTr|
	ldr         w9,[sp,#4]
	ldr         w8,[sp]
	cmp         w8,w9
	bhs         |$LN3@AuDeviceTr|

; 228  : 			addr <<= 32;

	ldr         x8,[sp,#8]
	lsl         x8,x8,#0x20
	str         x8,[sp,#8]

; 229  : 			addr |= AuDTBSwap32(reg[i+2]);

	ldr         w8,[sp]
	add         w8,w8,#2
	sxtw        x9,w8
	mov         x8,#4
	mul         x9,x9,x8
	ldr         x8,[sp,#0x10]
	add         x8,x8,x9
	ldr         w0,[x8]
	bl          AuDTBSwap32
	mov         w0,w0
	uxtw        x9,w0
	ldr         x8,[sp,#8]
	orr         x8,x8,x9
	str         x8,[sp,#8]

; 230  : 		}

	b           |$LN2@AuDeviceTr|
|$LN3@AuDeviceTr|

; 231  : 		return addr;

	ldr         x0,[sp,#8]
	b           |$LN1@AuDeviceTr|
|$LN5@AuDeviceTr|

; 232  : 	}
; 233  : 	return 0;

	mov         x0,#0
|$LN1@AuDeviceTr|
	add         sp,sp,#0x20
	ldr         lr,[sp],#0x10
	ret

	ENDP  ; |AuDeviceTreeGetRegAddress|

; Function compile flags: /Odtpy
; File C:\Users\paras\source\repos\grep-name\XenevaOS\KernelAA64\dtb.c

	AREA	|.text$mn|, CODE, ARM64

|AuDeviceTreeGetSizeCells| PROC

; 201  : uint32_t AuDeviceTreeGetSizeCells(uint32_t* node) {

|$LN5|
	str         lr,[sp,#-0x10]!
	sub         sp,sp,#0x20
	str         x0,[sp,#0x10]

; 202  : 	if (!dtbAddress)

	adrp        x8,dtbAddress
	ldr         x8,[x8,PageOffset(dtbAddress)]
	cmp         x8,#0
	bne         |$LN2@AuDeviceTr|

; 203  : 		return 0;

	mov         w0,#0
	b           |$LN1@AuDeviceTr|
|$LN2@AuDeviceTr|

; 204  : 	uint32_t* sizeCell = AuDeviceTreeFindProperty(node, "#size-cells");

	adrp        x8,|$SG2861|
	add         x1,x8,PageOffset(|$SG2861|)
	ldr         x0,[sp,#0x10]
	bl          AuDeviceTreeFindProperty
	str         x0,[sp,#8]

; 205  : 	if (sizeCell) {

	ldr         x8,[sp,#8]
	cmp         x8,#0
	beq         |$LN3@AuDeviceTr|

; 206  : 		uint32_t sizeSize = AuDTBSwap32(sizeCell[2]);

	ldr         x8,[sp,#8]
	add         x8,x8,#8
	ldr         w0,[x8]
	bl          AuDTBSwap32
	mov         w0,w0
	str         w0,[sp]

; 207  : 		return sizeSize;

	ldr         w0,[sp]
	b           |$LN1@AuDeviceTr|
|$LN3@AuDeviceTr|

; 208  : 	}
; 209  : 	return 0;

	mov         w0,#0
|$LN1@AuDeviceTr|
	add         sp,sp,#0x20
	ldr         lr,[sp],#0x10
	ret

	ENDP  ; |AuDeviceTreeGetSizeCells|

; Function compile flags: /Odtpy
; File C:\Users\paras\source\repos\grep-name\XenevaOS\KernelAA64\dtb.c

	AREA	|.text$mn|, CODE, ARM64

|AuDeviceTreeGetAddressCells| PROC

; 183  : uint32_t AuDeviceTreeGetAddressCells(uint32_t* node) {

|$LN5|
	str         lr,[sp,#-0x10]!
	sub         sp,sp,#0x20
	str         x0,[sp,#0x10]

; 184  : 	if (!dtbAddress)

	adrp        x8,dtbAddress
	ldr         x8,[x8,PageOffset(dtbAddress)]
	cmp         x8,#0
	bne         |$LN2@AuDeviceTr|

; 185  : 		return 0;

	mov         w0,#0
	b           |$LN1@AuDeviceTr|
|$LN2@AuDeviceTr|

; 186  : 	uint32_t* addressCell = AuDeviceTreeFindProperty(node, "#address-cells");

	adrp        x8,|$SG2853|
	add         x1,x8,PageOffset(|$SG2853|)
	ldr         x0,[sp,#0x10]
	bl          AuDeviceTreeFindProperty
	str         x0,[sp,#8]

; 187  : 	if (addressCell) {

	ldr         x8,[sp,#8]
	cmp         x8,#0
	beq         |$LN3@AuDeviceTr|

; 188  : 		uint32_t addressSize = AuDTBSwap32(addressCell[2]);

	ldr         x8,[sp,#8]
	add         x8,x8,#8
	ldr         w0,[x8]
	bl          AuDTBSwap32
	mov         w0,w0
	str         w0,[sp]

; 189  : 		return addressSize;

	ldr         w0,[sp]
	b           |$LN1@AuDeviceTr|
|$LN3@AuDeviceTr|

; 190  : 	}
; 191  : 	return 0;

	mov         w0,#0
|$LN1@AuDeviceTr|
	add         sp,sp,#0x20
	ldr         lr,[sp],#0x10
	ret

	ENDP  ; |AuDeviceTreeGetAddressCells|

; Function compile flags: /Odtpy
; File C:\Users\paras\source\repos\grep-name\XenevaOS\KernelAA64\dtb.c

	AREA	|.text$mn|, CODE, ARM64

|AuDeviceTreeGetNode| PROC

; 151  : uint32_t* AuDeviceTreeGetNode(const char* name) {

|$LN4|
	str         lr,[sp,#-0x10]!
	sub         sp,sp,#0x30
	str         x0,[sp,#0x10]

; 152  : 	if (!dtbAddress)

	adrp        x8,dtbAddress
	ldr         x8,[x8,PageOffset(dtbAddress)]
	cmp         x8,#0
	bne         |$LN2@AuDeviceTr|

; 153  : 		return 0;

	mov         x0,#0
	b           |$LN1@AuDeviceTr|
|$LN2@AuDeviceTr|

; 154  : 	fdt_header_t* fdt = (fdt_header_t*)dtbAddress;

	adrp        x8,dtbAddress
	ldr         x8,[x8,PageOffset(dtbAddress)]
	str         x8,[sp]

; 155  : 	char* dtb_strings = (char*)((uint64_t)dtbAddress + AuDTBSwap32(fdt->off_dt_strings));

	ldr         x8,[sp]
	add         x8,x8,#0xC
	ldr         w0,[x8]
	bl          AuDTBSwap32
	mov         w0,w0
	uxtw        x9,w0
	adrp        x8,dtbAddress
	ldr         x8,[x8,PageOffset(dtbAddress)]
	add         x8,x8,x9
	str         x8,[sp,#0x18]

; 156  : 	uint32_t* dtb_struct = (uint32_t*)((uint64_t)dtbAddress + AuDTBSwap32(fdt->off_dt_struct));

	ldr         x8,[sp]
	add         x8,x8,#8
	ldr         w0,[x8]
	bl          AuDTBSwap32
	mov         w0,w0
	uxtw        x9,w0
	adrp        x8,dtbAddress
	ldr         x8,[x8,PageOffset(dtbAddress)]
	add         x8,x8,x9
	str         x8,[sp,#0x20]

; 157  : 	uint32_t* out = NULL;

	mov         x8,#0
	str         x8,[sp,#8]

; 158  : 	AuDeviceTreeGetSubNode(dtb_struct, dtb_strings, name, &out, prefix_cmp);

	adrp        x8,prefix_cmp
	add         x4,x8,PageOffset(prefix_cmp)
	add         x3,sp,#8
	ldr         x2,[sp,#0x10]
	ldr         x1,[sp,#0x18]
	ldr         x0,[sp,#0x20]
	bl          AuDeviceTreeGetSubNode

; 159  : 	return out;

	ldr         x0,[sp,#8]
|$LN1@AuDeviceTr|
	add         sp,sp,#0x30
	ldr         lr,[sp],#0x10
	ret

	ENDP  ; |AuDeviceTreeGetNode|

; Function compile flags: /Odtpy
; File C:\Users\paras\source\repos\grep-name\XenevaOS\KernelAA64\dtb.c

	AREA	|.text$mn|, CODE, ARM64

|AuDeviceTreeFindProperty| PROC

; 168  : uint32_t* AuDeviceTreeFindProperty(uint32_t* node, const char* property) {

|$LN4|
	str         lr,[sp,#-0x10]!
	sub         sp,sp,#0x30
	str         x0,[sp,#0x20]
	str         x1,[sp,#0x10]

; 169  : 	if (!dtbAddress)

	adrp        x8,dtbAddress
	ldr         x8,[x8,PageOffset(dtbAddress)]
	cmp         x8,#0
	bne         |$LN2@AuDeviceTr|

; 170  : 		return NULL;

	mov         x0,#0
	b           |$LN1@AuDeviceTr|
|$LN2@AuDeviceTr|

; 171  : 	fdt_header_t* fdt = (fdt_header_t*)dtbAddress;

	adrp        x8,dtbAddress
	ldr         x8,[x8,PageOffset(dtbAddress)]
	str         x8,[sp,#8]

; 172  : 	char* dtb_strings = (char*)((uint64_t)dtbAddress + AuDTBSwap32(fdt->off_dt_strings));

	ldr         x8,[sp,#8]
	add         x8,x8,#0xC
	ldr         w0,[x8]
	bl          AuDTBSwap32
	mov         w0,w0
	uxtw        x9,w0
	adrp        x8,dtbAddress
	ldr         x8,[x8,PageOffset(dtbAddress)]
	add         x8,x8,x9
	str         x8,[sp,#0x18]

; 173  : 	uint32_t* out = NULL;

	mov         x8,#0
	str         x8,[sp]

; 174  : 	AuDeviceTreeFindPropertyInternal(node, dtb_strings, property, &out);

	mov         x3,sp
	ldr         x2,[sp,#0x10]
	ldr         x1,[sp,#0x18]
	ldr         x0,[sp,#0x20]
	bl          AuDeviceTreeFindPropertyInternal

; 175  : 	return out;

	ldr         x0,[sp]
|$LN1@AuDeviceTr|
	add         sp,sp,#0x30
	ldr         lr,[sp],#0x10
	ret

	ENDP  ; |AuDeviceTreeFindProperty|

; Function compile flags: /Odtpy
; File C:\Users\paras\source\repos\grep-name\XenevaOS\KernelAA64\dtb.c

	AREA	|.text$mn|, CODE, ARM64

|AuDTBSwap16| PROC

; 81   : uint16_t AuDTBSwap16(uint16_t from) {

|$LN3|
	sub         sp,sp,#0x10
	uxth        w8,w0
	strh        w8,[sp,#2]

; 82   : 	uint8_t a = from >> 8;

	ldrh        w8,[sp,#2]
	mov         w8,w8
	asr         w8,w8,#8
	uxtb        w8,w8
	strb        w8,[sp,#1]

; 83   : 	uint8_t b = from;

	ldrh        w8,[sp,#2]
	uxtb        w8,w8
	strb        w8,[sp]

; 84   : 	return (b << 8) | a;

	ldrb        w8,[sp]
	mov         w8,w8
	lsl         w9,w8,#8
	ldrb        w8,[sp,#1]
	mov         w8,w8
	orr         w8,w9,w8
	uxth        w0,w8
	mov         w0,w0
	add         sp,sp,#0x10
	ret

	ENDP  ; |AuDTBSwap16|

; Function compile flags: /Odtpy
; File C:\Users\paras\source\repos\grep-name\XenevaOS\KernelAA64\dtb.c

	AREA	|.text$mn|, CODE, ARM64

|AuDTBSwap64| PROC

; 64   : uint64_t AuDTBSwap64(uint64_t from) {

|$LN3|
	sub         sp,sp,#0x10
	str         x0,[sp,#8]

; 65   : 	uint8_t a = from >> 56;

	ldr         x8,[sp,#8]
	lsr         x8,x8,#0x38
	uxtb        w8,w8
	strb        w8,[sp,#7]

; 66   : 	uint8_t b = from >> 48;

	ldr         x8,[sp,#8]
	lsr         x8,x8,#0x30
	uxtb        w8,w8
	strb        w8,[sp,#6]

; 67   : 	uint8_t c = from >> 40;

	ldr         x8,[sp,#8]
	lsr         x8,x8,#0x28
	uxtb        w8,w8
	strb        w8,[sp,#5]

; 68   : 	uint8_t d = from >> 32;

	ldr         x8,[sp,#8]
	lsr         x8,x8,#0x20
	uxtb        w8,w8
	strb        w8,[sp,#4]

; 69   : 	uint8_t e = from >> 24;

	ldr         x8,[sp,#8]
	lsr         x8,x8,#0x18
	uxtb        w8,w8
	strb        w8,[sp,#3]

; 70   : 	uint8_t f = from >> 16;

	ldr         x8,[sp,#8]
	lsr         x8,x8,#0x10
	uxtb        w8,w8
	strb        w8,[sp,#2]

; 71   : 	uint8_t g = from >> 8;

	ldr         x8,[sp,#8]
	lsr         x8,x8,#8
	uxtb        w8,w8
	strb        w8,[sp,#1]

; 72   : 	uint8_t h = from;

	ldr         x8,[sp,#8]
	uxtb        w8,w8
	strb        w8,[sp]

; 73   : 	return ((uint64_t)h << 56) | ((uint64_t)g << 48) | ((uint64_t)f << 40) |

	ldrb        w8,[sp]
	mov         w8,w8
	sxtw        x8,w8
	lsl         x9,x8,#0x38
	ldrb        w8,[sp,#1]
	mov         w8,w8
	sxtw        x8,w8
	lsl         x8,x8,#0x30
	orr         x9,x9,x8
	ldrb        w8,[sp,#2]
	mov         w8,w8
	sxtw        x8,w8
	lsl         x8,x8,#0x28
	orr         x9,x9,x8
	ldrb        w8,[sp,#3]
	mov         w8,w8
	sxtw        x8,w8
	lsl         x8,x8,#0x20
	orr         x9,x9,x8
	ldrb        w8,[sp,#4]
	mov         w8,w8
	lsl         w8,w8,#0x18
	sxtw        x8,w8
	orr         x9,x9,x8
	ldrb        w8,[sp,#5]
	mov         w8,w8
	lsl         w8,w8,#0x10
	sxtw        x8,w8
	orr         x9,x9,x8
	ldrb        w8,[sp,#6]
	mov         w8,w8
	lsl         w8,w8,#8
	sxtw        x8,w8
	orr         x9,x9,x8
	ldrb        w8,[sp,#7]
	mov         w8,w8
	sxtw        x8,w8
	orr         x0,x9,x8
	add         sp,sp,#0x10
	ret

	ENDP  ; |AuDTBSwap64|

; Function compile flags: /Odtpy
; File C:\Users\paras\source\repos\grep-name\XenevaOS\KernelAA64\dtb.c

	AREA	|.text$mn|, CODE, ARM64

|AuDTBSwap32| PROC

; 52   : uint32_t AuDTBSwap32(uint32_t from) {

|$LN3|
	sub         sp,sp,#0x10
	str         w0,[sp,#4]

; 53   : 	uint8_t a = from >> 24;

	ldr         w8,[sp,#4]
	lsr         w8,w8,#0x18
	uxtb        w8,w8
	strb        w8,[sp,#3]

; 54   : 	uint8_t b = from >> 16;

	ldr         w8,[sp,#4]
	lsr         w8,w8,#0x10
	uxtb        w8,w8
	strb        w8,[sp,#2]

; 55   : 	uint8_t c = from >> 8;

	ldr         w8,[sp,#4]
	lsr         w8,w8,#8
	uxtb        w8,w8
	strb        w8,[sp,#1]

; 56   : 	uint8_t d = from;

	ldr         w8,[sp,#4]
	uxtb        w8,w8
	strb        w8,[sp]

; 57   : 	return (d << 24) | (c << 16) | (b << 8) | a;

	ldrb        w8,[sp]
	mov         w8,w8
	lsl         w9,w8,#0x18
	ldrb        w8,[sp,#1]
	mov         w8,w8
	lsl         w8,w8,#0x10
	orr         w9,w9,w8
	ldrb        w8,[sp,#2]
	mov         w8,w8
	lsl         w8,w8,#8
	orr         w9,w9,w8
	ldrb        w8,[sp,#3]
	mov         w8,w8
	orr         w0,w9,w8
	mov         w0,w0
	add         sp,sp,#0x10
	ret

	ENDP  ; |AuDTBSwap32|

	END
