; Listing generated by Microsoft (R) Optimizing Compiler Version 19.29.30159.0 

	TTL	C:\Users\paras\source\repos\grep-name\XenevaOS\KernelAA64\ARM64\Debug\ethernet.obj
	ARM64

	AREA	|.drectve|, DRECTVE

	EXPORT	|AuEthernetSend|
	EXPORT	|AuEthernetHandle|
	IMPORT	|list_get_at|
	IMPORT	|kmalloc|
	IMPORT	|kfree|
	IMPORT	|memset|
	IMPORT	|memcpy|
	IMPORT	|memcmp|
	IMPORT	|UARTDebugOut|
	IMPORT	|ARPHandlePacket|
	IMPORT	|IPv4HandlePacket|
	IMPORT	|AuSocketAdd|
	IMPORT	|AuRawSocketGetList|

	AREA	|.pdata|, PDATA
|$pdata$AuEthernetSend| DCD imagerel |$LN5|
	DCD	0x320013d
	;Flags[SingleProEpi] functionLength[316] RegF[0] RegI[0] H[0] frameChainReturn[UnChainedSavedLR] frameSize[96]
|$pdata$AuEthernetHandle| DCD imagerel |$LN14|
	DCD	0x32001a5
	;Flags[SingleProEpi] functionLength[420] RegF[0] RegI[0] H[0] frameChainReturn[UnChainedSavedLR] frameSize[96]

	AREA	|.data|, DATA
|$SG3191| DCB	"[aurora net]: ipv6 packet received ", 0xd, 0xa, 0x0
; Function compile flags: /Odtpy
; File C:\Users\paras\source\repos\grep-name\XenevaOS\KernelAA64\Net\ethernet.c

	AREA	|.text$mn|, CODE, ARM64

|AuEthernetHandle| PROC

; 58   : AU_EXTERN AU_EXPORT void AuEthernetHandle(void* data, int size, AuVFSNode* nic) {

|$LN14|
	str         lr,[sp,#-0x10]!
	sub         sp,sp,#0x50
	str         x0,[sp,#0x40]
	str         w1,[sp,#0x20]
	str         x2,[sp,#0x28]

; 59   : 	Ethernet* frame = (Ethernet*)data;

	ldr         x8,[sp,#0x40]
	str         x8,[sp,#0x18]

; 60   : 	AuNetworkDevice* ndev = (AuNetworkDevice*)nic->device;

	ldr         x8,[sp,#0x28]
	add         x8,x8,#0x50
	ldr         x8,[x8]
	str         x8,[sp,#0x38]

; 61   : 	if (!ndev)

	ldr         x8,[sp,#0x38]
	cmp         x8,#0
	bne         |$LN7@AuEthernet|

; 62   : 		return;

	b           |$LN1@AuEthernet|
|$LN7@AuEthernet|

; 63   : 
; 64   : 	list_t* raw_sockets = AuRawSocketGetList();

	bl          AuRawSocketGetList
	str         x0,[sp,#0x30]

; 65   : 	for (int i = 0; i < raw_sockets->pointer; i++) {

	mov         w8,#0
	str         w8,[sp]
	b           |$LN4@AuEthernet|
|$LN2@AuEthernet|
	ldr         w8,[sp]
	add         w8,w8,#1
	str         w8,[sp]
|$LN4@AuEthernet|
	ldr         x8,[sp,#0x30]
	ldr         w9,[x8]
	ldr         w8,[sp]
	cmp         w8,w9
	bhs         |$LN3@AuEthernet|

; 66   : 		AuSocket* sock = (AuSocket*)list_get_at(raw_sockets, i);

	ldr         w1,[sp]
	ldr         x0,[sp,#0x30]
	bl          list_get_at
	str         x0,[sp,#0x48]

; 67   : 		AuSocketAdd(sock, frame, size);

	ldr         w8,[sp,#0x20]
	sxtw        x2,w8
	ldr         x1,[sp,#0x18]
	ldr         x0,[sp,#0x48]
	bl          AuSocketAdd

; 68   : 	}

	b           |$LN2@AuEthernet|
|$LN3@AuEthernet|

; 69   : 
; 70   : 	char broadcast_mac[6] = { 0xFF,0xFF,0xFF,0xFF,0xFF,0xFF };

	mov         w8,#-1
	strb        w8,[sp,#8]
	mov         w8,#-1
	strb        w8,[sp,#9]
	mov         w8,#-1
	strb        w8,[sp,#0xA]
	mov         w8,#-1
	strb        w8,[sp,#0xB]
	mov         w8,#-1
	strb        w8,[sp,#0xC]
	mov         w8,#-1
	strb        w8,[sp,#0xD]

; 71   : 	if (!memcmp(frame->dest, ndev->mac, 6) || !memcmp(frame->dest, broadcast_mac, 6)) {

	ldr         x1,[sp,#0x38]
	ldr         x0,[sp,#0x18]
	mov         x2,#6
	bl          memcmp
	mov         w0,w0
	cmp         w0,#0
	beq         |$LN9@AuEthernet|
	ldr         x0,[sp,#0x18]
	mov         x2,#6
	add         x1,sp,#8
	bl          memcmp
	mov         w0,w0
	cmp         w0,#0
	bne         |$LN8@AuEthernet|
|$LN9@AuEthernet|

; 72   : 		switch (ntohs(frame->typeLen)) {

	ldr         x8,[sp,#0x18]
	add         x8,x8,#0xC
	ldrh        w8,[x8]
	mov         w8,w8
	and         w8,w8,#0xFF
	lsl         w9,w8,#8
	ldr         x8,[sp,#0x18]
	add         x8,x8,#0xC
	ldrh        w8,[x8]
	mov         w8,w8
	and         w8,w8,#0xFF00
	asr         w8,w8,#8
	orr         w8,w9,w8
	str         w8,[sp,#0x10]
	ldr         w8,[sp,#0x10]
	cmp         w8,#0x800
	beq         |$LN11@AuEthernet|
	ldr         w8,[sp,#0x10]
	cmp         w8,#0x806
	beq         |$LN10@AuEthernet|
	mov         w9,#0x86DD
	ldr         w8,[sp,#0x10]
	cmp         w8,w9
	beq         |$LN12@AuEthernet|
	b           |$LN5@AuEthernet|
|$LN10@AuEthernet|

; 73   : 		case ETHERNET_TYPE_ARP:
; 74   : 			ARPHandlePacket((void*)&frame->payload, nic);

	ldr         x8,[sp,#0x18]
	add         x0,x8,#0xE
	ldr         x1,[sp,#0x28]
	bl          ARPHandlePacket

; 75   : 			break;

	b           |$LN5@AuEthernet|
|$LN11@AuEthernet|

; 76   : 		case ETHERNET_TYPE_IPV4:
; 77   : 			IPv4HandlePacket((void*)&frame->payload, nic);

	ldr         x8,[sp,#0x18]
	add         x0,x8,#0xE
	ldr         x1,[sp,#0x28]
	bl          IPv4HandlePacket

; 78   : 			break;

	b           |$LN5@AuEthernet|
|$LN12@AuEthernet|

; 79   : 		case ETHERNET_TYPE_IPV6:
; 80   : 			UARTDebugOut("[aurora net]: ipv6 packet received \r\n");

	adrp        x8,|$SG3191|
	add         x0,x8,PageOffset(|$SG3191|)
	bl          UARTDebugOut
|$LN5@AuEthernet|
|$LN8@AuEthernet|
|$LN1@AuEthernet|
	add         sp,sp,#0x50
	ldr         lr,[sp],#0x10
	ret

	ENDP  ; |AuEthernetHandle|

; Function compile flags: /Odtpy
; File C:\Users\paras\source\repos\grep-name\XenevaOS\KernelAA64\Net\ethernet.c

	AREA	|.text$mn|, CODE, ARM64

|AuEthernetSend| PROC

; 112  : void AuEthernetSend(AuVFSNode* nic, void* data, size_t len, uint16_t type, uint8_t* dest) {

|$LN5|
	str         lr,[sp,#-0x10]!
	sub         sp,sp,#0x50
	str         x0,[sp,#0x10]
	str         x1,[sp,#0x30]
	str         x2,[sp,#0x20]
	uxth        w8,w3
	strh        w8,[sp]
	str         x4,[sp,#0x38]

; 113  : 	AuNetworkDevice* ndev = (AuNetworkDevice*)nic->device;

	ldr         x8,[sp,#0x10]
	add         x8,x8,#0x50
	ldr         x8,[x8]
	str         x8,[sp,#0x28]

; 114  : 	if (!ndev)

	ldr         x8,[sp,#0x28]
	cmp         x8,#0
	bne         |$LN2@AuEthernet|

; 115  : 		return;

	b           |$LN1@AuEthernet|
|$LN2@AuEthernet|

; 116  : 	size_t totalSz = sizeof(Ethernet) + len;

	ldr         x8,[sp,#0x20]
	add         x8,x8,#0xE
	str         x8,[sp,#0x18]

; 117  : 	Ethernet* pacl = (Ethernet*)kmalloc(totalSz);

	ldr         x8,[sp,#0x18]
	mov         w0,w8
	mov         w0,w0
	bl          kmalloc
	str         x0,[sp,#8]

; 118  : 	memset(pacl, 0, totalSz);

	ldr         x8,[sp,#0x18]
	mov         w2,w8
	mov         w2,w2
	mov         w1,#0
	ldr         x0,[sp,#8]
	bl          memset

; 119  : 	memcpy(&pacl->payload, data, len);

	ldr         x8,[sp,#8]
	add         x0,x8,#0xE
	ldr         x2,[sp,#0x20]
	ldr         x1,[sp,#0x30]
	bl          memcpy

; 120  : 	memcpy(pacl->dest, dest, 6);

	ldr         x0,[sp,#8]
	mov         x2,#6
	ldr         x1,[sp,#0x38]
	bl          memcpy

; 121  : 	uint8_t* src_mac = ndev->mac;

	ldr         x8,[sp,#0x28]
	str         x8,[sp,#0x40]

; 122  : 	memcpy(pacl->src, src_mac, 6);

	ldr         x8,[sp,#8]
	add         x0,x8,#6
	mov         x2,#6
	ldr         x1,[sp,#0x40]
	bl          memcpy

; 123  : 	pacl->typeLen = htons(type);

	ldrh        w8,[sp]
	mov         w8,w8
	and         w8,w8,#0xFF
	lsl         w9,w8,#8
	ldrh        w8,[sp]
	mov         w8,w8
	and         w8,w8,#0xFF00
	asr         w8,w8,#8
	orr         w10,w9,w8
	ldr         x8,[sp,#8]
	add         x9,x8,#0xC
	uxth        w8,w10
	strh        w8,[x9]

; 124  : 
; 125  : 	if (nic->write) {

	ldr         x8,[sp,#0x10]
	add         x8,x8,#0x78
	ldr         x8,[x8]
	cmp         x8,#0
	beq         |$LN3@AuEthernet|

; 126  : 		nic->write(nic, nic, (uint64_t*)pacl, totalSz);

	ldr         x8,[sp,#0x18]
	mov         w3,w8
	ldr         x8,[sp,#0x10]
	add         x8,x8,#0x78
	mov         w3,w3
	ldr         x2,[sp,#8]
	ldr         x1,[sp,#0x10]
	ldr         x0,[sp,#0x10]
	ldr         x8,[x8]
	blr         x8
|$LN3@AuEthernet|

; 127  : 	}
; 128  : 	kfree(pacl);

	ldr         x0,[sp,#8]
	bl          kfree
|$LN1@AuEthernet|
	add         sp,sp,#0x50
	ldr         lr,[sp],#0x10
	ret

	ENDP  ; |AuEthernetSend|

	END
