; Listing generated by Microsoft (R) Optimizing Compiler Version 19.29.30159.0 

	TTL	C:\Users\paras\source\repos\grep-name\XenevaOS\KernelAA64\ARM64\Debug\Ext2.obj
	ARM64

	AREA	|.drectve|, DRECTVE

	EXPORT	|Ext2Initialise|
	IMPORT	|AuVFSAddFileSystem|
	IMPORT	|AuVFSRegisterRoot|
	IMPORT	|AuVDiskRead|
	IMPORT	|kmalloc|
	IMPORT	|kfree|
	IMPORT	|AuPmmngrAlloc|
	IMPORT	|AuPmmngrFree|
	IMPORT	|strcpy|
	IMPORT	|memset|
	IMPORT	|memcpy|
	IMPORT	|AuTextOut|

	AREA	|.pdata|, PDATA
|$pdata$Ext2Initialise| DCD imagerel |$LN16|
	DCD	0x32005b1
	;Flags[SingleProEpi] functionLength[1456] RegF[0] RegI[0] H[0] frameChainReturn[UnChainedSavedLR] frameSize[96]

	AREA	|.data|, DATA
|$SG3159| DCB	"[aurora]: EXT2 Volume Label: %s ", 0xd, 0xa, 0x0
	%	5
|$SG3160| DCB	"[aurora]: ext2 block size: %d bytes ", 0xd, 0xa, 0x0
	%	1
|$SG3161| DCB	"[aurora]: ext2 inodes per group: %d ", 0xd, 0xa, 0x0
	%	1
|$SG3162| DCB	"[aurora]: ext2 mounted at %s ", 0xd, 0xa, 0x0
; Function compile flags: /Odtpy
; File C:\Users\paras\source\repos\grep-name\XenevaOS\KernelAA64\Fs\Ext2\Ext2.c

	AREA	|.text$mn|, CODE, ARM64

|Ext2Initialise| PROC

; 11   : AuVFSNode* Ext2Initialise(AuVDisk* vdisk, char* mountname) {

|$LN16|
	str         lr,[sp,#-0x10]!
	sub         sp,sp,#0x50
	str         x0,[sp,#0x30]
	str         x1,[sp,#0x38]

; 12   : 	uint64_t* buffer = (uint64_t*)AuPmmngrAlloc();

	bl          AuPmmngrAlloc
	str         x0,[sp,#0x18]

; 13   : 	memset(buffer, 0, 4096);

	mov         w2,#0x1000
	mov         w1,#0
	ldr         x0,[sp,#0x18]
	bl          memset

; 14   : 
; 15   : 	AuVDiskRead(vdisk, 2, 2, buffer);

	ldr         x3,[sp,#0x18]
	mov         w2,#2
	mov         x1,#2
	ldr         x0,[sp,#0x30]
	bl          AuVDiskRead

; 16   : 
; 17   : 	Ext2Fs* fs = (Ext2Fs*)kmalloc(sizeof(Ext2Fs));

	mov         w0,#0x42
	bl          kmalloc
	str         x0,[sp]

; 18   : 	memset(fs, 0, sizeof(Ext2Fs));

	mov         w2,#0x42
	mov         w1,#0
	ldr         x0,[sp]
	bl          memset

; 19   : 	fs->vdisk = (AuVFSNode*)vdisk;

	ldr         x8,[sp]
	add         x9,x8,#0x18
	ldr         x8,[sp,#0x30]
	str         x8,[x9]

; 20   : 
; 21   : 	fs->superblock = (Ext2Superblock*)kmalloc(sizeof(Ext2Superblock));

	mov         w0,#0x3C1
	bl          kmalloc
	ldr         x8,[sp]
	str         x0,[x8]

; 22   : 	memcpy(fs->superblock, buffer, sizeof(Ext2Superblock));

	ldr         x8,[sp]
	mov         x2,#0x3C1
	ldr         x1,[sp,#0x18]
	ldr         x0,[x8]
	bl          memcpy

; 23   : 
; 24   : 	if (fs->superblock->magic != EXT2_SUPER_BLOCK_MAGIC) {

	ldr         x8,[sp]
	ldr         x8,[x8]
	add         x8,x8,#0x38
	ldrh        w9,[x8]
	mov         w9,w9
	mov         w8,#0xEF53
	cmp         w9,w8
	beq         |$LN5@Ext2Initia|

; 25   : 		AuPmmngrFree(buffer);

	ldr         x0,[sp,#0x18]
	bl          AuPmmngrFree

; 26   : 		kfree(fs->superblock);

	ldr         x8,[sp]
	ldr         x0,[x8]
	bl          kfree

; 27   : 		kfree(fs);

	ldr         x0,[sp]
	bl          kfree

; 28   : 		return NULL;

	mov         x0,#0
	b           |$LN1@Ext2Initia|
|$LN5@Ext2Initia|

; 29   : 	}
; 30   : 
; 31   : 	fs->block_size = 1024 << fs->superblock->log_block_size;

	ldr         x8,[sp]
	ldr         x8,[x8]
	add         x8,x8,#0x18
	mov         w9,#0x400
	ldr         w8,[x8]
	lsl         w9,w9,w8
	ldr         x8,[sp]
	add         x8,x8,#0x20
	str         w9,[x8]

; 32   : 	fs->pointers_per_block = fs->block_size / 4;

	ldr         x8,[sp]
	add         x8,x8,#0x20
	ldr         w9,[x8]
	mov         w8,#4
	udiv        w9,w9,w8
	ldr         x8,[sp]
	add         x8,x8,#0x24
	str         w9,[x8]

; 33   : 	fs->inode_size = (fs->superblock->inode_size == 0) ? 128 : fs->superblock->inode_size;

	ldr         x8,[sp]
	ldr         x8,[x8]
	add         x8,x8,#0x58
	ldrh        w8,[x8]
	mov         w8,w8
	cmp         w8,#0
	bne         |$LN9@Ext2Initia|
	mov         w8,#0x80
	str         w8,[sp,#0x20]
	b           |$LN10@Ext2Initia|
|$LN9@Ext2Initia|
	ldr         x8,[sp]
	ldr         x8,[x8]
	add         x8,x8,#0x58
	ldrh        w8,[x8]
	mov         w8,w8
	str         w8,[sp,#0x20]
|$LN10@Ext2Initia|
	ldr         x8,[sp]
	add         x9,x8,#0x32
	ldr         w8,[sp,#0x20]
	str         w8,[x9]

; 34   : 
; 35   : 	fs->block_group_count = fs->superblock->blocks_count / fs->superblock->blocks_per_group;

	ldr         x8,[sp]
	ldr         x8,[x8]
	add         x9,x8,#4
	ldr         x8,[sp]
	ldr         x8,[x8]
	add         x8,x8,#0x20
	ldr         w9,[x9]
	ldr         w8,[x8]
	cbnz        w8,|$LN13@Ext2Initia|
	brk         #0xF004
|$LN13@Ext2Initia|
	udiv        w9,w9,w8
	ldr         x8,[sp]
	add         x8,x8,#0x2C
	str         w9,[x8]

; 36   : 	if ((fs->superblock->blocks_per_group * fs->block_group_count) < fs->superblock->blocks_count) {

	ldr         x8,[sp]
	ldr         x8,[x8]
	add         x9,x8,#0x20
	ldr         x8,[sp]
	add         x8,x8,#0x2C
	ldr         w9,[x9]
	ldr         w8,[x8]
	mul         w9,w9,w8
	ldr         x8,[sp]
	ldr         x8,[x8]
	add         x8,x8,#4
	ldr         w8,[x8]
	cmp         w9,w8
	bhs         |$LN6@Ext2Initia|

; 37   : 		fs->block_group_count += 1;

	ldr         x8,[sp]
	add         x8,x8,#0x2C
	ldr         w8,[x8]
	add         w9,w8,#1
	ldr         x8,[sp]
	add         x8,x8,#0x2C
	str         w9,[x8]
|$LN6@Ext2Initia|

; 38   : 	}
; 39   : 	fs->inodes_per_group = fs->superblock->inodes_count / fs->block_group_count;

	ldr         x8,[sp]
	ldr         x9,[x8]
	ldr         x8,[sp]
	add         x8,x8,#0x2C
	ldr         w9,[x9]
	ldr         w8,[x8]
	cbnz        w8,|$LN14@Ext2Initia|
	brk         #0xF004
|$LN14@Ext2Initia|
	udiv        w9,w9,w8
	ldr         x8,[sp]
	add         x8,x8,#0x28
	str         w9,[x8]

; 40   : 
; 41   : 	AuTextOut("[aurora]: EXT2 Volume Label: %s \r\n", fs->superblock->volume_name);

	ldr         x8,[sp]
	ldr         x8,[x8]
	add         x1,x8,#0x78
	adrp        x8,|$SG3159|
	add         x0,x8,PageOffset(|$SG3159|)
	bl          AuTextOut

; 42   : 	AuTextOut("[aurora]: ext2 block size: %d bytes \r\n", fs->block_size);

	ldr         x8,[sp]
	add         x8,x8,#0x20
	ldr         w1,[x8]
	adrp        x8,|$SG3160|
	add         x0,x8,PageOffset(|$SG3160|)
	bl          AuTextOut

; 43   : 	AuTextOut("[aurora]: ext2 inodes per group: %d \r\n", fs->inodes_per_group);

	ldr         x8,[sp]
	add         x8,x8,#0x28
	ldr         w1,[x8]
	adrp        x8,|$SG3161|
	add         x0,x8,PageOffset(|$SG3161|)
	bl          AuTextOut

; 44   : 	AuTextOut("[aurora]: ext2 mounted at %s \r\n", mountname);

	ldr         x1,[sp,#0x38]
	adrp        x8,|$SG3162|
	add         x0,x8,PageOffset(|$SG3162|)
	bl          AuTextOut

; 45   : 
; 46   : 	fs->bgd_offset = (fs->block_size > 1024) ? 1 : 2;

	ldr         x8,[sp]
	add         x8,x8,#0x20
	ldr         w8,[x8]
	cmp         w8,#0x400
	bls         |$LN11@Ext2Initia|
	mov         w8,#1
	str         w8,[sp,#0x24]
	b           |$LN12@Ext2Initia|
|$LN11@Ext2Initia|
	mov         w8,#2
	str         w8,[sp,#0x24]
|$LN12@Ext2Initia|
	ldr         x8,[sp]
	add         x9,x8,#0x31
	ldr         w8,[sp,#0x24]
	uxtb        w8,w8
	strb        w8,[x9]

; 47   : 
; 48   : 	uint32_t bgdt_bytes = fs->block_group_count * sizeof(Ext2BlockDescriptor);

	ldr         x8,[sp]
	add         x8,x8,#0x2C
	ldr         w8,[x8]
	uxtw        x9,w8
	mov         x8,#0x20
	mul         x8,x9,x8
	mov         w8,w8
	str         w8,[sp,#0x28]

; 49   : 	fs->bgd_block_span = bgdt_bytes / fs->block_size;

	ldr         x8,[sp]
	add         x8,x8,#0x20
	ldr         w9,[sp,#0x28]
	ldr         w8,[x8]
	cbnz        w8,|$LN15@Ext2Initia|
	brk         #0xF004
|$LN15@Ext2Initia|
	udiv        w10,w9,w8
	ldr         x8,[sp]
	add         x9,x8,#0x30
	uxtb        w8,w10
	strb        w8,[x9]

; 50   : 	if ((fs->bgd_block_span * fs->block_size) < bgdt_bytes) {

	ldr         x8,[sp]
	add         x8,x8,#0x30
	ldrb        w9,[x8]
	mov         w9,w9
	ldr         x8,[sp]
	add         x8,x8,#0x20
	ldr         w8,[x8]
	mul         w9,w9,w8
	ldr         w8,[sp,#0x28]
	cmp         w9,w8
	bhs         |$LN7@Ext2Initia|

; 51   : 		fs->bgd_block_span += 1;

	ldr         x8,[sp]
	add         x8,x8,#0x30
	ldrb        w8,[x8]
	mov         w8,w8
	add         w10,w8,#1
	ldr         x8,[sp]
	add         x9,x8,#0x30
	uxtb        w8,w10
	strb        w8,[x9]
|$LN7@Ext2Initia|

; 52   : 	}
; 53   : 
; 54   : 	fs->block_desc = (Ext2BlockDescriptor*)kmalloc(fs->block_size * fs->bgd_block_span);

	ldr         x8,[sp]
	add         x10,x8,#0x20
	ldr         x8,[sp]
	add         x8,x8,#0x30
	ldrb        w9,[x8]
	mov         w9,w9
	ldr         w8,[x10]
	mul         w0,w8,w9
	mov         w0,w0
	bl          kmalloc
	ldr         x8,[sp]
	add         x8,x8,#8
	str         x0,[x8]

; 55   : 	memset(fs->block_desc, 0, fs->block_size * fs->bgd_block_span);

	ldr         x8,[sp]
	add         x10,x8,#0x20
	ldr         x8,[sp]
	add         x8,x8,#0x30
	ldrb        w9,[x8]
	mov         w9,w9
	ldr         w8,[x10]
	mul         w2,w8,w9
	ldr         x8,[sp]
	add         x8,x8,#8
	mov         w2,w2
	mov         w1,#0
	ldr         x0,[x8]
	bl          memset

; 56   : 
; 57   : 	uint32_t sectors_per_block = fs->block_size / 512;

	ldr         x8,[sp]
	add         x8,x8,#0x20
	ldr         w9,[x8]
	mov         w8,#0x200
	udiv        w8,w9,w8
	str         w8,[sp,#0x2C]

; 58   : 	for (uint32_t i = 0; i < fs->bgd_block_span; ++i) {

	mov         w8,#0
	str         w8,[sp,#0x10]
	b           |$LN4@Ext2Initia|
|$LN2@Ext2Initia|
	ldr         w8,[sp,#0x10]
	add         w8,w8,#1
	str         w8,[sp,#0x10]
|$LN4@Ext2Initia|
	ldr         x8,[sp]
	add         x8,x8,#0x30
	ldrb        w9,[x8]
	mov         w9,w9
	ldr         w8,[sp,#0x10]
	cmp         w8,w9
	bhs         |$LN3@Ext2Initia|

; 59   : 		memset(buffer, 0, 4096);

	mov         w2,#0x1000
	mov         w1,#0
	ldr         x0,[sp,#0x18]
	bl          memset

; 60   : 		uint64_t target_lba = (fs->bgd_offset + i) * sectors_per_block;

	ldr         x8,[sp]
	add         x8,x8,#0x31
	ldrb        w9,[x8]
	mov         w9,w9
	ldr         w8,[sp,#0x10]
	add         w9,w9,w8
	ldr         w8,[sp,#0x2C]
	mul         w8,w9,w8
	uxtw        x8,w8
	str         x8,[sp,#0x40]

; 61   : 
; 62   : 		AuVDiskRead(vdisk, target_lba, sectors_per_block, buffer);

	ldr         x3,[sp,#0x18]
	ldr         w2,[sp,#0x2C]
	ldr         x1,[sp,#0x40]
	ldr         x0,[sp,#0x30]
	bl          AuVDiskRead

; 63   : 
; 64   : 		memcpy((uint8_t*)fs->block_desc + (i * fs->block_size), buffer, fs->block_size);

	ldr         x8,[sp]
	add         x8,x8,#0x20
	ldr         w8,[x8]
	uxtw        x2,w8
	ldr         x8,[sp]
	add         x10,x8,#8
	ldr         x8,[sp]
	add         x8,x8,#0x20
	ldr         w9,[sp,#0x10]
	ldr         w8,[x8]
	mul         w8,w9,w8
	uxtw        x9,w8
	ldr         x8,[x10]
	add         x0,x8,x9
	ldr         x1,[sp,#0x18]
	bl          memcpy

; 65   : 	}

	b           |$LN2@Ext2Initia|
|$LN3@Ext2Initia|

; 66   : 
; 67   : 	AuVFSNode* fsys = (AuVFSNode*)kmalloc(sizeof(AuVFSNode));

	mov         w0,#0xD0
	bl          kmalloc
	str         x0,[sp,#8]

; 68   : 	memset(fsys, 0, sizeof(AuVFSNode));

	mov         w2,#0xD0
	mov         w1,#0
	ldr         x0,[sp,#8]
	bl          memset

; 69   : 
; 70   : 	strcpy(fsys->filename, mountname);

	ldr         x0,[sp,#8]
	ldr         x1,[sp,#0x38]
	bl          strcpy

; 71   : 	fsys->flags |= FS_FLAG_FILE_SYSTEM | FS_FLAG_DIRECTORY;

	ldr         x8,[sp,#8]
	add         x8,x8,#0x40
	ldrh        w9,[x8]
	mov         w9,w9
	mov         w8,#0x42
	orr         w10,w9,w8
	ldr         x8,[sp,#8]
	add         x9,x8,#0x40
	uxth        w8,w10
	strh        w8,[x9]

; 72   : 	fsys->first_block = 2;

	ldr         x8,[sp,#8]
	add         x9,x8,#0x30
	mov         x8,#2
	str         x8,[x9]

; 73   : 	fsys->device = fs;

	ldr         x8,[sp,#8]
	add         x9,x8,#0x50
	ldr         x8,[sp]
	str         x8,[x9]

; 74   : 
; 75   : 	fsys->open = NULL;

	ldr         x8,[sp,#8]
	add         x9,x8,#0x60
	mov         x8,#0
	str         x8,[x9]

; 76   : 	fsys->read = NULL;

	ldr         x8,[sp,#8]
	add         x9,x8,#0x70
	mov         x8,#0
	str         x8,[x9]

; 77   : 	fsys->read_dir = NULL;

	ldr         x8,[sp,#8]
	add         x9,x8,#0xB0
	mov         x8,#0
	str         x8,[x9]

; 78   : 
; 79   : 	fsys->write = NULL;

	ldr         x8,[sp,#8]
	add         x9,x8,#0x78
	mov         x8,#0
	str         x8,[x9]

; 80   : 	fsys->create_dir = NULL;

	ldr         x8,[sp,#8]
	add         x9,x8,#0x80
	mov         x8,#0
	str         x8,[x9]

; 81   : 	fsys->create_file = NULL;

	ldr         x8,[sp,#8]
	add         x9,x8,#0x88
	mov         x8,#0
	str         x8,[x9]

; 82   : 
; 83   : 	vdisk->fsys = fsys;

	ldr         x8,[sp,#0x30]
	add         x9,x8,#0xB0
	ldr         x8,[sp,#8]
	str         x8,[x9]

; 84   : 	fs->root_node = fsys;

	ldr         x8,[sp]
	add         x9,x8,#0x10
	ldr         x8,[sp,#8]
	str         x8,[x9]

; 85   : 
; 86   : 	AuVFSAddFileSystem(fsys);

	ldr         x0,[sp,#8]
	bl          AuVFSAddFileSystem

; 87   : 	AuVFSRegisterRoot(fsys);

	ldr         x0,[sp,#8]
	bl          AuVFSRegisterRoot

; 88   : 
; 89   : 	AuPmmngrFree(buffer);

	ldr         x0,[sp,#0x18]
	bl          AuPmmngrFree

; 90   : 
; 91   : 	return fsys;

	ldr         x0,[sp,#8]
|$LN1@Ext2Initia|
	add         sp,sp,#0x50
	ldr         lr,[sp],#0x10
	ret

	ENDP  ; |Ext2Initialise|

	END
