; Listing generated by Microsoft (R) Optimizing Compiler Version 19.29.30159.0 

	TTL	C:\Users\paras\source\repos\grep-name\XenevaOS\KernelAA64\ARM64\Debug\Fat.obj
	ARM64

	AREA	|.drectve|, DRECTVE

	EXPORT	|FatInitialise|
	EXPORT	|FatClusterToSector32|
	EXPORT	|FatToDOSFilename|
	EXPORT	|FatCalculateCheckSum|
	EXPORT	|FatCheckDotCount|
	EXPORT	|FatFindFreeCluster|
	EXPORT	|FatAllocCluster|
	EXPORT	|FatClearCluster|
	EXPORT	|FatReadFAT|
	EXPORT	|FatOpen|
	EXPORT	|FatFormatDate|
	EXPORT	|FatFormatTime|
	EXPORT	|FatLocateDir|
	EXPORT	|FatLocateSubDir|
	EXPORT	|FatFromDosToFilename|
	EXPORT	|FatRead|
	EXPORT	|FatReadFile|
	EXPORT	|FatGetClusterFor|
	EXPORT	|FatGetDiskBlock|
	IMPORT	|AuCredGetGroupID|
	IMPORT	|AuVFSAddFileSystem|
	IMPORT	|AuVFSRegisterRoot|
	IMPORT	|AuVDiskRead|
	IMPORT	|AuVDiskWrite|
	IMPORT	|FatCreateFile|
	IMPORT	|FatWrite|
	IMPORT	|FatCreateDir|
	IMPORT	|FatOpenDir|
	IMPORT	|FatDirectoryRead|
	IMPORT	|AuPmmngrAlloc|
	IMPORT	|AuPmmngrFree|
	IMPORT	|P2V|
	IMPORT	|V2P|
	IMPORT	|strcmp|
	IMPORT	|strcpy|
	IMPORT	|strlen|
	IMPORT	|strncmp|
	IMPORT	|strchr|
	IMPORT	|memset|
	IMPORT	|memcpy|
	IMPORT	|AuTextOut|
	IMPORT	|toupper|
	IMPORT	|kmalloc|
	IMPORT	|kfree|
	IMPORT	|data_cache_flush|
	IMPORT	|aa64_data_cache_clean_range|

	AREA	|.pdata|, PDATA
|$pdata$FatInitialise| DCD imagerel |$LN19|
	DCD	0x6a0075d
	;Flags[SingleProEpi] functionLength[1884] RegF[0] RegI[0] H[0] frameChainReturn[UnChainedSavedLR] frameSize[208]
|$pdata$FatClusterToSector32| DCD imagerel |$LN3|
	DCD	0x800049
	;Flags[SingleProEpi] functionLength[72] RegF[0] RegI[0] H[0] frameChainReturn[UnChained] frameSize[16]
|$pdata$FatToDOSFilename| DCD imagerel |$LN19|
	DCD	0x1a10271
	;Flags[SingleProEpi] functionLength[624] RegF[0] RegI[1] H[0] frameChainReturn[UnChainedSavedLR] frameSize[48]
|$pdata$FatCalculateCheckSum| DCD imagerel |$LN8|
	DCD	0x8000a5
	;Flags[SingleProEpi] functionLength[164] RegF[0] RegI[0] H[0] frameChainReturn[UnChained] frameSize[16]
|$pdata$FatCheckDotCount| DCD imagerel |$LN7|
	DCD	0x1210099
	;Flags[SingleProEpi] functionLength[152] RegF[0] RegI[1] H[0] frameChainReturn[UnChainedSavedLR] frameSize[32]
|$pdata$FatFindFreeCluster| DCD imagerel |$LN15|
	DCD	0x3a00221
	;Flags[SingleProEpi] functionLength[544] RegF[0] RegI[0] H[0] frameChainReturn[UnChainedSavedLR] frameSize[112]
|$pdata$FatAllocCluster| DCD imagerel |$LN4|
	DCD	0x3200135
	;Flags[SingleProEpi] functionLength[308] RegF[0] RegI[0] H[0] frameChainReturn[UnChainedSavedLR] frameSize[96]
|$pdata$FatClearCluster| DCD imagerel |$LN4|
	DCD	0x22000c5
	;Flags[SingleProEpi] functionLength[196] RegF[0] RegI[0] H[0] frameChainReturn[UnChainedSavedLR] frameSize[64]
|$pdata$FatReadFAT| DCD imagerel |$LN6|
	DCD	0x3200139
	;Flags[SingleProEpi] functionLength[312] RegF[0] RegI[0] H[0] frameChainReturn[UnChainedSavedLR] frameSize[96]
|$pdata$FatOpen| DCD imagerel |$LN18|
	DCD	0x3200235
	;Flags[SingleProEpi] functionLength[564] RegF[0] RegI[0] H[0] frameChainReturn[UnChainedSavedLR] frameSize[96]
|$pdata$FatLocateDir| DCD imagerel |$LN13|
	DCD	0x320031d
	;Flags[SingleProEpi] functionLength[796] RegF[0] RegI[0] H[0] frameChainReturn[UnChainedSavedLR] frameSize[96]
|$pdata$FatLocateSubDir| DCD imagerel |$LN14|
	DCD	0x3a002e1
	;Flags[SingleProEpi] functionLength[736] RegF[0] RegI[0] H[0] frameChainReturn[UnChainedSavedLR] frameSize[112]
|$pdata$FatFromDosToFilename| DCD imagerel |$LN12|
	DCD	0x22001fd
	;Flags[SingleProEpi] functionLength[508] RegF[0] RegI[0] H[0] frameChainReturn[UnChainedSavedLR] frameSize[64]
|$pdata$FatRead| DCD imagerel |$LN7|
	DCD	0x22001c9
	;Flags[SingleProEpi] functionLength[456] RegF[0] RegI[0] H[0] frameChainReturn[UnChainedSavedLR] frameSize[64]
|$pdata$FatReadFile| DCD imagerel |$LN14|
	DCD	0x3a001c1
	;Flags[SingleProEpi] functionLength[448] RegF[0] RegI[0] H[0] frameChainReturn[UnChainedSavedLR] frameSize[112]
|$pdata$FatGetClusterFor| DCD imagerel |$LN7|
	DCD	0x22000b5
	;Flags[SingleProEpi] functionLength[180] RegF[0] RegI[0] H[0] frameChainReturn[UnChainedSavedLR] frameSize[64]
|$pdata$FatGetDiskBlock| DCD imagerel |$LN4|
	DCD	0x1a00055
	;Flags[SingleProEpi] functionLength[84] RegF[0] RegI[0] H[0] frameChainReturn[UnChainedSavedLR] frameSize[48]

	AREA	|.data|, DATA
|$SG4246| DCB	"[aurora]: FAT32 OEM :", 0x0
	%	2
|$SG4247| DCB	"%c", 0x0
	%	1
|$SG4248| DCB	0xd, 0xa, 0x0
	%	1
|$SG4249| DCB	"[aurora]: fat32 sector/cluster : %d ", 0xd, 0xa, 0x0
	%	1
|$SG4250| DCB	"[aurora]: fat32 bytes/sector: %d ", 0xd, 0xa, 0x0
	%	4
|$SG4251| DCB	"[aurora]: fat32 mounted at %s ", 0xd, 0xa, 0x0
; Function compile flags: /Odtpy
; File C:\Users\paras\source\repos\grep-name\XenevaOS\KernelAA64\Fs\Fat\Fat.c

	AREA	|.text$mn|, CODE, ARM64

|FatGetDiskBlock| PROC

; 590  : uint32_t FatGetDiskBlock(AuVFSNode* fs, AuVFSNode* file, uint64_t fs_block) {

|$LN4|
	str         lr,[sp,#-0x10]!
	sub         sp,sp,#0x20
	str         x0,[sp,#8]
	str         x1,[sp,#0x18]
	str         x2,[sp,#0x10]

; 591  : 	FatFS* fatfs = (FatFS*)fs->device;

	ldr         x8,[sp,#8]
	add         x8,x8,#0x50
	ldr         x8,[x8]
	str         x8,[sp]

; 592  : 	if (!fatfs)

	ldr         x8,[sp]
	cmp         x8,#0
	bne         |$LN2@FatGetDisk|

; 593  : 		return;

	b           |$LN1@FatGetDisk|
|$LN2@FatGetDisk|

; 594  : 	return FatClusterToSector32(fatfs, fs_block);

	ldr         x1,[sp,#0x10]
	ldr         x0,[sp]
	bl          FatClusterToSector32
	mov         w0,w0
	mov         w0,w0
|$LN1@FatGetDisk|
	add         sp,sp,#0x20
	ldr         lr,[sp],#0x10
	ret

	ENDP  ; |FatGetDiskBlock|

; Function compile flags: /Odtpy
; File C:\Users\paras\source\repos\grep-name\XenevaOS\KernelAA64\Fs\Fat\Fat.c

	AREA	|.text$mn|, CODE, ARM64

|FatGetClusterFor| PROC

; 575  : size_t FatGetClusterFor(AuVFSNode* fs, AuVFSNode* file, uint64_t offset) {

|$LN7|
	str         lr,[sp,#-0x10]!
	sub         sp,sp,#0x30
	str         x0,[sp,#8]
	str         x1,[sp,#0x20]
	str         x2,[sp,#0x18]

; 576  : 	FatFS* fatfs = (FatFS*)fs->device;

	ldr         x8,[sp,#8]
	add         x8,x8,#0x50
	ldr         x8,[x8]
	str         x8,[sp,#0x10]

; 577  : 	size_t index = offset / fatfs->cluster_sz_in_bytes;

	ldr         x8,[sp,#0x10]
	add         x8,x8,#0x50
	ldr         x9,[sp,#0x18]
	ldr         x8,[x8]
	cbnz        x8,|$LN6@FatGetClus|
	brk         #0xF004
|$LN6@FatGetClus|
	udiv        x8,x9,x8
	str         x8,[sp,#0x28]

; 578  : 	uint32_t cluster = file->first_block;

	ldr         x8,[sp,#0x20]
	add         x8,x8,#0x30
	ldr         x8,[x8]
	mov         w8,w8
	str         w8,[sp,#4]

; 579  : 	for (int i = 0; i < index; i++)

	mov         w8,#0
	str         w8,[sp]
	b           |$LN4@FatGetClus|
|$LN2@FatGetClus|
	ldr         w8,[sp]
	add         w8,w8,#1
	str         w8,[sp]
|$LN4@FatGetClus|
	ldr         w8,[sp]
	sxtw        x9,w8
	ldr         x8,[sp,#0x28]
	cmp         x9,x8
	bhs         |$LN3@FatGetClus|

; 580  : 		cluster = FatReadFAT(fs, cluster);

	ldr         w8,[sp,#4]
	uxtw        x1,w8
	ldr         x0,[sp,#8]
	bl          FatReadFAT
	mov         w0,w0
	str         w0,[sp,#4]
	b           |$LN2@FatGetClus|
|$LN3@FatGetClus|

; 581  : 	return cluster;

	ldr         w8,[sp,#4]
	uxtw        x0,w8
	add         sp,sp,#0x30
	ldr         lr,[sp],#0x10
	ret

	ENDP  ; |FatGetClusterFor|

; Function compile flags: /Odtpy
; File C:\Users\paras\source\repos\grep-name\XenevaOS\KernelAA64\Fs\Fat\Fat.c

	AREA	|.text$mn|, CODE, ARM64

|FatReadFile| PROC

; 327  : size_t FatReadFile(AuVFSNode* fsys, AuVFSNode* file, uint64_t* buffer, uint32_t length) {

|$LN14|
	str         lr,[sp,#-0x10]!
	sub         sp,sp,#0x60
	str         x0,[sp,#0x28]
	str         x1,[sp,#0x20]
	str         x2,[sp,#0x48]
	str         w3,[sp]

; 328  : 	if (!fsys)

	ldr         x8,[sp,#0x28]
	cmp         x8,#0
	bne         |$LN5@FatReadFil|

; 329  : 		return 0;

	mov         x0,#0
	b           |$LN1@FatReadFil|
|$LN5@FatReadFil|

; 330  : 
; 331  : 	if (!file)

	ldr         x8,[sp,#0x20]
	cmp         x8,#0
	bne         |$LN6@FatReadFil|

; 332  : 		return 0;

	mov         x0,#0
	b           |$LN1@FatReadFil|
|$LN6@FatReadFil|

; 333  : 
; 334  : 	FatFS* fs = (FatFS*)fsys->device;

	ldr         x8,[sp,#0x28]
	add         x8,x8,#0x50
	ldr         x8,[x8]
	str         x8,[sp,#0x38]

; 335  : 
; 336  : 	uint64_t read_bytes = 0;

	mov         x8,#0
	str         x8,[sp,#0x40]

; 337  : 	size_t ret_bytes = 0;

	mov         x8,#0
	str         x8,[sp,#0x10]

; 338  : 	uint8_t* aligned_buffer = (uint8_t*)buffer;

	ldr         x8,[sp,#0x48]
	str         x8,[sp,#0x30]

; 339  : 
; 340  : 	size_t num_blocks = length / fs->cluster_sz_in_bytes +

	ldr         w8,[sp]
	uxtw        x10,w8
	ldr         x8,[sp,#0x38]
	add         x8,x8,#0x50
	ldr         x9,[x8]
	cbnz        x9,|$LN12@FatReadFil|
	brk         #0xF004
|$LN12@FatReadFil|
	udiv        x8,x10,x9
	mul         x8,x8,x9
	sub         x8,x10,x8
	cmp         x8,#0
	beq         |$LN10@FatReadFil|
	mov         w8,#1
	str         w8,[sp,#8]
	b           |$LN11@FatReadFil|
|$LN10@FatReadFil|
	mov         w8,#0
	str         w8,[sp,#8]
|$LN11@FatReadFil|
	ldr         w8,[sp]
	uxtw        x9,w8
	ldr         x8,[sp,#0x38]
	add         x8,x8,#0x50
	ldr         x8,[x8]
	cbnz        x8,|$LN13@FatReadFil|
	brk         #0xF004
|$LN13@FatReadFil|
	udiv        x9,x9,x8
	ldr         w8,[sp,#8]
	sxtw        x8,w8
	add         x8,x9,x8
	str         x8,[sp,#0x50]

; 341  : 		((length % fs->cluster_sz_in_bytes) ? 1 : 0);
; 342  : 	
; 343  : 	for (int i = 0; i < num_blocks; i++) {

	mov         w8,#0
	str         w8,[sp,#4]
	b           |$LN4@FatReadFil|
|$LN2@FatReadFil|
	ldr         w8,[sp,#4]
	add         w8,w8,#1
	str         w8,[sp,#4]
|$LN4@FatReadFil|
	ldr         w8,[sp,#4]
	sxtw        x9,w8
	ldr         x8,[sp,#0x50]
	cmp         x9,x8
	bhs         |$LN3@FatReadFil|

; 344  : 		if (file->eof)

	ldr         x8,[sp,#0x20]
	add         x8,x8,#0x24
	ldrb        w8,[x8]
	mov         w8,w8
	cmp         w8,#0
	beq         |$LN7@FatReadFil|

; 345  : 			break;

	b           |$LN3@FatReadFil|
|$LN7@FatReadFil|

; 346  : 		uint64_t* buff = (uint64_t*)P2V((size_t)AuPmmngrAlloc());

	bl          AuPmmngrAlloc
	bl          P2V
	str         x0,[sp,#0x18]

; 347  : 		memset(buff, 0, PAGE_SIZE);

	mov         w2,#0x1000
	mov         w1,#0
	ldr         x0,[sp,#0x18]
	bl          memset

; 348  : 		read_bytes = FatRead(fsys, file, buff);

	ldr         x2,[sp,#0x18]
	ldr         x1,[sp,#0x20]
	ldr         x0,[sp,#0x28]
	bl          FatRead
	str         x0,[sp,#0x40]

; 349  : 		memcpy(aligned_buffer, buff, PAGE_SIZE);

	mov         x2,#0x1000
	ldr         x1,[sp,#0x18]
	ldr         x0,[sp,#0x30]
	bl          memcpy

; 350  : 		AuPmmngrFree((void*)V2P((size_t)buff));

	ldr         x0,[sp,#0x18]
	bl          V2P
	bl          AuPmmngrFree

; 351  : 		aligned_buffer += PAGE_SIZE;

	ldr         x8,[sp,#0x30]
	add         x8,x8,#1,lsl #0xC
	str         x8,[sp,#0x30]

; 352  : 		ret_bytes += read_bytes;

	ldr         x9,[sp,#0x10]
	ldr         x8,[sp,#0x40]
	add         x8,x9,x8
	str         x8,[sp,#0x10]

; 353  : 
; 354  : 	}

	b           |$LN2@FatReadFil|
|$LN3@FatReadFil|

; 355  : 
; 356  : 	/* Okay, might be we read one block, but length was less
; 357  : 	 * then 4KiB, just return that length
; 358  : 	 */
; 359  : 	if (length < ret_bytes)

	ldr         w8,[sp]
	uxtw        x9,w8
	ldr         x8,[sp,#0x10]
	cmp         x9,x8
	bhs         |$LN8@FatReadFil|

; 360  : 		ret_bytes = length;

	ldr         w8,[sp]
	uxtw        x8,w8
	str         x8,[sp,#0x10]
|$LN8@FatReadFil|

; 361  : 
; 362  : 	return ret_bytes;

	ldr         x0,[sp,#0x10]
|$LN1@FatReadFil|
	add         sp,sp,#0x60
	ldr         lr,[sp],#0x10
	ret

	ENDP  ; |FatReadFile|

; Function compile flags: /Odtpy
; File C:\Users\paras\source\repos\grep-name\XenevaOS\KernelAA64\Fs\Fat\Fat.c

	AREA	|.text$mn|, CODE, ARM64

|FatRead| PROC

; 289  : size_t FatRead(AuVFSNode* fsys, AuVFSNode* file, uint64_t* buf) {

|$LN7|
	str         lr,[sp,#-0x10]!
	sub         sp,sp,#0x30
	str         x0,[sp,#0x20]
	str         x1,[sp,#8]
	str         x2,[sp,#0x28]

; 290  : 	FatFS* fs = (FatFS*)fsys->device;

	ldr         x8,[sp,#0x20]
	add         x8,x8,#0x50
	ldr         x8,[x8]
	str         x8,[sp,#0x10]

; 291  : 	AuVDisk* vdisk = (AuVDisk*)fs->vdisk;

	ldr         x8,[sp,#0x10]
	add         x8,x8,#8
	ldr         x8,[x8]
	str         x8,[sp,#0x18]

; 292  : 	if (!vdisk) {

	ldr         x8,[sp,#0x18]
	cmp         x8,#0
	bne         |$LN2@FatRead|

; 293  : 		return NULL;

	mov         x0,#0
	b           |$LN1@FatRead|
|$LN2@FatRead|

; 294  : 	}
; 295  : 
; 296  : 	auto lba = FatClusterToSector32(fs, file->current);

	ldr         x8,[sp,#8]
	add         x8,x8,#0x38
	ldr         x1,[x8]
	ldr         x0,[sp,#0x10]
	bl          FatClusterToSector32
	mov         w8,w0
	str         w8,[sp,#4]

; 297  : 	AuVDiskRead(vdisk, lba, fs->__SectorPerCluster, buf);

	ldr         x8,[sp,#0x10]
	add         x8,x8,#0x24
	ldrb        w2,[x8]
	mov         w2,w2
	ldr         w8,[sp,#4]
	sxtw        x1,w8
	ldr         x3,[sp,#0x28]
	mov         w2,w2
	ldr         x0,[sp,#0x18]
	bl          AuVDiskRead

; 298  : 
; 299  : 	uint32_t value = FatReadFAT(fsys, file->current);

	ldr         x8,[sp,#8]
	add         x8,x8,#0x38
	ldr         x1,[x8]
	ldr         x0,[sp,#0x20]
	bl          FatReadFAT
	mov         w0,w0
	str         w0,[sp]

; 300  : 
; 301  : 	if (value >= (FAT_EOC_MARK & 0x0FFFFFFF)) {

	mov         w9,#0xFFFFFF8
	ldr         w8,[sp]
	cmp         w8,w9
	blo         |$LN3@FatRead|

; 302  : 		file->eof = 1;

	ldr         x8,[sp,#8]
	add         x9,x8,#0x24
	mov         w8,#1
	strb        w8,[x9]

; 303  : 		file->current = value;

	ldr         x8,[sp,#8]
	add         x9,x8,#0x38
	ldr         w8,[sp]
	uxtw        x8,w8
	str         x8,[x9]

; 304  : 		data_cache_flush(file);

	ldr         x0,[sp,#8]
	bl          data_cache_flush

; 305  : 		return (fs->__SectorPerCluster * fs->__BytesPerSector);

	ldr         x8,[sp,#0x10]
	add         x8,x8,#0x24
	ldrb        w9,[x8]
	mov         w9,w9
	ldr         x8,[sp,#0x10]
	add         x8,x8,#0x48
	ldrh        w8,[x8]
	mov         w8,w8
	mul         w8,w9,w8
	sxtw        x0,w8
	b           |$LN1@FatRead|
|$LN3@FatRead|

; 306  : 	}
; 307  : 
; 308  : 	if (value >= 0x0FFFFFF7) {

	ldr         w9,|$LN6@FatRead|
	ldr         w8,[sp]
	cmp         w8,w9
	blo         |$LN4@FatRead|

; 309  : 		file->eof = 1;

	ldr         x8,[sp,#8]
	add         x9,x8,#0x24
	mov         w8,#1
	strb        w8,[x9]

; 310  : 		file->current = value;

	ldr         x8,[sp,#8]
	add         x9,x8,#0x38
	ldr         w8,[sp]
	uxtw        x8,w8
	str         x8,[x9]

; 311  : 		data_cache_flush(file);

	ldr         x0,[sp,#8]
	bl          data_cache_flush

; 312  : 		return (fs->__SectorPerCluster * fs->__BytesPerSector);

	ldr         x8,[sp,#0x10]
	add         x8,x8,#0x24
	ldrb        w9,[x8]
	mov         w9,w9
	ldr         x8,[sp,#0x10]
	add         x8,x8,#0x48
	ldrh        w8,[x8]
	mov         w8,w8
	mul         w8,w9,w8
	sxtw        x0,w8
	b           |$LN1@FatRead|
|$LN4@FatRead|

; 313  : 	}
; 314  : 
; 315  : 	file->current = value;

	ldr         x8,[sp,#8]
	add         x9,x8,#0x38
	ldr         w8,[sp]
	uxtw        x8,w8
	str         x8,[x9]

; 316  : 	data_cache_flush(file);

	ldr         x0,[sp,#8]
	bl          data_cache_flush

; 317  : 	return (fs->__SectorPerCluster * fs->__BytesPerSector);

	ldr         x8,[sp,#0x10]
	add         x8,x8,#0x24
	ldrb        w9,[x8]
	mov         w9,w9
	ldr         x8,[sp,#0x10]
	add         x8,x8,#0x48
	ldrh        w8,[x8]
	mov         w8,w8
	mul         w8,w9,w8
	sxtw        x0,w8
|$LN1@FatRead|
	add         sp,sp,#0x30
	ldr         lr,[sp],#0x10
	ret
|$LN6@FatRead|
	DCD         0xffffff7

	ENDP  ; |FatRead|

; Function compile flags: /Odtpy
; File C:\Users\paras\source\repos\grep-name\XenevaOS\KernelAA64\Fs\Fat\Fat.c

	AREA	|.text$mn|, CODE, ARM64

|FatFromDosToFilename| PROC

; 140  : void FatFromDosToFilename(char* filename, char* dirfname) {

|$LN12|
	str         lr,[sp,#-0x10]!
	sub         sp,sp,#0x30
	str         x0,[sp,#0x20]
	str         x1,[sp,#0x18]

; 141  : 	memset(filename, 0, 11);

	mov         w2,#0xB
	mov         w1,#0
	ldr         x0,[sp,#0x20]
	bl          memset

; 142  : 	int index = 0;

	mov         w8,#0
	str         w8,[sp,#8]

; 143  : 	for (int i = 0; i < 8; i++) {

	mov         w8,#0
	str         w8,[sp,#4]
	b           |$LN4@FatFromDos|
|$LN2@FatFromDos|
	ldr         w8,[sp,#4]
	add         w8,w8,#1
	str         w8,[sp,#4]
|$LN4@FatFromDos|
	ldr         w8,[sp,#4]
	cmp         w8,#8
	bge         |$LN3@FatFromDos|

; 144  : 		if (dirfname[i] != 0x20 && dirfname[i] > 0x20) {

	ldr         w8,[sp,#4]
	sxtw        x9,w8
	mov         x8,#1
	mul         x9,x9,x8
	ldr         x8,[sp,#0x18]
	add         x8,x8,x9
	ldrsb       w8,[x8]
	mov         w8,w8
	cmp         w8,#0x20
	beq         |$LN8@FatFromDos|
	ldr         w8,[sp,#4]
	sxtw        x9,w8
	mov         x8,#1
	mul         x9,x9,x8
	ldr         x8,[sp,#0x18]
	add         x8,x8,x9
	ldrsb       w8,[x8]
	mov         w8,w8
	cmp         w8,#0x20
	ble         |$LN8@FatFromDos|

; 145  : 			filename[i] = dirfname[i];

	ldr         w8,[sp,#4]
	sxtw        x9,w8
	mov         x8,#1
	mul         x9,x9,x8
	ldr         x8,[sp,#0x18]
	add         x10,x8,x9
	ldr         w8,[sp,#4]
	sxtw        x9,w8
	mov         x8,#1
	mul         x9,x9,x8
	ldr         x8,[sp,#0x20]
	add         x9,x8,x9
	ldrsb       w8,[x10]
	strb        w8,[x9]

; 146  : 			index++;

	ldr         w8,[sp,#8]
	add         w8,w8,#1
	str         w8,[sp,#8]
|$LN8@FatFromDos|

; 147  : 		}
; 148  : 	}

	b           |$LN2@FatFromDos|
|$LN3@FatFromDos|

; 149  : 	int extension = index;

	ldr         w8,[sp,#8]
	str         w8,[sp,#0x10]

; 150  : 	filename[index] = '.';

	ldr         w8,[sp,#8]
	sxtw        x9,w8
	mov         x8,#1
	mul         x9,x9,x8
	ldr         x8,[sp,#0x20]
	add         x9,x8,x9
	mov         w8,#0x2E
	strb        w8,[x9]

; 151  : 	index++;

	ldr         w8,[sp,#8]
	add         w8,w8,#1
	str         w8,[sp,#8]

; 152  : 	bool _contain_ext = false;

	mov         w8,#0
	strb        w8,[sp]

; 153  : 	for (int i = 0; i < 3; i++) {

	mov         w8,#0
	str         w8,[sp,#0xC]
	b           |$LN7@FatFromDos|
|$LN5@FatFromDos|
	ldr         w8,[sp,#0xC]
	add         w8,w8,#1
	str         w8,[sp,#0xC]
|$LN7@FatFromDos|
	ldr         w8,[sp,#0xC]
	cmp         w8,#3
	bge         |$LN6@FatFromDos|

; 154  : 		if (dirfname[8 + i] != 0x20) {

	ldr         w8,[sp,#0xC]
	add         w8,w8,#8
	sxtw        x9,w8
	mov         x8,#1
	mul         x9,x9,x8
	ldr         x8,[sp,#0x18]
	add         x8,x8,x9
	ldrsb       w8,[x8]
	mov         w8,w8
	cmp         w8,#0x20
	beq         |$LN9@FatFromDos|

; 155  : 			_contain_ext = true;

	mov         w8,#1
	strb        w8,[sp]

; 156  : 			filename[index + i] = dirfname[8 + i];

	ldr         w8,[sp,#0xC]
	add         w8,w8,#8
	sxtw        x9,w8
	mov         x8,#1
	mul         x9,x9,x8
	ldr         x8,[sp,#0x18]
	add         x10,x8,x9
	ldr         w9,[sp,#8]
	ldr         w8,[sp,#0xC]
	add         w8,w9,w8
	sxtw        x9,w8
	mov         x8,#1
	mul         x9,x9,x8
	ldr         x8,[sp,#0x20]
	add         x9,x8,x9
	ldrsb       w8,[x10]
	strb        w8,[x9]
|$LN9@FatFromDos|

; 157  : 		}
; 158  : 	}

	b           |$LN5@FatFromDos|
|$LN6@FatFromDos|

; 159  : 	if (!_contain_ext)

	ldrb        w8,[sp]
	mov         w8,w8
	cmp         w8,#0
	bne         |$LN10@FatFromDos|

; 160  : 		filename[extension] = '\0';

	ldr         w8,[sp,#0x10]
	sxtw        x9,w8
	mov         x8,#1
	mul         x9,x9,x8
	ldr         x8,[sp,#0x20]
	add         x9,x8,x9
	mov         w8,#0
	strb        w8,[x9]
|$LN10@FatFromDos|
	add         sp,sp,#0x30
	ldr         lr,[sp],#0x10
	ret

	ENDP  ; |FatFromDosToFilename|

; Function compile flags: /Odtpy
; File C:\Users\paras\source\repos\grep-name\XenevaOS\KernelAA64\Fs\Fat\Fat.c

	AREA	|.text$mn|, CODE, ARM64

|FatLocateSubDir| PROC

; 365  : AuVFSNode* FatLocateSubDir(AuVFSNode* fsys, AuVFSNode* kfile, const char* filename) {

|$LN14|
	str         lr,[sp,#-0x10]!
	sub         sp,sp,#0x60
	str         x0,[sp,#0x28]
	str         x1,[sp,#0x10]
	str         x2,[sp,#0x30]

; 366  : 	FatFS* _fs = (FatFS*)fsys->device;

	ldr         x8,[sp,#0x28]
	add         x8,x8,#0x50
	ldr         x8,[x8]
	str         x8,[sp,#0x48]

; 367  : 
; 368  : 	AuVFSNode* file = (AuVFSNode*)kmalloc(sizeof(AuVFSNode));

	mov         w0,#0xD0
	bl          kmalloc
	str         x0,[sp]

; 369  : 	memset(file, 0, sizeof(AuVFSNode));

	mov         w2,#0xD0
	mov         w1,#0
	ldr         x0,[sp]
	bl          memset

; 370  : 
; 371  : 	char dos_file_name[12];
; 372  : 	memset(dos_file_name, 0, 11);

	mov         w2,#0xB
	mov         w1,#0
	add         x0,sp,#0x38
	bl          memset

; 373  : 	FatToDOSFilename(filename, dos_file_name, 11);

	mov         w2,#0xB
	add         x1,sp,#0x38
	ldr         x0,[sp,#0x30]
	bl          FatToDOSFilename

; 374  : 	dos_file_name[11] = 0;

	mov         w8,#0
	strb        w8,[sp,#0x43]

; 375  : 	uint64_t* buf = (uint64_t*)P2V((size_t)AuPmmngrAlloc());

	bl          AuPmmngrAlloc
	bl          P2V
	str         x0,[sp,#0x20]

; 376  : 	if (kfile->flags != FS_FLAG_INVALID) {

	ldr         x8,[sp,#0x10]
	add         x8,x8,#0x40
	ldrh        w8,[x8]
	mov         w8,w8
	cmp         w8,#0x20
	beq         |$LN7@FatLocateS|
|$LN2@FatLocateS|

; 377  : 		while (1) {

	mov         w8,#1
	cmp         w8,#0
	beq         |$LN3@FatLocateS|

; 378  : 			if (kfile->eof) {

	ldr         x8,[sp,#0x10]
	add         x8,x8,#0x24
	ldrb        w8,[x8]
	mov         w8,w8
	cmp         w8,#0
	beq         |$LN8@FatLocateS|

; 379  : 				break;

	b           |$LN3@FatLocateS|
|$LN8@FatLocateS|

; 380  : 			}
; 381  : 			memset(buf, 0, PAGE_SIZE);

	mov         w2,#0x1000
	mov         w1,#0
	ldr         x0,[sp,#0x20]
	bl          memset

; 382  : 
; 383  : 			FatRead(fsys, kfile, buf);

	ldr         x2,[sp,#0x20]
	ldr         x1,[sp,#0x10]
	ldr         x0,[sp,#0x28]
	bl          FatRead

; 384  : 
; 385  : 			FatDir* pkDir = (FatDir*)buf;

	ldr         x8,[sp,#0x20]
	str         x8,[sp,#0x18]

; 386  : 			for (unsigned int i = 0; i < (16 * _fs->__SectorPerCluster); ++i) {

	mov         w8,#0
	str         w8,[sp,#8]
	b           |$LN6@FatLocateS|
|$LN4@FatLocateS|
	ldr         w8,[sp,#8]
	add         w8,w8,#1
	str         w8,[sp,#8]
|$LN6@FatLocateS|
	ldr         x8,[sp,#0x48]
	add         x8,x8,#0x24
	ldrb        w9,[x8]
	mov         w9,w9
	mov         w8,#0x10
	mul         w9,w9,w8
	ldr         w8,[sp,#8]
	cmp         w8,w9
	bhs         |$LN5@FatLocateS|

; 387  : 				char name[12];
; 388  : 				memcpy(name, pkDir->filename, 11);

	ldr         x1,[sp,#0x18]
	mov         x2,#0xB
	add         x0,sp,#0x50
	bl          memcpy

; 389  : 				name[11] = '\0';

	mov         w8,#0
	strb        w8,[sp,#0x5B]

; 390  : 
; 391  : 				if (strcmp(name, dos_file_name) == 0) {

	add         x1,sp,#0x38
	add         x0,sp,#0x50
	bl          strcmp
	mov         w0,w0
	cmp         w0,#0
	bne         |$LN9@FatLocateS|

; 392  : 					strcpy(file->filename, filename);

	ldr         x0,[sp]
	ldr         x1,[sp,#0x30]
	bl          strcpy

; 393  : 					file->current = pkDir->first_cluster;

	ldr         x8,[sp,#0x18]
	add         x10,x8,#0x1A
	ldr         x8,[sp]
	add         x9,x8,#0x38
	ldrh        w8,[x10]
	mov         w8,w8
	sxtw        x8,w8
	str         x8,[x9]

; 394  : 					file->size = pkDir->file_size;

	ldr         x8,[sp,#0x18]
	add         x10,x8,#0x1C
	ldr         x8,[sp]
	add         x9,x8,#0x20
	ldr         w8,[x10]
	str         w8,[x9]

; 395  : 					file->eof = 0;

	ldr         x8,[sp]
	add         x9,x8,#0x24
	mov         w8,#0
	strb        w8,[x9]

; 396  : 					file->pos = 0;

	ldr         x8,[sp]
	add         x9,x8,#0x28
	mov         w8,#0
	str         w8,[x9]

; 397  : 					file->status = FS_STATUS_FOUND;

	ldr         x8,[sp]
	add         x9,x8,#0x42
	mov         w8,#1
	strb        w8,[x9]

; 398  : 					file->first_block = file->current;

	ldr         x8,[sp]
	add         x10,x8,#0x38
	ldr         x8,[sp]
	add         x9,x8,#0x30
	ldr         x8,[x10]
	str         x8,[x9]

; 399  : 					file->device = fsys;

	ldr         x8,[sp]
	add         x9,x8,#0x50
	ldr         x8,[sp,#0x28]
	str         x8,[x9]

; 400  : 					file->parent_block = kfile->first_block;

	ldr         x8,[sp,#0x10]
	add         x10,x8,#0x30
	ldr         x8,[sp]
	add         x9,x8,#0x2C
	ldr         x8,[x10]
	mov         w8,w8
	str         w8,[x9]

; 401  : 					file->gid = AuCredGetGroupID(AURORA_GID_MISC_WORLD);

	mov         w0,#8
	bl          AuCredGetGroupID
	mov         w0,w0
	ldr         x8,[sp]
	add         x8,x8,#0x48
	str         w0,[x8]

; 402  : 					if (pkDir->attrib & 0x10)

	ldr         x8,[sp,#0x18]
	add         x8,x8,#0xB
	ldrb        w8,[x8]
	mov         w8,w8
	tbz         x8,#4,|$LN10@FatLocateS|

; 403  : 						file->flags |= FS_FLAG_DIRECTORY;

	ldr         x8,[sp]
	add         x8,x8,#0x40
	ldrh        w8,[x8]
	mov         w8,w8
	orr         w10,w8,#2
	ldr         x8,[sp]
	add         x9,x8,#0x40
	uxth        w8,w10
	strh        w8,[x9]
	b           |$LN11@FatLocateS|
|$LN10@FatLocateS|

; 404  : 					else
; 405  : 						file->flags |= FS_FLAG_GENERAL;

	ldr         x8,[sp]
	add         x8,x8,#0x40
	ldrh        w8,[x8]
	mov         w8,w8
	orr         w10,w8,#4
	ldr         x8,[sp]
	add         x9,x8,#0x40
	uxth        w8,w10
	strh        w8,[x9]
|$LN11@FatLocateS|

; 406  : 					AuPmmngrFree((void*)V2P((size_t)buf));

	ldr         x0,[sp,#0x20]
	bl          V2P
	bl          AuPmmngrFree

; 407  : 					kfree(kfile);

	ldr         x0,[sp,#0x10]
	bl          kfree

; 408  : 					return file;

	ldr         x0,[sp]
	b           |$LN1@FatLocateS|
|$LN9@FatLocateS|

; 409  : 				}
; 410  : 
; 411  : 				pkDir++;

	ldr         x8,[sp,#0x18]
	add         x8,x8,#0x20
	str         x8,[sp,#0x18]

; 412  : 			}

	b           |$LN4@FatLocateS|
|$LN5@FatLocateS|

; 413  : 		}

	b           |$LN2@FatLocateS|
|$LN3@FatLocateS|
|$LN7@FatLocateS|

; 414  : 	}
; 415  : 
; 416  : 	AuPmmngrFree((void*)V2P((size_t)buf));

	ldr         x0,[sp,#0x20]
	bl          V2P
	bl          AuPmmngrFree

; 417  : 	kfree(file);

	ldr         x0,[sp]
	bl          kfree

; 418  : 	if (kfile)

	ldr         x8,[sp,#0x10]
	cmp         x8,#0
	beq         |$LN12@FatLocateS|

; 419  : 		kfree(kfile);

	ldr         x0,[sp,#0x10]
	bl          kfree
|$LN12@FatLocateS|

; 420  : 	return NULL;

	mov         x0,#0
|$LN1@FatLocateS|
	add         sp,sp,#0x60
	ldr         lr,[sp],#0x10
	ret

	ENDP  ; |FatLocateSubDir|

; Function compile flags: /Odtpy
; File C:\Users\paras\source\repos\grep-name\XenevaOS\KernelAA64\Fs\Fat\Fat.c

	AREA	|.text$mn|, CODE, ARM64

|FatLocateDir| PROC

; 428  : AuVFSNode* FatLocateDir(AuVFSNode* fsys, const char* dir) {

|$LN13|
	str         lr,[sp,#-0x10]!
	sub         sp,sp,#0x50
	str         x0,[sp,#0x38]
	str         x1,[sp,#0x30]

; 429  : 	AuVFSNode* file = (AuVFSNode*)kmalloc(sizeof(AuVFSNode));

	mov         w0,#0xD0
	bl          kmalloc
	str         x0,[sp]

; 430  : 	memset(file, 0, sizeof(AuVFSNode));

	mov         w2,#0xD0
	mov         w1,#0
	ldr         x0,[sp]
	bl          memset

; 431  : 	
; 432  : 	FatFS* fs = (FatFS*)fsys->device;

	ldr         x8,[sp,#0x38]
	add         x8,x8,#0x50
	ldr         x8,[x8]
	str         x8,[sp,#0x20]

; 433  : 	AuVDisk* vdisk = (AuVDisk*)fs->vdisk;

	ldr         x8,[sp,#0x20]
	add         x8,x8,#8
	ldr         x8,[x8]
	str         x8,[sp,#0x28]

; 434  : 
; 435  : 	if (!vdisk)

	ldr         x8,[sp,#0x28]
	cmp         x8,#0
	bne         |$LN8@FatLocateD|

; 436  : 		return NULL;

	mov         x0,#0
	b           |$LN1@FatLocateD|
|$LN8@FatLocateD|

; 437  : 
; 438  : 	uint64_t* buf;
; 439  : 	FatDir* dirent;
; 440  : 
; 441  : 	char dos_file_name[11];
; 442  : 
; 443  : 	FatToDOSFilename(dir, dos_file_name, 11);

	mov         w2,#0xB
	add         x1,sp,#0x40
	ldr         x0,[sp,#0x30]
	bl          FatToDOSFilename

; 444  : 	dos_file_name[11] = '\0';

	mov         w8,#0
	strb        w8,[sp,#0x4B]

; 445  : 
; 446  : 	buf = (uint64_t*)P2V((uint64_t)AuPmmngrAlloc());

	bl          AuPmmngrAlloc
	bl          P2V
	str         x0,[sp,#0x18]

; 447  : 	memset(buf, 0, PAGE_SIZE);

	mov         w2,#0x1000
	mov         w1,#0
	ldr         x0,[sp,#0x18]
	bl          memset

; 448  : 
; 449  : 	for (unsigned int sector = 0; sector < fs->__SectorPerCluster; sector++) {

	mov         w8,#0
	str         w8,[sp,#8]
	b           |$LN4@FatLocateD|
|$LN2@FatLocateD|
	ldr         w8,[sp,#8]
	add         w8,w8,#1
	str         w8,[sp,#8]
|$LN4@FatLocateD|
	ldr         x8,[sp,#0x20]
	add         x8,x8,#0x24
	ldrb        w9,[x8]
	mov         w9,w9
	ldr         w8,[sp,#8]
	cmp         w8,w9
	bhs         |$LN3@FatLocateD|

; 450  : 
; 451  : 		memset(buf, 0, PAGE_SIZE);

	mov         w2,#0x1000
	mov         w1,#0
	ldr         x0,[sp,#0x18]
	bl          memset

; 452  : 		//ata_read_28 (root_sector + sector,1, buf);
; 453  : 		AuVDiskRead(vdisk, FatClusterToSector32(fs, fs->__RootDirFirstCluster) + sector, 1, buf);

	ldr         x8,[sp,#0x20]
	add         x8,x8,#0x28
	ldr         w8,[x8]
	uxtw        x1,w8
	ldr         x0,[sp,#0x20]
	bl          FatClusterToSector32
	ldr         w8,[sp,#8]
	uxtw        x8,w8
	add         x1,x0,x8
	ldr         x3,[sp,#0x18]
	mov         w2,#1
	ldr         x0,[sp,#0x28]
	bl          AuVDiskRead

; 454  : 
; 455  : 		dirent = (FatDir*)buf;

	ldr         x8,[sp,#0x18]
	str         x8,[sp,#0x10]

; 456  : 
; 457  : 		for (int i = 0; i < 16; i++) {

	mov         w8,#0
	str         w8,[sp,#0xC]
	b           |$LN7@FatLocateD|
|$LN5@FatLocateD|
	ldr         w8,[sp,#0xC]
	add         w8,w8,#1
	str         w8,[sp,#0xC]
|$LN7@FatLocateD|
	ldr         w8,[sp,#0xC]
	cmp         w8,#0x10
	bge         |$LN6@FatLocateD|

; 458  : 		
; 459  : 			if (strncmp(dos_file_name, dirent->filename,11) == 0) {

	ldr         x1,[sp,#0x10]
	mov         x2,#0xB
	add         x0,sp,#0x40
	bl          strncmp
	mov         w0,w0
	cmp         w0,#0
	bne         |$LN9@FatLocateD|

; 460  : 				strcpy(file->filename, dir);

	ldr         x0,[sp]
	ldr         x1,[sp,#0x30]
	bl          strcpy

; 461  : 				file->current = dirent->first_cluster;

	ldr         x8,[sp,#0x10]
	add         x10,x8,#0x1A
	ldr         x8,[sp]
	add         x9,x8,#0x38
	ldrh        w8,[x10]
	mov         w8,w8
	sxtw        x8,w8
	str         x8,[x9]

; 462  : 				file->size = dirent->file_size;

	ldr         x8,[sp,#0x10]
	add         x10,x8,#0x1C
	ldr         x8,[sp]
	add         x9,x8,#0x20
	ldr         w8,[x10]
	str         w8,[x9]

; 463  : 				file->eof = 0;

	ldr         x8,[sp]
	add         x9,x8,#0x24
	mov         w8,#0
	strb        w8,[x9]

; 464  : 				file->status = FS_STATUS_FOUND;

	ldr         x8,[sp]
	add         x9,x8,#0x42
	mov         w8,#1
	strb        w8,[x9]

; 465  : 				file->close = 0;

	ldr         x8,[sp]
	add         x9,x8,#0xA0
	mov         x8,#0
	str         x8,[x9]

; 466  : 				file->first_block = file->current;

	ldr         x8,[sp]
	add         x10,x8,#0x38
	ldr         x8,[sp]
	add         x9,x8,#0x30
	ldr         x8,[x10]
	str         x8,[x9]

; 467  : 				file->pos = 0;

	ldr         x8,[sp]
	add         x9,x8,#0x28
	mov         w8,#0
	str         w8,[x9]

; 468  : 				file->device = fsys;

	ldr         x8,[sp]
	add         x9,x8,#0x50
	ldr         x8,[sp,#0x38]
	str         x8,[x9]

; 469  : 				file->parent_block = fs->__RootDirFirstCluster;

	ldr         x8,[sp,#0x20]
	add         x10,x8,#0x28
	ldr         x8,[sp]
	add         x9,x8,#0x2C
	ldr         w8,[x10]
	str         w8,[x9]

; 470  : 				file->open = 0;

	ldr         x8,[sp]
	add         x9,x8,#0x60
	mov         x8,#0
	str         x8,[x9]

; 471  : 				file->write = 0;

	ldr         x8,[sp]
	add         x9,x8,#0x78
	mov         x8,#0
	str         x8,[x9]

; 472  : 				file->create_file = 0;

	ldr         x8,[sp]
	add         x9,x8,#0x88
	mov         x8,#0
	str         x8,[x9]

; 473  : 
; 474  : 				/* FAT32 doesn't has UID/GID value stored in file, so
; 475  : 				 * using global misc world gid 
; 476  : 				 */
; 477  : 				file->gid = AuCredGetGroupID(AURORA_GID_MISC_WORLD);

	mov         w0,#8
	bl          AuCredGetGroupID
	mov         w0,w0
	ldr         x8,[sp]
	add         x8,x8,#0x48
	str         w0,[x8]

; 478  : 				if (dirent->attrib == 0x10)

	ldr         x8,[sp,#0x10]
	add         x8,x8,#0xB
	ldrb        w8,[x8]
	mov         w8,w8
	cmp         w8,#0x10
	bne         |$LN10@FatLocateD|

; 479  : 					file->flags |= FS_FLAG_DIRECTORY;

	ldr         x8,[sp]
	add         x8,x8,#0x40
	ldrh        w8,[x8]
	mov         w8,w8
	orr         w10,w8,#2
	ldr         x8,[sp]
	add         x9,x8,#0x40
	uxth        w8,w10
	strh        w8,[x9]
	b           |$LN11@FatLocateD|
|$LN10@FatLocateD|

; 480  : 				else
; 481  : 					file->flags |= FS_FLAG_GENERAL;

	ldr         x8,[sp]
	add         x8,x8,#0x40
	ldrh        w8,[x8]
	mov         w8,w8
	orr         w10,w8,#4
	ldr         x8,[sp]
	add         x9,x8,#0x40
	uxth        w8,w10
	strh        w8,[x9]
|$LN11@FatLocateD|

; 482  : 				aa64_data_cache_clean_range(file, sizeof(AuVFSNode));

	mov         x1,#0xD0
	ldr         x0,[sp]
	bl          aa64_data_cache_clean_range

; 483  : 				AuPmmngrFree((void*)V2P((size_t)buf));

	ldr         x0,[sp,#0x18]
	bl          V2P
	bl          AuPmmngrFree

; 484  : 				return file;

	ldr         x0,[sp]
	b           |$LN1@FatLocateD|
|$LN9@FatLocateD|

; 485  : 			}
; 486  : 			dirent++;

	ldr         x8,[sp,#0x10]
	add         x8,x8,#0x20
	str         x8,[sp,#0x10]

; 487  : 		}

	b           |$LN5@FatLocateD|
|$LN6@FatLocateD|

; 488  : 	}

	b           |$LN2@FatLocateD|
|$LN3@FatLocateD|

; 489  : 
; 490  : 	AuPmmngrFree((void*)V2P((size_t)buf));

	ldr         x0,[sp,#0x18]
	bl          V2P
	bl          AuPmmngrFree

; 491  : 	kfree(file);

	ldr         x0,[sp]
	bl          kfree

; 492  : 	return NULL;

	mov         x0,#0
|$LN1@FatLocateD|
	add         sp,sp,#0x50
	ldr         lr,[sp],#0x10
	ret

	ENDP  ; |FatLocateDir|

; Function compile flags: /Odtpy
; File C:\Users\paras\source\repos\grep-name\XenevaOS\KernelAA64\Fs\Fat\Fat.c

	AREA	|.text$mn|, CODE, ARM64

|FatFormatTime| PROC

; 719  : 	return 0; // (uint16_t)(AuRTCGetHour() << 11 | AuRTCGetMinutes() << 5 | AuRTCGetSecond() / 2);

	mov         w0,#0
	ret

	ENDP  ; |FatFormatTime|

; Function compile flags: /Odtpy
; File C:\Users\paras\source\repos\grep-name\XenevaOS\KernelAA64\Fs\Fat\Fat.c

	AREA	|.text$mn|, CODE, ARM64

|FatFormatDate| PROC

; 712  : 	return 0; // (uint16_t)((2000 + AuRTCGetYear() - 1980) << 9 | AuRTCGetMonth() << 5 | AuRTCGetDay());

	mov         w0,#0
	ret

	ENDP  ; |FatFormatDate|

; Function compile flags: /Odtpy
; File C:\Users\paras\source\repos\grep-name\XenevaOS\KernelAA64\Fs\Fat\Fat.c

	AREA	|.text$mn|, CODE, ARM64

|FatOpen| PROC

; 500  : AuVFSNode* FatOpen(AuVFSNode* fsys, char* filename) {

|$LN18|
	str         lr,[sp,#-0x10]!
	sub         sp,sp,#0x50
	str         x0,[sp,#0x18]
	str         x1,[sp,#0x28]

; 501  : 	if (!fsys)

	ldr         x8,[sp,#0x18]
	cmp         x8,#0
	bne         |$LN7@FatOpen|

; 502  : 		return NULL;

	mov         x0,#0
	b           |$LN1@FatOpen|
|$LN7@FatOpen|

; 503  : 	FatFS* _fs = (FatFS*)fsys->device;

	ldr         x8,[sp,#0x18]
	add         x8,x8,#0x50
	ldr         x8,[x8]
	str         x8,[sp,#0x40]

; 504  : 	AuVFSNode* cur_dir = NULL;

	mov         x8,#0
	str         x8,[sp,#0x10]

; 505  : 	char* p = 0;

	mov         x8,#0
	str         x8,[sp,#8]

; 506  : 	bool  root_dir = true;

	mov         w8,#1
	strb        w8,[sp]

; 507  : 	char* path = (char*)filename;

	ldr         x8,[sp,#0x28]
	str         x8,[sp,#0x20]

; 508  : 
; 509  : 
; 510  : 	//! any '\'s in path ?
; 511  : 	p = strchr(path, '/');

	mov         w1,#0x2F
	ldr         x0,[sp,#0x20]
	bl          strchr
	str         x0,[sp,#8]

; 512  : 	if (!p) {

	ldr         x8,[sp,#8]
	cmp         x8,#0
	bne         |$LN8@FatOpen|

; 513  : 		//! nope, must be in root directory, search it
; 514  : 		cur_dir = FatLocateDir(fsys, path);

	ldr         x1,[sp,#0x20]
	ldr         x0,[sp,#0x18]
	bl          FatLocateDir
	str         x0,[sp,#0x10]

; 515  : 
; 516  : 		//! found file ?
; 517  : 		if (cur_dir != NULL) {

	ldr         x8,[sp,#0x10]
	cmp         x8,#0
	beq         |$LN9@FatOpen|

; 518  : 			return cur_dir;

	ldr         x0,[sp,#0x10]
	b           |$LN1@FatOpen|
|$LN9@FatOpen|

; 519  : 		}
; 520  : 		//! unable to find
; 521  : 		return NULL;

	mov         x0,#0
	b           |$LN1@FatOpen|
|$LN8@FatOpen|

; 522  : 	}
; 523  : 
; 524  : 	//! go to next character after first '\'
; 525  : 	p++;

	ldr         x8,[sp,#8]
	add         x8,x8,#1
	str         x8,[sp,#8]
|$LN2@FatOpen|

; 526  : 	while (p) {

	ldr         x8,[sp,#8]
	cmp         x8,#0
	beq         |$LN3@FatOpen|

; 527  : 		//! get pathname
; 528  : 		char pathname[16];
; 529  : 		int i = 0;

	mov         w8,#0
	str         w8,[sp,#4]

; 530  : 		for (i = 0; i < 15; i++) {

	mov         w8,#0
	str         w8,[sp,#4]
	b           |$LN6@FatOpen|
|$LN4@FatOpen|
	ldr         w8,[sp,#4]
	add         w8,w8,#1
	str         w8,[sp,#4]
|$LN6@FatOpen|
	ldr         w8,[sp,#4]
	cmp         w8,#0xF
	bge         |$LN5@FatOpen|

; 531  : 
; 532  : 			//! if another '\' or end of line is reached, we are done
; 533  : 			if (p[i] == '/' || p[i] == '\0')

	ldr         w8,[sp,#4]
	sxtw        x9,w8
	mov         x8,#1
	mul         x9,x9,x8
	ldr         x8,[sp,#8]
	add         x8,x8,x9
	ldrsb       w8,[x8]
	mov         w8,w8
	cmp         w8,#0x2F
	beq         |$LN11@FatOpen|
	ldr         w8,[sp,#4]
	sxtw        x9,w8
	mov         x8,#1
	mul         x9,x9,x8
	ldr         x8,[sp,#8]
	add         x8,x8,x9
	ldrsb       w8,[x8]
	mov         w8,w8
	cmp         w8,#0
	bne         |$LN10@FatOpen|
|$LN11@FatOpen|

; 534  : 				break;

	b           |$LN5@FatOpen|
|$LN10@FatOpen|

; 535  : 
; 536  : 			//! copy character
; 537  : 			pathname[i] = p[i];

	ldr         w8,[sp,#4]
	sxtw        x9,w8
	mov         x8,#1
	mul         x9,x9,x8
	ldr         x8,[sp,#8]
	add         x10,x8,x9
	ldr         w8,[sp,#4]
	sxtw        x9,w8
	mov         x8,#1
	mul         x9,x9,x8
	add         x8,sp,#0x30
	add         x9,x8,x9
	ldrsb       w8,[x10]
	strb        w8,[x9]

; 538  : 		}

	b           |$LN4@FatOpen|
|$LN5@FatOpen|

; 539  : 		pathname[i] = 0; //null terminate

	ldr         w8,[sp,#4]
	sxtw        x9,w8
	mov         x8,#1
	mul         x9,x9,x8
	add         x8,sp,#0x30
	add         x9,x8,x9
	mov         w8,#0
	strb        w8,[x9]

; 540  : 		//! open subdirectory or file
; 541  : 		if (root_dir) {

	ldrb        w8,[sp]
	mov         w8,w8
	cmp         w8,#0
	beq         |$LN12@FatOpen|

; 542  : 			//! search root dir -- open pathname
; 543  : 			cur_dir = FatLocateDir(fsys, pathname);

	add         x1,sp,#0x30
	ldr         x0,[sp,#0x18]
	bl          FatLocateDir
	str         x0,[sp,#0x10]

; 544  : 			root_dir = false;

	mov         w8,#0
	strb        w8,[sp]

; 545  : 		}

	b           |$LN13@FatOpen|
|$LN12@FatOpen|

; 546  : 		else {
; 547  : 			//! search a sub directory instead for pathname
; 548  : 			cur_dir = FatLocateSubDir(fsys, cur_dir, pathname);

	add         x2,sp,#0x30
	ldr         x1,[sp,#0x10]
	ldr         x0,[sp,#0x18]
	bl          FatLocateSubDir
	str         x0,[sp,#0x10]
|$LN13@FatOpen|

; 549  : 		}
; 550  : 
; 551  : 		//! found directory or file?
; 552  : 		if (cur_dir == NULL)

	ldr         x8,[sp,#0x10]
	cmp         x8,#0
	bne         |$LN14@FatOpen|

; 553  : 			break;

	b           |$LN3@FatOpen|
|$LN14@FatOpen|

; 554  : 
; 555  : 		//! find next '\'
; 556  : 		p = strchr(p + 1, '/');

	ldr         x8,[sp,#8]
	add         x0,x8,#1
	mov         w1,#0x2F
	bl          strchr
	str         x0,[sp,#8]

; 557  : 		if (p)

	ldr         x8,[sp,#8]
	cmp         x8,#0
	beq         |$LN15@FatOpen|

; 558  : 			p++;

	ldr         x8,[sp,#8]
	add         x8,x8,#1
	str         x8,[sp,#8]
|$LN15@FatOpen|

; 559  : 	}

	b           |$LN2@FatOpen|
|$LN3@FatOpen|

; 560  : 
; 561  : 	//! found file?
; 562  : 	if (cur_dir)

	ldr         x8,[sp,#0x10]
	cmp         x8,#0
	beq         |$LN16@FatOpen|

; 563  : 		return cur_dir;

	ldr         x0,[sp,#0x10]
	b           |$LN1@FatOpen|
|$LN16@FatOpen|

; 564  : 	//! unable to find
; 565  : 	return NULL;

	mov         x0,#0
|$LN1@FatOpen|
	add         sp,sp,#0x50
	ldr         lr,[sp],#0x10
	ret

	ENDP  ; |FatOpen|

; Function compile flags: /Odtpy
; File C:\Users\paras\source\repos\grep-name\XenevaOS\KernelAA64\Fs\Fat\Fat.c

	AREA	|.text$mn|, CODE, ARM64

|FatReadFAT| PROC

; 168  : uint32_t FatReadFAT(AuVFSNode* node, uint64_t cluster_index) {

|$LN6|
	str         lr,[sp,#-0x10]!
	sub         sp,sp,#0x50
	str         x0,[sp,#0x28]
	str         x1,[sp,#0x30]

; 169  : 	FatFS* fs = (FatFS*)node->device;

	ldr         x8,[sp,#0x28]
	add         x8,x8,#0x50
	ldr         x8,[x8]
	str         x8,[sp]

; 170  : 	AuVDisk* vdisk = (AuVDisk*)fs->vdisk;

	ldr         x8,[sp]
	add         x8,x8,#8
	ldr         x8,[x8]
	str         x8,[sp,#0x20]

; 171  : 	if (!vdisk) {

	ldr         x8,[sp,#0x20]
	cmp         x8,#0
	bne         |$LN2@FatReadFAT|

; 172  : 		return NULL;

	mov         w0,#0
	b           |$LN1@FatReadFAT|
|$LN2@FatReadFAT|

; 173  : 	}
; 174  : 
; 175  : 	uint64_t fat_offset = cluster_index * 4;

	ldr         x9,[sp,#0x30]
	mov         x8,#4
	mul         x8,x9,x8
	str         x8,[sp,#0x18]

; 176  : 	uint64_t fat_sector = fs->__FatBeginLBA + (fat_offset / fs->__BytesPerSector);

	ldr         x8,[sp]
	add         x8,x8,#0x1C
	ldr         w8,[x8]
	uxtw        x10,w8
	ldr         x8,[sp]
	add         x8,x8,#0x48
	ldrh        w8,[x8]
	mov         w8,w8
	sxtw        x9,w8
	ldr         x8,[sp,#0x18]
	cbnz        x9,|$LN4@FatReadFAT|
	brk         #0xF004
|$LN4@FatReadFAT|
	udiv        x8,x8,x9
	add         x8,x10,x8
	str         x8,[sp,#0x38]

; 177  : 
; 178  : 	size_t ent_offset = fat_offset % fs->__BytesPerSector;

	ldr         x8,[sp]
	add         x8,x8,#0x48
	ldrh        w8,[x8]
	mov         w8,w8
	sxtw        x10,w8
	ldr         x9,[sp,#0x18]
	cbnz        x10,|$LN5@FatReadFAT|
	brk         #0xF004
|$LN5@FatReadFAT|
	udiv        x8,x9,x10
	mul         x8,x8,x10
	sub         x8,x9,x8
	str         x8,[sp,#0x40]

; 179  : 	uint64_t* BuffArea = (uint64_t*)P2V((size_t)AuPmmngrAlloc());

	bl          AuPmmngrAlloc
	bl          P2V
	str         x0,[sp,#8]

; 180  : 	memset(BuffArea, 0, 4096);

	mov         w2,#0x1000
	mov         w1,#0
	ldr         x0,[sp,#8]
	bl          memset

; 181  : 	AuVDiskRead(vdisk, fat_sector, 1,BuffArea);

	ldr         x3,[sp,#8]
	mov         w2,#1
	ldr         x1,[sp,#0x38]
	ldr         x0,[sp,#0x20]
	bl          AuVDiskRead

; 182  : 	unsigned char* buf = (unsigned char*)BuffArea;

	ldr         x8,[sp,#8]
	str         x8,[sp,#0x48]

; 183  : 	uint32_t value = *(uint32_t*)&buf[ent_offset];

	ldr         x9,[sp,#0x40]
	mov         x8,#1
	mul         x9,x9,x8
	ldr         x8,[sp,#0x48]
	add         x8,x8,x9
	ldr         w8,[x8]
	str         w8,[sp,#0x10]

; 184  : 	AuPmmngrFree((void*)V2P((size_t)BuffArea));

	ldr         x0,[sp,#8]
	bl          V2P
	bl          AuPmmngrFree

; 185  : 	return (value & 0x0FFFFFFF);

	ldr         w8,[sp,#0x10]
	and         w0,w8,#0xFFFFFFF
	mov         w0,w0
|$LN1@FatReadFAT|
	add         sp,sp,#0x50
	ldr         lr,[sp],#0x10
	ret

	ENDP  ; |FatReadFAT|

; Function compile flags: /Odtpy
; File C:\Users\paras\source\repos\grep-name\XenevaOS\KernelAA64\Fs\Fat\Fat.c

	AREA	|.text$mn|, CODE, ARM64

|FatClearCluster| PROC

; 267  : void FatClearCluster(AuVFSNode* node, uint32_t cluster) {

|$LN4|
	str         lr,[sp,#-0x10]!
	sub         sp,sp,#0x30
	str         x0,[sp,#0x18]
	str         w1,[sp]

; 268  : 	FatFS* fs = (FatFS*)node->device;

	ldr         x8,[sp,#0x18]
	add         x8,x8,#0x50
	ldr         x8,[x8]
	str         x8,[sp,#8]

; 269  : 	AuVDisk* vdisk = (AuVDisk*)fs->vdisk;

	ldr         x8,[sp,#8]
	add         x8,x8,#8
	ldr         x8,[x8]
	str         x8,[sp,#0x20]

; 270  : 	if (!vdisk)

	ldr         x8,[sp,#0x20]
	cmp         x8,#0
	bne         |$LN2@FatClearCl|

; 271  : 		return;

	b           |$LN1@FatClearCl|
|$LN2@FatClearCl|

; 272  : 
; 273  : 	uint32_t val = FatReadFAT(node, cluster);

	ldr         w8,[sp]
	uxtw        x1,w8
	ldr         x0,[sp,#0x18]
	bl          FatReadFAT
	mov         w0,w0
	str         w0,[sp,#4]

; 274  : 
; 275  : 	uint64_t* buffer = (uint64_t*)P2V((size_t)AuPmmngrAlloc());

	bl          AuPmmngrAlloc
	bl          P2V
	str         x0,[sp,#0x10]

; 276  : 	memset(buffer, 0, PAGE_SIZE);

	mov         w2,#0x1000
	mov         w1,#0
	ldr         x0,[sp,#0x10]
	bl          memset

; 277  : 	//update_cluster (buffer,cluster);
; 278  : 	uint64_t sector = FatClusterToSector32(fs, cluster);

	ldr         w8,[sp]
	uxtw        x1,w8
	ldr         x0,[sp,#8]
	bl          FatClusterToSector32
	str         x0,[sp,#0x28]

; 279  : 	AuVDiskWrite(vdisk, sector, fs->__SectorPerCluster, buffer);

	ldr         x8,[sp,#8]
	add         x8,x8,#0x24
	ldrb        w2,[x8]
	mov         w2,w2
	ldr         x3,[sp,#0x10]
	mov         w2,w2
	ldr         x1,[sp,#0x28]
	ldr         x0,[sp,#0x20]
	bl          AuVDiskWrite

; 280  : 	AuPmmngrFree((void*)V2P((size_t)buffer));

	ldr         x0,[sp,#0x10]
	bl          V2P
	bl          AuPmmngrFree
|$LN1@FatClearCl|
	add         sp,sp,#0x30
	ldr         lr,[sp],#0x10
	ret

	ENDP  ; |FatClearCluster|

; Function compile flags: /Odtpy
; File C:\Users\paras\source\repos\grep-name\XenevaOS\KernelAA64\Fs\Fat\Fat.c

	AREA	|.text$mn|, CODE, ARM64

|FatAllocCluster| PROC

; 238  : void FatAllocCluster(AuVFSNode* fsys, int position, uint32_t n_value) {

|$LN4|
	str         lr,[sp,#-0x10]!
	sub         sp,sp,#0x50
	str         x0,[sp,#0x48]
	str         w1,[sp,#8]
	str         w2,[sp,#0xC]

; 239  : 	FatFS* fs = fsys->device;

	ldr         x8,[sp,#0x48]
	add         x8,x8,#0x50
	ldr         x8,[x8]
	str         x8,[sp,#0x18]

; 240  : 	AuVDisk* vdisk = (AuVDisk*)fs->vdisk;

	ldr         x8,[sp,#0x18]
	add         x8,x8,#8
	ldr         x8,[x8]
	str         x8,[sp,#0x10]

; 241  : 	if (!vdisk)

	ldr         x8,[sp,#0x10]
	cmp         x8,#0
	bne         |$LN2@FatAllocCl|

; 242  : 		return;

	b           |$LN1@FatAllocCl|
|$LN2@FatAllocCl|

; 243  : 
; 244  : 	uint64_t fat_offset = position * 4;

	ldr         w9,[sp,#8]
	mov         w8,#4
	mul         w8,w9,w8
	sxtw        x8,w8
	str         x8,[sp,#0x20]

; 245  : 	uint64_t fat_sector = fs->__FatBeginLBA + (fat_offset / 512);

	ldr         x8,[sp,#0x18]
	add         x8,x8,#0x1C
	ldr         w8,[x8]
	uxtw        x10,w8
	ldr         x9,[sp,#0x20]
	mov         x8,#0x200
	udiv        x8,x9,x8
	add         x8,x10,x8
	str         x8,[sp,#0x38]

; 246  : 	size_t ent_offset = fat_offset % 512;

	ldr         x10,[sp,#0x20]
	mov         x9,#0x200
	udiv        x8,x10,x9
	mul         x8,x8,x9
	sub         x8,x10,x8
	str         x8,[sp,#0x28]

; 247  : 
; 248  : 	uint32_t* buffer = (uint32_t*)P2V((size_t)AuPmmngrAlloc());

	bl          AuPmmngrAlloc
	bl          P2V
	str         x0,[sp]

; 249  : 	memset(buffer, 0, PAGE_SIZE);

	mov         w2,#0x1000
	mov         w1,#0
	ldr         x0,[sp]
	bl          memset

; 250  : 	AuVDiskRead(vdisk, fat_sector, 1, buffer);

	ldr         x3,[sp]
	mov         w2,#1
	ldr         x1,[sp,#0x38]
	ldr         x0,[sp,#0x10]
	bl          AuVDiskRead

; 251  : 	uint8_t* buf = (uint8_t*)buffer;

	ldr         x8,[sp]
	str         x8,[sp,#0x30]

; 252  : 	
; 253  : 
; 254  : 	uint32_t value = *(uint32_t*)&buf[ent_offset];

	ldr         x9,[sp,#0x28]
	mov         x8,#1
	mul         x9,x9,x8
	ldr         x8,[sp,#0x30]
	add         x8,x8,x9
	ldr         w8,[x8]
	str         w8,[sp,#0x40]

; 255  : 
; 256  : 	*(uint32_t*)&buf[ent_offset] = n_value & 0x0FFFFFFF;

	ldr         w8,[sp,#0xC]
	and         w10,w8,#0xFFFFFFF
	ldr         x9,[sp,#0x28]
	mov         x8,#1
	mul         x9,x9,x8
	ldr         x8,[sp,#0x30]
	add         x8,x8,x9
	str         w10,[x8]

; 257  : 
; 258  : 	AuVDiskWrite(vdisk, fat_sector, 1, buffer);

	ldr         x3,[sp]
	mov         w2,#1
	ldr         x1,[sp,#0x38]
	ldr         x0,[sp,#0x10]
	bl          AuVDiskWrite

; 259  : 	AuPmmngrFree((void*)V2P((size_t)buffer));

	ldr         x0,[sp]
	bl          V2P
	bl          AuPmmngrFree
|$LN1@FatAllocCl|
	add         sp,sp,#0x50
	ldr         lr,[sp],#0x10
	ret

	ENDP  ; |FatAllocCluster|

; Function compile flags: /Odtpy
; File C:\Users\paras\source\repos\grep-name\XenevaOS\KernelAA64\Fs\Fat\Fat.c

	AREA	|.text$mn|, CODE, ARM64

|FatFindFreeCluster| PROC

; 193  : uint32_t FatFindFreeCluster(AuVFSNode* node) {

|$LN15|
	str         lr,[sp,#-0x10]!
	sub         sp,sp,#0x60
	str         x0,[sp,#0x40]

; 194  : 	FatFS* fs = (FatFS*)node->device;

	ldr         x8,[sp,#0x40]
	add         x8,x8,#0x50
	ldr         x8,[x8]
	str         x8,[sp,#0x10]

; 195  : 	AuVDisk* vdisk = (AuVDisk*)fs->vdisk;

	ldr         x8,[sp,#0x10]
	add         x8,x8,#8
	ldr         x8,[x8]
	str         x8,[sp,#0x38]

; 196  : 	if (!vdisk)

	ldr         x8,[sp,#0x38]
	cmp         x8,#0
	bne         |$LN8@FatFindFre|

; 197  : 		return NULL;

	mov         w0,#0
	b           |$LN1@FatFindFre|
|$LN8@FatFindFre|

; 198  : 
; 199  : 	uint64_t last_fat_sector = 0;

	mov         x8,#0
	str         x8,[sp,#0x58]

; 200  : 	uint64_t last_cluster_value = 0;

	mov         x8,#0
	str         x8,[sp,#0x18]

; 201  : 	int sector_num = 1;

	mov         w8,#1
	str         w8,[sp,#8]

; 202  : 	for (int i = 0; i < fs->__SectorPerFAT32; i++) {

	mov         w8,#0
	str         w8,[sp,#4]
	b           |$LN4@FatFindFre|
|$LN2@FatFindFre|
	ldr         w8,[sp,#4]
	add         w8,w8,#1
	str         w8,[sp,#4]
|$LN4@FatFindFre|
	ldr         x8,[sp,#0x10]
	add         x8,x8,#0x30
	ldr         w9,[x8]
	ldr         w8,[sp,#4]
	cmp         w8,w9
	bhs         |$LN3@FatFindFre|

; 203  : 		uint64_t fat_sector = fs->__FatBeginLBA + i;

	ldr         x8,[sp,#0x10]
	add         x8,x8,#0x1C
	ldr         w9,[x8]
	ldr         w8,[sp,#4]
	add         w8,w9,w8
	uxtw        x8,w8
	str         x8,[sp,#0x48]

; 204  : 		uint64_t* buffer = (uint64_t*)P2V((size_t)AuPmmngrAlloc());

	bl          AuPmmngrAlloc
	bl          P2V
	str         x0,[sp,#0x30]

; 205  : 		memset(buffer, 0, 4096);

	mov         w2,#0x1000
	mov         w1,#0
	ldr         x0,[sp,#0x30]
	bl          memset

; 206  : 		AuVDiskRead(vdisk, fat_sector, 1,buffer);

	ldr         x3,[sp,#0x30]
	mov         w2,#1
	ldr         x1,[sp,#0x48]
	ldr         x0,[sp,#0x38]
	bl          AuVDiskRead

; 207  : 		uint8_t* buff = (uint8_t*)buffer;

	ldr         x8,[sp,#0x30]
	str         x8,[sp,#0x50]

; 208  : 		for (int clust_i = 0; clust_i < fs->__BytesPerSector / 4; clust_i++) {

	mov         w8,#0
	str         w8,[sp]
	b           |$LN7@FatFindFre|
|$LN5@FatFindFre|
	ldr         w8,[sp]
	add         w8,w8,#1
	str         w8,[sp]
|$LN7@FatFindFre|
	ldr         x8,[sp,#0x10]
	add         x8,x8,#0x48
	ldrh        w9,[x8]
	mov         w9,w9
	mov         w8,#4
	sdiv        w9,w9,w8
	ldr         w8,[sp]
	cmp         w8,w9
	bge         |$LN6@FatFindFre|

; 209  : 			uint32_t value = *(uint32_t*)&buff[clust_i * 4];

	ldr         w9,[sp]
	mov         w8,#4
	mul         w8,w9,w8
	sxtw        x9,w8
	mov         x8,#1
	mul         x9,x9,x8
	ldr         x8,[sp,#0x50]
	add         x8,x8,x9
	ldr         w8,[x8]
	str         w8,[sp,#0x20]

; 210  : 			if (value == 0x00000000) {

	ldr         w8,[sp,#0x20]
	cmp         w8,#0
	bne         |$LN9@FatFindFre|

; 211  : 				if ((last_cluster_value == 0 && clust_i == 1) ||

	ldr         x8,[sp,#0x18]
	cmp         x8,#0
	bne         |$LN12@FatFindFre|
	ldr         w8,[sp]
	cmp         w8,#1
	beq         |$LN11@FatFindFre|
|$LN12@FatFindFre|
	ldr         x8,[sp,#0x18]
	cmp         x8,#0
	bne         |$LN10@FatFindFre|
	ldr         w8,[sp]
	cmp         w8,#0
	bne         |$LN10@FatFindFre|
|$LN11@FatFindFre|

; 212  : 					(last_cluster_value == 0 && clust_i == 0))
; 213  : 					continue;

	b           |$LN5@FatFindFre|
|$LN10@FatFindFre|

; 214  : 				uint32_t total_entry_skipped = (sector_num - 1) * (fs->__BytesPerSector / 4);

	ldr         w8,[sp,#8]
	sub         w10,w8,#1
	ldr         x8,[sp,#0x10]
	add         x8,x8,#0x48
	ldrh        w9,[x8]
	mov         w9,w9
	mov         w8,#4
	sdiv        w8,w9,w8
	mul         w8,w10,w8
	str         w8,[sp,#0x24]

; 215  : 				uint32_t current_cluster_entry = total_entry_skipped + clust_i;

	ldr         w9,[sp,#0x24]
	ldr         w8,[sp]
	add         w8,w9,w8
	str         w8,[sp,#0x28]

; 216  : 				/*SeTextOut("free cluster found -> %d sector -> %d \r\n",current_cluster_entry, fat_sector);
; 217  : 				SeTextOut("Original entry -> %d, last cluster -> %d \r\n", clust_i, total_entry_skipped);
; 218  : 				SeTextOut("Ent offset -> %d , sector num -> %d \r\n", clust_i, sector_num);
; 219  : 				SeTextOut("dadang dara value -> %x \r\n", value);*/
; 220  : 				return current_cluster_entry;

	ldr         w0,[sp,#0x28]
	b           |$LN1@FatFindFre|
|$LN9@FatFindFre|

; 221  : 			}
; 222  : 			if (clust_i == (fs->__BytesPerSector / 4) - 1) {

	ldr         x8,[sp,#0x10]
	add         x8,x8,#0x48
	ldrh        w9,[x8]
	mov         w9,w9
	mov         w8,#4
	sdiv        w8,w9,w8
	sub         w9,w8,#1
	ldr         w8,[sp]
	cmp         w8,w9
	bne         |$LN13@FatFindFre|

; 223  : 				last_cluster_value += clust_i;

	ldr         w8,[sp]
	sxtw        x9,w8
	ldr         x8,[sp,#0x18]
	add         x8,x8,x9
	str         x8,[sp,#0x18]
|$LN13@FatFindFre|

; 224  : 			}
; 225  : 		}

	b           |$LN5@FatFindFre|
|$LN6@FatFindFre|

; 226  : 		sector_num++;

	ldr         w8,[sp,#8]
	add         w8,w8,#1
	str         w8,[sp,#8]

; 227  : 	}

	b           |$LN2@FatFindFre|
|$LN3@FatFindFre|

; 228  : 	return 0;

	mov         w0,#0
|$LN1@FatFindFre|
	add         sp,sp,#0x60
	ldr         lr,[sp],#0x10
	ret

	ENDP  ; |FatFindFreeCluster|

; Function compile flags: /Odtpy
; File C:\Users\paras\source\repos\grep-name\XenevaOS\KernelAA64\Fs\Fat\Fat.c

	AREA	|.text$mn|, CODE, ARM64

|FatCheckDotCount| PROC

; 127  : uint8_t FatCheckDotCount(char* filename) {

|$LN7|
	sub         sp,sp,#0x10
	stp         x19,lr,[sp]
	sub         sp,sp,#0x10
	str         x0,[sp,#8]

; 128  : 	uint8_t dot_count = 0;

	mov         w8,#0
	strb        w8,[sp]

; 129  : 	for (int i = 0; i < strlen(filename); i++) {

	mov         w8,#0
	str         w8,[sp,#4]
	b           |$LN4@FatCheckDo|
|$LN2@FatCheckDo|
	ldr         w8,[sp,#4]
	add         w8,w8,#1
	str         w8,[sp,#4]
|$LN4@FatCheckDo|
	ldr         w8,[sp,#4]
	sxtw        x19,w8
	ldr         x0,[sp,#8]
	bl          strlen
	cmp         x19,x0
	bhs         |$LN3@FatCheckDo|

; 130  : 		if (filename[i] == '.')

	ldr         w8,[sp,#4]
	sxtw        x9,w8
	mov         x8,#1
	mul         x9,x9,x8
	ldr         x8,[sp,#8]
	add         x8,x8,x9
	ldrsb       w8,[x8]
	mov         w8,w8
	cmp         w8,#0x2E
	bne         |$LN5@FatCheckDo|

; 131  : 			dot_count++;

	ldrb        w8,[sp]
	add         w8,w8,#1
	uxtb        w8,w8
	strb        w8,[sp]
|$LN5@FatCheckDo|

; 132  : 	}

	b           |$LN2@FatCheckDo|
|$LN3@FatCheckDo|

; 133  : 	return dot_count;

	ldrb        w0,[sp]
	add         sp,sp,#0x10
	ldp         x19,lr,[sp]
	add         sp,sp,#0x10
	ret

	ENDP  ; |FatCheckDotCount|

; Function compile flags: /Odtpy
; File C:\Users\paras\source\repos\grep-name\XenevaOS\KernelAA64\Fs\Fat\Fat.c

	AREA	|.text$mn|, CODE, ARM64

|FatCalculateCheckSum| PROC

; 114  : uint8_t FatCalculateCheckSum(uint8_t* filename) {

|$LN8|
	sub         sp,sp,#0x10
	str         x0,[sp,#8]

; 115  : 	short nameLen;
; 116  : 	uint8_t sum = 0;

	mov         w8,#0
	strb        w8,[sp]

; 117  : 	for (nameLen = 11; nameLen != 0; nameLen--)

	mov         w8,#0xB
	strh        w8,[sp,#2]
	b           |$LN4@FatCalcula|
|$LN2@FatCalcula|
	ldrsh       w8,[sp,#2]
	sub         w8,w8,#1
	sxth        w8,w8
	strh        w8,[sp,#2]
|$LN4@FatCalcula|
	ldrsh       w8,[sp,#2]
	mov         w8,w8
	cmp         w8,#0
	beq         |$LN3@FatCalcula|

; 118  : 		sum = ((sum & 1) ? 0x80 : 0) + (sum >> 1) + *filename++;

	ldrb        w8,[sp]
	mov         w8,w8
	tbz         x8,#0,|$LN6@FatCalcula|
	mov         w8,#0x80
	str         w8,[sp,#4]
	b           |$LN7@FatCalcula|
|$LN6@FatCalcula|
	mov         w8,#0
	str         w8,[sp,#4]
|$LN7@FatCalcula|
	ldrb        w8,[sp]
	mov         w8,w8
	asr         w9,w8,#1
	ldr         w8,[sp,#4]
	add         w9,w8,w9
	ldr         x8,[sp,#8]
	ldrb        w8,[x8]
	mov         w8,w8
	add         w8,w9,w8
	uxtb        w8,w8
	strb        w8,[sp]
	ldr         x8,[sp,#8]
	add         x8,x8,#1
	str         x8,[sp,#8]
	b           |$LN2@FatCalcula|
|$LN3@FatCalcula|

; 119  : 	return sum;

	ldrb        w0,[sp]
	add         sp,sp,#0x10
	ret

	ENDP  ; |FatCalculateCheckSum|

; Function compile flags: /Odtpy
; File C:\Users\paras\source\repos\grep-name\XenevaOS\KernelAA64\Fs\Fat\Fat.c

	AREA	|.text$mn|, CODE, ARM64

|FatToDOSFilename| PROC

; 74   : {

|$LN19|
	sub         sp,sp,#0x10
	stp         x19,lr,[sp]
	sub         sp,sp,#0x20
	str         x0,[sp,#0x10]
	str         x1,[sp,#0x18]
	str         w2,[sp,#8]

; 75   : 	unsigned int i = 0;

	mov         w8,#0
	str         w8,[sp]

; 76   : 
; 77   : 	if (fname_length > 11)

	ldr         w8,[sp,#8]
	cmp         w8,#0xB
	bls         |$LN11@FatToDOSFi|

; 78   : 		return;

	b           |$LN1@FatToDOSFi|
|$LN11@FatToDOSFi|

; 79   : 
; 80   : 	if (!fname || !filename)

	ldr         x8,[sp,#0x18]
	cmp         x8,#0
	beq         |$LN13@FatToDOSFi|
	ldr         x8,[sp,#0x10]
	cmp         x8,#0
	bne         |$LN12@FatToDOSFi|
|$LN13@FatToDOSFi|

; 81   : 		return;

	b           |$LN1@FatToDOSFi|
|$LN12@FatToDOSFi|

; 82   : 
; 83   : 	memset(fname, ' ', fname_length);

	ldr         w2,[sp,#8]
	mov         w1,#0x20
	ldr         x0,[sp,#0x18]
	bl          memset

; 84   : 
; 85   : 	for (i = 0; i < strlen(filename) && i < fname_length; i++)

	mov         w8,#0
	str         w8,[sp]
	b           |$LN4@FatToDOSFi|
|$LN2@FatToDOSFi|
	ldr         w8,[sp]
	add         w8,w8,#1
	str         w8,[sp]
|$LN4@FatToDOSFi|
	ldr         w8,[sp]
	uxtw        x19,w8
	ldr         x0,[sp,#0x10]
	bl          strlen
	cmp         x19,x0
	bhs         |$LN3@FatToDOSFi|
	ldr         w9,[sp,#8]
	ldr         w8,[sp]
	cmp         w8,w9
	bhs         |$LN3@FatToDOSFi|

; 86   : 	{
; 87   : 		if (filename[i] == '.' || i == 8)

	ldr         w8,[sp]
	uxtw        x9,w8
	mov         x8,#1
	mul         x9,x9,x8
	ldr         x8,[sp,#0x10]
	add         x8,x8,x9
	ldrsb       w8,[x8]
	mov         w8,w8
	cmp         w8,#0x2E
	beq         |$LN15@FatToDOSFi|
	ldr         w8,[sp]
	cmp         w8,#8
	bne         |$LN14@FatToDOSFi|
|$LN15@FatToDOSFi|

; 88   : 			break;

	b           |$LN3@FatToDOSFi|
|$LN14@FatToDOSFi|

; 89   : 
; 90   : 		fname[i] = toupper(filename[i]);

	ldr         w8,[sp]
	uxtw        x9,w8
	mov         x8,#1
	mul         x9,x9,x8
	ldr         x8,[sp,#0x10]
	add         x8,x8,x9
	ldrsb       w0,[x8]
	mov         w0,w0
	mov         w0,w0
	bl          toupper
	mov         w0,w0
	ldr         w8,[sp]
	uxtw        x9,w8
	mov         x8,#1
	mul         x9,x9,x8
	ldr         x8,[sp,#0x18]
	add         x9,x8,x9
	sxtb        w8,w0
	strb        w8,[x9]

; 91   : 	}

	b           |$LN2@FatToDOSFi|
|$LN3@FatToDOSFi|

; 92   : 
; 93   : 	if (filename[i] == '.')

	ldr         w8,[sp]
	uxtw        x9,w8
	mov         x8,#1
	mul         x9,x9,x8
	ldr         x8,[sp,#0x10]
	add         x8,x8,x9
	ldrsb       w8,[x8]
	mov         w8,w8
	cmp         w8,#0x2E
	bne         |$LN16@FatToDOSFi|

; 94   : 	{
; 95   : 		for (int k = 0; k < 3; k++)

	mov         w8,#0
	str         w8,[sp,#4]
	b           |$LN7@FatToDOSFi|
|$LN5@FatToDOSFi|
	ldr         w8,[sp,#4]
	add         w8,w8,#1
	str         w8,[sp,#4]
|$LN7@FatToDOSFi|
	ldr         w8,[sp,#4]
	cmp         w8,#3
	bge         |$LN6@FatToDOSFi|

; 96   : 		{
; 97   : 			++i;

	ldr         w8,[sp]
	add         w8,w8,#1
	str         w8,[sp]

; 98   : 			if (filename[i])

	ldr         w8,[sp]
	uxtw        x9,w8
	mov         x8,#1
	mul         x9,x9,x8
	ldr         x8,[sp,#0x10]
	add         x8,x8,x9
	ldrsb       w8,[x8]
	mov         w8,w8
	cmp         w8,#0
	beq         |$LN17@FatToDOSFi|

; 99   : 				fname[8 + k] = filename[i];

	ldr         w8,[sp]
	uxtw        x9,w8
	mov         x8,#1
	mul         x9,x9,x8
	ldr         x8,[sp,#0x10]
	add         x10,x8,x9
	ldr         w8,[sp,#4]
	add         w8,w8,#8
	sxtw        x9,w8
	mov         x8,#1
	mul         x9,x9,x8
	ldr         x8,[sp,#0x18]
	add         x9,x8,x9
	ldrsb       w8,[x10]
	strb        w8,[x9]
|$LN17@FatToDOSFi|

; 100  : 		}

	b           |$LN5@FatToDOSFi|
|$LN6@FatToDOSFi|
|$LN16@FatToDOSFi|

; 101  : 	}
; 102  : 
; 103  : 	for (i = 0; i < 3; i++)

	mov         w8,#0
	str         w8,[sp]
	b           |$LN10@FatToDOSFi|
|$LN8@FatToDOSFi|
	ldr         w8,[sp]
	add         w8,w8,#1
	str         w8,[sp]
|$LN10@FatToDOSFi|
	ldr         w8,[sp]
	cmp         w8,#3
	bhs         |$LN9@FatToDOSFi|

; 104  : 		fname[8 + i] = toupper(fname[8 + i]);

	ldr         w8,[sp]
	add         w8,w8,#8
	uxtw        x9,w8
	mov         x8,#1
	mul         x9,x9,x8
	ldr         x8,[sp,#0x18]
	add         x8,x8,x9
	ldrsb       w0,[x8]
	mov         w0,w0
	mov         w0,w0
	bl          toupper
	mov         w0,w0
	ldr         w8,[sp]
	add         w8,w8,#8
	uxtw        x9,w8
	mov         x8,#1
	mul         x9,x9,x8
	ldr         x8,[sp,#0x18]
	add         x9,x8,x9
	sxtb        w8,w0
	strb        w8,[x9]
	b           |$LN8@FatToDOSFi|
|$LN9@FatToDOSFi|
|$LN1@FatToDOSFi|
	add         sp,sp,#0x20
	ldp         x19,lr,[sp]
	add         sp,sp,#0x10
	ret

	ENDP  ; |FatToDOSFilename|

; Function compile flags: /Odtpy
; File C:\Users\paras\source\repos\grep-name\XenevaOS\KernelAA64\Fs\Fat\Fat.c

	AREA	|.text$mn|, CODE, ARM64

|FatClusterToSector32| PROC

; 62   : uint64_t FatClusterToSector32(FatFS* fs, uint64_t cluster) {

|$LN3|
	sub         sp,sp,#0x10
	str         x0,[sp]
	str         x1,[sp,#8]

; 63   : 	return fs->__ClusterBeginLBA + ((cluster - 2) * fs->__SectorPerCluster);

	ldr         x8,[sp]
	add         x8,x8,#0x20
	ldr         w8,[x8]
	uxtw        x10,w8
	ldr         x8,[sp,#8]
	sub         x9,x8,#2
	ldr         x8,[sp]
	add         x8,x8,#0x24
	ldrb        w8,[x8]
	mov         w8,w8
	sxtw        x8,w8
	mul         x8,x9,x8
	add         x0,x10,x8
	add         sp,sp,#0x10
	ret

	ENDP  ; |FatClusterToSector32|

; Function compile flags: /Odtpy
; File C:\Users\paras\source\repos\grep-name\XenevaOS\KernelAA64\Fs\Fat\Fat.c

	AREA	|.text$mn|, CODE, ARM64

|FatInitialise| PROC

; 604  : AuVFSNode* FatInitialise(AuVDisk* vdisk, char* mountname) {

|$LN19|
	str         lr,[sp,#-0x10]!
	sub         sp,sp,#0xC0
	str         x0,[sp,#0x30]
	str         x1,[sp,#0x98]

; 605  : 	uint64_t* buffer = (uint64_t*)P2V((uint64_t)AuPmmngrAlloc());

	bl          AuPmmngrAlloc
	bl          P2V
	str         x0,[sp,#8]

; 606  : 	memset(buffer, 0, 4096);

	mov         w2,#0x1000
	mov         w1,#0
	ldr         x0,[sp,#8]
	bl          memset

; 607  : 	AuVDiskRead(vdisk, 0, 1, buffer);

	ldr         x3,[sp,#8]
	mov         w2,#1
	mov         x1,#0
	ldr         x0,[sp,#0x30]
	bl          AuVDiskRead

; 608  : 
; 609  : 	/* avoiding alignment issues */
; 610  : 	FatBPB bpb;
; 611  : 	memcpy(&bpb.jmp, (uint8_t*)buffer, 3);

	mov         x2,#3
	ldr         x1,[sp,#8]
	add         x0,sp,#0x38
	bl          memcpy

; 612  : 	memcpy(&bpb.oemid, (uint8_t*)buffer + 0x03, 8);

	ldr         x8,[sp,#8]
	add         x1,x8,#3
	mov         x2,#8
	add         x0,sp,#0x3B
	bl          memcpy

; 613  : 	memcpy(&bpb.bytes_per_sector, (uint8_t*)buffer + 0x00B, 2);

	ldr         x8,[sp,#8]
	add         x1,x8,#0xB
	mov         x2,#2
	add         x0,sp,#0x44
	bl          memcpy

; 614  : 	memcpy(&bpb.sectors_per_cluster, (uint8_t*)buffer + 0x00D, 1);

	ldr         x8,[sp,#8]
	add         x1,x8,#0xD
	mov         x2,#1
	add         x0,sp,#0x46
	bl          memcpy

; 615  : 	memcpy(&bpb.reserved_sectors, (uint8_t*)buffer + 0x00E, 2);

	ldr         x8,[sp,#8]
	add         x1,x8,#0xE
	mov         x2,#2
	add         x0,sp,#0x48
	bl          memcpy

; 616  : 	memcpy(&bpb.num_fats, (uint8_t*)buffer + 0x010, 1);

	ldr         x8,[sp,#8]
	add         x1,x8,#0x10
	mov         x2,#1
	add         x0,sp,#0x4A
	bl          memcpy

; 617  : 	memcpy(&bpb.num_dir_entries, (uint8_t*)buffer + 0x011, 2);

	ldr         x8,[sp,#8]
	add         x1,x8,#0x11
	mov         x2,#2
	add         x0,sp,#0x4C
	bl          memcpy

; 618  : 	memcpy(&bpb.total_sectors_short, (uint8_t*)buffer + 0x013, 2);

	ldr         x8,[sp,#8]
	add         x1,x8,#0x13
	mov         x2,#2
	add         x0,sp,#0x4E
	bl          memcpy

; 619  : 	memcpy(&bpb.media_type, (uint8_t*)buffer + 0x015, 1);

	ldr         x8,[sp,#8]
	add         x1,x8,#0x15
	mov         x2,#1
	add         x0,sp,#0x50
	bl          memcpy

; 620  : 	memcpy(&bpb.sectors_per_fat, (uint8_t*)buffer + 0x016, 2);

	ldr         x8,[sp,#8]
	add         x1,x8,#0x16
	mov         x2,#2
	add         x0,sp,#0x52
	bl          memcpy

; 621  : 	memcpy(&bpb.sectors_per_track, (uint8_t*)buffer + 0x018, 2);

	ldr         x8,[sp,#8]
	add         x1,x8,#0x18
	mov         x2,#2
	add         x0,sp,#0x54
	bl          memcpy

; 622  : 	memcpy(&bpb.heads, (uint8_t*)buffer + 0x01A, 2);

	ldr         x8,[sp,#8]
	add         x1,x8,#0x1A
	mov         x2,#2
	add         x0,sp,#0x56
	bl          memcpy

; 623  : 	memcpy(&bpb.hidden_sectors, (uint8_t*)buffer + 0x01C, 4);

	ldr         x8,[sp,#8]
	add         x1,x8,#0x1C
	mov         x2,#4
	add         x0,sp,#0x58
	bl          memcpy

; 624  : 	memcpy(&bpb.large_sector_count, (uint8_t*)buffer + 0x020, 4);

	ldr         x8,[sp,#8]
	add         x1,x8,#0x20
	mov         x2,#4
	add         x0,sp,#0x5C
	bl          memcpy

; 625  : 	memcpy(&bpb.info.FAT32.sect_per_fat32, (uint8_t*)buffer + 0x024, 4);

	ldr         x8,[sp,#8]
	add         x1,x8,#0x24
	mov         x2,#4
	add         x0,sp,#0x60
	bl          memcpy

; 626  : 	memcpy(&bpb.info.FAT32.falgs, (uint8_t*)buffer + 0x028, 2);

	ldr         x8,[sp,#8]
	add         x1,x8,#0x28
	mov         x2,#2
	add         x0,sp,#0x64
	bl          memcpy

; 627  : 	memcpy(&bpb.info.FAT32.fat_version, (uint8_t*)buffer + 0x02A, 2);

	ldr         x8,[sp,#8]
	add         x1,x8,#0x2A
	mov         x2,#2
	add         x0,sp,#0x66
	bl          memcpy

; 628  : 	memcpy(&bpb.info.FAT32.root_dir_cluster, (uint8_t*)buffer + 0x02C, 4);

	ldr         x8,[sp,#8]
	add         x1,x8,#0x2C
	mov         x2,#4
	add         x0,sp,#0x68
	bl          memcpy

; 629  : 	memcpy(&bpb.info.FAT32.fs_info_sect, (uint8_t*)buffer + 0x030, 2);

	ldr         x8,[sp,#8]
	add         x1,x8,#0x30
	mov         x2,#2
	add         x0,sp,#0x6C
	bl          memcpy

; 630  : 	memcpy(&bpb.info.FAT32.backup_boot_sect, (uint8_t*)buffer + 0x032, 2);

	ldr         x8,[sp,#8]
	add         x1,x8,#0x32
	mov         x2,#2
	add         x0,sp,#0x6E
	bl          memcpy

; 631  : 	memcpy(&bpb.info.FAT32.signature, (uint8_t*)buffer + 0x042, 1);

	ldr         x8,[sp,#8]
	add         x1,x8,#0x42
	mov         x2,#1
	add         x0,sp,#0x7E
	bl          memcpy

; 632  : 	memcpy(&bpb.info.FAT32.vol_label, (uint8_t*)buffer + 0x047, 11);

	ldr         x8,[sp,#8]
	add         x1,x8,#0x47
	mov         x2,#0xB
	add         x0,sp,#0x84
	bl          memcpy

; 633  : 	memcpy(&bpb.info.FAT32.sys_id, (uint8_t*)buffer + 0x052, 8);

	ldr         x8,[sp,#8]
	add         x1,x8,#0x52
	mov         x2,#8
	add         x0,sp,#0x8F
	bl          memcpy

; 634  : 
; 635  : 	FatFS* fs = (FatFS*)kmalloc(sizeof(FatFS));

	mov         w0,#0x58
	bl          kmalloc
	str         x0,[sp]

; 636  : 	memset(fs, 0, sizeof(FatFS));

	mov         w2,#0x58
	mov         w1,#0
	ldr         x0,[sp]
	bl          memset

; 637  : 
; 638  : 	fs->bpb = 0;

	ldr         x9,[sp]
	mov         x8,#0
	str         x8,[x9]

; 639  : 	fs->vdisk = vdisk;

	ldr         x8,[sp]
	add         x9,x8,#8
	ldr         x8,[sp,#0x30]
	str         x8,[x9]

; 640  : 
; 641  : 	AuTextOut("[aurora]: FAT32 OEM :");

	adrp        x8,|$SG4246|
	add         x0,x8,PageOffset(|$SG4246|)
	bl          AuTextOut

; 642  : 	for (int i = 0; i < 7; i++) {

	mov         w8,#0
	str         w8,[sp,#0x18]
	b           |$LN4@FatInitial|
|$LN2@FatInitial|
	ldr         w8,[sp,#0x18]
	add         w8,w8,#1
	str         w8,[sp,#0x18]
|$LN4@FatInitial|
	ldr         w8,[sp,#0x18]
	cmp         w8,#7
	bge         |$LN3@FatInitial|

; 643  : 		AuTextOut("%c", bpb.oemid[i]);

	ldr         w8,[sp,#0x18]
	sxtw        x9,w8
	mov         x8,#1
	mul         x9,x9,x8
	add         x8,sp,#0x3B
	add         x8,x8,x9
	ldrsb       w1,[x8]
	mov         w1,w1
	mov         w1,w1
	adrp        x8,|$SG4247|
	add         x0,x8,PageOffset(|$SG4247|)
	bl          AuTextOut

; 644  : 		fs->oemid[i] = bpb.oemid[i];

	ldr         w8,[sp,#0x18]
	sxtw        x9,w8
	mov         x8,#1
	mul         x9,x9,x8
	add         x8,sp,#0x3B
	add         x11,x8,x9
	ldr         x8,[sp]
	add         x10,x8,#0x10
	ldr         w8,[sp,#0x18]
	sxtw        x9,w8
	mov         x8,#1
	mul         x8,x9,x8
	add         x9,x10,x8
	ldrsb       w8,[x11]
	strb        w8,[x9]

; 645  : 	}

	b           |$LN2@FatInitial|
|$LN3@FatInitial|

; 646  : 	AuTextOut("\r\n");

	adrp        x8,|$SG4248|
	add         x0,x8,PageOffset(|$SG4248|)
	bl          AuTextOut

; 647  : 	fs->oemid[7] = '\0';

	ldr         x8,[sp]
	add         x9,x8,#0x17
	mov         w8,#0
	strb        w8,[x9]

; 648  : 	fs->__FatBeginLBA = bpb.reserved_sectors;

	ldr         x8,[sp]
	add         x9,x8,#0x1C
	ldrh        w8,[sp,#0x48]
	mov         w8,w8
	str         w8,[x9]

; 649  : 	fs->__ClusterBeginLBA = bpb.reserved_sectors + (bpb.num_fats * bpb.info.FAT32.sect_per_fat32);

	ldrh        w10,[sp,#0x48]
	mov         w10,w10
	ldrb        w9,[sp,#0x4A]
	mov         w9,w9
	ldr         w8,[sp,#0x60]
	mul         w8,w9,w8
	add         w9,w10,w8
	ldr         x8,[sp]
	add         x8,x8,#0x20
	str         w9,[x8]

; 650  : 	fs->__SectorPerCluster = bpb.sectors_per_cluster;

	ldr         x8,[sp]
	add         x9,x8,#0x24
	ldrb        w8,[sp,#0x46]
	strb        w8,[x9]

; 651  : 	fs->__RootDirFirstCluster = bpb.info.FAT32.root_dir_cluster;

	ldr         x8,[sp]
	add         x9,x8,#0x28
	ldr         w8,[sp,#0x68]
	str         w8,[x9]

; 652  : 	fs->__RootSector = FatClusterToSector32(fs, fs->__RootDirFirstCluster);

	ldr         x8,[sp]
	add         x8,x8,#0x28
	ldr         w8,[x8]
	uxtw        x1,w8
	ldr         x0,[sp]
	bl          FatClusterToSector32
	ldr         x8,[sp]
	add         x9,x8,#0x2C
	mov         w8,w0
	str         w8,[x9]

; 653  : 	fs->__SectorPerFAT32 = bpb.info.FAT32.sect_per_fat32;

	ldr         x8,[sp]
	add         x9,x8,#0x30
	ldr         w8,[sp,#0x60]
	str         w8,[x9]

; 654  : 	fs->cluster_sz_in_bytes = fs->__SectorPerCluster * bpb.bytes_per_sector;

	ldr         x8,[sp]
	add         x8,x8,#0x24
	ldrb        w9,[x8]
	mov         w9,w9
	ldrh        w8,[sp,#0x44]
	mov         w8,w8
	mul         w10,w9,w8
	ldr         x8,[sp]
	add         x9,x8,#0x50
	sxtw        x8,w10
	str         x8,[x9]

; 655  : 	fs->__BytesPerSector = bpb.bytes_per_sector;

	ldr         x8,[sp]
	add         x9,x8,#0x48
	ldrh        w8,[sp,#0x44]
	strh        w8,[x9]

; 656  : 	fs->__TotalClusters = bpb.large_sector_count / fs->__SectorPerCluster;

	ldr         x8,[sp]
	add         x8,x8,#0x24
	ldrb        w9,[x8]
	mov         w9,w9
	ldr         w8,[sp,#0x5C]
	cbnz        w9,|$LN16@FatInitial|
	brk         #0xF004
|$LN16@FatInitial|
	udiv        w9,w8,w9
	ldr         x8,[sp]
	add         x8,x8,#0x34
	str         w9,[x8]

; 657  : 	fs->__LastIndexInFat = 0;

	ldr         x8,[sp]
	add         x9,x8,#0x44
	mov         w8,#0
	str         w8,[x9]

; 658  : 	fs->__LastIndexSector = 0;

	ldr         x8,[sp]
	add         x9,x8,#0x40
	mov         w8,#0
	str         w8,[x9]

; 659  : 	size_t _root_dir_sectors = ((bpb.num_dir_entries * 32) + bpb.bytes_per_sector - 1) / bpb.bytes_per_sector;

	ldrh        w9,[sp,#0x4C]
	mov         w9,w9
	mov         w8,#0x20
	mul         w9,w9,w8
	ldrh        w8,[sp,#0x44]
	mov         w8,w8
	add         w8,w9,w8
	sub         w9,w8,#1
	ldrh        w8,[sp,#0x44]
	mov         w8,w8
	cbnz        w8,|$LN17@FatInitial|
	brk         #0xF004
|$LN17@FatInitial|
	sdiv        w8,w9,w8
	sxtw        x8,w8
	str         x8,[sp,#0xA8]

; 660  : 	size_t _TotalSectors = (bpb.total_sectors_short == 0) ? bpb.large_sector_count : bpb.total_sectors_short;

	ldrh        w8,[sp,#0x4E]
	mov         w8,w8
	cmp         w8,#0
	bne         |$LN12@FatInitial|
	ldr         w8,[sp,#0x5C]
	str         w8,[sp,#0x1C]
	b           |$LN13@FatInitial|
|$LN12@FatInitial|
	ldrh        w8,[sp,#0x4E]
	mov         w8,w8
	str         w8,[sp,#0x1C]
|$LN13@FatInitial|
	ldr         w8,[sp,#0x1C]
	uxtw        x8,w8
	str         x8,[sp,#0xB0]

; 661  : 	size_t fatsize = (bpb.sectors_per_fat == 0) ? bpb.info.FAT32.sect_per_fat32 : bpb.sectors_per_fat;

	ldrh        w8,[sp,#0x52]
	mov         w8,w8
	cmp         w8,#0
	bne         |$LN14@FatInitial|
	ldr         w8,[sp,#0x60]
	str         w8,[sp,#0x20]
	b           |$LN15@FatInitial|
|$LN14@FatInitial|
	ldrh        w8,[sp,#0x52]
	mov         w8,w8
	str         w8,[sp,#0x20]
|$LN15@FatInitial|
	ldr         w8,[sp,#0x20]
	uxtw        x8,w8
	str         x8,[sp,#0xA0]

; 662  : 	size_t _dataSectors = _TotalSectors - (bpb.reserved_sectors + bpb.num_fats * fatsize + _root_dir_sectors);

	ldrh        w8,[sp,#0x48]
	mov         w8,w8
	sxtw        x10,w8
	ldrb        w8,[sp,#0x4A]
	mov         w8,w8
	sxtw        x9,w8
	ldr         x8,[sp,#0xA0]
	mul         x8,x9,x8
	add         x9,x10,x8
	ldr         x8,[sp,#0xA8]
	add         x9,x9,x8
	ldr         x8,[sp,#0xB0]
	sub         x8,x8,x9
	str         x8,[sp,#0x28]

; 663  : 
; 664  : 	AuTextOut("[aurora]: fat32 sector/cluster : %d \r\n", fs->__SectorPerCluster);

	ldr         x8,[sp]
	add         x8,x8,#0x24
	ldrb        w1,[x8]
	mov         w1,w1
	mov         w1,w1
	adrp        x8,|$SG4249|
	add         x0,x8,PageOffset(|$SG4249|)
	bl          AuTextOut

; 665  : 	AuTextOut("[aurora]: fat32 bytes/sector: %d \r\n", fs->__BytesPerSector);

	ldr         x8,[sp]
	add         x8,x8,#0x48
	ldrh        w1,[x8]
	mov         w1,w1
	mov         w1,w1
	adrp        x8,|$SG4250|
	add         x0,x8,PageOffset(|$SG4250|)
	bl          AuTextOut

; 666  : 	AuTextOut("[aurora]: fat32 mounted at %s \r\n", mountname);

	ldr         x1,[sp,#0x98]
	adrp        x8,|$SG4251|
	add         x0,x8,PageOffset(|$SG4251|)
	bl          AuTextOut

; 667  : 
; 668  : 	if (_dataSectors < 4085)

	ldr         x8,[sp,#0x28]
	cmp         x8,#0xFF5
	bhs         |$LN5@FatInitial|

; 669  : 		fs->fatType = FSTYPE_FAT12;

	ldr         x8,[sp]
	add         x9,x8,#0x18
	mov         w8,#1
	strb        w8,[x9]
	b           |$LN6@FatInitial|
|$LN5@FatInitial|

; 670  : 	else if (_dataSectors < 65525)

	mov         x9,#0xFFF5
	ldr         x8,[sp,#0x28]
	cmp         x8,x9
	bhs         |$LN7@FatInitial|

; 671  : 		fs->fatType = FSTYPE_FAT16;

	ldr         x8,[sp]
	add         x9,x8,#0x18
	mov         w8,#2
	strb        w8,[x9]
	b           |$LN8@FatInitial|
|$LN7@FatInitial|

; 672  : 	else if (_dataSectors < 268435445)

	ldr         x9,|$LN18@FatInitial|
	ldr         x8,[sp,#0x28]
	cmp         x8,x9
	bhs         |$LN9@FatInitial|

; 673  : 		fs->fatType = FSTYPE_FAT32;

	ldr         x8,[sp]
	add         x9,x8,#0x18
	mov         w8,#3
	strb        w8,[x9]
|$LN9@FatInitial|
|$LN8@FatInitial|
|$LN6@FatInitial|

; 674  : 
; 675  : 	if (fs->fatType != FSTYPE_FAT32) {

	ldr         x8,[sp]
	add         x8,x8,#0x18
	ldrb        w8,[x8]
	mov         w8,w8
	cmp         w8,#3
	beq         |$LN10@FatInitial|

; 676  : 		AuPmmngrFree(buffer);

	ldr         x0,[sp,#8]
	bl          AuPmmngrFree

; 677  : 		kfree(fs);

	ldr         x0,[sp]
	bl          kfree

; 678  : 		return NULL;

	mov         x0,#0
	b           |$LN1@FatInitial|
|$LN10@FatInitial|

; 679  : 	}
; 680  : 
; 681  : 
; 682  : 	AuVFSNode* fsys = (AuVFSNode*)kmalloc(sizeof(AuVFSNode));

	mov         w0,#0xD0
	bl          kmalloc
	str         x0,[sp,#0x10]

; 683  : 	memset(fsys, 0, sizeof(AuVFSNode));

	mov         w2,#0xD0
	mov         w1,#0
	ldr         x0,[sp,#0x10]
	bl          memset

; 684  : 	strcpy(fsys->filename, mountname);

	ldr         x0,[sp,#0x10]
	ldr         x1,[sp,#0x98]
	bl          strcpy

; 685  : 	fsys->flags |= FS_FLAG_FILE_SYSTEM | FS_FLAG_FILE_SYSTEM_GENERAL;

	ldr         x8,[sp,#0x10]
	add         x8,x8,#0x40
	ldrh        w9,[x8]
	mov         w9,w9
	mov         w8,#0x440
	orr         w10,w9,w8
	ldr         x8,[sp,#0x10]
	add         x9,x8,#0x40
	uxth        w8,w10
	strh        w8,[x9]

; 686  : 	fsys->open = FatOpen;

	ldr         x8,[sp,#0x10]
	add         x9,x8,#0x60
	adrp        x8,FatOpen
	add         x8,x8,PageOffset(FatOpen)
	str         x8,[x9]

; 687  : 	fsys->device = fs;

	ldr         x8,[sp,#0x10]
	add         x9,x8,#0x50
	ldr         x8,[sp]
	str         x8,[x9]

; 688  : 	fsys->read = FatReadFile;

	ldr         x8,[sp,#0x10]
	add         x9,x8,#0x70
	adrp        x8,FatReadFile
	add         x8,x8,PageOffset(FatReadFile)
	str         x8,[x9]

; 689  : 	fsys->read_block = FatRead;

	ldr         x8,[sp,#0x10]
	add         x9,x8,#0xA8
	adrp        x8,FatRead
	add         x8,x8,PageOffset(FatRead)
	str         x8,[x9]

; 690  : 	fsys->remove_dir = 0;//FatRemoveDir;

	ldr         x8,[sp,#0x10]
	add         x9,x8,#0x90
	mov         x8,#0
	str         x8,[x9]

; 691  : 	fsys->remove_file = 0; // FatFileRemove;

	ldr         x8,[sp,#0x10]
	add         x9,x8,#0x98
	mov         x8,#0
	str         x8,[x9]

; 692  : 	fsys->write = FatWrite;

	ldr         x8,[sp,#0x10]
	add         x9,x8,#0x78
	adrp        x8,FatWrite
	add         x8,x8,PageOffset(FatWrite)
	str         x8,[x9]

; 693  : 	fsys->create_dir = FatCreateDir;

	ldr         x8,[sp,#0x10]
	add         x9,x8,#0x80
	adrp        x8,FatCreateDir
	add         x8,x8,PageOffset(FatCreateDir)
	str         x8,[x9]

; 694  : 	fsys->create_file =  FatCreateFile;

	ldr         x8,[sp,#0x10]
	add         x9,x8,#0x88
	adrp        x8,FatCreateFile
	add         x8,x8,PageOffset(FatCreateFile)
	str         x8,[x9]

; 695  : 	fsys->get_disk_block = FatGetDiskBlock;

	ldr         x8,[sp,#0x10]
	add         x9,x8,#0xB8
	adrp        x8,FatGetDiskBlock
	add         x8,x8,PageOffset(FatGetDiskBlock)
	str         x8,[x9]

; 696  : 	fsys->get_blockfor = FatGetClusterFor;

	ldr         x8,[sp,#0x10]
	add         x9,x8,#0xC0
	adrp        x8,FatGetClusterFor
	add         x8,x8,PageOffset(FatGetClusterFor)
	str         x8,[x9]

; 697  : 	fsys->opendir = FatOpenDir;

	ldr         x8,[sp,#0x10]
	add         x9,x8,#0x68
	adrp        x8,FatOpenDir
	add         x8,x8,PageOffset(FatOpenDir)
	str         x8,[x9]

; 698  : 	fsys->read_dir = FatDirectoryRead;

	ldr         x8,[sp,#0x10]
	add         x9,x8,#0xB0
	adrp        x8,FatDirectoryRead
	add         x8,x8,PageOffset(FatDirectoryRead)
	str         x8,[x9]

; 699  : 	vdisk->fsys = fsys;

	ldr         x8,[sp,#0x30]
	add         x9,x8,#0xB0
	ldr         x8,[sp,#0x10]
	str         x8,[x9]

; 700  : 	AuVFSAddFileSystem(fsys);

	ldr         x0,[sp,#0x10]
	bl          AuVFSAddFileSystem

; 701  : 	AuVFSRegisterRoot(fsys);

	ldr         x0,[sp,#0x10]
	bl          AuVFSRegisterRoot

; 702  : 
; 703  : 	AuPmmngrFree((void*)V2P((uint64_t)buffer));

	ldr         x0,[sp,#8]
	bl          V2P
	bl          AuPmmngrFree

; 704  : 
; 705  : 	return fsys;

	ldr         x0,[sp,#0x10]
|$LN1@FatInitial|
	add         sp,sp,#0xC0
	ldr         lr,[sp],#0x10
	ret
	nop
|$LN18@FatInitial|
	DCQ         0xffffff5

	ENDP  ; |FatInitialise|

	END
