; Listing generated by Microsoft (R) Optimizing Compiler Version 19.29.30159.0 

	TTL	C:\Users\paras\source\repos\grep-name\XenevaOS\KernelAA64\ARM64\Debug\FatDir.obj
	ARM64

	AREA	|.drectve|, DRECTVE

	EXPORT	|FatCreateDir|
	EXPORT	|FatRemoveDir|
	EXPORT	|FatOpenDir|
	EXPORT	|FatDirectoryRead|
	IMPORT	|AuVDiskRead|
	IMPORT	|AuVDiskWrite|
	IMPORT	|FatClusterToSector32|
	IMPORT	|FatToDOSFilename|
	IMPORT	|FatFindFreeCluster|
	IMPORT	|FatAllocCluster|
	IMPORT	|FatClearCluster|
	IMPORT	|FatReadFAT|
	IMPORT	|FatOpen|
	IMPORT	|FatFormatDate|
	IMPORT	|FatFormatTime|
	IMPORT	|FatFromDosToFilename|
	IMPORT	|FatFileGetParent|
	IMPORT	|FatFileRemove|
	IMPORT	|kmalloc|
	IMPORT	|kfree|
	IMPORT	|AuPmmngrAlloc|
	IMPORT	|AuPmmngrFree|
	IMPORT	|P2V|
	IMPORT	|V2P|
	IMPORT	|strcpy|
	IMPORT	|strlen|
	IMPORT	|strchr|
	IMPORT	|memset|
	IMPORT	|memcpy|
	IMPORT	|UARTDebugOut|
	IMPORT	|aa64_data_cache_clean_range|

	AREA	|.pdata|, PDATA
|$pdata$FatCreateDir| DCD imagerel |$LN29|
	DCD	0x5a00845
	;Flags[SingleProEpi] functionLength[2116] RegF[0] RegI[0] H[0] frameChainReturn[UnChainedSavedLR] frameSize[176]
|$pdata$FatRemoveDir| DCD imagerel |$LN16|
	DCD	0x3200201
	;Flags[SingleProEpi] functionLength[512] RegF[0] RegI[0] H[0] frameChainReturn[UnChainedSavedLR] frameSize[96]
|$pdata$FatOpenDir| DCD imagerel |$LN9|
	DCD	0x1a001e5
	;Flags[SingleProEpi] functionLength[484] RegF[0] RegI[0] H[0] frameChainReturn[UnChainedSavedLR] frameSize[48]
|$pdata$FatDirectoryRead| DCD imagerel |$LN16|
	DCD	0x4200449
	;Flags[SingleProEpi] functionLength[1096] RegF[0] RegI[0] H[0] frameChainReturn[UnChainedSavedLR] frameSize[128]

	AREA	|.data|, DATA
|$SG3556| DCB	"FS Flag dir ", 0xd, 0xa, 0x0
	%	1
|$SG3559| DCB	"/", 0x0
	%	6
|$SG3610| DCB	"[aurora-fat]: DIRName -> %s attrib -> %x, LFN -> yes ", 0xd
	DCB	0xa, 0x0
; Function compile flags: /Odtpy
; File C:\Users\paras\source\repos\grep-name\XenevaOS\KernelAA64\Fs\Fat\FatDir.c

	AREA	|.text$mn|, CODE, ARM64

|FatDirectoryRead| PROC

; 317  : int FatDirectoryRead(AuVFSNode* fs, AuVFSNode* dir, AuDirectoryEntry* dirent) {

|$LN16|
	str         lr,[sp,#-0x10]!
	sub         sp,sp,#0x70
	str         x0,[sp,#0x40]
	str         x1,[sp,#0x28]
	str         x2,[sp]

; 318  : 	if (!dirent)

	ldr         x8,[sp]
	cmp         x8,#0
	bne         |$LN2@FatDirecto|

; 319  : 		return -1;

	mov         w0,#-1
	b           |$LN1@FatDirecto|
|$LN2@FatDirecto|

; 320  : 	if (!dir)

	ldr         x8,[sp,#0x28]
	cmp         x8,#0
	bne         |$LN3@FatDirecto|

; 321  : 		return -1;

	mov         w0,#-1
	b           |$LN1@FatDirecto|
|$LN3@FatDirecto|

; 322  : 	memset(dirent->filename, 0, 32);

	ldr         x0,[sp]
	mov         w2,#0x20
	mov         w1,#0
	bl          memset

; 323  : 	int index = dirent->index;

	ldr         x8,[sp]
	add         x8,x8,#0x20
	ldr         w8,[x8]
	str         w8,[sp,#0x18]

; 324  : 	FatFS* fatfs = (FatFS*)fs->device;

	ldr         x8,[sp,#0x40]
	add         x8,x8,#0x50
	ldr         x8,[x8]
	str         x8,[sp,#0x20]

; 325  : 	AuVDisk* vdisk = (AuVDisk*)fatfs->vdisk;

	ldr         x8,[sp,#0x20]
	add         x8,x8,#8
	ldr         x8,[x8]
	str         x8,[sp,#0x48]

; 326  : 
; 327  : 	uint64_t* buf = (uint64_t*)P2V((uint64_t)AuPmmngrAlloc());

	bl          AuPmmngrAlloc
	bl          P2V
	str         x0,[sp,#0x10]

; 328  : 	memset(buf, 0, PAGE_SIZE);

	mov         w2,#0x1000
	mov         w1,#0
	ldr         x0,[sp,#0x10]
	bl          memset

; 329  : 
; 330  : 	if ((index / 16) > fatfs->__SectorPerCluster) {

	ldr         w9,[sp,#0x18]
	mov         w8,#0x10
	sdiv        w9,w9,w8
	ldr         x8,[sp,#0x20]
	add         x8,x8,#0x24
	ldrb        w8,[x8]
	mov         w8,w8
	cmp         w9,w8
	ble         |$LN4@FatDirecto|

; 331  : 		dirent->index = -1;

	ldr         x8,[sp]
	add         x9,x8,#0x20
	mov         w8,#-1
	str         w8,[x9]

; 332  : 		AuPmmngrFree((void*)V2P((size_t)buf));

	ldr         x0,[sp,#0x10]
	bl          V2P
	bl          AuPmmngrFree

; 333  : 		return -1;

	mov         w0,#-1
	b           |$LN1@FatDirecto|
|$LN4@FatDirecto|

; 334  : 	}
; 335  : 
; 336  : 
; 337  : 	uint8_t* aligned_buf = (uint8_t*)buf;

	ldr         x8,[sp,#0x10]
	str         x8,[sp,#0x50]

; 338  : 	AuVDiskRead(vdisk, FatClusterToSector32(fatfs, dir->first_block) + index / 16, 1, buf);

	ldr         x8,[sp,#0x28]
	add         x8,x8,#0x30
	ldr         x1,[x8]
	ldr         x0,[sp,#0x20]
	bl          FatClusterToSector32
	ldr         w9,[sp,#0x18]
	mov         w8,#0x10
	sdiv        w8,w9,w8
	sxtw        x8,w8
	add         x1,x0,x8
	ldr         x3,[sp,#0x10]
	mov         w2,#1
	ldr         x0,[sp,#0x48]
	bl          AuVDiskRead

; 339  : 	FatDir* dir_ = (FatDir*)(aligned_buf + ((index % 16) * sizeof(FatDir)));

	ldr         w10,[sp,#0x18]
	mov         w9,#0x10
	sdiv        w8,w10,w9
	mul         w8,w8,w9
	sub         w8,w10,w8
	sxtw        x9,w8
	mov         x8,#0x20
	mul         x9,x9,x8
	ldr         x8,[sp,#0x50]
	add         x8,x8,x9
	str         x8,[sp,#8]

; 340  : 
; 341  : 	if (dir_->filename[0] == 0x00) {

	ldr         x8,[sp,#8]
	ldrb        w8,[x8]
	mov         w8,w8
	cmp         w8,#0
	bne         |$LN5@FatDirecto|

; 342  : 		dirent->index = -1;

	ldr         x8,[sp]
	add         x9,x8,#0x20
	mov         w8,#-1
	str         w8,[x9]

; 343  : 		AuPmmngrFree((void*)V2P((size_t)buf));

	ldr         x0,[sp,#0x10]
	bl          V2P
	bl          AuPmmngrFree

; 344  : 		return -1;

	mov         w0,#-1
	b           |$LN1@FatDirecto|
|$LN5@FatDirecto|

; 345  : 	}
; 346  : 
; 347  : 	if (dir_->filename[0] == 0xE5 ||
; 348  : 		dir_->filename[0] == 0x05 ||

	ldr         x8,[sp,#8]
	ldrb        w8,[x8]
	mov         w8,w8
	cmp         w8,#0xE5
	beq         |$LN7@FatDirecto|
	ldr         x8,[sp,#8]
	ldrb        w8,[x8]
	mov         w8,w8
	cmp         w8,#5
	beq         |$LN7@FatDirecto|
	ldr         x8,[sp,#8]
	ldrb        w8,[x8]
	mov         w8,w8
	cmp         w8,#0xFF
	bne         |$LN6@FatDirecto|
|$LN7@FatDirecto|

; 349  : 		dir_->filename[0] == 0xFF) {
; 350  : 		AuPmmngrFree((void*)V2P((size_t)buf));

	ldr         x0,[sp,#0x10]
	bl          V2P
	bl          AuPmmngrFree

; 351  : 		dirent->index += 1;

	ldr         x8,[sp]
	add         x8,x8,#0x20
	ldr         w8,[x8]
	add         w9,w8,#1
	ldr         x8,[sp]
	add         x8,x8,#0x20
	str         w9,[x8]

; 352  : 		return -1;

	mov         w0,#-1
	b           |$LN1@FatDirecto|
|$LN6@FatDirecto|

; 353  : 	}
; 354  : 
; 355  : 	if (dir_->attrib & 0x02) {

	ldr         x8,[sp,#8]
	add         x8,x8,#0xB
	ldrb        w8,[x8]
	mov         w8,w8
	tbz         x8,#1,|$LN8@FatDirecto|

; 356  : 		AuPmmngrFree((void*)V2P((size_t)buf));

	ldr         x0,[sp,#0x10]
	bl          V2P
	bl          AuPmmngrFree

; 357  : 		dirent->index += 1;

	ldr         x8,[sp]
	add         x8,x8,#0x20
	ldr         w8,[x8]
	add         w9,w8,#1
	ldr         x8,[sp]
	add         x8,x8,#0x20
	str         w9,[x8]

; 358  : 		return -1;

	mov         w0,#-1
	b           |$LN1@FatDirecto|
|$LN8@FatDirecto|

; 359  : 	}
; 360  : 
; 361  : 	if (dir_->attrib & 0x04) {

	ldr         x8,[sp,#8]
	add         x8,x8,#0xB
	ldrb        w8,[x8]
	mov         w8,w8
	tbz         x8,#2,|$LN9@FatDirecto|

; 362  : 		AuPmmngrFree((void*)V2P((size_t)buf));

	ldr         x0,[sp,#0x10]
	bl          V2P
	bl          AuPmmngrFree

; 363  : 		dirent->index += 1;

	ldr         x8,[sp]
	add         x8,x8,#0x20
	ldr         w8,[x8]
	add         w9,w8,#1
	ldr         x8,[sp]
	add         x8,x8,#0x20
	str         w9,[x8]

; 364  : 		return -1;

	mov         w0,#-1
	b           |$LN1@FatDirecto|
|$LN9@FatDirecto|

; 365  : 	}
; 366  : 
; 367  : 	if (dir_->attrib & 0x08) {

	ldr         x8,[sp,#8]
	add         x8,x8,#0xB
	ldrb        w8,[x8]
	mov         w8,w8
	tbz         x8,#3,|$LN10@FatDirecto|

; 368  : 		AuPmmngrFree((void*)V2P((size_t)buf));

	ldr         x0,[sp,#0x10]
	bl          V2P
	bl          AuPmmngrFree

; 369  : 		dirent->index += 1;

	ldr         x8,[sp]
	add         x8,x8,#0x20
	ldr         w8,[x8]
	add         w9,w8,#1
	ldr         x8,[sp]
	add         x8,x8,#0x20
	str         w9,[x8]

; 370  : 		return -1;

	mov         w0,#-1
	b           |$LN1@FatDirecto|
|$LN10@FatDirecto|

; 371  : 	}
; 372  : 
; 373  : 	if (dir_->attrib & 0x01) {

	ldr         x8,[sp,#8]
	add         x8,x8,#0xB
	ldrb        w8,[x8]
	mov         w8,w8
	tbz         x8,#0,|$LN11@FatDirecto|

; 374  : 		AuPmmngrFree((void*)V2P((size_t)buf));

	ldr         x0,[sp,#0x10]
	bl          V2P
	bl          AuPmmngrFree

; 375  : 		dirent->index += 1;

	ldr         x8,[sp]
	add         x8,x8,#0x20
	ldr         w8,[x8]
	add         w9,w8,#1
	ldr         x8,[sp]
	add         x8,x8,#0x20
	str         w9,[x8]

; 376  : 		return -1;

	mov         w0,#-1
	b           |$LN1@FatDirecto|
|$LN11@FatDirecto|

; 377  : 	}
; 378  : 
; 379  : 	char filename[11];
; 380  : 	char name[11];
; 381  : 	memset(name, 0, 11);

	mov         w2,#0xB
	mov         w1,#0
	add         x0,sp,#0x58
	bl          memset

; 382  : 	memcpy(name, dir_->filename, 11);

	ldr         x1,[sp,#8]
	mov         x2,#0xB
	add         x0,sp,#0x58
	bl          memcpy

; 383  : 	FatFromDosToFilename(filename, (char*)dir_->filename);

	ldr         x1,[sp,#8]
	add         x0,sp,#0x30
	bl          FatFromDosToFilename

; 384  : 	strcpy(dirent->filename, filename);

	ldr         x0,[sp]
	add         x1,sp,#0x30
	bl          strcpy

; 385  : 	dirent->size = dir_->file_size;

	ldr         x8,[sp,#8]
	add         x10,x8,#0x1C
	ldr         x8,[sp]
	add         x9,x8,#0x24
	ldr         w8,[x10]
	str         w8,[x9]

; 386  : 	dirent->time = dir_->time_created;

	ldr         x8,[sp,#8]
	add         x10,x8,#0xE
	ldr         x8,[sp]
	add         x9,x8,#0x2C
	ldrh        w8,[x10]
	mov         w8,w8
	str         w8,[x9]

; 387  : 	dirent->date = dir_->date_created;

	ldr         x8,[sp,#8]
	add         x10,x8,#0x10
	ldr         x8,[sp]
	add         x9,x8,#0x28
	ldrh        w8,[x10]
	mov         w8,w8
	str         w8,[x9]

; 388  : 
; 389  : 	if ((dir_->attrib & FAT_ATTRIBUTE_MASK) == FAT_ATTRIBUTE_LONG_NAME)

	ldr         x8,[sp,#8]
	add         x8,x8,#0xB
	ldrb        w8,[x8]
	mov         w8,w8
	and         w8,w8,#0x3F
	cmp         w8,#0xF
	bne         |$LN12@FatDirecto|

; 390  : 		UARTDebugOut("[aurora-fat]: DIRName -> %s attrib -> %x, LFN -> yes \r\n", filename, dir_->attrib);

	ldr         x8,[sp,#8]
	add         x8,x8,#0xB
	ldrb        w2,[x8]
	mov         w2,w2
	mov         w2,w2
	add         x1,sp,#0x30
	adrp        x8,|$SG3610|
	add         x0,x8,PageOffset(|$SG3610|)
	bl          UARTDebugOut
|$LN12@FatDirecto|

; 391  : 
; 392  : 	if (dir_->attrib & 0x10)

	ldr         x8,[sp,#8]
	add         x8,x8,#0xB
	ldrb        w8,[x8]
	mov         w8,w8
	tbz         x8,#4,|$LN13@FatDirecto|

; 393  : 		dirent->flags = FS_FLAG_DIRECTORY;

	ldr         x8,[sp]
	add         x9,x8,#0x30
	mov         w8,#2
	strb        w8,[x9]
|$LN13@FatDirecto|

; 394  : 	if (dir_->attrib & 0x20)

	ldr         x8,[sp,#8]
	add         x8,x8,#0xB
	ldrb        w8,[x8]
	mov         w8,w8
	tbz         x8,#5,|$LN14@FatDirecto|

; 395  : 		dirent->flags = FS_FLAG_GENERAL;

	ldr         x8,[sp]
	add         x9,x8,#0x30
	mov         w8,#4
	strb        w8,[x9]
|$LN14@FatDirecto|

; 396  : 	AuPmmngrFree((void*)V2P((size_t)buf));

	ldr         x0,[sp,#0x10]
	bl          V2P
	bl          AuPmmngrFree

; 397  : 	dirent->index += 1;

	ldr         x8,[sp]
	add         x8,x8,#0x20
	ldr         w8,[x8]
	add         w9,w8,#1
	ldr         x8,[sp]
	add         x8,x8,#0x20
	str         w9,[x8]

; 398  : 	return 0;

	mov         w0,#0
|$LN1@FatDirecto|
	add         sp,sp,#0x70
	ldr         lr,[sp],#0x10
	ret

	ENDP  ; |FatDirectoryRead|

; Function compile flags: /Odtpy
; File C:\Users\paras\source\repos\grep-name\XenevaOS\KernelAA64\Fs\Fat\FatDir.c

	AREA	|.text$mn|, CODE, ARM64

|FatOpenDir| PROC

; 272  : AuVFSNode* FatOpenDir(AuVFSNode* fs, char* path) {

|$LN9|
	str         lr,[sp,#-0x10]!
	sub         sp,sp,#0x20
	str         x0,[sp,#8]
	str         x1,[sp,#0x18]

; 273  : 	AuVFSNode* ret = NULL;

	mov         x8,#0
	str         x8,[sp]

; 274  : 	if (!fs)

	ldr         x8,[sp,#8]
	cmp         x8,#0
	bne         |$LN2@FatOpenDir|

; 275  : 		return ret;

	ldr         x0,[sp]
	b           |$LN1@FatOpenDir|
|$LN2@FatOpenDir|

; 276  : 	FatFS* fatfs = (FatFS*)fs->device;

	ldr         x8,[sp,#8]
	add         x8,x8,#0x50
	ldr         x8,[x8]
	str         x8,[sp,#0x10]

; 277  : 	if (!fatfs)

	ldr         x8,[sp,#0x10]
	cmp         x8,#0
	bne         |$LN3@FatOpenDir|

; 278  : 		return ret;

	ldr         x0,[sp]
	b           |$LN1@FatOpenDir|
|$LN3@FatOpenDir|

; 279  : 	ret = FatOpen(fs, path);

	ldr         x1,[sp,#0x18]
	ldr         x0,[sp,#8]
	bl          FatOpen
	str         x0,[sp]

; 280  : 	if (ret) {

	ldr         x8,[sp]
	cmp         x8,#0
	beq         |$LN4@FatOpenDir|

; 281  : 		if (ret->flags & FS_FLAG_DIRECTORY)

	ldr         x8,[sp]
	add         x8,x8,#0x40
	ldrh        w8,[x8]
	mov         w8,w8
	tbz         x8,#1,|$LN5@FatOpenDir|

; 282  : 			UARTDebugOut("FS Flag dir \r\n");

	adrp        x8,|$SG3556|
	add         x0,x8,PageOffset(|$SG3556|)
	bl          UARTDebugOut
|$LN5@FatOpenDir|
|$LN4@FatOpenDir|

; 283  : 	}
; 284  : 	if (ret && !(ret->flags & FS_FLAG_DIRECTORY)) {

	ldr         x8,[sp]
	cmp         x8,#0
	beq         |$LN6@FatOpenDir|
	ldr         x8,[sp]
	add         x8,x8,#0x40
	ldrh        w8,[x8]
	mov         w8,w8
	tbnz        x8,#1,|$LN6@FatOpenDir|

; 285  : 		kfree(ret);

	ldr         x0,[sp]
	bl          kfree

; 286  : 		return NULL;

	mov         x0,#0
	b           |$LN1@FatOpenDir|
|$LN6@FatOpenDir|

; 287  : 	}
; 288  : 	if (!ret) {

	ldr         x8,[sp]
	cmp         x8,#0
	bne         |$LN7@FatOpenDir|

; 289  : 		/* if no returnable file found, simply return
; 290  : 		 * the root directory by creating a new vfs
; 291  : 		 * instance
; 292  : 		 */
; 293  : 		ret = (AuVFSNode*)kmalloc(sizeof(AuVFSNode));

	mov         w0,#0xD0
	bl          kmalloc
	str         x0,[sp]

; 294  : 		memset(ret, 0, sizeof(AuVFSNode));

	mov         w2,#0xD0
	mov         w1,#0
	ldr         x0,[sp]
	bl          memset

; 295  : 		strcpy(ret->filename, "/");

	ldr         x0,[sp]
	adrp        x8,|$SG3559|
	add         x1,x8,PageOffset(|$SG3559|)
	bl          strcpy

; 296  : 		ret->current = fatfs->__RootDirFirstCluster;

	ldr         x8,[sp,#0x10]
	add         x10,x8,#0x28
	ldr         x8,[sp]
	add         x9,x8,#0x38
	ldr         w8,[x10]
	uxtw        x8,w8
	str         x8,[x9]

; 297  : 		ret->size = 0;

	ldr         x8,[sp]
	add         x9,x8,#0x20
	mov         w8,#0
	str         w8,[x9]

; 298  : 		ret->eof = 0;

	ldr         x8,[sp]
	add         x9,x8,#0x24
	mov         w8,#0
	strb        w8,[x9]

; 299  : 		ret->status = FS_STATUS_FOUND;

	ldr         x8,[sp]
	add         x9,x8,#0x42
	mov         w8,#1
	strb        w8,[x9]

; 300  : 		ret->close = 0;

	ldr         x8,[sp]
	add         x9,x8,#0xA0
	mov         x8,#0
	str         x8,[x9]

; 301  : 		ret->first_block = fatfs->__RootDirFirstCluster;

	ldr         x8,[sp,#0x10]
	add         x10,x8,#0x28
	ldr         x8,[sp]
	add         x9,x8,#0x30
	ldr         w8,[x10]
	uxtw        x8,w8
	str         x8,[x9]

; 302  : 		ret->pos = 0;

	ldr         x8,[sp]
	add         x9,x8,#0x28
	mov         w8,#0
	str         w8,[x9]

; 303  : 		ret->device = fs;

	ldr         x8,[sp]
	add         x9,x8,#0x50
	ldr         x8,[sp,#8]
	str         x8,[x9]

; 304  : 		ret->parent_block = fatfs->__RootDirFirstCluster;

	ldr         x8,[sp,#0x10]
	add         x10,x8,#0x28
	ldr         x8,[sp]
	add         x9,x8,#0x2C
	ldr         w8,[x10]
	str         w8,[x9]

; 305  : 		ret->flags |= FS_FLAG_DIRECTORY;

	ldr         x8,[sp]
	add         x8,x8,#0x40
	ldrh        w8,[x8]
	mov         w8,w8
	orr         w10,w8,#2
	ldr         x8,[sp]
	add         x9,x8,#0x40
	uxth        w8,w10
	strh        w8,[x9]

; 306  : 		aa64_data_cache_clean_range(ret, sizeof(AuVFSNode));

	mov         x1,#0xD0
	ldr         x0,[sp]
	bl          aa64_data_cache_clean_range
|$LN7@FatOpenDir|

; 307  : 	}
; 308  : 	return ret;

	ldr         x0,[sp]
|$LN1@FatOpenDir|
	add         sp,sp,#0x20
	ldr         lr,[sp],#0x10
	ret

	ENDP  ; |FatOpenDir|

; Function compile flags: /Odtpy
; File C:\Users\paras\source\repos\grep-name\XenevaOS\KernelAA64\Fs\Fat\FatDir.c

	AREA	|.text$mn|, CODE, ARM64

|FatRemoveDir| PROC

; 217  : int FatRemoveDir(AuVFSNode* fsys, AuVFSNode* file) {

|$LN16|
	str         lr,[sp,#-0x10]!
	sub         sp,sp,#0x50
	str         x0,[sp,#0x20]
	str         x1,[sp,#0x30]

; 218  : 	if (!fsys)

	ldr         x8,[sp,#0x20]
	cmp         x8,#0
	bne         |$LN10@FatRemoveD|

; 219  : 		return -1;

	mov         w0,#-1
	b           |$LN1@FatRemoveD|
|$LN10@FatRemoveD|

; 220  : 	if (!file)

	ldr         x8,[sp,#0x30]
	cmp         x8,#0
	bne         |$LN11@FatRemoveD|

; 221  : 		return -1;

	mov         w0,#-1
	b           |$LN1@FatRemoveD|
|$LN11@FatRemoveD|

; 222  : 
; 223  : 	FatFS* _fs = (FatFS*)fsys->device;

	ldr         x8,[sp,#0x20]
	add         x8,x8,#0x50
	ldr         x8,[x8]
	str         x8,[sp,#0x28]

; 224  : 
; 225  : 	uint32_t dir_clust = file->current;

	ldr         x8,[sp,#0x30]
	add         x8,x8,#0x38
	ldr         x8,[x8]
	mov         w8,w8
	str         w8,[sp,#8]

; 226  : 
; 227  : 	bool _is_empty = true;

	mov         w8,#1
	strb        w8,[sp]

; 228  : 
; 229  : 	uint64_t* buff = (uint64_t*)P2V((size_t)AuPmmngrAlloc());

	bl          AuPmmngrAlloc
	bl          P2V
	str         x0,[sp,#0x10]

; 230  : 	memset(buff, 0, PAGE_SIZE);

	mov         w2,#0x1000
	mov         w1,#0
	ldr         x0,[sp,#0x10]
	bl          memset
|$LN2@FatRemoveD|

; 231  : 	/* verify, if the directory is empty*/
; 232  : 	while (1) {

	mov         w8,#1
	cmp         w8,#0
	beq         |$LN3@FatRemoveD|

; 233  : 		for (int j = 0; j < _fs->__SectorPerCluster; j++) {

	mov         w8,#0
	str         w8,[sp,#4]
	b           |$LN6@FatRemoveD|
|$LN4@FatRemoveD|
	ldr         w8,[sp,#4]
	add         w8,w8,#1
	str         w8,[sp,#4]
|$LN6@FatRemoveD|
	ldr         x8,[sp,#0x28]
	add         x8,x8,#0x24
	ldrb        w9,[x8]
	mov         w9,w9
	ldr         w8,[sp,#4]
	cmp         w8,w9
	bge         |$LN5@FatRemoveD|

; 234  : 			memset(buff, 0, PAGE_SIZE);

	mov         w2,#0x1000
	mov         w1,#0
	ldr         x0,[sp,#0x10]
	bl          memset

; 235  : 			AuVDiskRead(_fs->vdisk, FatClusterToSector32(_fs, dir_clust) + j, 1, buff);

	ldr         w8,[sp,#8]
	uxtw        x1,w8
	ldr         x0,[sp,#0x28]
	bl          FatClusterToSector32
	ldr         w8,[sp,#4]
	sxtw        x8,w8
	add         x1,x0,x8
	ldr         x8,[sp,#0x28]
	add         x8,x8,#8
	ldr         x3,[sp,#0x10]
	mov         w2,#1
	ldr         x0,[x8]
	bl          AuVDiskRead

; 236  : 
; 237  : 			FatDir* dirent = (FatDir*)buff;

	ldr         x8,[sp,#0x10]
	str         x8,[sp,#0x18]

; 238  : 			for (int i = 0; i < 16; i++) {

	mov         w8,#0
	str         w8,[sp,#0xC]
	b           |$LN9@FatRemoveD|
|$LN7@FatRemoveD|
	ldr         w8,[sp,#0xC]
	add         w8,w8,#1
	str         w8,[sp,#0xC]
|$LN9@FatRemoveD|
	ldr         w8,[sp,#0xC]
	cmp         w8,#0x10
	bge         |$LN8@FatRemoveD|

; 239  : 				char name[11];
; 240  : 				memcpy(name, dirent->filename, 11);

	ldr         x1,[sp,#0x18]
	mov         x2,#0xB
	add         x0,sp,#0x38
	bl          memcpy

; 241  : 				name[10] = 0;

	mov         w8,#0
	strb        w8,[sp,#0x42]

; 242  : 
; 243  : 				if ((dirent->filename[0] != 0x00) && (dirent->filename[0] != 0xE5)) {

	ldr         x8,[sp,#0x18]
	ldrb        w8,[x8]
	mov         w8,w8
	cmp         w8,#0
	beq         |$LN12@FatRemoveD|
	ldr         x8,[sp,#0x18]
	ldrb        w8,[x8]
	mov         w8,w8
	cmp         w8,#0xE5
	beq         |$LN12@FatRemoveD|

; 244  : 					AuPmmngrFree((void*)V2P((size_t)buff));

	ldr         x0,[sp,#0x10]
	bl          V2P
	bl          AuPmmngrFree

; 245  : 					_is_empty = false;

	mov         w8,#0
	strb        w8,[sp]

; 246  : 					break;

	b           |$LN8@FatRemoveD|
|$LN12@FatRemoveD|

; 247  : 				}
; 248  : 				dirent++;

	ldr         x8,[sp,#0x18]
	add         x8,x8,#0x20
	str         x8,[sp,#0x18]

; 249  : 			}

	b           |$LN7@FatRemoveD|
|$LN8@FatRemoveD|

; 250  : 		}

	b           |$LN4@FatRemoveD|
|$LN5@FatRemoveD|

; 251  : 
; 252  : 		dir_clust = FatReadFAT(fsys, dir_clust);

	ldr         w8,[sp,#8]
	uxtw        x1,w8
	ldr         x0,[sp,#0x20]
	bl          FatReadFAT
	mov         w0,w0
	str         w0,[sp,#8]

; 253  : 		if (dir_clust == (FAT_EOC_MARK & 0x0FFFFFFF))

	mov         w9,#0xFFFFFF8
	ldr         w8,[sp,#8]
	cmp         w8,w9
	bne         |$LN13@FatRemoveD|

; 254  : 			break;

	b           |$LN3@FatRemoveD|
|$LN13@FatRemoveD|

; 255  : 	}

	b           |$LN2@FatRemoveD|
|$LN3@FatRemoveD|

; 256  : 
; 257  : 	if (_is_empty) {

	ldrb        w8,[sp]
	mov         w8,w8
	cmp         w8,#0
	beq         |$LN14@FatRemoveD|

; 258  : 		FatFileRemove(fsys, file);

	ldr         x1,[sp,#0x30]
	ldr         x0,[sp,#0x20]
	bl          FatFileRemove

; 259  : 		return 0;

	mov         w0,#0
	b           |$LN1@FatRemoveD|
|$LN14@FatRemoveD|

; 260  : 	}
; 261  : 
; 262  : 	return -1;

	mov         w0,#-1
|$LN1@FatRemoveD|
	add         sp,sp,#0x50
	ldr         lr,[sp],#0x10
	ret

	ENDP  ; |FatRemoveDir|

; Function compile flags: /Odtpy
; File C:\Users\paras\source\repos\grep-name\XenevaOS\KernelAA64\Fs\Fat\FatDir.c

	AREA	|.text$mn|, CODE, ARM64

|FatCreateDir| PROC

; 51   : AuVFSNode* FatCreateDir(AuVFSNode* fsys, char* filename) {

|$LN29|
	str         lr,[sp,#-0x10]!
	sub         sp,sp,#0xA0
	str         x0,[sp,#0x48]
	str         x1,[sp,#0x80]

; 52   : 	if (!fsys)

	ldr         x8,[sp,#0x48]
	cmp         x8,#0
	bne         |$LN15@FatCreateD|

; 53   : 		return NULL;

	mov         x0,#0
	b           |$LN1@FatCreateD|
|$LN15@FatCreateD|

; 54   : 
; 55   : 	FatFS* _fs = (FatFS*)fsys->device;

	ldr         x8,[sp,#0x48]
	add         x8,x8,#0x50
	ldr         x8,[x8]
	str         x8,[sp,#0x40]

; 56   : 
; 57   : 	uint32_t parent_clust = 0;

	mov         w8,#0
	str         w8,[sp,#8]

; 58   : 
; 59   : 	AuVFSNode* parent = FatFileGetParent(fsys, filename);

	ldr         x1,[sp,#0x80]
	ldr         x0,[sp,#0x48]
	bl          FatFileGetParent
	str         x0,[sp,#0x68]

; 60   : 	if (!parent)

	ldr         x8,[sp,#0x68]
	cmp         x8,#0
	bne         |$LN16@FatCreateD|

; 61   : 		parent_clust = _fs->__RootDirFirstCluster;

	ldr         x8,[sp,#0x40]
	add         x8,x8,#0x28
	ldr         w8,[x8]
	str         w8,[sp,#8]
	b           |$LN17@FatCreateD|
|$LN16@FatCreateD|

; 62   : 	else {
; 63   : 		parent_clust = parent->current;

	ldr         x8,[sp,#0x68]
	add         x8,x8,#0x38
	ldr         x8,[x8]
	mov         w8,w8
	str         w8,[sp,#8]
|$LN17@FatCreateD|

; 64   : 	}
; 65   : 
; 66   : 	
; 67   : 	if (!parent_clust)

	ldr         w8,[sp,#8]
	cmp         w8,#0
	bne         |$LN18@FatCreateD|

; 68   : 		parent_clust = _fs->__RootDirFirstCluster;

	ldr         x8,[sp,#0x40]
	add         x8,x8,#0x28
	ldr         w8,[x8]
	str         w8,[sp,#8]
|$LN18@FatCreateD|

; 69   : 
; 70   : 	AuVFSNode* file = (AuVFSNode*)kmalloc(sizeof(AuVFSNode));

	mov         w0,#0xD0
	bl          kmalloc
	str         x0,[sp,#0x18]

; 71   : 	memset(file, 0, sizeof(AuVFSNode));

	mov         w2,#0xD0
	mov         w1,#0
	ldr         x0,[sp,#0x18]
	bl          memset

; 72   : 
; 73   : 	uint64_t* buff = (uint64_t*)P2V((size_t)AuPmmngrAlloc());

	bl          AuPmmngrAlloc
	bl          P2V
	str         x0,[sp,#0x50]

; 74   : 	memset(buff, 0, PAGE_SIZE);

	mov         w2,#0x1000
	mov         w1,#0
	ldr         x0,[sp,#0x50]
	bl          memset

; 75   : 
; 76   : 	/* now extract only the filename from
; 77   : 	 * entire path */
; 78   : 	char* path = (char*)filename;

	ldr         x8,[sp,#0x80]
	str         x8,[sp,#0x98]

; 79   : 	char* p = strchr(path, '/');

	mov         w1,#0x2F
	ldr         x0,[sp,#0x98]
	bl          strchr
	str         x0,[sp,#0x28]

; 80   : 	if (p)

	ldr         x8,[sp,#0x28]
	cmp         x8,#0
	beq         |$LN19@FatCreateD|

; 81   : 		p++;

	ldr         x8,[sp,#0x28]
	add         x8,x8,#1
	str         x8,[sp,#0x28]
|$LN19@FatCreateD|

; 82   : 
; 83   : 	char extract[16];
; 84   : 	memset(extract, 0, 16);

	mov         w2,#0x10
	mov         w1,#0
	add         x0,sp,#0x88
	bl          memset
|$LN2@FatCreateD|

; 85   : 	while (p) {

	ldr         x8,[sp,#0x28]
	cmp         x8,#0
	beq         |$LN3@FatCreateD|

; 86   : 		int i = 0;

	mov         w8,#0
	str         w8,[sp,#0xC]

; 87   : 		for (i = 0; i < 16; i++) {

	mov         w8,#0
	str         w8,[sp,#0xC]
	b           |$LN6@FatCreateD|
|$LN4@FatCreateD|
	ldr         w8,[sp,#0xC]
	add         w8,w8,#1
	str         w8,[sp,#0xC]
|$LN6@FatCreateD|
	ldr         w8,[sp,#0xC]
	cmp         w8,#0x10
	bge         |$LN5@FatCreateD|

; 88   : 			if (p[i] == '/' || p[i] == '\0')

	ldr         w8,[sp,#0xC]
	sxtw        x9,w8
	mov         x8,#1
	mul         x9,x9,x8
	ldr         x8,[sp,#0x28]
	add         x8,x8,x9
	ldrsb       w8,[x8]
	mov         w8,w8
	cmp         w8,#0x2F
	beq         |$LN21@FatCreateD|
	ldr         w8,[sp,#0xC]
	sxtw        x9,w8
	mov         x8,#1
	mul         x9,x9,x8
	ldr         x8,[sp,#0x28]
	add         x8,x8,x9
	ldrsb       w8,[x8]
	mov         w8,w8
	cmp         w8,#0
	bne         |$LN20@FatCreateD|
|$LN21@FatCreateD|

; 89   : 				break;

	b           |$LN5@FatCreateD|
|$LN20@FatCreateD|

; 90   : 			extract[i] = p[i];

	ldr         w8,[sp,#0xC]
	sxtw        x9,w8
	mov         x8,#1
	mul         x9,x9,x8
	ldr         x8,[sp,#0x28]
	add         x10,x8,x9
	ldr         w8,[sp,#0xC]
	sxtw        x9,w8
	mov         x8,#1
	mul         x9,x9,x8
	add         x8,sp,#0x88
	add         x9,x8,x9
	ldrsb       w8,[x10]
	strb        w8,[x9]

; 91   : 		}

	b           |$LN4@FatCreateD|
|$LN5@FatCreateD|

; 92   : 		p = strchr(p + 1, '/');

	ldr         x8,[sp,#0x28]
	add         x0,x8,#1
	mov         w1,#0x2F
	bl          strchr
	str         x0,[sp,#0x28]

; 93   : 		if (p) {

	ldr         x8,[sp,#0x28]
	cmp         x8,#0
	beq         |$LN22@FatCreateD|

; 94   : 			p++;

	ldr         x8,[sp,#0x28]
	add         x8,x8,#1
	str         x8,[sp,#0x28]

; 95   : 			memset(extract, 0, 16);

	mov         w2,#0x10
	mov         w1,#0
	add         x0,sp,#0x88
	bl          memset
|$LN22@FatCreateD|

; 96   : 		}
; 97   : 	}

	b           |$LN2@FatCreateD|
|$LN3@FatCreateD|

; 98   : 	
; 99   : 	char fname[11];
; 100  : 	memset(fname, 0, 11);

	mov         w2,#0xB
	mov         w1,#0
	add         x0,sp,#0x70
	bl          memset

; 101  : 	FatToDOSFilename(extract, fname, 11);

	mov         w2,#0xB
	add         x1,sp,#0x70
	add         x0,sp,#0x88
	bl          FatToDOSFilename

; 102  : 	fname[10] = 0;

	mov         w8,#0
	strb        w8,[sp,#0x7A]
|$LN7@FatCreateD|

; 103  : 
; 104  : 	while (1) {

	mov         w8,#1
	cmp         w8,#0
	beq         |$LN8@FatCreateD|

; 105  : 		for (int j = 0; j < _fs->__SectorPerCluster; j++) {

	mov         w8,#0
	str         w8,[sp,#0x30]
	b           |$LN11@FatCreateD|
|$LN9@FatCreateD|
	ldr         w8,[sp,#0x30]
	add         w8,w8,#1
	str         w8,[sp,#0x30]
|$LN11@FatCreateD|
	ldr         x8,[sp,#0x40]
	add         x8,x8,#0x24
	ldrb        w9,[x8]
	mov         w9,w9
	ldr         w8,[sp,#0x30]
	cmp         w8,w9
	bge         |$LN10@FatCreateD|

; 106  : 			memset(buff, 0, PAGE_SIZE);

	mov         w2,#0x1000
	mov         w1,#0
	ldr         x0,[sp,#0x50]
	bl          memset

; 107  : 			AuVDiskRead(_fs->vdisk, FatClusterToSector32(_fs, parent_clust) + j, 1, buff);

	ldr         w8,[sp,#8]
	uxtw        x1,w8
	ldr         x0,[sp,#0x40]
	bl          FatClusterToSector32
	ldr         w8,[sp,#0x30]
	sxtw        x8,w8
	add         x1,x0,x8
	ldr         x8,[sp,#0x40]
	add         x8,x8,#8
	ldr         x3,[sp,#0x50]
	mov         w2,#1
	ldr         x0,[x8]
	bl          AuVDiskRead

; 108  : 
; 109  : 			FatDir* dirent = (FatDir*)buff;

	ldr         x8,[sp,#0x50]
	str         x8,[sp]

; 110  : 			for (int i = 0; i < 16; i++) {

	mov         w8,#0
	str         w8,[sp,#0x58]
	b           |$LN14@FatCreateD|
|$LN12@FatCreateD|
	ldr         w8,[sp,#0x58]
	add         w8,w8,#1
	str         w8,[sp,#0x58]
|$LN14@FatCreateD|
	ldr         w8,[sp,#0x58]
	cmp         w8,#0x10
	bge         |$LN13@FatCreateD|

; 111  : 				if (dirent->filename[0] == 0x00 || dirent->filename[0] == 0xE5) {

	ldr         x8,[sp]
	ldrb        w8,[x8]
	mov         w8,w8
	cmp         w8,#0
	beq         |$LN24@FatCreateD|
	ldr         x8,[sp]
	ldrb        w8,[x8]
	mov         w8,w8
	cmp         w8,#0xE5
	bne         |$LN23@FatCreateD|
|$LN24@FatCreateD|

; 112  : 
; 113  : 					/* fill this direntry*/
; 114  : 					memset(dirent->filename, 0x20, 11);

	ldr         x0,[sp]
	mov         w2,#0xB
	mov         w1,#0x20
	bl          memset

; 115  : 					memcpy(dirent->filename, fname, strlen(fname));

	add         x0,sp,#0x70
	bl          strlen
	mov         x2,x0
	ldr         x0,[sp]
	add         x1,sp,#0x70
	bl          memcpy

; 116  : 
; 117  : 					/* allocate a new cluster for dir*/
; 118  : 					uint32_t cluster = FatFindFreeCluster(fsys);

	ldr         x0,[sp,#0x48]
	bl          FatFindFreeCluster
	mov         w0,w0
	str         w0,[sp,#0x20]

; 119  : 					FatAllocCluster(fsys, cluster, FAT_EOC_MARK);

	mov         w2,#-8
	ldr         w1,[sp,#0x20]
	ldr         x0,[sp,#0x48]
	bl          FatAllocCluster

; 120  : 					FatClearCluster(fsys, cluster);

	ldr         w1,[sp,#0x20]
	ldr         x0,[sp,#0x48]
	bl          FatClearCluster

; 121  : 					
; 122  : 					dirent->attrib = FAT_ATTRIBUTE_DIRECTORY;

	ldr         x8,[sp]
	add         x9,x8,#0xB
	mov         w8,#0x10
	strb        w8,[x9]

; 123  : 					dirent->first_cluster = cluster & 0x0000FFFF;

	ldr         w8,[sp,#0x20]
	and         w10,w8,#0xFFFF
	ldr         x8,[sp]
	add         x9,x8,#0x1A
	uxth        w8,w10
	strh        w8,[x9]

; 124  : 					dirent->first_cluster_hi_bytes = (cluster & 0x0FFF0000) >> 16;

	ldr         w8,[sp,#0x20]
	and         w8,w8,#0xFFF0000
	lsr         w10,w8,#0x10
	ldr         x8,[sp]
	add         x9,x8,#0x14
	uxth        w8,w10
	strh        w8,[x9]

; 125  : 					dirent->date_created = FatFormatDate();

	bl          FatFormatDate
	uxth        w9,w0
	ldr         x8,[sp]
	add         x8,x8,#0x10
	strh        w9,[x8]

; 126  : 					dirent->time_created = FatFormatTime();

	bl          FatFormatTime
	uxth        w9,w0
	ldr         x8,[sp]
	add         x8,x8,#0xE
	strh        w9,[x8]

; 127  : 					dirent->last_wrt_date = dirent->date_created;

	ldr         x8,[sp]
	add         x10,x8,#0x10
	ldr         x8,[sp]
	add         x9,x8,#0x18
	ldrh        w8,[x10]
	strh        w8,[x9]

; 128  : 					dirent->last_wrt_time = dirent->last_wrt_time;

	ldr         x8,[sp]
	add         x10,x8,#0x16
	ldr         x8,[sp]
	add         x9,x8,#0x16
	ldrh        w8,[x10]
	strh        w8,[x9]

; 129  : 					dirent->date_last_accessed = 0;

	ldr         x8,[sp]
	add         x9,x8,#0x12
	mov         w8,#0
	strh        w8,[x9]

; 130  : 					dirent->file_size = 0;

	ldr         x8,[sp]
	add         x9,x8,#0x1C
	mov         w8,#0
	str         w8,[x9]

; 131  : 
; 132  : 					uint8_t* entrybuf = (uint8_t*)P2V((size_t)AuPmmngrAlloc());

	bl          AuPmmngrAlloc
	bl          P2V
	str         x0,[sp,#0x60]

; 133  : 					memset(entrybuf, 0, PAGE_SIZE);

	mov         w2,#0x1000
	mov         w1,#0
	ldr         x0,[sp,#0x60]
	bl          memset

; 134  : 
; 135  : 					FatDir* dot_entry = (FatDir*)entrybuf;

	ldr         x8,[sp,#0x60]
	str         x8,[sp,#0x38]

; 136  : 					memset(dot_entry, 0, sizeof(FatDir));

	mov         w2,#0x20
	mov         w1,#0
	ldr         x0,[sp,#0x38]
	bl          memset

; 137  : 					memset(dot_entry->filename, 0x20, 11);

	ldr         x0,[sp,#0x38]
	mov         w2,#0xB
	mov         w1,#0x20
	bl          memset

; 138  : 					dot_entry->filename[0] = '.';

	ldr         x9,[sp,#0x38]
	mov         w8,#0x2E
	strb        w8,[x9]

; 139  : 					dot_entry->attrib = FAT_ATTRIBUTE_DIRECTORY;

	ldr         x8,[sp,#0x38]
	add         x9,x8,#0xB
	mov         w8,#0x10
	strb        w8,[x9]

; 140  : 					dot_entry->date_created = dirent->date_created;

	ldr         x8,[sp]
	add         x10,x8,#0x10
	ldr         x8,[sp,#0x38]
	add         x9,x8,#0x10
	ldrh        w8,[x10]
	strh        w8,[x9]

; 141  : 					dot_entry->time_created = dirent->time_created;

	ldr         x8,[sp]
	add         x10,x8,#0xE
	ldr         x8,[sp,#0x38]
	add         x9,x8,#0xE
	ldrh        w8,[x10]
	strh        w8,[x9]

; 142  : 					dot_entry->file_size = 0;

	ldr         x8,[sp,#0x38]
	add         x9,x8,#0x1C
	mov         w8,#0
	str         w8,[x9]

; 143  : 					dot_entry->first_cluster = dirent->first_cluster;

	ldr         x8,[sp]
	add         x10,x8,#0x1A
	ldr         x8,[sp,#0x38]
	add         x9,x8,#0x1A
	ldrh        w8,[x10]
	strh        w8,[x9]

; 144  : 					dot_entry->first_cluster_hi_bytes = dirent->first_cluster_hi_bytes;

	ldr         x8,[sp]
	add         x10,x8,#0x14
	ldr         x8,[sp,#0x38]
	add         x9,x8,#0x14
	ldrh        w8,[x10]
	strh        w8,[x9]

; 145  : 					dot_entry->last_wrt_date = dirent->last_wrt_date;

	ldr         x8,[sp]
	add         x10,x8,#0x18
	ldr         x8,[sp,#0x38]
	add         x9,x8,#0x18
	ldrh        w8,[x10]
	strh        w8,[x9]

; 146  : 					dot_entry->last_wrt_time = dirent->last_wrt_time;

	ldr         x8,[sp]
	add         x10,x8,#0x16
	ldr         x8,[sp,#0x38]
	add         x9,x8,#0x16
	ldrh        w8,[x10]
	strh        w8,[x9]

; 147  : 
; 148  : 					FatDir* dotdot = (FatDir*)(entrybuf + sizeof(FatDir));

	ldr         x8,[sp,#0x60]
	add         x8,x8,#0x20
	str         x8,[sp,#0x10]

; 149  : 					memset(dotdot, 0, sizeof(FatDir));

	mov         w2,#0x20
	mov         w1,#0
	ldr         x0,[sp,#0x10]
	bl          memset

; 150  : 					memset(dotdot->filename, 0x20, 11);

	ldr         x0,[sp,#0x10]
	mov         w2,#0xB
	mov         w1,#0x20
	bl          memset

; 151  : 					dotdot->filename[0] = '.';

	ldr         x9,[sp,#0x10]
	mov         w8,#0x2E
	strb        w8,[x9]

; 152  : 					dotdot->filename[1] = '.';

	ldr         x8,[sp,#0x10]
	add         x9,x8,#1
	mov         w8,#0x2E
	strb        w8,[x9]

; 153  : 					dotdot->attrib = FAT_ATTRIBUTE_DIRECTORY;

	ldr         x8,[sp,#0x10]
	add         x9,x8,#0xB
	mov         w8,#0x10
	strb        w8,[x9]

; 154  : 					dotdot->date_created = dirent->date_created;

	ldr         x8,[sp]
	add         x10,x8,#0x10
	ldr         x8,[sp,#0x10]
	add         x9,x8,#0x10
	ldrh        w8,[x10]
	strh        w8,[x9]

; 155  : 					dotdot->time_created = dirent->time_created;

	ldr         x8,[sp]
	add         x10,x8,#0xE
	ldr         x8,[sp,#0x10]
	add         x9,x8,#0xE
	ldrh        w8,[x10]
	strh        w8,[x9]

; 156  : 					dotdot->date_last_accessed = dirent->date_last_accessed;

	ldr         x8,[sp]
	add         x10,x8,#0x12
	ldr         x8,[sp,#0x10]
	add         x9,x8,#0x12
	ldrh        w8,[x10]
	strh        w8,[x9]

; 157  : 					dotdot->file_size = 0;

	ldr         x8,[sp,#0x10]
	add         x9,x8,#0x1C
	mov         w8,#0
	str         w8,[x9]

; 158  : 
; 159  : 					if (parent_clust == _fs->__RootDirFirstCluster) {

	ldr         x8,[sp,#0x40]
	add         x8,x8,#0x28
	ldr         w9,[x8]
	ldr         w8,[sp,#8]
	cmp         w8,w9
	bne         |$LN25@FatCreateD|

; 160  : 						dotdot->first_cluster = 0 & 0x0000FFFF;

	ldr         x8,[sp,#0x10]
	add         x9,x8,#0x1A
	mov         w8,#0
	strh        w8,[x9]

; 161  : 						dotdot->first_cluster_hi_bytes = (0 & 0x0FFF0000) >> 16;

	ldr         x8,[sp,#0x10]
	add         x9,x8,#0x14
	mov         w8,#0
	strh        w8,[x9]

; 162  : 					}

	b           |$LN26@FatCreateD|
|$LN25@FatCreateD|

; 163  : 					else {
; 164  : 						dotdot->first_cluster = parent_clust & 0x0000FFFF;

	ldr         w8,[sp,#8]
	and         w10,w8,#0xFFFF
	ldr         x8,[sp,#0x10]
	add         x9,x8,#0x1A
	uxth        w8,w10
	strh        w8,[x9]

; 165  : 						dotdot->first_cluster_hi_bytes = (parent_clust & 0x0FFF0000) >> 16;

	ldr         w8,[sp,#8]
	and         w8,w8,#0xFFF0000
	lsr         w10,w8,#0x10
	ldr         x8,[sp,#0x10]
	add         x9,x8,#0x14
	uxth        w8,w10
	strh        w8,[x9]
|$LN26@FatCreateD|

; 166  : 					}
; 167  : 
; 168  : 					dotdot->last_wrt_date = dirent->last_wrt_date;

	ldr         x8,[sp]
	add         x10,x8,#0x18
	ldr         x8,[sp,#0x10]
	add         x9,x8,#0x18
	ldrh        w8,[x10]
	strh        w8,[x9]

; 169  : 					dotdot->last_wrt_time = dirent->last_wrt_time;

	ldr         x8,[sp]
	add         x10,x8,#0x16
	ldr         x8,[sp,#0x10]
	add         x9,x8,#0x16
	ldrh        w8,[x10]
	strh        w8,[x9]

; 170  : 
; 171  : 					aa64_data_cache_clean_range(entrybuf, PAGE_SIZE);

	mov         x1,#0x1000
	ldr         x0,[sp,#0x60]
	bl          aa64_data_cache_clean_range

; 172  : 
; 173  : 
; 174  : 					AuVDiskWrite(_fs->vdisk, FatClusterToSector32(_fs, cluster), 1, entrybuf);

	ldr         w8,[sp,#0x20]
	uxtw        x1,w8
	ldr         x0,[sp,#0x40]
	bl          FatClusterToSector32
	ldr         x8,[sp,#0x40]
	add         x8,x8,#8
	ldr         x3,[sp,#0x60]
	mov         w2,#1
	mov         x1,x0
	ldr         x0,[x8]
	bl          AuVDiskWrite

; 175  : 
; 176  : 					aa64_data_cache_clean_range(buff, PAGE_SIZE);

	mov         x1,#0x1000
	ldr         x0,[sp,#0x50]
	bl          aa64_data_cache_clean_range

; 177  : 					AuVDiskWrite(_fs->vdisk, FatClusterToSector32(_fs, parent_clust) + j, 1, buff);

	ldr         w8,[sp,#8]
	uxtw        x1,w8
	ldr         x0,[sp,#0x40]
	bl          FatClusterToSector32
	ldr         w8,[sp,#0x30]
	sxtw        x8,w8
	add         x1,x0,x8
	ldr         x8,[sp,#0x40]
	add         x8,x8,#8
	ldr         x3,[sp,#0x50]
	mov         w2,#1
	ldr         x0,[x8]
	bl          AuVDiskWrite

; 178  : 
; 179  : 					AuPmmngrFree((void*)V2P((size_t)entrybuf));

	ldr         x0,[sp,#0x60]
	bl          V2P
	bl          AuPmmngrFree

; 180  : 					AuPmmngrFree((void*)V2P((size_t)buff));

	ldr         x0,[sp,#0x50]
	bl          V2P
	bl          AuPmmngrFree

; 181  : 
; 182  : 					strcpy(file->filename, extract);

	ldr         x0,[sp,#0x18]
	add         x1,sp,#0x88
	bl          strcpy

; 183  : 					file->size = 0;

	ldr         x8,[sp,#0x18]
	add         x9,x8,#0x20
	mov         w8,#0
	str         w8,[x9]

; 184  : 					file->eof = 0;

	ldr         x8,[sp,#0x18]
	add         x9,x8,#0x24
	mov         w8,#0
	strb        w8,[x9]

; 185  : 					file->pos = 0;

	ldr         x8,[sp,#0x18]
	add         x9,x8,#0x28
	mov         w8,#0
	str         w8,[x9]

; 186  : 					file->current = cluster;

	ldr         x8,[sp,#0x18]
	add         x9,x8,#0x38
	ldr         w8,[sp,#0x20]
	uxtw        x8,w8
	str         x8,[x9]

; 187  : 					file->device = fsys;

	ldr         x8,[sp,#0x18]
	add         x9,x8,#0x50
	ldr         x8,[sp,#0x48]
	str         x8,[x9]

; 188  : 					file->first_block = file->current;

	ldr         x8,[sp,#0x18]
	add         x10,x8,#0x38
	ldr         x8,[sp,#0x18]
	add         x9,x8,#0x30
	ldr         x8,[x10]
	str         x8,[x9]

; 189  : 					file->parent_block = parent_clust;

	ldr         x8,[sp,#0x18]
	add         x9,x8,#0x2C
	ldr         w8,[sp,#8]
	str         w8,[x9]

; 190  : 					file->flags |= FS_FLAG_DIRECTORY;

	ldr         x8,[sp,#0x18]
	add         x8,x8,#0x40
	ldrh        w8,[x8]
	mov         w8,w8
	orr         w10,w8,#2
	ldr         x8,[sp,#0x18]
	add         x9,x8,#0x40
	uxth        w8,w10
	strh        w8,[x9]

; 191  : 
; 192  : 					aa64_data_cache_clean_range(file, sizeof(AuVFSNode));

	mov         x1,#0xD0
	ldr         x0,[sp,#0x18]
	bl          aa64_data_cache_clean_range

; 193  : 					kfree(parent);

	ldr         x0,[sp,#0x68]
	bl          kfree

; 194  : 					return file;

	ldr         x0,[sp,#0x18]
	b           |$LN1@FatCreateD|
|$LN23@FatCreateD|

; 195  : 				}
; 196  : 				dirent++;

	ldr         x8,[sp]
	add         x8,x8,#0x20
	str         x8,[sp]

; 197  : 			}

	b           |$LN12@FatCreateD|
|$LN13@FatCreateD|

; 198  : 		}

	b           |$LN9@FatCreateD|
|$LN10@FatCreateD|

; 199  : 
; 200  : 		parent_clust = FatReadFAT(fsys, parent_clust);

	ldr         w8,[sp,#8]
	uxtw        x1,w8
	ldr         x0,[sp,#0x48]
	bl          FatReadFAT
	mov         w0,w0
	str         w0,[sp,#8]

; 201  : 		if (parent_clust == (FAT_EOC_MARK & 0x0FFFFFFF))

	mov         w9,#0xFFFFFF8
	ldr         w8,[sp,#8]
	cmp         w8,w9
	bne         |$LN27@FatCreateD|

; 202  : 			break;

	b           |$LN8@FatCreateD|
|$LN27@FatCreateD|

; 203  : 	}

	b           |$LN7@FatCreateD|
|$LN8@FatCreateD|

; 204  : 
; 205  : 	AuPmmngrFree((void*)V2P((size_t)buff));

	ldr         x0,[sp,#0x50]
	bl          V2P
	bl          AuPmmngrFree

; 206  : 	kfree(parent);

	ldr         x0,[sp,#0x68]
	bl          kfree

; 207  : 	kfree(file);

	ldr         x0,[sp,#0x18]
	bl          kfree

; 208  : 	return NULL;

	mov         x0,#0
|$LN1@FatCreateD|
	add         sp,sp,#0xA0
	ldr         lr,[sp],#0x10
	ret

	ENDP  ; |FatCreateDir|

	END
