; Listing generated by Microsoft (R) Optimizing Compiler Version 19.29.30159.0 

	TTL	C:\Users\paras\source\repos\grep-name\XenevaOS\KernelAA64\ARM64\Debug\FatFile.obj
	ARM64

	AREA	|.drectve|, DRECTVE

	EXPORT	|FatFileGetParent|
	EXPORT	|FatCreateFile|
	EXPORT	|FatFileUpdateSize|
	EXPORT	|FatFileUpdateFilename|
	EXPORT	|FatFileWriteContent|
	EXPORT	|FatFileWriteDone|
	EXPORT	|FatWrite|
	EXPORT	|FatFileClearDirEntry|
	EXPORT	|FatFileRemove|
	IMPORT	|AuVDiskRead|
	IMPORT	|AuVDiskWrite|
	IMPORT	|FatClusterToSector32|
	IMPORT	|FatToDOSFilename|
	IMPORT	|FatFindFreeCluster|
	IMPORT	|FatAllocCluster|
	IMPORT	|FatClearCluster|
	IMPORT	|FatReadFAT|
	IMPORT	|FatFormatDate|
	IMPORT	|FatFormatTime|
	IMPORT	|FatLocateDir|
	IMPORT	|FatLocateSubDir|
	IMPORT	|kmalloc|
	IMPORT	|kfree|
	IMPORT	|AuPmmngrAlloc|
	IMPORT	|AuPmmngrFree|
	IMPORT	|P2V|
	IMPORT	|V2P|
	IMPORT	|strcmp|
	IMPORT	|strcpy|
	IMPORT	|strchr|
	IMPORT	|memset|
	IMPORT	|memcpy|
	IMPORT	|UARTDebugOut|
	IMPORT	|__RootFS|

	AREA	|.pdata|, PDATA
|$pdata$FatFileGetParent| DCD imagerel |$LN18|
	DCD	0x3200261
	;Flags[SingleProEpi] functionLength[608] RegF[0] RegI[0] H[0] frameChainReturn[UnChainedSavedLR] frameSize[96]
|$pdata$FatCreateFile| DCD imagerel |$LN26|
	DCD	0x5200589
	;Flags[SingleProEpi] functionLength[1416] RegF[0] RegI[0] H[0] frameChainReturn[UnChainedSavedLR] frameSize[160]
|$pdata$FatFileUpdateSize| DCD imagerel |$LN16|
	DCD	0x3a0024d
	;Flags[SingleProEpi] functionLength[588] RegF[0] RegI[0] H[0] frameChainReturn[UnChainedSavedLR] frameSize[112]
|$pdata$FatFileUpdateFilename| DCD imagerel |$LN15|
	DCD	0x420023d
	;Flags[SingleProEpi] functionLength[572] RegF[0] RegI[0] H[0] frameChainReturn[UnChainedSavedLR] frameSize[128]
|$pdata$FatFileWriteContent| DCD imagerel |$LN10|
	DCD	0x321023d
	;Flags[SingleProEpi] functionLength[572] RegF[0] RegI[1] H[0] frameChainReturn[UnChainedSavedLR] frameSize[96]
|$pdata$FatFileWriteDone| DCD imagerel |$LN3|
	DCD	0x800049
	;Flags[SingleProEpi] functionLength[72] RegF[0] RegI[0] H[0] frameChainReturn[UnChained] frameSize[16]
|$pdata$FatWrite| DCD imagerel |$LN11|
	DCD	0x2a00175
	;Flags[SingleProEpi] functionLength[372] RegF[0] RegI[0] H[0] frameChainReturn[UnChainedSavedLR] frameSize[80]
|$pdata$FatFileClearDirEntry| DCD imagerel |$LN16|
	DCD	0x3a00249
	;Flags[SingleProEpi] functionLength[584] RegF[0] RegI[0] H[0] frameChainReturn[UnChainedSavedLR] frameSize[112]
|$pdata$FatFileRemove| DCD imagerel |$LN11|
	DCD	0x1a0013d
	;Flags[SingleProEpi] functionLength[316] RegF[0] RegI[0] H[0] frameChainReturn[UnChainedSavedLR] frameSize[48]

	AREA	|.data|, DATA
|$SG3349| DCB	"No parent ", 0xd, 0xa, 0x0
	%	3
|$SG3527| DCB	"EOC mark found in cluster -> %x ", 0xa, 0x0
; Function compile flags: /Odtpy
; File C:\Users\paras\source\repos\grep-name\XenevaOS\KernelAA64\Fs\Fat\FatFile.c

	AREA	|.text$mn|, CODE, ARM64

|FatFileRemove| PROC

; 480  : int FatFileRemove(AuVFSNode* fsys, AuVFSNode* file) {

|$LN11|
	str         lr,[sp,#-0x10]!
	sub         sp,sp,#0x20
	str         x0,[sp,#0x18]
	str         x1,[sp,#0x10]

; 481  : 	if (!fsys)

	ldr         x8,[sp,#0x18]
	cmp         x8,#0
	bne         |$LN4@FatFileRem|

; 482  : 		return 1;

	mov         w0,#1
	b           |$LN1@FatFileRem|
|$LN4@FatFileRem|

; 483  : 	if (!file)

	ldr         x8,[sp,#0x10]
	cmp         x8,#0
	bne         |$LN5@FatFileRem|

; 484  : 		return 1;

	mov         w0,#1
	b           |$LN1@FatFileRem|
|$LN5@FatFileRem|

; 485  : 
; 486  : 	uint32_t parent_clust = file->parent_block;

	ldr         x8,[sp,#0x10]
	add         x8,x8,#0x2C
	ldr         w8,[x8]
	str         w8,[sp,#8]

; 487  : 	if (!parent_clust)

	ldr         w8,[sp,#8]
	cmp         w8,#0
	bne         |$LN6@FatFileRem|

; 488  : 		return 1;

	mov         w0,#1
	b           |$LN1@FatFileRem|
|$LN6@FatFileRem|

; 489  : 
; 490  : 	/* because we will iterate all clusters from
; 491  : 	 * first one
; 492  : 	 */
; 493  : 	if (file->current != file->first_block)

	ldr         x8,[sp,#0x10]
	add         x10,x8,#0x38
	ldr         x8,[sp,#0x10]
	add         x8,x8,#0x30
	ldr         x9,[x8]
	ldr         x8,[x10]
	cmp         x8,x9
	beq         |$LN7@FatFileRem|

; 494  : 		file->current = file->first_block;

	ldr         x8,[sp,#0x10]
	add         x10,x8,#0x30
	ldr         x8,[sp,#0x10]
	add         x9,x8,#0x38
	ldr         x8,[x10]
	str         x8,[x9]
|$LN7@FatFileRem|

; 495  : 
; 496  : 	uint32_t cluster = file->current;

	ldr         x8,[sp,#0x10]
	add         x8,x8,#0x38
	ldr         x8,[x8]
	mov         w8,w8
	str         w8,[sp]
|$LN2@FatFileRem|

; 497  : 	while (1) {

	mov         w8,#1
	cmp         w8,#0
	beq         |$LN3@FatFileRem|

; 498  : 		uint32_t next_cluster = FatReadFAT(fsys, cluster);

	ldr         w8,[sp]
	uxtw        x1,w8
	ldr         x0,[sp,#0x18]
	bl          FatReadFAT
	mov         w0,w0
	str         w0,[sp,#4]

; 499  : 		if (next_cluster == (FAT_EOC_MARK & 0x0fffffff)) {

	mov         w9,#0xFFFFFF8
	ldr         w8,[sp,#4]
	cmp         w8,w9
	bne         |$LN8@FatFileRem|

; 500  : 			UARTDebugOut("EOC mark found in cluster -> %x \n", cluster);

	ldr         w1,[sp]
	adrp        x8,|$SG3527|
	add         x0,x8,PageOffset(|$SG3527|)
	bl          UARTDebugOut

; 501  : 			FatAllocCluster(fsys, cluster, 0x00);

	mov         w2,#0
	ldr         w1,[sp]
	ldr         x0,[sp,#0x18]
	bl          FatAllocCluster

; 502  : 			break;

	b           |$LN3@FatFileRem|

; 503  : 		}

	b           |$LN9@FatFileRem|
|$LN8@FatFileRem|

; 504  : 		else {
; 505  : 			FatAllocCluster(fsys, cluster, 0x00);

	mov         w2,#0
	ldr         w1,[sp]
	ldr         x0,[sp,#0x18]
	bl          FatAllocCluster
|$LN9@FatFileRem|

; 506  : 		}
; 507  : 		cluster = next_cluster;

	ldr         w8,[sp,#4]
	str         w8,[sp]

; 508  : 	}

	b           |$LN2@FatFileRem|
|$LN3@FatFileRem|

; 509  : 
; 510  : 	/* clear the dir entry */
; 511  : 	FatFileClearDirEntry(fsys, file);

	ldr         x1,[sp,#0x10]
	ldr         x0,[sp,#0x18]
	bl          FatFileClearDirEntry

; 512  : 	return 0;

	mov         w0,#0
|$LN1@FatFileRem|
	add         sp,sp,#0x20
	ldr         lr,[sp],#0x10
	ret

	ENDP  ; |FatFileRemove|

; Function compile flags: /Odtpy
; File C:\Users\paras\source\repos\grep-name\XenevaOS\KernelAA64\Fs\Fat\FatFile.c

	AREA	|.text$mn|, CODE, ARM64

|FatFileClearDirEntry| PROC

; 423  : int FatFileClearDirEntry(AuVFSNode* fsys, AuVFSNode* file) {

|$LN16|
	str         lr,[sp,#-0x10]!
	sub         sp,sp,#0x60
	str         x0,[sp,#0x30]
	str         x1,[sp,#0x28]

; 424  : 	if (!fsys)

	ldr         x8,[sp,#0x30]
	cmp         x8,#0
	bne         |$LN10@FatFileCle|

; 425  : 		return -1;

	mov         w0,#-1
	b           |$LN1@FatFileCle|
|$LN10@FatFileCle|

; 426  : 	if (!file)

	ldr         x8,[sp,#0x28]
	cmp         x8,#0
	bne         |$LN11@FatFileCle|

; 427  : 		return -1;

	mov         w0,#-1
	b           |$LN1@FatFileCle|
|$LN11@FatFileCle|

; 428  : 
; 429  : 	FatFS* _fs = (FatFS*)fsys->device;

	ldr         x8,[sp,#0x30]
	add         x8,x8,#0x50
	ldr         x8,[x8]
	str         x8,[sp,#0x18]

; 430  : 
; 431  : 	uint32_t dir_clust = file->parent_block;

	ldr         x8,[sp,#0x28]
	add         x8,x8,#0x2C
	ldr         w8,[x8]
	str         w8,[sp]

; 432  : 	if (!dir_clust) {

	ldr         w8,[sp]
	cmp         w8,#0
	bne         |$LN12@FatFileCle|

; 433  : 		//SeTextOut("FatFileClearDirEntry: no parent directory %x \r\n", dir_clust);
; 434  : 		return 1;

	mov         w0,#1
	b           |$LN1@FatFileCle|
|$LN12@FatFileCle|

; 435  : 	}
; 436  : 
; 437  : 	char fname[11];
; 438  : 	memset(fname, 0, 11);

	mov         w2,#0xB
	mov         w1,#0
	add         x0,sp,#0x38
	bl          memset

; 439  : 	FatToDOSFilename(file->filename, fname, 11);

	ldr         x0,[sp,#0x28]
	mov         w2,#0xB
	add         x1,sp,#0x38
	bl          FatToDOSFilename

; 440  : 	fname[11] = 0;

	mov         w8,#0
	strb        w8,[sp,#0x43]

; 441  : 	//SeTextOut("Dir clust -> %x \r\n", dir_clust);
; 442  : 	uint64_t* buff = (uint64_t*)P2V((size_t)AuPmmngrAlloc());

	bl          AuPmmngrAlloc
	bl          P2V
	str         x0,[sp,#0x10]

; 443  : 	memset(buff, 0, PAGE_SIZE);

	mov         w2,#0x1000
	mov         w1,#0
	ldr         x0,[sp,#0x10]
	bl          memset
|$LN2@FatFileCle|

; 444  : 
; 445  : 	while (1) {

	mov         w8,#1
	cmp         w8,#0
	beq         |$LN3@FatFileCle|

; 446  : 		for (int j = 0; j < _fs->__SectorPerCluster; j++) {

	mov         w8,#0
	str         w8,[sp,#4]
	b           |$LN6@FatFileCle|
|$LN4@FatFileCle|
	ldr         w8,[sp,#4]
	add         w8,w8,#1
	str         w8,[sp,#4]
|$LN6@FatFileCle|
	ldr         x8,[sp,#0x18]
	add         x8,x8,#0x24
	ldrb        w9,[x8]
	mov         w9,w9
	ldr         w8,[sp,#4]
	cmp         w8,w9
	bge         |$LN5@FatFileCle|

; 447  : 			memset(buff, 0, PAGE_SIZE);

	mov         w2,#0x1000
	mov         w1,#0
	ldr         x0,[sp,#0x10]
	bl          memset

; 448  : 			AuVDiskRead(_fs->vdisk, FatClusterToSector32(_fs, dir_clust) + j, 1, buff);

	ldr         w8,[sp]
	uxtw        x1,w8
	ldr         x0,[sp,#0x18]
	bl          FatClusterToSector32
	ldr         w8,[sp,#4]
	sxtw        x8,w8
	add         x1,x0,x8
	ldr         x8,[sp,#0x18]
	add         x8,x8,#8
	ldr         x3,[sp,#0x10]
	mov         w2,#1
	ldr         x0,[x8]
	bl          AuVDiskRead

; 449  : 
; 450  : 			FatDir* dirent = (FatDir*)buff;

	ldr         x8,[sp,#0x10]
	str         x8,[sp,#0x20]

; 451  : 			for (int i = 0; i < 16; i++) {

	mov         w8,#0
	str         w8,[sp,#8]
	b           |$LN9@FatFileCle|
|$LN7@FatFileCle|
	ldr         w8,[sp,#8]
	add         w8,w8,#1
	str         w8,[sp,#8]
|$LN9@FatFileCle|
	ldr         w8,[sp,#8]
	cmp         w8,#0x10
	bge         |$LN8@FatFileCle|

; 452  : 				char name[11];
; 453  : 				memcpy(name, dirent->filename, 11);

	ldr         x1,[sp,#0x20]
	mov         x2,#0xB
	add         x0,sp,#0x48
	bl          memcpy

; 454  : 				name[11] = 0;

	mov         w8,#0
	strb        w8,[sp,#0x53]

; 455  : 				if (strcmp(name, fname) == 0) {

	add         x1,sp,#0x38
	add         x0,sp,#0x48
	bl          strcmp
	mov         w0,w0
	cmp         w0,#0
	bne         |$LN13@FatFileCle|

; 456  : 					memset(dirent, 0, sizeof(FatDir));

	mov         w2,#0x20
	mov         w1,#0
	ldr         x0,[sp,#0x20]
	bl          memset

; 457  : 					//SeTextOut("Dir clearing found \r\n");
; 458  : 					dirent->filename[0] = 0xE5;

	ldr         x9,[sp,#0x20]
	mov         w8,#0xE5
	strb        w8,[x9]

; 459  : 					AuVDiskWrite(_fs->vdisk, FatClusterToSector32(_fs, dir_clust) + j, 1, buff);

	ldr         w8,[sp]
	uxtw        x1,w8
	ldr         x0,[sp,#0x18]
	bl          FatClusterToSector32
	ldr         w8,[sp,#4]
	sxtw        x8,w8
	add         x1,x0,x8
	ldr         x8,[sp,#0x18]
	add         x8,x8,#8
	ldr         x3,[sp,#0x10]
	mov         w2,#1
	ldr         x0,[x8]
	bl          AuVDiskWrite

; 460  : 					AuPmmngrFree((void*)V2P((size_t)buff));

	ldr         x0,[sp,#0x10]
	bl          V2P
	bl          AuPmmngrFree

; 461  : 					return 0;

	mov         w0,#0
	b           |$LN1@FatFileCle|
|$LN13@FatFileCle|

; 462  : 				}
; 463  : 				dirent++;

	ldr         x8,[sp,#0x20]
	add         x8,x8,#0x20
	str         x8,[sp,#0x20]

; 464  : 			}

	b           |$LN7@FatFileCle|
|$LN8@FatFileCle|

; 465  : 		}

	b           |$LN4@FatFileCle|
|$LN5@FatFileCle|

; 466  : 
; 467  : 		dir_clust = FatReadFAT(fsys, dir_clust);

	ldr         w8,[sp]
	uxtw        x1,w8
	ldr         x0,[sp,#0x30]
	bl          FatReadFAT
	mov         w0,w0
	str         w0,[sp]

; 468  : 		if (dir_clust == (FAT_EOC_MARK & 0x0FFFFFFF))

	mov         w9,#0xFFFFFF8
	ldr         w8,[sp]
	cmp         w8,w9
	bne         |$LN14@FatFileCle|

; 469  : 			break;

	b           |$LN3@FatFileCle|
|$LN14@FatFileCle|

; 470  : 
; 471  : 	}

	b           |$LN2@FatFileCle|
|$LN3@FatFileCle|

; 472  : 	return -1;

	mov         w0,#-1
|$LN1@FatFileCle|
	add         sp,sp,#0x60
	ldr         lr,[sp],#0x10
	ret

	ENDP  ; |FatFileClearDirEntry|

; Function compile flags: /Odtpy
; File C:\Users\paras\source\repos\grep-name\XenevaOS\KernelAA64\Fs\Fat\FatFile.c

	AREA	|.text$mn|, CODE, ARM64

|FatWrite| PROC

; 400  : size_t FatWrite(AuVFSNode* fsys, AuVFSNode* file, uint64_t* buffer, uint32_t length) {

|$LN11|
	str         lr,[sp,#-0x10]!
	sub         sp,sp,#0x40
	str         x0,[sp,#0x18]
	str         x1,[sp,#0x28]
	str         x2,[sp,#0x20]
	str         w3,[sp,#4]

; 401  : 	if (!fsys)

	ldr         x8,[sp,#0x18]
	cmp         x8,#0
	bne         |$LN5@FatWrite|

; 402  : 		return 0;

	mov         x0,#0
	b           |$LN1@FatWrite|
|$LN5@FatWrite|

; 403  : 	FatFS* _fs = (FatFS*)fsys->device;

	ldr         x8,[sp,#0x18]
	add         x8,x8,#0x50
	ldr         x8,[x8]
	str         x8,[sp,#0x10]

; 404  : 
; 405  : 	size_t num_cluster = length / ((_fs->__BytesPerSector) * _fs->__SectorPerCluster) +

	ldr         x8,[sp,#0x10]
	add         x8,x8,#0x48
	ldrh        w9,[x8]
	mov         w9,w9
	ldr         x8,[sp,#0x10]
	add         x8,x8,#0x24
	ldrb        w8,[x8]
	mov         w8,w8
	mul         w10,w9,w8
	ldr         w9,[sp,#4]
	cbnz        w10,|$LN9@FatWrite|
	brk         #0xF004
|$LN9@FatWrite|
	udiv        w8,w9,w10
	mul         w8,w8,w10
	sub         w8,w9,w8
	cmp         w8,#0
	beq         |$LN7@FatWrite|
	mov         w8,#1
	str         w8,[sp,#8]
	b           |$LN8@FatWrite|
|$LN7@FatWrite|
	mov         w8,#0
	str         w8,[sp,#8]
|$LN8@FatWrite|
	ldr         x8,[sp,#0x10]
	add         x8,x8,#0x48
	ldrh        w9,[x8]
	mov         w9,w9
	ldr         x8,[sp,#0x10]
	add         x8,x8,#0x24
	ldrb        w8,[x8]
	mov         w8,w8
	mul         w9,w9,w8
	ldr         w8,[sp,#4]
	cbnz        w9,|$LN10@FatWrite|
	brk         #0xF004
|$LN10@FatWrite|
	udiv        w9,w8,w9
	ldr         w8,[sp,#8]
	add         w8,w9,w8
	uxtw        x8,w8
	str         x8,[sp,#0x30]

; 406  : 		((length % (_fs->__BytesPerSector * _fs->__SectorPerCluster) ? 1 : 0));
; 407  : 
; 408  : 	for (int i = 0; i < num_cluster; i++) {

	mov         w8,#0
	str         w8,[sp]
	b           |$LN4@FatWrite|
|$LN2@FatWrite|
	ldr         w8,[sp]
	add         w8,w8,#1
	str         w8,[sp]
|$LN4@FatWrite|
	ldr         w8,[sp]
	sxtw        x9,w8
	ldr         x8,[sp,#0x30]
	cmp         x9,x8
	bhs         |$LN3@FatWrite|

; 409  : 		FatFileWriteContent(fsys, file, buffer);

	ldr         x2,[sp,#0x20]
	ldr         x1,[sp,#0x28]
	ldr         x0,[sp,#0x18]
	bl          FatFileWriteContent

; 410  : 		buffer += (_fs->__BytesPerSector * _fs->__SectorPerCluster);

	ldr         x8,[sp,#0x10]
	add         x8,x8,#0x48
	ldrh        w9,[x8]
	mov         w9,w9
	ldr         x8,[sp,#0x10]
	add         x8,x8,#0x24
	ldrb        w8,[x8]
	mov         w8,w8
	mul         w8,w9,w8
	sxtw        x9,w8
	mov         x8,#8
	mul         x9,x9,x8
	ldr         x8,[sp,#0x20]
	add         x8,x8,x9
	str         x8,[sp,#0x20]

; 411  : 	}

	b           |$LN2@FatWrite|
|$LN3@FatWrite|

; 412  : 
; 413  : 	FatFileUpdateSize(fsys, file, length);

	ldr         w8,[sp,#4]
	uxtw        x2,w8
	ldr         x1,[sp,#0x28]
	ldr         x0,[sp,#0x18]
	bl          FatFileUpdateSize
|$LN1@FatWrite|
	add         sp,sp,#0x40
	ldr         lr,[sp],#0x10
	ret

	ENDP  ; |FatWrite|

; Function compile flags: /Odtpy
; File C:\Users\paras\source\repos\grep-name\XenevaOS\KernelAA64\Fs\Fat\FatFile.c

	AREA	|.text$mn|, CODE, ARM64

|FatFileWriteDone| PROC

; 387  : void FatFileWriteDone(AuVFSNode* file) {

|$LN3|
	sub         sp,sp,#0x10
	str         x0,[sp]

; 388  : 	file->current = file->first_block;

	ldr         x8,[sp]
	add         x10,x8,#0x30
	ldr         x8,[sp]
	add         x9,x8,#0x38
	ldr         x8,[x10]
	str         x8,[x9]

; 389  : 	file->eof = 0;

	ldr         x8,[sp]
	add         x9,x8,#0x24
	mov         w8,#0
	strb        w8,[x9]

; 390  : 	file->pos = 0;

	ldr         x8,[sp]
	add         x9,x8,#0x28
	mov         w8,#0
	str         w8,[x9]
	add         sp,sp,#0x10
	ret

	ENDP  ; |FatFileWriteDone|

; Function compile flags: /Odtpy
; File C:\Users\paras\source\repos\grep-name\XenevaOS\KernelAA64\Fs\Fat\FatFile.c

	AREA	|.text$mn|, CODE, ARM64

|FatFileWriteContent| PROC

; 340  : void FatFileWriteContent(AuVFSNode* fsys, AuVFSNode* file, uint64_t* buffer) {

|$LN10|
	sub         sp,sp,#0x10
	stp         x19,lr,[sp]
	sub         sp,sp,#0x50
	str         x0,[sp,#0x18]
	str         x1,[sp,#8]
	str         x2,[sp,#0x40]

; 341  : 	if (!fsys)

	ldr         x8,[sp,#0x18]
	cmp         x8,#0
	bne         |$LN2@FatFileWri|

; 342  : 		return;

	b           |$LN1@FatFileWri|
|$LN2@FatFileWri|

; 343  : 
; 344  : 
; 345  : 	FatFS* _fs = (FatFS*)fsys->device;

	ldr         x8,[sp,#0x18]
	add         x8,x8,#0x50
	ldr         x8,[x8]
	str         x8,[sp,#0x28]

; 346  : 
; 347  : 	uint64_t* buff = (uint64_t*)P2V((size_t)AuPmmngrAlloc());

	bl          AuPmmngrAlloc
	bl          P2V
	str         x0,[sp,#0x30]

; 348  : 	memset(buff, 0, PAGE_SIZE);

	mov         w2,#0x1000
	mov         w1,#0
	ldr         x0,[sp,#0x30]
	bl          memset

; 349  : 
; 350  : 	uint32_t cluster = file->current;

	ldr         x8,[sp,#8]
	add         x8,x8,#0x38
	ldr         x8,[x8]
	mov         w8,w8
	str         w8,[sp]

; 351  : 	if (file->eof) {

	ldr         x8,[sp,#8]
	add         x8,x8,#0x24
	ldrb        w8,[x8]
	mov         w8,w8
	cmp         w8,#0
	beq         |$LN3@FatFileWri|

; 352  : 		/* write the new cluster value to
; 353  : 		* old cluster */
; 354  : 		uint32_t new_cluster = FatFindFreeCluster(fsys);

	ldr         x0,[sp,#0x18]
	bl          FatFindFreeCluster
	mov         w0,w0
	str         w0,[sp,#0x10]

; 355  : 		FatAllocCluster(fsys, cluster, new_cluster);

	ldr         w2,[sp,#0x10]
	ldr         w1,[sp]
	ldr         x0,[sp,#0x18]
	bl          FatAllocCluster

; 356  : 		FatAllocCluster(fsys, new_cluster, FAT_EOC_MARK);

	mov         w2,#-8
	ldr         w1,[sp,#0x10]
	ldr         x0,[sp,#0x18]
	bl          FatAllocCluster

; 357  : 		FatClearCluster(fsys, new_cluster);

	ldr         w1,[sp,#0x10]
	ldr         x0,[sp,#0x18]
	bl          FatClearCluster

; 358  : 		uint32_t clust_val = FatReadFAT(fsys, cluster);

	ldr         w8,[sp]
	uxtw        x1,w8
	ldr         x0,[sp,#0x18]
	bl          FatReadFAT
	mov         w0,w0
	str         w0,[sp,#0x38]

; 359  : 		cluster = new_cluster;

	ldr         w8,[sp,#0x10]
	str         w8,[sp]

; 360  : 		file->eof = 0;

	ldr         x8,[sp,#8]
	add         x9,x8,#0x24
	mov         w8,#0
	strb        w8,[x9]
|$LN3@FatFileWri|

; 361  : 	}
; 362  : 
; 363  : 	if ((cluster != (FAT_EOC_MARK & 0x0FFFFFFF)) || (cluster != (FAT_BAD_CLUSTER & 0x0fffffff))) {

	mov         w9,#0xFFFFFF8
	ldr         w8,[sp]
	cmp         w8,w9
	bne         |$LN5@FatFileWri|
	ldr         w9,|$LN9@FatFileWri|
	ldr         w8,[sp]
	cmp         w8,w9
	beq         |$LN4@FatFileWri|
|$LN5@FatFileWri|

; 364  : 		memcpy(buff, buffer, PAGE_SIZE);

	mov         x2,#0x1000
	ldr         x1,[sp,#0x40]
	ldr         x0,[sp,#0x30]
	bl          memcpy

; 365  : 		AuVDiskWrite(_fs->vdisk, FatClusterToSector32(_fs, cluster), _fs->__SectorPerCluster, buff);

	ldr         x8,[sp,#0x28]
	add         x8,x8,#0x24
	ldrb        w19,[x8]
	mov         w19,w19
	ldr         w8,[sp]
	uxtw        x1,w8
	ldr         x0,[sp,#0x28]
	bl          FatClusterToSector32
	ldr         x8,[sp,#0x28]
	add         x8,x8,#8
	ldr         x3,[sp,#0x30]
	mov         w2,w19
	mov         x1,x0
	ldr         x0,[x8]
	bl          AuVDiskWrite

; 366  : 		file->pos++;

	ldr         x8,[sp,#8]
	add         x8,x8,#0x28
	ldr         w8,[x8]
	add         w9,w8,#1
	ldr         x8,[sp,#8]
	add         x8,x8,#0x28
	str         w9,[x8]
|$LN4@FatFileWri|

; 367  : 	}
; 368  : 	uint32_t return_cluster = FatReadFAT(fsys, cluster);

	ldr         w8,[sp]
	uxtw        x1,w8
	ldr         x0,[sp,#0x18]
	bl          FatReadFAT
	mov         w0,w0
	str         w0,[sp,#0x20]

; 369  : 	if (return_cluster == (FAT_EOC_MARK & 0x0FFFFFFF)) {

	mov         w9,#0xFFFFFF8
	ldr         w8,[sp,#0x20]
	cmp         w8,w9
	bne         |$LN6@FatFileWri|

; 370  : 		file->eof = 1;

	ldr         x8,[sp,#8]
	add         x9,x8,#0x24
	mov         w8,#1
	strb        w8,[x9]

; 371  : 	}

	b           |$LN7@FatFileWri|
|$LN6@FatFileWri|

; 372  : 	else
; 373  : 		cluster = return_cluster;

	ldr         w8,[sp,#0x20]
	str         w8,[sp]
|$LN7@FatFileWri|

; 374  : 
; 375  : 	file->current = cluster;

	ldr         x8,[sp,#8]
	add         x9,x8,#0x38
	ldr         w8,[sp]
	uxtw        x8,w8
	str         x8,[x9]

; 376  : 	file->size = file->pos * _fs->__SectorPerCluster * _fs->__BytesPerSector;

	ldr         x8,[sp,#8]
	add         x10,x8,#0x28
	ldr         x8,[sp,#0x28]
	add         x8,x8,#0x24
	ldrb        w9,[x8]
	mov         w9,w9
	ldr         w8,[x10]
	mul         w9,w8,w9
	ldr         x8,[sp,#0x28]
	add         x8,x8,#0x48
	ldrh        w8,[x8]
	mov         w8,w8
	mul         w9,w9,w8
	ldr         x8,[sp,#8]
	add         x8,x8,#0x20
	str         w9,[x8]

; 377  : 	size_t sz = file->size;

	ldr         x8,[sp,#8]
	add         x8,x8,#0x20
	ldr         w8,[x8]
	uxtw        x8,w8
	str         x8,[sp,#0x48]

; 378  : 
; 379  : 	AuPmmngrFree((void*)V2P((size_t)buff));

	ldr         x0,[sp,#0x30]
	bl          V2P
	bl          AuPmmngrFree
|$LN1@FatFileWri|
	add         sp,sp,#0x50
	ldp         x19,lr,[sp]
	add         sp,sp,#0x10
	ret
	nop
|$LN9@FatFileWri|
	DCD         0xffffff7

	ENDP  ; |FatFileWriteContent|

; Function compile flags: /Odtpy
; File C:\Users\paras\source\repos\grep-name\XenevaOS\KernelAA64\Fs\Fat\FatFile.c

	AREA	|.text$mn|, CODE, ARM64

|FatFileUpdateFilename| PROC

; 280  : int FatFileUpdateFilename(AuVFSNode* fsys, AuVFSNode* file, char* newname) {

|$LN15|
	str         lr,[sp,#-0x10]!
	sub         sp,sp,#0x70
	str         x0,[sp,#0x30]
	str         x1,[sp,#0x28]
	str         x2,[sp,#0x58]

; 281  : 	if (!fsys)

	ldr         x8,[sp,#0x30]
	cmp         x8,#0
	bne         |$LN10@FatFileUpd|

; 282  : 		return -1;

	mov         w0,#-1
	b           |$LN1@FatFileUpd|
|$LN10@FatFileUpd|

; 283  : 	if (!file)

	ldr         x8,[sp,#0x28]
	cmp         x8,#0
	bne         |$LN11@FatFileUpd|

; 284  : 		return -1;

	mov         w0,#-1
	b           |$LN1@FatFileUpd|
|$LN11@FatFileUpd|

; 285  : 	/*if (!file->parent_block)
; 286  : 	return;*/
; 287  : 	FatFS* _fs = (FatFS*)fsys->device;

	ldr         x8,[sp,#0x30]
	add         x8,x8,#0x50
	ldr         x8,[x8]
	str         x8,[sp,#0x18]

; 288  : 
; 289  : 	uint32_t dir_cluster = file->parent_block;

	ldr         x8,[sp,#0x28]
	add         x8,x8,#0x2C
	ldr         w8,[x8]
	str         w8,[sp,#4]

; 290  : 
; 291  : 	char fname[11];
; 292  : 	memset(fname, 0, 11);

	mov         w2,#0xB
	mov         w1,#0
	add         x0,sp,#0x38
	bl          memset

; 293  : 	FatToDOSFilename(file->filename, fname, 11);

	ldr         x0,[sp,#0x28]
	mov         w2,#0xB
	add         x1,sp,#0x38
	bl          FatToDOSFilename

; 294  : 	//fname[11] = 0;
; 295  : 
; 296  : 	char nname[11];
; 297  : 	memset(nname, 0, 11);

	mov         w2,#0xB
	mov         w1,#0
	add         x0,sp,#0x48
	bl          memset

; 298  : 	FatToDOSFilename(newname, nname, 11);

	mov         w2,#0xB
	add         x1,sp,#0x48
	ldr         x0,[sp,#0x58]
	bl          FatToDOSFilename

; 299  : 	//nname[11] = 0;
; 300  : 
; 301  : 	uint64_t* buff = (uint64_t*)P2V((size_t)AuPmmngrAlloc());

	bl          AuPmmngrAlloc
	bl          P2V
	str         x0,[sp,#0x10]

; 302  : 	memset(buff, 0, PAGE_SIZE);

	mov         w2,#0x1000
	mov         w1,#0
	ldr         x0,[sp,#0x10]
	bl          memset
|$LN2@FatFileUpd|

; 303  : 
; 304  : 	while (1) {

	mov         w8,#1
	cmp         w8,#0
	beq         |$LN3@FatFileUpd|

; 305  : 		for (int j = 0; j < _fs->__SectorPerCluster; j++) {

	mov         w8,#0
	str         w8,[sp]
	b           |$LN6@FatFileUpd|
|$LN4@FatFileUpd|
	ldr         w8,[sp]
	add         w8,w8,#1
	str         w8,[sp]
|$LN6@FatFileUpd|
	ldr         x8,[sp,#0x18]
	add         x8,x8,#0x24
	ldrb        w9,[x8]
	mov         w9,w9
	ldr         w8,[sp]
	cmp         w8,w9
	bge         |$LN5@FatFileUpd|

; 306  : 			memset(buff, 0, PAGE_SIZE);

	mov         w2,#0x1000
	mov         w1,#0
	ldr         x0,[sp,#0x10]
	bl          memset

; 307  : 			AuVDiskRead(_fs->vdisk, FatClusterToSector32(_fs, dir_cluster) + j, 1, buff);

	ldr         w8,[sp,#4]
	uxtw        x1,w8
	ldr         x0,[sp,#0x18]
	bl          FatClusterToSector32
	ldr         w8,[sp]
	sxtw        x8,w8
	add         x1,x0,x8
	ldr         x8,[sp,#0x18]
	add         x8,x8,#8
	ldr         x3,[sp,#0x10]
	mov         w2,#1
	ldr         x0,[x8]
	bl          AuVDiskRead

; 308  : 
; 309  : 			FatDir* dirent = (FatDir*)buff;

	ldr         x8,[sp,#0x10]
	str         x8,[sp,#0x20]

; 310  : 			for (int i = 0; i < 16; i++) {

	mov         w8,#0
	str         w8,[sp,#8]
	b           |$LN9@FatFileUpd|
|$LN7@FatFileUpd|
	ldr         w8,[sp,#8]
	add         w8,w8,#1
	str         w8,[sp,#8]
|$LN9@FatFileUpd|
	ldr         w8,[sp,#8]
	cmp         w8,#0x10
	bge         |$LN8@FatFileUpd|

; 311  : 				char name[11];
; 312  : 				memcpy(name, dirent->filename, 11);

	ldr         x1,[sp,#0x20]
	mov         x2,#0xB
	add         x0,sp,#0x60
	bl          memcpy

; 313  : 				//name[11] = 0;
; 314  : 
; 315  : 				if (strcmp(name, fname) == 0) {

	add         x1,sp,#0x38
	add         x0,sp,#0x60
	bl          strcmp
	mov         w0,w0
	cmp         w0,#0
	bne         |$LN12@FatFileUpd|

; 316  : 					memcpy(dirent->filename, nname, 11);

	ldr         x0,[sp,#0x20]
	mov         x2,#0xB
	add         x1,sp,#0x48
	bl          memcpy

; 317  : 					AuVDiskWrite(_fs->vdisk, FatClusterToSector32(_fs, dir_cluster) + j, 1,buff);

	ldr         w8,[sp,#4]
	uxtw        x1,w8
	ldr         x0,[sp,#0x18]
	bl          FatClusterToSector32
	ldr         w8,[sp]
	sxtw        x8,w8
	add         x1,x0,x8
	ldr         x8,[sp,#0x18]
	add         x8,x8,#8
	ldr         x3,[sp,#0x10]
	mov         w2,#1
	ldr         x0,[x8]
	bl          AuVDiskWrite

; 318  : 					AuPmmngrFree((void*)V2P((size_t)buff));

	ldr         x0,[sp,#0x10]
	bl          V2P
	bl          AuPmmngrFree

; 319  : 					return 0;

	mov         w0,#0
	b           |$LN1@FatFileUpd|
|$LN12@FatFileUpd|

; 320  : 				}
; 321  : 				dirent++;

	ldr         x8,[sp,#0x20]
	add         x8,x8,#0x20
	str         x8,[sp,#0x20]

; 322  : 			}

	b           |$LN7@FatFileUpd|
|$LN8@FatFileUpd|

; 323  : 		}

	b           |$LN4@FatFileUpd|
|$LN5@FatFileUpd|

; 324  : 
; 325  : 		dir_cluster = FatReadFAT(fsys, dir_cluster);

	ldr         w8,[sp,#4]
	uxtw        x1,w8
	ldr         x0,[sp,#0x30]
	bl          FatReadFAT
	mov         w0,w0
	str         w0,[sp,#4]

; 326  : 		if (dir_cluster == (FAT_EOC_MARK & 0x0FFFFFFF))

	mov         w9,#0xFFFFFF8
	ldr         w8,[sp,#4]
	cmp         w8,w9
	bne         |$LN13@FatFileUpd|

; 327  : 			break;

	b           |$LN3@FatFileUpd|
|$LN13@FatFileUpd|

; 328  : 	}

	b           |$LN2@FatFileUpd|
|$LN3@FatFileUpd|

; 329  : 
; 330  : 	return -1;

	mov         w0,#-1
|$LN1@FatFileUpd|
	add         sp,sp,#0x70
	ldr         lr,[sp],#0x10
	ret

	ENDP  ; |FatFileUpdateFilename|

; Function compile flags: /Odtpy
; File C:\Users\paras\source\repos\grep-name\XenevaOS\KernelAA64\Fs\Fat\FatFile.c

	AREA	|.text$mn|, CODE, ARM64

|FatFileUpdateSize| PROC

; 227  : void FatFileUpdateSize(AuVFSNode* fsys, AuVFSNode* file, size_t size) {

|$LN16|
	str         lr,[sp,#-0x10]!
	sub         sp,sp,#0x60
	str         x0,[sp,#0x30]
	str         x1,[sp,#0x28]
	str         x2,[sp,#0x48]

; 228  : 	if (!fsys)

	ldr         x8,[sp,#0x30]
	cmp         x8,#0
	bne         |$LN10@FatFileUpd|

; 229  : 		return;

	b           |$LN1@FatFileUpd|
|$LN10@FatFileUpd|

; 230  : 	if (!file)

	ldr         x8,[sp,#0x28]
	cmp         x8,#0
	bne         |$LN11@FatFileUpd|

; 231  : 		return;

	b           |$LN1@FatFileUpd|
|$LN11@FatFileUpd|

; 232  : 	if (!file->parent_block)

	ldr         x8,[sp,#0x28]
	add         x8,x8,#0x2C
	ldr         w8,[x8]
	cmp         w8,#0
	bne         |$LN12@FatFileUpd|

; 233  : 		return;

	b           |$LN1@FatFileUpd|
|$LN12@FatFileUpd|

; 234  : 	FatFS* _fs = (FatFS*)fsys->device;

	ldr         x8,[sp,#0x30]
	add         x8,x8,#0x50
	ldr         x8,[x8]
	str         x8,[sp,#0x18]

; 235  : 
; 236  : 	uint32_t dir_cluster = file->parent_block;

	ldr         x8,[sp,#0x28]
	add         x8,x8,#0x2C
	ldr         w8,[x8]
	str         w8,[sp,#4]

; 237  : 	char fname[11];
; 238  : 	memset(fname, 0, 11);

	mov         w2,#0xB
	mov         w1,#0
	add         x0,sp,#0x38
	bl          memset

; 239  : 	FatToDOSFilename(file->filename, fname, 11);

	ldr         x0,[sp,#0x28]
	mov         w2,#0xB
	add         x1,sp,#0x38
	bl          FatToDOSFilename

; 240  : 	fname[11] = 0;

	mov         w8,#0
	strb        w8,[sp,#0x43]

; 241  : 	uint64_t* buff = (uint64_t*)P2V((size_t)AuPmmngrAlloc());

	bl          AuPmmngrAlloc
	bl          P2V
	str         x0,[sp,#0x10]

; 242  : 	memset(buff, 0, PAGE_SIZE);

	mov         w2,#0x1000
	mov         w1,#0
	ldr         x0,[sp,#0x10]
	bl          memset
|$LN2@FatFileUpd|

; 243  : 
; 244  : 	while (1) {

	mov         w8,#1
	cmp         w8,#0
	beq         |$LN3@FatFileUpd|

; 245  : 		for (int j = 0; j < _fs->__SectorPerCluster; j++) {

	mov         w8,#0
	str         w8,[sp]
	b           |$LN6@FatFileUpd|
|$LN4@FatFileUpd|
	ldr         w8,[sp]
	add         w8,w8,#1
	str         w8,[sp]
|$LN6@FatFileUpd|
	ldr         x8,[sp,#0x18]
	add         x8,x8,#0x24
	ldrb        w9,[x8]
	mov         w9,w9
	ldr         w8,[sp]
	cmp         w8,w9
	bge         |$LN5@FatFileUpd|

; 246  : 			memset(buff, 0, PAGE_SIZE);

	mov         w2,#0x1000
	mov         w1,#0
	ldr         x0,[sp,#0x10]
	bl          memset

; 247  : 			AuVDiskRead(_fs->vdisk, FatClusterToSector32(_fs, dir_cluster) + j, 1, buff);

	ldr         w8,[sp,#4]
	uxtw        x1,w8
	ldr         x0,[sp,#0x18]
	bl          FatClusterToSector32
	ldr         w8,[sp]
	sxtw        x8,w8
	add         x1,x0,x8
	ldr         x8,[sp,#0x18]
	add         x8,x8,#8
	ldr         x3,[sp,#0x10]
	mov         w2,#1
	ldr         x0,[x8]
	bl          AuVDiskRead

; 248  : 
; 249  : 			FatDir* dirent = (FatDir*)buff;

	ldr         x8,[sp,#0x10]
	str         x8,[sp,#0x20]

; 250  : 			for (int i = 0; i < 16; i++) {

	mov         w8,#0
	str         w8,[sp,#8]
	b           |$LN9@FatFileUpd|
|$LN7@FatFileUpd|
	ldr         w8,[sp,#8]
	add         w8,w8,#1
	str         w8,[sp,#8]
|$LN9@FatFileUpd|
	ldr         w8,[sp,#8]
	cmp         w8,#0x10
	bge         |$LN8@FatFileUpd|

; 251  : 				char name[11];
; 252  : 				memcpy(name, dirent->filename, 11);

	ldr         x1,[sp,#0x20]
	mov         x2,#0xB
	add         x0,sp,#0x50
	bl          memcpy

; 253  : 				name[11] = 0;

	mov         w8,#0
	strb        w8,[sp,#0x5B]

; 254  : 
; 255  : 				if (strcmp(fname, name) == 0) {

	add         x1,sp,#0x50
	add         x0,sp,#0x38
	bl          strcmp
	mov         w0,w0
	cmp         w0,#0
	bne         |$LN13@FatFileUpd|

; 256  : 					dirent->file_size += size;

	ldr         x8,[sp,#0x20]
	add         x8,x8,#0x1C
	ldr         w8,[x8]
	uxtw        x9,w8
	ldr         x8,[sp,#0x48]
	add         x10,x9,x8
	ldr         x8,[sp,#0x20]
	add         x9,x8,#0x1C
	mov         w8,w10
	str         w8,[x9]

; 257  : 					AuVDiskWrite(_fs->vdisk, FatClusterToSector32(_fs, dir_cluster) + j, 1, buff);

	ldr         w8,[sp,#4]
	uxtw        x1,w8
	ldr         x0,[sp,#0x18]
	bl          FatClusterToSector32
	ldr         w8,[sp]
	sxtw        x8,w8
	add         x1,x0,x8
	ldr         x8,[sp,#0x18]
	add         x8,x8,#8
	ldr         x3,[sp,#0x10]
	mov         w2,#1
	ldr         x0,[x8]
	bl          AuVDiskWrite

; 258  : 					AuPmmngrFree((void*)V2P((size_t)buff));

	ldr         x0,[sp,#0x10]
	bl          V2P
	bl          AuPmmngrFree

; 259  : 					return;

	b           |$LN1@FatFileUpd|
|$LN13@FatFileUpd|

; 260  : 				}
; 261  : 				dirent++;

	ldr         x8,[sp,#0x20]
	add         x8,x8,#0x20
	str         x8,[sp,#0x20]

; 262  : 			}

	b           |$LN7@FatFileUpd|
|$LN8@FatFileUpd|

; 263  : 		}

	b           |$LN4@FatFileUpd|
|$LN5@FatFileUpd|

; 264  : 
; 265  : 		dir_cluster = FatReadFAT(fsys, dir_cluster);

	ldr         w8,[sp,#4]
	uxtw        x1,w8
	ldr         x0,[sp,#0x30]
	bl          FatReadFAT
	mov         w0,w0
	str         w0,[sp,#4]

; 266  : 		if (dir_cluster == (FAT_EOC_MARK & 0x0FFFFFFF)) {

	mov         w9,#0xFFFFFF8
	ldr         w8,[sp,#4]
	cmp         w8,w9
	bne         |$LN14@FatFileUpd|

; 267  : 			break;

	b           |$LN3@FatFileUpd|
|$LN14@FatFileUpd|

; 268  : 		}
; 269  : 	}

	b           |$LN2@FatFileUpd|
|$LN3@FatFileUpd|
|$LN1@FatFileUpd|
	add         sp,sp,#0x60
	ldr         lr,[sp],#0x10
	ret

	ENDP  ; |FatFileUpdateSize|

; Function compile flags: /Odtpy
; File C:\Users\paras\source\repos\grep-name\XenevaOS\KernelAA64\Fs\Fat\FatFile.c

	AREA	|.text$mn|, CODE, ARM64

|FatCreateFile| PROC

; 113  : AuVFSNode* FatCreateFile(AuVFSNode* fsys, char* filename) {

|$LN26|
	str         lr,[sp,#-0x10]!
	sub         sp,sp,#0x90
	str         x0,[sp,#0x30]
	str         x1,[sp,#0x58]

; 114  : 	if (!fsys)

	ldr         x8,[sp,#0x30]
	cmp         x8,#0
	bne         |$LN15@FatCreateF|

; 115  : 		return NULL;

	mov         x0,#0
	b           |$LN1@FatCreateF|
|$LN15@FatCreateF|

; 116  : 	FatFS* _fs = (FatFS*)fsys->device;

	ldr         x8,[sp,#0x30]
	add         x8,x8,#0x50
	ldr         x8,[x8]
	str         x8,[sp,#0x40]

; 117  : 	
; 118  : 	AuVFSNode* parent = FatFileGetParent(fsys, filename);

	ldr         x1,[sp,#0x58]
	ldr         x0,[sp,#0x30]
	bl          FatFileGetParent
	str         x0,[sp,#0x50]

; 119  : 	if (!parent) {

	ldr         x8,[sp,#0x50]
	cmp         x8,#0
	bne         |$LN16@FatCreateF|

; 120  : 		UARTDebugOut("No parent \r\n");

	adrp        x8,|$SG3349|
	add         x0,x8,PageOffset(|$SG3349|)
	bl          UARTDebugOut

; 121  : 		return NULL;

	mov         x0,#0
	b           |$LN1@FatCreateF|
|$LN16@FatCreateF|

; 122  : 	}
; 123  : 
; 124  : 	uint32_t parent_cluster = parent->current;

	ldr         x8,[sp,#0x50]
	add         x8,x8,#0x38
	ldr         x8,[x8]
	mov         w8,w8
	str         w8,[sp,#0xC]

; 125  : 	if (!parent_cluster)

	ldr         w8,[sp,#0xC]
	cmp         w8,#0
	bne         |$LN17@FatCreateF|

; 126  : 		parent_cluster = _fs->__RootDirFirstCluster;

	ldr         x8,[sp,#0x40]
	add         x8,x8,#0x28
	ldr         w8,[x8]
	str         w8,[sp,#0xC]
|$LN17@FatCreateF|

; 127  : 
; 128  : 
; 129  : 	AuVFSNode* file = (AuVFSNode*)kmalloc(sizeof(AuVFSNode));

	mov         w0,#0xD0
	bl          kmalloc
	str         x0,[sp,#0x10]

; 130  : 	memset(file, 0, sizeof(AuVFSNode));

	mov         w2,#0xD0
	mov         w1,#0
	ldr         x0,[sp,#0x10]
	bl          memset

; 131  : 
; 132  : 	uint64_t* buff = (uint64_t*)P2V((size_t)AuPmmngrAlloc());

	bl          AuPmmngrAlloc
	bl          P2V
	str         x0,[sp,#0x48]

; 133  : 	memset(buff, 0, PAGE_SIZE);

	mov         w2,#0x1000
	mov         w1,#0
	ldr         x0,[sp,#0x48]
	bl          memset

; 134  : 
; 135  : 	char* path = (char*)filename;

	ldr         x8,[sp,#0x58]
	str         x8,[sp,#0x80]

; 136  : 	char* p = strchr(path, '/');

	mov         w1,#0x2F
	ldr         x0,[sp,#0x80]
	bl          strchr
	str         x0,[sp,#0x20]

; 137  : 	if (p)

	ldr         x8,[sp,#0x20]
	cmp         x8,#0
	beq         |$LN18@FatCreateF|

; 138  : 		p++;

	ldr         x8,[sp,#0x20]
	add         x8,x8,#1
	str         x8,[sp,#0x20]
|$LN18@FatCreateF|

; 139  : 
; 140  : 	char extract[16];
; 141  : 	memset(extract, 0, 16);

	mov         w2,#0x10
	mov         w1,#0
	add         x0,sp,#0x60
	bl          memset
|$LN2@FatCreateF|

; 142  : 	while (p) {

	ldr         x8,[sp,#0x20]
	cmp         x8,#0
	beq         |$LN3@FatCreateF|

; 143  : 		int i = 0;

	mov         w8,#0
	str         w8,[sp,#8]

; 144  : 		for (i = 0; i < 16; i++) {

	mov         w8,#0
	str         w8,[sp,#8]
	b           |$LN6@FatCreateF|
|$LN4@FatCreateF|
	ldr         w8,[sp,#8]
	add         w8,w8,#1
	str         w8,[sp,#8]
|$LN6@FatCreateF|
	ldr         w8,[sp,#8]
	cmp         w8,#0x10
	bge         |$LN5@FatCreateF|

; 145  : 			if (p[i] == '/' || p[i] == '\0')

	ldr         w8,[sp,#8]
	sxtw        x9,w8
	mov         x8,#1
	mul         x9,x9,x8
	ldr         x8,[sp,#0x20]
	add         x8,x8,x9
	ldrsb       w8,[x8]
	mov         w8,w8
	cmp         w8,#0x2F
	beq         |$LN20@FatCreateF|
	ldr         w8,[sp,#8]
	sxtw        x9,w8
	mov         x8,#1
	mul         x9,x9,x8
	ldr         x8,[sp,#0x20]
	add         x8,x8,x9
	ldrsb       w8,[x8]
	mov         w8,w8
	cmp         w8,#0
	bne         |$LN19@FatCreateF|
|$LN20@FatCreateF|

; 146  : 				break;

	b           |$LN5@FatCreateF|
|$LN19@FatCreateF|

; 147  : 			extract[i] = p[i];

	ldr         w8,[sp,#8]
	sxtw        x9,w8
	mov         x8,#1
	mul         x9,x9,x8
	ldr         x8,[sp,#0x20]
	add         x10,x8,x9
	ldr         w8,[sp,#8]
	sxtw        x9,w8
	mov         x8,#1
	mul         x9,x9,x8
	add         x8,sp,#0x60
	add         x9,x8,x9
	ldrsb       w8,[x10]
	strb        w8,[x9]

; 148  : 		}

	b           |$LN4@FatCreateF|
|$LN5@FatCreateF|

; 149  : 		p = strchr(p + 1, '/');

	ldr         x8,[sp,#0x20]
	add         x0,x8,#1
	mov         w1,#0x2F
	bl          strchr
	str         x0,[sp,#0x20]

; 150  : 		if (p) {

	ldr         x8,[sp,#0x20]
	cmp         x8,#0
	beq         |$LN21@FatCreateF|

; 151  : 			p++;

	ldr         x8,[sp,#0x20]
	add         x8,x8,#1
	str         x8,[sp,#0x20]

; 152  : 			memset(extract, 0, 16);

	mov         w2,#0x10
	mov         w1,#0
	add         x0,sp,#0x60
	bl          memset
|$LN21@FatCreateF|

; 153  : 		}
; 154  : 	}

	b           |$LN2@FatCreateF|
|$LN3@FatCreateF|

; 155  : 
; 156  : 	char fname[11];
; 157  : 	memset(fname, 0, 11);

	mov         w2,#0xB
	mov         w1,#0
	add         x0,sp,#0x70
	bl          memset

; 158  : 	FatToDOSFilename(extract, fname, 11);

	mov         w2,#0xB
	add         x1,sp,#0x70
	add         x0,sp,#0x60
	bl          FatToDOSFilename
|$LN7@FatCreateF|

; 159  : 	//fname[11] = 0;
; 160  : 
; 161  : 
; 162  : 	while (1) {

	mov         w8,#1
	cmp         w8,#0
	beq         |$LN8@FatCreateF|

; 163  : 		for (int j = 0; j < _fs->__SectorPerCluster; j++) {

	mov         w8,#0
	str         w8,[sp,#0x28]
	b           |$LN11@FatCreateF|
|$LN9@FatCreateF|
	ldr         w8,[sp,#0x28]
	add         w8,w8,#1
	str         w8,[sp,#0x28]
|$LN11@FatCreateF|
	ldr         x8,[sp,#0x40]
	add         x8,x8,#0x24
	ldrb        w9,[x8]
	mov         w9,w9
	ldr         w8,[sp,#0x28]
	cmp         w8,w9
	bge         |$LN10@FatCreateF|

; 164  : 			memset(buff, 0, PAGE_SIZE);

	mov         w2,#0x1000
	mov         w1,#0
	ldr         x0,[sp,#0x48]
	bl          memset

; 165  : 			AuVDiskRead(_fs->vdisk, FatClusterToSector32(_fs, parent_cluster) + j, 1, buff);

	ldr         w8,[sp,#0xC]
	uxtw        x1,w8
	ldr         x0,[sp,#0x40]
	bl          FatClusterToSector32
	ldr         w8,[sp,#0x28]
	sxtw        x8,w8
	add         x1,x0,x8
	ldr         x8,[sp,#0x40]
	add         x8,x8,#8
	ldr         x3,[sp,#0x48]
	mov         w2,#1
	ldr         x0,[x8]
	bl          AuVDiskRead

; 166  : 
; 167  : 			FatDir* dirent = (FatDir*)buff;

	ldr         x8,[sp,#0x48]
	str         x8,[sp]

; 168  : 			for (int i = 0; i < 16; i++) {

	mov         w8,#0
	str         w8,[sp,#0x38]
	b           |$LN14@FatCreateF|
|$LN12@FatCreateF|
	ldr         w8,[sp,#0x38]
	add         w8,w8,#1
	str         w8,[sp,#0x38]
|$LN14@FatCreateF|
	ldr         w8,[sp,#0x38]
	cmp         w8,#0x10
	bge         |$LN13@FatCreateF|

; 169  : 				if ((dirent->filename[0] == 0x00) || (dirent->filename[0] == 0xE5)) {

	ldr         x8,[sp]
	ldrb        w8,[x8]
	mov         w8,w8
	cmp         w8,#0
	beq         |$LN23@FatCreateF|
	ldr         x8,[sp]
	ldrb        w8,[x8]
	mov         w8,w8
	cmp         w8,#0xE5
	bne         |$LN22@FatCreateF|
|$LN23@FatCreateF|

; 170  : 					memcpy(dirent->filename, fname, 11);

	ldr         x0,[sp]
	mov         x2,#0xB
	add         x1,sp,#0x70
	bl          memcpy

; 171  : 
; 172  : 					uint32_t cluster = FatFindFreeCluster(fsys);

	ldr         x0,[sp,#0x30]
	bl          FatFindFreeCluster
	mov         w0,w0
	str         w0,[sp,#0x18]

; 173  : 					FatAllocCluster(fsys, cluster, FAT_EOC_MARK);

	mov         w2,#-8
	ldr         w1,[sp,#0x18]
	ldr         x0,[sp,#0x30]
	bl          FatAllocCluster

; 174  : 					FatClearCluster(fsys, cluster);

	ldr         w1,[sp,#0x18]
	ldr         x0,[sp,#0x30]
	bl          FatClearCluster

; 175  : 				
; 176  : 					dirent->attrib = FAT_ATTRIBUTE_ARCHIVE;

	ldr         x8,[sp]
	add         x9,x8,#0xB
	mov         w8,#0x20
	strb        w8,[x9]

; 177  : 					dirent->first_cluster = (uint16_t)(cluster & 0x0000FFFF);

	ldr         w8,[sp,#0x18]
	and         w8,w8,#0xFFFF
	uxth        w9,w8
	ldr         x8,[sp]
	add         x8,x8,#0x1A
	strh        w9,[x8]

; 178  : 					dirent->first_cluster_hi_bytes = (uint16_t)((cluster & 0x0FFF0000) >> 16);

	ldr         w8,[sp,#0x18]
	and         w8,w8,#0xFFF0000
	lsr         w8,w8,#0x10
	uxth        w9,w8
	ldr         x8,[sp]
	add         x8,x8,#0x14
	strh        w9,[x8]

; 179  : 					dirent->date_created = FatFormatDate();

	bl          FatFormatDate
	uxth        w9,w0
	ldr         x8,[sp]
	add         x8,x8,#0x10
	strh        w9,[x8]

; 180  : 					dirent->time_created = FatFormatTime();

	bl          FatFormatTime
	uxth        w9,w0
	ldr         x8,[sp]
	add         x8,x8,#0xE
	strh        w9,[x8]

; 181  : 					dirent->last_wrt_date = dirent->date_created;

	ldr         x8,[sp]
	add         x10,x8,#0x10
	ldr         x8,[sp]
	add         x9,x8,#0x18
	ldrh        w8,[x10]
	strh        w8,[x9]

; 182  : 					dirent->last_wrt_time = dirent->time_created;

	ldr         x8,[sp]
	add         x10,x8,#0xE
	ldr         x8,[sp]
	add         x9,x8,#0x16
	ldrh        w8,[x10]
	strh        w8,[x9]

; 183  : 					dirent->date_last_accessed = dirent->date_created;

	ldr         x8,[sp]
	add         x10,x8,#0x10
	ldr         x8,[sp]
	add         x9,x8,#0x12
	ldrh        w8,[x10]
	strh        w8,[x9]

; 184  : 					dirent->file_size = 0; //by default, 0 bytes

	ldr         x8,[sp]
	add         x9,x8,#0x1C
	mov         w8,#0
	str         w8,[x9]

; 185  : 
; 186  : 					uint64_t sector = FatClusterToSector32(_fs, parent_cluster);

	ldr         w8,[sp,#0xC]
	uxtw        x1,w8
	ldr         x0,[sp,#0x40]
	bl          FatClusterToSector32
	str         x0,[sp,#0x88]

; 187  : 
; 188  : 					AuVDiskWrite(_fs->vdisk, sector + j, 1, buff);

	ldr         w8,[sp,#0x28]
	sxtw        x9,w8
	ldr         x8,[sp,#0x88]
	add         x1,x8,x9
	ldr         x8,[sp,#0x40]
	add         x8,x8,#8
	ldr         x3,[sp,#0x48]
	mov         w2,#1
	ldr         x0,[x8]
	bl          AuVDiskWrite

; 189  : 
; 190  : 					AuPmmngrFree((void*)V2P((size_t)buff));

	ldr         x0,[sp,#0x48]
	bl          V2P
	bl          AuPmmngrFree

; 191  : 
; 192  : 					strcpy(file->filename, extract);

	ldr         x0,[sp,#0x10]
	add         x1,sp,#0x60
	bl          strcpy

; 193  : 					file->size = dirent->file_size;

	ldr         x8,[sp]
	add         x10,x8,#0x1C
	ldr         x8,[sp,#0x10]
	add         x9,x8,#0x20
	ldr         w8,[x10]
	str         w8,[x9]

; 194  : 					file->eof = 0;

	ldr         x8,[sp,#0x10]
	add         x9,x8,#0x24
	mov         w8,#0
	strb        w8,[x9]

; 195  : 					file->pos = 0;

	ldr         x8,[sp,#0x10]
	add         x9,x8,#0x28
	mov         w8,#0
	str         w8,[x9]

; 196  : 					file->current = cluster;

	ldr         x8,[sp,#0x10]
	add         x9,x8,#0x38
	ldr         w8,[sp,#0x18]
	uxtw        x8,w8
	str         x8,[x9]

; 197  : 					file->first_block = cluster;

	ldr         x8,[sp,#0x10]
	add         x9,x8,#0x30
	ldr         w8,[sp,#0x18]
	uxtw        x8,w8
	str         x8,[x9]

; 198  : 					file->parent_block = parent_cluster;

	ldr         x8,[sp,#0x10]
	add         x9,x8,#0x2C
	ldr         w8,[sp,#0xC]
	str         w8,[x9]

; 199  : 					file->device = fsys;

	ldr         x8,[sp,#0x10]
	add         x9,x8,#0x50
	ldr         x8,[sp,#0x30]
	str         x8,[x9]

; 200  : 					file->flags |= FS_FLAG_GENERAL;

	ldr         x8,[sp,#0x10]
	add         x8,x8,#0x40
	ldrh        w8,[x8]
	mov         w8,w8
	orr         w10,w8,#4
	ldr         x8,[sp,#0x10]
	add         x9,x8,#0x40
	uxth        w8,w10
	strh        w8,[x9]

; 201  : 					file->status = FS_STATUS_FOUND;

	ldr         x8,[sp,#0x10]
	add         x9,x8,#0x42
	mov         w8,#1
	strb        w8,[x9]

; 202  : 					kfree(parent);

	ldr         x0,[sp,#0x50]
	bl          kfree

; 203  : 					return file;

	ldr         x0,[sp,#0x10]
	b           |$LN1@FatCreateF|
|$LN22@FatCreateF|

; 204  : 				}
; 205  : 				dirent++;

	ldr         x8,[sp]
	add         x8,x8,#0x20
	str         x8,[sp]

; 206  : 			}

	b           |$LN12@FatCreateF|
|$LN13@FatCreateF|

; 207  : 		}

	b           |$LN9@FatCreateF|
|$LN10@FatCreateF|

; 208  : 		parent_cluster = FatReadFAT(fsys, parent_cluster);

	ldr         w8,[sp,#0xC]
	uxtw        x1,w8
	ldr         x0,[sp,#0x30]
	bl          FatReadFAT
	mov         w0,w0
	str         w0,[sp,#0xC]

; 209  : 		if (parent_cluster == (FAT_EOC_MARK & 0x0FFFFFFF))

	mov         w9,#0xFFFFFF8
	ldr         w8,[sp,#0xC]
	cmp         w8,w9
	bne         |$LN24@FatCreateF|

; 210  : 			break;

	b           |$LN8@FatCreateF|
|$LN24@FatCreateF|

; 211  : 		/* actually, here we need to allocate a new
; 212  : 		 * cluster and write it to root cluster
; 213  : 		 * so that root directory expands
; 214  : 		 */
; 215  : 	}

	b           |$LN7@FatCreateF|
|$LN8@FatCreateF|

; 216  : 	kfree(parent);

	ldr         x0,[sp,#0x50]
	bl          kfree

; 217  : 	kfree(file);

	ldr         x0,[sp,#0x10]
	bl          kfree

; 218  : 	return NULL;

	mov         x0,#0
|$LN1@FatCreateF|
	add         sp,sp,#0x90
	ldr         lr,[sp],#0x10
	ret

	ENDP  ; |FatCreateFile|

; Function compile flags: /Odtpy
; File C:\Users\paras\source\repos\grep-name\XenevaOS\KernelAA64\Fs\Fat\FatFile.c

	AREA	|.text$mn|, CODE, ARM64

|FatFileGetParent| PROC

; 54   : AuVFSNode* FatFileGetParent(AuVFSNode* fsys, const char* filename) {

|$LN18|
	str         lr,[sp,#-0x10]!
	sub         sp,sp,#0x50
	str         x0,[sp,#0x18]
	str         x1,[sp,#0x28]

; 55   : 	if (!fsys)

	ldr         x8,[sp,#0x18]
	cmp         x8,#0
	bne         |$LN7@FatFileGet|

; 56   : 		return NULL;

	mov         x0,#0
	b           |$LN1@FatFileGet|
|$LN7@FatFileGet|

; 57   : 	FatFS* _fs = (FatFS*)fsys->device;

	ldr         x8,[sp,#0x18]
	add         x8,x8,#0x50
	ldr         x8,[x8]
	str         x8,[sp,#0x48]

; 58   : 	AuVFSNode* parent = NULL;

	mov         x8,#0
	str         x8,[sp,#0x10]

; 59   : 	
; 60   : 	AuVFSNode* retfile = (AuVFSNode*)kmalloc(sizeof(AuVFSNode));

	mov         w0,#0xD0
	bl          kmalloc
	str         x0,[sp,#0x20]

; 61   : 
; 62   : 	char* path = (char*)filename;

	ldr         x8,[sp,#0x28]
	str         x8,[sp,#0x30]

; 63   : 	char* p = strchr(path, '/');

	mov         w1,#0x2F
	ldr         x0,[sp,#0x30]
	bl          strchr
	str         x0,[sp,#8]

; 64   : 	if (p)

	ldr         x8,[sp,#8]
	cmp         x8,#0
	beq         |$LN8@FatFileGet|

; 65   : 		p++;

	ldr         x8,[sp,#8]
	add         x8,x8,#1
	str         x8,[sp,#8]
|$LN8@FatFileGet|

; 66   : 	bool is_root = true;

	mov         w8,#1
	strb        w8,[sp]

; 67   : 
; 68   : 	//skip alphabet label
; 69   : 	if (fsys != __RootFS)

	adrp        x8,__RootFS
	ldr         x9,[x8,PageOffset(__RootFS)]
	ldr         x8,[sp,#0x18]
	cmp         x8,x9
	beq         |$LN9@FatFileGet|

; 70   : 		p += 2;

	ldr         x8,[sp,#8]
	add         x8,x8,#2
	str         x8,[sp,#8]
|$LN9@FatFileGet|
|$LN2@FatFileGet|

; 71   : 	
; 72   : 
; 73   : 	while (p) {

	ldr         x8,[sp,#8]
	cmp         x8,#0
	beq         |$LN3@FatFileGet|

; 74   : 		char pathname[16];
; 75   : 		int i = 0;

	mov         w8,#0
	str         w8,[sp,#4]

; 76   : 		for (i = 0; i < 16; i++) {

	mov         w8,#0
	str         w8,[sp,#4]
	b           |$LN6@FatFileGet|
|$LN4@FatFileGet|
	ldr         w8,[sp,#4]
	add         w8,w8,#1
	str         w8,[sp,#4]
|$LN6@FatFileGet|
	ldr         w8,[sp,#4]
	cmp         w8,#0x10
	bge         |$LN5@FatFileGet|

; 77   : 			if (p[i] == '/' || p[i] == '\0')

	ldr         w8,[sp,#4]
	sxtw        x9,w8
	mov         x8,#1
	mul         x9,x9,x8
	ldr         x8,[sp,#8]
	add         x8,x8,x9
	ldrsb       w8,[x8]
	mov         w8,w8
	cmp         w8,#0x2F
	beq         |$LN11@FatFileGet|
	ldr         w8,[sp,#4]
	sxtw        x9,w8
	mov         x8,#1
	mul         x9,x9,x8
	ldr         x8,[sp,#8]
	add         x8,x8,x9
	ldrsb       w8,[x8]
	mov         w8,w8
	cmp         w8,#0
	bne         |$LN10@FatFileGet|
|$LN11@FatFileGet|

; 78   : 				break;

	b           |$LN5@FatFileGet|
|$LN10@FatFileGet|

; 79   : 			pathname[i] = p[i];

	ldr         w8,[sp,#4]
	sxtw        x9,w8
	mov         x8,#1
	mul         x9,x9,x8
	ldr         x8,[sp,#8]
	add         x10,x8,x9
	ldr         w8,[sp,#4]
	sxtw        x9,w8
	mov         x8,#1
	mul         x9,x9,x8
	add         x8,sp,#0x38
	add         x9,x8,x9
	ldrsb       w8,[x10]
	strb        w8,[x9]

; 80   : 		}

	b           |$LN4@FatFileGet|
|$LN5@FatFileGet|

; 81   : 		pathname[i] = 0;

	ldr         w8,[sp,#4]
	sxtw        x9,w8
	mov         x8,#1
	mul         x9,x9,x8
	add         x8,sp,#0x38
	add         x9,x8,x9
	mov         w8,#0
	strb        w8,[x9]

; 82   : 	
; 83   : 		if (is_root) {

	ldrb        w8,[sp]
	mov         w8,w8
	cmp         w8,#0
	beq         |$LN12@FatFileGet|

; 84   : 			parent = FatLocateDir(fsys, pathname);

	add         x1,sp,#0x38
	ldr         x0,[sp,#0x18]
	bl          FatLocateDir
	str         x0,[sp,#0x10]

; 85   : 			if (!parent) {

	ldr         x8,[sp,#0x10]
	cmp         x8,#0
	bne         |$LN14@FatFileGet|

; 86   : 				kfree(retfile);

	ldr         x0,[sp,#0x20]
	bl          kfree

; 87   : 				break;

	b           |$LN3@FatFileGet|
|$LN14@FatFileGet|

; 88   : 			}
; 89   : 			is_root = false;

	mov         w8,#0
	strb        w8,[sp]

; 90   : 		}

	b           |$LN13@FatFileGet|
|$LN12@FatFileGet|

; 91   : 		else {
; 92   : 			memcpy(retfile, parent, sizeof(AuVFSNode));

	mov         x2,#0xD0
	ldr         x1,[sp,#0x10]
	ldr         x0,[sp,#0x20]
	bl          memcpy

; 93   : 			parent = FatLocateSubDir(fsys, parent, pathname);

	add         x2,sp,#0x38
	ldr         x1,[sp,#0x10]
	ldr         x0,[sp,#0x18]
	bl          FatLocateSubDir
	str         x0,[sp,#0x10]

; 94   : 			if (!parent) {

	ldr         x8,[sp,#0x10]
	cmp         x8,#0
	bne         |$LN15@FatFileGet|

; 95   : 				parent = retfile;

	ldr         x8,[sp,#0x20]
	str         x8,[sp,#0x10]

; 96   : 				parent->current = parent->first_block;

	ldr         x8,[sp,#0x10]
	add         x10,x8,#0x30
	ldr         x8,[sp,#0x10]
	add         x9,x8,#0x38
	ldr         x8,[x10]
	str         x8,[x9]

; 97   : 				break;

	b           |$LN3@FatFileGet|
|$LN15@FatFileGet|
|$LN13@FatFileGet|

; 98   : 			}
; 99   : 		}
; 100  : 		p = strchr(p + 1, '/');

	ldr         x8,[sp,#8]
	add         x0,x8,#1
	mov         w1,#0x2F
	bl          strchr
	str         x0,[sp,#8]

; 101  : 		if (p)

	ldr         x8,[sp,#8]
	cmp         x8,#0
	beq         |$LN16@FatFileGet|

; 102  : 			p++;

	ldr         x8,[sp,#8]
	add         x8,x8,#1
	str         x8,[sp,#8]
|$LN16@FatFileGet|

; 103  : 	}

	b           |$LN2@FatFileGet|
|$LN3@FatFileGet|

; 104  : 	return parent;

	ldr         x0,[sp,#0x10]
|$LN1@FatFileGet|
	add         sp,sp,#0x50
	ldr         lr,[sp],#0x10
	ret

	ENDP  ; |FatFileGetParent|

	END
