; Listing generated by Microsoft (R) Optimizing Compiler Version 19.29.30159.0 

	TTL	C:\Users\paras\source\repos\grep-name\XenevaOS\KernelAA64\ARM64\Debug\fileserv.obj
	ARM64

	AREA	|.drectve|, DRECTVE

	EXPORT	|OpenFile|
	EXPORT	|ReadFile|
	EXPORT	|WriteFile|
	EXPORT	|CloseFile|
	EXPORT	|FileIoControl|
	EXPORT	|FileStat|
	EXPORT	|OpenDir|
	EXPORT	|ReadDir|
	EXPORT	|ProcessGetFileDesc|
	EXPORT	|FileSetOffset|
	IMPORT	|AuVFSOpen|
	IMPORT	|AuVFSNodeIOControl|
	IMPORT	|AuVFSFind|
	IMPORT	|AuVFSNodeRead|
	IMPORT	|AuVFSCreateFile|
	IMPORT	|AuVFSNodeWrite|
	IMPORT	|AuVFSGetBlockFor|
	IMPORT	|AuGetCurrentThread|
	IMPORT	|AuProcessFindThread|
	IMPORT	|AuProcessFindSubThread|
	IMPORT	|AuProcessGetFileDesc|
	IMPORT	|UARTDebugOut|
	IMPORT	|kfree|
	IMPORT	|strcmp|
	IMPORT	|strcpy|
	IMPORT	|memset|
	IMPORT	|memcpy|
	IMPORT	|AuPmmngrAlloc|
	IMPORT	|AuPmmngrFree|
	IMPORT	|P2V|
	IMPORT	|V2P|
	IMPORT	|AuCredCheckPermissions|
	IMPORT	|AuTextOut|

	AREA	|.pdata|, PDATA
|$pdata$OpenFile| DCD imagerel |$LN18|
	DCD	0x6a0023d
	;Flags[SingleProEpi] functionLength[572] RegF[0] RegI[0] H[0] frameChainReturn[UnChainedSavedLR] frameSize[208]
|$pdata$ReadFile| DCD imagerel |$LN17|
	DCD	0x3200255
	;Flags[SingleProEpi] functionLength[596] RegF[0] RegI[0] H[0] frameChainReturn[UnChainedSavedLR] frameSize[96]
|$pdata$WriteFile| DCD imagerel |$LN17|
	DCD	0x320027d
	;Flags[SingleProEpi] functionLength[636] RegF[0] RegI[0] H[0] frameChainReturn[UnChainedSavedLR] frameSize[96]
|$pdata$CloseFile| DCD imagerel |$LN13|
	DCD	0x1a0021d
	;Flags[SingleProEpi] functionLength[540] RegF[0] RegI[0] H[0] frameChainReturn[UnChainedSavedLR] frameSize[48]
|$pdata$FileIoControl| DCD imagerel |$LN8|
	DCD	0x22000e5
	;Flags[SingleProEpi] functionLength[228] RegF[0] RegI[0] H[0] frameChainReturn[UnChainedSavedLR] frameSize[64]
|$pdata$FileStat| DCD imagerel |$LN8|
	DCD	0x220016d
	;Flags[SingleProEpi] functionLength[364] RegF[0] RegI[0] H[0] frameChainReturn[UnChainedSavedLR] frameSize[64]
|$pdata$OpenDir| DCD imagerel |$LN10|
	DCD	0x2200125
	;Flags[SingleProEpi] functionLength[292] RegF[0] RegI[0] H[0] frameChainReturn[UnChainedSavedLR] frameSize[64]
|$pdata$ReadDir| DCD imagerel |$LN11|
	DCD	0x2a00135
	;Flags[SingleProEpi] functionLength[308] RegF[0] RegI[0] H[0] frameChainReturn[UnChainedSavedLR] frameSize[80]
|$pdata$ProcessGetFileDesc| DCD imagerel |$LN11|
	DCD	0x22000e9
	;Flags[SingleProEpi] functionLength[232] RegF[0] RegI[0] H[0] frameChainReturn[UnChainedSavedLR] frameSize[64]
|$pdata$FileSetOffset| DCD imagerel |$LN10|
	DCD	0x2a00171
	;Flags[SingleProEpi] functionLength[368] RegF[0] RegI[0] H[0] frameChainReturn[UnChainedSavedLR] frameSize[80]

	AREA	|.data|, DATA
|$SG3927| DCB	"[aurora]: file : %s is not accessible to this user with "
	DCB	"uid : %d ", 0xd, 0xa, 0x0
|$SG3955| DCB	"/", 0x0
	%	2
|$SG3937| DCB	"Opening file -> %s ", 0xd, 0xa, 0x0
; Function compile flags: /Odtpy
; File C:\Users\paras\source\repos\grep-name\XenevaOS\KernelAA64\Serv\fileserv.c

	AREA	|.text$mn|, CODE, ARM64

|FileSetOffset| PROC

; 115  : int FileSetOffset(int fd, size_t offset) {

|$LN10|
	str         lr,[sp,#-0x10]!
	sub         sp,sp,#0x40
	str         w0,[sp]
	str         x1,[sp,#0x28]

; 116  : 	AA64Thread* current_thr = AuGetCurrentThread();

	bl          AuGetCurrentThread
	str         x0,[sp,#0x18]

; 117  : 	if (!current_thr)

	ldr         x8,[sp,#0x18]
	cmp         x8,#0
	bne         |$LN2@FileSetOff|

; 118  : 		return -1;

	mov         w0,#-1
	b           |$LN1@FileSetOff|
|$LN2@FileSetOff|

; 119  : 	AuProcess* current_proc = AuProcessFindThread(current_thr);

	ldr         x0,[sp,#0x18]
	bl          AuProcessFindThread
	str         x0,[sp,#0x10]

; 120  : 	if (!current_proc) {

	ldr         x8,[sp,#0x10]
	cmp         x8,#0
	bne         |$LN3@FileSetOff|

; 121  : 		current_proc = AuProcessFindSubThread(current_thr);

	ldr         x0,[sp,#0x18]
	bl          AuProcessFindSubThread
	str         x0,[sp,#0x10]

; 122  : 		if (!current_proc)

	ldr         x8,[sp,#0x10]
	cmp         x8,#0
	bne         |$LN4@FileSetOff|

; 123  : 			return -1;

	mov         w0,#-1
	b           |$LN1@FileSetOff|
|$LN4@FileSetOff|
|$LN3@FileSetOff|

; 124  : 	}
; 125  : 
; 126  : 	AuVFSNode* file = current_proc->fds[fd];

	ldr         x8,[sp,#0x10]
	add         x10,x8,#0x248
	ldr         w8,[sp]
	sxtw        x9,w8
	mov         x8,#8
	mul         x8,x9,x8
	add         x8,x10,x8
	ldr         x8,[x8]
	str         x8,[sp,#8]

; 127  : 	if (!file)

	ldr         x8,[sp,#8]
	cmp         x8,#0
	bne         |$LN5@FileSetOff|

; 128  : 		return -1;

	mov         w0,#-1
	b           |$LN1@FileSetOff|
|$LN5@FileSetOff|

; 129  : 	if (!((file->flags & FS_FLAG_FILE_SYSTEM) || (file->flags & FS_FLAG_DEVICE) || (file->flags & FS_FLAG_PIPE)

	ldr         x8,[sp,#8]
	add         x8,x8,#0x40
	ldrh        w8,[x8]
	mov         w8,w8
	tbnz        x8,#6,|$LN6@FileSetOff|
	ldr         x8,[sp,#8]
	add         x8,x8,#0x40
	ldrh        w8,[x8]
	mov         w8,w8
	tbnz        x8,#3,|$LN6@FileSetOff|
	ldr         x8,[sp,#8]
	add         x8,x8,#0x40
	ldrh        w8,[x8]
	mov         w8,w8
	tbnz        x8,#7,|$LN6@FileSetOff|
	ldr         x8,[sp,#8]
	add         x8,x8,#0x40
	ldrh        w8,[x8]
	mov         w8,w8
	tbnz        x8,#1,|$LN6@FileSetOff|
	ldr         x8,[sp,#8]
	add         x8,x8,#0x40
	ldrh        w8,[x8]
	mov         w8,w8
	tbnz        x8,#8,|$LN6@FileSetOff|

; 130  : 		|| (file->flags & FS_FLAG_DIRECTORY) || (file->flags & FS_FLAG_TTY))) {
; 131  : 		AuVFSNode* fsys = AuVFSFind("/");

	adrp        x8,|$SG3955|
	add         x0,x8,PageOffset(|$SG3955|)
	bl          AuVFSFind
	str         x0,[sp,#0x20]

; 132  : 		if (!fsys)

	ldr         x8,[sp,#0x20]
	cmp         x8,#0
	bne         |$LN8@FileSetOff|

; 133  : 			return -1;

	mov         w0,#-1
	b           |$LN1@FileSetOff|
|$LN8@FileSetOff|

; 134  : 		size_t block = AuVFSGetBlockFor(fsys, file, offset);

	ldr         x2,[sp,#0x28]
	ldr         x1,[sp,#8]
	ldr         x0,[sp,#0x20]
	bl          AuVFSGetBlockFor
	str         x0,[sp,#0x30]

; 135  : 		//UARTDebugOut("FileSetOffset: block : %x \n", block);
; 136  : 		file->current = block;

	ldr         x8,[sp,#8]
	add         x9,x8,#0x38
	ldr         x8,[sp,#0x30]
	str         x8,[x9]

; 137  : 	}

	b           |$LN7@FileSetOff|
|$LN6@FileSetOff|

; 138  : 	else
; 139  : 		file->pos = offset;

	ldr         x8,[sp,#8]
	add         x9,x8,#0x28
	ldr         x8,[sp,#0x28]
	mov         w8,w8
	str         w8,[x9]
|$LN7@FileSetOff|

; 140  : 
; 141  : 	return 0;

	mov         w0,#0
|$LN1@FileSetOff|
	add         sp,sp,#0x40
	ldr         lr,[sp],#0x10
	ret

	ENDP  ; |FileSetOffset|

; Function compile flags: /Odtpy
; File C:\Users\paras\source\repos\grep-name\XenevaOS\KernelAA64\Serv\fileserv.c

	AREA	|.text$mn|, CODE, ARM64

|ProcessGetFileDesc| PROC

; 444  : int ProcessGetFileDesc(const char* filename) {

|$LN11|
	str         lr,[sp,#-0x10]!
	sub         sp,sp,#0x30
	str         x0,[sp,#0x20]

; 445  : 	AA64Thread* thr = AuGetCurrentThread();

	bl          AuGetCurrentThread
	str         x0,[sp,#0x10]

; 446  : 	if (!thr)

	ldr         x8,[sp,#0x10]
	cmp         x8,#0
	bne         |$LN5@ProcessGet|

; 447  : 		return -1;

	mov         w0,#-1
	b           |$LN1@ProcessGet|
|$LN5@ProcessGet|

; 448  : 	AuProcess* currproc = AuProcessFindThread(thr);

	ldr         x0,[sp,#0x10]
	bl          AuProcessFindThread
	str         x0,[sp,#8]

; 449  : 	if (!currproc) {

	ldr         x8,[sp,#8]
	cmp         x8,#0
	bne         |$LN6@ProcessGet|

; 450  : 		currproc = AuProcessFindSubThread(thr);

	ldr         x0,[sp,#0x10]
	bl          AuProcessFindSubThread
	str         x0,[sp,#8]

; 451  : 		if (!currproc)

	ldr         x8,[sp,#8]
	cmp         x8,#0
	bne         |$LN7@ProcessGet|

; 452  : 			return -1;

	mov         w0,#-1
	b           |$LN1@ProcessGet|
|$LN7@ProcessGet|
|$LN6@ProcessGet|

; 453  : 	}
; 454  : 	for (int i = 0; i < FILE_DESC_PER_PROCESS; i++) {

	mov         w8,#0
	str         w8,[sp]
	b           |$LN4@ProcessGet|
|$LN2@ProcessGet|
	ldr         w8,[sp]
	add         w8,w8,#1
	str         w8,[sp]
|$LN4@ProcessGet|
	ldr         w8,[sp]
	cmp         w8,#0x3C
	bge         |$LN3@ProcessGet|

; 455  : 		AuVFSNode* file = currproc->fds[i];

	ldr         x8,[sp,#8]
	add         x10,x8,#0x248
	ldr         w8,[sp]
	sxtw        x9,w8
	mov         x8,#8
	mul         x8,x9,x8
	add         x8,x10,x8
	ldr         x8,[x8]
	str         x8,[sp,#0x18]

; 456  : 		if (file) {

	ldr         x8,[sp,#0x18]
	cmp         x8,#0
	beq         |$LN8@ProcessGet|

; 457  : 			if (strcmp(filename, file->filename) == 0) {

	ldr         x1,[sp,#0x18]
	ldr         x0,[sp,#0x20]
	bl          strcmp
	mov         w0,w0
	cmp         w0,#0
	bne         |$LN9@ProcessGet|

; 458  : 				return i;

	ldr         w0,[sp]
	b           |$LN1@ProcessGet|
|$LN9@ProcessGet|
|$LN8@ProcessGet|

; 459  : 			}
; 460  : 		}
; 461  : 	}

	b           |$LN2@ProcessGet|
|$LN3@ProcessGet|

; 462  : 
; 463  : 	return -1;

	mov         w0,#-1
|$LN1@ProcessGet|
	add         sp,sp,#0x30
	ldr         lr,[sp],#0x10
	ret

	ENDP  ; |ProcessGetFileDesc|

; Function compile flags: /Odtpy
; File C:\Users\paras\source\repos\grep-name\XenevaOS\KernelAA64\Serv\fileserv.c

	AREA	|.text$mn|, CODE, ARM64

|ReadDir| PROC

; 410  : int ReadDir(int dirfd, void* dirent) {

|$LN11|
	str         lr,[sp,#-0x10]!
	sub         sp,sp,#0x40
	str         w0,[sp]
	str         x1,[sp,#0x28]

; 411  : 	if (!dirent)

	ldr         x8,[sp,#0x28]
	cmp         x8,#0
	bne         |$LN2@ReadDir|

; 412  : 		return -1;

	mov         w0,#-1
	b           |$LN1@ReadDir|
|$LN2@ReadDir|

; 413  : 	if (dirfd == -1)

	ldr         w8,[sp]
	cmn         w8,#1
	bne         |$LN3@ReadDir|

; 414  : 		return -1;

	mov         w0,#-1
	b           |$LN1@ReadDir|
|$LN3@ReadDir|

; 415  : 
; 416  : 	AA64Thread* current_thr = AuGetCurrentThread();

	bl          AuGetCurrentThread
	str         x0,[sp,#0x18]

; 417  : 	if (!current_thr) {

	ldr         x8,[sp,#0x18]
	cmp         x8,#0
	bne         |$LN4@ReadDir|

; 418  : 		return 0;

	mov         w0,#0
	b           |$LN1@ReadDir|
|$LN4@ReadDir|

; 419  : 	}
; 420  : 	AuProcess* current_proc = AuProcessFindThread(current_thr);

	ldr         x0,[sp,#0x18]
	bl          AuProcessFindThread
	str         x0,[sp,#8]

; 421  : 	if (!current_proc) {

	ldr         x8,[sp,#8]
	cmp         x8,#0
	bne         |$LN5@ReadDir|

; 422  : 		current_proc = AuProcessFindSubThread(current_thr);

	ldr         x0,[sp,#0x18]
	bl          AuProcessFindSubThread
	str         x0,[sp,#8]

; 423  : 		if (!current_proc)

	ldr         x8,[sp,#8]
	cmp         x8,#0
	bne         |$LN6@ReadDir|

; 424  : 			return 0;

	mov         w0,#0
	b           |$LN1@ReadDir|
|$LN6@ReadDir|
|$LN5@ReadDir|

; 425  : 	}
; 426  : 
; 427  : 	AuDirectoryEntry* dire_ = (AuDirectoryEntry*)dirent;

	ldr         x8,[sp,#0x28]
	str         x8,[sp,#0x30]

; 428  : 
; 429  : 	AuVFSNode* dirfile = current_proc->fds[dirfd];

	ldr         x8,[sp,#8]
	add         x10,x8,#0x248
	ldr         w8,[sp]
	sxtw        x9,w8
	mov         x8,#8
	mul         x8,x9,x8
	add         x8,x10,x8
	ldr         x8,[x8]
	str         x8,[sp,#0x20]

; 430  : 	if (!dirfile)

	ldr         x8,[sp,#0x20]
	cmp         x8,#0
	bne         |$LN7@ReadDir|

; 431  : 		return -1;

	mov         w0,#-1
	b           |$LN1@ReadDir|
|$LN7@ReadDir|

; 432  : 	AuVFSNode* fsys = (AuVFSNode*)dirfile->device;

	ldr         x8,[sp,#0x20]
	add         x8,x8,#0x50
	ldr         x8,[x8]
	str         x8,[sp,#0x10]

; 433  : 	if (!fsys)

	ldr         x8,[sp,#0x10]
	cmp         x8,#0
	bne         |$LN8@ReadDir|

; 434  : 		return -1;

	mov         w0,#-1
	b           |$LN1@ReadDir|
|$LN8@ReadDir|

; 435  : 	if (fsys->read_dir)

	ldr         x8,[sp,#0x10]
	add         x8,x8,#0xB0
	ldr         x8,[x8]
	cmp         x8,#0
	beq         |$LN9@ReadDir|

; 436  : 		return fsys->read_dir(fsys, dirfile, dire_);

	ldr         x8,[sp,#0x10]
	add         x8,x8,#0xB0
	ldr         x2,[sp,#0x30]
	ldr         x1,[sp,#0x20]
	ldr         x0,[sp,#0x10]
	ldr         x8,[x8]
	blr         x8
	mov         w0,w0
	mov         w0,w0
|$LN9@ReadDir|
|$LN1@ReadDir|
	add         sp,sp,#0x40
	ldr         lr,[sp],#0x10
	ret

	ENDP  ; |ReadDir|

; Function compile flags: /Odtpy
; File C:\Users\paras\source\repos\grep-name\XenevaOS\KernelAA64\Serv\fileserv.c

	AREA	|.text$mn|, CODE, ARM64

|OpenDir| PROC

; 375  : int OpenDir(char* filename) {

|$LN10|
	str         lr,[sp,#-0x10]!
	sub         sp,sp,#0x30
	str         x0,[sp,#0x28]

; 376  : 	AA64Thread* current_thr = AuGetCurrentThread();

	bl          AuGetCurrentThread
	str         x0,[sp,#0x18]

; 377  : 	if (!current_thr) {

	ldr         x8,[sp,#0x18]
	cmp         x8,#0
	bne         |$LN2@OpenDir|

; 378  : 		return -1;

	mov         w0,#-1
	b           |$LN1@OpenDir|
|$LN2@OpenDir|

; 379  : 	}
; 380  : 	AuProcess* current_proc = AuProcessFindThread(current_thr);

	ldr         x0,[sp,#0x18]
	bl          AuProcessFindThread
	str         x0,[sp,#8]

; 381  : 	if (!current_proc) {

	ldr         x8,[sp,#8]
	cmp         x8,#0
	bne         |$LN3@OpenDir|

; 382  : 		current_proc = AuProcessFindSubThread(current_thr);

	ldr         x0,[sp,#0x18]
	bl          AuProcessFindSubThread
	str         x0,[sp,#8]

; 383  : 		if (!current_proc)

	ldr         x8,[sp,#8]
	cmp         x8,#0
	bne         |$LN4@OpenDir|

; 384  : 			return -1;

	mov         w0,#-1
	b           |$LN1@OpenDir|
|$LN4@OpenDir|
|$LN3@OpenDir|

; 385  : 	}
; 386  : 
; 387  : 	AuVFSNode* fsys = AuVFSFind(filename);

	ldr         x0,[sp,#0x28]
	bl          AuVFSFind
	str         x0,[sp,#0x10]

; 388  : 	AuVFSNode* dirfile = NULL;

	mov         x8,#0
	str         x8,[sp,#0x20]

; 389  : 	if (!fsys)

	ldr         x8,[sp,#0x10]
	cmp         x8,#0
	bne         |$LN5@OpenDir|

; 390  : 		return -1;

	mov         w0,#-1
	b           |$LN1@OpenDir|
|$LN5@OpenDir|

; 391  : 	if (fsys->opendir)

	ldr         x8,[sp,#0x10]
	add         x8,x8,#0x68
	ldr         x8,[x8]
	cmp         x8,#0
	beq         |$LN6@OpenDir|

; 392  : 		dirfile = fsys->opendir(fsys, filename);

	ldr         x8,[sp,#0x10]
	add         x8,x8,#0x68
	ldr         x1,[sp,#0x28]
	ldr         x0,[sp,#0x10]
	ldr         x8,[x8]
	blr         x8
	str         x0,[sp,#0x20]
|$LN6@OpenDir|

; 393  : 
; 394  : 	if (!dirfile)

	ldr         x8,[sp,#0x20]
	cmp         x8,#0
	bne         |$LN7@OpenDir|

; 395  : 		return -1;

	mov         w0,#-1
	b           |$LN1@OpenDir|
|$LN7@OpenDir|

; 396  : 
; 397  : 	int fd = AuProcessGetFileDesc(current_proc);

	ldr         x0,[sp,#8]
	bl          AuProcessGetFileDesc
	mov         w0,w0
	str         w0,[sp]

; 398  : 	if (fd == -1)

	ldr         w8,[sp]
	cmn         w8,#1
	bne         |$LN8@OpenDir|

; 399  : 		return -1;

	mov         w0,#-1
	b           |$LN1@OpenDir|
|$LN8@OpenDir|

; 400  : 
; 401  : 	current_proc->fds[fd] = dirfile;

	ldr         x8,[sp,#8]
	add         x10,x8,#0x248
	ldr         w8,[sp]
	sxtw        x9,w8
	mov         x8,#8
	mul         x8,x9,x8
	add         x9,x10,x8
	ldr         x8,[sp,#0x20]
	str         x8,[x9]

; 402  : 	return fd;

	ldr         w0,[sp]
|$LN1@OpenDir|
	add         sp,sp,#0x30
	ldr         lr,[sp],#0x10
	ret

	ENDP  ; |OpenDir|

; Function compile flags: /Odtpy
; File C:\Users\paras\source\repos\grep-name\XenevaOS\KernelAA64\Serv\fileserv.c

	AREA	|.text$mn|, CODE, ARM64

|FileStat| PROC

; 342  : int FileStat(int fd, void* buf) {

|$LN8|
	str         lr,[sp,#-0x10]!
	sub         sp,sp,#0x30
	str         w0,[sp]
	str         x1,[sp,#0x28]

; 343  : 	if (fd == -1)

	ldr         w8,[sp]
	cmn         w8,#1
	bne         |$LN2@FileStat|

; 344  : 		return -1;

	mov         w0,#-1
	b           |$LN1@FileStat|
|$LN2@FileStat|

; 345  : 	AA64Thread* current_thr = AuGetCurrentThread();

	bl          AuGetCurrentThread
	str         x0,[sp,#0x20]

; 346  : 	if (!current_thr) {

	ldr         x8,[sp,#0x20]
	cmp         x8,#0
	bne         |$LN3@FileStat|

; 347  : 		return 0;

	mov         w0,#0
	b           |$LN1@FileStat|
|$LN3@FileStat|

; 348  : 	}
; 349  : 	AuProcess* current_proc = AuProcessFindThread(current_thr);

	ldr         x0,[sp,#0x20]
	bl          AuProcessFindThread
	str         x0,[sp,#0x18]

; 350  : 	if (!current_proc) {

	ldr         x8,[sp,#0x18]
	cmp         x8,#0
	bne         |$LN4@FileStat|

; 351  : 		current_proc = AuProcessFindSubThread(current_thr);

	ldr         x0,[sp,#0x20]
	bl          AuProcessFindSubThread
	str         x0,[sp,#0x18]

; 352  : 		if (!current_proc)

	ldr         x8,[sp,#0x18]
	cmp         x8,#0
	bne         |$LN5@FileStat|

; 353  : 			return 0;

	mov         w0,#0
	b           |$LN1@FileStat|
|$LN5@FileStat|
|$LN4@FileStat|

; 354  : 	}
; 355  : 	AuVFSNode* file = current_proc->fds[fd];

	ldr         x8,[sp,#0x18]
	add         x10,x8,#0x248
	ldr         w8,[sp]
	sxtw        x9,w8
	mov         x8,#8
	mul         x8,x9,x8
	add         x8,x10,x8
	ldr         x8,[x8]
	str         x8,[sp,#0x10]

; 356  : 	if (!file)

	ldr         x8,[sp,#0x10]
	cmp         x8,#0
	bne         |$LN6@FileStat|

; 357  : 		return -1;

	mov         w0,#-1
	b           |$LN1@FileStat|
|$LN6@FileStat|

; 358  : 
; 359  : 	AuFileStatus* status = (AuFileStatus*)buf;

	ldr         x8,[sp,#0x28]
	str         x8,[sp,#8]

; 360  : 	status->current_block = file->current;

	ldr         x8,[sp,#0x10]
	add         x10,x8,#0x38
	ldr         x8,[sp,#8]
	add         x9,x8,#0x10
	ldr         x8,[x10]
	mov         w8,w8
	str         w8,[x9]

; 361  : 	status->size = file->size;

	ldr         x8,[sp,#0x10]
	add         x10,x8,#0x20
	ldr         x8,[sp,#8]
	add         x9,x8,#8
	ldr         w8,[x10]
	uxtw        x8,w8
	str         x8,[x9]

; 362  : 	status->filemode = file->flags;

	ldr         x8,[sp,#0x10]
	add         x8,x8,#0x40
	ldr         x9,[sp,#8]
	ldrh        w8,[x8]
	uxtb        w8,w8
	strb        w8,[x9]

; 363  : 	status->eof = file->eof;

	ldr         x8,[sp,#0x10]
	add         x10,x8,#0x24
	ldr         x8,[sp,#8]
	add         x9,x8,#0x24
	ldrb        w8,[x10]
	strb        w8,[x9]

; 364  : 	status->start_block = file->first_block;

	ldr         x8,[sp,#0x10]
	add         x10,x8,#0x30
	ldr         x8,[sp,#8]
	add         x9,x8,#0x14
	ldr         x8,[x10]
	mov         w8,w8
	str         w8,[x9]

; 365  : 	status->user_id = 0;

	ldr         x8,[sp,#8]
	add         x9,x8,#0x18
	mov         w8,#0
	str         w8,[x9]

; 366  : 	status->group_id = 0;

	ldr         x8,[sp,#8]
	add         x9,x8,#0x1C
	mov         w8,#0
	str         w8,[x9]

; 367  : 	return 0;

	mov         w0,#0
|$LN1@FileStat|
	add         sp,sp,#0x30
	ldr         lr,[sp],#0x10
	ret

	ENDP  ; |FileStat|

; Function compile flags: /Odtpy
; File C:\Users\paras\source\repos\grep-name\XenevaOS\KernelAA64\Serv\fileserv.c

	AREA	|.text$mn|, CODE, ARM64

|FileIoControl| PROC

; 314  : int FileIoControl(int fd, int code, void* arg) {

|$LN8|
	str         lr,[sp,#-0x10]!
	sub         sp,sp,#0x30
	str         w0,[sp]
	str         w1,[sp,#8]
	str         x2,[sp,#0x28]

; 315  : 	if (fd == -1)

	ldr         w8,[sp]
	cmn         w8,#1
	bne         |$LN2@FileIoCont|

; 316  : 		return -1;

	mov         w0,#-1
	b           |$LN1@FileIoCont|
|$LN2@FileIoCont|

; 317  : 	AA64Thread* current_thr = AuGetCurrentThread();

	bl          AuGetCurrentThread
	str         x0,[sp,#0x18]

; 318  : 	if (!current_thr)

	ldr         x8,[sp,#0x18]
	cmp         x8,#0
	bne         |$LN3@FileIoCont|

; 319  : 		return 0;

	mov         w0,#0
	b           |$LN1@FileIoCont|
|$LN3@FileIoCont|

; 320  : 	AuProcess* current_proc = AuProcessFindThread(current_thr);

	ldr         x0,[sp,#0x18]
	bl          AuProcessFindThread
	str         x0,[sp,#0x10]

; 321  : 	if (!current_proc) {

	ldr         x8,[sp,#0x10]
	cmp         x8,#0
	bne         |$LN4@FileIoCont|

; 322  : 		current_proc = AuProcessFindSubThread(current_thr);

	ldr         x0,[sp,#0x18]
	bl          AuProcessFindSubThread
	str         x0,[sp,#0x10]

; 323  : 		if (!current_proc)

	ldr         x8,[sp,#0x10]
	cmp         x8,#0
	bne         |$LN5@FileIoCont|

; 324  : 			return 0;

	mov         w0,#0
	b           |$LN1@FileIoCont|
|$LN5@FileIoCont|
|$LN4@FileIoCont|

; 325  : 	}
; 326  : 	AuVFSNode* file = current_proc->fds[fd];

	ldr         x8,[sp,#0x10]
	add         x10,x8,#0x248
	ldr         w8,[sp]
	sxtw        x9,w8
	mov         x8,#8
	mul         x8,x9,x8
	add         x8,x10,x8
	ldr         x8,[x8]
	str         x8,[sp,#0x20]

; 327  : 
; 328  : 	if (!file)

	ldr         x8,[sp,#0x20]
	cmp         x8,#0
	bne         |$LN6@FileIoCont|

; 329  : 		return -1;

	mov         w0,#-1
	b           |$LN1@FileIoCont|
|$LN6@FileIoCont|

; 330  : 
; 331  : 	int ret = 0;

	mov         w8,#0
	str         w8,[sp,#4]

; 332  : 	ret = AuVFSNodeIOControl(file, code, arg);

	ldr         x2,[sp,#0x28]
	ldr         w1,[sp,#8]
	ldr         x0,[sp,#0x20]
	bl          AuVFSNodeIOControl
	mov         w0,w0
	str         w0,[sp,#4]

; 333  : 	return ret;

	ldr         w0,[sp,#4]
|$LN1@FileIoCont|
	add         sp,sp,#0x30
	ldr         lr,[sp],#0x10
	ret

	ENDP  ; |FileIoControl|

; Function compile flags: /Odtpy
; File C:\Users\paras\source\repos\grep-name\XenevaOS\KernelAA64\Serv\fileserv.c

	AREA	|.text$mn|, CODE, ARM64

|CloseFile| PROC

; 261  : int CloseFile(int fd) {

|$LN13|
	str         lr,[sp,#-0x10]!
	sub         sp,sp,#0x20
	str         w0,[sp]

; 262  : 	if (fd == -1)

	ldr         w8,[sp]
	cmn         w8,#1
	bne         |$LN2@CloseFile|

; 263  : 		return 0;

	mov         w0,#0
	b           |$LN1@CloseFile|
|$LN2@CloseFile|

; 264  : 	AA64Thread* current_thr = AuGetCurrentThread();

	bl          AuGetCurrentThread
	str         x0,[sp,#0x18]

; 265  : 	if (!current_thr)

	ldr         x8,[sp,#0x18]
	cmp         x8,#0
	bne         |$LN3@CloseFile|

; 266  : 		return 0;

	mov         w0,#0
	b           |$LN1@CloseFile|
|$LN3@CloseFile|

; 267  : 	AuProcess* current_proc = AuProcessFindThread(current_thr);

	ldr         x0,[sp,#0x18]
	bl          AuProcessFindThread
	str         x0,[sp,#0x10]

; 268  : 	if (!current_proc) {

	ldr         x8,[sp,#0x10]
	cmp         x8,#0
	bne         |$LN4@CloseFile|

; 269  : 		current_proc = AuProcessFindSubThread(current_thr);

	ldr         x0,[sp,#0x18]
	bl          AuProcessFindSubThread
	str         x0,[sp,#0x10]

; 270  : 		if (!current_proc)

	ldr         x8,[sp,#0x10]
	cmp         x8,#0
	bne         |$LN5@CloseFile|

; 271  : 			return 0;

	mov         w0,#0
	b           |$LN1@CloseFile|
|$LN5@CloseFile|
|$LN4@CloseFile|

; 272  : 	}
; 273  : 
; 274  : 	AuVFSNode* file = current_proc->fds[fd];

	ldr         x8,[sp,#0x10]
	add         x10,x8,#0x248
	ldr         w8,[sp]
	sxtw        x9,w8
	mov         x8,#8
	mul         x8,x9,x8
	add         x8,x10,x8
	ldr         x8,[x8]
	str         x8,[sp,#8]

; 275  : 	if (file->flags & FS_FLAG_FILE_SYSTEM) {

	ldr         x8,[sp,#8]
	add         x8,x8,#0x40
	ldrh        w8,[x8]
	mov         w8,w8
	tbz         x8,#6,|$LN6@CloseFile|

; 276  : 		current_proc->fds[fd] = 0;

	ldr         x8,[sp,#0x10]
	add         x10,x8,#0x248
	ldr         w8,[sp]
	sxtw        x9,w8
	mov         x8,#8
	mul         x8,x9,x8
	add         x9,x10,x8
	mov         x8,#0
	str         x8,[x9]

; 277  : 		return -1;

	mov         w0,#-1
	b           |$LN1@CloseFile|
|$LN6@CloseFile|

; 278  : 	}
; 279  : 
; 280  : 	if (file->flags & FS_FLAG_CACHED) {

	ldr         x8,[sp,#8]
	add         x8,x8,#0x40
	ldrh        w8,[x8]
	mov         w8,w8
	tbz         x8,#0xB,|$LN7@CloseFile|

; 281  : 		current_proc->fds[fd] = 0;

	ldr         x8,[sp,#0x10]
	add         x10,x8,#0x248
	ldr         w8,[sp]
	sxtw        x9,w8
	mov         x8,#8
	mul         x8,x9,x8
	add         x9,x10,x8
	mov         x8,#0
	str         x8,[x9]

; 282  : 		return 0;

	mov         w0,#0
	b           |$LN1@CloseFile|
|$LN7@CloseFile|

; 283  : 	}
; 284  : 	if (file->flags & FS_FLAG_GENERAL) {

	ldr         x8,[sp,#8]
	add         x8,x8,#0x40
	ldrh        w8,[x8]
	mov         w8,w8
	tbz         x8,#2,|$LN8@CloseFile|

; 285  : 		current_proc->fds[fd] = 0;

	ldr         x8,[sp,#0x10]
	add         x10,x8,#0x248
	ldr         w8,[sp]
	sxtw        x9,w8
	mov         x8,#8
	mul         x8,x9,x8
	add         x9,x10,x8
	mov         x8,#0
	str         x8,[x9]

; 286  : 		/** NEED to fix, freeing the file causes crash **/
; 287  : 		kfree(file);

	ldr         x0,[sp,#8]
	bl          kfree

; 288  : 		return 0;

	mov         w0,#0
	b           |$LN1@CloseFile|
|$LN8@CloseFile|

; 289  : 	}
; 290  : 
; 291  : 
; 292  : 	if (file->flags & FS_FLAG_DIRECTORY) {

	ldr         x8,[sp,#8]
	add         x8,x8,#0x40
	ldrh        w8,[x8]
	mov         w8,w8
	tbz         x8,#1,|$LN9@CloseFile|

; 293  : 		current_proc->fds[fd] = 0;

	ldr         x8,[sp,#0x10]
	add         x10,x8,#0x248
	ldr         w8,[sp]
	sxtw        x9,w8
	mov         x8,#8
	mul         x8,x9,x8
	add         x9,x10,x8
	mov         x8,#0
	str         x8,[x9]

; 294  : 		kfree(file);

	ldr         x0,[sp,#8]
	bl          kfree

; 295  : 		return 0;

	mov         w0,#0
	b           |$LN1@CloseFile|
|$LN9@CloseFile|

; 296  : 	}
; 297  : 
; 298  : 	if (file->flags & FS_FLAG_PIPE) {

	ldr         x8,[sp,#8]
	add         x8,x8,#0x40
	ldrh        w8,[x8]
	mov         w8,w8
	tbz         x8,#7,|$LN10@CloseFile|

; 299  : 		if (file->close)

	ldr         x8,[sp,#8]
	add         x8,x8,#0xA0
	ldr         x8,[x8]
	cmp         x8,#0
	beq         |$LN11@CloseFile|

; 300  : 			file->close(file, file);

	ldr         x8,[sp,#8]
	add         x8,x8,#0xA0
	ldr         x1,[sp,#8]
	ldr         x0,[sp,#8]
	ldr         x8,[x8]
	blr         x8
|$LN11@CloseFile|

; 301  : 		current_proc->fds[fd] = 0;

	ldr         x8,[sp,#0x10]
	add         x10,x8,#0x248
	ldr         w8,[sp]
	sxtw        x9,w8
	mov         x8,#8
	mul         x8,x9,x8
	add         x9,x10,x8
	mov         x8,#0
	str         x8,[x9]

; 302  : 		return 0;

	mov         w0,#0
|$LN10@CloseFile|
|$LN1@CloseFile|
	add         sp,sp,#0x20
	ldr         lr,[sp],#0x10
	ret

	ENDP  ; |CloseFile|

; Function compile flags: /Odtpy
; File C:\Users\paras\source\repos\grep-name\XenevaOS\KernelAA64\Serv\fileserv.c

	AREA	|.text$mn|, CODE, ARM64

|WriteFile| PROC

; 207  : size_t WriteFile(int fd, void* buffer, size_t length) {

|$LN17|
	str         lr,[sp,#-0x10]!
	sub         sp,sp,#0x50
	str         w0,[sp,#8]
	str         x1,[sp,#0x18]
	str         x2,[sp,#0x10]

; 208  : 	if (fd == -1)

	ldr         w8,[sp,#8]
	cmn         w8,#1
	bne         |$LN2@WriteFile|

; 209  : 		return 0;

	mov         x0,#0
	b           |$LN1@WriteFile|
|$LN2@WriteFile|

; 210  : 	if (!buffer)

	ldr         x8,[sp,#0x18]
	cmp         x8,#0
	bne         |$LN3@WriteFile|

; 211  : 		return 0;

	mov         x0,#0
	b           |$LN1@WriteFile|
|$LN3@WriteFile|

; 212  : 	if (!length)

	ldr         x8,[sp,#0x10]
	cmp         x8,#0
	bne         |$LN4@WriteFile|

; 213  : 		return 0;

	mov         x0,#0
	b           |$LN1@WriteFile|
|$LN4@WriteFile|

; 214  : 	AA64Thread* current_thr = AuGetCurrentThread();

	bl          AuGetCurrentThread
	str         x0,[sp,#0x30]

; 215  : 	if (!current_thr)

	ldr         x8,[sp,#0x30]
	cmp         x8,#0
	bne         |$LN5@WriteFile|

; 216  : 		return 0;

	mov         x0,#0
	b           |$LN1@WriteFile|
|$LN5@WriteFile|

; 217  : 	AuProcess* current_proc = AuProcessFindThread(current_thr);

	ldr         x0,[sp,#0x30]
	bl          AuProcessFindThread
	str         x0,[sp,#0x20]

; 218  : 	if (!current_proc) {

	ldr         x8,[sp,#0x20]
	cmp         x8,#0
	bne         |$LN6@WriteFile|

; 219  : 		current_proc = AuProcessFindSubThread(current_thr);

	ldr         x0,[sp,#0x30]
	bl          AuProcessFindSubThread
	str         x0,[sp,#0x20]

; 220  : 		if (!current_proc)

	ldr         x8,[sp,#0x20]
	cmp         x8,#0
	bne         |$LN7@WriteFile|

; 221  : 			return 0;

	mov         x0,#0
	b           |$LN1@WriteFile|
|$LN7@WriteFile|
|$LN6@WriteFile|

; 222  : 	}
; 223  : 	AuVFSNode* file = current_proc->fds[fd];

	ldr         x8,[sp,#0x20]
	add         x10,x8,#0x248
	ldr         w8,[sp,#8]
	sxtw        x9,w8
	mov         x8,#8
	mul         x8,x9,x8
	add         x8,x10,x8
	ldr         x8,[x8]
	str         x8,[sp]

; 224  : 	uint8_t* aligned_buffer = (uint8_t*)buffer;

	ldr         x8,[sp,#0x18]
	str         x8,[sp,#0x40]

; 225  : 	if (!file)

	ldr         x8,[sp]
	cmp         x8,#0
	bne         |$LN8@WriteFile|

; 226  : 		return 0;

	mov         x0,#0
	b           |$LN1@WriteFile|
|$LN8@WriteFile|

; 227  : 	size_t write_bytes = 0;

	mov         x8,#0
	str         x8,[sp,#0x48]

; 228  : 	size_t ret_bytes;
; 229  : 	/* every general file will contain its
; 230  : 	* file system node as device */
; 231  : 	AuVFSNode* fsys = (AuVFSNode*)file->device;

	ldr         x8,[sp]
	add         x8,x8,#0x50
	ldr         x8,[x8]
	str         x8,[sp,#0x38]

; 232  : 
; 233  : 	if (file->flags & FS_FLAG_GENERAL && !(file->flags & FS_FLAG_TTY)) {

	ldr         x8,[sp]
	add         x8,x8,#0x40
	ldrh        w8,[x8]
	mov         w8,w8
	tbz         x8,#2,|$LN9@WriteFile|
	ldr         x8,[sp]
	add         x8,x8,#0x40
	ldrh        w8,[x8]
	mov         w8,w8
	tbnz        x8,#8,|$LN9@WriteFile|

; 234  : 		uint64_t* buff = (uint64_t*)P2V((size_t)AuPmmngrAlloc());

	bl          AuPmmngrAlloc
	bl          P2V
	str         x0,[sp,#0x28]

; 235  : 		memset(buff, 0, PAGE_SIZE);

	mov         w2,#0x1000
	mov         w1,#0
	ldr         x0,[sp,#0x28]
	bl          memset

; 236  : 		memcpy(buff, aligned_buffer, PAGE_SIZE);

	mov         x2,#0x1000
	ldr         x1,[sp,#0x40]
	ldr         x0,[sp,#0x28]
	bl          memcpy

; 237  : 		AuVFSNodeWrite(fsys, file, buff, length);

	ldr         x8,[sp,#0x10]
	mov         w3,w8
	mov         w3,w3
	ldr         x2,[sp,#0x28]
	ldr         x1,[sp]
	ldr         x0,[sp,#0x38]
	bl          AuVFSNodeWrite

; 238  : 		AuPmmngrFree((void*)V2P((size_t)buff));

	ldr         x0,[sp,#0x28]
	bl          V2P
	bl          AuPmmngrFree
|$LN9@WriteFile|

; 239  : 	}
; 240  : 
; 241  : 	if (file->flags & FS_FLAG_TTY) {

	ldr         x8,[sp]
	add         x8,x8,#0x40
	ldrh        w8,[x8]
	mov         w8,w8
	tbz         x8,#8,|$LN10@WriteFile|

; 242  : 		if (file->write)

	ldr         x8,[sp]
	add         x8,x8,#0x78
	ldr         x8,[x8]
	cmp         x8,#0
	beq         |$LN11@WriteFile|

; 243  : 			return file->write(file, file, (uint64_t*)buffer, length);

	ldr         x8,[sp,#0x10]
	mov         w3,w8
	ldr         x8,[sp]
	add         x8,x8,#0x78
	mov         w3,w3
	ldr         x2,[sp,#0x18]
	ldr         x1,[sp]
	ldr         x0,[sp]
	ldr         x8,[x8]
	blr         x8
	b           |$LN1@WriteFile|
|$LN11@WriteFile|
|$LN10@WriteFile|

; 244  : 	}
; 245  : 
; 246  : 	if (file->flags & FS_FLAG_DEVICE) {

	ldr         x8,[sp]
	add         x8,x8,#0x40
	ldrh        w8,[x8]
	mov         w8,w8
	tbz         x8,#3,|$LN12@WriteFile|

; 247  : 		if (file->write) {

	ldr         x8,[sp]
	add         x8,x8,#0x78
	ldr         x8,[x8]
	cmp         x8,#0
	beq         |$LN13@WriteFile|

; 248  : 			return file->write(fsys, file, (uint64_t*)buffer, length);

	ldr         x8,[sp,#0x10]
	mov         w3,w8
	ldr         x8,[sp]
	add         x8,x8,#0x78
	mov         w3,w3
	ldr         x2,[sp,#0x18]
	ldr         x1,[sp]
	ldr         x0,[sp,#0x38]
	ldr         x8,[x8]
	blr         x8
	b           |$LN1@WriteFile|
|$LN13@WriteFile|
|$LN12@WriteFile|

; 249  : 		}
; 250  : 	}
; 251  : 
; 252  : 	if (file->flags & FS_FLAG_PIPE) {

	ldr         x8,[sp]
	add         x8,x8,#0x40
	ldrh        w8,[x8]
	mov         w8,w8
	tbz         x8,#7,|$LN14@WriteFile|

; 253  : 		if (file->write)

	ldr         x8,[sp]
	add         x8,x8,#0x78
	ldr         x8,[x8]
	cmp         x8,#0
	beq         |$LN15@WriteFile|

; 254  : 			return file->write(file, file, (uint64_t*)buffer, length);

	ldr         x8,[sp,#0x10]
	mov         w3,w8
	ldr         x8,[sp]
	add         x8,x8,#0x78
	mov         w3,w3
	ldr         x2,[sp,#0x18]
	ldr         x1,[sp]
	ldr         x0,[sp]
	ldr         x8,[x8]
	blr         x8
|$LN15@WriteFile|
|$LN14@WriteFile|
|$LN1@WriteFile|
	add         sp,sp,#0x50
	ldr         lr,[sp],#0x10
	ret

	ENDP  ; |WriteFile|

; Function compile flags: /Odtpy
; File C:\Users\paras\source\repos\grep-name\XenevaOS\KernelAA64\Serv\fileserv.c

	AREA	|.text$mn|, CODE, ARM64

|ReadFile| PROC

; 150  : size_t ReadFile(int fd, void* buffer, size_t length) {

|$LN17|
	str         lr,[sp,#-0x10]!
	sub         sp,sp,#0x50
	str         w0,[sp,#8]
	str         x1,[sp,#0x28]
	str         x2,[sp,#0x10]

; 151  : 	if (fd == -1)

	ldr         w8,[sp,#8]
	cmn         w8,#1
	bne         |$LN2@ReadFile|

; 152  : 		return 0;

	mov         x0,#0
	b           |$LN1@ReadFile|
|$LN2@ReadFile|

; 153  : 	if (!buffer)

	ldr         x8,[sp,#0x28]
	cmp         x8,#0
	bne         |$LN3@ReadFile|

; 154  : 		return 0;

	mov         x0,#0
	b           |$LN1@ReadFile|
|$LN3@ReadFile|

; 155  : 	if (!length)

	ldr         x8,[sp,#0x10]
	cmp         x8,#0
	bne         |$LN4@ReadFile|

; 156  : 		return 0;

	mov         x0,#0
	b           |$LN1@ReadFile|
|$LN4@ReadFile|

; 157  : 	AA64Thread* current_thr = AuGetCurrentThread();

	bl          AuGetCurrentThread
	str         x0,[sp,#0x30]

; 158  : 	if (!current_thr)

	ldr         x8,[sp,#0x30]
	cmp         x8,#0
	bne         |$LN5@ReadFile|

; 159  : 		return 0;

	mov         x0,#0
	b           |$LN1@ReadFile|
|$LN5@ReadFile|

; 160  : 	AuProcess* current_proc = AuProcessFindThread(current_thr);

	ldr         x0,[sp,#0x30]
	bl          AuProcessFindThread
	str         x0,[sp,#0x20]

; 161  : 	if (!current_proc) {

	ldr         x8,[sp,#0x20]
	cmp         x8,#0
	bne         |$LN6@ReadFile|

; 162  : 		current_proc = AuProcessFindSubThread(current_thr);

	ldr         x0,[sp,#0x30]
	bl          AuProcessFindSubThread
	str         x0,[sp,#0x20]

; 163  : 		if (!current_proc)

	ldr         x8,[sp,#0x20]
	cmp         x8,#0
	bne         |$LN7@ReadFile|

; 164  : 			return 0;

	mov         x0,#0
	b           |$LN1@ReadFile|
|$LN7@ReadFile|
|$LN6@ReadFile|

; 165  : 	}
; 166  : 
; 167  : 	AuVFSNode* file = current_proc->fds[fd];

	ldr         x8,[sp,#0x20]
	add         x10,x8,#0x248
	ldr         w8,[sp,#8]
	sxtw        x9,w8
	mov         x8,#8
	mul         x8,x9,x8
	add         x8,x10,x8
	ldr         x8,[x8]
	str         x8,[sp]

; 168  : 	uint64_t* aligned_buffer = (uint64_t*)buffer;

	ldr         x8,[sp,#0x28]
	str         x8,[sp,#0x38]

; 169  : 
; 170  : 	//SeTextOut("Reading from file -> %d -> %x \r\n", fd, file);
; 171  : 	if (!file) {

	ldr         x8,[sp]
	cmp         x8,#0
	bne         |$LN8@ReadFile|

; 172  : 		return 0;

	mov         x0,#0
	b           |$LN1@ReadFile|
|$LN8@ReadFile|

; 173  : 	}
; 174  : 	size_t ret_bytes = 0;

	mov         x8,#0
	str         x8,[sp,#0x18]

; 175  : 
; 176  : 	/* every general file will contain its
; 177  : 	 * file system node as device */
; 178  : 	AuVFSNode* fsys = (AuVFSNode*)file->device;

	ldr         x8,[sp]
	add         x8,x8,#0x50
	ldr         x8,[x8]
	str         x8,[sp,#0x40]

; 179  : 	if (file->flags & FS_FLAG_GENERAL && !(file->flags & FS_FLAG_TTY)) {

	ldr         x8,[sp]
	add         x8,x8,#0x40
	ldrh        w8,[x8]
	mov         w8,w8
	tbz         x8,#2,|$LN9@ReadFile|
	ldr         x8,[sp]
	add         x8,x8,#0x40
	ldrh        w8,[x8]
	mov         w8,w8
	tbnz        x8,#8,|$LN9@ReadFile|

; 180  : 		ret_bytes = AuVFSNodeRead(fsys, file, aligned_buffer, length);

	ldr         x8,[sp,#0x10]
	mov         w3,w8
	mov         w3,w3
	ldr         x2,[sp,#0x38]
	ldr         x1,[sp]
	ldr         x0,[sp,#0x40]
	bl          AuVFSNodeRead
	str         x0,[sp,#0x18]
|$LN9@ReadFile|

; 181  : 	}
; 182  : 	if (file->flags & FS_FLAG_DEVICE) {

	ldr         x8,[sp]
	add         x8,x8,#0x40
	ldrh        w8,[x8]
	mov         w8,w8
	tbz         x8,#3,|$LN10@ReadFile|

; 183  : 		/* devfs will handle*/
; 184  : 		if (file->read)

	ldr         x8,[sp]
	add         x8,x8,#0x70
	ldr         x8,[x8]
	cmp         x8,#0
	beq         |$LN11@ReadFile|

; 185  : 			ret_bytes = file->read(file, file, (uint64_t*)buffer, length);

	ldr         x8,[sp,#0x10]
	mov         w3,w8
	ldr         x8,[sp]
	add         x8,x8,#0x70
	mov         w3,w3
	ldr         x2,[sp,#0x28]
	ldr         x1,[sp]
	ldr         x0,[sp]
	ldr         x8,[x8]
	blr         x8
	str         x0,[sp,#0x18]
|$LN11@ReadFile|
|$LN10@ReadFile|

; 186  : 	}
; 187  : 
; 188  : 	if (file->flags & FS_FLAG_TTY) {

	ldr         x8,[sp]
	add         x8,x8,#0x40
	ldrh        w8,[x8]
	mov         w8,w8
	tbz         x8,#8,|$LN12@ReadFile|

; 189  : 		if (file->read)

	ldr         x8,[sp]
	add         x8,x8,#0x70
	ldr         x8,[x8]
	cmp         x8,#0
	beq         |$LN13@ReadFile|

; 190  : 			ret_bytes = file->read(file, file, (uint64_t*)aligned_buffer, length);

	ldr         x8,[sp,#0x10]
	mov         w3,w8
	ldr         x8,[sp]
	add         x8,x8,#0x70
	mov         w3,w3
	ldr         x2,[sp,#0x38]
	ldr         x1,[sp]
	ldr         x0,[sp]
	ldr         x8,[x8]
	blr         x8
	str         x0,[sp,#0x18]
|$LN13@ReadFile|
|$LN12@ReadFile|

; 191  : 	}
; 192  : 	if (file->flags == FS_FLAG_PIPE) {

	ldr         x8,[sp]
	add         x8,x8,#0x40
	ldrh        w8,[x8]
	mov         w8,w8
	cmp         w8,#0x80
	bne         |$LN14@ReadFile|

; 193  : 		/* ofcourse, pipe subsystem will handle */
; 194  : 		if (file->read)

	ldr         x8,[sp]
	add         x8,x8,#0x70
	ldr         x8,[x8]
	cmp         x8,#0
	beq         |$LN15@ReadFile|

; 195  : 			ret_bytes = file->read(file, file, (uint64_t*)buffer, length);

	ldr         x8,[sp,#0x10]
	mov         w3,w8
	ldr         x8,[sp]
	add         x8,x8,#0x70
	mov         w3,w3
	ldr         x2,[sp,#0x28]
	ldr         x1,[sp]
	ldr         x0,[sp]
	ldr         x8,[x8]
	blr         x8
	str         x0,[sp,#0x18]
|$LN15@ReadFile|
|$LN14@ReadFile|

; 196  : 	}
; 197  : 
; 198  : 	return ret_bytes;

	ldr         x0,[sp,#0x18]
|$LN1@ReadFile|
	add         sp,sp,#0x50
	ldr         lr,[sp],#0x10
	ret

	ENDP  ; |ReadFile|

; Function compile flags: /Odtpy
; File C:\Users\paras\source\repos\grep-name\XenevaOS\KernelAA64\Serv\fileserv.c

	AREA	|.text$mn|, CODE, ARM64

|OpenFile| PROC

; 53   : int OpenFile(char* filename, int mode) {

|$LN18|
	str         lr,[sp,#-0x10]!
	sub         sp,sp,#0xC0
	str         x0,[sp,#0x28]
	str         w1,[sp,#0x18]

; 54   : 	AA64Thread* current_thr = AuGetCurrentThread();

	bl          AuGetCurrentThread
	str         x0,[sp,#0x20]

; 55   : 	if (!current_thr)

	ldr         x8,[sp,#0x20]
	cmp         x8,#0
	bne         |$LN2@OpenFile|

; 56   : 		return -1;

	mov         w0,#-1
	b           |$LN1@OpenFile|
|$LN2@OpenFile|

; 57   : 	AuProcess* current_proc = AuProcessFindThread(current_thr);

	ldr         x0,[sp,#0x20]
	bl          AuProcessFindThread
	str         x0,[sp,#0x10]

; 58   : 	if (!current_proc) {

	ldr         x8,[sp,#0x10]
	cmp         x8,#0
	bne         |$LN3@OpenFile|

; 59   : 		current_proc = AuProcessFindSubThread(current_thr);

	ldr         x0,[sp,#0x20]
	bl          AuProcessFindSubThread
	str         x0,[sp,#0x10]

; 60   : 		if (!current_proc)

	ldr         x8,[sp,#0x10]
	cmp         x8,#0
	bne         |$LN4@OpenFile|

; 61   : 			return -1;

	mov         w0,#-1
	b           |$LN1@OpenFile|
|$LN4@OpenFile|
|$LN3@OpenFile|

; 62   : 	}
; 63   : 	char fname[128];
; 64   : 	memset(fname, 0, 128);

	mov         w2,#0x80
	mov         w1,#0
	add         x0,sp,#0x38
	bl          memset

; 65   : 	fname[127] = '\0';

	mov         w8,#0
	strb        w8,[sp,#0xB7]

; 66   : 	strcpy(fname, filename);

	ldr         x1,[sp,#0x28]
	add         x0,sp,#0x38
	bl          strcpy

; 67   : 	AuVFSNode* fsys = AuVFSFind(fname);

	add         x0,sp,#0x38
	bl          AuVFSFind
	str         x0,[sp,#0x30]

; 68   : 	int fd = AuProcessGetFileDesc(current_proc);

	ldr         x0,[sp,#0x10]
	bl          AuProcessGetFileDesc
	mov         w0,w0
	str         w0,[sp,#0xC]

; 69   : 	AuVFSNode* file = AuVFSOpen(fname);

	add         x0,sp,#0x38
	bl          AuVFSOpen
	str         x0,[sp]

; 70   : 
; 71   : 	/** check permissions before procedding **/
; 72   : 	if (AuCredCheckPermissions(file, &current_proc->creds)) {

	ldr         x8,[sp,#0x10]
	add         x1,x8,#0x470
	ldr         x0,[sp]
	bl          AuCredCheckPermissions
	mov         w0,w0
	cmp         w0,#0
	beq         |$LN5@OpenFile|

; 73   : 		if (!file)

	ldr         x8,[sp]
	cmp         x8,#0
	bne         |$LN6@OpenFile|

; 74   : 			return -1;

	mov         w0,#-1
	b           |$LN1@OpenFile|
|$LN6@OpenFile|

; 75   : 		AuTextOut("[aurora]: file : %s is not accessible to this user with uid : %d \r\n", 

	ldr         x8,[sp,#0x10]
	add         x8,x8,#0x474
	ldr         x1,[sp]
	ldr         w2,[x8]
	adrp        x8,|$SG3927|
	add         x0,x8,PageOffset(|$SG3927|)
	bl          AuTextOut

; 76   : 			file->filename, current_proc->creds.uid);
; 77   : 		if (!(file->flags & FS_FLAG_CACHED)||
; 78   : 			!(file->flags & FS_FLAG_DEVICE)||

	ldr         x8,[sp]
	add         x8,x8,#0x40
	ldrh        w8,[x8]
	mov         w8,w8
	tbz         x8,#0xB,|$LN8@OpenFile|
	ldr         x8,[sp]
	add         x8,x8,#0x40
	ldrh        w8,[x8]
	mov         w8,w8
	tbz         x8,#3,|$LN8@OpenFile|
	ldr         x8,[sp]
	add         x8,x8,#0x40
	ldrh        w8,[x8]
	mov         w8,w8
	tbnz        x8,#6,|$LN7@OpenFile|
|$LN8@OpenFile|

; 79   : 			!(file->flags & FS_FLAG_FILE_SYSTEM))
; 80   : 			kfree(file);

	ldr         x0,[sp]
	bl          kfree
|$LN7@OpenFile|

; 81   : 		return -1;

	mov         w0,#-1
	b           |$LN1@OpenFile|
|$LN5@OpenFile|

; 82   : 	}
; 83   : 	bool created = false;

	mov         w8,#0
	strb        w8,[sp,#8]

; 84   : 	if (!file) {

	ldr         x8,[sp]
	cmp         x8,#0
	bne         |$LN9@OpenFile|

; 85   : 		if (mode & FILE_OPEN_CREAT || mode & FILE_OPEN_WRITE) {

	ldr         w8,[sp,#0x18]
	tbnz        x8,#3,|$LN12@OpenFile|
	ldr         w8,[sp,#0x18]
	tbz         x8,#2,|$LN10@OpenFile|
|$LN12@OpenFile|

; 86   : 			file = AuVFSCreateFile(fsys, filename);

	ldr         x1,[sp,#0x28]
	ldr         x0,[sp,#0x30]
	bl          AuVFSCreateFile
	str         x0,[sp]

; 87   : 			created = true;

	mov         w8,#1
	strb        w8,[sp,#8]

; 88   : 		}

	b           |$LN11@OpenFile|
|$LN10@OpenFile|

; 89   : 		else
; 90   : 			return -1;

	mov         w0,#-1
	b           |$LN1@OpenFile|
|$LN11@OpenFile|
|$LN9@OpenFile|

; 91   : 	}
; 92   : 	/* check for last time, if any error occured */
; 93   : 	if (!file)

	ldr         x8,[sp]
	cmp         x8,#0
	bne         |$LN13@OpenFile|

; 94   : 		return -1;

	mov         w0,#-1
	b           |$LN1@OpenFile|
|$LN13@OpenFile|

; 95   : 
; 96   : 	if (fd == -1)

	ldr         w8,[sp,#0xC]
	cmn         w8,#1
	bne         |$LN14@OpenFile|

; 97   : 		return -1;

	mov         w0,#-1
	b           |$LN1@OpenFile|
|$LN14@OpenFile|

; 98   : 
; 99   : 	/* just to increase the reference count */
; 100  : 	if (file->flags & FS_FLAG_PIPE)

	ldr         x8,[sp]
	add         x8,x8,#0x40
	ldrh        w8,[x8]
	mov         w8,w8
	tbz         x8,#7,|$LN15@OpenFile|

; 101  : 		UARTDebugOut("Opening file -> %s \r\n", file->filename);

	ldr         x1,[sp]
	adrp        x8,|$SG3937|
	add         x0,x8,PageOffset(|$SG3937|)
	bl          UARTDebugOut
|$LN15@OpenFile|

; 102  : 	if (file->open)

	ldr         x8,[sp]
	add         x8,x8,#0x60
	ldr         x8,[x8]
	cmp         x8,#0
	beq         |$LN16@OpenFile|

; 103  : 		file->open(file,NULL);

	ldr         x8,[sp]
	add         x8,x8,#0x60
	mov         x1,#0
	ldr         x0,[sp]
	ldr         x8,[x8]
	blr         x8
|$LN16@OpenFile|

; 104  : 	current_proc->fds[fd] = file;

	ldr         x8,[sp,#0x10]
	add         x10,x8,#0x248
	ldr         w8,[sp,#0xC]
	sxtw        x9,w8
	mov         x8,#8
	mul         x8,x9,x8
	add         x9,x10,x8
	ldr         x8,[sp]
	str         x8,[x9]

; 105  : 	//_setdebug = 1;
; 106  : 	return fd;

	ldr         w0,[sp,#0xC]
|$LN1@OpenFile|
	add         sp,sp,#0xC0
	ldr         lr,[sp],#0x10
	ret

	ENDP  ; |OpenFile|

	END
