; Listing generated by Microsoft (R) Optimizing Compiler Version 19.29.30159.0 

	TTL	C:\Users\paras\source\repos\grep-name\XenevaOS\KernelAA64\ARM64\Debug\fsprobe.obj
	ARM64

	AREA	|.drectve|, DRECTVE

	EXPORT	|AuProbeFileSystem|
	IMPORT	|memset|
	IMPORT	|memcmp|
	IMPORT	|AuPmmngrAlloc|
	IMPORT	|AuPmmngrFree|
	IMPORT	|P2V|
	IMPORT	|V2P|
	IMPORT	|UARTDebugOut|

	AREA	|.pdata|, PDATA
|$pdata$AuProbeFileSystem| DCD imagerel |$LN8|
	DCD	0x1a001b5
	;Flags[SingleProEpi] functionLength[436] RegF[0] RegI[0] H[0] frameChainReturn[UnChainedSavedLR] frameSize[48]

	AREA	|.data|, DATA
|$SG3007| DCB	"NTFS    ", 0x0
	%	7
|$SG3008| DCB	"ntfs ", 0xd, 0xa, 0x0
|$SG3010| DCB	"FAT32   ", 0x0
	%	7
|$SG3011| DCB	"fat32 ", 0xd, 0xa, 0x0
	%	7
|$SG3013| DCB	"FAT16   ", 0x0
	%	7
|$SG3014| DCB	"fat16 ", 0xd, 0xa, 0x0
; Function compile flags: /Odtpy
; File C:\Users\paras\source\repos\grep-name\XenevaOS\KernelAA64\Fs\fsprobe.c

	AREA	|.text$mn|, CODE, ARM64

|AuProbeFileSystem| PROC

; 56   : aurora_fs_type AuProbeFileSystem(AuVDisk* vdisk) {

|$LN8|
	str         lr,[sp,#-0x10]!
	sub         sp,sp,#0x20
	str         x0,[sp,#0x10]

; 57   : 	if (!vdisk->Read)

	ldr         x8,[sp,#0x10]
	add         x8,x8,#0xB8
	ldr         x8,[x8]
	cmp         x8,#0
	bne         |$LN2@AuProbeFil|

; 58   : 		return 0;

	mov         w0,#0
	b           |$LN1@AuProbeFil|
|$LN2@AuProbeFil|

; 59   : 
; 60   : 	uint8_t* sector = (uint8_t*)P2V((uint64_t)AuPmmngrAlloc());

	bl          AuPmmngrAlloc
	bl          P2V
	str         x0,[sp,#8]

; 61   : 	memset(sector, 0, 512);

	mov         w2,#0x200
	mov         w1,#0
	ldr         x0,[sp,#8]
	bl          memset

; 62   : 
; 63   : 
; 64   : 	vdisk->Read(vdisk, 0, 1, sector);

	ldr         x8,[sp,#0x10]
	add         x8,x8,#0xB8
	ldr         x3,[sp,#8]
	mov         w2,#1
	mov         x1,#0
	ldr         x0,[sp,#0x10]
	ldr         x8,[x8]
	blr         x8

; 65   : 
; 66   : 
; 67   : 	/** check Windows type file systems first */
; 68   : 	// it should be char[9] like "NTFS-----" total
; 69   : 	// 9 characters
; 70   : 	if (memcmp(sector + 0x03, "NTFS    ", 8) == 0) {

	ldr         x8,[sp,#8]
	add         x0,x8,#3
	mov         x2,#8
	adrp        x8,|$SG3007|
	add         x1,x8,PageOffset(|$SG3007|)
	bl          memcmp
	mov         w0,w0
	cmp         w0,#0
	bne         |$LN3@AuProbeFil|

; 71   : 		UARTDebugOut("ntfs \r\n");

	adrp        x8,|$SG3008|
	add         x0,x8,PageOffset(|$SG3008|)
	bl          UARTDebugOut

; 72   : 		AuPmmngrFree((void*)V2P((uint64_t)sector));

	ldr         x0,[sp,#8]
	bl          V2P
	bl          AuPmmngrFree

; 73   : 		return AURORA_FS_NTFS;

	mov         w0,#4
	b           |$LN1@AuProbeFil|
|$LN3@AuProbeFil|

; 74   : 	}
; 75   : 
; 76   : 	if (memcmp(sector + 0x52, "FAT32   ",8) == 0) {

	ldr         x8,[sp,#8]
	add         x0,x8,#0x52
	mov         x2,#8
	adrp        x8,|$SG3010|
	add         x1,x8,PageOffset(|$SG3010|)
	bl          memcmp
	mov         w0,w0
	cmp         w0,#0
	bne         |$LN4@AuProbeFil|

; 77   : 		UARTDebugOut("fat32 \r\n");

	adrp        x8,|$SG3011|
	add         x0,x8,PageOffset(|$SG3011|)
	bl          UARTDebugOut

; 78   : 		AuPmmngrFree((void*)V2P((uint64_t)sector));

	ldr         x0,[sp,#8]
	bl          V2P
	bl          AuPmmngrFree

; 79   : 		return AURORA_FS_FAT32;

	mov         w0,#2
	b           |$LN1@AuProbeFil|
|$LN4@AuProbeFil|

; 80   : 	}
; 81   : 
; 82   : 	if (memcmp(sector + 0x36, "FAT16   ", 8) == 0) {

	ldr         x8,[sp,#8]
	add         x0,x8,#0x36
	mov         x2,#8
	adrp        x8,|$SG3013|
	add         x1,x8,PageOffset(|$SG3013|)
	bl          memcmp
	mov         w0,w0
	cmp         w0,#0
	bne         |$LN5@AuProbeFil|

; 83   : 		UARTDebugOut("fat16 \r\n");

	adrp        x8,|$SG3014|
	add         x0,x8,PageOffset(|$SG3014|)
	bl          UARTDebugOut

; 84   : 		AuPmmngrFree((void*)V2P((uint64_t)sector));

	ldr         x0,[sp,#8]
	bl          V2P
	bl          AuPmmngrFree

; 85   : 		return AURORA_FS_FAT16;

	mov         w0,#1
	b           |$LN1@AuProbeFil|
|$LN5@AuProbeFil|

; 86   : 	}
; 87   : 
; 88   : 	/* check ext2/3/4 -- superblocks */
; 89   : 	memset(sector, 0, 512);

	mov         w2,#0x200
	mov         w1,#0
	ldr         x0,[sp,#8]
	bl          memset

; 90   : 
; 91   : 	vdisk->Read(vdisk, 2, 1, sector);

	ldr         x8,[sp,#0x10]
	add         x8,x8,#0xB8
	ldr         x3,[sp,#8]
	mov         w2,#1
	mov         x1,#2
	ldr         x0,[sp,#0x10]
	ldr         x8,[x8]
	blr         x8

; 92   : 
; 93   : 	uint16_t ext_magic = *(uint16_t*)(sector + 0x38);

	ldr         x8,[sp,#8]
	add         x8,x8,#0x38
	ldrh        w8,[x8]
	strh        w8,[sp]

; 94   : 	if (ext_magic == 0xEF53) {

	ldrh        w9,[sp]
	mov         w9,w9
	mov         w8,#0xEF53
	cmp         w9,w8
	bne         |$LN6@AuProbeFil|

; 95   : 		AuPmmngrFree((void*)V2P((uint64_t)sector));

	ldr         x0,[sp,#8]
	bl          V2P
	bl          AuPmmngrFree

; 96   : 		return AURORA_FS_EXT2;

	mov         w0,#3
	b           |$LN1@AuProbeFil|
|$LN6@AuProbeFil|

; 97   : 	}
; 98   : 
; 99   : 	AuPmmngrFree((void*)V2P((uint64_t)sector));

	ldr         x0,[sp,#8]
	bl          V2P
	bl          AuPmmngrFree

; 100  : 	return AURORA_FS_UNKNOWN;

	mov         w0,#0
|$LN1@AuProbeFil|
	add         sp,sp,#0x20
	ldr         lr,[sp],#0x10
	ret

	ENDP  ; |AuProbeFileSystem|

	END
