; Listing generated by Microsoft (R) Optimizing Compiler Version 19.29.30159.0 

	TTL	C:\Users\paras\source\repos\grep-name\XenevaOS\KernelAA64\ARM64\Debug\ftmngr.obj
	ARM64

	AREA	|.drectve|, DRECTVE


	AREA	|.data|, DATA
	 COMMON	|font_conf_data|, 0x8

	 COMMON	|fontKey|, 0x2

	 COMMON	|totalSysFonts|, 0x4

	EXPORT	|FontManagerInitialise|
	EXPORT	|AuFTMngrGetFontID|
	EXPORT	|AuFTMngrGetNumFonts|
	EXPORT	|AuFTMngrGetFontSize|
	EXPORT	|FontManagerAddSegment|
	EXPORT	|FontManagerRemoveSegment|
	EXPORT	|FontManagerGetKey|
	EXPORT	|FontManagerAllocateSegment|
	EXPORT	|FontManagerOpenFontFile|
	EXPORT	|FontManagerIterateFontList|
	EXPORT	|FontManagerGetFontCount|
	IMPORT	|strcmp|
	IMPORT	|strncpy|
	IMPORT	|strchr|
	IMPORT	|memset|
	IMPORT	|AuVFSOpen|
	IMPORT	|AuVFSFind|
	IMPORT	|AuVFSNodeRead|
	IMPORT	|AuGetSHMByID|
	IMPORT	|AuCreateSHM|
	IMPORT	|AuPmmngrAlloc|
	IMPORT	|P2V|
	IMPORT	|UARTDebugOut|
	IMPORT	|AuTextOut|
	IMPORT	|kmalloc|
	IMPORT	|kfree|
	IMPORT	|atoi|
	IMPORT	|dmb_ish|

	AREA	|.bss|, NOINIT
|firstSeg| %	0x8
|lastSeg| %	0x8

	AREA	|.pdata|, PDATA
|$pdata$FontManagerInitialise| DCD imagerel |$LN12|
	DCD	0x22001cd
	;Flags[SingleProEpi] functionLength[460] RegF[0] RegI[0] H[0] frameChainReturn[UnChainedSavedLR] frameSize[64]
|$pdata$AuFTMngrGetFontID| DCD imagerel |$LN7|
	DCD	0x1a000e5
	;Flags[SingleProEpi] functionLength[228] RegF[0] RegI[0] H[0] frameChainReturn[UnChainedSavedLR] frameSize[48]
|$pdata$AuFTMngrGetFontSize| DCD imagerel |$LN7|
	DCD	0x1200075
	;Flags[SingleProEpi] functionLength[116] RegF[0] RegI[0] H[0] frameChainReturn[UnChainedSavedLR] frameSize[32]
|$pdata$FontManagerAddSegment| DCD imagerel |$LN5|
	DCD	0x12000a5
	;Flags[SingleProEpi] functionLength[164] RegF[0] RegI[0] H[0] frameChainReturn[UnChainedSavedLR] frameSize[32]
|$pdata$FontManagerRemoveSegment| DCD imagerel |$LN8|
	DCD	0x8000c1
	;Flags[SingleProEpi] functionLength[192] RegF[0] RegI[0] H[0] frameChainReturn[UnChained] frameSize[16]
|$pdata$FontManagerGetKey| DCD imagerel |$LN3|
	DCD	0x800039
	;Flags[SingleProEpi] functionLength[56] RegF[0] RegI[0] H[0] frameChainReturn[UnChained] frameSize[16]
|$pdata$FontManagerAllocateSegment| DCD imagerel |$LN4|
	DCD	0x1a10105
	;Flags[SingleProEpi] functionLength[260] RegF[0] RegI[1] H[0] frameChainReturn[UnChainedSavedLR] frameSize[48]
|$pdata$FontManagerOpenFontFile| DCD imagerel |$LN4|
	DCD	0x120003d
	;Flags[SingleProEpi] functionLength[60] RegF[0] RegI[0] H[0] frameChainReturn[UnChainedSavedLR] frameSize[32]
|$pdata$FontManagerIterateFontList| DCD imagerel |$LN15|
	DCD	0x5a1030d
	;Flags[SingleProEpi] functionLength[780] RegF[0] RegI[1] H[0] frameChainReturn[UnChainedSavedLR] frameSize[176]
|$pdata$FontManagerGetFontCount| DCD imagerel |$LN9|
	DCD	0x220011d
	;Flags[SingleProEpi] functionLength[284] RegF[0] RegI[0] H[0] frameChainReturn[UnChainedSavedLR] frameSize[64]

	AREA	|.data|, DATA
|$SG3537| DCB	"Creating SHM ", 0xd, 0xa, 0x0
|$SG3575| DCB	"Opening font file : %s ", 0xd, 0xa, 0x0
	%	2
|$SG3576| DCB	"/", 0x0
	%	2
|$SG3578| DCB	"Font file present ", 0xd, 0xa, 0x0
	%	3
|$SG3579| DCB	"fontfile -> %s sz : %d ", 0xd, 0xa, 0x0
	%	2
|$SG3613| DCB	"/", 0x0
	%	2
|$SG3612| DCB	"[aurora]: Loading system fonts ", 0xd, 0xa, 0x0
	%	6
|$SG3614| DCB	"/ftlst.cnf", 0x0
	%	5
|$SG3616| DCB	"[Aurora]: Font Manager failed to open ftlst.cnf, ftlst.c"
	DCB	"nf file not found ", 0xd, 0xa, 0x0
	%	3
|$SG3618| DCB	"Font this %d bytes numPage: %d ", 0xd, 0xa, 0x0
	%	6
|$SG3620| DCB	"Font Count ->%d ", 0xd, 0xa, 0x0
	%	5
|$SG3630| DCB	"Found font id : %d ", 0xa, 0x0
; Function compile flags: /Odtpy
; File C:\Users\paras\source\repos\grep-name\XenevaOS\KernelAA64\ftmngr.c

	AREA	|.text$mn|, CODE, ARM64

|FontManagerGetFontCount| PROC

; 203  : int FontManagerGetFontCount(uint8_t* fontlst) {

|$LN9|
	str         lr,[sp,#-0x10]!
	sub         sp,sp,#0x30
	str         x0,[sp,#0x18]

; 204  : 	char* fbuf = (char*)fontlst;

	ldr         x8,[sp,#0x18]
	str         x8,[sp,#0x20]

; 205  : 	char* p = strchr(fbuf, '(');

	mov         w1,#0x28
	ldr         x0,[sp,#0x20]
	bl          strchr
	str         x0,[sp,#0x10]

; 206  : 	if (p) {

	ldr         x8,[sp,#0x10]
	cmp         x8,#0
	beq         |$LN5@FontManage|

; 207  : 		p++;

	ldr         x8,[sp,#0x10]
	add         x8,x8,#1
	str         x8,[sp,#0x10]

; 208  : 	}

	b           |$LN6@FontManage|
|$LN5@FontManage|

; 209  : 	else {
; 210  : 		return 0;

	mov         w0,#0
	b           |$LN1@FontManage|
|$LN6@FontManage|

; 211  : 	}
; 212  : 	char num[3];
; 213  : 	int i = 0;

	mov         w8,#0
	str         w8,[sp,#4]

; 214  : 	for (i = 0; i < 2; i++) {

	mov         w8,#0
	str         w8,[sp,#4]
	b           |$LN4@FontManage|
|$LN2@FontManage|
	ldr         w8,[sp,#4]
	add         w8,w8,#1
	str         w8,[sp,#4]
|$LN4@FontManage|
	ldr         w8,[sp,#4]
	cmp         w8,#2
	bge         |$LN3@FontManage|

; 215  : 		if (p[i] == ')')

	ldr         w8,[sp,#4]
	sxtw        x9,w8
	mov         x8,#1
	mul         x9,x9,x8
	ldr         x8,[sp,#0x10]
	add         x8,x8,x9
	ldrsb       w8,[x8]
	mov         w8,w8
	cmp         w8,#0x29
	bne         |$LN7@FontManage|

; 216  : 			break;

	b           |$LN3@FontManage|
|$LN7@FontManage|

; 217  : 		num[i] = p[i];

	ldr         w8,[sp,#4]
	sxtw        x9,w8
	mov         x8,#1
	mul         x9,x9,x8
	ldr         x8,[sp,#0x10]
	add         x10,x8,x9
	ldr         w8,[sp,#4]
	sxtw        x9,w8
	mov         x8,#1
	mul         x9,x9,x8
	mov         x8,sp
	add         x9,x8,x9
	ldrsb       w8,[x10]
	strb        w8,[x9]

; 218  : 	}

	b           |$LN2@FontManage|
|$LN3@FontManage|

; 219  : 	num[i] = 0;

	ldr         w8,[sp,#4]
	sxtw        x9,w8
	mov         x8,#1
	mul         x9,x9,x8
	mov         x8,sp
	add         x9,x8,x9
	mov         w8,#0
	strb        w8,[x9]

; 220  : 	int number = atoi(num);

	mov         x0,sp
	bl          atoi
	mov         w0,w0
	str         w0,[sp,#8]

; 221  : 	return number;

	ldr         w0,[sp,#8]
|$LN1@FontManage|
	add         sp,sp,#0x30
	ldr         lr,[sp],#0x10
	ret

	ENDP  ; |FontManagerGetFontCount|

; Function compile flags: /Odtpy
; File C:\Users\paras\source\repos\grep-name\XenevaOS\KernelAA64\ftmngr.c

	AREA	|.text$mn|, CODE, ARM64

|FontManagerIterateFontList| PROC

; 145  : void FontManagerIterateFontList(uint8_t* fontlst) {

|$LN15|
	sub         sp,sp,#0x10
	stp         x19,lr,[sp]
	sub         sp,sp,#0xA0
	str         x0,[sp,#0x28]

; 146  : 	char* fbuf = (char*)fontlst;

	ldr         x8,[sp,#0x28]
	str         x8,[sp,#8]

; 147  : 	int fcount = 0;

	mov         w8,#0
	str         w8,[sp,#0x18]
|$search$16|

; 148  : search:
; 149  : 	if (fcount >= totalSysFonts)

	adrp        x8,totalSysFonts
	ldr         w9,[x8,PageOffset(totalSysFonts)]
	ldr         w8,[sp,#0x18]
	cmp         w8,w9
	blt         |$LN8@FontManage|

; 150  : 		return;

	b           |$LN1@FontManage|
|$LN8@FontManage|

; 151  : 	char* p = strchr(fbuf, '[');

	mov         w1,#0x5B
	ldr         x0,[sp,#8]
	bl          strchr
	str         x0,[sp,#0x10]

; 152  : 	if (p) {

	ldr         x8,[sp,#0x10]
	cmp         x8,#0
	beq         |$LN9@FontManage|

; 153  : 		p++;

	ldr         x8,[sp,#0x10]
	add         x8,x8,#1
	str         x8,[sp,#0x10]

; 154  : 		fbuf++;

	ldr         x8,[sp,#8]
	add         x8,x8,#1
	str         x8,[sp,#8]

; 155  : 	}

	b           |$LN10@FontManage|
|$LN9@FontManage|

; 156  : 	else {
; 157  : 		return;

	b           |$LN1@FontManage|
|$LN10@FontManage|

; 158  : 	}
; 159  : 
; 160  : 	char fontname[33];
; 161  : 	int i = 0;

	mov         w8,#0
	str         w8,[sp]

; 162  : 	for (i = 0; i < 32; i++) {

	mov         w8,#0
	str         w8,[sp]
	b           |$LN4@FontManage|
|$LN2@FontManage|
	ldr         w8,[sp]
	add         w8,w8,#1
	str         w8,[sp]
|$LN4@FontManage|
	ldr         w8,[sp]
	cmp         w8,#0x20
	bge         |$LN3@FontManage|

; 163  : 		if (p[i] == ']') {

	ldr         w8,[sp]
	sxtw        x9,w8
	mov         x8,#1
	mul         x9,x9,x8
	ldr         x8,[sp,#0x10]
	add         x8,x8,x9
	ldrsb       w8,[x8]
	mov         w8,w8
	cmp         w8,#0x5D
	bne         |$LN11@FontManage|

; 164  : 			fbuf = p + i;

	ldr         w8,[sp]
	sxtw        x9,w8
	ldr         x8,[sp,#0x10]
	add         x8,x8,x9
	str         x8,[sp,#8]

; 165  : 			fbuf++;

	ldr         x8,[sp,#8]
	add         x8,x8,#1
	str         x8,[sp,#8]

; 166  : 			break;

	b           |$LN3@FontManage|
|$LN11@FontManage|

; 167  : 		}
; 168  : 		fontname[i] = p[i];

	ldr         w8,[sp]
	sxtw        x9,w8
	mov         x8,#1
	mul         x9,x9,x8
	ldr         x8,[sp,#0x10]
	add         x10,x8,x9
	ldr         w8,[sp]
	sxtw        x9,w8
	mov         x8,#1
	mul         x9,x9,x8
	add         x8,sp,#0x78
	add         x9,x8,x9
	ldrsb       w8,[x10]
	strb        w8,[x9]

; 169  : 		fbuf++;

	ldr         x8,[sp,#8]
	add         x8,x8,#1
	str         x8,[sp,#8]

; 170  : 	}

	b           |$LN2@FontManage|
|$LN3@FontManage|

; 171  : 	fontname[i] = 0;

	ldr         w8,[sp]
	sxtw        x9,w8
	mov         x8,#1
	mul         x9,x9,x8
	add         x8,sp,#0x78
	add         x9,x8,x9
	mov         w8,#0
	strb        w8,[x9]

; 172  : 
; 173  : 	p = fbuf;

	ldr         x8,[sp,#8]
	str         x8,[sp,#0x10]

; 174  : 	char filename[33];
; 175  : 	for (i = 0; i < 32; i++) {

	mov         w8,#0
	str         w8,[sp]
	b           |$LN7@FontManage|
|$LN5@FontManage|
	ldr         w8,[sp]
	add         w8,w8,#1
	str         w8,[sp]
|$LN7@FontManage|
	ldr         w8,[sp]
	cmp         w8,#0x20
	bge         |$LN6@FontManage|

; 176  : 		if (p[i] == '|')

	ldr         w8,[sp]
	sxtw        x9,w8
	mov         x8,#1
	mul         x9,x9,x8
	ldr         x8,[sp,#0x10]
	add         x8,x8,x9
	ldrsb       w8,[x8]
	mov         w8,w8
	cmp         w8,#0x7C
	bne         |$LN12@FontManage|

; 177  : 			break;

	b           |$LN6@FontManage|
|$LN12@FontManage|

; 178  : 		filename[i] = p[i];

	ldr         w8,[sp]
	sxtw        x9,w8
	mov         x8,#1
	mul         x9,x9,x8
	ldr         x8,[sp,#0x10]
	add         x10,x8,x9
	ldr         w8,[sp]
	sxtw        x9,w8
	mov         x8,#1
	mul         x9,x9,x8
	add         x8,sp,#0x50
	add         x9,x8,x9
	ldrsb       w8,[x10]
	strb        w8,[x9]

; 179  : 		fbuf++;

	ldr         x8,[sp,#8]
	add         x8,x8,#1
	str         x8,[sp,#8]

; 180  : 	}

	b           |$LN5@FontManage|
|$LN6@FontManage|

; 181  : 	filename[i] = 0;

	ldr         w8,[sp]
	sxtw        x9,w8
	mov         x8,#1
	mul         x9,x9,x8
	add         x8,sp,#0x50
	add         x9,x8,x9
	mov         w8,#0
	strb        w8,[x9]

; 182  : 	UARTDebugOut("Opening font file : %s \r\n", filename);

	add         x1,sp,#0x50
	adrp        x8,|$SG3575|
	add         x0,x8,PageOffset(|$SG3575|)
	bl          UARTDebugOut

; 183  : 	AuVFSNode* fs = AuVFSFind("/");

	adrp        x8,|$SG3576|
	add         x0,x8,PageOffset(|$SG3576|)
	bl          AuVFSFind
	str         x0,[sp,#0x40]

; 184  : 	AuVFSNode* fontfile = AuVFSOpen(filename); //FontManagerOpenFontFile(filename);

	add         x0,sp,#0x50
	bl          AuVFSOpen
	str         x0,[sp,#0x20]

; 185  : 	if (fontfile) {

	ldr         x8,[sp,#0x20]
	cmp         x8,#0
	beq         |$LN13@FontManage|

; 186  : 		UARTDebugOut("Font file present \r\n");

	adrp        x8,|$SG3578|
	add         x0,x8,PageOffset(|$SG3578|)
	bl          UARTDebugOut

; 187  : 		FontSeg* seg = FontManagerAllocateSegment(fontfile, fontname);

	add         x1,sp,#0x78
	ldr         x0,[sp,#0x20]
	bl          FontManagerAllocateSegment
	str         x0,[sp,#0x30]

; 188  : 		uint64_t* firstFrame = (uint64_t*)seg->sharedSeg->frames[0];

	ldr         x8,[sp,#0x30]
	add         x8,x8,#0x20
	ldr         x8,[x8]
	add         x8,x8,#0x10
	ldr         x8,[x8]
	ldr         x8,[x8]
	str         x8,[sp,#0x38]

; 189  : 		UARTDebugOut("fontfile -> %s sz : %d \r\n", fontfile->filename, fontfile->size);

	ldr         x8,[sp,#0x20]
	add         x8,x8,#0x20
	ldr         x1,[sp,#0x20]
	ldr         w2,[x8]
	adrp        x8,|$SG3579|
	add         x0,x8,PageOffset(|$SG3579|)
	bl          UARTDebugOut

; 190  : 		size_t ret = AuVFSNodeRead(fs, fontfile, (uint64_t*)P2V((size_t)firstFrame), ALIGN_UP(fontfile->size, 4096));

	ldr         x8,[sp,#0x20]
	add         x8,x8,#0x20
	ldr         w8,[x8]
	add         w8,w8,#1,lsl #0xC
	sub         w9,w8,#1
	mov         w8,#0x1000
	udiv        w9,w9,w8
	mov         w8,#0x1000
	mul         w19,w9,w8
	ldr         x0,[sp,#0x38]
	bl          P2V
	mov         w3,w19
	mov         x2,x0
	ldr         x1,[sp,#0x20]
	ldr         x0,[sp,#0x40]
	bl          AuVFSNodeRead
	str         x0,[sp,#0x48]

; 191  : 		fcount++;

	ldr         w8,[sp,#0x18]
	add         w8,w8,#1
	str         w8,[sp,#0x18]

; 192  : 		kfree(fontfile); //avoiding this, because we need more powerful heap memory allocator 

	ldr         x0,[sp,#0x20]
	bl          kfree
|$LN13@FontManage|

; 193  : 	}
; 194  : 	
; 195  : 	goto search;

	b           |$search$16|
|$LN1@FontManage|
	add         sp,sp,#0xA0
	ldp         x19,lr,[sp]
	add         sp,sp,#0x10
	ret

	ENDP  ; |FontManagerIterateFontList|

; Function compile flags: /Odtpy
; File C:\Users\paras\source\repos\grep-name\XenevaOS\KernelAA64\ftmngr.c

	AREA	|.text$mn|, CODE, ARM64

|FontManagerOpenFontFile| PROC

; 133  : AuVFSNode* FontManagerOpenFontFile(char* filename) {

|$LN4|
	str         lr,[sp,#-0x10]!
	sub         sp,sp,#0x10
	str         x0,[sp,#8]

; 134  : 	AuVFSNode* font = AuVFSOpen(filename);

	ldr         x0,[sp,#8]
	bl          AuVFSOpen
	str         x0,[sp]

; 135  : 	if (!font)

	ldr         x8,[sp]
	cmp         x8,#0
	bne         |$LN2@FontManage|

; 136  : 		return NULL;

	mov         x0,#0
	b           |$LN1@FontManage|
|$LN2@FontManage|

; 137  : 	return font;

	ldr         x0,[sp]
|$LN1@FontManage|
	add         sp,sp,#0x10
	ldr         lr,[sp],#0x10
	ret

	ENDP  ; |FontManagerOpenFontFile|

; Function compile flags: /Odtpy
; File C:\Users\paras\source\repos\grep-name\XenevaOS\KernelAA64\ftmngr.c

	AREA	|.text$mn|, CODE, ARM64

|FontManagerAllocateSegment| PROC

; 113  : FontSeg* FontManagerAllocateSegment(AuVFSNode* fontfile, char* fontname) {

|$LN4|
	sub         sp,sp,#0x10
	stp         x19,lr,[sp]
	sub         sp,sp,#0x20
	str         x0,[sp,#0x10]
	str         x1,[sp,#0x18]

; 114  : 	if (!fontfile)

	ldr         x8,[sp,#0x10]
	cmp         x8,#0
	bne         |$LN2@FontManage|

; 115  : 		return NULL;

	mov         x0,#0
	b           |$LN1@FontManage|
|$LN2@FontManage|

; 116  : 	FontSeg* seg = (FontSeg*)kmalloc(sizeof(FontSeg));

	mov         w0,#0x40
	bl          kmalloc
	str         x0,[sp,#8]

; 117  : 	memset(seg, 0, sizeof(FontSeg));

	mov         w2,#0x40
	mov         w1,#0
	ldr         x0,[sp,#8]
	bl          memset

; 118  : 	strncpy(seg->fontname, fontname, 32);

	ldr         x0,[sp,#8]
	mov         x2,#0x20
	ldr         x1,[sp,#0x18]
	bl          strncpy

; 119  : 	uint32_t alignedSz = ALIGN_UP(fontfile->size, 4096);

	ldr         x8,[sp,#0x10]
	add         x8,x8,#0x20
	ldr         w8,[x8]
	add         w8,w8,#1,lsl #0xC
	sub         w9,w8,#1
	mov         w8,#0x1000
	udiv        w9,w9,w8
	mov         w8,#0x1000
	mul         w8,w9,w8
	str         w8,[sp]

; 120  : 	UARTDebugOut("Creating SHM \r\n");

	adrp        x8,|$SG3537|
	add         x0,x8,PageOffset(|$SG3537|)
	bl          UARTDebugOut

; 121  : 	int id = AuCreateSHM(NULL, FontManagerGetKey(), alignedSz, 0);

	ldr         w8,[sp]
	uxtw        x19,w8
	bl          FontManagerGetKey
	uxth        w1,w0
	mov         w3,#0
	mov         x2,x19
	mov         w1,w1
	mov         x0,#0
	bl          AuCreateSHM
	mov         w0,w0
	str         w0,[sp,#4]

; 122  : 	seg->sharedSeg = AuGetSHMByID(id);

	ldr         w8,[sp,#4]
	uxth        w0,w8
	mov         w0,w0
	bl          AuGetSHMByID
	ldr         x8,[sp,#8]
	add         x8,x8,#0x20
	str         x0,[x8]

; 123  : 	seg->fontFileSz = fontfile->size;

	ldr         x8,[sp,#0x10]
	add         x10,x8,#0x20
	ldr         x8,[sp,#8]
	add         x9,x8,#0x28
	ldr         w8,[x10]
	str         w8,[x9]

; 124  : 	FontManagerAddSegment(seg);

	ldr         x0,[sp,#8]
	bl          FontManagerAddSegment

; 125  : 	return seg;

	ldr         x0,[sp,#8]
|$LN1@FontManage|
	add         sp,sp,#0x20
	ldp         x19,lr,[sp]
	add         sp,sp,#0x10
	ret

	ENDP  ; |FontManagerAllocateSegment|

; Function compile flags: /Odtpy
; File C:\Users\paras\source\repos\grep-name\XenevaOS\KernelAA64\ftmngr.c

	AREA	|.text$mn|, CODE, ARM64

|FontManagerGetKey| PROC

; 99   : uint16_t FontManagerGetKey() {

|$LN3|
	sub         sp,sp,#0x10

; 100  : 	uint16_t key = fontKey;

	adrp        x8,fontKey
	ldrh        w8,[x8,PageOffset(fontKey)]
	strh        w8,[sp]

; 101  : 	fontKey = fontKey + 10;

	adrp        x8,fontKey
	ldrh        w8,[x8,PageOffset(fontKey)]
	mov         w8,w8
	add         w8,w8,#0xA
	uxth        w9,w8
	adrp        x8,fontKey
	strh        w9,[x8,PageOffset(fontKey)]

; 102  : 	return key;

	ldrh        w0,[sp]
	add         sp,sp,#0x10
	ret

	ENDP  ; |FontManagerGetKey|

; Function compile flags: /Odtpy
; File C:\Users\paras\source\repos\grep-name\XenevaOS\KernelAA64\ftmngr.c

	AREA	|.text$mn|, CODE, ARM64

|FontManagerRemoveSegment| PROC

; 76   : void FontManagerRemoveSegment(FontSeg* seg) {

|$LN8|
	sub         sp,sp,#0x10
	str         x0,[sp]

; 77   : 	if (firstSeg == NULL)

	adrp        x8,firstSeg
	ldr         x8,[x8,PageOffset(firstSeg)]
	cmp         x8,#0
	bne         |$LN2@FontManage|

; 78   : 		return;

	b           |$LN1@FontManage|
|$LN2@FontManage|

; 79   : 
; 80   : 	if (seg == firstSeg) {

	adrp        x8,firstSeg
	ldr         x9,[x8,PageOffset(firstSeg)]
	ldr         x8,[sp]
	cmp         x8,x9
	bne         |$LN3@FontManage|

; 81   : 		firstSeg = firstSeg->next;

	adrp        x8,firstSeg
	ldr         x8,[x8,PageOffset(firstSeg)]
	add         x8,x8,#0x30
	adrp        x9,firstSeg
	ldr         x8,[x8]
	str         x8,[x9,PageOffset(firstSeg)]

; 82   : 	}

	b           |$LN4@FontManage|
|$LN3@FontManage|

; 83   : 	else {
; 84   : 		seg->prev->next = seg->next;

	ldr         x8,[sp]
	add         x10,x8,#0x30
	ldr         x8,[sp]
	add         x8,x8,#0x38
	ldr         x8,[x8]
	add         x9,x8,#0x30
	ldr         x8,[x10]
	str         x8,[x9]
|$LN4@FontManage|

; 85   : 	}
; 86   : 
; 87   : 	if (seg == lastSeg) {

	adrp        x8,lastSeg
	ldr         x9,[x8,PageOffset(lastSeg)]
	ldr         x8,[sp]
	cmp         x8,x9
	bne         |$LN5@FontManage|

; 88   : 		lastSeg = seg->prev;

	ldr         x8,[sp]
	add         x8,x8,#0x38
	adrp        x9,lastSeg
	ldr         x8,[x8]
	str         x8,[x9,PageOffset(lastSeg)]

; 89   : 	}

	b           |$LN6@FontManage|
|$LN5@FontManage|

; 90   : 	else {
; 91   : 		seg->next->prev = seg->prev;

	ldr         x8,[sp]
	add         x10,x8,#0x38
	ldr         x8,[sp]
	add         x8,x8,#0x30
	ldr         x8,[x8]
	add         x9,x8,#0x38
	ldr         x8,[x10]
	str         x8,[x9]
|$LN6@FontManage|
|$LN1@FontManage|
	add         sp,sp,#0x10
	ret

	ENDP  ; |FontManagerRemoveSegment|

; Function compile flags: /Odtpy
; File C:\Users\paras\source\repos\grep-name\XenevaOS\KernelAA64\ftmngr.c

	AREA	|.text$mn|, CODE, ARM64

|FontManagerAddSegment| PROC

; 55   : void FontManagerAddSegment(FontSeg* seg) {

|$LN5|
	str         lr,[sp,#-0x10]!
	sub         sp,sp,#0x10
	str         x0,[sp]

; 56   : 	seg->next = NULL;

	ldr         x8,[sp]
	add         x9,x8,#0x30
	mov         x8,#0
	str         x8,[x9]

; 57   : 	seg->prev = NULL;

	ldr         x8,[sp]
	add         x9,x8,#0x38
	mov         x8,#0
	str         x8,[x9]

; 58   : 	if (firstSeg == NULL) {

	adrp        x8,firstSeg
	ldr         x8,[x8,PageOffset(firstSeg)]
	cmp         x8,#0
	bne         |$LN2@FontManage|

; 59   : 		lastSeg = seg;

	adrp        x9,lastSeg
	ldr         x8,[sp]
	str         x8,[x9,PageOffset(lastSeg)]

; 60   : 		firstSeg = seg;

	adrp        x9,firstSeg
	ldr         x8,[sp]
	str         x8,[x9,PageOffset(firstSeg)]

; 61   : 		dmb_ish();

	bl          dmb_ish

; 62   : 	}

	b           |$LN3@FontManage|
|$LN2@FontManage|

; 63   : 	else {
; 64   : 		lastSeg->next = seg;

	adrp        x8,lastSeg
	ldr         x8,[x8,PageOffset(lastSeg)]
	add         x9,x8,#0x30
	ldr         x8,[sp]
	str         x8,[x9]

; 65   : 		dmb_ish();

	bl          dmb_ish

; 66   : 		seg->prev = lastSeg;

	ldr         x8,[sp]
	add         x9,x8,#0x38
	adrp        x8,lastSeg
	ldr         x8,[x8,PageOffset(lastSeg)]
	str         x8,[x9]

; 67   : 		dmb_ish();

	bl          dmb_ish
|$LN3@FontManage|

; 68   : 	}
; 69   : 	lastSeg = seg;

	adrp        x9,lastSeg
	ldr         x8,[sp]
	str         x8,[x9,PageOffset(lastSeg)]
	add         sp,sp,#0x10
	ldr         lr,[sp],#0x10
	ret

	ENDP  ; |FontManagerAddSegment|

; Function compile flags: /Odtpy
; File C:\Users\paras\source\repos\grep-name\XenevaOS\KernelAA64\ftmngr.c

	AREA	|.text$mn|, CODE, ARM64

|AuFTMngrGetFontSize| PROC

; 288  : int AuFTMngrGetFontSize(char* fontname) {

|$LN7|
	str         lr,[sp,#-0x10]!
	sub         sp,sp,#0x10
	str         x0,[sp,#8]

; 289  : 	for (FontSeg* seg = firstSeg; seg != NULL; seg = seg->next) {

	adrp        x8,firstSeg
	ldr         x8,[x8,PageOffset(firstSeg)]
	str         x8,[sp]
	b           |$LN4@AuFTMngrGe|
|$LN2@AuFTMngrGe|
	ldr         x8,[sp]
	add         x8,x8,#0x30
	ldr         x8,[x8]
	str         x8,[sp]
|$LN4@AuFTMngrGe|
	ldr         x8,[sp]
	cmp         x8,#0
	beq         |$LN3@AuFTMngrGe|

; 290  : 		if (strcmp(fontname, seg->fontname) == 0) {

	ldr         x1,[sp]
	ldr         x0,[sp,#8]
	bl          strcmp
	mov         w0,w0
	cmp         w0,#0
	bne         |$LN5@AuFTMngrGe|

; 291  : 			return seg->fontFileSz;

	ldr         x8,[sp]
	add         x8,x8,#0x28
	ldr         w0,[x8]
	b           |$LN1@AuFTMngrGe|
|$LN5@AuFTMngrGe|

; 292  : 		}
; 293  : 	}

	b           |$LN2@AuFTMngrGe|
|$LN3@AuFTMngrGe|

; 294  : 	return -1;

	mov         w0,#-1
|$LN1@AuFTMngrGe|
	add         sp,sp,#0x10
	ldr         lr,[sp],#0x10
	ret

	ENDP  ; |AuFTMngrGetFontSize|

; Function compile flags: /Odtpy
; File C:\Users\paras\source\repos\grep-name\XenevaOS\KernelAA64\ftmngr.c

	AREA	|.text$mn|, CODE, ARM64

|AuFTMngrGetNumFonts| PROC

; 305  : 	return totalSysFonts;

	adrp        x8,totalSysFonts
	ldr         w0,[x8,PageOffset(totalSysFonts)]
	ret

	ENDP  ; |AuFTMngrGetNumFonts|

; Function compile flags: /Odtpy
; File C:\Users\paras\source\repos\grep-name\XenevaOS\KernelAA64\ftmngr.c

	AREA	|.text$mn|, CODE, ARM64

|AuFTMngrGetFontID| PROC

; 268  : int AuFTMngrGetFontID(char* fontname) {

|$LN7|
	str         lr,[sp,#-0x10]!
	sub         sp,sp,#0x20
	str         x0,[sp,#0x10]

; 269  : 	int font_id = 0;

	mov         w8,#0
	str         w8,[sp]

; 270  : 	//UARTDebugOut("Getting font id : %s \n", fontname);
; 271  : 	FontSeg* seg = firstSeg;

	adrp        x8,firstSeg
	ldr         x8,[x8,PageOffset(firstSeg)]
	str         x8,[sp,#8]

; 272  : 	//Bugg ??
; 273  : 	for (seg = firstSeg; seg != NULL; seg = seg->next) {

	adrp        x8,firstSeg
	ldr         x8,[x8,PageOffset(firstSeg)]
	str         x8,[sp,#8]
	b           |$LN4@AuFTMngrGe|
|$LN2@AuFTMngrGe|
	ldr         x8,[sp,#8]
	add         x8,x8,#0x30
	ldr         x8,[x8]
	str         x8,[sp,#8]
|$LN4@AuFTMngrGe|
	ldr         x8,[sp,#8]
	cmp         x8,#0
	beq         |$LN3@AuFTMngrGe|

; 274  : 		if (strcmp(fontname, seg->fontname) == 0) {

	ldr         x1,[sp,#8]
	ldr         x0,[sp,#0x10]
	bl          strcmp
	mov         w0,w0
	cmp         w0,#0
	bne         |$LN5@AuFTMngrGe|

; 275  : 			UARTDebugOut("Found font id : %d \n", seg->sharedSeg->id);

	ldr         x8,[sp,#8]
	add         x8,x8,#0x20
	ldr         x8,[x8]
	add         x8,x8,#2
	ldrh        w1,[x8]
	mov         w1,w1
	mov         w1,w1
	adrp        x8,|$SG3630|
	add         x0,x8,PageOffset(|$SG3630|)
	bl          UARTDebugOut

; 276  : 			font_id = (seg->sharedSeg->id << 16) | seg->sharedSeg->key & UINT16_MAX;

	ldr         x8,[sp,#8]
	add         x8,x8,#0x20
	ldr         x8,[x8]
	add         x8,x8,#2
	ldrh        w8,[x8]
	mov         w8,w8
	lsl         w9,w8,#0x10
	ldr         x8,[sp,#8]
	add         x8,x8,#0x20
	ldr         x8,[x8]
	ldrh        w8,[x8]
	mov         w8,w8
	and         w8,w8,#0xFFFF
	orr         w8,w9,w8
	str         w8,[sp]

; 277  : 			return font_id;

	ldr         w0,[sp]
	b           |$LN1@AuFTMngrGe|
|$LN5@AuFTMngrGe|

; 278  : 		}
; 279  : 	}

	b           |$LN2@AuFTMngrGe|
|$LN3@AuFTMngrGe|

; 280  : 	return -1;

	mov         w0,#-1
|$LN1@AuFTMngrGe|
	add         sp,sp,#0x20
	ldr         lr,[sp],#0x10
	ret

	ENDP  ; |AuFTMngrGetFontID|

; Function compile flags: /Odtpy
; File C:\Users\paras\source\repos\grep-name\XenevaOS\KernelAA64\ftmngr.c

	AREA	|.text$mn|, CODE, ARM64

|FontManagerInitialise| PROC

; 228  : void FontManagerInitialise() {

|$LN12|
	str         lr,[sp,#-0x10]!
	sub         sp,sp,#0x30

; 229  : 	AuTextOut("[aurora]: Loading system fonts \r\n");

	adrp        x8,|$SG3612|
	add         x0,x8,PageOffset(|$SG3612|)
	bl          AuTextOut

; 230  : 	firstSeg = NULL;

	adrp        x9,firstSeg
	mov         x8,#0
	str         x8,[x9,PageOffset(firstSeg)]

; 231  : 	lastSeg = NULL;

	adrp        x9,lastSeg
	mov         x8,#0
	str         x8,[x9,PageOffset(lastSeg)]

; 232  : 	fontKey = FONTMGR_KEY;

	adrp        x9,fontKey
	mov         w8,#0x1234
	strh        w8,[x9,PageOffset(fontKey)]

; 233  : 	AuVFSNode* fs = AuVFSFind("/");

	adrp        x8,|$SG3613|
	add         x0,x8,PageOffset(|$SG3613|)
	bl          AuVFSFind
	str         x0,[sp,#0x20]

; 234  : 	AuVFSNode* fontconf = AuVFSOpen("/ftlst.cnf");

	adrp        x8,|$SG3614|
	add         x0,x8,PageOffset(|$SG3614|)
	bl          AuVFSOpen
	str         x0,[sp,#8]

; 235  : 	if (!fontconf) {

	ldr         x8,[sp,#8]
	cmp         x8,#0
	bne         |$LN8@FontManage|

; 236  : 		AuTextOut("[Aurora]: Font Manager failed to open ftlst.cnf, ftlst.cnf file not found \r\n");

	adrp        x8,|$SG3616|
	add         x0,x8,PageOffset(|$SG3616|)
	bl          AuTextOut
|$LN2@FontManage|

; 237  : 		for (;;);

	b           |$LN2@FontManage|

; 238  : 		return;

	b           |$LN1@FontManage|
|$LN8@FontManage|

; 239  : 	}
; 240  : 	int num_pages = fontconf->size / PAGE_SIZE;

	ldr         x8,[sp,#8]
	add         x8,x8,#0x20
	ldr         w8,[x8]
	uxtw        x9,w8
	mov         x8,#0x1000
	udiv        x8,x9,x8
	mov         w8,w8
	str         w8,[sp]

; 241  : 	if ((fontconf->size % PAGE_SIZE) != 0)

	ldr         x8,[sp,#8]
	add         x8,x8,#0x20
	ldr         w8,[x8]
	uxtw        x10,w8
	mov         x9,#0x1000
	udiv        x8,x10,x9
	mul         x8,x8,x9
	sub         x8,x10,x8
	cmp         x8,#0
	beq         |$LN9@FontManage|

; 242  : 		num_pages++;

	ldr         w8,[sp]
	add         w8,w8,#1
	str         w8,[sp]
|$LN9@FontManage|

; 243  : 
; 244  : 	UARTDebugOut("Font this %d bytes numPage: %d \r\n", fontconf->size, num_pages);

	ldr         x8,[sp,#8]
	add         x8,x8,#0x20
	ldr         w2,[sp]
	ldr         w1,[x8]
	adrp        x8,|$SG3618|
	add         x0,x8,PageOffset(|$SG3618|)
	bl          UARTDebugOut

; 245  : 	uint64_t* first_addr = NULL;

	mov         x8,#0
	str         x8,[sp,#0x10]

; 246  : 	for (int i = 0; i < num_pages; i++) {

	mov         w8,#0
	str         w8,[sp,#4]
	b           |$LN7@FontManage|
|$LN5@FontManage|
	ldr         w8,[sp,#4]
	add         w8,w8,#1
	str         w8,[sp,#4]
|$LN7@FontManage|
	ldr         w9,[sp]
	ldr         w8,[sp,#4]
	cmp         w8,w9
	bge         |$LN6@FontManage|

; 247  : 		uint64_t* addr = (uint64_t*)P2V((size_t)AuPmmngrAlloc());

	bl          AuPmmngrAlloc
	bl          P2V
	str         x0,[sp,#0x18]

; 248  : 		if (!first_addr)

	ldr         x8,[sp,#0x10]
	cmp         x8,#0
	bne         |$LN10@FontManage|

; 249  : 			first_addr = addr;

	ldr         x8,[sp,#0x18]
	str         x8,[sp,#0x10]
|$LN10@FontManage|

; 250  : 	}

	b           |$LN5@FontManage|
|$LN6@FontManage|

; 251  : 
; 252  : 	memset(first_addr, 0, fontconf->size);

	ldr         x8,[sp,#8]
	add         x8,x8,#0x20
	ldr         w2,[x8]
	mov         w1,#0
	ldr         x0,[sp,#0x10]
	bl          memset

; 253  : 	AuVFSNodeRead(fs, fontconf, first_addr, fontconf->size);

	ldr         x8,[sp,#8]
	add         x8,x8,#0x20
	ldr         w3,[x8]
	ldr         x2,[sp,#0x10]
	ldr         x1,[sp,#8]
	ldr         x0,[sp,#0x20]
	bl          AuVFSNodeRead

; 254  : 	totalSysFonts = 0;

	adrp        x9,totalSysFonts
	mov         w8,#0
	str         w8,[x9,PageOffset(totalSysFonts)]

; 255  : 	font_conf_data = (uint8_t*)first_addr;

	adrp        x9,font_conf_data
	ldr         x8,[sp,#0x10]
	str         x8,[x9,PageOffset(font_conf_data)]

; 256  : 	totalSysFonts = FontManagerGetFontCount(font_conf_data);

	adrp        x8,font_conf_data
	ldr         x0,[x8,PageOffset(font_conf_data)]
	bl          FontManagerGetFontCount
	mov         w0,w0
	adrp        x8,totalSysFonts
	str         w0,[x8,PageOffset(totalSysFonts)]

; 257  : 	UARTDebugOut("Font Count ->%d \r\n", totalSysFonts);

	adrp        x8,totalSysFonts
	ldr         w1,[x8,PageOffset(totalSysFonts)]
	adrp        x8,|$SG3620|
	add         x0,x8,PageOffset(|$SG3620|)
	bl          UARTDebugOut

; 258  : 	FontManagerIterateFontList(font_conf_data);

	adrp        x8,font_conf_data
	ldr         x0,[x8,PageOffset(font_conf_data)]
	bl          FontManagerIterateFontList
|$LN1@FontManage|
	add         sp,sp,#0x30
	ldr         lr,[sp],#0x10
	ret

	ENDP  ; |FontManagerInitialise|

	END
