; Listing generated by Microsoft (R) Optimizing Compiler Version 19.29.30159.0 

	TTL	C:\Users\paras\source\repos\grep-name\XenevaOS\KernelAA64\ARM64\Debug\gic.obj
	ARM64

	AREA	|.drectve|, DRECTVE


	AREA	|.data|, DATA
	 COMMON	|__gic|, 0x50

	 COMMON	|gic_regs|, 0x8

	 COMMON	|gicc_regs|, 0x8

	 COMMON	|gic_dist_mmio|, 0x8

	 COMMON	|gic_redist_mmio|, 0x8


	AREA	|.bss|, NOINIT
|spiBitMap| %	0x400
|callbacks| %	0x2000
	EXPORT	|AuGetSystemGIC|
	EXPORT	|GICInitialize|
	EXPORT	|GICEnableIRQ|
	EXPORT	|GICEnableSPIIRQ|
	EXPORT	|GICClearPendingIRQ|
	EXPORT	|GICReadIAR|
	EXPORT	|GICCheckPending|
	EXPORT	|AuGICGetMSIAddress|
	EXPORT	|AuGICGetMSIData|
	EXPORT	|AuGICAllocateSPI|
	EXPORT	|AuGICDeallocateSPI|
	EXPORT	|GICSendEOI|
	EXPORT	|GICSetupTimer|
	EXPORT	|GICSetTargetCPU|
	EXPORT	|GICRegisterSPIHandler|
	EXPORT	|GICCallSPIHandler|
	EXPORT	|gic_outqw|
	EXPORT	|gic_outl_|
	EXPORT	|gic_inl_|
	EXPORT	|gic_outw_|
	EXPORT	|gic_inw_|
	EXPORT	|gic_outb_|
	EXPORT	|gic_inb_|
	EXPORT	|GICv2MInitialize|
	EXPORT	|GICVerifyVersion|
	EXPORT	|GICRInitialize|
	EXPORT	|GICREnablePPI|
	EXPORT	|GICRSetPPIPriority|
	EXPORT	|GICSetEdgeTriggered|
	EXPORT	|GICIsIRQEdgeTriggered|
	IMPORT	|AuTextOut|
	IMPORT	|AuMapMMIO|
	IMPORT	|dsb_ish|
	IMPORT	|isb_flush|
	IMPORT	|setupTimerIRQ|
	IMPORT	|mask_irqs|
	IMPORT	|gic_cpu_init|
	IMPORT	|gic_read_intid|
	IMPORT	|gic_icc_eoi|
	IMPORT	|UARTDebugOut|
	IMPORT	|AuDTBSwap32|
	IMPORT	|AuDeviceTreeFindProperty|
	IMPORT	|AuDeviceTreeGetNode|
	IMPORT	|AuDeviceTreeGetAddressCells|
	IMPORT	|AuDeviceTreeGetSizeCells|
	IMPORT	|AuDeviceTreeGetRegAddress|
	IMPORT	|AuDeviceTreeGetRegSize|

	AREA	|.pdata|, PDATA
|$pdata$GICInitialize| DCD imagerel |$LN27|
	DCD	0x42105fd
	;Flags[SingleProEpi] functionLength[1532] RegF[0] RegI[1] H[0] frameChainReturn[UnChainedSavedLR] frameSize[128]
|$pdata$GICEnableIRQ| DCD imagerel |$LN10|
	DCD	0x1a00205
	;Flags[SingleProEpi] functionLength[516] RegF[0] RegI[0] H[0] frameChainReturn[UnChainedSavedLR] frameSize[48]
|$pdata$GICEnableSPIIRQ| DCD imagerel |$LN6|
	DCD	0x1200151
	;Flags[SingleProEpi] functionLength[336] RegF[0] RegI[0] H[0] frameChainReturn[UnChainedSavedLR] frameSize[32]
|$pdata$GICClearPendingIRQ| DCD imagerel |$LN4|
	DCD	0x80008d
	;Flags[SingleProEpi] functionLength[140] RegF[0] RegI[0] H[0] frameChainReturn[UnChained] frameSize[16]
|$pdata$GICReadIAR| DCD imagerel |$LN5|
	DCD	0x1200059
	;Flags[SingleProEpi] functionLength[88] RegF[0] RegI[0] H[0] frameChainReturn[UnChainedSavedLR] frameSize[32]
|$pdata$GICCheckPending| DCD imagerel |$LN4|
	DCD	0x800025
	;Flags[SingleProEpi] functionLength[36] RegF[0] RegI[0] H[0] frameChainReturn[UnChained] frameSize[16]
|$pdata$AuGICGetMSIAddress| DCD imagerel |$LN4|
	DCD	0x1200055
	;Flags[SingleProEpi] functionLength[84] RegF[0] RegI[0] H[0] frameChainReturn[UnChainedSavedLR] frameSize[32]
|$pdata$AuGICGetMSIData| DCD imagerel |$LN3|
	DCD	0x120002d
	;Flags[SingleProEpi] functionLength[44] RegF[0] RegI[0] H[0] frameChainReturn[UnChainedSavedLR] frameSize[32]
|$pdata$AuGICAllocateSPI| DCD imagerel |$LN7|
	DCD	0x12000d9
	;Flags[SingleProEpi] functionLength[216] RegF[0] RegI[0] H[0] frameChainReturn[UnChainedSavedLR] frameSize[32]
|$pdata$AuGICDeallocateSPI| DCD imagerel |$LN5|
	DCD	0x800091
	;Flags[SingleProEpi] functionLength[144] RegF[0] RegI[0] H[0] frameChainReturn[UnChained] frameSize[16]
|$pdata$GICSendEOI| DCD imagerel |$LN5|
	DCD	0x1200055
	;Flags[SingleProEpi] functionLength[84] RegF[0] RegI[0] H[0] frameChainReturn[UnChainedSavedLR] frameSize[32]
|$pdata$GICSetupTimer| DCD imagerel |$LN3|
	DCD	0xa000e9
	;Flags[SingleProEpi] functionLength[232] RegF[0] RegI[0] H[0] frameChainReturn[UnChainedSavedLR] frameSize[16]
|$pdata$GICSetTargetCPU| DCD imagerel |$LN4|
	DCD	0x10000f1
	;Flags[SingleProEpi] functionLength[240] RegF[0] RegI[0] H[0] frameChainReturn[UnChained] frameSize[32]
|$pdata$GICRegisterSPIHandler| DCD imagerel |$LN4|
	DCD	0x800065
	;Flags[SingleProEpi] functionLength[100] RegF[0] RegI[0] H[0] frameChainReturn[UnChained] frameSize[16]
|$pdata$GICCallSPIHandler| DCD imagerel |$LN4|
	DCD	0x1200075
	;Flags[SingleProEpi] functionLength[116] RegF[0] RegI[0] H[0] frameChainReturn[UnChainedSavedLR] frameSize[32]
|$pdata$gic_outqw| DCD imagerel |$LN3|
	DCD	0x1000039
	;Flags[SingleProEpi] functionLength[56] RegF[0] RegI[0] H[0] frameChainReturn[UnChained] frameSize[32]
|$pdata$gic_outl_| DCD imagerel |$LN3|
	DCD	0x1000039
	;Flags[SingleProEpi] functionLength[56] RegF[0] RegI[0] H[0] frameChainReturn[UnChained] frameSize[32]
|$pdata$gic_inl_| DCD imagerel |$LN3|
	DCD	0x1000031
	;Flags[SingleProEpi] functionLength[48] RegF[0] RegI[0] H[0] frameChainReturn[UnChained] frameSize[32]
|$pdata$gic_outw_| DCD imagerel |$LN3|
	DCD	0x1000045
	;Flags[SingleProEpi] functionLength[68] RegF[0] RegI[0] H[0] frameChainReturn[UnChained] frameSize[32]
|$pdata$gic_inw_| DCD imagerel |$LN3|
	DCD	0x1000039
	;Flags[SingleProEpi] functionLength[56] RegF[0] RegI[0] H[0] frameChainReturn[UnChained] frameSize[32]
|$pdata$gic_outb_| DCD imagerel |$LN3|
	DCD	0x100003d
	;Flags[SingleProEpi] functionLength[60] RegF[0] RegI[0] H[0] frameChainReturn[UnChained] frameSize[32]
|$pdata$gic_inb_| DCD imagerel |$LN3|
	DCD	0x1000031
	;Flags[SingleProEpi] functionLength[48] RegF[0] RegI[0] H[0] frameChainReturn[UnChained] frameSize[32]
|$pdata$GICv2MInitialize| DCD imagerel |$LN3|
	DCD	0x80001d
	;Flags[SingleProEpi] functionLength[28] RegF[0] RegI[0] H[0] frameChainReturn[UnChained] frameSize[16]
|$pdata$GICRInitialize| DCD imagerel |$LN14|
	DCD	0x22001a1
	;Flags[SingleProEpi] functionLength[416] RegF[0] RegI[0] H[0] frameChainReturn[UnChainedSavedLR] frameSize[64]
|$pdata$GICREnablePPI| DCD imagerel |$LN3|
	DCD	0x120005d
	;Flags[SingleProEpi] functionLength[92] RegF[0] RegI[0] H[0] frameChainReturn[UnChainedSavedLR] frameSize[32]
|$pdata$GICRSetPPIPriority| DCD imagerel |$LN3|
	DCD	0x1a000f5
	;Flags[SingleProEpi] functionLength[244] RegF[0] RegI[0] H[0] frameChainReturn[UnChainedSavedLR] frameSize[48]
|$pdata$GICSetEdgeTriggered| DCD imagerel |$LN3|
	DCD	0x10000d9
	;Flags[SingleProEpi] functionLength[216] RegF[0] RegI[0] H[0] frameChainReturn[UnChained] frameSize[32]
|$pdata$GICIsIRQEdgeTriggered| DCD imagerel |$LN7|
	DCD	0x12000e1
	;Flags[SingleProEpi] functionLength[224] RegF[0] RegI[0] H[0] frameChainReturn[UnChainedSavedLR] frameSize[32]

	AREA	|.data|, DATA
|$SG3456| DCB	"MSI Address : %x ", 0xa, 0x0
	%	5
|$SG3460| DCB	"GICGetMSIData: %d ", 0xa, 0x0
|$SG3548| DCB	"ic@", 0x0
|$SG3467| DCB	"[GIC]: Allocating SPI : %d , SPI_BASE : %d ", 0xa, 0x0
	%	3
|$SG3501| DCB	"Initializing GICR ", 0xd, 0xa, 0x0
	%	3
|$SG3502| DCB	"GICR : %x , cpu num : %d ", 0xd, 0xa, 0x0
|$SG3558| DCB	"reg", 0x0
|$SG3504| DCB	"Failed to initialize GIC Cpu interface ", 0xd, 0xa, 0x0
	%	6
|$SG3505| DCB	"GIC-R initialized ", 0xd, 0xa, 0x0
	%	3
|$SG3546| DCB	"Initializing GIC %x %x ", 0xd, 0xa, 0x0
	%	6
|$SG3550| DCB	"Interrupt controller node not found ", 0xd, 0xa, 0x0
	%	1
|$SG3551| DCB	"interrupt-controller@", 0x0
	%	2
|$SG3553| DCB	"Interrupt controller node not found on second fallback ", 0xd
	DCB	0xa, 0x0
	%	6
|$SG3554| DCB	"compatible", 0x0
	%	5
|$SG3556| DCB	"Interrupt controller found: %s ", 0xd, 0xa, 0x0
	%	6
|$SG3557| DCB	"#address-cells", 0x0
	%	1
|$SG3560| DCB	"GIC ADr: %x ", 0xd, 0xa, 0x0
	%	1
|$SG3561| DCB	"GIC Szs: %x ", 0xd, 0xa, 0x0
	%	1
|$SG3562| DCB	"GICD : %x, GICC : %x ", 0xd, 0xa, 0x0
|$SG3563| DCB	"GIC Addrsz : %d, sizesz : %d ", 0xd, 0xa, 0x0
|$SG3565| DCB	"[aurora]: No GIC MMIO found ", 0xd, 0xa, 0x0
	%	1
|$SG3570| DCB	"GIC Number of supported IRQ -> %d ", 0xd, 0xa, 0x0
	%	3
|$SG3572| DCB	"GIC already enabled ", 0xd, 0xa, 0x0
	%	1
|$SG3573| DCB	"[aurora]: Implementer : %x ", 0xd, 0xa, 0x0
	%	2
|$SG3574| DCB	"[aurora]: Revision : %x ", 0xd, 0xa, 0x0
	%	5
|$SG3579| DCB	"GIC Initialized ", 0xd, 0xa, 0x0
	%	5
|$SG3617| DCB	"IRQ : %d is level-sensitive ", 0xd, 0xa, 0x0
	%	1
|$SG3620| DCB	"IRQ : %d is edge-trigggered ", 0xd, 0xa, 0x0
	%	1
|$SG3621| DCB	"IRQ: %d is reserved or invalid config : %x ", 0xd, 0xa, 0x0
	%	2
|$SG3622| DCB	"IGROUP : %d ", 0xd, 0xa, 0x0
	%	1
|$SG3646| DCB	"IRQ : %d is level-sensitive ", 0xd, 0xa, 0x0
	%	1
|$SG3649| DCB	"IRQ : %d is edge-trigggered ", 0xd, 0xa, 0x0
	%	1
|$SG3650| DCB	"IRQ: %d is reserved or invalid config : %x ", 0xd, 0xa, 0x0
	%	2
|$SG3651| DCB	"ICFGR : %x ", 0xd, 0xa, 0x0
; Function compile flags: /Odtpy
; File C:\Users\paras\source\repos\grep-name\XenevaOS\KernelAA64\Hal\gic.c

	AREA	|.text$mn|, CODE, ARM64

|GICIsIRQEdgeTriggered| PROC

; 516  : void GICIsIRQEdgeTriggered(uint32_t irq) {

|$LN7|
	str         lr,[sp,#-0x10]!
	sub         sp,sp,#0x10
	str         w0,[sp]

; 517  : 	uint32_t icfgr = GICD_ICFGR(irq / 16);

	adrp        x8,__gic+#0x28
	ldr         x8,[x8,PageOffset(__gic)+#0x28]
	add         x10,x8,#0xC00
	ldr         w9,[sp]
	mov         w8,#0x10
	udiv        w9,w9,w8
	mov         w8,#4
	mul         w8,w9,w8
	uxtw        x8,w8
	add         x8,x10,x8
	ldr         w8,[x8]
	str         w8,[sp,#8]

; 518  : 	uint32_t shift = (irq % 16) * 2;

	ldr         w10,[sp]
	mov         w9,#0x10
	udiv        w8,w10,w9
	mul         w8,w8,w9
	sub         w9,w10,w8
	mov         w8,#2
	mul         w8,w9,w8
	str         w8,[sp,#0xC]

; 519  : 	uint32_t config_bits = (icfgr >> shift) & 0b11;

	ldr         w9,[sp,#8]
	ldr         w8,[sp,#0xC]
	lsr         w8,w9,w8
	and         w8,w8,#3
	str         w8,[sp,#4]

; 520  : 	if (config_bits == 0b00) {

	ldr         w8,[sp,#4]
	cmp         w8,#0
	bne         |$LN2@GICIsIRQEd|

; 521  : 		UARTDebugOut("IRQ : %d is level-sensitive \r\n", irq);

	ldr         w1,[sp]
	adrp        x8,|$SG3646|
	add         x0,x8,PageOffset(|$SG3646|)
	bl          UARTDebugOut

; 522  : 	}

	b           |$LN3@GICIsIRQEd|
|$LN2@GICIsIRQEd|

; 523  : 	else if (config_bits == 0b10) {

	ldr         w8,[sp,#4]
	cmp         w8,#2
	bne         |$LN4@GICIsIRQEd|

; 524  : 		UARTDebugOut("IRQ : %d is edge-trigggered \r\n", irq);

	ldr         w1,[sp]
	adrp        x8,|$SG3649|
	add         x0,x8,PageOffset(|$SG3649|)
	bl          UARTDebugOut

; 525  : 	}

	b           |$LN5@GICIsIRQEd|
|$LN4@GICIsIRQEd|

; 526  : 	else {
; 527  : 		UARTDebugOut("IRQ: %d is reserved or invalid config : %x \r\n", irq, config_bits);

	ldr         w2,[sp,#4]
	ldr         w1,[sp]
	adrp        x8,|$SG3650|
	add         x0,x8,PageOffset(|$SG3650|)
	bl          UARTDebugOut
|$LN5@GICIsIRQEd|
|$LN3@GICIsIRQEd|

; 528  : 	}
; 529  : 	UARTDebugOut("ICFGR : %x \r\n", icfgr);

	ldr         w1,[sp,#8]
	adrp        x8,|$SG3651|
	add         x0,x8,PageOffset(|$SG3651|)
	bl          UARTDebugOut
	add         sp,sp,#0x10
	ldr         lr,[sp],#0x10
	ret

	ENDP  ; |GICIsIRQEdgeTriggered|

; Function compile flags: /Odtpy
; File C:\Users\paras\source\repos\grep-name\XenevaOS\KernelAA64\Hal\gic.c

	AREA	|.text$mn|, CODE, ARM64

|GICSetEdgeTriggered| PROC

; 503  : void GICSetEdgeTriggered(uint32_t irq) {

|$LN3|
	sub         sp,sp,#0x20
	str         w0,[sp]

; 504  : 	uint32_t reg = irq / 32;

	ldr         w9,[sp]
	mov         w8,#0x20
	udiv        w8,w9,w8
	str         w8,[sp,#0x10]

; 505  : 	uint32_t bit = irq % 32;

	ldr         w10,[sp]
	mov         w9,#0x20
	udiv        w8,w10,w9
	mul         w8,w8,w9
	sub         w8,w10,w8
	str         w8,[sp,#0x14]

; 506  : 	volatile uint32_t* icfgr = &GICD_ICFGR(irq / 16);

	adrp        x8,__gic+#0x28
	ldr         x8,[x8,PageOffset(__gic)+#0x28]
	add         x10,x8,#0xC00
	ldr         w9,[sp]
	mov         w8,#0x10
	udiv        w9,w9,w8
	mov         w8,#4
	mul         w8,w9,w8
	uxtw        x8,w8
	add         x8,x10,x8
	str         x8,[sp,#0x18]

; 507  : 	uint32_t shift = (irq % 16) * 2;

	ldr         w10,[sp]
	mov         w9,#0x10
	udiv        w8,w10,w9
	mul         w8,w8,w9
	sub         w9,w10,w8
	mov         w8,#2
	mul         w8,w9,w8
	str         w8,[sp,#4]

; 508  : 
; 509  : 	uint32_t unsetLevelMask = ~(((uint32_t)0b01) << shift);

	mov         w9,#1
	ldr         w8,[sp,#4]
	lsl         w8,w9,w8
	mvn         w8,w8
	str         w8,[sp,#8]

; 510  : 	uint32_t setEdgeMask = ((uint32_t)0b10) << shift;

	mov         w9,#2
	ldr         w8,[sp,#4]
	lsl         w8,w9,w8
	str         w8,[sp,#0xC]

; 511  : 
; 512  : 	*icfgr &= unsetLevelMask;

	ldr         x8,[sp,#0x18]
	ldr         w9,[x8]
	ldr         w8,[sp,#8]
	and         w9,w9,w8
	ldr         x8,[sp,#0x18]
	str         w9,[x8]

; 513  : 	*icfgr |= setEdgeMask;

	ldr         x8,[sp,#0x18]
	ldr         w9,[x8]
	ldr         w8,[sp,#0xC]
	orr         w9,w9,w8
	ldr         x8,[sp,#0x18]
	str         w9,[x8]
	add         sp,sp,#0x20
	ret

	ENDP  ; |GICSetEdgeTriggered|

; Function compile flags: /Odtpy
; File C:\Users\paras\source\repos\grep-name\XenevaOS\KernelAA64\Hal\gic.c

	AREA	|.text$mn|, CODE, ARM64

|GICRSetPPIPriority| PROC

; 457  : void GICRSetPPIPriority(uint32_t cpu, uint32_t intid, uint8_t prio) {

|$LN3|
	str         lr,[sp,#-0x10]!
	sub         sp,sp,#0x20
	str         w0,[sp,#0x14]
	str         w1,[sp,#8]
	uxtb        w8,w2
	strb        w8,[sp]

; 458  : 	size_t sgi = GICR(__gic) + (cpu * GICR_STRIDE) + GICR_SGI_BASE;

	ldr         w9,[sp,#0x14]
	mov         w8,#0x20000
	mul         w8,w9,w8
	uxtw        x9,w8
	adrp        x8,__gic+#0x38
	ldr         x8,[x8,PageOffset(__gic)+#0x38]
	add         x8,x8,x9
	add         x8,x8,#0x10,lsl #0xC
	str         x8,[sp,#0x18]

; 459  : 	uint32_t reg = intid / 4;

	ldr         w9,[sp,#8]
	mov         w8,#4
	udiv        w8,w9,w8
	str         w8,[sp,#0x10]

; 460  : 	uint32_t shift = (intid % 4) * 8;

	ldr         w10,[sp,#8]
	mov         w9,#4
	udiv        w8,w10,w9
	mul         w8,w8,w9
	sub         w9,w10,w8
	mov         w8,#8
	mul         w8,w9,w8
	str         w8,[sp,#0xC]

; 461  : 	uint32_t val = gic_inl_(sgi, 0x400 + reg * 4);

	ldr         w9,[sp,#0x10]
	mov         w8,#4
	mul         w8,w9,w8
	add         w1,w8,#0x400
	mov         w1,w1
	ldr         x0,[sp,#0x18]
	bl          gic_inl_
	mov         w0,w0
	str         w0,[sp,#4]

; 462  : 	val &= ~(0xFFu << shift);

	mov         w9,#0xFF
	ldr         w8,[sp,#0xC]
	lsl         w8,w9,w8
	mvn         w9,w8
	ldr         w8,[sp,#4]
	and         w8,w8,w9
	str         w8,[sp,#4]

; 463  : 	val |= ((uint32_t)prio << shift);

	ldrb        w9,[sp]
	mov         w9,w9
	ldr         w8,[sp,#0xC]
	lsl         w9,w9,w8
	ldr         w8,[sp,#4]
	orr         w8,w8,w9
	str         w8,[sp,#4]

; 464  : 	gic_outl_(sgi, 0x400 + reg * 4, val);

	ldr         w9,[sp,#0x10]
	mov         w8,#4
	mul         w8,w9,w8
	add         w1,w8,#0x400
	ldr         w2,[sp,#4]
	mov         w1,w1
	ldr         x0,[sp,#0x18]
	bl          gic_outl_
	add         sp,sp,#0x20
	ldr         lr,[sp],#0x10
	ret

	ENDP  ; |GICRSetPPIPriority|

; Function compile flags: /Odtpy
; File C:\Users\paras\source\repos\grep-name\XenevaOS\KernelAA64\Hal\gic.c

	AREA	|.text$mn|, CODE, ARM64

|GICREnablePPI| PROC

; 452  : void GICREnablePPI(uint32_t cpu, uint32_t intid) {

|$LN3|
	str         lr,[sp,#-0x10]!
	sub         sp,sp,#0x10
	str         w0,[sp]
	str         w1,[sp,#4]

; 453  : 	size_t sgi = GICR(__gic) + (cpu * GICR_STRIDE) + GICR_SGI_BASE;

	ldr         w9,[sp]
	mov         w8,#0x20000
	mul         w8,w9,w8
	uxtw        x9,w8
	adrp        x8,__gic+#0x38
	ldr         x8,[x8,PageOffset(__gic)+#0x38]
	add         x8,x8,x9
	add         x8,x8,#0x10,lsl #0xC
	str         x8,[sp,#8]

; 454  : 	gic_outl_(sgi, 0x100, (1u << intid));

	mov         w9,#1
	ldr         w8,[sp,#4]
	lsl         w2,w9,w8
	mov         w2,w2
	mov         w1,#0x100
	ldr         x0,[sp,#8]
	bl          gic_outl_
	add         sp,sp,#0x10
	ldr         lr,[sp],#0x10
	ret

	ENDP  ; |GICREnablePPI|

; Function compile flags: /Odtpy
; File C:\Users\paras\source\repos\grep-name\XenevaOS\KernelAA64\Hal\gic.c

	AREA	|.text$mn|, CODE, ARM64

|GICRInitialize| PROC

; 269  : void GICRInitialize(int cpu_num) {

|$LN14|
	str         lr,[sp,#-0x10]!
	sub         sp,sp,#0x30
	str         w0,[sp,#8]

; 270  : 	AuTextOut("Initializing GICR \r\n");

	adrp        x8,|$SG3501|
	add         x0,x8,PageOffset(|$SG3501|)
	bl          AuTextOut

; 271  : 	uint64_t* gicr = (uint64_t*)GICR(__gic) + (cpu_num * GICR_STRIDE);

	ldr         w9,[sp,#8]
	mov         w8,#0x20000
	mul         w8,w9,w8
	uxtw        x9,w8
	mov         x8,#8
	mul         x9,x9,x8
	adrp        x8,__gic+#0x38
	ldr         x8,[x8,PageOffset(__gic)+#0x38]
	add         x8,x8,x9
	str         x8,[sp,#0x10]

; 272  : 	uint64_t* sgi = (uint64_t*)((uint64_t)gicr + GICR_SGI_BASE);

	ldr         x8,[sp,#0x10]
	add         x8,x8,#0x10,lsl #0xC
	str         x8,[sp,#0x18]

; 273  : 
; 274  : 	uint64_t gicr_typer = gic_inl_(gicr, GICR_TYPER);

	mov         w1,#8
	ldr         x0,[sp,#0x10]
	bl          gic_inl_
	mov         w0,w0
	uxtw        x8,w0
	str         x8,[sp,#0x20]

; 275  : 	uint32_t proc_num = (uint32_t)((gicr_typer >> 80) & 0xFFFF);

	ldr         x9,[sp,#0x20]
	mov         x8,#0x50
	lsr         x8,x9,x8
	and         x8,x8,#0xFFFF
	mov         w8,w8
	str         w8,[sp,#0xC]

; 276  : 	AuTextOut("GICR : %x , cpu num : %d \r\n", gicr, proc_num);

	ldr         w2,[sp,#0xC]
	ldr         x1,[sp,#0x10]
	adrp        x8,|$SG3502|
	add         x0,x8,PageOffset(|$SG3502|)
	bl          AuTextOut

; 277  : 	uint32_t waker = gic_inl_(gicr, GICR_WAKER);

	mov         w1,#0x14
	ldr         x0,[sp,#0x10]
	bl          gic_inl_
	mov         w0,w0
	str         w0,[sp,#4]

; 278  : 	waker &= ~GICR_WAKER_PS;

	ldr         w8,[sp,#4]
	and         w8,w8,#0xFFFFFFFD
	str         w8,[sp,#4]

; 279  : 	gic_outl_(gicr, GICR_WAKER, waker);

	ldr         w2,[sp,#4]
	mov         w1,#0x14
	ldr         x0,[sp,#0x10]
	bl          gic_outl_
|$LN2@GICRInitia|

; 280  : 	while (gic_inl_(gicr, GICR_WAKER) & GICR_WAKER_CA);

	mov         w1,#0x14
	ldr         x0,[sp,#0x10]
	bl          gic_inl_
	mov         w0,w0
	tbz         x0,#2,|$LN3@GICRInitia|
	b           |$LN2@GICRInitia|
|$LN3@GICRInitia|

; 281  : 
; 282  : 	gic_outl_(gicr, GICR_IGROUPR0, 0xFFFFFFFF);

	mov         w2,#-1
	ldr         w1,|$LN11@GICRInitia|
	ldr         x0,[sp,#0x10]
	bl          gic_outl_

; 283  : 
; 284  : 	gic_outl_(sgi, 0x0D00, 0x00000000);

	mov         w2,#0
	mov         w1,#0xD00
	ldr         x0,[sp,#0x18]
	bl          gic_outl_

; 285  : 
; 286  : 
; 287  : 	gic_outl_(gicr, GICR_ICENABLER0, 0xFFFF0000);

	mov         w2,#0xFFFF0000
	ldr         w1,|$LN12@GICRInitia|
	ldr         x0,[sp,#0x10]
	bl          gic_outl_
|$LN4@GICRInitia|

; 288  : 	
; 289  : 	while (gic_inl_(gicr, GICR_CTLR) & GICR_CTLR_RWP);

	mov         w1,#0
	ldr         x0,[sp,#0x10]
	bl          gic_inl_
	mov         w0,w0
	tbz         x0,#3,|$LN5@GICRInitia|
	b           |$LN4@GICRInitia|
|$LN5@GICRInitia|

; 290  : 
; 291  : 	for (int i = 0; i < 8; i++)

	mov         w8,#0
	str         w8,[sp]
	b           |$LN8@GICRInitia|
|$LN6@GICRInitia|
	ldr         w8,[sp]
	add         w8,w8,#1
	str         w8,[sp]
|$LN8@GICRInitia|
	ldr         w8,[sp]
	cmp         w8,#8
	bge         |$LN7@GICRInitia|

; 292  : 		gic_outl_(sgi, GICR_IPRIORITYR(i), 0xA0A0A0A0);

	ldr         w9,[sp]
	mov         w8,#4
	mul         w8,w9,w8
	add         w8,w8,#0x10,lsl #0xC
	add         w1,w8,#0x400
	ldr         w2,|$LN13@GICRInitia|
	mov         w1,w1
	ldr         x0,[sp,#0x18]
	bl          gic_outl_
	b           |$LN6@GICRInitia|
|$LN7@GICRInitia|

; 293  : 
; 294  : 	/** initialize the cpu interface **/
; 295  : 	if (gic_cpu_init())

	bl          gic_cpu_init
	mov         w0,w0
	cmp         w0,#0
	beq         |$LN9@GICRInitia|

; 296  : 		AuTextOut("Failed to initialize GIC Cpu interface \r\n");

	adrp        x8,|$SG3504|
	add         x0,x8,PageOffset(|$SG3504|)
	bl          AuTextOut
|$LN9@GICRInitia|

; 297  : 
; 298  : 	AuTextOut("GIC-R initialized \r\n");

	adrp        x8,|$SG3505|
	add         x0,x8,PageOffset(|$SG3505|)
	bl          AuTextOut
	add         sp,sp,#0x30
	ldr         lr,[sp],#0x10
	ret
|$LN11@GICRInitia|
	DCD         0x10080
|$LN12@GICRInitia|
	DCD         0x10180
|$LN13@GICRInitia|
	DCD         0xa0a0a0a0

	ENDP  ; |GICRInitialize|

; Function compile flags: /Odtpy
; File C:\Users\paras\source\repos\grep-name\XenevaOS\KernelAA64\Hal\gic.c

	AREA	|.text$mn|, CODE, ARM64

|GICVerifyVersion| PROC

; 247  : #ifdef __TARGET_BOARD_QEMU_VIRT__
; 248  : 	return GIC_VERSION_2;

	mov         w0,#2
	ret

	ENDP  ; |GICVerifyVersion|

; Function compile flags: /Odtpy
; File C:\Users\paras\source\repos\grep-name\XenevaOS\KernelAA64\Hal\gic.c

	AREA	|.text$mn|, CODE, ARM64

|GICv2MInitialize| PROC

; 236  : void GICv2MInitialize() {

|$LN3|
	sub         sp,sp,#0x10

; 237  : 	uint32_t typer = *(volatile uint32_t*)__gic.gicMSIPhys;

	adrp        x8,__gic+#0x20
	ldr         x8,[x8,PageOffset(__gic)+#0x20]
	ldr         w8,[x8]
	str         w8,[sp]
	add         sp,sp,#0x10
	ret

	ENDP  ; |GICv2MInitialize|

; Function compile flags: /Odtpy
; File C:\Users\paras\source\repos\grep-name\XenevaOS\KernelAA64\Hal\gic.c

	AREA	|.text$mn|, CODE, ARM64

|gic_inb_| PROC

; 177  : uint8_t gic_inb_(uint64_t* mmio_, int reg) {

|$LN3|
	sub         sp,sp,#0x20
	str         x0,[sp,#8]
	str         w1,[sp]

; 178  : 	volatile uint8_t* mmio = (volatile uint8_t*)((uint64_t)mmio_ + reg);

	ldr         w8,[sp]
	sxtw        x9,w8
	ldr         x8,[sp,#8]
	add         x8,x8,x9
	str         x8,[sp,#0x10]

; 179  : 	return *mmio;

	ldr         x8,[sp,#0x10]
	ldrb        w0,[x8]
	add         sp,sp,#0x20
	ret

	ENDP  ; |gic_inb_|

; Function compile flags: /Odtpy
; File C:\Users\paras\source\repos\grep-name\XenevaOS\KernelAA64\Hal\gic.c

	AREA	|.text$mn|, CODE, ARM64

|gic_outb_| PROC

; 166  : void gic_outb_(uint64_t* mmio_, int reg, uint8_t value) {

|$LN3|
	sub         sp,sp,#0x20
	str         x0,[sp,#8]
	str         w1,[sp,#4]
	uxtb        w8,w2
	strb        w8,[sp]

; 167  : 
; 168  : 	volatile uint8_t* mmio = (volatile uint8_t*)((uint64_t)mmio_ + reg);

	ldr         w8,[sp,#4]
	sxtw        x9,w8
	ldr         x8,[sp,#8]
	add         x8,x8,x9
	str         x8,[sp,#0x10]

; 169  : 	*mmio = value;

	ldr         x9,[sp,#0x10]
	ldrb        w8,[sp]
	strb        w8,[x9]
	add         sp,sp,#0x20
	ret

	ENDP  ; |gic_outb_|

; Function compile flags: /Odtpy
; File C:\Users\paras\source\repos\grep-name\XenevaOS\KernelAA64\Hal\gic.c

	AREA	|.text$mn|, CODE, ARM64

|gic_inw_| PROC

; 155  : uint16_t gic_inw_(uint64_t* mmio_,int reg) {

|$LN3|
	sub         sp,sp,#0x20
	str         x0,[sp,#8]
	str         w1,[sp]

; 156  : 	volatile uint16_t* mmio = (volatile uint16_t*)(mmio_ + reg);

	ldr         w8,[sp]
	sxtw        x9,w8
	mov         x8,#8
	mul         x9,x9,x8
	ldr         x8,[sp,#8]
	add         x8,x8,x9
	str         x8,[sp,#0x10]

; 157  : 	return *mmio;

	ldr         x8,[sp,#0x10]
	ldrh        w0,[x8]
	add         sp,sp,#0x20
	ret

	ENDP  ; |gic_inw_|

; Function compile flags: /Odtpy
; File C:\Users\paras\source\repos\grep-name\XenevaOS\KernelAA64\Hal\gic.c

	AREA	|.text$mn|, CODE, ARM64

|gic_outw_| PROC

; 145  : void gic_outw_(uint64_t* mmio_, int reg, uint16_t value) {

|$LN3|
	sub         sp,sp,#0x20
	str         x0,[sp,#8]
	str         w1,[sp,#4]
	uxth        w8,w2
	strh        w8,[sp]

; 146  : 	volatile uint16_t* mmio = (volatile uint16_t*)(mmio_ + reg);

	ldr         w8,[sp,#4]
	sxtw        x9,w8
	mov         x8,#8
	mul         x9,x9,x8
	ldr         x8,[sp,#8]
	add         x8,x8,x9
	str         x8,[sp,#0x10]

; 147  : 	*mmio = value;

	ldr         x9,[sp,#0x10]
	ldrh        w8,[sp]
	strh        w8,[x9]
	add         sp,sp,#0x20
	ret

	ENDP  ; |gic_outw_|

; Function compile flags: /Odtpy
; File C:\Users\paras\source\repos\grep-name\XenevaOS\KernelAA64\Hal\gic.c

	AREA	|.text$mn|, CODE, ARM64

|gic_inl_| PROC

; 135  : uint32_t gic_inl_(uint64_t* mmio_, int reg) {

|$LN3|
	sub         sp,sp,#0x20
	str         x0,[sp,#8]
	str         w1,[sp]

; 136  : 	volatile uint32_t* mmio = (volatile uint32_t*)((uint64_t)mmio_ + reg);

	ldr         w8,[sp]
	sxtw        x9,w8
	ldr         x8,[sp,#8]
	add         x8,x8,x9
	str         x8,[sp,#0x10]

; 137  : 	return *mmio;

	ldr         x8,[sp,#0x10]
	ldr         w0,[x8]
	add         sp,sp,#0x20
	ret

	ENDP  ; |gic_inl_|

; Function compile flags: /Odtpy
; File C:\Users\paras\source\repos\grep-name\XenevaOS\KernelAA64\Hal\gic.c

	AREA	|.text$mn|, CODE, ARM64

|gic_outl_| PROC

; 125  : void gic_outl_(uint64_t* mmio_,int reg, uint32_t value) {

|$LN3|
	sub         sp,sp,#0x20
	str         x0,[sp,#8]
	str         w1,[sp]
	str         w2,[sp,#4]

; 126  : 	volatile uint32_t* mmio = (volatile uint32_t*)((uint64_t)mmio_ + reg);

	ldr         w8,[sp]
	sxtw        x9,w8
	ldr         x8,[sp,#8]
	add         x8,x8,x9
	str         x8,[sp,#0x10]

; 127  : 	*mmio = value;

	ldr         x9,[sp,#0x10]
	ldr         w8,[sp,#4]
	str         w8,[x9]
	add         sp,sp,#0x20
	ret

	ENDP  ; |gic_outl_|

; Function compile flags: /Odtpy
; File C:\Users\paras\source\repos\grep-name\XenevaOS\KernelAA64\Hal\gic.c

	AREA	|.text$mn|, CODE, ARM64

|gic_outqw| PROC

; 116  : void gic_outqw(uint64_t* mmio_, int reg, uint64_t value) {

|$LN3|
	sub         sp,sp,#0x20
	str         x0,[sp,#8]
	str         w1,[sp]
	str         x2,[sp,#0x18]

; 117  : 	volatile uint64_t* mmio = (volatile uint64_t*)((uint64_t)mmio_ + reg);

	ldr         w8,[sp]
	sxtw        x9,w8
	ldr         x8,[sp,#8]
	add         x8,x8,x9
	str         x8,[sp,#0x10]

; 118  : 	*mmio = value;

	ldr         x9,[sp,#0x10]
	ldr         x8,[sp,#0x18]
	str         x8,[x9]
	add         sp,sp,#0x20
	ret

	ENDP  ; |gic_outqw|

; Function compile flags: /Odtpy
; File C:\Users\paras\source\repos\grep-name\XenevaOS\KernelAA64\Hal\gic.c

	AREA	|.text$mn|, CODE, ARM64

|GICCallSPIHandler| PROC

; 661  : void GICCallSPIHandler(int spi) {

|$LN4|
	str         lr,[sp,#-0x10]!
	sub         sp,sp,#0x10
	str         w0,[sp]

; 662  : 	if (!callbacks[spi]) 

	ldr         w8,[sp]
	sxtw        x9,w8
	mov         x8,#8
	mul         x9,x9,x8
	adrp        x8,callbacks
	add         x8,x8,PageOffset(callbacks)
	add         x8,x8,x9
	ldr         x8,[x8]
	cmp         x8,#0
	bne         |$LN2@GICCallSPI|

; 663  : 		return;

	b           |$LN1@GICCallSPI|
|$LN2@GICCallSPI|

; 664  : 	irq_callback call = callbacks[spi];

	ldr         w8,[sp]
	sxtw        x9,w8
	mov         x8,#8
	mul         x9,x9,x8
	adrp        x8,callbacks
	add         x8,x8,PageOffset(callbacks)
	add         x8,x8,x9
	ldr         x8,[x8]
	str         x8,[sp,#8]

; 665  : 	call(spi);

	ldr         w0,[sp]
	ldr         x8,[sp,#8]
	blr         x8
|$LN1@GICCallSPI|
	add         sp,sp,#0x10
	ldr         lr,[sp],#0x10
	ret

	ENDP  ; |GICCallSPIHandler|

; Function compile flags: /Odtpy
; File C:\Users\paras\source\repos\grep-name\XenevaOS\KernelAA64\Hal\gic.c

	AREA	|.text$mn|, CODE, ARM64

|GICRegisterSPIHandler| PROC

; 650  : void GICRegisterSPIHandler(void* fptr, int spi) {

|$LN4|
	sub         sp,sp,#0x10
	str         x0,[sp,#8]
	str         w1,[sp]

; 651  : 	if (callbacks[spi])

	ldr         w8,[sp]
	sxtw        x9,w8
	mov         x8,#8
	mul         x9,x9,x8
	adrp        x8,callbacks
	add         x8,x8,PageOffset(callbacks)
	add         x8,x8,x9
	ldr         x8,[x8]
	cmp         x8,#0
	beq         |$LN2@GICRegiste|

; 652  : 		return;

	b           |$LN1@GICRegiste|
|$LN2@GICRegiste|

; 653  : 	callbacks[spi] = fptr;

	ldr         w8,[sp]
	sxtw        x9,w8
	mov         x8,#8
	mul         x9,x9,x8
	adrp        x8,callbacks
	add         x8,x8,PageOffset(callbacks)
	add         x9,x8,x9
	ldr         x8,[sp,#8]
	str         x8,[x9]
|$LN1@GICRegiste|
	add         sp,sp,#0x10
	ret

	ENDP  ; |GICRegisterSPIHandler|

; Function compile flags: /Odtpy
; File C:\Users\paras\source\repos\grep-name\XenevaOS\KernelAA64\Hal\gic.c

	AREA	|.text$mn|, CODE, ARM64

|GICSetTargetCPU| PROC

; 565  : void GICSetTargetCPU(int spi) {

|$LN4|
	sub         sp,sp,#0x20
	str         w0,[sp,#8]

; 566  : 	if (__gic.version >= GIC_VERSION_3)

	adrp        x8,__gic
	ldrb        w8,[x8,PageOffset(__gic)]
	mov         w8,w8
	cmp         w8,#3
	blt         |$LN2@GICSetTarg|

; 567  : 		return;

	b           |$LN1@GICSetTarg|
|$LN2@GICSetTarg|

; 568  : 
; 569  : 	uint32_t reg_index = spi / 4;

	ldr         w9,[sp,#8]
	mov         w8,#4
	sdiv        w8,w9,w8
	str         w8,[sp,#0x10]

; 570  : 	uint32_t byteShift = spi % 4;

	ldr         w10,[sp,#8]
	mov         w9,#4
	sdiv        w8,w10,w9
	mul         w8,w8,w9
	sub         w8,w10,w8
	str         w8,[sp,#0xC]

; 571  : 
; 572  : 	uint32_t val = GICD_ITARGETSR(reg_index);

	adrp        x8,__gic+#0x28
	ldr         x8,[x8,PageOffset(__gic)+#0x28]
	add         x10,x8,#0x800
	ldr         w9,[sp,#0x10]
	mov         w8,#4
	mul         w8,w9,w8
	uxtw        x8,w8
	add         x8,x10,x8
	ldr         w8,[x8]
	str         w8,[sp,#4]

; 573  : 	uint8_t cpu_mask = 1 << 0x01; //cpu0

	mov         w8,#2
	strb        w8,[sp]

; 574  : 	val &= ~(0xFF << (byteShift * 8));

	ldr         w9,[sp,#0xC]
	mov         w8,#8
	mul         w9,w9,w8
	mov         w8,#0xFF
	lsl         w8,w8,w9
	mvn         w9,w8
	ldr         w8,[sp,#4]
	and         w8,w8,w9
	str         w8,[sp,#4]

; 575  : 	val |= (cpu_mask << (byteShift * 8));

	ldrb        w10,[sp]
	mov         w10,w10
	ldr         w9,[sp,#0xC]
	mov         w8,#8
	mul         w8,w9,w8
	lsl         w9,w10,w8
	ldr         w8,[sp,#4]
	orr         w8,w8,w9
	str         w8,[sp,#4]

; 576  : 	GICD_ITARGETSR(reg_index) = val;

	adrp        x8,__gic+#0x28
	ldr         x8,[x8,PageOffset(__gic)+#0x28]
	add         x10,x8,#0x800
	ldr         w9,[sp,#0x10]
	mov         w8,#4
	mul         w8,w9,w8
	uxtw        x8,w8
	add         x9,x10,x8
	ldr         w8,[sp,#4]
	str         w8,[x9]
|$LN1@GICSetTarg|
	add         sp,sp,#0x20
	ret

	ENDP  ; |GICSetTargetCPU|

; Function compile flags: /Odtpy
; File C:\Users\paras\source\repos\grep-name\XenevaOS\KernelAA64\Hal\gic.c

	AREA	|.text$mn|, CODE, ARM64

|GICSetupTimer| PROC

; 627  : void GICSetupTimer() {

|$LN3|
	str         lr,[sp,#-0x10]!

; 628  : 	mask_irqs();

	bl          mask_irqs

; 629  : 	setupTimerIRQ();

	bl          setupTimerIRQ

; 630  : 	gic_regs[0] = 1;

	adrp        x8,gic_regs
	ldr         x9,[x8,PageOffset(gic_regs)]
	mov         w8,#1
	str         w8,[x9]

; 631  : 	gicc_regs[0] = 1;

	adrp        x8,gicc_regs
	ldr         x9,[x8,PageOffset(gicc_regs)]
	mov         w8,#1
	str         w8,[x9]

; 632  : 	gicc_regs[1] = 0x1FF;

	adrp        x8,gicc_regs
	ldr         x8,[x8,PageOffset(gicc_regs)]
	add         x9,x8,#4
	mov         w8,#0x1FF
	str         w8,[x9]

; 633  : 
; 634  : 	gic_regs[64] = 0xFFFFffff;

	adrp        x8,gic_regs
	ldr         x8,[x8,PageOffset(gic_regs)]
	add         x9,x8,#0x100
	mov         w8,#-1
	str         w8,[x9]

; 635  : 	gic_regs[160] = 0xFFFFffff;

	adrp        x8,gic_regs
	ldr         x8,[x8,PageOffset(gic_regs)]
	add         x9,x8,#0x280
	mov         w8,#-1
	str         w8,[x9]

; 636  : 	gic_regs[65] = 0xFFFFFFFF;

	adrp        x8,gic_regs
	ldr         x8,[x8,PageOffset(gic_regs)]
	add         x9,x8,#0x104
	mov         w8,#-1
	str         w8,[x9]

; 637  : 	gic_regs[66] = 0xFFFFFFFF;

	adrp        x8,gic_regs
	ldr         x8,[x8,PageOffset(gic_regs)]
	add         x9,x8,#0x108
	mov         w8,#-1
	str         w8,[x9]

; 638  : 	gic_regs[67] = 0xFFFFFFFF;

	adrp        x8,gic_regs
	ldr         x8,[x8,PageOffset(gic_regs)]
	add         x9,x8,#0x10C
	mov         w8,#-1
	str         w8,[x9]

; 639  : 	gic_regs[520] = 0x07070707;

	adrp        x8,gic_regs
	ldr         x8,[x8,PageOffset(gic_regs)]
	add         x9,x8,#0x820
	mov         w8,#0x7070707
	str         w8,[x9]

; 640  : 	gic_regs[521] = 0x07070707;

	adrp        x8,gic_regs
	ldr         x8,[x8,PageOffset(gic_regs)]
	add         x9,x8,#0x824
	mov         w8,#0x7070707
	str         w8,[x9]

; 641  : 	gic_regs[543] = 0x07070707;

	adrp        x8,gic_regs
	ldr         x8,[x8,PageOffset(gic_regs)]
	add         x9,x8,#0x87C
	mov         w8,#0x7070707
	str         w8,[x9]
	ldr         lr,[sp],#0x10
	ret

	ENDP  ; |GICSetupTimer|

; Function compile flags: /Odtpy
; File C:\Users\paras\source\repos\grep-name\XenevaOS\KernelAA64\Hal\gic.c

	AREA	|.text$mn|, CODE, ARM64

|GICSendEOI| PROC

; 613  : void GICSendEOI(uint32_t irqnum) {

|$LN5|
	str         lr,[sp,#-0x10]!
	sub         sp,sp,#0x10
	str         w0,[sp]

; 614  : 	if (__gic.version >= GIC_VERSION_3)

	adrp        x8,__gic
	ldrb        w8,[x8,PageOffset(__gic)]
	mov         w8,w8
	cmp         w8,#3
	blt         |$LN2@GICSendEOI|

; 615  : 		gic_icc_eoi(irqnum);

	ldr         w0,[sp]
	bl          gic_icc_eoi
	b           |$LN3@GICSendEOI|
|$LN2@GICSendEOI|

; 616  : 	else {
; 617  : #define GICV2_CPUID_SHIFT 10
; 618  : 		//UARTDebugOut("GICEOI REG : %x \n", (GICC(__gic) + 0x10));
; 619  : 		//GICClearPendingIRQ(irqnum);
; 620  : 		* (volatile uint32_t*)(GICC(__gic) + 0x10) = irqnum;

	adrp        x8,__gic+#0x30
	ldr         x8,[x8,PageOffset(__gic)+#0x30]
	add         x9,x8,#0x10
	ldr         w8,[sp]
	str         w8,[x9]

; 621  : 		//UARTDebugOut("3N : %d \n", (*(volatile uint32_t*)(GICC(__gic) + 0x10)));
; 622  : 		dsb_ish();

	bl          dsb_ish

; 623  : 		isb_flush();

	bl          isb_flush
|$LN3@GICSendEOI|
	add         sp,sp,#0x10
	ldr         lr,[sp],#0x10
	ret

	ENDP  ; |GICSendEOI|

; Function compile flags: /Odtpy
; File C:\Users\paras\source\repos\grep-name\XenevaOS\KernelAA64\Hal\gic.c

	AREA	|.text$mn|, CODE, ARM64

|AuGICDeallocateSPI| PROC

; 225  : void AuGICDeallocateSPI(int spiID) {

|$LN5|
	sub         sp,sp,#0x10
	str         w0,[sp]

; 226  : 	if (spiID < __gic.spiBase || spiID >= (__gic.spiBase + __gic.spiCount))

	adrp        x8,__gic+#0x48
	ldrh        w9,[x8,PageOffset(__gic)+#0x48]
	mov         w9,w9
	ldr         w8,[sp]
	cmp         w8,w9
	blt         |$LN3@AuGICDeall|
	adrp        x8,__gic+#0x48
	ldrh        w9,[x8,PageOffset(__gic)+#0x48]
	mov         w9,w9
	adrp        x8,__gic+#0x4A
	ldrh        w8,[x8,PageOffset(__gic)+#0x4A]
	mov         w8,w8
	add         w9,w9,w8
	ldr         w8,[sp]
	cmp         w8,w9
	blt         |$LN2@AuGICDeall|
|$LN3@AuGICDeall|

; 227  : 		return;

	b           |$LN1@AuGICDeall|
|$LN2@AuGICDeall|

; 228  : 	uint32_t index = spiID - __gic.spiBase;

	adrp        x8,__gic+#0x48
	ldrh        w9,[x8,PageOffset(__gic)+#0x48]
	mov         w9,w9
	ldr         w8,[sp]
	sub         w8,w8,w9
	str         w8,[sp,#4]

; 229  : 	spiBitMap[index] = 0;

	ldr         w8,[sp,#4]
	uxtw        x9,w8
	mov         x8,#1
	mul         x9,x9,x8
	adrp        x8,spiBitMap
	add         x8,x8,PageOffset(spiBitMap)
	add         x9,x8,x9
	mov         w8,#0
	strb        w8,[x9]
|$LN1@AuGICDeall|
	add         sp,sp,#0x10
	ret

	ENDP  ; |AuGICDeallocateSPI|

; Function compile flags: /Odtpy
; File C:\Users\paras\source\repos\grep-name\XenevaOS\KernelAA64\Hal\gic.c

	AREA	|.text$mn|, CODE, ARM64

|AuGICAllocateSPI| PROC

; 210  : int AuGICAllocateSPI() {

|$LN7|
	str         lr,[sp,#-0x10]!
	sub         sp,sp,#0x10

; 211  : 	for (uint32_t i = 0; i < __gic.spiCount; i++) {

	mov         w8,#0
	str         w8,[sp]
	b           |$LN4@AuGICAlloc|
|$LN2@AuGICAlloc|
	ldr         w8,[sp]
	add         w8,w8,#1
	str         w8,[sp]
|$LN4@AuGICAlloc|
	adrp        x8,__gic+#0x4A
	ldrh        w9,[x8,PageOffset(__gic)+#0x4A]
	mov         w9,w9
	ldr         w8,[sp]
	cmp         w8,w9
	bhs         |$LN3@AuGICAlloc|

; 212  : 		if (spiBitMap[i] == 0) {

	ldr         w8,[sp]
	uxtw        x9,w8
	mov         x8,#1
	mul         x9,x9,x8
	adrp        x8,spiBitMap
	add         x8,x8,PageOffset(spiBitMap)
	add         x8,x8,x9
	ldrb        w8,[x8]
	mov         w8,w8
	cmp         w8,#0
	bne         |$LN5@AuGICAlloc|

; 213  : 			spiBitMap[i] = 1;

	ldr         w8,[sp]
	uxtw        x9,w8
	mov         x8,#1
	mul         x9,x9,x8
	adrp        x8,spiBitMap
	add         x8,x8,PageOffset(spiBitMap)
	add         x9,x8,x9
	mov         w8,#1
	strb        w8,[x9]

; 214  : 			UARTDebugOut("[GIC]: Allocating SPI : %d , SPI_BASE : %d \n", i, __gic.spiBase);

	adrp        x8,__gic+#0x48
	ldrh        w2,[x8,PageOffset(__gic)+#0x48]
	mov         w2,w2
	mov         w2,w2
	ldr         w1,[sp]
	adrp        x8,|$SG3467|
	add         x0,x8,PageOffset(|$SG3467|)
	bl          UARTDebugOut

; 215  : 			return __gic.spiBase + i;

	adrp        x8,__gic+#0x48
	ldrh        w9,[x8,PageOffset(__gic)+#0x48]
	mov         w9,w9
	ldr         w8,[sp]
	add         w0,w9,w8
	mov         w0,w0
	b           |$LN1@AuGICAlloc|
|$LN5@AuGICAlloc|

; 216  : 		}
; 217  : 	}

	b           |$LN2@AuGICAlloc|
|$LN3@AuGICAlloc|

; 218  : 	return -1;

	mov         w0,#-1
|$LN1@AuGICAlloc|
	add         sp,sp,#0x10
	ldr         lr,[sp],#0x10
	ret

	ENDP  ; |AuGICAllocateSPI|

; Function compile flags: /Odtpy
; File C:\Users\paras\source\repos\grep-name\XenevaOS\KernelAA64\Hal\gic.c

	AREA	|.text$mn|, CODE, ARM64

|AuGICGetMSIData| PROC

; 201  : uint32_t AuGICGetMSIData(int interruptID) {

|$LN3|
	str         lr,[sp,#-0x10]!
	sub         sp,sp,#0x10
	str         w0,[sp]

; 202  : 	UARTDebugOut("GICGetMSIData: %d \n", interruptID);

	ldr         w1,[sp]
	adrp        x8,|$SG3460|
	add         x0,x8,PageOffset(|$SG3460|)
	bl          UARTDebugOut

; 203  : 	return interruptID;

	ldr         w0,[sp]
	add         sp,sp,#0x10
	ldr         lr,[sp],#0x10
	ret

	ENDP  ; |AuGICGetMSIData|

; Function compile flags: /Odtpy
; File C:\Users\paras\source\repos\grep-name\XenevaOS\KernelAA64\Hal\gic.c

	AREA	|.text$mn|, CODE, ARM64

|AuGICGetMSIAddress| PROC

; 194  : uint64_t AuGICGetMSIAddress(int interruptID) {

|$LN4|
	str         lr,[sp,#-0x10]!
	sub         sp,sp,#0x10
	str         w0,[sp]

; 195  : 	if (__gic.gicMSIPhys == 0)

	adrp        x8,__gic+#0x20
	ldr         x8,[x8,PageOffset(__gic)+#0x20]
	cmp         x8,#0
	bne         |$LN2@AuGICGetMS|

; 196  : 		return 0;

	mov         x0,#0
	b           |$LN1@AuGICGetMS|
|$LN2@AuGICGetMS|

; 197  : 	UARTDebugOut("MSI Address : %x \n", __gic.gicMSIPhys + 0x040);

	adrp        x8,__gic+#0x20
	ldr         x8,[x8,PageOffset(__gic)+#0x20]
	add         x1,x8,#0x40
	adrp        x8,|$SG3456|
	add         x0,x8,PageOffset(|$SG3456|)
	bl          UARTDebugOut

; 198  : 	return (__gic.gicMSIPhys + SET_SPI_NS);

	adrp        x8,__gic+#0x20
	ldr         x8,[x8,PageOffset(__gic)+#0x20]
	add         x0,x8,#0x40
|$LN1@AuGICGetMS|
	add         sp,sp,#0x10
	ldr         lr,[sp],#0x10
	ret

	ENDP  ; |AuGICGetMSIAddress|

; Function compile flags: /Odtpy
; File C:\Users\paras\source\repos\grep-name\XenevaOS\KernelAA64\Hal\gic.c

	AREA	|.text$mn|, CODE, ARM64

|GICCheckPending| PROC

; 588  : void GICCheckPending(uint32_t irq) {

|$LN4|
	sub         sp,sp,#0x10
	str         w0,[sp]

; 589  : 	uint32_t pend = *(volatile uint32_t*)(GICD(__gic) + ISPENDING0);

	adrp        x8,__gic+#0x28
	ldr         x8,[x8,PageOffset(__gic)+#0x28]
	add         x8,x8,#0x200
	ldr         w8,[x8]
	str         w8,[sp,#4]
	add         sp,sp,#0x10
	ret

	ENDP  ; |GICCheckPending|

; Function compile flags: /Odtpy
; File C:\Users\paras\source\repos\grep-name\XenevaOS\KernelAA64\Hal\gic.c

	AREA	|.text$mn|, CODE, ARM64

|GICReadIAR| PROC

; 599  : uint32_t GICReadIAR() {

|$LN5|
	str         lr,[sp,#-0x10]!
	sub         sp,sp,#0x10

; 600  : 	uint32_t iar = 0;

	mov         w8,#0
	str         w8,[sp]

; 601  : 	if (__gic.version >= GIC_VERSION_3)

	adrp        x8,__gic
	ldrb        w8,[x8,PageOffset(__gic)]
	mov         w8,w8
	cmp         w8,#3
	blt         |$LN2@GICReadIAR|

; 602  : 		iar = gic_read_intid();

	bl          gic_read_intid
	mov         w0,w0
	str         w0,[sp]
	b           |$LN3@GICReadIAR|
|$LN2@GICReadIAR|

; 603  : 	else
; 604  : 	    iar = *(volatile uint32_t*)(GICC(__gic) + 0x0C);

	adrp        x8,__gic+#0x30
	ldr         x8,[x8,PageOffset(__gic)+#0x30]
	add         x8,x8,#0xC
	ldr         w8,[x8]
	str         w8,[sp]
|$LN3@GICReadIAR|

; 605  : 	return iar;

	ldr         w0,[sp]
	add         sp,sp,#0x10
	ldr         lr,[sp],#0x10
	ret

	ENDP  ; |GICReadIAR|

; Function compile flags: /Odtpy
; File C:\Users\paras\source\repos\grep-name\XenevaOS\KernelAA64\Hal\gic.c

	AREA	|.text$mn|, CODE, ARM64

|GICClearPendingIRQ| PROC

; 578  : void GICClearPendingIRQ(uint32_t irq) {

|$LN4|
	sub         sp,sp,#0x10
	str         w0,[sp]

; 579  : 	if (__gic.version >= GIC_VERSION_3)

	adrp        x8,__gic
	ldrb        w8,[x8,PageOffset(__gic)]
	mov         w8,w8
	cmp         w8,#3
	blt         |$LN2@GICClearPe|

; 580  : 		return;

	b           |$LN1@GICClearPe|
|$LN2@GICClearPe|

; 581  : 
; 582  : 	uint32_t bit = irq % 32;

	ldr         w10,[sp]
	mov         w9,#0x20
	udiv        w8,w10,w9
	mul         w8,w8,w9
	sub         w8,w10,w8
	str         w8,[sp,#4]

; 583  : 	volatile uint32_t* reg = (volatile uint32_t*)(GICD(__gic) + GICD_ICPENDR(irq));

	ldr         w9,[sp]
	mov         w8,#0x20
	udiv        w9,w9,w8
	mov         w8,#4
	mul         w8,w9,w8
	add         w8,w8,#0x280
	uxtw        x9,w8
	adrp        x8,__gic+#0x28
	ldr         x8,[x8,PageOffset(__gic)+#0x28]
	add         x8,x8,x9
	str         x8,[sp,#8]

; 584  : 	//UARTDebugOut("Clear pending reg : %x \n", (GICD(__gic) + GICD_ICPENDR(irq)));
; 585  : 	*reg |= (1U << bit);

	mov         w9,#1
	ldr         w8,[sp,#4]
	lsl         w9,w9,w8
	ldr         x8,[sp,#8]
	ldr         w8,[x8]
	orr         w9,w8,w9
	ldr         x8,[sp,#8]
	str         w9,[x8]
|$LN1@GICClearPe|
	add         sp,sp,#0x10
	ret

	ENDP  ; |GICClearPendingIRQ|

; Function compile flags: /Odtpy
; File C:\Users\paras\source\repos\grep-name\XenevaOS\KernelAA64\Hal\gic.c

	AREA	|.text$mn|, CODE, ARM64

|GICEnableSPIIRQ| PROC

; 536  : void GICEnableSPIIRQ(uint32_t irq) {

|$LN6|
	str         lr,[sp,#-0x10]!
	sub         sp,sp,#0x10
	str         w0,[sp]

; 537  : 	//if (__gic.version >= GIC_VERSION_3) {
; 538  : 	if (irq < 32) {

	ldr         w8,[sp]
	cmp         w8,#0x20
	bhs         |$LN2@GICEnableS|

; 539  : 		gic_outl_(GICD(__gic), 0x6000 + irq * 8, 0ULL);

	ldr         w9,[sp]
	mov         w8,#8
	mul         w8,w9,w8
	add         w1,w8,#6,lsl #0xC
	mov         w2,#0
	mov         w1,w1
	adrp        x8,__gic+#0x28
	ldr         x0,[x8,PageOffset(__gic)+#0x28]
	bl          gic_outl_

; 540  : 		GICREnablePPI(0, irq);

	ldr         w1,[sp]
	mov         w0,#0
	bl          GICREnablePPI

; 541  : 		GICRSetPPIPriority(0, irq, 0xA0);

	mov         w2,#0xA0
	ldr         w1,[sp]
	mov         w0,#0
	bl          GICRSetPPIPriority

; 542  : 	}

	b           |$LN3@GICEnableS|
|$LN2@GICEnableS|

; 543  : 	else {
; 544  : 
; 545  : 		uint32_t reg = irq / 32;

	ldr         w9,[sp]
	mov         w8,#0x20
	udiv        w8,w9,w8
	str         w8,[sp,#4]

; 546  : 		uint32_t bit = irq % 32;

	ldr         w10,[sp]
	mov         w9,#0x20
	udiv        w8,w10,w9
	mul         w8,w8,w9
	sub         w8,w10,w8
	str         w8,[sp,#8]

; 547  : 		//GICClearPendingIRQ(irq);
; 548  : 		//GICD_ICFGR(spi_id / 16) |= (1u << bit);
; 549  : 		GICSetEdgeTriggered(irq);

	ldr         w0,[sp]
	bl          GICSetEdgeTriggered

; 550  : 		GICIsIRQEdgeTriggered(irq);

	ldr         w0,[sp]
	bl          GICIsIRQEdgeTriggered

; 551  : 		/*uint8_t* gicd_itargetsr = (uint8_t*)GICD_ITARGETSR(irq);
; 552  : 		*gicd_itargetsr = 0x01;*/
; 553  : 
; 554  : 		if (__gic.version >= GIC_VERSION_3) {

	adrp        x8,__gic
	ldrb        w8,[x8,PageOffset(__gic)]
	mov         w8,w8
	cmp         w8,#3
	blt         |$LN4@GICEnableS|

; 555  : 			/** route it to cpu0 **/
; 556  : 			gic_outqw(GICD(__gic), 0x6000 + irq * 8, 0ULL);

	ldr         w9,[sp]
	mov         w8,#8
	mul         w8,w9,w8
	add         w1,w8,#6,lsl #0xC
	mov         x2,#0
	mov         w1,w1
	adrp        x8,__gic+#0x28
	ldr         x0,[x8,PageOffset(__gic)+#0x28]
	bl          gic_outqw
|$LN4@GICEnableS|

; 557  : 		}
; 558  : 
; 559  : 		*(volatile uint8_t*)(GICD(__gic) + GICD_IPRIORITYR(irq)) = 0x80;

	ldr         w8,[sp]
	add         w8,w8,#0x400
	uxtw        x9,w8
	adrp        x8,__gic+#0x28
	ldr         x8,[x8,PageOffset(__gic)+#0x28]
	add         x9,x8,x9
	mov         w8,#0x80
	strb        w8,[x9]

; 560  : 		GICD_ISENABLER(reg) |= (1u << bit);

	adrp        x8,__gic+#0x28
	ldr         x8,[x8,PageOffset(__gic)+#0x28]
	add         x10,x8,#0x100
	ldr         w9,[sp,#4]
	mov         w8,#4
	mul         w8,w9,w8
	uxtw        x8,w8
	add         x10,x10,x8
	mov         w9,#1
	ldr         w8,[sp,#8]
	lsl         w9,w9,w8
	ldr         w8,[x10]
	orr         w10,w8,w9
	ldr         w9,[sp,#4]
	mov         w8,#4
	mul         w8,w9,w8
	uxtw        x9,w8
	adrp        x8,__gic+#0x28
	ldr         x8,[x8,PageOffset(__gic)+#0x28]
	add         x8,x8,#0x100
	add         x8,x8,x9
	str         w10,[x8]
|$LN3@GICEnableS|
	add         sp,sp,#0x10
	ldr         lr,[sp],#0x10
	ret

	ENDP  ; |GICEnableSPIIRQ|

; Function compile flags: /Odtpy
; File C:\Users\paras\source\repos\grep-name\XenevaOS\KernelAA64\Hal\gic.c

	AREA	|.text$mn|, CODE, ARM64

|GICEnableIRQ| PROC

; 470  : void GICEnableIRQ(uint32_t irq) {

|$LN10|
	str         lr,[sp,#-0x10]!
	sub         sp,sp,#0x20
	str         w0,[sp]

; 471  : 	if (__gic.version >= GIC_VERSION_3) {

	adrp        x8,__gic
	ldrb        w8,[x8,PageOffset(__gic)]
	mov         w8,w8
	cmp         w8,#3
	blt         |$LN2@GICEnableI|

; 472  : 		if (irq < 32) {

	ldr         w8,[sp]
	cmp         w8,#0x20
	bhs         |$LN4@GICEnableI|

; 473  : 			gic_outl_(GICD(__gic), 0x6000 + irq * 8, 0ULL);

	ldr         w9,[sp]
	mov         w8,#8
	mul         w8,w9,w8
	add         w1,w8,#6,lsl #0xC
	mov         w2,#0
	mov         w1,w1
	adrp        x8,__gic+#0x28
	ldr         x0,[x8,PageOffset(__gic)+#0x28]
	bl          gic_outl_

; 474  : 			GICREnablePPI(0, irq);

	ldr         w1,[sp]
	mov         w0,#0
	bl          GICREnablePPI

; 475  : 			GICRSetPPIPriority(0, irq, 0xA0);

	mov         w2,#0xA0
	ldr         w1,[sp]
	mov         w0,#0
	bl          GICRSetPPIPriority
|$LN4@GICEnableI|

; 476  : 		}
; 477  : 	}

	b           |$LN3@GICEnableI|
|$LN2@GICEnableI|

; 478  : 	else {
; 479  : 		uint32_t reg = irq / 32;

	ldr         w9,[sp]
	mov         w8,#0x20
	udiv        w8,w9,w8
	str         w8,[sp,#8]

; 480  : 		uint32_t bit = irq % 32;

	ldr         w10,[sp]
	mov         w9,#0x20
	udiv        w8,w10,w9
	mul         w8,w8,w9
	sub         w8,w10,w8
	str         w8,[sp,#0x14]

; 481  : 		//GICClearPendingIRQ(irq);
; 482  : 		uint32_t icfgr = GICD_ICFGR(irq / 16);

	adrp        x8,__gic+#0x28
	ldr         x8,[x8,PageOffset(__gic)+#0x28]
	add         x10,x8,#0xC00
	ldr         w9,[sp]
	mov         w8,#0x10
	udiv        w9,w9,w8
	mov         w8,#4
	mul         w8,w9,w8
	uxtw        x8,w8
	add         x8,x10,x8
	ldr         w8,[x8]
	str         w8,[sp,#0xC]

; 483  : 		uint32_t shift = (irq % 16) * 2;

	ldr         w10,[sp]
	mov         w9,#0x10
	udiv        w8,w10,w9
	mul         w8,w8,w9
	sub         w9,w10,w8
	mov         w8,#2
	mul         w8,w9,w8
	str         w8,[sp,#0x10]

; 484  : 		uint32_t config_bits = (icfgr >> shift) & 0b11;

	ldr         w9,[sp,#0xC]
	ldr         w8,[sp,#0x10]
	lsr         w8,w9,w8
	and         w8,w8,#3
	str         w8,[sp,#4]

; 485  : 		if (config_bits == 0b00) {

	ldr         w8,[sp,#4]
	cmp         w8,#0
	bne         |$LN5@GICEnableI|

; 486  : 			UARTDebugOut("IRQ : %d is level-sensitive \r\n", irq);

	ldr         w1,[sp]
	adrp        x8,|$SG3617|
	add         x0,x8,PageOffset(|$SG3617|)
	bl          UARTDebugOut

; 487  : 		}

	b           |$LN6@GICEnableI|
|$LN5@GICEnableI|

; 488  : 		else if (config_bits == 0b10) {

	ldr         w8,[sp,#4]
	cmp         w8,#2
	bne         |$LN7@GICEnableI|

; 489  : 			UARTDebugOut("IRQ : %d is edge-trigggered \r\n", irq);

	ldr         w1,[sp]
	adrp        x8,|$SG3620|
	add         x0,x8,PageOffset(|$SG3620|)
	bl          UARTDebugOut

; 490  : 		}

	b           |$LN8@GICEnableI|
|$LN7@GICEnableI|

; 491  : 		else {
; 492  : 			UARTDebugOut("IRQ: %d is reserved or invalid config : %x \r\n", irq, config_bits);

	ldr         w2,[sp,#4]
	ldr         w1,[sp]
	adrp        x8,|$SG3621|
	add         x0,x8,PageOffset(|$SG3621|)
	bl          UARTDebugOut
|$LN8@GICEnableI|
|$LN6@GICEnableI|

; 493  : 		}
; 494  : 		//GICD_IGROUPR(reg) |= (1u << bit);
; 495  : 		/*uint8_t* gicd_itargetsr = (uint8_t*)GICD_ITARGETSR(irq);
; 496  : 		*gicd_itargetsr = 0x01;*/
; 497  : 		UARTDebugOut("IGROUP : %d \r\n", GICD_IGROUPR(reg));

	adrp        x8,__gic+#0x28
	ldr         x8,[x8,PageOffset(__gic)+#0x28]
	add         x10,x8,#0x80
	ldr         w9,[sp,#8]
	mov         w8,#4
	mul         w8,w9,w8
	uxtw        x8,w8
	add         x8,x10,x8
	ldr         w1,[x8]
	adrp        x8,|$SG3622|
	add         x0,x8,PageOffset(|$SG3622|)
	bl          UARTDebugOut

; 498  : 		*(volatile uint8_t*)(GICD(__gic) + GICD_IPRIORITYR(irq)) = 0xA0;

	ldr         w8,[sp]
	add         w8,w8,#0x400
	uxtw        x9,w8
	adrp        x8,__gic+#0x28
	ldr         x8,[x8,PageOffset(__gic)+#0x28]
	add         x9,x8,x9
	mov         w8,#0xA0
	strb        w8,[x9]

; 499  : 		GICD_ISENABLER(reg) |= (1u << bit);

	adrp        x8,__gic+#0x28
	ldr         x8,[x8,PageOffset(__gic)+#0x28]
	add         x10,x8,#0x100
	ldr         w9,[sp,#8]
	mov         w8,#4
	mul         w8,w9,w8
	uxtw        x8,w8
	add         x10,x10,x8
	mov         w9,#1
	ldr         w8,[sp,#0x14]
	lsl         w9,w9,w8
	ldr         w8,[x10]
	orr         w10,w8,w9
	ldr         w9,[sp,#8]
	mov         w8,#4
	mul         w8,w9,w8
	uxtw        x9,w8
	adrp        x8,__gic+#0x28
	ldr         x8,[x8,PageOffset(__gic)+#0x28]
	add         x8,x8,#0x100
	add         x8,x8,x9
	str         w10,[x8]
|$LN3@GICEnableI|
	add         sp,sp,#0x20
	ldr         lr,[sp],#0x10
	ret

	ENDP  ; |GICEnableIRQ|

; Function compile flags: /Odtpy
; File C:\Users\paras\source\repos\grep-name\XenevaOS\KernelAA64\Hal\gic.c

	AREA	|.text$mn|, CODE, ARM64

|GICInitialize| PROC

; 306  : void GICInitialize() {

|$LN27|
	sub         sp,sp,#0x10
	stp         x19,lr,[sp]
	sub         sp,sp,#0x70

; 307  : 	/* Firstly rely upon UEFI + ACPI for GIC mmio values */
; 308  : 	AuTextOut("Initializing GIC %x %x \r\n", __gic.gicCPhys, __gic.gicDPhys);

	adrp        x8,__gic+#8
	ldr         x2,[x8,PageOffset(__gic)+#8]
	adrp        x8,__gic+#0x10
	ldr         x1,[x8,PageOffset(__gic)+#0x10]
	adrp        x8,|$SG3546|
	add         x0,x8,PageOffset(|$SG3546|)
	bl          AuTextOut

; 309  : 
; 310  : #ifdef __TARGET_BOARD_QEMU_VIRT__
; 311  : 	__gic.gicCPhys = 0x08010000ULL;

	adrp        x9,__gic+#0x10
	mov         x8,#0x8010000
	str         x8,[x9,PageOffset(__gic)+#0x10]

; 312  : 	__gic.gicDPhys = 0x08000000ULL;

	adrp        x9,__gic+#8
	mov         x8,#0x8000000
	str         x8,[x9,PageOffset(__gic)+#8]

; 313  : 	__gic.gicMSIPhys = 0x08020000ULL;

	adrp        x9,__gic+#0x20
	mov         x8,#0x8020000
	str         x8,[x9,PageOffset(__gic)+#0x20]

; 314  : 	__gic.gicRPhys = 0x080A0000ULL;

	adrp        x9,__gic+#0x18
	mov         x8,#0x80A0000
	str         x8,[x9,PageOffset(__gic)+#0x18]

; 315  : 	__gic.spiBase = 80;

	adrp        x9,__gic+#0x48
	mov         w8,#0x50
	strh        w8,[x9,PageOffset(__gic)+#0x48]

; 316  : 	__gic.spiCount = 64;

	adrp        x9,__gic+#0x4A
	mov         w8,#0x40
	strh        w8,[x9,PageOffset(__gic)+#0x4A]

; 317  : #endif
; 318  : 
; 319  : 	/* if not found, go for device tree , because the kernel might get booted
; 320  : 	 * from LittleBoot 
; 321  : 	 */
; 322  : 	if (__gic.gicCPhys == 0 && __gic.gicDPhys == 0) {

	adrp        x8,__gic+#0x10
	ldr         x8,[x8,PageOffset(__gic)+#0x10]
	cmp         x8,#0
	bne         |$LN11@GICInitial|
	adrp        x8,__gic+#8
	ldr         x8,[x8,PageOffset(__gic)+#8]
	cmp         x8,#0
	bne         |$LN11@GICInitial|

; 323  : 
; 324  : #ifdef __TARGET_BOARD_RPI3__
; 325  : 		AuTextOut("[aurora]: Raspberry Pi 3b+ doesn't use traditional GIC \r\n");
; 326  : 		/* Initialize BCM2836-ARMCTL-IC */
; 327  : 		AuRPI3ICInit();
; 328  : 		AuTextOut("[aurora]: Raspberry Pi 3b+ Interrupt Controller initialized \r\n");
; 329  : 		return;
; 330  : #endif
; 331  : 		//Need to fall to Device Tree
; 332  : 		uint32_t* ic = AuDeviceTreeGetNode("ic@");

	adrp        x8,|$SG3548|
	add         x0,x8,PageOffset(|$SG3548|)
	bl          AuDeviceTreeGetNode
	str         x0,[sp,#8]

; 333  : 		if (!ic) {

	ldr         x8,[sp,#8]
	cmp         x8,#0
	bne         |$LN12@GICInitial|

; 334  : 			AuTextOut("Interrupt controller node not found \r\n");

	adrp        x8,|$SG3550|
	add         x0,x8,PageOffset(|$SG3550|)
	bl          AuTextOut

; 335  : 			ic = AuDeviceTreeGetNode("interrupt-controller@");

	adrp        x8,|$SG3551|
	add         x0,x8,PageOffset(|$SG3551|)
	bl          AuDeviceTreeGetNode
	str         x0,[sp,#8]

; 336  : 			if (!ic) {

	ldr         x8,[sp,#8]
	cmp         x8,#0
	bne         |$LN13@GICInitial|

; 337  : 				AuTextOut("Interrupt controller node not found on second fallback \r\n");

	adrp        x8,|$SG3553|
	add         x0,x8,PageOffset(|$SG3553|)
	bl          AuTextOut

; 338  : 				return;

	b           |$LN1@GICInitial|
|$LN13@GICInitial|
|$LN12@GICInitial|

; 339  : 			}
; 340  : 			
; 341  : 		}
; 342  : 
; 343  : 		uint32_t* compat = AuDeviceTreeFindProperty(ic, "compatible");

	adrp        x8,|$SG3554|
	add         x1,x8,PageOffset(|$SG3554|)
	ldr         x0,[sp,#8]
	bl          AuDeviceTreeFindProperty
	str         x0,[sp,#0x58]

; 344  : 		fdt_property_t* prop = (fdt_property_t*)compat;

	ldr         x8,[sp,#0x58]
	str         x8,[sp,#0x60]

; 345  : 		if (compat) {

	ldr         x8,[sp,#0x58]
	cmp         x8,#0
	beq         |$LN14@GICInitial|

; 346  : 			AuTextOut("Interrupt controller found: %s \r\n", prop->value);

	ldr         x8,[sp,#0x60]
	add         x1,x8,#0xC
	adrp        x8,|$SG3556|
	add         x0,x8,PageOffset(|$SG3556|)
	bl          AuTextOut
|$LN14@GICInitial|

; 347  : 		}
; 348  : 		uint32_t* addressSz = AuDeviceTreeFindProperty(ic, "#address-cells");

	adrp        x8,|$SG3557|
	add         x1,x8,PageOffset(|$SG3557|)
	ldr         x0,[sp,#8]
	bl          AuDeviceTreeFindProperty
	str         x0,[sp,#0x68]

; 349  : 		uint32_t* reg = AuDeviceTreeFindProperty(ic, "reg");

	adrp        x8,|$SG3558|
	add         x1,x8,PageOffset(|$SG3558|)
	ldr         x0,[sp,#8]
	bl          AuDeviceTreeFindProperty
	str         x0,[sp,#0x28]

; 350  : 		prop = (fdt_property_t*)reg;

	ldr         x8,[sp,#0x28]
	str         x8,[sp,#0x60]

; 351  : 		if (reg) {

	ldr         x8,[sp,#0x28]
	cmp         x8,#0
	beq         |$LN15@GICInitial|

; 352  : 			/* suspecting, this would only work with QEMU-aarch64-virt board */
; 353  : 			uint32_t gicd = (uint64_t)AuDTBSwap32(reg[3]) | ((uint64_t)AuDTBSwap32(reg[4]) << 32UL);

	ldr         x8,[sp,#0x28]
	add         x8,x8,#0xC
	ldr         w0,[x8]
	bl          AuDTBSwap32
	mov         w0,w0
	uxtw        x19,w0
	ldr         x8,[sp,#0x28]
	add         x8,x8,#0x10
	ldr         w0,[x8]
	bl          AuDTBSwap32
	mov         w0,w0
	uxtw        x8,w0
	lsl         x8,x8,#0x20
	orr         x8,x19,x8
	mov         w8,w8
	str         w8,[sp,#0x40]

; 354  : 			uint32_t gicc = (uint64_t)AuDTBSwap32(reg[7]) | ((uint64_t)AuDTBSwap32(reg[9]) << 32UL);

	ldr         x8,[sp,#0x28]
	add         x8,x8,#0x1C
	ldr         w0,[x8]
	bl          AuDTBSwap32
	mov         w0,w0
	uxtw        x19,w0
	ldr         x8,[sp,#0x28]
	add         x8,x8,#0x24
	ldr         w0,[x8]
	bl          AuDTBSwap32
	mov         w0,w0
	uxtw        x8,w0
	lsl         x8,x8,#0x20
	orr         x8,x19,x8
	mov         w8,w8
	str         w8,[sp,#0x34]

; 355  : 			uint32_t addrS = AuDeviceTreeGetAddressCells(ic);

	ldr         x0,[sp,#8]
	bl          AuDeviceTreeGetAddressCells
	mov         w0,w0
	str         w0,[sp,#0x20]

; 356  : 			uint32_t sizeS = AuDeviceTreeGetSizeCells(ic);

	ldr         x0,[sp,#8]
	bl          AuDeviceTreeGetSizeCells
	mov         w0,w0
	str         w0,[sp,#0x30]

; 357  : 			AuTextOut("GIC ADr: %x \r\n", AuDeviceTreeGetRegAddress(ic, addrS));

	ldr         w1,[sp,#0x20]
	ldr         x0,[sp,#8]
	bl          AuDeviceTreeGetRegAddress
	mov         x1,x0
	adrp        x8,|$SG3560|
	add         x0,x8,PageOffset(|$SG3560|)
	bl          AuTextOut

; 358  : 			AuTextOut("GIC Szs: %x \r\n", AuDeviceTreeGetRegSize(ic, addrS, sizeS));

	ldr         w2,[sp,#0x30]
	ldr         w1,[sp,#0x20]
	ldr         x0,[sp,#8]
	bl          AuDeviceTreeGetRegSize
	mov         x1,x0
	adrp        x8,|$SG3561|
	add         x0,x8,PageOffset(|$SG3561|)
	bl          AuTextOut

; 359  : 			AuTextOut("GICD : %x, GICC : %x \r\n", gicd, gicc);

	ldr         w2,[sp,#0x34]
	ldr         w1,[sp,#0x40]
	adrp        x8,|$SG3562|
	add         x0,x8,PageOffset(|$SG3562|)
	bl          AuTextOut

; 360  : 			AuTextOut("GIC Addrsz : %d, sizesz : %d \r\n", addrS, sizeS);

	ldr         w2,[sp,#0x30]
	ldr         w1,[sp,#0x20]
	adrp        x8,|$SG3563|
	add         x0,x8,PageOffset(|$SG3563|)
	bl          AuTextOut

; 361  : 
; 362  : 
; 363  : 			/**
; 364  : 			 * @TODO : we need to rely on DTB, here we're doing it manually according
; 365  : 			 * to SOC_TARGET build
; 366  : 			 */
; 367  : 			__gic.gicDPhys = GIC_DIST;// gicd;

	adrp        x9,__gic+#8
	mov         x8,#0x8000000
	str         x8,[x9,PageOffset(__gic)+#8]

; 368  : 			__gic.gicCPhys = gicc;

	ldr         w8,[sp,#0x34]
	uxtw        x9,w8
	adrp        x8,__gic+#0x10
	str         x9,[x8,PageOffset(__gic)+#0x10]

; 369  : 			__gic.gicRPhys = GIC_REDIST;

	adrp        x9,__gic+#0x18
	mov         x8,#0x80A0000
	str         x8,[x9,PageOffset(__gic)+#0x18]
|$LN15@GICInitial|
|$LN11@GICInitial|
|$skip_$28|

; 370  : 		}
; 371  : 
; 372  : 
; 373  : 	}
; 374  : skip_:
; 375  : 
; 376  : 	if (__gic.gicCPhys == 0 && __gic.gicDPhys == 0) {

	adrp        x8,__gic+#0x10
	ldr         x8,[x8,PageOffset(__gic)+#0x10]
	cmp         x8,#0
	bne         |$LN16@GICInitial|
	adrp        x8,__gic+#8
	ldr         x8,[x8,PageOffset(__gic)+#8]
	cmp         x8,#0
	bne         |$LN16@GICInitial|

; 377  : 		AuTextOut("[aurora]: No GIC MMIO found \r\n");

	adrp        x8,|$SG3565|
	add         x0,x8,PageOffset(|$SG3565|)
	bl          AuTextOut

; 378  : 		return;

	b           |$LN1@GICInitial|
|$LN16@GICInitial|

; 379  : 	}
; 380  : 
; 381  : 	__gic.gicDMMIO = AuMapMMIO(__gic.gicDPhys, 16);

	mov         x1,#0x10
	adrp        x8,__gic+#8
	ldr         x0,[x8,PageOffset(__gic)+#8]
	bl          AuMapMMIO
	adrp        x8,__gic+#0x28
	str         x0,[x8,PageOffset(__gic)+#0x28]

; 382  : 
; 383  : 	uint32_t version = GICVerifyVersion();

	bl          GICVerifyVersion
	mov         w0,w0
	str         w0,[sp,#0x1C]

; 384  : 	__gic.version = version;

	ldr         w8,[sp,#0x1C]
	uxtb        w9,w8
	adrp        x8,__gic
	strb        w9,[x8,PageOffset(__gic)]

; 385  : 	bool _need_cpu_interface = true;

	mov         w8,#1
	strb        w8,[sp]

; 386  : 	if (version >= GIC_VERSION_3)

	ldr         w8,[sp,#0x1C]
	cmp         w8,#3
	blo         |$LN17@GICInitial|

; 387  : 		_need_cpu_interface = false;

	mov         w8,#0
	strb        w8,[sp]
|$LN17@GICInitial|

; 388  : 
; 389  : 	if (_need_cpu_interface)

	ldrb        w8,[sp]
	mov         w8,w8
	cmp         w8,#0
	beq         |$LN18@GICInitial|

; 390  : 		__gic.gicCMMIO = AuMapMMIO(__gic.gicCPhys, 2);

	mov         x1,#2
	adrp        x8,__gic+#0x10
	ldr         x0,[x8,PageOffset(__gic)+#0x10]
	bl          AuMapMMIO
	adrp        x8,__gic+#0x30
	str         x0,[x8,PageOffset(__gic)+#0x30]
|$LN18@GICInitial|

; 391  : 
; 392  : 	if (__gic.gicMSIPhys)

	adrp        x8,__gic+#0x20
	ldr         x8,[x8,PageOffset(__gic)+#0x20]
	cmp         x8,#0
	beq         |$LN19@GICInitial|

; 393  : 		__gic.gicMSIMMIO = AuMapMMIO(__gic.gicMSIPhys, 2);

	mov         x1,#2
	adrp        x8,__gic+#0x20
	ldr         x0,[x8,PageOffset(__gic)+#0x20]
	bl          AuMapMMIO
	adrp        x8,__gic+#0x40
	str         x0,[x8,PageOffset(__gic)+#0x40]
|$LN19@GICInitial|

; 394  : 
; 395  : 	/** map Redist to MMIO, for one redistributor 128 KiB, 
; 396  : 	 * for 4 cores, it consumes 512 KiB 128 pages, for now
; 397  : 	 * not supporting multi cores, only one core is needed
; 398  : 	 */
; 399  : 	if (version >= GIC_VERSION_3)

	ldr         w8,[sp,#0x1C]
	cmp         w8,#3
	blo         |$LN20@GICInitial|

; 400  : 		__gic.gicRMMIO = AuMapMMIO(__gic.gicRPhys, 128);

	mov         x1,#0x80
	adrp        x8,__gic+#0x18
	ldr         x0,[x8,PageOffset(__gic)+#0x18]
	bl          AuMapMMIO
	adrp        x8,__gic+#0x38
	str         x0,[x8,PageOffset(__gic)+#0x38]
|$LN20@GICInitial|

; 401  : 
; 402  : 	gic_regs = (volatile uint32_t*)__gic.gicDMMIO;

	adrp        x9,gic_regs
	adrp        x8,__gic+#0x28
	ldr         x8,[x8,PageOffset(__gic)+#0x28]
	str         x8,[x9,PageOffset(gic_regs)]

; 403  : 	gicc_regs = (volatile uint32_t*)__gic.gicCMMIO;

	adrp        x9,gicc_regs
	adrp        x8,__gic+#0x30
	ldr         x8,[x8,PageOffset(__gic)+#0x30]
	str         x8,[x9,PageOffset(gicc_regs)]

; 404  : 
; 405  : 	uint32_t typer = gic_inl_(GICD(__gic), GICD_TYPER);

	mov         w1,#4
	adrp        x8,__gic+#0x28
	ldr         x0,[x8,PageOffset(__gic)+#0x28]
	bl          gic_inl_
	mov         w0,w0
	str         w0,[sp,#0x44]

; 406  : 	uint32_t numirq = ((typer & 0x1f) + 1) * 32;

	ldr         w8,[sp,#0x44]
	and         w8,w8,#0x1F
	add         w9,w8,#1
	mov         w8,#0x20
	mul         w8,w9,w8
	str         w8,[sp,#0x3C]

; 407  : 	AuTextOut("GIC Number of supported IRQ -> %d \r\n", numirq);

	ldr         w1,[sp,#0x3C]
	adrp        x8,|$SG3570|
	add         x0,x8,PageOffset(|$SG3570|)
	bl          AuTextOut

; 408  : 
; 409  : 	uint32_t icc_iidr = gic_inl_(GICD(__gic), GICD_IIDR);

	mov         w1,#8
	adrp        x8,__gic+#0x28
	ldr         x0,[x8,PageOffset(__gic)+#0x28]
	bl          gic_inl_
	mov         w0,w0
	str         w0,[sp,#0x38]

; 410  : 	uint32_t imp = (icc_iidr & 0xFFF);

	ldr         w8,[sp,#0x38]
	and         w8,w8,#0xFFF
	str         w8,[sp,#0x4C]

; 411  : 	uint32_t rev = (icc_iidr >> 16) & 0xFF;

	ldr         w8,[sp,#0x38]
	ubfx        w8,w8,#0x10,#8
	str         w8,[sp,#0x50]

; 412  : 	
; 413  : 	for (int i = 0; i < (numirq / 32); i++)

	mov         w8,#0
	str         w8,[sp,#0x10]
	b           |$LN4@GICInitial|
|$LN2@GICInitial|
	ldr         w8,[sp,#0x10]
	add         w8,w8,#1
	str         w8,[sp,#0x10]
|$LN4@GICInitial|
	ldr         w9,[sp,#0x3C]
	mov         w8,#0x20
	udiv        w9,w9,w8
	ldr         w8,[sp,#0x10]
	cmp         w8,w9
	bhs         |$LN3@GICInitial|

; 414  : 		GICD_ICENABLE(i) = 0xFFFFFFFF;

	adrp        x8,__gic+#0x28
	ldr         x8,[x8,PageOffset(__gic)+#0x28]
	add         x10,x8,#0x180
	ldr         w9,[sp,#0x10]
	mov         w8,#4
	mul         w8,w9,w8
	sxtw        x8,w8
	add         x9,x10,x8
	mov         w8,#-1
	str         w8,[x9]
	b           |$LN2@GICInitial|
|$LN3@GICInitial|

; 415  : 
; 416  : 	uint32_t val = gic_inl_(GICD(__gic), GICD_CTLR);

	mov         w1,#0
	adrp        x8,__gic+#0x28
	ldr         x0,[x8,PageOffset(__gic)+#0x28]
	bl          gic_inl_
	mov         w0,w0
	str         w0,[sp,#0x48]

; 417  : 	if ((val & 1))

	ldr         w8,[sp,#0x48]
	tbz         x8,#0,|$LN21@GICInitial|

; 418  : 		AuTextOut("GIC already enabled \r\n");

	adrp        x8,|$SG3572|
	add         x0,x8,PageOffset(|$SG3572|)
	bl          AuTextOut
|$LN21@GICInitial|

; 419  : 
; 420  : 	AuTextOut("[aurora]: Implementer : %x \r\n", imp);

	ldr         w1,[sp,#0x4C]
	adrp        x8,|$SG3573|
	add         x0,x8,PageOffset(|$SG3573|)
	bl          AuTextOut

; 421  : 	AuTextOut("[aurora]: Revision : %x \r\n", rev);

	ldr         w1,[sp,#0x50]
	adrp        x8,|$SG3574|
	add         x0,x8,PageOffset(|$SG3574|)
	bl          AuTextOut

; 422  : 	/* enable the cpu interface*/
; 423  : 	/* writing 0xff means accepting all types of priority 0x0 -- 0xFF */
; 424  : 	if (_need_cpu_interface) {

	ldrb        w8,[sp]
	mov         w8,w8
	cmp         w8,#0
	beq         |$LN22@GICInitial|

; 425  : 		gic_outl_(__gic.gicCMMIO, GICC_PMR, 0x1ff);

	mov         w2,#0x1FF
	mov         w1,#4
	adrp        x8,__gic+#0x30
	ldr         x0,[x8,PageOffset(__gic)+#0x30]
	bl          gic_outl_

; 426  : 		gic_outl_(__gic.gicCMMIO, GICC_CTLR, 0x3);

	mov         w2,#3
	mov         w1,#0
	adrp        x8,__gic+#0x30
	ldr         x0,[x8,PageOffset(__gic)+#0x30]
	bl          gic_outl_

; 427  : 		isb_flush();

	bl          isb_flush
|$LN22@GICInitial|

; 428  : 	}
; 429  : 
; 430  : 	/* enable the distributor interface */
; 431  : 	if (__gic.version >= GIC_VERSION_3) {

	adrp        x8,__gic
	ldrb        w8,[x8,PageOffset(__gic)]
	mov         w8,w8
	cmp         w8,#3
	blt         |$LN23@GICInitial|

; 432  : 		gic_outl_(__gic.gicDMMIO, GICD_CTLR, (1u << 5) | (1u << 1));

	mov         w2,#0x22
	mov         w1,#0
	adrp        x8,__gic+#0x28
	ldr         x0,[x8,PageOffset(__gic)+#0x28]
	bl          gic_outl_

; 433  : 	}

	b           |$LN24@GICInitial|
|$LN23@GICInitial|

; 434  : 	else {
; 435  : 		gic_outl_(__gic.gicDMMIO, GICD_CTLR, 0x3);

	mov         w2,#3
	mov         w1,#0
	adrp        x8,__gic+#0x28
	ldr         x0,[x8,PageOffset(__gic)+#0x28]
	bl          gic_outl_

; 436  : 		isb_flush();

	bl          isb_flush
|$LN24@GICInitial|

; 437  : 	}
; 438  : 
; 439  : 	for (int i = 0; i < MAX_SPIS; i++)

	mov         w8,#0
	str         w8,[sp,#0x14]
	b           |$LN7@GICInitial|
|$LN5@GICInitial|
	ldr         w8,[sp,#0x14]
	add         w8,w8,#1
	str         w8,[sp,#0x14]
|$LN7@GICInitial|
	ldr         w8,[sp,#0x14]
	cmp         w8,#0x400
	bge         |$LN6@GICInitial|

; 440  : 		spiBitMap[i] = 0;

	ldr         w8,[sp,#0x14]
	sxtw        x9,w8
	mov         x8,#1
	mul         x9,x9,x8
	adrp        x8,spiBitMap
	add         x8,x8,PageOffset(spiBitMap)
	add         x9,x8,x9
	mov         w8,#0
	strb        w8,[x9]
	b           |$LN5@GICInitial|
|$LN6@GICInitial|

; 441  : 
; 442  : 	for (int i = 0; i < MAX_SPIS; i++)

	mov         w8,#0
	str         w8,[sp,#0x18]
	b           |$LN10@GICInitial|
|$LN8@GICInitial|
	ldr         w8,[sp,#0x18]
	add         w8,w8,#1
	str         w8,[sp,#0x18]
|$LN10@GICInitial|
	ldr         w8,[sp,#0x18]
	cmp         w8,#0x400
	bge         |$LN9@GICInitial|

; 443  : 		callbacks[i] = 0;

	ldr         w8,[sp,#0x18]
	sxtw        x9,w8
	mov         x8,#8
	mul         x9,x9,x8
	adrp        x8,callbacks
	add         x8,x8,PageOffset(callbacks)
	add         x9,x8,x9
	mov         x8,#0
	str         x8,[x9]
	b           |$LN8@GICInitial|
|$LN9@GICInitial|

; 444  : 
; 445  : 	if (version >= GIC_VERSION_3)

	ldr         w8,[sp,#0x1C]
	cmp         w8,#3
	blo         |$LN25@GICInitial|

; 446  : 		GICRInitialize(0);

	mov         w0,#0
	bl          GICRInitialize
|$LN25@GICInitial|

; 447  : 
; 448  : 	AuTextOut("GIC Initialized \r\n");

	adrp        x8,|$SG3579|
	add         x0,x8,PageOffset(|$SG3579|)
	bl          AuTextOut
|$LN1@GICInitial|
	add         sp,sp,#0x70
	ldp         x19,lr,[sp]
	add         sp,sp,#0x10
	ret

	ENDP  ; |GICInitialize|

; Function compile flags: /Odtpy
; File C:\Users\paras\source\repos\grep-name\XenevaOS\KernelAA64\Hal\gic.c

	AREA	|.text$mn|, CODE, ARM64

|AuGetSystemGIC| PROC

; 183  : 	return &__gic;

	adrp        x8,__gic
	add         x0,x8,PageOffset(__gic)
	ret

	ENDP  ; |AuGetSystemGIC|

	END
