; Listing generated by Microsoft (R) Optimizing Compiler Version 19.29.30159.0 

	TTL	C:\Users\paras\source\repos\grep-name\XenevaOS\KernelAA64\ARM64\Debug\hashmap.obj
	ARM64

	AREA	|.drectve|, DRECTVE

	EXPORT	|AuHashmapCreate|
	EXPORT	|AuHashmapCreateInt|
	EXPORT	|AuHashmapSet|
	EXPORT	|AuHashmapGet|
	EXPORT	|AuHashmapRemove|
	EXPORT	|AuHashmapHas|
	EXPORT	|AuHashmapFree|
	EXPORT	|AuHashmapIsEmpty|
	EXPORT	|hashmap_string_hash|
	EXPORT	|hashmap_string_comp|
	EXPORT	|hashmap_string_dupe|
	EXPORT	|hashmap_int_hash|
	EXPORT	|hashmap_int_comp|
	EXPORT	|hashmap_int_dupe|
	IMPORT	|strcmp|
	IMPORT	|memset|
	IMPORT	|strdup|
	IMPORT	|UARTDebugOut|
	IMPORT	|kmalloc|
	IMPORT	|kfree|

	AREA	|.pdata|, PDATA
|$pdata$AuHashmapCreate| DCD imagerel |$LN3|
	DCD	0x12000f1
	;Flags[SingleProEpi] functionLength[240] RegF[0] RegI[0] H[0] frameChainReturn[UnChainedSavedLR] frameSize[32]
|$pdata$AuHashmapCreateInt| DCD imagerel |$LN3|
	DCD	0x12000f1
	;Flags[SingleProEpi] functionLength[240] RegF[0] RegI[0] H[0] frameChainReturn[UnChainedSavedLR] frameSize[32]
|$pdata$AuHashmapSet| DCD imagerel |$LN11|
	DCD	0x32001fd
	;Flags[SingleProEpi] functionLength[508] RegF[0] RegI[0] H[0] frameChainReturn[UnChainedSavedLR] frameSize[96]
|$pdata$AuHashmapGet| DCD imagerel |$LN10|
	DCD	0x1a00119
	;Flags[SingleProEpi] functionLength[280] RegF[0] RegI[0] H[0] frameChainReturn[UnChainedSavedLR] frameSize[48]
|$pdata$AuHashmapRemove| DCD imagerel |$LN12|
	DCD	0x2a00201
	;Flags[SingleProEpi] functionLength[512] RegF[0] RegI[0] H[0] frameChainReturn[UnChainedSavedLR] frameSize[80]
|$pdata$AuHashmapHas| DCD imagerel |$LN10|
	DCD	0x1a000ed
	;Flags[SingleProEpi] functionLength[236] RegF[0] RegI[0] H[0] frameChainReturn[UnChainedSavedLR] frameSize[48]
|$pdata$AuHashmapFree| DCD imagerel |$LN8|
	DCD	0x1a000dd
	;Flags[SingleProEpi] functionLength[220] RegF[0] RegI[0] H[0] frameChainReturn[UnChainedSavedLR] frameSize[48]
|$pdata$AuHashmapIsEmpty| DCD imagerel |$LN7|
	DCD	0x800081
	;Flags[SingleProEpi] functionLength[128] RegF[0] RegI[0] H[0] frameChainReturn[UnChained] frameSize[16]
|$pdata$hashmap_string_hash| DCD imagerel |$LN5|
	DCD	0x1000081
	;Flags[SingleProEpi] functionLength[128] RegF[0] RegI[0] H[0] frameChainReturn[UnChained] frameSize[32]
|$pdata$hashmap_string_comp| DCD imagerel |$LN5|
	DCD	0x1a0004d
	;Flags[SingleProEpi] functionLength[76] RegF[0] RegI[0] H[0] frameChainReturn[UnChainedSavedLR] frameSize[48]
|$pdata$hashmap_string_dupe| DCD imagerel |$LN3|
	DCD	0x1200021
	;Flags[SingleProEpi] functionLength[32] RegF[0] RegI[0] H[0] frameChainReturn[UnChainedSavedLR] frameSize[32]
|$pdata$hashmap_int_hash| DCD imagerel |$LN3|
	DCD	0x80001d
	;Flags[SingleProEpi] functionLength[28] RegF[0] RegI[0] H[0] frameChainReturn[UnChained] frameSize[16]
|$pdata$hashmap_int_comp| DCD imagerel |$LN5|
	DCD	0x1000045
	;Flags[SingleProEpi] functionLength[68] RegF[0] RegI[0] H[0] frameChainReturn[UnChained] frameSize[32]
|$pdata$hashmap_int_dupe| DCD imagerel |$LN3|
	DCD	0x800015
	;Flags[SingleProEpi] functionLength[20] RegF[0] RegI[0] H[0] frameChainReturn[UnChained] frameSize[16]
|$pdata$hashmap_int_free| DCD imagerel |hashmap_int_free|
	DCD	0x800011
	;Flags[SingleProEpi] functionLength[16] RegF[0] RegI[0] H[0] frameChainReturn[UnChained] frameSize[16]

	AREA	|.data|, DATA
|$SG2682| DCB	"[[Hashmap func : %d ", 0xd, 0xa, 0x0
	%	1
|$SG2697| DCB	"Hashget hash : %d ", 0xd, 0xa, 0x0
	%	3
|$SG2700| DCB	"Hasmap hash key : %x ", 0xd, 0xa, 0x0
; Function compile flags: /Odtpy
; File C:\Users\paras\source\repos\grep-name\XenevaOS\KernelAA64\hashmap.c

	AREA	|.text$mn|, CODE, ARM64

|hashmap_int_free| PROC

; 67   : static void hashmap_int_free(void* ptr) {

	sub         sp,sp,#0x10
	str         x0,[sp]
	add         sp,sp,#0x10
	ret

	ENDP  ; |hashmap_int_free|

; Function compile flags: /Odtpy
; File C:\Users\paras\source\repos\grep-name\XenevaOS\KernelAA64\hashmap.c

	AREA	|.text$mn|, CODE, ARM64

|hashmap_int_dupe| PROC

; 63   : void* hashmap_int_dupe(const void* key) {

|$LN3|
	sub         sp,sp,#0x10
	str         x0,[sp]

; 64   : 	return (void*)key;

	ldr         x0,[sp]
	add         sp,sp,#0x10
	ret

	ENDP  ; |hashmap_int_dupe|

; Function compile flags: /Odtpy
; File C:\Users\paras\source\repos\grep-name\XenevaOS\KernelAA64\hashmap.c

	AREA	|.text$mn|, CODE, ARM64

|hashmap_int_comp| PROC

; 59   : int hashmap_int_comp(const void* a, const void* b) {

|$LN5|
	sub         sp,sp,#0x20
	str         x0,[sp,#8]
	str         x1,[sp,#0x10]

; 60   : 	return (intptr_t)a == (intptr_t)b;

	ldr         x8,[sp,#8]
	mov         w9,w8
	ldr         x8,[sp,#0x10]
	mov         w8,w8
	cmp         w9,w8
	bne         |$LN3@hashmap_in|
	mov         w8,#1
	str         w8,[sp]
	b           |$LN4@hashmap_in|
|$LN3@hashmap_in|
	mov         w8,#0
	str         w8,[sp]
|$LN4@hashmap_in|
	ldr         w0,[sp]
	add         sp,sp,#0x20
	ret

	ENDP  ; |hashmap_int_comp|

; Function compile flags: /Odtpy
; File C:\Users\paras\source\repos\grep-name\XenevaOS\KernelAA64\hashmap.c

	AREA	|.text$mn|, CODE, ARM64

|hashmap_int_hash| PROC

; 55   : unsigned int hashmap_int_hash(const void* key) {

|$LN3|
	sub         sp,sp,#0x10
	str         x0,[sp]

; 56   : 	return (intptr_t)key;

	ldr         x8,[sp]
	mov         w0,w8
	mov         w0,w0
	add         sp,sp,#0x10
	ret

	ENDP  ; |hashmap_int_hash|

; Function compile flags: /Odtpy
; File C:\Users\paras\source\repos\grep-name\XenevaOS\KernelAA64\hashmap.c

	AREA	|.text$mn|, CODE, ARM64

|hashmap_string_dupe| PROC

; 51   : void* hashmap_string_dupe(const void* key) {

|$LN3|
	str         lr,[sp,#-0x10]!
	sub         sp,sp,#0x10
	str         x0,[sp]

; 52   : 	return strdup((const char*)key);

	ldr         x0,[sp]
	bl          strdup
	add         sp,sp,#0x10
	ldr         lr,[sp],#0x10
	ret

	ENDP  ; |hashmap_string_dupe|

; Function compile flags: /Odtpy
; File C:\Users\paras\source\repos\grep-name\XenevaOS\KernelAA64\hashmap.c

	AREA	|.text$mn|, CODE, ARM64

|hashmap_string_comp| PROC

; 47   : int hashmap_string_comp(const void* a, const void* b) {

|$LN5|
	str         lr,[sp,#-0x10]!
	sub         sp,sp,#0x20
	str         x0,[sp,#0x10]
	str         x1,[sp,#8]

; 48   : 	return !strcmp((const char*)a, (const char*)b);

	ldr         x1,[sp,#8]
	ldr         x0,[sp,#0x10]
	bl          strcmp
	mov         w0,w0
	cmp         w0,#0
	bne         |$LN3@hashmap_st|
	mov         w8,#1
	str         w8,[sp]
	b           |$LN4@hashmap_st|
|$LN3@hashmap_st|
	mov         w8,#0
	str         w8,[sp]
|$LN4@hashmap_st|
	ldr         w0,[sp]
	add         sp,sp,#0x20
	ldr         lr,[sp],#0x10
	ret

	ENDP  ; |hashmap_string_comp|

; Function compile flags: /Odtpy
; File C:\Users\paras\source\repos\grep-name\XenevaOS\KernelAA64\hashmap.c

	AREA	|.text$mn|, CODE, ARM64

|hashmap_string_hash| PROC

; 38   : unsigned int hashmap_string_hash(const void* _key) {

|$LN5|
	sub         sp,sp,#0x20
	str         x0,[sp,#0x18]

; 39   : 	unsigned int hash = 0;

	mov         w8,#0
	str         w8,[sp]

; 40   : 	char* key = (char*)_key;

	ldr         x8,[sp,#0x18]
	str         x8,[sp,#0x10]
|$LN2@hashmap_st|

; 41   : 	int c;
; 42   : 	while ((c = *key++))

	ldr         x8,[sp,#0x10]
	ldrsb       w8,[x8]
	mov         w8,w8
	str         w8,[sp,#4]
	ldr         w8,[sp,#4]
	str         w8,[sp,#8]
	ldr         x8,[sp,#0x10]
	add         x8,x8,#1
	str         x8,[sp,#0x10]
	ldr         w8,[sp,#8]
	cmp         w8,#0
	beq         |$LN3@hashmap_st|

; 43   : 		hash = c + (hash << 6) + (hash << 16) - hash;

	ldr         w8,[sp]
	lsl         w9,w8,#6
	ldr         w8,[sp,#4]
	add         w9,w8,w9
	ldr         w8,[sp]
	lsl         w8,w8,#0x10
	add         w9,w9,w8
	ldr         w8,[sp]
	sub         w8,w9,w8
	str         w8,[sp]
	b           |$LN2@hashmap_st|
|$LN3@hashmap_st|

; 44   : 	return hash;

	ldr         w0,[sp]
	add         sp,sp,#0x20
	ret

	ENDP  ; |hashmap_string_hash|

; Function compile flags: /Odtpy
; File C:\Users\paras\source\repos\grep-name\XenevaOS\KernelAA64\hashmap.c

	AREA	|.text$mn|, CODE, ARM64

|AuHashmapIsEmpty| PROC

; 217  : int AuHashmapIsEmpty(hashmap_t* map) {

|$LN7|
	sub         sp,sp,#0x10
	str         x0,[sp,#8]

; 218  : 	for (unsigned int i = 0; i < map->size; ++i) {

	mov         w8,#0
	str         w8,[sp]
	b           |$LN4@AuHashmapI|
|$LN2@AuHashmapI|
	ldr         w8,[sp]
	add         w8,w8,#1
	str         w8,[sp]
|$LN4@AuHashmapI|
	ldr         w8,[sp]
	uxtw        x9,w8
	ldr         x8,[sp,#8]
	add         x8,x8,#0x28
	ldr         x8,[x8]
	cmp         x9,x8
	bhs         |$LN3@AuHashmapI|

; 219  : 		if (map->entries[i]) return 0;

	ldr         x8,[sp,#8]
	add         x10,x8,#0x30
	ldr         w8,[sp]
	uxtw        x9,w8
	mov         x8,#8
	mul         x9,x9,x8
	ldr         x8,[x10]
	add         x8,x8,x9
	ldr         x8,[x8]
	cmp         x8,#0
	beq         |$LN5@AuHashmapI|
	mov         w0,#0
	b           |$LN1@AuHashmapI|
|$LN5@AuHashmapI|

; 220  : 	}

	b           |$LN2@AuHashmapI|
|$LN3@AuHashmapI|

; 221  : 	return 1;

	mov         w0,#1
|$LN1@AuHashmapI|
	add         sp,sp,#0x10
	ret

	ENDP  ; |AuHashmapIsEmpty|

; Function compile flags: /Odtpy
; File C:\Users\paras\source\repos\grep-name\XenevaOS\KernelAA64\hashmap.c

	AREA	|.text$mn|, CODE, ARM64

|AuHashmapFree| PROC

; 203  : void AuHashmapFree(hashmap_t* map) {

|$LN8|
	str         lr,[sp,#-0x10]!
	sub         sp,sp,#0x20
	str         x0,[sp,#8]

; 204  : 	for (unsigned int i = 0; i < map->size; ++i) {

	mov         w8,#0
	str         w8,[sp]
	b           |$LN4@AuHashmapF|
|$LN2@AuHashmapF|
	ldr         w8,[sp]
	add         w8,w8,#1
	str         w8,[sp]
|$LN4@AuHashmapF|
	ldr         w8,[sp]
	uxtw        x9,w8
	ldr         x8,[sp,#8]
	add         x8,x8,#0x28
	ldr         x8,[x8]
	cmp         x9,x8
	bhs         |$LN3@AuHashmapF|

; 205  : 		hashmap_entry_t* x = map->entries[i], * p;

	ldr         x8,[sp,#8]
	add         x10,x8,#0x30
	ldr         w8,[sp]
	uxtw        x9,w8
	mov         x8,#8
	mul         x9,x9,x8
	ldr         x8,[x10]
	add         x8,x8,x9
	ldr         x8,[x8]
	str         x8,[sp,#0x10]
|$LN5@AuHashmapF|

; 206  : 		while (x) {

	ldr         x8,[sp,#0x10]
	cmp         x8,#0
	beq         |$LN6@AuHashmapF|

; 207  : 			p = x;

	ldr         x8,[sp,#0x10]
	str         x8,[sp,#0x18]

; 208  : 			x = x->next;

	ldr         x8,[sp,#0x10]
	add         x8,x8,#0x10
	ldr         x8,[x8]
	str         x8,[sp,#0x10]

; 209  : 			map->hash_key_free(p->key);

	ldr         x9,[sp,#0x18]
	ldr         x8,[sp,#8]
	add         x8,x8,#0x18
	ldr         x0,[x9]
	ldr         x8,[x8]
	blr         x8

; 210  : 			map->hash_val_free(p);

	ldr         x8,[sp,#8]
	add         x8,x8,#0x20
	ldr         x0,[sp,#0x18]
	ldr         x8,[x8]
	blr         x8

; 211  : 		}

	b           |$LN5@AuHashmapF|
|$LN6@AuHashmapF|

; 212  : 	}

	b           |$LN2@AuHashmapF|
|$LN3@AuHashmapF|

; 213  : 	kfree(map->entries);

	ldr         x8,[sp,#8]
	add         x8,x8,#0x30
	ldr         x0,[x8]
	bl          kfree
	add         sp,sp,#0x20
	ldr         lr,[sp],#0x10
	ret

	ENDP  ; |AuHashmapFree|

; Function compile flags: /Odtpy
; File C:\Users\paras\source\repos\grep-name\XenevaOS\KernelAA64\hashmap.c

	AREA	|.text$mn|, CODE, ARM64

|AuHashmapHas| PROC

; 188  : int AuHashmapHas(hashmap_t* map, const void* key) {

|$LN10|
	str         lr,[sp,#-0x10]!
	sub         sp,sp,#0x20
	str         x0,[sp,#0x10]
	str         x1,[sp,#0x18]

; 189  : 	unsigned int hash = map->hash_func(key) % map->size;

	ldr         x8,[sp,#0x10]
	ldr         x0,[sp,#0x18]
	ldr         x8,[x8]
	blr         x8
	mov         w0,w0
	uxtw        x10,w0
	ldr         x8,[sp,#0x10]
	add         x8,x8,#0x28
	ldr         x9,[x8]
	cbnz        x9,|$LN9@AuHashmapH|
	brk         #0xF004
|$LN9@AuHashmapH|
	udiv        x8,x10,x9
	mul         x8,x8,x9
	sub         x8,x10,x8
	mov         w8,w8
	str         w8,[sp]

; 190  : 	hashmap_entry_t* x = map->entries[hash];

	ldr         x8,[sp,#0x10]
	add         x10,x8,#0x30
	ldr         w8,[sp]
	uxtw        x9,w8
	mov         x8,#8
	mul         x9,x9,x8
	ldr         x8,[x10]
	add         x8,x8,x9
	ldr         x8,[x8]
	str         x8,[sp,#8]

; 191  : 	if (!x)

	ldr         x8,[sp,#8]
	cmp         x8,#0
	bne         |$LN5@AuHashmapH|

; 192  : 		return 0;

	mov         w0,#0
	b           |$LN1@AuHashmapH|
	b           |$LN6@AuHashmapH|
|$LN5@AuHashmapH|
|$LN4@AuHashmapH|

; 193  : 	else {
; 194  : 		do {
; 195  : 			if (map->hash_comp(x->key, key))

	ldr         x9,[sp,#8]
	ldr         x8,[sp,#0x10]
	add         x8,x8,#8
	ldr         x1,[sp,#0x18]
	ldr         x0,[x9]
	ldr         x8,[x8]
	blr         x8
	mov         w0,w0
	cmp         w0,#0
	beq         |$LN7@AuHashmapH|

; 196  : 				return 1;

	mov         w0,#1
	b           |$LN1@AuHashmapH|
|$LN7@AuHashmapH|

; 197  : 			x = x->next;

	ldr         x8,[sp,#8]
	add         x8,x8,#0x10
	ldr         x8,[x8]
	str         x8,[sp,#8]

; 198  : 		} while (x);

	ldr         x8,[sp,#8]
	cmp         x8,#0
	bne         |$LN4@AuHashmapH|

; 199  : 		return 0;

	mov         w0,#0
|$LN6@AuHashmapH|
|$LN1@AuHashmapH|
	add         sp,sp,#0x20
	ldr         lr,[sp],#0x10
	ret

	ENDP  ; |AuHashmapHas|

; Function compile flags: /Odtpy
; File C:\Users\paras\source\repos\grep-name\XenevaOS\KernelAA64\hashmap.c

	AREA	|.text$mn|, CODE, ARM64

|AuHashmapRemove| PROC

; 155  : void* AuHashmapRemove(hashmap_t* map, const void* key) {

|$LN12|
	str         lr,[sp,#-0x10]!
	sub         sp,sp,#0x40
	str         x0,[sp,#0x10]
	str         x1,[sp,#0x18]

; 156  : 	unsigned int hash = map->hash_func(key) % map->size;

	ldr         x8,[sp,#0x10]
	ldr         x0,[sp,#0x18]
	ldr         x8,[x8]
	blr         x8
	mov         w0,w0
	uxtw        x10,w0
	ldr         x8,[sp,#0x10]
	add         x8,x8,#0x28
	ldr         x9,[x8]
	cbnz        x9,|$LN11@AuHashmapR|
	brk         #0xF004
|$LN11@AuHashmapR|
	udiv        x8,x10,x9
	mul         x8,x8,x9
	sub         x8,x10,x8
	mov         w8,w8
	str         w8,[sp]

; 157  : 
; 158  : 	hashmap_entry_t* x = map->entries[hash];

	ldr         x8,[sp,#0x10]
	add         x10,x8,#0x30
	ldr         w8,[sp]
	uxtw        x9,w8
	mov         x8,#8
	mul         x9,x9,x8
	ldr         x8,[x10]
	add         x8,x8,x9
	ldr         x8,[x8]
	str         x8,[sp,#8]

; 159  : 	if (!x)

	ldr         x8,[sp,#8]
	cmp         x8,#0
	bne         |$LN5@AuHashmapR|

; 160  : 		return NULL;

	mov         x0,#0
	b           |$LN1@AuHashmapR|
	b           |$LN6@AuHashmapR|
|$LN5@AuHashmapR|

; 161  : 	else {
; 162  : 		if (map->hash_comp(x->key, key)) {

	ldr         x9,[sp,#8]
	ldr         x8,[sp,#0x10]
	add         x8,x8,#8
	ldr         x1,[sp,#0x18]
	ldr         x0,[x9]
	ldr         x8,[x8]
	blr         x8
	mov         w0,w0
	cmp         w0,#0
	beq         |$LN7@AuHashmapR|

; 163  : 			void* out = x->value;

	ldr         x8,[sp,#8]
	add         x8,x8,#8
	ldr         x8,[x8]
	str         x8,[sp,#0x28]

; 164  : 			map->entries[hash] = x->next;

	ldr         x8,[sp,#8]
	add         x11,x8,#0x10
	ldr         x8,[sp,#0x10]
	add         x10,x8,#0x30
	ldr         w8,[sp]
	uxtw        x9,w8
	mov         x8,#8
	mul         x9,x9,x8
	ldr         x8,[x10]
	add         x9,x8,x9
	ldr         x8,[x11]
	str         x8,[x9]

; 165  : 			map->hash_key_free(x->key);

	ldr         x9,[sp,#8]
	ldr         x8,[sp,#0x10]
	add         x8,x8,#0x18
	ldr         x0,[x9]
	ldr         x8,[x8]
	blr         x8

; 166  : 			map->hash_val_free(x);

	ldr         x8,[sp,#0x10]
	add         x8,x8,#0x20
	ldr         x0,[sp,#8]
	ldr         x8,[x8]
	blr         x8

; 167  : 			return out;

	ldr         x0,[sp,#0x28]
	b           |$LN1@AuHashmapR|

; 168  : 		}

	b           |$LN8@AuHashmapR|
|$LN7@AuHashmapR|

; 169  : 		else {
; 170  : 			hashmap_entry_t* p = x;

	ldr         x8,[sp,#8]
	str         x8,[sp,#0x20]

; 171  : 			x = x->next;

	ldr         x8,[sp,#8]
	add         x8,x8,#0x10
	ldr         x8,[x8]
	str         x8,[sp,#8]
|$LN4@AuHashmapR|

; 172  : 			do {
; 173  : 				if (map->hash_comp(x->key, key)) {

	ldr         x9,[sp,#8]
	ldr         x8,[sp,#0x10]
	add         x8,x8,#8
	ldr         x1,[sp,#0x18]
	ldr         x0,[x9]
	ldr         x8,[x8]
	blr         x8
	mov         w0,w0
	cmp         w0,#0
	beq         |$LN9@AuHashmapR|

; 174  : 					void* out = x->value;

	ldr         x8,[sp,#8]
	add         x8,x8,#8
	ldr         x8,[x8]
	str         x8,[sp,#0x30]

; 175  : 					p->next = x->next;

	ldr         x8,[sp,#8]
	add         x10,x8,#0x10
	ldr         x8,[sp,#0x20]
	add         x9,x8,#0x10
	ldr         x8,[x10]
	str         x8,[x9]

; 176  : 					map->hash_key_free(x->key);

	ldr         x9,[sp,#8]
	ldr         x8,[sp,#0x10]
	add         x8,x8,#0x18
	ldr         x0,[x9]
	ldr         x8,[x8]
	blr         x8

; 177  : 					map->hash_val_free(x);

	ldr         x8,[sp,#0x10]
	add         x8,x8,#0x20
	ldr         x0,[sp,#8]
	ldr         x8,[x8]
	blr         x8

; 178  : 					return out;

	ldr         x0,[sp,#0x30]
	b           |$LN1@AuHashmapR|
|$LN9@AuHashmapR|

; 179  : 				}
; 180  : 				p = x;

	ldr         x8,[sp,#8]
	str         x8,[sp,#0x20]

; 181  : 				x = x->next;

	ldr         x8,[sp,#8]
	add         x8,x8,#0x10
	ldr         x8,[x8]
	str         x8,[sp,#8]

; 182  : 			} while (x);

	ldr         x8,[sp,#8]
	cmp         x8,#0
	bne         |$LN4@AuHashmapR|
|$LN8@AuHashmapR|

; 183  : 		}
; 184  : 		return NULL;

	mov         x0,#0
|$LN6@AuHashmapR|
|$LN1@AuHashmapR|
	add         sp,sp,#0x40
	ldr         lr,[sp],#0x10
	ret

	ENDP  ; |AuHashmapRemove|

; Function compile flags: /Odtpy
; File C:\Users\paras\source\repos\grep-name\XenevaOS\KernelAA64\hashmap.c

	AREA	|.text$mn|, CODE, ARM64

|AuHashmapGet| PROC

; 137  : void* AuHashmapGet(hashmap_t* map, const void* key) {

|$LN10|
	str         lr,[sp,#-0x10]!
	sub         sp,sp,#0x20
	str         x0,[sp,#0x10]
	str         x1,[sp,#0x18]

; 138  : 	unsigned int hash = map->hash_func(key) % map->size;

	ldr         x8,[sp,#0x10]
	ldr         x0,[sp,#0x18]
	ldr         x8,[x8]
	blr         x8
	mov         w0,w0
	uxtw        x10,w0
	ldr         x8,[sp,#0x10]
	add         x8,x8,#0x28
	ldr         x9,[x8]
	cbnz        x9,|$LN9@AuHashmapG|
	brk         #0xF004
|$LN9@AuHashmapG|
	udiv        x8,x10,x9
	mul         x8,x8,x9
	sub         x8,x10,x8
	mov         w8,w8
	str         w8,[sp]

; 139  : 	UARTDebugOut("Hashget hash : %d \r\n", hash);

	ldr         w1,[sp]
	adrp        x8,|$SG2697|
	add         x0,x8,PageOffset(|$SG2697|)
	bl          UARTDebugOut

; 140  : 	hashmap_entry_t* x = map->entries[hash];

	ldr         x8,[sp,#0x10]
	add         x10,x8,#0x30
	ldr         w8,[sp]
	uxtw        x9,w8
	mov         x8,#8
	mul         x9,x9,x8
	ldr         x8,[x10]
	add         x8,x8,x9
	ldr         x8,[x8]
	str         x8,[sp,#8]

; 141  : 	if (!x) {

	ldr         x8,[sp,#8]
	cmp         x8,#0
	bne         |$LN5@AuHashmapG|

; 142  : 		return NULL;

	mov         x0,#0
	b           |$LN1@AuHashmapG|

; 143  : 	}

	b           |$LN6@AuHashmapG|
|$LN5@AuHashmapG|
|$LN4@AuHashmapG|

; 144  : 	else {
; 145  : 		do {
; 146  : 			UARTDebugOut("Hasmap hash key : %x \r\n", x->key);

	ldr         x8,[sp,#8]
	ldr         x1,[x8]
	adrp        x8,|$SG2700|
	add         x0,x8,PageOffset(|$SG2700|)
	bl          UARTDebugOut

; 147  : 			if (map->hash_comp(x->key, key))

	ldr         x9,[sp,#8]
	ldr         x8,[sp,#0x10]
	add         x8,x8,#8
	ldr         x1,[sp,#0x18]
	ldr         x0,[x9]
	ldr         x8,[x8]
	blr         x8
	mov         w0,w0
	cmp         w0,#0
	beq         |$LN7@AuHashmapG|

; 148  : 				return x->value;

	ldr         x8,[sp,#8]
	add         x8,x8,#8
	ldr         x0,[x8]
	b           |$LN1@AuHashmapG|
|$LN7@AuHashmapG|

; 149  : 			x = x->next;

	ldr         x8,[sp,#8]
	add         x8,x8,#0x10
	ldr         x8,[x8]
	str         x8,[sp,#8]

; 150  : 		} while (x);

	ldr         x8,[sp,#8]
	cmp         x8,#0
	bne         |$LN4@AuHashmapG|

; 151  : 		return NULL;

	mov         x0,#0
|$LN6@AuHashmapG|
|$LN1@AuHashmapG|
	add         sp,sp,#0x20
	ldr         lr,[sp],#0x10
	ret

	ENDP  ; |AuHashmapGet|

; Function compile flags: /Odtpy
; File C:\Users\paras\source\repos\grep-name\XenevaOS\KernelAA64\hashmap.c

	AREA	|.text$mn|, CODE, ARM64

|AuHashmapSet| PROC

; 103  : void* AuHashmapSet(hashmap_t* map, const void* key, void* value) {

|$LN11|
	str         lr,[sp,#-0x10]!
	sub         sp,sp,#0x50
	str         x0,[sp,#0x10]
	str         x1,[sp,#0x20]
	str         x2,[sp,#0x30]

; 104  : 	unsigned int hash = map->hash_func(key) % map->size;

	ldr         x8,[sp,#0x10]
	ldr         x0,[sp,#0x20]
	ldr         x8,[x8]
	blr         x8
	mov         w0,w0
	uxtw        x10,w0
	ldr         x8,[sp,#0x10]
	add         x8,x8,#0x28
	ldr         x9,[x8]
	cbnz        x9,|$LN10@AuHashmapS|
	brk         #0xF004
|$LN10@AuHashmapS|
	udiv        x8,x10,x9
	mul         x8,x8,x9
	sub         x8,x10,x8
	mov         w8,w8
	str         w8,[sp,#8]

; 105  : 	UARTDebugOut("[[Hashmap func : %d \r\n", hash);

	ldr         w1,[sp,#8]
	adrp        x8,|$SG2682|
	add         x0,x8,PageOffset(|$SG2682|)
	bl          UARTDebugOut

; 106  : 	hashmap_entry_t* x = map->entries[hash];

	ldr         x8,[sp,#0x10]
	add         x10,x8,#0x30
	ldr         w8,[sp,#8]
	uxtw        x9,w8
	mov         x8,#8
	mul         x9,x9,x8
	ldr         x8,[x10]
	add         x8,x8,x9
	ldr         x8,[x8]
	str         x8,[sp]

; 107  : 	if (!x) {

	ldr         x8,[sp]
	cmp         x8,#0
	bne         |$LN5@AuHashmapS|

; 108  : 		hashmap_entry_t* e = (hashmap_entry_t*)kmalloc(sizeof(hashmap_entry_t));

	mov         w0,#0x18
	bl          kmalloc
	str         x0,[sp,#0x18]

; 109  : 		e->key = (char*)map->hash_key_dup(key);

	ldr         x8,[sp,#0x10]
	add         x8,x8,#0x10
	ldr         x0,[sp,#0x20]
	ldr         x8,[x8]
	blr         x8
	ldr         x8,[sp,#0x18]
	str         x0,[x8]

; 110  : 		e->value = value;

	ldr         x8,[sp,#0x18]
	add         x9,x8,#8
	ldr         x8,[sp,#0x30]
	str         x8,[x9]

; 111  : 		e->next = NULL;

	ldr         x8,[sp,#0x18]
	add         x9,x8,#0x10
	mov         x8,#0
	str         x8,[x9]

; 112  : 		map->entries[hash] = e;

	ldr         x8,[sp,#0x10]
	add         x10,x8,#0x30
	ldr         w8,[sp,#8]
	uxtw        x9,w8
	mov         x8,#8
	mul         x9,x9,x8
	ldr         x8,[x10]
	add         x9,x8,x9
	ldr         x8,[sp,#0x18]
	str         x8,[x9]

; 113  : 		return NULL;

	mov         x0,#0
	b           |$LN1@AuHashmapS|

; 114  : 	}

	b           |$LN6@AuHashmapS|
|$LN5@AuHashmapS|

; 115  : 	else {
; 116  : 		hashmap_entry_t* p = NULL;

	mov         x8,#0
	str         x8,[sp,#0x38]
|$LN4@AuHashmapS|

; 117  : 		do {
; 118  : 			if (map->hash_comp(x->key, key)) {

	ldr         x9,[sp]
	ldr         x8,[sp,#0x10]
	add         x8,x8,#8
	ldr         x1,[sp,#0x20]
	ldr         x0,[x9]
	ldr         x8,[x8]
	blr         x8
	mov         w0,w0
	cmp         w0,#0
	beq         |$LN7@AuHashmapS|

; 119  : 				void* out = x->value;

	ldr         x8,[sp]
	add         x8,x8,#8
	ldr         x8,[x8]
	str         x8,[sp,#0x40]

; 120  : 				x->value = value;

	ldr         x8,[sp]
	add         x9,x8,#8
	ldr         x8,[sp,#0x30]
	str         x8,[x9]

; 121  : 				return out;

	ldr         x0,[sp,#0x40]
	b           |$LN1@AuHashmapS|

; 122  : 			}

	b           |$LN8@AuHashmapS|
|$LN7@AuHashmapS|

; 123  : 			else {
; 124  : 				p = x;

	ldr         x8,[sp]
	str         x8,[sp,#0x38]

; 125  : 				x = x->next;

	ldr         x8,[sp]
	add         x8,x8,#0x10
	ldr         x8,[x8]
	str         x8,[sp]
|$LN8@AuHashmapS|

; 126  : 			}
; 127  : 		} while (x);

	ldr         x8,[sp]
	cmp         x8,#0
	bne         |$LN4@AuHashmapS|

; 128  : 		hashmap_entry_t* e = (hashmap_entry_t*)kmalloc(sizeof(hashmap_entry_t));

	mov         w0,#0x18
	bl          kmalloc
	str         x0,[sp,#0x28]

; 129  : 		e->key = (char*)map->hash_key_dup(key);

	ldr         x8,[sp,#0x10]
	add         x8,x8,#0x10
	ldr         x0,[sp,#0x20]
	ldr         x8,[x8]
	blr         x8
	ldr         x8,[sp,#0x28]
	str         x0,[x8]

; 130  : 		e->value = value;

	ldr         x8,[sp,#0x28]
	add         x9,x8,#8
	ldr         x8,[sp,#0x30]
	str         x8,[x9]

; 131  : 		e->next = NULL;

	ldr         x8,[sp,#0x28]
	add         x9,x8,#0x10
	mov         x8,#0
	str         x8,[x9]

; 132  : 		p->next = e;

	ldr         x8,[sp,#0x38]
	add         x9,x8,#0x10
	ldr         x8,[sp,#0x28]
	str         x8,[x9]

; 133  : 		return NULL;

	mov         x0,#0
|$LN6@AuHashmapS|
|$LN1@AuHashmapS|
	add         sp,sp,#0x50
	ldr         lr,[sp],#0x10
	ret

	ENDP  ; |AuHashmapSet|

; Function compile flags: /Odtpy
; File C:\Users\paras\source\repos\grep-name\XenevaOS\KernelAA64\hashmap.c

	AREA	|.text$mn|, CODE, ARM64

|AuHashmapCreateInt| PROC

; 90   : hashmap_t* AuHashmapCreateInt(int size) {

|$LN3|
	str         lr,[sp,#-0x10]!
	sub         sp,sp,#0x10
	str         w0,[sp]

; 91   : 	hashmap_t* map = (hashmap_t*)kmalloc(sizeof(hashmap_t));

	mov         w0,#0x38
	bl          kmalloc
	str         x0,[sp,#8]

; 92   : 	map->hash_func = hashmap_int_hash;

	ldr         x9,[sp,#8]
	adrp        x8,hashmap_int_hash
	add         x8,x8,PageOffset(hashmap_int_hash)
	str         x8,[x9]

; 93   : 	map->hash_comp = hashmap_int_comp;

	ldr         x8,[sp,#8]
	add         x9,x8,#8
	adrp        x8,hashmap_int_comp
	add         x8,x8,PageOffset(hashmap_int_comp)
	str         x8,[x9]

; 94   : 	map->hash_key_dup = hashmap_int_dupe;

	ldr         x8,[sp,#8]
	add         x9,x8,#0x10
	adrp        x8,hashmap_int_dupe
	add         x8,x8,PageOffset(hashmap_int_dupe)
	str         x8,[x9]

; 95   : 	map->hash_key_free = hashmap_int_free;

	ldr         x8,[sp,#8]
	add         x9,x8,#0x18
	adrp        x8,hashmap_int_free
	add         x8,x8,PageOffset(hashmap_int_free)
	str         x8,[x9]

; 96   : 	map->hash_val_free = hashmap_int_free;

	ldr         x8,[sp,#8]
	add         x9,x8,#0x20
	adrp        x8,hashmap_int_free
	add         x8,x8,PageOffset(hashmap_int_free)
	str         x8,[x9]

; 97   : 	map->size = size;

	ldr         x8,[sp,#8]
	add         x9,x8,#0x28
	ldr         w8,[sp]
	sxtw        x8,w8
	str         x8,[x9]

; 98   : 	map->entries = (hashmap_entry_t**)kmalloc(sizeof(hashmap_entry_t*) * size);

	ldr         w8,[sp]
	sxtw        x9,w8
	mov         x8,#8
	mul         x8,x9,x8
	mov         w0,w8
	mov         w0,w0
	bl          kmalloc
	ldr         x8,[sp,#8]
	add         x8,x8,#0x30
	str         x0,[x8]

; 99   : 	memset(map->entries, 0, sizeof(hashmap_entry_t*) * size);

	ldr         w8,[sp]
	sxtw        x9,w8
	mov         x8,#8
	mul         x8,x9,x8
	mov         w2,w8
	ldr         x8,[sp,#8]
	add         x8,x8,#0x30
	mov         w2,w2
	mov         w1,#0
	ldr         x0,[x8]
	bl          memset

; 100  : 	return map;

	ldr         x0,[sp,#8]
	add         sp,sp,#0x10
	ldr         lr,[sp],#0x10
	ret

	ENDP  ; |AuHashmapCreateInt|

; Function compile flags: /Odtpy
; File C:\Users\paras\source\repos\grep-name\XenevaOS\KernelAA64\hashmap.c

	AREA	|.text$mn|, CODE, ARM64

|AuHashmapCreate| PROC

; 76   : hashmap_t* AuHashmapCreate(int size) {

|$LN3|
	str         lr,[sp,#-0x10]!
	sub         sp,sp,#0x10
	str         w0,[sp]

; 77   : 	hashmap_t* map = (hashmap_t*)kmalloc(sizeof(hashmap_t));

	mov         w0,#0x38
	bl          kmalloc
	str         x0,[sp,#8]

; 78   : 	map->hash_func = hashmap_string_hash;

	ldr         x9,[sp,#8]
	adrp        x8,hashmap_string_hash
	add         x8,x8,PageOffset(hashmap_string_hash)
	str         x8,[x9]

; 79   : 	map->hash_comp = hashmap_string_comp;

	ldr         x8,[sp,#8]
	add         x9,x8,#8
	adrp        x8,hashmap_string_comp
	add         x8,x8,PageOffset(hashmap_string_comp)
	str         x8,[x9]

; 80   : 	map->hash_key_dup = hashmap_string_dupe;

	ldr         x8,[sp,#8]
	add         x9,x8,#0x10
	adrp        x8,hashmap_string_dupe
	add         x8,x8,PageOffset(hashmap_string_dupe)
	str         x8,[x9]

; 81   : 	map->hash_key_free = kfree;

	ldr         x8,[sp,#8]
	add         x9,x8,#0x18
	adrp        x8,kfree
	add         x8,x8,PageOffset(kfree)
	str         x8,[x9]

; 82   : 	map->hash_val_free = kfree;

	ldr         x8,[sp,#8]
	add         x9,x8,#0x20
	adrp        x8,kfree
	add         x8,x8,PageOffset(kfree)
	str         x8,[x9]

; 83   : 	map->size = size;

	ldr         x8,[sp,#8]
	add         x9,x8,#0x28
	ldr         w8,[sp]
	sxtw        x8,w8
	str         x8,[x9]

; 84   : 	map->entries = (hashmap_entry_t**)kmalloc(sizeof(hashmap_entry_t*) * size);

	ldr         w8,[sp]
	sxtw        x9,w8
	mov         x8,#8
	mul         x8,x9,x8
	mov         w0,w8
	mov         w0,w0
	bl          kmalloc
	ldr         x8,[sp,#8]
	add         x8,x8,#0x30
	str         x0,[x8]

; 85   : 	memset(map->entries, 0, sizeof(hashmap_entry_t*) * size);

	ldr         w8,[sp]
	sxtw        x9,w8
	mov         x8,#8
	mul         x8,x9,x8
	mov         w2,w8
	ldr         x8,[sp,#8]
	add         x8,x8,#0x30
	mov         w2,w2
	mov         w1,#0
	ldr         x0,[x8]
	bl          memset

; 86   : 
; 87   : 	return map;

	ldr         x0,[sp,#8]
	add         sp,sp,#0x10
	ldr         lr,[sp],#0x10
	ret

	ENDP  ; |AuHashmapCreate|

	END
