; Listing generated by Microsoft (R) Optimizing Compiler Version 19.29.30159.0 

	TTL	C:\Users\paras\source\repos\grep-name\XenevaOS\KernelAA64\ARM64\Debug\icmp.obj
	ARM64

	AREA	|.drectve|, DRECTVE


	AREA	|.data|, DATA
	 COMMON	|current_icmp_sock|, 0x8

	EXPORT	|ICMPInitialise|
	EXPORT	|AuICMPHandle|
	EXPORT	|CreateICMPSocket|
	EXPORT	|AuICMPChecksum|
	EXPORT	|AuICMPReceive|
	EXPORT	|AuICMPSend|
	EXPORT	|AuICMPClose|
	EXPORT	|AuICMPBind|
	EXPORT	|AuICMPRead|
	EXPORT	|AuICMPWrite|
	EXPORT	|AuICMPFileClose|
	IMPORT	|AuStackPop|
	IMPORT	|AuNetCreateSocket|
	IMPORT	|AuSocketAdd|
	IMPORT	|AuSocketGet|
	IMPORT	|SocketIOControl|
	IMPORT	|AuGetCurrentThread|
	IMPORT	|AuProcessFindThread|
	IMPORT	|AuProcessFindSubThread|
	IMPORT	|AuProcessGetFileDesc|
	IMPORT	|kmalloc|
	IMPORT	|kfree|
	IMPORT	|strcpy|
	IMPORT	|memset|
	IMPORT	|memcpy|
	IMPORT	|IPv4CalculateChecksum|
	IMPORT	|ip_ntoa|
	IMPORT	|IPV4SendPacket|
	IMPORT	|AuNetworkRoute|
	IMPORT	|UARTDebugOut|

	AREA	|.pdata|, PDATA
|$pdata$AuICMPHandle| DCD imagerel |$LN10|
	DCD	0x2210555
	;Flags[SingleProEpi] functionLength[1364] RegF[0] RegI[1] H[0] frameChainReturn[UnChainedSavedLR] frameSize[64]
|$pdata$CreateICMPSocket| DCD imagerel |$LN7|
	DCD	0x22001d5
	;Flags[SingleProEpi] functionLength[468] RegF[0] RegI[0] H[0] frameChainReturn[UnChainedSavedLR] frameSize[64]
|$pdata$AuICMPChecksum| DCD imagerel |$LN7|
	DCD	0x100012d
	;Flags[SingleProEpi] functionLength[300] RegF[0] RegI[0] H[0] frameChainReturn[UnChained] frameSize[32]
|$pdata$AuICMPReceive| DCD imagerel |$LN9|
	DCD	0x2200185
	;Flags[SingleProEpi] functionLength[388] RegF[0] RegI[0] H[0] frameChainReturn[UnChainedSavedLR] frameSize[64]
|$pdata$AuICMPSend| DCD imagerel |$LN8|
	DCD	0x2a102c1
	;Flags[SingleProEpi] functionLength[704] RegF[0] RegI[1] H[0] frameChainReturn[UnChainedSavedLR] frameSize[80]
|$pdata$AuICMPClose| DCD imagerel |$LN3|
	DCD	0x800011
	;Flags[SingleProEpi] functionLength[16] RegF[0] RegI[0] H[0] frameChainReturn[UnChained] frameSize[16]
|$pdata$AuICMPBind| DCD imagerel |$LN3|
	DCD	0x100001d
	;Flags[SingleProEpi] functionLength[28] RegF[0] RegI[0] H[0] frameChainReturn[UnChained] frameSize[32]
|$pdata$AuICMPRead| DCD imagerel |$LN3|
	DCD	0x1000021
	;Flags[SingleProEpi] functionLength[32] RegF[0] RegI[0] H[0] frameChainReturn[UnChained] frameSize[32]
|$pdata$AuICMPWrite| DCD imagerel |$LN3|
	DCD	0x1000021
	;Flags[SingleProEpi] functionLength[32] RegF[0] RegI[0] H[0] frameChainReturn[UnChained] frameSize[32]
|$pdata$AuICMPFileClose| DCD imagerel |$LN7|
	DCD	0x1a000c5
	;Flags[SingleProEpi] functionLength[196] RegF[0] RegI[0] H[0] frameChainReturn[UnChainedSavedLR] frameSize[48]

	AREA	|.data|, DATA
|$SG3332| DCB	"[AuNet]: ICMP Handle no network device found ", 0xd, 0xa
	DCB	0x0
|$SG3335| DCB	"[AuNet]: Ping with %d bytes of payload ", 0xd, 0xa, 0x0
	%	6
|$SG3336| DCB	"From -> ", 0x0
	%	3
|$SG3337| DCB	0xd, 0xa, 0x0
	%	1
|$SG3339| DCB	"reply->code -> %d ", 0xd, 0xa, 0x0
	%	3
|$SG3342| DCB	"[AuNet]:ICMP ping reply got ", 0xd, 0xa, 0x0
	%	1
|$SG3344| DCB	"[AuNet]: NIC -> %s, ICMP type-%d code-%d ", 0xd, 0xa, 0x0
	%	4
|$SG3440| DCB	"ICMP: Socket Closed ", 0xd, 0xa, 0x0
	%	1
|$SG3452| DCB	"ICMP: Already there is a socket listening to ICMP, close"
	DCB	" that ", 0xd, 0xa, 0x0
	%	3
|$SG3456| DCB	"icmp", 0x0
	%	7
|$SG3457| DCB	"ICMP Socket created ", 0xd, 0xa, 0x0
; Function compile flags: /Odtpy
; File C:\Users\paras\source\repos\grep-name\XenevaOS\KernelAA64\Net\icmp.c

	AREA	|.text$mn|, CODE, ARM64

|AuICMPFileClose| PROC

; 207  : int AuICMPFileClose(AuVFSNode* fsys, AuVFSNode* file) {

|$LN7|
	str         lr,[sp,#-0x10]!
	sub         sp,sp,#0x20
	str         x0,[sp,#0x18]
	str         x1,[sp,#8]

; 208  : 	/* here both fs and file points to socket file , better
; 209  : 	 * would be using file pointer */
; 210  : 	AuSocket* sock = (AuSocket*)file->device;

	ldr         x8,[sp,#8]
	add         x8,x8,#0x50
	ldr         x8,[x8]
	str         x8,[sp]

; 211  : 
; 212  : 	if (sock) {

	ldr         x8,[sp]
	cmp         x8,#0
	beq         |$LN4@AuICMPFile|

; 213  : 		if (sock->rxstack) {

	ldr         x8,[sp]
	add         x8,x8,#8
	ldr         x8,[x8]
	cmp         x8,#0
	beq         |$LN5@AuICMPFile|
|$LN2@AuICMPFile|

; 214  : 			while (sock->rxstack->itemCount) {

	ldr         x8,[sp]
	add         x8,x8,#8
	ldr         x8,[x8]
	add         x8,x8,#8
	ldr         w8,[x8]
	cmp         w8,#0
	beq         |$LN3@AuICMPFile|

; 215  : 				void* data = AuStackPop(sock->rxstack);

	ldr         x8,[sp]
	add         x8,x8,#8
	ldr         x0,[x8]
	bl          AuStackPop
	str         x0,[sp,#0x10]

; 216  : 				kfree(data);

	ldr         x0,[sp,#0x10]
	bl          kfree

; 217  : 			}

	b           |$LN2@AuICMPFile|
|$LN3@AuICMPFile|

; 218  : 			kfree(sock->rxstack);

	ldr         x8,[sp]
	add         x8,x8,#8
	ldr         x0,[x8]
	bl          kfree
|$LN5@AuICMPFile|

; 219  : 		}
; 220  : 
; 221  : 		kfree(sock);

	ldr         x0,[sp]
	bl          kfree
|$LN4@AuICMPFile|

; 222  : 	}
; 223  : 
; 224  : 	kfree(file);

	ldr         x0,[sp,#8]
	bl          kfree

; 225  : 	current_icmp_sock = NULL;

	adrp        x9,current_icmp_sock
	mov         x8,#0
	str         x8,[x9,PageOffset(current_icmp_sock)]

; 226  : 	UARTDebugOut("ICMP: Socket Closed \r\n");

	adrp        x8,|$SG3440|
	add         x0,x8,PageOffset(|$SG3440|)
	bl          UARTDebugOut

; 227  : 	return 0;

	mov         w0,#0
	add         sp,sp,#0x20
	ldr         lr,[sp],#0x10
	ret

	ENDP  ; |AuICMPFileClose|

; Function compile flags: /Odtpy
; File C:\Users\paras\source\repos\grep-name\XenevaOS\KernelAA64\Net\icmp.c

	AREA	|.text$mn|, CODE, ARM64

|AuICMPWrite| PROC

; 203  : uint64_t AuICMPWrite(AuVFSNode* node, AuVFSNode* file, uint64_t* buffer, uint32_t len) {

|$LN3|
	sub         sp,sp,#0x20
	str         x0,[sp,#8]
	str         x1,[sp,#0x10]
	str         x2,[sp,#0x18]
	str         w3,[sp]

; 204  : 	return 0;

	mov         x0,#0
	add         sp,sp,#0x20
	ret

	ENDP  ; |AuICMPWrite|

; Function compile flags: /Odtpy
; File C:\Users\paras\source\repos\grep-name\XenevaOS\KernelAA64\Net\icmp.c

	AREA	|.text$mn|, CODE, ARM64

|AuICMPRead| PROC

; 199  : uint64_t AuICMPRead(AuVFSNode* node, AuVFSNode* file, uint64_t* buffer, uint32_t len) {

|$LN3|
	sub         sp,sp,#0x20
	str         x0,[sp,#8]
	str         x1,[sp,#0x10]
	str         x2,[sp,#0x18]
	str         w3,[sp]

; 200  : 	return 0;

	mov         x0,#0
	add         sp,sp,#0x20
	ret

	ENDP  ; |AuICMPRead|

; Function compile flags: /Odtpy
; File C:\Users\paras\source\repos\grep-name\XenevaOS\KernelAA64\Net\icmp.c

	AREA	|.text$mn|, CODE, ARM64

|AuICMPBind| PROC

; 194  : int AuICMPBind(AuSocket* sock, sockaddr* addr, socklen_t addrlen) {

|$LN3|
	sub         sp,sp,#0x20
	str         x0,[sp]
	str         x1,[sp,#8]
	str         x2,[sp,#0x10]

; 195  : 	return 0;

	mov         w0,#0
	add         sp,sp,#0x20
	ret

	ENDP  ; |AuICMPBind|

; Function compile flags: /Odtpy
; File C:\Users\paras\source\repos\grep-name\XenevaOS\KernelAA64\Net\icmp.c

	AREA	|.text$mn|, CODE, ARM64

|AuICMPClose| PROC

; 189  : void AuICMPClose(AuSocket* sock) {

|$LN3|
	sub         sp,sp,#0x10
	str         x0,[sp]
	add         sp,sp,#0x10
	ret

	ENDP  ; |AuICMPClose|

; Function compile flags: /Odtpy
; File C:\Users\paras\source\repos\grep-name\XenevaOS\KernelAA64\Net\icmp.c

	AREA	|.text$mn|, CODE, ARM64

|AuICMPSend| PROC

; 149  : int AuICMPSend(AuSocket* sock, msghdr* msg, int flags) {

|$LN8|
	sub         sp,sp,#0x10
	stp         x19,lr,[sp]
	sub         sp,sp,#0x40
	str         x0,[sp,#0x38]
	str         x1,[sp,#0x10]
	str         w2,[sp]

; 150  : 	if (msg->msg_iovlen > 1)

	ldr         x8,[sp,#0x10]
	add         x8,x8,#0x18
	ldr         x8,[x8]
	cmp         x8,#1
	bls         |$LN2@AuICMPSend|

; 151  : 		return -1;

	mov         w0,#-1
	b           |$LN1@AuICMPSend|
|$LN2@AuICMPSend|

; 152  : 	if (msg->msg_iovlen == 0)return 0;

	ldr         x8,[sp,#0x10]
	add         x8,x8,#0x18
	ldr         x8,[x8]
	cmp         x8,#0
	bne         |$LN3@AuICMPSend|
	mov         w0,#0
	b           |$LN1@AuICMPSend|
|$LN3@AuICMPSend|

; 153  : 	if (msg->msg_namelen != sizeof(sockaddr_in))

	ldr         x8,[sp,#0x10]
	add         x8,x8,#8
	ldr         x8,[x8]
	cmp         x8,#0x10
	beq         |$LN4@AuICMPSend|

; 154  : 		return -1;

	mov         w0,#-1
	b           |$LN1@AuICMPSend|
|$LN4@AuICMPSend|

; 155  : 
; 156  : 	sockaddr_in* name = (sockaddr_in*)msg->msg_name;

	ldr         x8,[sp,#0x10]
	ldr         x8,[x8]
	str         x8,[sp,#0x18]

; 157  : 	AuVFSNode* nic = AuNetworkRoute(name->sin_addr.s_addr);

	ldr         x8,[sp,#0x18]
	add         x8,x8,#4
	ldr         w0,[x8]
	bl          AuNetworkRoute
	str         x0,[sp,#0x28]

; 158  : 	if (!nic) return -1;

	ldr         x8,[sp,#0x28]
	cmp         x8,#0
	bne         |$LN5@AuICMPSend|
	mov         w0,#-1
	b           |$LN1@AuICMPSend|
|$LN5@AuICMPSend|

; 159  : 	AuNetworkDevice* netdev = (AuNetworkDevice*)nic->device;

	ldr         x8,[sp,#0x28]
	add         x8,x8,#0x50
	ldr         x8,[x8]
	str         x8,[sp,#0x30]

; 160  : 	if (!netdev)

	ldr         x8,[sp,#0x30]
	cmp         x8,#0
	bne         |$LN6@AuICMPSend|

; 161  : 		return -1;

	mov         w0,#-1
	b           |$LN1@AuICMPSend|
|$LN6@AuICMPSend|

; 162  : 
; 163  : 	size_t totalLen = sizeof(IPv4Header) + msg->msg_iov[0].iov_len;

	ldr         x8,[sp,#0x10]
	add         x8,x8,#0x10
	ldr         x8,[x8]
	add         x8,x8,#8
	ldr         x8,[x8]
	add         x8,x8,#0x14
	str         x8,[sp,#0x20]

; 164  : 
; 165  : 	IPv4Header* resp = (IPv4Header*)kmalloc(totalLen);

	ldr         x8,[sp,#0x20]
	mov         w0,w8
	mov         w0,w0
	bl          kmalloc
	str         x0,[sp,#8]

; 166  : 	memset(resp, 0, totalLen);

	ldr         x8,[sp,#0x20]
	mov         w2,w8
	mov         w2,w2
	mov         w1,#0
	ldr         x0,[sp,#8]
	bl          memset

; 167  : 	resp->totalLength = htons(totalLen);

	ldr         x8,[sp,#0x20]
	and         x8,x8,#0xFF
	lsl         x9,x8,#8
	ldr         x8,[sp,#0x20]
	and         x8,x8,#0xFF00
	lsr         x8,x8,#8
	orr         x10,x9,x8
	ldr         x8,[sp,#8]
	add         x9,x8,#2
	uxth        w8,w10
	strh        w8,[x9]

; 168  : 	resp->destAddress = htonl(name->sin_addr.s_addr);

	ldr         x8,[sp,#0x18]
	add         x8,x8,#4
	ldr         w8,[x8]
	and         w8,w8,#0xFF
	lsl         w9,w8,#0x18
	ldr         x8,[sp,#0x18]
	add         x8,x8,#4
	ldr         w8,[x8]
	and         w8,w8,#0xFF00
	lsl         w8,w8,#8
	orr         w9,w9,w8
	ldr         x8,[sp,#0x18]
	add         x8,x8,#4
	ldr         w8,[x8]
	and         w8,w8,#0xFF0000
	lsr         w8,w8,#8
	orr         w9,w9,w8
	ldr         x8,[sp,#0x18]
	add         x8,x8,#4
	ldr         w8,[x8]
	and         w8,w8,#0xFF000000
	lsr         w8,w8,#0x18
	orr         w9,w9,w8
	ldr         x8,[sp,#8]
	add         x8,x8,#0x10
	str         w9,[x8]

; 169  : 	resp->srcAddress = netdev->ipv4addr;

	ldr         x8,[sp,#0x30]
	add         x10,x8,#0x10
	ldr         x8,[sp,#8]
	add         x9,x8,#0xC
	ldr         w8,[x10]
	str         w8,[x9]

; 170  : 	resp->timeToLive = 64;

	ldr         x8,[sp,#8]
	add         x9,x8,#8
	mov         w8,#0x40
	strb        w8,[x9]

; 171  : 	resp->protocol = 1;

	ldr         x8,[sp,#8]
	add         x9,x8,#9
	mov         w8,#1
	strb        w8,[x9]

; 172  : 	resp->identification = 0;

	ldr         x8,[sp,#8]
	add         x9,x8,#4
	mov         w8,#0
	strh        w8,[x9]

; 173  : 	resp->flagsFragOffset = htons(0x4000);

	ldr         x8,[sp,#8]
	add         x9,x8,#6
	mov         w8,#0x40
	strh        w8,[x9]

; 174  : 	resp->versionHeaderLen = 0x45;

	ldr         x9,[sp,#8]
	mov         w8,#0x45
	strb        w8,[x9]

; 175  : 	resp->typeOfService = 0;

	ldr         x8,[sp,#8]
	add         x9,x8,#1
	mov         w8,#0
	strb        w8,[x9]

; 176  : 	resp->headerChecksum = 0;

	ldr         x8,[sp,#8]
	add         x9,x8,#0xA
	mov         w8,#0
	strh        w8,[x9]

; 177  : 	resp->headerChecksum = htons(IPv4CalculateChecksum(resp));

	ldr         x0,[sp,#8]
	bl          IPv4CalculateChecksum
	uxth        w8,w0
	mov         w8,w8
	and         w8,w8,#0xFF
	lsl         w19,w8,#8
	ldr         x0,[sp,#8]
	bl          IPv4CalculateChecksum
	uxth        w8,w0
	mov         w8,w8
	and         w8,w8,#0xFF00
	asr         w8,w8,#8
	orr         w10,w19,w8
	ldr         x8,[sp,#8]
	add         x9,x8,#0xA
	uxth        w8,w10
	strh        w8,[x9]

; 178  : 
; 179  : 	memcpy(resp->payload, msg->msg_iov[0].iov_base, msg->msg_iov[0].iov_len);

	ldr         x8,[sp,#0x10]
	add         x8,x8,#0x10
	ldr         x8,[x8]
	add         x10,x8,#8
	ldr         x8,[sp,#0x10]
	add         x8,x8,#0x10
	ldr         x9,[x8]
	ldr         x8,[sp,#8]
	add         x0,x8,#0x14
	ldr         x2,[x10]
	ldr         x1,[x9]
	bl          memcpy

; 180  : 	IPV4SendPacket(resp, nic);

	ldr         x1,[sp,#0x28]
	ldr         x0,[sp,#8]
	bl          IPV4SendPacket

; 181  : 	kfree(resp);

	ldr         x0,[sp,#8]
	bl          kfree

; 182  : 	return 0;

	mov         w0,#0
|$LN1@AuICMPSend|
	add         sp,sp,#0x40
	ldp         x19,lr,[sp]
	add         sp,sp,#0x10
	ret

	ENDP  ; |AuICMPSend|

; Function compile flags: /Odtpy
; File C:\Users\paras\source\repos\grep-name\XenevaOS\KernelAA64\Net\icmp.c

	AREA	|.text$mn|, CODE, ARM64

|AuICMPReceive| PROC

; 117  : int AuICMPReceive(AuSocket* sock, msghdr* msg, int flags) {

|$LN9|
	str         lr,[sp,#-0x10]!
	sub         sp,sp,#0x30
	str         x0,[sp,#0x28]
	str         x1,[sp,#8]
	str         w2,[sp]

; 118  : 	if (msg->msg_iovlen > 1)

	ldr         x8,[sp,#8]
	add         x8,x8,#0x18
	ldr         x8,[x8]
	cmp         x8,#1
	bls         |$LN2@AuICMPRece|

; 119  : 		return -1;

	mov         w0,#-1
	b           |$LN1@AuICMPRece|
|$LN2@AuICMPRece|

; 120  : 
; 121  : 	if (msg->msg_iovlen == 0)return 0;

	ldr         x8,[sp,#8]
	add         x8,x8,#0x18
	ldr         x8,[x8]
	cmp         x8,#0
	bne         |$LN3@AuICMPRece|
	mov         w0,#0
	b           |$LN1@AuICMPRece|
|$LN3@AuICMPRece|

; 122  : 	char* packet = (char*)AuSocketGet(sock);

	ldr         x0,[sp,#0x28]
	bl          AuSocketGet
	str         x0,[sp,#0x10]

; 123  : 	if (!packet) return 0;

	ldr         x8,[sp,#0x10]
	cmp         x8,#0
	bne         |$LN4@AuICMPRece|
	mov         w0,#0
	b           |$LN1@AuICMPRece|
|$LN4@AuICMPRece|

; 124  : 	size_t packet_sz = *(size_t*)packet - sizeof(IPv4Header);

	ldr         x8,[sp,#0x10]
	ldr         x8,[x8]
	sub         x8,x8,#0x14
	str         x8,[sp,#0x18]

; 125  : 	IPv4Header* src = (IPv4Header*)(packet + sizeof(size_t));

	ldr         x8,[sp,#0x10]
	add         x8,x8,#8
	str         x8,[sp,#0x20]

; 126  : 	if (packet_sz > msg->msg_iov[0].iov_len)

	ldr         x8,[sp,#8]
	add         x8,x8,#0x10
	ldr         x8,[x8]
	add         x8,x8,#8
	ldr         x9,[x8]
	ldr         x8,[sp,#0x18]
	cmp         x8,x9
	bls         |$LN5@AuICMPRece|

; 127  : 		packet_sz = msg->msg_iov[0].iov_len;

	ldr         x8,[sp,#8]
	add         x8,x8,#0x10
	ldr         x8,[x8]
	add         x8,x8,#8
	ldr         x8,[x8]
	str         x8,[sp,#0x18]
|$LN5@AuICMPRece|

; 128  : 
; 129  : 	if (msg->msg_namelen == sizeof(sockaddr_in)) {

	ldr         x8,[sp,#8]
	add         x8,x8,#8
	ldr         x8,[x8]
	cmp         x8,#0x10
	bne         |$LN6@AuICMPRece|

; 130  : 		if (msg->msg_name) {

	ldr         x8,[sp,#8]
	ldr         x8,[x8]
	cmp         x8,#0
	beq         |$LN7@AuICMPRece|

; 131  : 			((sockaddr_in*)msg->msg_name)->sin_family = AF_INET;

	ldr         x8,[sp,#8]
	ldr         x9,[x8]
	mov         w8,#1
	strh        w8,[x9]

; 132  : 			((sockaddr_in*)msg->msg_name)->sin_port = 0;

	ldr         x8,[sp,#8]
	ldr         x8,[x8]
	add         x9,x8,#2
	mov         w8,#0
	strh        w8,[x9]

; 133  : 			((sockaddr_in*)msg->msg_name)->sin_addr.s_addr = src->srcAddress;

	ldr         x8,[sp,#0x20]
	add         x10,x8,#0xC
	ldr         x8,[sp,#8]
	ldr         x8,[x8]
	add         x9,x8,#4
	ldr         w8,[x10]
	str         w8,[x9]

; 134  : 			((sockaddr_in*)msg->msg_name)->sin_zero[0] = src->timeToLive;

	ldr         x8,[sp,#0x20]
	add         x10,x8,#8
	ldr         x8,[sp,#8]
	ldr         x8,[x8]
	add         x9,x8,#8
	ldrb        w8,[x10]
	sxtb        w8,w8
	strb        w8,[x9]
|$LN7@AuICMPRece|
|$LN6@AuICMPRece|

; 135  : 		}
; 136  : 	}
; 137  : 
; 138  : 	memcpy(msg->msg_iov[0].iov_base, src->payload, packet_sz);

	ldr         x8,[sp,#0x20]
	add         x1,x8,#0x14
	ldr         x8,[sp,#8]
	add         x8,x8,#0x10
	ldr         x8,[x8]
	ldr         x2,[sp,#0x18]
	ldr         x0,[x8]
	bl          memcpy

; 139  : 	kfree(packet);

	ldr         x0,[sp,#0x10]
	bl          kfree

; 140  : 	return packet_sz;

	ldr         x8,[sp,#0x18]
	mov         w0,w8
	mov         w0,w0
|$LN1@AuICMPRece|
	add         sp,sp,#0x30
	ldr         lr,[sp],#0x10
	ret

	ENDP  ; |AuICMPReceive|

; Function compile flags: /Odtpy
; File C:\Users\paras\source\repos\grep-name\XenevaOS\KernelAA64\Net\icmp.c

	AREA	|.text$mn|, CODE, ARM64

|AuICMPChecksum| PROC

; 45   : uint16_t AuICMPChecksum(IPv4Header* packet) {

|$LN7|
	sub         sp,sp,#0x20
	str         x0,[sp,#8]

; 46   : 	uint32_t sum = 0;

	mov         w8,#0
	str         w8,[sp]

; 47   : 	uint16_t* s = (uint16_t*)packet->payload;

	ldr         x8,[sp,#8]
	add         x8,x8,#0x14
	str         x8,[sp,#0x10]

; 48   : 	for (int i = 0; i < (ntohs(packet->totalLength) - 20) / 2; ++i)

	mov         w8,#0
	str         w8,[sp,#4]
	b           |$LN4@AuICMPChec|
|$LN2@AuICMPChec|
	ldr         w8,[sp,#4]
	add         w8,w8,#1
	str         w8,[sp,#4]
|$LN4@AuICMPChec|
	ldr         x8,[sp,#8]
	add         x8,x8,#2
	ldrh        w8,[x8]
	mov         w8,w8
	and         w8,w8,#0xFF
	lsl         w9,w8,#8
	ldr         x8,[sp,#8]
	add         x8,x8,#2
	ldrh        w8,[x8]
	mov         w8,w8
	and         w8,w8,#0xFF00
	asr         w8,w8,#8
	orr         w8,w9,w8
	sub         w9,w8,#0x14
	mov         w8,#2
	sdiv        w9,w9,w8
	ldr         w8,[sp,#4]
	cmp         w8,w9
	bge         |$LN3@AuICMPChec|

; 49   : 		sum += ntohs(s[i]);

	ldr         w8,[sp,#4]
	sxtw        x9,w8
	mov         x8,#2
	mul         x9,x9,x8
	ldr         x8,[sp,#0x10]
	add         x8,x8,x9
	ldrh        w8,[x8]
	mov         w8,w8
	and         w8,w8,#0xFF
	lsl         w10,w8,#8
	ldr         w8,[sp,#4]
	sxtw        x9,w8
	mov         x8,#2
	mul         x9,x9,x8
	ldr         x8,[sp,#0x10]
	add         x8,x8,x9
	ldrh        w8,[x8]
	mov         w8,w8
	and         w8,w8,#0xFF00
	asr         w8,w8,#8
	orr         w9,w10,w8
	ldr         w8,[sp]
	add         w8,w8,w9
	str         w8,[sp]
	b           |$LN2@AuICMPChec|
|$LN3@AuICMPChec|

; 50   : 
; 51   : 	if (sum > 0xFFFF)

	mov         w9,#0xFFFF
	ldr         w8,[sp]
	cmp         w8,w9
	bls         |$LN5@AuICMPChec|

; 52   : 		sum = (sum >> 16) + (sum & 0xFFFF);

	ldr         w8,[sp]
	lsr         w9,w8,#0x10
	ldr         w8,[sp]
	and         w8,w8,#0xFFFF
	add         w8,w9,w8
	str         w8,[sp]
|$LN5@AuICMPChec|

; 53   : 
; 54   : 	return ~(sum & UINT16_MAX) & UINT16_MAX;

	ldr         w8,[sp]
	and         w8,w8,#0xFFFF
	mvn         w8,w8
	and         w8,w8,#0xFFFF
	uxth        w0,w8
	mov         w0,w0
	add         sp,sp,#0x20
	ret

	ENDP  ; |AuICMPChecksum|

; Function compile flags: /Odtpy
; File C:\Users\paras\source\repos\grep-name\XenevaOS\KernelAA64\Net\icmp.c

	AREA	|.text$mn|, CODE, ARM64

|CreateICMPSocket| PROC

; 241  : int CreateICMPSocket() {

|$LN7|
	str         lr,[sp,#-0x10]!
	sub         sp,sp,#0x30

; 242  : 	if (current_icmp_sock) {

	adrp        x8,current_icmp_sock
	ldr         x8,[x8,PageOffset(current_icmp_sock)]
	cmp         x8,#0
	beq         |$LN2@CreateICMP|

; 243  : 		UARTDebugOut("ICMP: Already there is a socket listening to ICMP, close that \r\n");

	adrp        x8,|$SG3452|
	add         x0,x8,PageOffset(|$SG3452|)
	bl          UARTDebugOut

; 244  : 		return -1;

	mov         w0,#-1
	b           |$LN1@CreateICMP|
|$LN2@CreateICMP|

; 245  : 	}
; 246  : 	int fd = -1;

	mov         w8,#-1
	str         w8,[sp]

; 247  : 	AA64Thread* thread = AuGetCurrentThread();

	bl          AuGetCurrentThread
	str         x0,[sp,#0x20]

; 248  : 	if (!thread)

	ldr         x8,[sp,#0x20]
	cmp         x8,#0
	bne         |$LN3@CreateICMP|

; 249  : 		return -1;

	mov         w0,#-1
	b           |$LN1@CreateICMP|
|$LN3@CreateICMP|

; 250  : 	AuProcess* proc = AuProcessFindThread(thread);

	ldr         x0,[sp,#0x20]
	bl          AuProcessFindThread
	str         x0,[sp,#0x18]

; 251  : 	if (!proc)

	ldr         x8,[sp,#0x18]
	cmp         x8,#0
	bne         |$LN4@CreateICMP|

; 252  : 		proc = AuProcessFindSubThread(thread);

	ldr         x0,[sp,#0x20]
	bl          AuProcessFindSubThread
	str         x0,[sp,#0x18]
|$LN4@CreateICMP|

; 253  : 	if (!proc)

	ldr         x8,[sp,#0x18]
	cmp         x8,#0
	bne         |$LN5@CreateICMP|

; 254  : 		return -1;

	mov         w0,#-1
	b           |$LN1@CreateICMP|
|$LN5@CreateICMP|

; 255  : 	fd = AuProcessGetFileDesc(proc);

	ldr         x0,[sp,#0x18]
	bl          AuProcessGetFileDesc
	mov         w0,w0
	str         w0,[sp]

; 256  : 	AuSocket* sock = AuNetCreateSocket();

	bl          AuNetCreateSocket
	str         x0,[sp,#0x10]

; 257  : 	sock->bind = AuICMPBind;

	ldr         x8,[sp,#0x10]
	add         x9,x8,#0x40
	adrp        x8,AuICMPBind
	add         x8,x8,PageOffset(AuICMPBind)
	str         x8,[x9]

; 258  : 	sock->close = AuICMPClose;

	ldr         x8,[sp,#0x10]
	add         x9,x8,#0x30
	adrp        x8,AuICMPClose
	add         x8,x8,PageOffset(AuICMPClose)
	str         x8,[x9]

; 259  : 	sock->connect = 0;

	ldr         x8,[sp,#0x10]
	add         x9,x8,#0x38
	mov         x8,#0
	str         x8,[x9]

; 260  : 	sock->receive = AuICMPReceive;

	ldr         x8,[sp,#0x10]
	add         x9,x8,#0x20
	adrp        x8,AuICMPReceive
	add         x8,x8,PageOffset(AuICMPReceive)
	str         x8,[x9]

; 261  : 	sock->send = AuICMPSend;

	ldr         x8,[sp,#0x10]
	add         x9,x8,#0x28
	adrp        x8,AuICMPSend
	add         x8,x8,PageOffset(AuICMPSend)
	str         x8,[x9]

; 262  : 	AuVFSNode* node = (AuVFSNode*)kmalloc(sizeof(AuVFSNode));

	mov         w0,#0xD0
	bl          kmalloc
	str         x0,[sp,#8]

; 263  : 	memset(node, 0, sizeof(AuVFSNode));

	mov         w2,#0xD0
	mov         w1,#0
	ldr         x0,[sp,#8]
	bl          memset

; 264  : 	strcpy(node->filename, "icmp");

	ldr         x0,[sp,#8]
	adrp        x8,|$SG3456|
	add         x1,x8,PageOffset(|$SG3456|)
	bl          strcpy

; 265  : 	node->flags |= FS_FLAG_SOCKET;

	ldr         x8,[sp,#8]
	add         x8,x8,#0x40
	ldrh        w8,[x8]
	mov         w8,w8
	orr         w10,w8,#0x200
	ldr         x8,[sp,#8]
	add         x9,x8,#0x40
	uxth        w8,w10
	strh        w8,[x9]

; 266  : 	node->device = sock;

	ldr         x8,[sp,#8]
	add         x9,x8,#0x50
	ldr         x8,[sp,#0x10]
	str         x8,[x9]

; 267  : 	node->close = AuICMPFileClose;

	ldr         x8,[sp,#8]
	add         x9,x8,#0xA0
	adrp        x8,AuICMPFileClose
	add         x8,x8,PageOffset(AuICMPFileClose)
	str         x8,[x9]

; 268  : 	node->iocontrol = SocketIOControl;

	ldr         x8,[sp,#8]
	add         x9,x8,#0xC8
	adrp        x8,SocketIOControl
	add         x8,x8,PageOffset(SocketIOControl)
	str         x8,[x9]

; 269  : 	proc->fds[fd] = node;

	ldr         x8,[sp,#0x18]
	add         x10,x8,#0x248
	ldr         w8,[sp]
	sxtw        x9,w8
	mov         x8,#8
	mul         x8,x9,x8
	add         x9,x10,x8
	ldr         x8,[sp,#8]
	str         x8,[x9]

; 270  : 	current_icmp_sock = sock;

	adrp        x9,current_icmp_sock
	ldr         x8,[sp,#0x10]
	str         x8,[x9,PageOffset(current_icmp_sock)]

; 271  : 	UARTDebugOut("ICMP Socket created \r\n");

	adrp        x8,|$SG3457|
	add         x0,x8,PageOffset(|$SG3457|)
	bl          UARTDebugOut

; 272  : 	return fd;

	ldr         w0,[sp]
|$LN1@CreateICMP|
	add         sp,sp,#0x30
	ldr         lr,[sp],#0x10
	ret

	ENDP  ; |CreateICMPSocket|

; Function compile flags: /Odtpy
; File C:\Users\paras\source\repos\grep-name\XenevaOS\KernelAA64\Net\icmp.c

	AREA	|.text$mn|, CODE, ARM64

|AuICMPHandle| PROC

; 60   : void AuICMPHandle(IPv4Header* ipv4, AuVFSNode* nic) {

|$LN10|
	sub         sp,sp,#0x10
	stp         x19,lr,[sp]
	sub         sp,sp,#0x30
	str         x0,[sp]
	str         x1,[sp,#0x28]

; 61   : 	ICMPHeader* header = (ICMPHeader*)&ipv4->payload;

	ldr         x8,[sp]
	add         x8,x8,#0x14
	str         x8,[sp,#0x10]

; 62   : 
; 63   : 
; 64   : 	AuNetworkDevice* netdev = (AuNetworkDevice*)nic->device;

	ldr         x8,[sp,#0x28]
	add         x8,x8,#0x50
	ldr         x8,[x8]
	str         x8,[sp,#0x18]

; 65   : 	if (!netdev) {

	ldr         x8,[sp,#0x18]
	cmp         x8,#0
	bne         |$LN2@AuICMPHand|

; 66   : 		UARTDebugOut("[AuNet]: ICMP Handle no network device found \r\n");

	adrp        x8,|$SG3332|
	add         x0,x8,PageOffset(|$SG3332|)
	bl          UARTDebugOut

; 67   : 		return;

	b           |$LN1@AuICMPHand|
|$LN2@AuICMPHand|

; 68   : 	}
; 69   : 
; 70   : 	/* PING */
; 71   : 	if (header->type == 8 && header->code == 0) {

	ldr         x8,[sp,#0x10]
	ldrb        w8,[x8]
	mov         w8,w8
	cmp         w8,#8
	bne         |$LN3@AuICMPHand|
	ldr         x8,[sp,#0x10]
	add         x8,x8,#1
	ldrb        w8,[x8]
	mov         w8,w8
	cmp         w8,#0
	bne         |$LN3@AuICMPHand|

; 72   : 		UARTDebugOut("[AuNet]: Ping with %d bytes of payload \r\n", ntohs(ipv4->totalLength));

	ldr         x8,[sp]
	add         x8,x8,#2
	ldrh        w8,[x8]
	mov         w8,w8
	and         w8,w8,#0xFF
	lsl         w9,w8,#8
	ldr         x8,[sp]
	add         x8,x8,#2
	ldrh        w8,[x8]
	mov         w8,w8
	and         w8,w8,#0xFF00
	asr         w8,w8,#8
	orr         w1,w9,w8
	mov         w1,w1
	adrp        x8,|$SG3335|
	add         x0,x8,PageOffset(|$SG3335|)
	bl          UARTDebugOut

; 73   : 		UARTDebugOut("From -> ");

	adrp        x8,|$SG3336|
	add         x0,x8,PageOffset(|$SG3336|)
	bl          UARTDebugOut

; 74   : 		ip_ntoa(ntohl(ipv4->srcAddress));

	ldr         x8,[sp]
	add         x8,x8,#0xC
	ldr         w8,[x8]
	and         w8,w8,#0xFF
	lsl         w9,w8,#0x18
	ldr         x8,[sp]
	add         x8,x8,#0xC
	ldr         w8,[x8]
	and         w8,w8,#0xFF00
	lsl         w8,w8,#8
	orr         w9,w9,w8
	ldr         x8,[sp]
	add         x8,x8,#0xC
	ldr         w8,[x8]
	and         w8,w8,#0xFF0000
	lsr         w8,w8,#8
	orr         w9,w9,w8
	ldr         x8,[sp]
	add         x8,x8,#0xC
	ldr         w8,[x8]
	and         w8,w8,#0xFF000000
	lsr         w8,w8,#0x18
	orr         w0,w9,w8
	mov         w0,w0
	bl          ip_ntoa

; 75   : 		UARTDebugOut("\r\n");

	adrp        x8,|$SG3337|
	add         x0,x8,PageOffset(|$SG3337|)
	bl          UARTDebugOut

; 76   : 		if (ntohs(ipv4->totalLength) & 1)

	ldr         x8,[sp]
	add         x8,x8,#2
	ldrh        w8,[x8]
	mov         w8,w8
	and         w8,w8,#0xFF
	lsl         w9,w8,#8
	ldr         x8,[sp]
	add         x8,x8,#2
	ldrh        w8,[x8]
	mov         w8,w8
	and         w8,w8,#0xFF00
	asr         w8,w8,#8
	orr         w8,w9,w8
	tbz         x8,#0,|$LN5@AuICMPHand|

; 77   : 			ipv4->totalLength = htons(ntohs(ipv4->totalLength) + 1);

	ldr         x8,[sp]
	add         x8,x8,#2
	ldrh        w8,[x8]
	mov         w8,w8
	and         w8,w8,#0xFF
	lsl         w9,w8,#8
	ldr         x8,[sp]
	add         x8,x8,#2
	ldrh        w8,[x8]
	mov         w8,w8
	and         w8,w8,#0xFF00
	asr         w8,w8,#8
	orr         w8,w9,w8
	add         w8,w8,#1
	and         w8,w8,#0xFF
	lsl         w10,w8,#8
	ldr         x8,[sp]
	add         x8,x8,#2
	ldrh        w8,[x8]
	mov         w8,w8
	and         w8,w8,#0xFF
	lsl         w9,w8,#8
	ldr         x8,[sp]
	add         x8,x8,#2
	ldrh        w8,[x8]
	mov         w8,w8
	and         w8,w8,#0xFF00
	asr         w8,w8,#8
	orr         w8,w9,w8
	add         w8,w8,#1
	and         w8,w8,#0xFF00
	asr         w8,w8,#8
	orr         w10,w10,w8
	ldr         x8,[sp]
	add         x9,x8,#2
	uxth        w8,w10
	strh        w8,[x9]
|$LN5@AuICMPHand|

; 78   : 
; 79   : 		IPv4Header* resp = (IPv4Header*)kmalloc(ntohs(ipv4->totalLength));

	ldr         x8,[sp]
	add         x8,x8,#2
	ldrh        w8,[x8]
	mov         w8,w8
	and         w8,w8,#0xFF
	lsl         w9,w8,#8
	ldr         x8,[sp]
	add         x8,x8,#2
	ldrh        w8,[x8]
	mov         w8,w8
	and         w8,w8,#0xFF00
	asr         w8,w8,#8
	orr         w0,w9,w8
	mov         w0,w0
	bl          kmalloc
	str         x0,[sp,#8]

; 80   : 		memcpy(resp, ipv4, ntohs(ipv4->totalLength));

	ldr         x8,[sp]
	add         x8,x8,#2
	ldrh        w8,[x8]
	mov         w8,w8
	and         w8,w8,#0xFF
	lsl         w9,w8,#8
	ldr         x8,[sp]
	add         x8,x8,#2
	ldrh        w8,[x8]
	mov         w8,w8
	and         w8,w8,#0xFF00
	asr         w8,w8,#8
	orr         w8,w9,w8
	sxtw        x2,w8
	ldr         x1,[sp]
	ldr         x0,[sp,#8]
	bl          memcpy

; 81   : 		resp->totalLength = ipv4->totalLength;

	ldr         x8,[sp]
	add         x10,x8,#2
	ldr         x8,[sp,#8]
	add         x9,x8,#2
	ldrh        w8,[x10]
	strh        w8,[x9]

; 82   : 		resp->destAddress = ipv4->srcAddress;

	ldr         x8,[sp]
	add         x10,x8,#0xC
	ldr         x8,[sp,#8]
	add         x9,x8,#0x10
	ldr         w8,[x10]
	str         w8,[x9]

; 83   : 		resp->srcAddress = htonl(netdev->ipv4addr);

	ldr         x8,[sp,#0x18]
	add         x8,x8,#0x10
	ldr         w8,[x8]
	and         w8,w8,#0xFF
	lsl         w9,w8,#0x18
	ldr         x8,[sp,#0x18]
	add         x8,x8,#0x10
	ldr         w8,[x8]
	and         w8,w8,#0xFF00
	lsl         w8,w8,#8
	orr         w9,w9,w8
	ldr         x8,[sp,#0x18]
	add         x8,x8,#0x10
	ldr         w8,[x8]
	and         w8,w8,#0xFF0000
	lsr         w8,w8,#8
	orr         w9,w9,w8
	ldr         x8,[sp,#0x18]
	add         x8,x8,#0x10
	ldr         w8,[x8]
	and         w8,w8,#0xFF000000
	lsr         w8,w8,#0x18
	orr         w9,w9,w8
	ldr         x8,[sp,#8]
	add         x8,x8,#0xC
	str         w9,[x8]

; 84   : 		resp->timeToLive = 64;

	ldr         x8,[sp,#8]
	add         x9,x8,#8
	mov         w8,#0x40
	strb        w8,[x9]

; 85   : 		resp->protocol = 1;

	ldr         x8,[sp,#8]
	add         x9,x8,#9
	mov         w8,#1
	strb        w8,[x9]

; 86   : 		resp->identification = ipv4->identification;

	ldr         x8,[sp]
	add         x10,x8,#4
	ldr         x8,[sp,#8]
	add         x9,x8,#4
	ldrh        w8,[x10]
	strh        w8,[x9]

; 87   : 		resp->flagsFragOffset = htons(0x4000);

	ldr         x8,[sp,#8]
	add         x9,x8,#6
	mov         w8,#0x40
	strh        w8,[x9]

; 88   : 		resp->versionHeaderLen = 0x45;

	ldr         x9,[sp,#8]
	mov         w8,#0x45
	strb        w8,[x9]

; 89   : 		resp->typeOfService = 0;

	ldr         x8,[sp,#8]
	add         x9,x8,#1
	mov         w8,#0
	strb        w8,[x9]

; 90   : 		resp->headerChecksum = 0;

	ldr         x8,[sp,#8]
	add         x9,x8,#0xA
	mov         w8,#0
	strh        w8,[x9]

; 91   : 		resp->headerChecksum = htons(IPv4CalculateChecksum(resp));

	ldr         x0,[sp,#8]
	bl          IPv4CalculateChecksum
	uxth        w8,w0
	mov         w8,w8
	and         w8,w8,#0xFF
	lsl         w19,w8,#8
	ldr         x0,[sp,#8]
	bl          IPv4CalculateChecksum
	uxth        w8,w0
	mov         w8,w8
	and         w8,w8,#0xFF00
	asr         w8,w8,#8
	orr         w10,w19,w8
	ldr         x8,[sp,#8]
	add         x9,x8,#0xA
	uxth        w8,w10
	strh        w8,[x9]

; 92   : 
; 93   : 		ICMPHeader* reply = (ICMPHeader*)&resp->payload;

	ldr         x8,[sp,#8]
	add         x8,x8,#0x14
	str         x8,[sp,#0x20]

; 94   : 		reply->checksum = 0;

	ldr         x8,[sp,#0x20]
	add         x9,x8,#2
	mov         w8,#0
	strh        w8,[x9]

; 95   : 		reply->type = 0;

	ldr         x9,[sp,#0x20]
	mov         w8,#0
	strb        w8,[x9]

; 96   : 		UARTDebugOut("reply->code -> %d \r\n", reply->code);

	ldr         x8,[sp,#0x20]
	add         x8,x8,#1
	ldrb        w1,[x8]
	mov         w1,w1
	mov         w1,w1
	adrp        x8,|$SG3339|
	add         x0,x8,PageOffset(|$SG3339|)
	bl          UARTDebugOut

; 97   : 		reply->checksum = htons(AuICMPChecksum(resp));

	ldr         x0,[sp,#8]
	bl          AuICMPChecksum
	uxth        w8,w0
	mov         w8,w8
	and         w8,w8,#0xFF
	lsl         w19,w8,#8
	ldr         x0,[sp,#8]
	bl          AuICMPChecksum
	uxth        w8,w0
	mov         w8,w8
	and         w8,w8,#0xFF00
	asr         w8,w8,#8
	orr         w10,w19,w8
	ldr         x8,[sp,#0x20]
	add         x9,x8,#2
	uxth        w8,w10
	strh        w8,[x9]

; 98   : 
; 99   : 		IPV4SendPacket(resp, nic);

	ldr         x1,[sp,#0x28]
	ldr         x0,[sp,#8]
	bl          IPV4SendPacket

; 100  : 		kfree(resp);

	ldr         x0,[sp,#8]
	bl          kfree

; 101  : 	}

	b           |$LN4@AuICMPHand|
|$LN3@AuICMPHand|

; 102  : 	else if (header->type == 0 && header->code == 0) {

	ldr         x8,[sp,#0x10]
	ldrb        w8,[x8]
	mov         w8,w8
	cmp         w8,#0
	bne         |$LN6@AuICMPHand|
	ldr         x8,[sp,#0x10]
	add         x8,x8,#1
	ldrb        w8,[x8]
	mov         w8,w8
	cmp         w8,#0
	bne         |$LN6@AuICMPHand|

; 103  : 		UARTDebugOut("[AuNet]:ICMP ping reply got \r\n");

	adrp        x8,|$SG3342|
	add         x0,x8,PageOffset(|$SG3342|)
	bl          UARTDebugOut

; 104  : 		if (current_icmp_sock)

	adrp        x8,current_icmp_sock
	ldr         x8,[x8,PageOffset(current_icmp_sock)]
	cmp         x8,#0
	beq         |$LN8@AuICMPHand|

; 105  : 			AuSocketAdd(current_icmp_sock, ipv4, ntohs(ipv4->totalLength));

	ldr         x8,[sp]
	add         x8,x8,#2
	ldrh        w8,[x8]
	mov         w8,w8
	and         w8,w8,#0xFF
	lsl         w9,w8,#8
	ldr         x8,[sp]
	add         x8,x8,#2
	ldrh        w8,[x8]
	mov         w8,w8
	and         w8,w8,#0xFF00
	asr         w8,w8,#8
	orr         w8,w9,w8
	sxtw        x2,w8
	ldr         x1,[sp]
	adrp        x8,current_icmp_sock
	ldr         x0,[x8,PageOffset(current_icmp_sock)]
	bl          AuSocketAdd
|$LN8@AuICMPHand|

; 106  : 	}

	b           |$LN7@AuICMPHand|
|$LN6@AuICMPHand|

; 107  : 	else {
; 108  : 		UARTDebugOut("[AuNet]: NIC -> %s, ICMP type-%d code-%d \r\n", nic->filename, header->type, header->code);

	ldr         x8,[sp,#0x10]
	add         x8,x8,#1
	ldrb        w3,[x8]
	mov         w3,w3
	ldr         x8,[sp,#0x10]
	ldrb        w2,[x8]
	mov         w2,w2
	ldr         x1,[sp,#0x28]
	mov         w3,w3
	mov         w2,w2
	adrp        x8,|$SG3344|
	add         x0,x8,PageOffset(|$SG3344|)
	bl          UARTDebugOut
|$LN7@AuICMPHand|
|$LN4@AuICMPHand|
|$LN1@AuICMPHand|
	add         sp,sp,#0x30
	ldp         x19,lr,[sp]
	add         sp,sp,#0x10
	ret

	ENDP  ; |AuICMPHandle|

; Function compile flags: /Odtpy
; File C:\Users\paras\source\repos\grep-name\XenevaOS\KernelAA64\Net\icmp.c

	AREA	|.text$mn|, CODE, ARM64

|ICMPInitialise| PROC

; 234  : 	current_icmp_sock = 0;

	adrp        x9,current_icmp_sock
	mov         x8,#0
	str         x8,[x9,PageOffset(current_icmp_sock)]
	ret

	ENDP  ; |ICMPInitialise|

	END
