; Listing generated by Microsoft (R) Optimizing Compiler Version 19.29.30159.0 

	TTL	C:\Users\paras\source\repos\grep-name\XenevaOS\KernelAA64\ARM64\Debug\initrd.obj
	ARM64

	AREA	|.drectve|, DRECTVE


	AREA	|.data|, DATA
	 COMMON	|ramdisk_start|, 0x8

	 COMMON	|ramdisk_end|, 0x8

	EXPORT	|AuInitrdInitialize|
	EXPORT	|AuRamdiskRead|
	EXPORT	|AuRamdiskWrite|
	EXPORT	|AuRamdiskReadCallback|
	EXPORT	|AuRamdiskWriteCallback|
	IMPORT	|AuTextOut|
	IMPORT	|AuVFSFind|
	IMPORT	|AuVDiskRegister|
	IMPORT	|AuCreateVDisk|
	IMPORT	|AuVDiskCreateStorageFile|
	IMPORT	|AuGetVDisk|
	IMPORT	|AuDevFSAddFile|
	IMPORT	|strcpy|
	IMPORT	|strlen|
	IMPORT	|memset|
	IMPORT	|kmalloc|
	IMPORT	|Ext2Initialise|
	IMPORT	|P2V|

	AREA	|.pdata|, PDATA
|$pdata$AuInitrdInitialize| DCD imagerel |$LN7|
	DCD	0x2a00311
	;Flags[SingleProEpi] functionLength[784] RegF[0] RegI[0] H[0] frameChainReturn[UnChainedSavedLR] frameSize[80]
|$pdata$AuRamdiskRead| DCD imagerel |$LN7|
	DCD	0x18000e1
	;Flags[SingleProEpi] functionLength[224] RegF[0] RegI[0] H[0] frameChainReturn[UnChained] frameSize[48]
|$pdata$AuRamdiskWrite| DCD imagerel |$LN7|
	DCD	0x18000e1
	;Flags[SingleProEpi] functionLength[224] RegF[0] RegI[0] H[0] frameChainReturn[UnChained] frameSize[48]
|$pdata$AuRamdiskReadCallback| DCD imagerel |$LN3|
	DCD	0x1a00059
	;Flags[SingleProEpi] functionLength[88] RegF[0] RegI[0] H[0] frameChainReturn[UnChainedSavedLR] frameSize[48]
|$pdata$AuRamdiskWriteCallback| DCD imagerel |$LN3|
	DCD	0x1a00059
	;Flags[SingleProEpi] functionLength[88] RegF[0] RegI[0] H[0] frameChainReturn[UnChainedSavedLR] frameSize[48]

	AREA	|.data|, DATA
|$SG3483| DCB	"[aurora]: initrd initialization failed !! invalid Little"
	DCB	"boot protocol ", 0xd, 0xa, 0x0
	%	7
|$SG3485| DCB	"[aurora]: ramdisk failed to initialize ", 0xd, 0xa, 0x0
	%	2
|$SG3488| DCB	"/", 0x0
	%	2
|$SG3486| DCB	"Loading ramdisc : %x ", 0xd, 0xa, 0x0
|$SG3487| DCB	"XERamdisc", 0x0
	%	6
|$SG3489| DCB	"ramdisc", 0x0
|$SG3490| DCB	"ramdisc", 0x0
|$SG3491| DCB	"/dev", 0x0
	%	3
|$SG3492| DCB	"[aurora]: ramdisk mounted at %s full path : %s ", 0xd, 0xa
	DCB	0x0
	%	6
|$SG3493| DCB	"[aurora]: ramdisk initialized successfully ", 0xd, 0xa, 0x0
	%	2
|$SG3494| DCB	"/ext2", 0x0
; Function compile flags: /Odtpy
; File C:\Users\paras\source\repos\grep-name\XenevaOS\KernelAA64\Fs\initrd.c

	AREA	|.text$mn|, CODE, ARM64

|AuRamdiskWriteCallback| PROC

; 89   : int AuRamdiskWriteCallback(AuVDisk* vdisk, uint64_t lba, uint32_t count, uint64_t* buffer) {

|$LN3|
	str         lr,[sp,#-0x10]!
	sub         sp,sp,#0x20
	str         x0,[sp,#8]
	str         x1,[sp,#0x10]
	str         w2,[sp]
	str         x3,[sp,#0x18]

; 90   : 	AuRamdiskWrite(vdisk->startingLBA + lba, count, (uint8_t*)buffer);

	ldr         w8,[sp]
	uxtw        x1,w8
	ldr         x8,[sp,#8]
	add         x8,x8,#0x80
	ldr         x9,[x8]
	ldr         x8,[sp,#0x10]
	add         x0,x9,x8
	ldr         x2,[sp,#0x18]
	bl          AuRamdiskWrite

; 91   : 	return (count * RAMDISK_SECTOR_SIZE);

	ldr         w9,[sp]
	mov         w8,#0x200
	mul         w0,w9,w8
	mov         w0,w0
	add         sp,sp,#0x20
	ldr         lr,[sp],#0x10
	ret

	ENDP  ; |AuRamdiskWriteCallback|

; Function compile flags: /Odtpy
; File C:\Users\paras\source\repos\grep-name\XenevaOS\KernelAA64\Fs\initrd.c

	AREA	|.text$mn|, CODE, ARM64

|AuRamdiskReadCallback| PROC

; 84   : int AuRamdiskReadCallback(AuVDisk* vdisk, uint64_t lba, uint32_t count, uint64_t* buffer) {

|$LN3|
	str         lr,[sp,#-0x10]!
	sub         sp,sp,#0x20
	str         x0,[sp,#8]
	str         x1,[sp,#0x10]
	str         w2,[sp]
	str         x3,[sp,#0x18]

; 85   : 	AuRamdiskRead(vdisk->startingLBA + lba, count, (uint8_t*)buffer);

	ldr         w8,[sp]
	uxtw        x1,w8
	ldr         x8,[sp,#8]
	add         x8,x8,#0x80
	ldr         x9,[x8]
	ldr         x8,[sp,#0x10]
	add         x0,x9,x8
	ldr         x2,[sp,#0x18]
	bl          AuRamdiskRead

; 86   : 	return (count * RAMDISK_SECTOR_SIZE);

	ldr         w9,[sp]
	mov         w8,#0x200
	mul         w0,w9,w8
	mov         w0,w0
	add         sp,sp,#0x20
	ldr         lr,[sp],#0x10
	ret

	ENDP  ; |AuRamdiskReadCallback|

; Function compile flags: /Odtpy
; File C:\Users\paras\source\repos\grep-name\XenevaOS\KernelAA64\Fs\initrd.c

	AREA	|.text$mn|, CODE, ARM64

|AuRamdiskWrite| PROC

; 75   : void AuRamdiskWrite(uint64_t lba, size_t count, uint8_t* buffer) {

|$LN7|
	sub         sp,sp,#0x30
	str         x0,[sp,#0x18]
	str         x1,[sp,#0x10]
	str         x2,[sp,#0x20]

; 76   : 	uint64_t offset = lba * RAMDISK_SECTOR_SIZE;

	ldr         x9,[sp,#0x18]
	mov         x8,#0x200
	mul         x8,x9,x8
	str         x8,[sp,#8]

; 77   : 	if (ramdisk_start + offset + (RAMDISK_SECTOR_SIZE * count) > ramdisk_end)

	adrp        x8,ramdisk_start
	ldr         x9,[x8,PageOffset(ramdisk_start)]
	ldr         x8,[sp,#8]
	add         x10,x9,x8
	ldr         x9,[sp,#0x10]
	mov         x8,#0x200
	mul         x8,x9,x8
	add         x9,x10,x8
	adrp        x8,ramdisk_end
	ldr         x8,[x8,PageOffset(ramdisk_end)]
	cmp         x9,x8
	bls         |$LN5@AuRamdiskW|

; 78   : 		return;

	b           |$LN1@AuRamdiskW|
|$LN5@AuRamdiskW|

; 79   : 	uint8_t* src = (uint8_t*)(ramdisk_start + offset);

	adrp        x8,ramdisk_start
	ldr         x9,[x8,PageOffset(ramdisk_start)]
	ldr         x8,[sp,#8]
	add         x8,x9,x8
	str         x8,[sp,#0x28]

; 80   : 	for (int i = 0; i < RAMDISK_SECTOR_SIZE * count; i++)

	mov         w8,#0
	str         w8,[sp]
	b           |$LN4@AuRamdiskW|
|$LN2@AuRamdiskW|
	ldr         w8,[sp]
	add         w8,w8,#1
	str         w8,[sp]
|$LN4@AuRamdiskW|
	ldr         w8,[sp]
	sxtw        x10,w8
	ldr         x9,[sp,#0x10]
	mov         x8,#0x200
	mul         x8,x9,x8
	cmp         x10,x8
	bhs         |$LN3@AuRamdiskW|

; 81   : 		src[i] = buffer[i];

	ldr         w8,[sp]
	sxtw        x9,w8
	mov         x8,#1
	mul         x9,x9,x8
	ldr         x8,[sp,#0x20]
	add         x10,x8,x9
	ldr         w8,[sp]
	sxtw        x9,w8
	mov         x8,#1
	mul         x9,x9,x8
	ldr         x8,[sp,#0x28]
	add         x9,x8,x9
	ldrb        w8,[x10]
	strb        w8,[x9]
	b           |$LN2@AuRamdiskW|
|$LN3@AuRamdiskW|
|$LN1@AuRamdiskW|
	add         sp,sp,#0x30
	ret

	ENDP  ; |AuRamdiskWrite|

; Function compile flags: /Odtpy
; File C:\Users\paras\source\repos\grep-name\XenevaOS\KernelAA64\Fs\initrd.c

	AREA	|.text$mn|, CODE, ARM64

|AuRamdiskRead| PROC

; 60   : void AuRamdiskRead(uint64_t lba, size_t count, uint8_t* buffer) {

|$LN7|
	sub         sp,sp,#0x30
	str         x0,[sp,#0x18]
	str         x1,[sp,#0x10]
	str         x2,[sp,#0x28]

; 61   : 	uint64_t offset = lba * RAMDISK_SECTOR_SIZE;

	ldr         x9,[sp,#0x18]
	mov         x8,#0x200
	mul         x8,x9,x8
	str         x8,[sp,#8]

; 62   : 	if (ramdisk_start + offset + (RAMDISK_SECTOR_SIZE * count) > ramdisk_end)

	adrp        x8,ramdisk_start
	ldr         x9,[x8,PageOffset(ramdisk_start)]
	ldr         x8,[sp,#8]
	add         x10,x9,x8
	ldr         x9,[sp,#0x10]
	mov         x8,#0x200
	mul         x8,x9,x8
	add         x9,x10,x8
	adrp        x8,ramdisk_end
	ldr         x8,[x8,PageOffset(ramdisk_end)]
	cmp         x9,x8
	bls         |$LN5@AuRamdiskR|

; 63   : 		return;

	b           |$LN1@AuRamdiskR|
|$LN5@AuRamdiskR|

; 64   : 	const uint8_t* src = (const uint8_t*)(ramdisk_start + offset);

	adrp        x8,ramdisk_start
	ldr         x9,[x8,PageOffset(ramdisk_start)]
	ldr         x8,[sp,#8]
	add         x8,x9,x8
	str         x8,[sp,#0x20]

; 65   : 	for (int i = 0; i < RAMDISK_SECTOR_SIZE * count; i++)

	mov         w8,#0
	str         w8,[sp]
	b           |$LN4@AuRamdiskR|
|$LN2@AuRamdiskR|
	ldr         w8,[sp]
	add         w8,w8,#1
	str         w8,[sp]
|$LN4@AuRamdiskR|
	ldr         w8,[sp]
	sxtw        x10,w8
	ldr         x9,[sp,#0x10]
	mov         x8,#0x200
	mul         x8,x9,x8
	cmp         x10,x8
	bhs         |$LN3@AuRamdiskR|

; 66   : 		buffer[i] = src[i];

	ldr         w8,[sp]
	sxtw        x9,w8
	mov         x8,#1
	mul         x9,x9,x8
	ldr         x8,[sp,#0x20]
	add         x10,x8,x9
	ldr         w8,[sp]
	sxtw        x9,w8
	mov         x8,#1
	mul         x9,x9,x8
	ldr         x8,[sp,#0x28]
	add         x9,x8,x9
	ldrb        w8,[x10]
	strb        w8,[x9]
	b           |$LN2@AuRamdiskR|
|$LN3@AuRamdiskR|
|$LN1@AuRamdiskR|
	add         sp,sp,#0x30
	ret

	ENDP  ; |AuRamdiskRead|

; Function compile flags: /Odtpy
; File C:\Users\paras\source\repos\grep-name\XenevaOS\KernelAA64\Fs\initrd.c

	AREA	|.text$mn|, CODE, ARM64

|AuInitrdInitialize| PROC

; 97   : void AuInitrdInitialize(KERNEL_BOOT_INFO* info) {

|$LN7|
	str         lr,[sp,#-0x10]!
	sub         sp,sp,#0x40
	str         x0,[sp,#0x20]

; 98   : 	if (info->boot_type == BOOT_LITTLEBOOT_ARM64) {

	ldr         x8,[sp,#0x20]
	ldr         w8,[x8]
	cmp         w8,#3
	bne         |$LN2@AuInitrdIn|

; 99   : 		AuLittleBootProtocol* lb = (AuLittleBootProtocol*)info->driver_entry1;

	ldr         x8,[sp,#0x20]
	add         x8,x8,#0x78
	ldr         x8,[x8]
	str         x8,[sp,#0x28]

; 100  : 		if (!lb) {

	ldr         x8,[sp,#0x28]
	cmp         x8,#0
	bne         |$LN4@AuInitrdIn|

; 101  : 			AuTextOut("[aurora]: initrd initialization failed !! invalid Littleboot protocol \r\n");

	adrp        x8,|$SG3483|
	add         x0,x8,PageOffset(|$SG3483|)
	bl          AuTextOut

; 102  : 			return;

	b           |$LN1@AuInitrdIn|
|$LN4@AuInitrdIn|

; 103  : 		}
; 104  : 		ramdisk_start = P2V(lb->initrd_start);

	ldr         x8,[sp,#0x28]
	ldr         x0,[x8]
	bl          P2V
	adrp        x8,ramdisk_start
	str         x0,[x8,PageOffset(ramdisk_start)]

; 105  : 		ramdisk_end = P2V(lb->initrd_end);

	ldr         x8,[sp,#0x28]
	add         x8,x8,#8
	ldr         x0,[x8]
	bl          P2V
	adrp        x8,ramdisk_end
	str         x0,[x8,PageOffset(ramdisk_end)]

; 106  : 	}

	b           |$LN3@AuInitrdIn|
|$LN2@AuInitrdIn|

; 107  : 	else {
; 108  : 		/* NOTE: Ramdisk is loaded by bootloader itself into EfiBootServiceData,
; 109  : 		 * memory areas other than EfiConventionalMemory area locaked by Physical
; 110  : 		 * memory manager during Kernel memory initialization phase, which is safe
; 111  : 		 * and will not get overwritten in future. We simply use P2V means converting
; 112  : 		 * the ramdisk physical memory to Higher half linear mapping, which is done
; 113  : 		 * during virtual memory manager initialization phase. EfiBootServiceData memories
; 114  : 		 * are all identity mapped, so everything is all set.
; 115  : 		 */
; 116  : 		ramdisk_start = P2V((uint64_t)info->driver_entry1);

	ldr         x8,[sp,#0x20]
	add         x8,x8,#0x78
	ldr         x0,[x8]
	bl          P2V
	adrp        x8,ramdisk_start
	str         x0,[x8,PageOffset(ramdisk_start)]

; 117  : 		ramdisk_end = ramdisk_start + (info->hid - 1);

	ldr         x8,[sp,#0x20]
	add         x8,x8,#0xB0
	ldr         w8,[x8]
	sub         w8,w8,#1
	uxtw        x9,w8
	adrp        x8,ramdisk_start
	ldr         x8,[x8,PageOffset(ramdisk_start)]
	add         x9,x8,x9
	adrp        x8,ramdisk_end
	str         x9,[x8,PageOffset(ramdisk_end)]
|$LN3@AuInitrdIn|

; 118  : 	}
; 119  : 
; 120  : 	if (ramdisk_start == 0) {

	adrp        x8,ramdisk_start
	ldr         x8,[x8,PageOffset(ramdisk_start)]
	cmp         x8,#0
	bne         |$LN5@AuInitrdIn|

; 121  : 		AuTextOut("[aurora]: ramdisk failed to initialize \r\n");

	adrp        x8,|$SG3485|
	add         x0,x8,PageOffset(|$SG3485|)
	bl          AuTextOut

; 122  : 		return;

	b           |$LN1@AuInitrdIn|
|$LN5@AuInitrdIn|

; 123  : 	}
; 124  : 	/** okay before full initialization, we need to grab all the
; 125  : 	 * physical address from the ramdisk pointer and map it to
; 126  : 	 * kernel higher half address
; 127  : 	 */
; 128  : 	AuTextOut("Loading ramdisc : %x \r\n", ramdisk_start);

	adrp        x8,ramdisk_start
	ldr         x1,[x8,PageOffset(ramdisk_start)]
	adrp        x8,|$SG3486|
	add         x0,x8,PageOffset(|$SG3486|)
	bl          AuTextOut

; 129  : 	char* diskpath = (char*)kmalloc(32);

	mov         w0,#0x20
	bl          kmalloc
	str         x0,[sp,#0x18]

; 130  : 	memset(diskpath, 0, 32);

	mov         w2,#0x20
	mov         w1,#0
	ldr         x0,[sp,#0x18]
	bl          memset

; 131  : 	AuVDiskCreateStorageFile(diskpath);

	ldr         x0,[sp,#0x18]
	bl          AuVDiskCreateStorageFile

; 132  : 	
; 133  : 	AuVDisk* disk = AuCreateVDisk();

	bl          AuCreateVDisk
	str         x0,[sp,#8]

; 134  : 	strcpy(disk->diskname, "XERamdisc");

	ldr         x0,[sp,#8]
	adrp        x8,|$SG3487|
	add         x1,x8,PageOffset(|$SG3487|)
	bl          strcpy

; 135  : 	disk->data = NULL;

	ldr         x8,[sp,#8]
	add         x9,x8,#0x60
	mov         x8,#0
	str         x8,[x9]

; 136  : 	disk->Read = AuRamdiskReadCallback;

	ldr         x8,[sp,#8]
	add         x9,x8,#0xB8
	adrp        x8,AuRamdiskReadCallback
	add         x8,x8,PageOffset(AuRamdiskReadCallback)
	str         x8,[x9]

; 137  : 	disk->Write = AuRamdiskWriteCallback;

	ldr         x8,[sp,#8]
	add         x9,x8,#0xC0
	adrp        x8,AuRamdiskWriteCallback
	add         x8,x8,PageOffset(AuRamdiskWriteCallback)
	str         x8,[x9]

; 138  : 	disk->max_blocks = (ramdisk_end - ramdisk_start) / 512;

	adrp        x8,ramdisk_end
	ldr         x9,[x8,PageOffset(ramdisk_end)]
	adrp        x8,ramdisk_start
	ldr         x8,[x8,PageOffset(ramdisk_start)]
	sub         x9,x9,x8
	mov         x8,#0x200
	udiv        x9,x9,x8
	ldr         x8,[sp,#8]
	add         x8,x8,#0x68
	str         x9,[x8]

; 139  : 	disk->currentLBA = 0;

	ldr         x8,[sp,#8]
	add         x9,x8,#0x88
	mov         x8,#0
	str         x8,[x9]

; 140  : 	disk->startingLBA = 0;

	ldr         x8,[sp,#8]
	add         x9,x8,#0x80
	mov         x8,#0
	str         x8,[x9]

; 141  : 	disk->blockSize = RAMDISK_SECTOR_SIZE;

	ldr         x8,[sp,#8]
	add         x9,x8,#0x70
	mov         x8,#0x200
	str         x8,[x9]

; 142  : 
; 143  : 	strcpy(disk->diskPath, diskpath);

	ldr         x8,[sp,#8]
	add         x0,x8,#0x3C
	ldr         x1,[sp,#0x18]
	bl          strcpy

; 144  : 	int offset = strlen(disk->diskPath);

	ldr         x8,[sp,#8]
	add         x0,x8,#0x3C
	bl          strlen
	mov         w8,w0
	str         w8,[sp]

; 145  : 	strcpy(disk->diskPath + offset, "/");

	ldr         x8,[sp,#8]
	add         x9,x8,#0x3C
	ldr         w8,[sp]
	sxtw        x8,w8
	add         x0,x9,x8
	adrp        x8,|$SG3488|
	add         x1,x8,PageOffset(|$SG3488|)
	bl          strcpy

; 146  : 	offset = strlen(disk->diskPath);

	ldr         x8,[sp,#8]
	add         x0,x8,#0x3C
	bl          strlen
	mov         w8,w0
	str         w8,[sp]

; 147  : 	strcpy(disk->diskPath + offset, "ramdisc");

	ldr         x8,[sp,#8]
	add         x9,x8,#0x3C
	ldr         w8,[sp]
	sxtw        x8,w8
	add         x0,x9,x8
	adrp        x8,|$SG3489|
	add         x1,x8,PageOffset(|$SG3489|)
	bl          strcpy

; 148  : 
; 149  : 	AuVDiskRegister(disk);

	ldr         x0,[sp,#8]
	bl          AuVDiskRegister

; 150  : 
; 151  : 	AuVFSNode* file = (AuVFSNode*)kmalloc(sizeof(AuVFSNode));

	mov         w0,#0xD0
	bl          kmalloc
	str         x0,[sp,#0x10]

; 152  : 	memset(file, 0, sizeof(AuVFSNode));

	mov         w2,#0xD0
	mov         w1,#0
	ldr         x0,[sp,#0x10]
	bl          memset

; 153  : 	strcpy(file->filename, "ramdisc");

	ldr         x0,[sp,#0x10]
	adrp        x8,|$SG3490|
	add         x1,x8,PageOffset(|$SG3490|)
	bl          strcpy

; 154  : 	file->flags = FS_FLAG_DEVICE;

	ldr         x8,[sp,#0x10]
	add         x9,x8,#0x40
	mov         w8,#8
	strh        w8,[x9]

; 155  : 	file->device = NULL;

	ldr         x8,[sp,#0x10]
	add         x9,x8,#0x50
	mov         x8,#0
	str         x8,[x9]

; 156  : 	file->write = 0;

	ldr         x8,[sp,#0x10]
	add         x9,x8,#0x78
	mov         x8,#0
	str         x8,[x9]

; 157  : 	file->read = 0;

	ldr         x8,[sp,#0x10]
	add         x9,x8,#0x70
	mov         x8,#0
	str         x8,[x9]

; 158  : 
; 159  : 	AuVFSNode* dev = AuVFSFind("/dev");

	adrp        x8,|$SG3491|
	add         x0,x8,PageOffset(|$SG3491|)
	bl          AuVFSFind
	str         x0,[sp,#0x30]

; 160  : 	AuDevFSAddFile(dev, diskpath, file);

	ldr         x2,[sp,#0x10]
	ldr         x1,[sp,#0x18]
	ldr         x0,[sp,#0x30]
	bl          AuDevFSAddFile

; 161  : 
; 162  : 	AuTextOut("[aurora]: ramdisk mounted at %s full path : %s \r\n", diskpath, disk->diskPath);

	ldr         x8,[sp,#8]
	add         x2,x8,#0x3C
	ldr         x1,[sp,#0x18]
	adrp        x8,|$SG3492|
	add         x0,x8,PageOffset(|$SG3492|)
	bl          AuTextOut

; 163  : 	/* Mount FAT as root file system temporarily */
; 164  : 	//FatInitialise(disk, "/");
; 165  : 	AuTextOut("[aurora]: ramdisk initialized successfully \r\n");

	adrp        x8,|$SG3493|
	add         x0,x8,PageOffset(|$SG3493|)
	bl          AuTextOut

; 166  : 
; 167  : 	AuVDisk* other_disk = AuGetVDisk(1);

	mov         w0,#1
	bl          AuGetVDisk
	str         x0,[sp,#0x38]

; 168  : 	Ext2Initialise(other_disk, "/ext2");

	adrp        x8,|$SG3494|
	add         x1,x8,PageOffset(|$SG3494|)
	ldr         x0,[sp,#0x38]
	bl          Ext2Initialise
|$LN1@AuInitrdIn|
	add         sp,sp,#0x40
	ldr         lr,[sp],#0x10
	ret

	ENDP  ; |AuInitrdInitialize|

	END
