; Listing generated by Microsoft (R) Optimizing Compiler Version 19.29.30159.0 

	TTL	C:\Users\paras\source\repos\grep-name\XenevaOS\KernelAA64\ARM64\Debug\init.obj
	ARM64

	AREA	|.drectve|, DRECTVE

	EXPORT	|_fltused| [ DATA ]
	EXPORT	|i_| [ DATA ]
	EXPORT	|_dir_names| [ DATA ]

	AREA	|.bss|, NOINIT
|_littleboot_used| % 0x1

	AREA	|.data|, DATA
	 COMMON	|bootinfo|, 0x8


	AREA	|.data|, DATA
|_fltused| DCD	0x1
|i_|	DCD	0x1
	%	8
|_dir_names| DCQ |$SG5105|, 0
	DCQ	|$SG5106|, 0
	DCQ	|$SG5107|, 0
	DCQ	|$SG5108|, 0
	DCQ	|$SG5109|, 0
	DCQ	|$SG5110|, 0
	DCQ	|$SG5111|, 0
	DCQ	|$SG5112|, 0
	DCQ	|$SG5113|, 0
	DCQ	|$SG5114|, 0
	DCQ	|$SG5115|, 0
	DCQ	|$SG5116|, 0
	DCQ	|$SG5117|, 0
	DCQ	|$SG5118|, 0
	DCQ	|$SG5119|, 0
|$SG5105| DCB	"/c/heya1", 0x0
	%	7
|$SG5106| DCB	"/c/heya2", 0x0
	%	7
|$SG5107| DCB	"/c/heya3", 0x0
	%	7
|$SG5108| DCB	"/c/heya4", 0x0
	%	7
|$SG5109| DCB	"/c/heya5", 0x0
	%	7
|$SG5110| DCB	"/c/heya6", 0x0
	%	7
|$SG5111| DCB	"/c/heya7", 0x0
	%	7
|$SG5112| DCB	"/c/heya8", 0x0
	%	7
|$SG5113| DCB	"/c/heya10", 0x0
	%	6
|$SG5114| DCB	"/c/heya11", 0x0
	%	6
|$SG5115| DCB	"/c/heya12", 0x0
	%	6
|$SG5116| DCB	"/c/heya13", 0x0
	%	6
|$SG5117| DCB	"/c/heya14", 0x0
	%	6
|$SG5118| DCB	"/c/heya15", 0x0
	%	6
|$SG5119| DCB	"/c/heya16", 0x0

	AREA	|.rdata|, DATA, READONLY
|MAGIC_NATIVE| DCD 0x10b
|MACHINE_NATIVE| DCD 0x14c
	EXPORT	|AuGetBootInfoStruc|
	EXPORT	|AuUartPutc|
	EXPORT	|AuUartPutString|
	EXPORT	|AuLittleBootUsed|
	EXPORT	|AuEntryTest|
	EXPORT	|AuEntryTest2|
	EXPORT	|AuEntryTest4|
	EXPORT	|_AuroraTimerCallback|
	EXPORT	|_AuMain|
	IMPORT	|AuConsoleInitialize|
	IMPORT	|AuConsolePostInitialise|
	IMPORT	|AuTextOut|
	IMPORT	|AA64CpuInitialize|
	IMPORT	|AA64CPUPostInitialize|
	IMPORT	|AuDeviceTreeInitialize|
	IMPORT	|AuDeviceTreeMapMMIO|
	IMPORT	|AuPmmngrInitialize|
	IMPORT	|AuVmmngrInitialize|
	IMPORT	|AuVmmngrBootFree|
	IMPORT	|AuHeapInitialize|
	IMPORT	|kmalloc|
	IMPORT	|AuCredGroupInitialize|
	IMPORT	|AuVFSInitialise|
	IMPORT	|AuSchedulerInitialize|
	IMPORT	|AuSchedulerStart|
	IMPORT	|AuCreateProcessSlot|
	IMPORT	|AuInitialiseSHMMan|
	IMPORT	|AuMmngrFileCacheInit|
	IMPORT	|AuMmngrFileCacheEnable|
	IMPORT	|AuVirtIOInputInitialize|
	IMPORT	|enable_irqs|
	IMPORT	|mask_irqs|
	IMPORT	|AuInitialiseLoader|
	IMPORT	|AuLoadExecToProcess|
	IMPORT	|UARTDebugOut|
	IMPORT	|AuInitrdInitialize|
	IMPORT	|AuDrvMngrInitialize|
	IMPORT	|AuTTYInitialise|
	IMPORT	|strcpy|
	IMPORT	|strlen|
	IMPORT	|memset|
	IMPORT	|FontManagerInitialise|
	IMPORT	|AuIPCPostBoxInitialise|
	IMPORT	|AuAA64BoardInitialize|
	IMPORT	|AuInitialiseNet|
	IMPORT	|AuSoundInitialise|
	IMPORT	|AuProcessTokenInitialize|
	IMPORT	|AuroraTimerInitialize|

	AREA	|.pdata|, PDATA
|$pdata$AuUartPutc| DCD imagerel |$LN5|
	DCD	0x800041
	;Flags[SingleProEpi] functionLength[64] RegF[0] RegI[0] H[0] frameChainReturn[UnChained] frameSize[16]
|$pdata$AuUartPutString| DCD imagerel |$LN5|
	DCD	0x1200051
	;Flags[SingleProEpi] functionLength[80] RegF[0] RegI[0] H[0] frameChainReturn[UnChainedSavedLR] frameSize[32]
|$pdata$AuEntryTest| DCD imagerel |$LN6|
	DCD	0x1200075
	;Flags[SingleProEpi] functionLength[116] RegF[0] RegI[0] H[0] frameChainReturn[UnChainedSavedLR] frameSize[32]
|$pdata$AuEntryTest2| DCD imagerel |$LN6|
	DCD	0x1200075
	;Flags[SingleProEpi] functionLength[116] RegF[0] RegI[0] H[0] frameChainReturn[UnChainedSavedLR] frameSize[32]
|$pdata$AuEntryTest4| DCD imagerel |$LN6|
	DCD	0x1200075
	;Flags[SingleProEpi] functionLength[116] RegF[0] RegI[0] H[0] frameChainReturn[UnChainedSavedLR] frameSize[32]
|$pdata$_AuroraTimerCallback| DCD imagerel |$LN3|
	DCD	0x1200025
	;Flags[SingleProEpi] functionLength[36] RegF[0] RegI[0] H[0] frameChainReturn[UnChainedSavedLR] frameSize[32]
|$pdata$_AuMain| DCD imagerel |$LN6|
	DCD	0x2200231
	;Flags[SingleProEpi] functionLength[560] RegF[0] RegI[0] H[0] frameChainReturn[UnChainedSavedLR] frameSize[64]

	AREA	|.data|, DATA
	%	6
|$SG5064| DCB	"[aurora]: test2 ", 0xd, 0xa, 0x0
	%	5
|$SG5066| DCB	"[aurora_t1]: 2 ", 0xd, 0xa, 0x0
	%	6
|$SG5074| DCB	"[aurora]: test3 ", 0xd, 0xa, 0x0
	%	5
|$SG5076| DCB	"[aurora_t2]: 3 ", 0xd, 0xa, 0x0
	%	6
|$SG5084| DCB	"[aurora]: test4 ", 0xd, 0xa, 0x0
	%	5
|$SG5086| DCB	"[aurora_t4]: 4 ", 0xd, 0xa, 0x0
	%	6
|$SG5103| DCB	"from inside timer++ ", 0xd, 0xa, 0x0
	%	1
|$SG5134| DCB	"[aurora]:Kernel is booted using LittleBoot ARM64 ", 0xd, 0xa
	DCB	0x0
	%	4
|$SG5135| DCB	"[aurora]: CPU initialized ", 0xd, 0xa, 0x0
	%	3
|$SG5136| DCB	"[aurora]: virtual memory manager initialized ", 0xd, 0xa
	DCB	0x0
|$SG5137| DCB	"Initializing VFS ", 0xd, 0xa, 0x0
	%	4
|$SG5138| DCB	"[aurora]: VFS initialized ", 0xd, 0xa, 0x0
	%	3
|$SG5139| DCB	"18:16:20", 0x0
	%	7
|$SG5140| DCB	"Jun 13 2026", 0x0
	%	4
|$SG5141| DCB	"[aurora]: Board Model : QEMU Virt Machine (Xeneva Build "
	DCB	"%s - %s)", 0xd, 0xa, 0x0
	%	5
|$SG5142| DCB	"[aurora]: starting xeneva (ARM64) please wait...", 0xd, 0xa
	DCB	0x0
	%	5
|$SG5143| DCB	"[aurora]: boot freed up ", 0xd, 0xa, 0x0
	%	1
|$SG5144| DCB	"exec", 0x0
	%	3
|$SG5145| DCB	"-about", 0x0
	%	1
|$SG5146| DCB	"-about", 0x0
	%	5
|$SG5147| DCB	"/init.exe", 0x0
; Function compile flags: /Odtpy
; File C:\Users\paras\source\repos\grep-name\XenevaOS\KernelAA64\init.c

	AREA	|.text$mn|, CODE, ARM64

|_AuMain| PROC

; 205  : void _AuMain(KERNEL_BOOT_INFO* info) {

|$LN6|
	str         lr,[sp,#-0x10]!
	sub         sp,sp,#0x30
	str         x0,[sp,#8]

; 206  :     _littleboot_used = false;

	adrp        x9,_littleboot_used
	mov         w8,#0
	strb        w8,[x9,PageOffset(_littleboot_used)]

; 207  :     if (info->boot_type == BOOT_LITTLEBOOT_ARM64) {

	ldr         x8,[sp,#8]
	ldr         w8,[x8]
	cmp         w8,#3
	bne         |$LN4@AuMain|

; 208  :         AuUartPutString("[aurora]:Kernel is booted using LittleBoot ARM64 \r\n");

	adrp        x8,|$SG5134|
	add         x0,x8,PageOffset(|$SG5134|)
	bl          AuUartPutString

; 209  :         _littleboot_used = true;

	adrp        x9,_littleboot_used
	mov         w8,#1
	strb        w8,[x9,PageOffset(_littleboot_used)]
|$LN4@AuMain|

; 210  :     }
; 211  : 
; 212  : 	bootinfo = info;

	adrp        x9,bootinfo
	ldr         x8,[sp,#8]
	str         x8,[x9,PageOffset(bootinfo)]

; 213  : 
; 214  : #ifdef __KERNEL_PROFILER_ON__
; 215  : 	PROFILE_START("_AuMain");
; 216  : #endif
; 217  : 
; 218  : 	AuConsoleInitialize(info, true);

	mov         w1,#1
	ldr         x0,[sp,#8]
	bl          AuConsoleInitialize

; 219  :     AuDeviceTreeInitialize(info);

	ldr         x0,[sp,#8]
	bl          AuDeviceTreeInitialize

; 220  : 	AA64CpuInitialize();

	bl          AA64CpuInitialize

; 221  : 	mask_irqs();

	bl          mask_irqs

; 222  : 	AuTextOut("[aurora]: CPU initialized \r\n");

	adrp        x8,|$SG5135|
	add         x0,x8,PageOffset(|$SG5135|)
	bl          AuTextOut

; 223  : 	AuPmmngrInitialize(info);

	ldr         x0,[sp,#8]
	bl          AuPmmngrInitialize

; 224  : 	AuVmmngrInitialize();

	bl          AuVmmngrInitialize

; 225  : 	AuTextOut("[aurora]: virtual memory manager initialized \r\n");

	adrp        x8,|$SG5136|
	add         x0,x8,PageOffset(|$SG5136|)
	bl          AuTextOut

; 226  : 	AuHeapInitialize();

	bl          AuHeapInitialize

; 227  : 	AuDeviceTreeMapMMIO();

	bl          AuDeviceTreeMapMMIO

; 228  : 	AuAA64BoardInitialize();

	bl          AuAA64BoardInitialize

; 229  : 	AA64CPUPostInitialize(info);

	ldr         x0,[sp,#8]
	bl          AA64CPUPostInitialize

; 230  : 	AuTextOut("Initializing VFS \r\n");

	adrp        x8,|$SG5137|
	add         x0,x8,PageOffset(|$SG5137|)
	bl          AuTextOut

; 231  : 	AuVFSInitialise();

	bl          AuVFSInitialise

; 232  : 	AuTextOut("[aurora]: VFS initialized \r\n");

	adrp        x8,|$SG5138|
	add         x0,x8,PageOffset(|$SG5138|)
	bl          AuTextOut

; 233  : 	AuInitrdInitialize(info);

	ldr         x0,[sp,#8]
	bl          AuInitrdInitialize

; 234  : 	AuConsolePostInitialise(info);

	ldr         x0,[sp,#8]
	bl          AuConsolePostInitialise

; 235  : 	//AuConsoleBypassAuTextOut();
; 236  : 	AuroraTimerInitialize();

	bl          AuroraTimerInitialize

; 237  : 
; 238  : 	/* initialize the tty service */
; 239  : 	AuTTYInitialise();

	bl          AuTTYInitialise

; 240  : 
; 241  : 	/* initialize the shared memory manager*/
; 242  : 	AuInitialiseSHMMan();

	bl          AuInitialiseSHMMan

; 243  : 	AuMmngrFileCacheInit();

	bl          AuMmngrFileCacheInit

; 244  : 
; 245  : 	/* initialize kernel credentials
; 246  : 	 * note: untill here ensure no file gets opened
; 247  : 	 * because file system may use credentials 
; 248  : 	 */
; 249  : 	AuCredGroupInitialize();

	bl          AuCredGroupInitialize

; 250  : 
; 251  : 	/* initialize the network layer */
; 252  : 	AuInitialiseNet();

	bl          AuInitialiseNet

; 253  : 
; 254  : 	/* initialize aurora sound layer */
; 255  : 	AuSoundInitialise();

	bl          AuSoundInitialise

; 256  : 
; 257  : 	/* initialize process token layer */
; 258  : 	AuProcessTokenInitialize();

	bl          AuProcessTokenInitialize

; 259  : 
; 260  : #ifdef __TARGET_BOARD_RPI3__
; 261  : 	XPT2046Initialise();
; 262  : #endif
; 263  : 
; 264  : 	/* initialize our basic requirement */
; 265  : #ifdef __TARGET_BOARD_QEMU_VIRT__
; 266  : 	/* for qemu virt board, virtIO inputs are used */
; 267  : 	AuVirtIOInputInitialize();

	bl          AuVirtIOInputInitialize

; 268  : #endif
; 269  : 
; 270  : 	/* required virtio-mouse and keyboard */
; 271  : 	//Here goes board pre driver initialize
; 272  : 	AuDrvMngrInitialize(info);

	ldr         x0,[sp,#8]
	bl          AuDrvMngrInitialize

; 273  : 
; 274  : 	FontManagerInitialise();

	bl          FontManagerInitialise

; 275  : 
; 276  : 	/* from here, be carefull with AuPmmngrAllocBlocks,
; 277  : 	 * sometime it doesn't allocate blocks contiguously,
; 278  : 	 * it allocate one previously freed block and other
; 279  : 	 * contiguously from some unallocated portion of
; 280  : 	 * physical memory, which make it problamatic for kheap
; 281  : 	 * or other data structures that get overwritten.
; 282  : 	 * We need to be carefull on low level side for this 
; 283  : 	 */
; 284  : 	AuInitialiseLoader();

	bl          AuInitialiseLoader

; 285  : 
; 286  : 	/* initialize the deodhai's communication protocol */
; 287  : 	AuIPCPostBoxInitialise();

	bl          AuIPCPostBoxInitialise

; 288  : 
; 289  : 	
; 290  : #ifdef __TARGET_BOARD_IMX8MP_VERDIN_DAHLIA__
; 291  : 	AuTextOut("[aurora]: Board model : Toradex imx8M Plus Verdin Dahlia (Xeneva Build %s - %s)\r\n", __DATE__, __TIME__);
; 292  : #elif __TARGET_BOARD_RPI3__
; 293  : 	AuTextOut("[aurora]: Board Model : Raspberry Pi 3B+ (Xeneva Build %s - %s)\r\n", __DATE__, __TIME__);
; 294  : #elif __TARGET_BOARD_QEMU_VIRT__
; 295  : 	UARTDebugOut("[aurora]: Board Model : QEMU Virt Machine (Xeneva Build %s - %s)\r\n", __DATE__, __TIME__);

	adrp        x8,|$SG5139|
	add         x2,x8,PageOffset(|$SG5139|)
	adrp        x8,|$SG5140|
	add         x1,x8,PageOffset(|$SG5140|)
	adrp        x8,|$SG5141|
	add         x0,x8,PageOffset(|$SG5141|)
	bl          UARTDebugOut

; 296  : #endif
; 297  : 	UARTDebugOut("[aurora]: starting xeneva (ARM64) please wait...\r\n");

	adrp        x8,|$SG5142|
	add         x0,x8,PageOffset(|$SG5142|)
	bl          UARTDebugOut

; 298  : 
; 299  : 	
; 300  : 	/* clear out the lower half memory */
; 301  : 	AuVmmngrBootFree();

	bl          AuVmmngrBootFree

; 302  : 	AuMmngrFileCacheEnable();

	bl          AuMmngrFileCacheEnable

; 303  : 
; 304  : 	UARTDebugOut("[aurora]: boot freed up \r\n");

	adrp        x8,|$SG5143|
	add         x0,x8,PageOffset(|$SG5143|)
	bl          UARTDebugOut

; 305  : 
; 306  : 	AuSchedulerInitialize();

	bl          AuSchedulerInitialize

; 307  : 
; 308  : 	
; 309  : 	AuProcess* proc = AuCreateProcessSlot(0, "exec");

	adrp        x8,|$SG5144|
	add         x1,x8,PageOffset(|$SG5144|)
	mov         x0,#0
	bl          AuCreateProcessSlot
	str         x0,[sp,#0x10]

; 310  : 	int num_args = 1;

	mov         w8,#1
	str         w8,[sp]

; 311  : 	char* about = (char*)kmalloc(strlen("-about"));

	adrp        x8,|$SG5145|
	add         x0,x8,PageOffset(|$SG5145|)
	bl          strlen
	mov         w0,w0
	mov         w0,w0
	bl          kmalloc
	str         x0,[sp,#0x20]

; 312  : 	strcpy(about, "-about");

	adrp        x8,|$SG5146|
	add         x1,x8,PageOffset(|$SG5146|)
	ldr         x0,[sp,#0x20]
	bl          strcpy

; 313  : 	char** argvs = (char**)kmalloc(num_args * sizeof(char*));

	ldr         w8,[sp]
	sxtw        x9,w8
	mov         x8,#8
	mul         x8,x9,x8
	mov         w0,w8
	mov         w0,w0
	bl          kmalloc
	str         x0,[sp,#0x18]

; 314  : 	memset(argvs, 0, num_args);

	ldr         w2,[sp]
	mov         w1,#0
	ldr         x0,[sp,#0x18]
	bl          memset

; 315  : 	argvs[0] = about;

	ldr         x9,[sp,#0x18]
	ldr         x8,[sp,#0x20]
	str         x8,[x9]

; 316  : 
; 317  : 	/** make init process, as root of all */
; 318  : 	CRED_SET_CAP_ROOT(proc);

	ldr         x8,[sp,#0x10]
	add         x9,x8,#0x470
	mov         w8,#0xFF
	strb        w8,[x9]

; 319  : 	CRED_MARK_ROOT(proc);

	ldr         x8,[sp,#0x10]
	add         x9,x8,#0x474
	mov         w8,#0
	str         w8,[x9]
	ldr         x8,[sp,#0x10]
	add         x9,x8,#0x478
	mov         w8,#0
	str         w8,[x9]

; 320  : 	AuLoadExecToProcess(proc, "/init.exe", num_args, argvs);

	ldr         x3,[sp,#0x18]
	ldr         w2,[sp]
	adrp        x8,|$SG5147|
	add         x1,x8,PageOffset(|$SG5147|)
	ldr         x0,[sp,#0x10]
	bl          AuLoadExecToProcess

; 321  : 	
; 322  : #ifdef __KERNEL_PROFILER_ON__
; 323  : 	PROFILE_END("_AuMain");
; 324  : #endif
; 325  : 
; 326  : 	AuSchedulerStart();

	bl          AuSchedulerStart
|$LN2@AuMain|

; 327  : 	while (1) {

	mov         w8,#1
	cmp         w8,#0
	beq         |$LN3@AuMain|

; 328  : 		//UARTDebugOut("Printing \n");
; 329  : 	}

	b           |$LN2@AuMain|
|$LN3@AuMain|
	add         sp,sp,#0x30
	ldr         lr,[sp],#0x10
	ret

	ENDP  ; |_AuMain|

; Function compile flags: /Odtpy
; File C:\Users\paras\source\repos\grep-name\XenevaOS\KernelAA64\init.c

	AREA	|.text$mn|, CODE, ARM64

|_AuroraTimerCallback| PROC

; 176  : void _AuroraTimerCallback(void* p) {

|$LN3|
	str         lr,[sp,#-0x10]!
	sub         sp,sp,#0x10
	str         x0,[sp]

; 177  : 	UARTDebugOut("from inside timer++ \r\n");

	adrp        x8,|$SG5103|
	add         x0,x8,PageOffset(|$SG5103|)
	bl          UARTDebugOut
	add         sp,sp,#0x10
	ldr         lr,[sp],#0x10
	ret

	ENDP  ; |_AuroraTimerCallback|

; Function compile flags: /Odtpy
; File C:\Users\paras\source\repos\grep-name\XenevaOS\KernelAA64\init.c

	AREA	|.text$mn|, CODE, ARM64

|AuEntryTest4| PROC

; 141  : void AuEntryTest4(uint64_t test) {

|$LN6|
	str         lr,[sp,#-0x10]!
	sub         sp,sp,#0x10
	str         x0,[sp,#8]

; 142  : 	int d = 10;

	mov         w8,#0xA
	str         w8,[sp]

; 143  : 	//enable_irqs();
; 144  : 	/*AA64Thread* thr = AuThreadFindByIDBlockList(1);
; 145  : 	if (thr) {
; 146  : 		UARTDebugOut("Unblocking thr : %s \n", thr->nme);
; 147  : 		AuUnblockThread(thr);
; 148  : 	}*/
; 149  : 	AuTextOut("[aurora]: test4 \r\n");

	adrp        x8,|$SG5084|
	add         x0,x8,PageOffset(|$SG5084|)
	bl          AuTextOut
|$LN2@AuEntryTes|

; 150  : 	while (1) {

	mov         w8,#1
	cmp         w8,#0
	beq         |$LN3@AuEntryTes|

; 151  : 		enable_irqs();

	bl          enable_irqs

; 152  : 		if ((d % 2) != 0)

	ldr         w10,[sp]
	mov         w9,#2
	sdiv        w8,w10,w9
	mul         w8,w8,w9
	sub         w8,w10,w8
	cmp         w8,#0
	beq         |$LN4@AuEntryTes|

; 153  : 			AuTextOut("[aurora_t4]: 4 \r\n");

	adrp        x8,|$SG5086|
	add         x0,x8,PageOffset(|$SG5086|)
	bl          AuTextOut
|$LN4@AuEntryTes|

; 154  : 		d++;

	ldr         w8,[sp]
	add         w8,w8,#1
	str         w8,[sp]

; 155  : 	}

	b           |$LN2@AuEntryTes|
|$LN3@AuEntryTes|
	add         sp,sp,#0x10
	ldr         lr,[sp],#0x10
	ret

	ENDP  ; |AuEntryTest4|

; Function compile flags: /Odtpy
; File C:\Users\paras\source\repos\grep-name\XenevaOS\KernelAA64\init.c

	AREA	|.text$mn|, CODE, ARM64

|AuEntryTest2| PROC

; 124  : void AuEntryTest2(uint64_t test) {

|$LN6|
	str         lr,[sp,#-0x10]!
	sub         sp,sp,#0x10
	str         x0,[sp,#8]

; 125  : 	int d = 10;

	mov         w8,#0xA
	str         w8,[sp]

; 126  : 	//enable_irqs();
; 127  : 	/*AA64Thread* thr = AuThreadFindByIDBlockList(1);
; 128  : 	if (thr) {
; 129  : 		UARTDebugOut("Unblocking thr : %s \n", thr->name);
; 130  : 		AuUnblockThread(thr);
; 131  : 	}*/
; 132  : 	AuTextOut("[aurora]: test3 \r\n");

	adrp        x8,|$SG5074|
	add         x0,x8,PageOffset(|$SG5074|)
	bl          AuTextOut
|$LN2@AuEntryTes|

; 133  : 	while (1) {

	mov         w8,#1
	cmp         w8,#0
	beq         |$LN3@AuEntryTes|

; 134  : 		enable_irqs();

	bl          enable_irqs

; 135  : 		if ((d % 2) != 0)

	ldr         w10,[sp]
	mov         w9,#2
	sdiv        w8,w10,w9
	mul         w8,w8,w9
	sub         w8,w10,w8
	cmp         w8,#0
	beq         |$LN4@AuEntryTes|

; 136  : 			AuTextOut("[aurora_t2]: 3 \r\n");

	adrp        x8,|$SG5076|
	add         x0,x8,PageOffset(|$SG5076|)
	bl          AuTextOut
|$LN4@AuEntryTes|

; 137  : 		d++;

	ldr         w8,[sp]
	add         w8,w8,#1
	str         w8,[sp]

; 138  : 	}

	b           |$LN2@AuEntryTes|
|$LN3@AuEntryTes|
	add         sp,sp,#0x10
	ldr         lr,[sp],#0x10
	ret

	ENDP  ; |AuEntryTest2|

; Function compile flags: /Odtpy
; File C:\Users\paras\source\repos\grep-name\XenevaOS\KernelAA64\init.c

	AREA	|.text$mn|, CODE, ARM64

|AuEntryTest| PROC

; 111  : void AuEntryTest(uint64_t test) {

|$LN6|
	str         lr,[sp,#-0x10]!
	sub         sp,sp,#0x10
	str         x0,[sp,#8]

; 112  : 	//aa64_utest();
; 113  : 	int c = 10;

	mov         w8,#0xA
	str         w8,[sp]

; 114  : 	//enable_irqs();
; 115  : 	AuTextOut("[aurora]: test2 \r\n");

	adrp        x8,|$SG5064|
	add         x0,x8,PageOffset(|$SG5064|)
	bl          AuTextOut
|$LN2@AuEntryTes|

; 116  : 	while (1) {

	mov         w8,#1
	cmp         w8,#0
	beq         |$LN3@AuEntryTes|

; 117  : 		enable_irqs();

	bl          enable_irqs

; 118  : 		if ((c % 2) == 0)

	ldr         w10,[sp]
	mov         w9,#2
	sdiv        w8,w10,w9
	mul         w8,w8,w9
	sub         w8,w10,w8
	cmp         w8,#0
	bne         |$LN4@AuEntryTes|

; 119  : 			AuTextOut("[aurora_t1]: 2 \r\n");

	adrp        x8,|$SG5066|
	add         x0,x8,PageOffset(|$SG5066|)
	bl          AuTextOut
|$LN4@AuEntryTes|

; 120  : 		c++;

	ldr         w8,[sp]
	add         w8,w8,#1
	str         w8,[sp]

; 121  : 	}

	b           |$LN2@AuEntryTes|
|$LN3@AuEntryTes|
	add         sp,sp,#0x10
	ldr         lr,[sp],#0x10
	ret

	ENDP  ; |AuEntryTest|

; Function compile flags: /Odtpy
; File C:\Users\paras\source\repos\grep-name\XenevaOS\KernelAA64\init.c

	AREA	|.text$mn|, CODE, ARM64

|AuLittleBootUsed| PROC

; 104  :     return _littleboot_used;

	adrp        x8,_littleboot_used
	ldrb        w0,[x8,PageOffset(_littleboot_used)]
	ret

	ENDP  ; |AuLittleBootUsed|

; Function compile flags: /Odtpy
; File C:\Users\paras\source\repos\grep-name\XenevaOS\KernelAA64\init.c

	AREA	|.text$mn|, CODE, ARM64

|AuUartPutString| PROC

; 92   : void AuUartPutString(const char* s) {

|$LN5|
	str         lr,[sp,#-0x10]!
	sub         sp,sp,#0x10
	str         x0,[sp,#8]
|$LN2@AuUartPutS|

; 93   : 	while (*s)

	ldr         x8,[sp,#8]
	ldrsb       w8,[x8]
	mov         w8,w8
	cmp         w8,#0
	beq         |$LN3@AuUartPutS|

; 94   : 		AuUartPutc(*s++);

	ldr         x8,[sp,#8]
	ldrsb       w8,[x8]
	strb        w8,[sp]
	ldrsb       w0,[sp]
	bl          AuUartPutc
	ldr         x8,[sp,#8]
	add         x8,x8,#1
	str         x8,[sp,#8]
	b           |$LN2@AuUartPutS|
|$LN3@AuUartPutS|
	add         sp,sp,#0x10
	ldr         lr,[sp],#0x10
	ret

	ENDP  ; |AuUartPutString|

; Function compile flags: /Odtpy
; File C:\Users\paras\source\repos\grep-name\XenevaOS\KernelAA64\init.c

	AREA	|.text$mn|, CODE, ARM64

|AuUartPutc| PROC

; 81   : void AuUartPutc(char c) {

|$LN5|
	sub         sp,sp,#0x10
	sxtb        w8,w0
	strb        w8,[sp]

; 82   : 	char* uart0 = (char*)UART0;

	mov         x8,#0x9000000
	str         x8,[sp,#8]
|$LN2@AuUartPutc|

; 83   : 	while ((*(uart0 + 0x18) & (1 << 5)));

	ldr         x8,[sp,#8]
	add         x8,x8,#0x18
	ldrsb       w8,[x8]
	mov         w8,w8
	tbz         x8,#5,|$LN3@AuUartPutc|
	b           |$LN2@AuUartPutc|
|$LN3@AuUartPutc|

; 84   : 	*uart0 = c;

	ldr         x9,[sp,#8]
	ldrsb       w8,[sp]
	strb        w8,[x9]
	add         sp,sp,#0x10
	ret

	ENDP  ; |AuUartPutc|

; Function compile flags: /Odtpy
; File C:\Users\paras\source\repos\grep-name\XenevaOS\KernelAA64\init.c

	AREA	|.text$mn|, CODE, ARM64

|AuGetBootInfoStruc| PROC

; 164  : 	return bootinfo;

	adrp        x8,bootinfo
	ldr         x0,[x8,PageOffset(bootinfo)]
	ret

	ENDP  ; |AuGetBootInfoStruc|

	END
