; Listing generated by Microsoft (R) Optimizing Compiler Version 19.29.30159.0 

	TTL	C:\Users\paras\source\repos\grep-name\XenevaOS\KernelAA64\ARM64\Debug\kmalloc.obj
	ARM64

	AREA	|.drectve|, DRECTVE

	EXPORT	|AuHeapInitialize|
	EXPORT	|kmalloc|
	EXPORT	|krealloc|
	EXPORT	|kcalloc|
	EXPORT	|kfree|
	EXPORT	|kheap_debug|
	EXPORT	|kmalloc_debug_on|
	EXPORT	|au_free_page|
	EXPORT	|au_request_page|
	EXPORT	|next_power_of_two|
	EXPORT	|align24|
	EXPORT	|au_split_block|
	EXPORT	|au_expand_kmalloc|
	EXPORT	|merge_next|
	EXPORT	|merge_prev|
	IMPORT	|AuMapPage|
	IMPORT	|AuFreePages|
	IMPORT	|AuPmmngrAlloc|
	IMPORT	|UARTDebugOut|
	IMPORT	|dlmalloc|
	IMPORT	|dlfree|
	IMPORT	|dlcalloc|
	IMPORT	|dlrealloc|

	AREA	|.bss|, NOINIT
|_last_morecore_addr| % 0x8
|_brk_current| % 0x8

	AREA	|.pdata|, PDATA
|$pdata$kmalloc| DCD imagerel |$LN3|
	DCD	0x1200025
	;Flags[SingleProEpi] functionLength[36] RegF[0] RegI[0] H[0] frameChainReturn[UnChainedSavedLR] frameSize[32]
|$pdata$krealloc| DCD imagerel |$LN3|
	DCD	0x120002d
	;Flags[SingleProEpi] functionLength[44] RegF[0] RegI[0] H[0] frameChainReturn[UnChainedSavedLR] frameSize[32]
|$pdata$kcalloc| DCD imagerel |$LN3|
	DCD	0x1200029
	;Flags[SingleProEpi] functionLength[40] RegF[0] RegI[0] H[0] frameChainReturn[UnChainedSavedLR] frameSize[32]
|$pdata$kfree| DCD imagerel |$LN3|
	DCD	0x1200021
	;Flags[SingleProEpi] functionLength[32] RegF[0] RegI[0] H[0] frameChainReturn[UnChainedSavedLR] frameSize[32]
|$pdata$kmalloc_debug_on| DCD imagerel |$LN3|
	DCD	0x800015
	;Flags[SingleProEpi] functionLength[20] RegF[0] RegI[0] H[0] frameChainReturn[UnChained] frameSize[16]
|$pdata$au_free_page| DCD imagerel |$LN3|
	DCD	0x120005d
	;Flags[SingleProEpi] functionLength[92] RegF[0] RegI[0] H[0] frameChainReturn[UnChainedSavedLR] frameSize[32]
|$pdata$au_request_page| DCD imagerel |$LN12|
	DCD	0x1a00151
	;Flags[SingleProEpi] functionLength[336] RegF[0] RegI[0] H[0] frameChainReturn[UnChainedSavedLR] frameSize[48]
|$pdata$next_power_of_two| DCD imagerel |$LN6|
	DCD	0x800061
	;Flags[SingleProEpi] functionLength[96] RegF[0] RegI[0] H[0] frameChainReturn[UnChained] frameSize[16]
|$pdata$align24| DCD imagerel |$LN5|
	DCD	0x800051
	;Flags[SingleProEpi] functionLength[80] RegF[0] RegI[0] H[0] frameChainReturn[UnChained] frameSize[16]
|$pdata$au_split_block| DCD imagerel |$LN3|
	DCD	0x800019
	;Flags[SingleProEpi] functionLength[24] RegF[0] RegI[0] H[0] frameChainReturn[UnChained] frameSize[16]
|$pdata$au_expand_kmalloc| DCD imagerel |$LN3|
	DCD	0x800011
	;Flags[SingleProEpi] functionLength[16] RegF[0] RegI[0] H[0] frameChainReturn[UnChained] frameSize[16]
|$pdata$merge_next| DCD imagerel |$LN3|
	DCD	0x800011
	;Flags[SingleProEpi] functionLength[16] RegF[0] RegI[0] H[0] frameChainReturn[UnChained] frameSize[16]
|$pdata$merge_prev| DCD imagerel |$LN3|
	DCD	0x800011
	;Flags[SingleProEpi] functionLength[16] RegF[0] RegI[0] H[0] frameChainReturn[UnChained] frameSize[16]

	AREA	|.data|, DATA
|$SG2854| DCB	"[au_request_page]: last_core_address : %x ", 0xd, 0xa, 0x0
	%	3
|$SG2856| DCB	"[au_request_page]: freeing up page because page < 0 ", 0xd
	DCB	0xa, 0x0
	%	1
|$SG2858| DCB	"Request page not aligned to page boundary ", 0xd, 0xa, 0x0
	%	3
|$SG2865| DCB	"[au_free_page]: num_pages: %d, ptr : %x ", 0xd, 0xa, 0x0
; Function compile flags: /Odtpy
; File C:\Users\paras\source\repos\grep-name\XenevaOS\KernelAA64\Mm\kmalloc.c

	AREA	|.text$mn|, CODE, ARM64

|merge_prev| PROC

; 324  : void merge_prev(meta_data_t* meta) {

|$LN3|
	sub         sp,sp,#0x10
	str         x0,[sp]
	add         sp,sp,#0x10
	ret

	ENDP  ; |merge_prev|

; Function compile flags: /Odtpy
; File C:\Users\paras\source\repos\grep-name\XenevaOS\KernelAA64\Mm\kmalloc.c

	AREA	|.text$mn|, CODE, ARM64

|merge_next| PROC

; 286  : void merge_next(meta_data_t* meta) {

|$LN3|
	sub         sp,sp,#0x10
	str         x0,[sp]
	add         sp,sp,#0x10
	ret

	ENDP  ; |merge_next|

; Function compile flags: /Odtpy
; File C:\Users\paras\source\repos\grep-name\XenevaOS\KernelAA64\Mm\kmalloc.c

	AREA	|.text$mn|, CODE, ARM64

|au_expand_kmalloc| PROC

; 167  : void au_expand_kmalloc(size_t req_size) {

|$LN3|
	sub         sp,sp,#0x10
	str         x0,[sp]
	add         sp,sp,#0x10
	ret

	ENDP  ; |au_expand_kmalloc|

; Function compile flags: /Odtpy
; File C:\Users\paras\source\repos\grep-name\XenevaOS\KernelAA64\Mm\kmalloc.c

	AREA	|.text$mn|, CODE, ARM64

|au_split_block| PROC

; 114  : int au_split_block(meta_data_t* splitable, size_t req_size) {

|$LN3|
	sub         sp,sp,#0x10
	str         x0,[sp]
	str         x1,[sp,#8]

; 115  : #if defined(_USE_CUSTOM_MALLOC) 
; 116  : 	uint8_t* meta_block_a = (uint8_t*)splitable;
; 117  : 	size_t size = splitable->size - req_size - sizeof(meta_data_t);
; 118  : 
; 119  : 
; 120  : 	if (size <= sizeof(meta_data_t))
; 121  : 		return 1;
; 122  : 
; 123  : 
; 124  : 	uint8_t* new_block = (uint8_t*)((size_t)splitable + sizeof(meta_data_t) + req_size);
; 125  : 
; 126  : 
; 127  : 	meta_data_t* new_block_m = (meta_data_t*)new_block;
; 128  : 
; 129  : 	uint64_t new_block_pos = (uint64_t)new_block;
; 130  : 
; 131  : 	if ((new_block_pos) >= last_mark) {
; 132  : 		SeTextOut("Aramse last mark \r\n");
; 133  : 		//for (;;);
; 134  : 		return 0;
; 135  : 	}
; 136  : 
; 137  : 	if ((new_block_pos + sizeof(meta_data_t)) >= last_mark) {
; 138  : 		SeTextOut("Aramse Last mark \r\n");
; 139  : 		return 0;
; 140  : 	}
; 141  : 
; 142  : 	new_block_m->magic = MAGIC_FREE;
; 143  : 	new_block_m->prev = splitable;
; 144  : 	new_block_m->next = splitable->next;
; 145  : 	if (new_block_m->next != NULL)
; 146  : 		new_block_m->next->prev = new_block_m;
; 147  : 
; 148  : 
; 149  : 	new_block_m->size = size;
; 150  : 
; 151  : 
; 152  : 	splitable->size = req_size;
; 153  : 	splitable->next = new_block_m;
; 154  : 
; 155  : 
; 156  : 	if (last_block == splitable)
; 157  : 		last_block = new_block_m;
; 158  : #endif
; 159  : 
; 160  : 	return 1;

	mov         w0,#1
	add         sp,sp,#0x10
	ret

	ENDP  ; |au_split_block|

; Function compile flags: /Odtpy
; File C:\Users\paras\source\repos\grep-name\XenevaOS\KernelAA64\Mm\kmalloc.c

	AREA	|.text$mn|, CODE, ARM64

|align24| PROC

; 101  : size_t align24(size_t val) {

|$LN5|
	sub         sp,sp,#0x10
	str         x0,[sp]

; 102  : 	size_t alignment = 8;

	mov         x8,#8
	str         x8,[sp,#8]

; 103  : 	if (val & (alignment - 1)) {

	ldr         x8,[sp,#8]
	sub         x9,x8,#1
	ldr         x8,[sp]
	and         x8,x8,x9
	cmp         x8,#0
	beq         |$LN2@align24|

; 104  : 		return (val | alignment - 1) + 1;

	ldr         x8,[sp,#8]
	sub         x9,x8,#1
	ldr         x8,[sp]
	orr         x8,x8,x9
	add         x0,x8,#1
	b           |$LN1@align24|

; 105  : 	}

	b           |$LN3@align24|
|$LN2@align24|

; 106  : 	else {
; 107  : 		return val;

	ldr         x0,[sp]
|$LN3@align24|
|$LN1@align24|
	add         sp,sp,#0x10
	ret

	ENDP  ; |align24|

; Function compile flags: /Odtpy
; File C:\Users\paras\source\repos\grep-name\XenevaOS\KernelAA64\Mm\kmalloc.c

	AREA	|.text$mn|, CODE, ARM64

|next_power_of_two| PROC

; 94   : int next_power_of_two(unsigned int val) {

|$LN6|
	sub         sp,sp,#0x10
	str         w0,[sp]

; 95   : 	int i = 0;

	mov         w8,#0
	str         w8,[sp,#4]

; 96   : 	for (--val; val > 0; val >>= 1)

	ldr         w8,[sp]
	sub         w8,w8,#1
	str         w8,[sp]
	b           |$LN4@next_power|
|$LN2@next_power|
	ldr         w8,[sp]
	lsr         w8,w8,#1
	str         w8,[sp]
|$LN4@next_power|
	ldr         w8,[sp]
	cmp         w8,#0
	bls         |$LN3@next_power|

; 97   : 		i++;

	ldr         w8,[sp,#4]
	add         w8,w8,#1
	str         w8,[sp,#4]
	b           |$LN2@next_power|
|$LN3@next_power|

; 98   : 	return 1 << i;

	mov         w9,#1
	ldr         w8,[sp,#4]
	lsl         w0,w9,w8
	mov         w0,w0
	add         sp,sp,#0x10
	ret

	ENDP  ; |next_power_of_two|

; Function compile flags: /Odtpy
; File C:\Users\paras\source\repos\grep-name\XenevaOS\KernelAA64\Mm\kmalloc.c

	AREA	|.text$mn|, CODE, ARM64

|au_request_page| PROC

; 438  : void* au_request_page(int pages) {

|$LN12|
	str         lr,[sp,#-0x10]!
	sub         sp,sp,#0x20
	str         w0,[sp]

; 439  : #ifdef _USE_DLMALLOC
; 440  : 	if (pages == 0) {

	ldr         w8,[sp]
	cmp         w8,#0
	bne         |$LN8@au_request|

; 441  : 		UARTDebugOut("[au_request_page]: last_core_address : %x \r\n", _brk_current);

	adrp        x8,_brk_current
	ldr         x1,[x8,PageOffset(_brk_current)]
	adrp        x8,|$SG2854|
	add         x0,x8,PageOffset(|$SG2854|)
	bl          UARTDebugOut

; 442  : 		return (void*)_brk_current;

	adrp        x8,_brk_current
	ldr         x0,[x8,PageOffset(_brk_current)]
	b           |$LN1@au_request|
|$LN8@au_request|

; 443  : 	}
; 444  : 
; 445  : 	if (pages < 0) {

	ldr         w8,[sp]
	cmp         w8,#0
	bge         |$LN9@au_request|

; 446  : 		UARTDebugOut("[au_request_page]: freeing up page because page < 0 \r\n");

	adrp        x8,|$SG2856|
	add         x0,x8,PageOffset(|$SG2856|)
	bl          UARTDebugOut
|$LN9@au_request|

; 447  : 	}
; 448  : #endif
; 449  : 
; 450  : 	uint64_t page_ = 0;

	mov         x8,#0
	str         x8,[sp,#8]

; 451  : #if !defined (_USE_DLMALLOC)
; 452  : 	uint64_t* page = AuGetFreePage(0, false);
; 453  : 	page_ = (uint64_t)page;
; 454  : #else
; 455  : 	page_ = _brk_current;

	adrp        x8,_brk_current
	ldr         x8,[x8,PageOffset(_brk_current)]
	str         x8,[sp,#8]

; 456  : #endif
; 457  : 	
; 458  : #ifdef _USE_DLMALLOC
; 459  : 	//UARTDebugOut("[au_request_page]: num_pages : %d, ptr : %x \r\n", pages, page_);
; 460  : 	pages = (pages + 4095) / 4096;

	ldr         w8,[sp]
	add         w9,w8,#0xFFF
	mov         w8,#0x1000
	sdiv        w8,w9,w8
	str         w8,[sp]

; 461  : #endif
; 462  : 	for (size_t i = 0; i < pages; i++) {

	mov         x8,#0
	str         x8,[sp,#0x10]
	b           |$LN4@au_request|
|$LN2@au_request|
	ldr         x8,[sp,#0x10]
	add         x8,x8,#1
	str         x8,[sp,#0x10]
|$LN4@au_request|
	ldr         w8,[sp]
	sxtw        x9,w8
	ldr         x8,[sp,#0x10]
	cmp         x8,x9
	bhs         |$LN3@au_request|

; 463  : 		void* p = AuPmmngrAlloc();

	bl          AuPmmngrAlloc
	str         x0,[sp,#0x18]

; 464  : 		AuMapPage((uint64_t)p, page_ + i * 4096, PTE_NORMAL_MEM);

	ldr         x9,[sp,#0x10]
	mov         x8,#0x1000
	mul         x9,x9,x8
	ldr         x8,[sp,#8]
	add         x1,x8,x9
	mov         w2,#4
	ldr         x0,[sp,#0x18]
	bl          AuMapPage

; 465  : 	}

	b           |$LN2@au_request|
|$LN3@au_request|

; 466  : 
; 467  : 	if ((page_ % PAGE_SIZE) != 0) {

	ldr         x10,[sp,#8]
	mov         x9,#0x1000
	udiv        x8,x10,x9
	mul         x8,x8,x9
	sub         x8,x10,x8
	cmp         x8,#0
	beq         |$LN10@au_request|

; 468  : 		UARTDebugOut("Request page not aligned to page boundary \r\n");

	adrp        x8,|$SG2858|
	add         x0,x8,PageOffset(|$SG2858|)
	bl          UARTDebugOut
|$LN5@au_request|

; 469  : 		for (;;);

	b           |$LN5@au_request|
|$LN10@au_request|

; 470  : 	}
; 471  : 
; 472  : #ifdef _USE_DLMALLOC
; 473  : 	_last_morecore_addr = (uint64_t)page_ + pages * PAGE_SIZE;

	ldr         w8,[sp]
	sxtw        x9,w8
	mov         x8,#0x1000
	mul         x9,x9,x8
	ldr         x8,[sp,#8]
	add         x9,x8,x9
	adrp        x8,_last_morecore_addr
	str         x9,[x8,PageOffset(_last_morecore_addr)]

; 474  : 	_brk_current += pages * PAGE_SIZE;

	ldr         w8,[sp]
	sxtw        x9,w8
	mov         x8,#0x1000
	mul         x9,x9,x8
	adrp        x8,_brk_current
	ldr         x8,[x8,PageOffset(_brk_current)]
	add         x9,x8,x9
	adrp        x8,_brk_current
	str         x9,[x8,PageOffset(_brk_current)]

; 475  : #endif
; 476  : 	return (void*)page_;

	ldr         x0,[sp,#8]
|$LN1@au_request|
	add         sp,sp,#0x20
	ldr         lr,[sp],#0x10
	ret

	ENDP  ; |au_request_page|

; Function compile flags: /Odtpy
; File C:\Users\paras\source\repos\grep-name\XenevaOS\KernelAA64\Mm\kmalloc.c

	AREA	|.text$mn|, CODE, ARM64

|au_free_page| PROC

; 485  : int au_free_page(void* ptr, int pages) {

|$LN3|
	str         lr,[sp,#-0x10]!
	sub         sp,sp,#0x10
	str         x0,[sp,#8]
	str         w1,[sp]

; 486  : #ifdef _USE_DLMALLOC
; 487  : 	pages = (pages + 4095) / 4096;

	ldr         w8,[sp]
	add         w9,w8,#0xFFF
	mov         w8,#0x1000
	sdiv        w8,w9,w8
	str         w8,[sp]

; 488  : #endif
; 489  : 	UARTDebugOut("[au_free_page]: num_pages: %d, ptr : %x \r\n", pages, ptr);

	ldr         x2,[sp,#8]
	ldr         w1,[sp]
	adrp        x8,|$SG2865|
	add         x0,x8,PageOffset(|$SG2865|)
	bl          UARTDebugOut

; 490  : 	AuFreePages((uint64_t)ptr, true, pages);

	ldr         w8,[sp]
	sxtw        x2,w8
	mov         w1,#1
	ldr         x0,[sp,#8]
	bl          AuFreePages

; 491  : 	return 0;

	mov         w0,#0
	add         sp,sp,#0x10
	ldr         lr,[sp],#0x10
	ret

	ENDP  ; |au_free_page|

; Function compile flags: /Odtpy
; File C:\Users\paras\source\repos\grep-name\XenevaOS\KernelAA64\Mm\kmalloc.c

	AREA	|.text$mn|, CODE, ARM64

|kmalloc_debug_on| PROC

; 495  : void kmalloc_debug_on(bool bit) {

|$LN3|
	sub         sp,sp,#0x10
	uxtb        w8,w0
	strb        w8,[sp]
	add         sp,sp,#0x10
	ret

	ENDP  ; |kmalloc_debug_on|

; Function compile flags: /Odtpy
; File C:\Users\paras\source\repos\grep-name\XenevaOS\KernelAA64\Mm\kmalloc.c

	AREA	|.text$mn|, CODE, ARM64

|kheap_debug| PROC

; 273  : void kheap_debug() {

	ret

	ENDP  ; |kheap_debug|

; Function compile flags: /Odtpy
; File C:\Users\paras\source\repos\grep-name\XenevaOS\KernelAA64\Mm\kmalloc.c

	AREA	|.text$mn|, CODE, ARM64

|kfree|	PROC

; 365  : void kfree(void* ptr) {

|$LN3|
	str         lr,[sp,#-0x10]!
	sub         sp,sp,#0x10
	str         x0,[sp]

; 366  : #ifdef _USE_LIBALLOC
; 367  : 	return port_free(ptr);
; 368  : #elif _USE_DLMALLOC
; 369  : 	return dlfree(ptr);

	ldr         x0,[sp]
	bl          dlfree
	add         sp,sp,#0x10
	ldr         lr,[sp],#0x10
	ret

	ENDP  ; |kfree|

; Function compile flags: /Odtpy
; File C:\Users\paras\source\repos\grep-name\XenevaOS\KernelAA64\Mm\kmalloc.c

	AREA	|.text$mn|, CODE, ARM64

|kcalloc| PROC

; 420  : void* kcalloc(size_t n_item, size_t size) {

|$LN3|
	str         lr,[sp,#-0x10]!
	sub         sp,sp,#0x10
	str         x0,[sp,#8]
	str         x1,[sp]

; 421  : #ifdef _USE_LIBALLOC
; 422  : 	return port_calloc(n_item, size);
; 423  : #elif _USE_DLMALLOC
; 424  : 	return dlcalloc(n_item, size);

	ldr         x1,[sp]
	ldr         x0,[sp,#8]
	bl          dlcalloc
	add         sp,sp,#0x10
	ldr         lr,[sp],#0x10
	ret

	ENDP  ; |kcalloc|

; Function compile flags: /Odtpy
; File C:\Users\paras\source\repos\grep-name\XenevaOS\KernelAA64\Mm\kmalloc.c

	AREA	|.text$mn|, CODE, ARM64

|krealloc| PROC

; 396  : void* krealloc(void* ptr, unsigned int new_size) {

|$LN3|
	str         lr,[sp,#-0x10]!
	sub         sp,sp,#0x10
	str         x0,[sp,#8]
	str         w1,[sp]

; 397  : #ifdef _USE_LIBALLOC 
; 398  : 	return port_realloc(ptr, new_size);
; 399  : #elif _USE_DLMALLOC
; 400  : 	return dlrealloc(ptr, new_size);

	ldr         w8,[sp]
	uxtw        x1,w8
	ldr         x0,[sp,#8]
	bl          dlrealloc
	add         sp,sp,#0x10
	ldr         lr,[sp],#0x10
	ret

	ENDP  ; |krealloc|

; Function compile flags: /Odtpy
; File C:\Users\paras\source\repos\grep-name\XenevaOS\KernelAA64\Mm\kmalloc.c

	AREA	|.text$mn|, CODE, ARM64

|kmalloc| PROC

; 219  : void* kmalloc(unsigned int size) {

|$LN3|
	str         lr,[sp,#-0x10]!
	sub         sp,sp,#0x10
	str         w0,[sp]

; 220  : #ifdef _USE_LIBALLOC
; 221  : 	return port_malloc(size);
; 222  : #elif _USE_DLMALLOC
; 223  : 	return dlmalloc(size);

	ldr         w8,[sp]
	uxtw        x0,w8
	bl          dlmalloc
	add         sp,sp,#0x10
	ldr         lr,[sp],#0x10
	ret

	ENDP  ; |kmalloc|

; Function compile flags: /Odtpy
; File C:\Users\paras\source\repos\grep-name\XenevaOS\KernelAA64\Mm\kmalloc.c

	AREA	|.text$mn|, CODE, ARM64

|AuHeapInitialize| PROC

; 64   : #if defined(_USE_CUSTOM_MALLOC) 
; 65   : 	last_block = NULL;
; 66   : 	first_block = NULL;
; 67   : 	last_mark = 0;
; 68   : 	_debug_on = false;
; 69   : 	void* page = au_request_page(1);
; 70   : 	memset(page, 0, (1 * 4096));
; 71   : 	/* setup the first meta data block */
; 72   : 	uint8_t* desc_addr = (uint8_t*)page;
; 73   : 	meta_data_t* meta = (meta_data_t*)desc_addr;
; 74   : 	meta->next = NULL;
; 75   : 	meta->prev = NULL;
; 76   : 	meta->magic = MAGIC_FREE;
; 77   : 
; 78   : 	/* meta->size holds only the usable area size for user */
; 79   : 	meta->size = (1 * 4096) - sizeof(meta_data_t);
; 80   : 	first_block = meta;
; 81   : 	last_block = meta;
; 82   : 
; 83   : 	last_mark = ((uint64_t)page + (meta->size + sizeof(meta_data_t)));
; 84   : #endif
; 85   : 	_last_morecore_addr = 0;

	adrp        x9,_last_morecore_addr
	mov         x8,#0
	str         x8,[x9,PageOffset(_last_morecore_addr)]

; 86   : 	_brk_current = KERNEL_BASE_ADDRESS;

	adrp        x9,_brk_current
	mov         x8,#-0x200000000000
	str         x8,[x9,PageOffset(_brk_current)]
	ret

	ENDP  ; |AuHeapInitialize|

	END
