; Listing generated by Microsoft (R) Optimizing Compiler Version 19.29.30159.0 

	TTL	C:\Users\paras\source\repos\grep-name\XenevaOS\KernelAA64\ARM64\Debug\liballoc.obj
	ARM64

	AREA	|.drectve|, DRECTVE


	AREA	|.data|, DATA
	 COMMON	|l_freePages|, 0x100

	 COMMON	|l_completePages|, 0x80

	EXPORT	|liballoc_lock|
	EXPORT	|liballoc_unlock|
	EXPORT	|liballoc_alloc|
	EXPORT	|liballoc_free|
	EXPORT	|port_malloc|
	EXPORT	|port_realloc|
	EXPORT	|port_calloc|
	EXPORT	|port_free|
	IMPORT	|memset|
	IMPORT	|AuPmmngrAlloc|
	IMPORT	|AuMapPage|
	IMPORT	|AuGetFreePage|
	IMPORT	|dsb_ish|
	IMPORT	|dmb_ish|
	IMPORT	|dmb_sy|
	IMPORT	|dsb_sy_barrier|
	IMPORT	|isb_flush|
	IMPORT	|UARTDebugOut|

	AREA	|.bss|, NOINIT
|l_initialized| % 0x4

	AREA	|.pdata|, PDATA
|$pdata$liballoc_alloc| DCD imagerel |$LN10|
	DCD	0x22000e9
	;Flags[SingleProEpi] functionLength[232] RegF[0] RegI[0] H[0] frameChainReturn[UnChainedSavedLR] frameSize[64]
|$pdata$liballoc_free| DCD imagerel |$LN3|
	DCD	0x1200031
	;Flags[SingleProEpi] functionLength[48] RegF[0] RegI[0] H[0] frameChainReturn[UnChainedSavedLR] frameSize[32]
|$pdata$port_malloc| DCD imagerel |$LN17|
	DCD	0x22002ad
	;Flags[SingleProEpi] functionLength[684] RegF[0] RegI[0] H[0] frameChainReturn[UnChainedSavedLR] frameSize[64]
|$pdata$port_realloc| DCD imagerel |$LN8|
	DCD	0x1a000d9
	;Flags[SingleProEpi] functionLength[216] RegF[0] RegI[0] H[0] frameChainReturn[UnChainedSavedLR] frameSize[48]
|$pdata$port_calloc| DCD imagerel |$LN3|
	DCD	0x1a00055
	;Flags[SingleProEpi] functionLength[84] RegF[0] RegI[0] H[0] frameChainReturn[UnChainedSavedLR] frameSize[48]
|$pdata$port_free| DCD imagerel |$LN18|
	DCD	0x1a00271
	;Flags[SingleProEpi] functionLength[624] RegF[0] RegI[0] H[0] frameChainReturn[UnChainedSavedLR] frameSize[48]

	AREA	|.pdata|, PDATA
|$pdata$getexp| DCD imagerel |getexp|
	DCD	0x800071
	;Flags[SingleProEpi] functionLength[112] RegF[0] RegI[0] H[0] frameChainReturn[UnChained] frameSize[16]

	AREA	|.pdata|, PDATA
|$pdata$liballoc_memset| DCD imagerel |liballoc_memset|
	DCD	0x1000071
	;Flags[SingleProEpi] functionLength[112] RegF[0] RegI[0] H[0] frameChainReturn[UnChained] frameSize[32]
|$pdata$liballoc_memcpy| DCD imagerel |liballoc_memcpy|
	DCD	0x20000c5
	;Flags[SingleProEpi] functionLength[196] RegF[0] RegI[0] H[0] frameChainReturn[UnChained] frameSize[64]
|$pdata$insert_tag| DCD imagerel |insert_tag|
	DCD	0x120013d
	;Flags[SingleProEpi] functionLength[316] RegF[0] RegI[0] H[0] frameChainReturn[UnChainedSavedLR] frameSize[32]
|$pdata$remove_tag| DCD imagerel |remove_tag|
	DCD	0x1200129
	;Flags[SingleProEpi] functionLength[296] RegF[0] RegI[0] H[0] frameChainReturn[UnChainedSavedLR] frameSize[32]
|$pdata$melt_left| DCD imagerel |melt_left|
	DCD	0x12000b9
	;Flags[SingleProEpi] functionLength[184] RegF[0] RegI[0] H[0] frameChainReturn[UnChainedSavedLR] frameSize[32]
|$pdata$absorb_right| DCD imagerel |absorb_right|
	DCD	0x12000c1
	;Flags[SingleProEpi] functionLength[192] RegF[0] RegI[0] H[0] frameChainReturn[UnChainedSavedLR] frameSize[32]
|$pdata$split_tag| DCD imagerel |split_tag|
	DCD	0x1a00179
	;Flags[SingleProEpi] functionLength[376] RegF[0] RegI[0] H[0] frameChainReturn[UnChainedSavedLR] frameSize[48]
|$pdata$allocate_new_tag| DCD imagerel |allocate_new_tag|
	DCD	0x1a00169
	;Flags[SingleProEpi] functionLength[360] RegF[0] RegI[0] H[0] frameChainReturn[UnChainedSavedLR] frameSize[48]

	AREA	|.data|, DATA
|l_pageSize| DCD 0x1000
|l_pageCount| DCD 0x1
|$SG3020| DCB	"liballoc:free: unaligned pointer returning ", 0xa, 0x0
	%	3
|$SG3022| DCB	"liballoc:free: tag unaligned returning ", 0xa, 0x0
	%	7
|$SG3076| DCB	"Liballoc free: %d ", 0xa, 0x0
; Function compile flags: /Odtpy
; File C:\Users\paras\source\repos\grep-name\XenevaOS\KernelAA64\Mm\liballoc.c

	AREA	|.text$mn|, CODE, ARM64

|allocate_new_tag| PROC

; 314  : {

	str         lr,[sp,#-0x10]!
	sub         sp,sp,#0x20
	str         w0,[sp,#4]

; 315  : 	size = (size + 0xF) & ~0xF;

	ldr         w8,[sp,#4]
	add         w8,w8,#0xF
	and         w8,w8,#0xFFFFFFF0
	str         w8,[sp,#4]

; 316  : 
; 317  : 	unsigned int pages;
; 318  : 	unsigned int usage;
; 319  : 	struct boundary_tag* tag;
; 320  : 
; 321  : 	// This is how much space is required.
; 322  : 	usage = size + sizeof(struct boundary_tag);

	ldr         w8,[sp,#4]
	uxtw        x8,w8
	add         x8,x8,#0x30
	mov         w8,w8
	str         w8,[sp,#8]

; 323  : 
; 324  : 	// Perfect amount of space
; 325  : 	pages = usage / l_pageSize;

	ldr         w9,[sp,#8]
	adrp        x8,l_pageSize
	ldr         w8,[x8,PageOffset(l_pageSize)]
	cbnz        w8,|$LN6@allocate_n|
	brk         #0xF004
|$LN6@allocate_n|
	udiv        w8,w9,w8
	str         w8,[sp]

; 326  : 	if ((usage % l_pageSize) != 0) pages += 1;

	ldr         w10,[sp,#8]
	adrp        x8,l_pageSize
	ldr         w9,[x8,PageOffset(l_pageSize)]
	cbnz        w9,|$LN7@allocate_n|
	brk         #0xF004
|$LN7@allocate_n|
	udiv        w8,w10,w9
	mul         w8,w8,w9
	sub         w8,w10,w8
	cmp         w8,#0
	beq         |$LN2@allocate_n|
	ldr         w8,[sp]
	add         w8,w8,#1
	str         w8,[sp]
|$LN2@allocate_n|

; 327  : 
; 328  : 	// Make sure it's >= the minimum size.
; 329  : 	if (pages < l_pageCount) pages = l_pageCount;

	adrp        x8,l_pageCount
	ldr         w9,[x8,PageOffset(l_pageCount)]
	ldr         w8,[sp]
	cmp         w8,w9
	bhs         |$LN3@allocate_n|
	adrp        x8,l_pageCount
	ldr         w8,[x8,PageOffset(l_pageCount)]
	str         w8,[sp]
|$LN3@allocate_n|

; 330  : 	/*if (isSyscall())
; 331  : 		UARTDebugOut("allocate_new_tag calling liballoc_alloc \n");*/
; 332  : 	tag = (struct boundary_tag*)liballoc_alloc(pages);

	ldr         w0,[sp]
	bl          liballoc_alloc
	str         x0,[sp,#0x10]

; 333  : 
; 334  : 	/*if (isSyscall()) {
; 335  : 		UARTDebugOut("isSyscall() allocate_new_tag \n");
; 336  : 		return;
; 337  : 	}*/
; 338  : 
; 339  : 	if (tag == NULL) return NULL;	// uh oh, we ran out of memory.

	ldr         x8,[sp,#0x10]
	cmp         x8,#0
	bne         |$LN4@allocate_n|
	mov         x0,#0
	b           |$LN1@allocate_n|
|$LN4@allocate_n|

; 340  : 
; 341  : 	tag->magic = LIBALLOC_MAGIC;

	ldr         x9,[sp,#0x10]
	ldr         w8,|$LN8@allocate_n|
	str         w8,[x9]

; 342  : 	tag->size = size;

	ldr         x8,[sp,#0x10]
	add         x9,x8,#4
	ldr         w8,[sp,#4]
	str         w8,[x9]

; 343  : 	tag->real_size = pages * l_pageSize;

	ldr         w9,[sp]
	adrp        x8,l_pageSize
	ldr         w8,[x8,PageOffset(l_pageSize)]
	mul         w9,w9,w8
	ldr         x8,[sp,#0x10]
	add         x8,x8,#8
	str         w9,[x8]

; 344  : 	tag->index = -1;

	ldr         x8,[sp,#0x10]
	add         x9,x8,#0xC
	mov         w8,#-1
	str         w8,[x9]

; 345  : 
; 346  : 	tag->next = NULL;

	ldr         x8,[sp,#0x10]
	add         x9,x8,#0x20
	mov         x8,#0
	str         x8,[x9]

; 347  : 	tag->prev = NULL;

	ldr         x8,[sp,#0x10]
	add         x9,x8,#0x28
	mov         x8,#0
	str         x8,[x9]

; 348  : 	tag->split_left = NULL;

	ldr         x8,[sp,#0x10]
	add         x9,x8,#0x10
	mov         x8,#0
	str         x8,[x9]

; 349  : 	tag->split_right = NULL;

	ldr         x8,[sp,#0x10]
	add         x9,x8,#0x18
	mov         x8,#0
	str         x8,[x9]

; 350  : 
; 351  : 
; 352  : #ifdef DEBUG
; 353  : 	printf("Resource allocated %x of %i pages (%i bytes) for %i size.\n", tag, pages, pages * l_pageSize, size);
; 354  : 
; 355  : 	l_allocated += pages * l_pageSize;
; 356  : 
; 357  : 	printf("Total memory usage = %i KB\n", (int)((l_allocated / (1024))));
; 358  : #endif
; 359  : 
; 360  : 	dmb_sy();

	bl          dmb_sy

; 361  : 	dmb_ish();

	bl          dmb_ish

; 362  : 	dsb_sy_barrier();

	bl          dsb_sy_barrier

; 363  : 	dsb_ish();

	bl          dsb_ish

; 364  : 
; 365  : 	return tag;

	ldr         x0,[sp,#0x10]
|$LN1@allocate_n|
	add         sp,sp,#0x20
	ldr         lr,[sp],#0x10
	ret
|$LN8@allocate_n|
	DCD         0xc001c0de

	ENDP  ; |allocate_new_tag|

; Function compile flags: /Odtpy
; File C:\Users\paras\source\repos\grep-name\XenevaOS\KernelAA64\Mm\liballoc.c

	AREA	|.text$mn|, CODE, ARM64

|split_tag| PROC

; 272  : {

	str         lr,[sp,#-0x10]!
	sub         sp,sp,#0x20
	str         x0,[sp,#0x10]

; 273  : 	unsigned int alignedSz = (tag->size + 7) & ~7;

	ldr         x8,[sp,#0x10]
	add         x8,x8,#4
	ldr         w8,[x8]
	add         w8,w8,#7
	and         w8,w8,#0xFFFFFFF8
	str         w8,[sp]

; 274  : 	unsigned int remainder = tag->real_size - sizeof(struct boundary_tag) - alignedSz;

	ldr         x8,[sp,#0x10]
	add         x8,x8,#8
	ldr         w8,[x8]
	uxtw        x8,w8
	sub         x9,x8,#0x30
	ldr         w8,[sp]
	uxtw        x8,w8
	sub         x8,x9,x8
	mov         w8,w8
	str         w8,[sp,#4]

; 275  : 
; 276  : 	size_t new_tag_addr = (size_t)tag + sizeof(struct boundary_tag) + alignedSz;

	ldr         x8,[sp,#0x10]
	add         x9,x8,#0x30
	ldr         w8,[sp]
	uxtw        x8,w8
	add         x8,x9,x8
	str         x8,[sp,#0x18]

; 277  : 	new_tag_addr = (new_tag_addr + 7) & ~7;

	ldr         x8,[sp,#0x18]
	add         x8,x8,#7
	and         x8,x8,#-8
	str         x8,[sp,#0x18]

; 278  : 	struct boundary_tag* new_tag = (struct boundary_tag*)new_tag_addr;

	ldr         x8,[sp,#0x18]
	str         x8,[sp,#8]

; 279  : 
; 280  : 		//(struct boundary_tag*)((size_t)tag + sizeof(struct boundary_tag) + tag->size);
; 281  : 	new_tag->magic = LIBALLOC_MAGIC;

	ldr         x9,[sp,#8]
	ldr         w8,|$LN4@split_tag|
	str         w8,[x9]

; 282  : 	new_tag->real_size = remainder;

	ldr         x8,[sp,#8]
	add         x9,x8,#8
	ldr         w8,[sp,#4]
	str         w8,[x9]

; 283  : 
; 284  : 	new_tag->next = NULL;

	ldr         x8,[sp,#8]
	add         x9,x8,#0x20
	mov         x8,#0
	str         x8,[x9]

; 285  : 	new_tag->prev = NULL;

	ldr         x8,[sp,#8]
	add         x9,x8,#0x28
	mov         x8,#0
	str         x8,[x9]

; 286  : 
; 287  : 	new_tag->split_left = tag;

	ldr         x8,[sp,#8]
	add         x9,x8,#0x10
	ldr         x8,[sp,#0x10]
	str         x8,[x9]

; 288  : 	new_tag->split_right = tag->split_right;

	ldr         x8,[sp,#0x10]
	add         x10,x8,#0x18
	ldr         x8,[sp,#8]
	add         x9,x8,#0x18
	ldr         x8,[x10]
	str         x8,[x9]

; 289  : 
; 290  : 	dmb_sy();

	bl          dmb_sy

; 291  : 	dsb_sy_barrier();

	bl          dsb_sy_barrier

; 292  : 	dsb_ish();

	bl          dsb_ish

; 293  : 
; 294  : 	if (new_tag->split_right != NULL) new_tag->split_right->split_left = new_tag;

	ldr         x8,[sp,#8]
	add         x8,x8,#0x18
	ldr         x8,[x8]
	cmp         x8,#0
	beq         |$LN2@split_tag|
	ldr         x8,[sp,#8]
	add         x8,x8,#0x18
	ldr         x8,[x8]
	add         x9,x8,#0x10
	ldr         x8,[sp,#8]
	str         x8,[x9]
|$LN2@split_tag|

; 295  : 	tag->split_right = new_tag;

	ldr         x8,[sp,#0x10]
	add         x9,x8,#0x18
	ldr         x8,[sp,#8]
	str         x8,[x9]

; 296  : 
; 297  : 	tag->real_size -= new_tag->real_size;

	ldr         x8,[sp,#0x10]
	add         x9,x8,#8
	ldr         x8,[sp,#8]
	add         x8,x8,#8
	ldr         w9,[x9]
	ldr         w8,[x8]
	sub         w9,w9,w8
	ldr         x8,[sp,#0x10]
	add         x8,x8,#8
	str         w9,[x8]

; 298  : 
; 299  : 	dmb_sy();

	bl          dmb_sy

; 300  : 	dsb_sy_barrier();

	bl          dsb_sy_barrier

; 301  : 	dsb_ish();

	bl          dsb_ish

; 302  : 
; 303  : 	insert_tag(new_tag, -1);

	mov         w1,#-1
	ldr         x0,[sp,#8]
	bl          insert_tag

; 304  : 	return new_tag;

	ldr         x0,[sp,#8]
	add         sp,sp,#0x20
	ldr         lr,[sp],#0x10
	ret
|$LN4@split_tag|
	DCD         0xc001c0de

	ENDP  ; |split_tag|

; Function compile flags: /Odtpy
; File C:\Users\paras\source\repos\grep-name\XenevaOS\KernelAA64\Mm\liballoc.c

	AREA	|.text$mn|, CODE, ARM64

|absorb_right| PROC

; 247  : {

	str         lr,[sp,#-0x10]!
	sub         sp,sp,#0x10
	str         x0,[sp]

; 248  : 	struct boundary_tag* right = tag->split_right;

	ldr         x8,[sp]
	add         x8,x8,#0x18
	ldr         x8,[x8]
	str         x8,[sp,#8]

; 249  : 
; 250  : 	dmb_sy();

	bl          dmb_sy

; 251  : 	dmb_ish();

	bl          dmb_ish

; 252  : 	dsb_sy_barrier();

	bl          dsb_sy_barrier

; 253  : 	dsb_ish();

	bl          dsb_ish

; 254  : 
; 255  : 	remove_tag(right);		// Remove right from free pages.

	ldr         x0,[sp,#8]
	bl          remove_tag

; 256  : 
; 257  : 	tag->real_size += right->real_size;

	ldr         x8,[sp]
	add         x9,x8,#8
	ldr         x8,[sp,#8]
	add         x8,x8,#8
	ldr         w9,[x9]
	ldr         w8,[x8]
	add         w9,w9,w8
	ldr         x8,[sp]
	add         x8,x8,#8
	str         w9,[x8]

; 258  : 
; 259  : 	tag->split_right = right->split_right;

	ldr         x8,[sp,#8]
	add         x10,x8,#0x18
	ldr         x8,[sp]
	add         x9,x8,#0x18
	ldr         x8,[x10]
	str         x8,[x9]

; 260  : 	if (right->split_right != NULL)

	ldr         x8,[sp,#8]
	add         x8,x8,#0x18
	ldr         x8,[x8]
	cmp         x8,#0
	beq         |$LN2@absorb_rig|

; 261  : 		right->split_right->split_left = tag;

	ldr         x8,[sp,#8]
	add         x8,x8,#0x18
	ldr         x8,[x8]
	add         x9,x8,#0x10
	ldr         x8,[sp]
	str         x8,[x9]
|$LN2@absorb_rig|

; 262  : 
; 263  : 	dmb_sy();

	bl          dmb_sy

; 264  : 	dmb_ish();

	bl          dmb_ish

; 265  : 	dsb_sy_barrier();

	bl          dsb_sy_barrier

; 266  : 	dsb_ish();

	bl          dsb_ish

; 267  : 
; 268  : 	return tag;

	ldr         x0,[sp]
	add         sp,sp,#0x10
	ldr         lr,[sp],#0x10
	ret

	ENDP  ; |absorb_right|

; Function compile flags: /Odtpy
; File C:\Users\paras\source\repos\grep-name\XenevaOS\KernelAA64\Mm\liballoc.c

	AREA	|.text$mn|, CODE, ARM64

|melt_left| PROC

; 224  : {

	str         lr,[sp,#-0x10]!
	sub         sp,sp,#0x10
	str         x0,[sp]

; 225  : 	struct boundary_tag* left = tag->split_left;

	ldr         x8,[sp]
	add         x8,x8,#0x10
	ldr         x8,[x8]
	str         x8,[sp,#8]

; 226  : 
; 227  : 	dmb_sy();

	bl          dmb_sy

; 228  : 	dmb_ish();

	bl          dmb_ish

; 229  : 	dsb_sy_barrier();

	bl          dsb_sy_barrier

; 230  : 	dsb_ish();

	bl          dsb_ish

; 231  : 
; 232  : 	left->real_size += tag->real_size;

	ldr         x8,[sp,#8]
	add         x9,x8,#8
	ldr         x8,[sp]
	add         x8,x8,#8
	ldr         w9,[x9]
	ldr         w8,[x8]
	add         w9,w9,w8
	ldr         x8,[sp,#8]
	add         x8,x8,#8
	str         w9,[x8]

; 233  : 	left->split_right = tag->split_right;

	ldr         x8,[sp]
	add         x10,x8,#0x18
	ldr         x8,[sp,#8]
	add         x9,x8,#0x18
	ldr         x8,[x10]
	str         x8,[x9]

; 234  : 
; 235  : 	if (tag->split_right != NULL) tag->split_right->split_left = left;

	ldr         x8,[sp]
	add         x8,x8,#0x18
	ldr         x8,[x8]
	cmp         x8,#0
	beq         |$LN2@melt_left|
	ldr         x8,[sp]
	add         x8,x8,#0x18
	ldr         x8,[x8]
	add         x9,x8,#0x10
	ldr         x8,[sp,#8]
	str         x8,[x9]
|$LN2@melt_left|

; 236  : 
; 237  : 	dmb_sy();

	bl          dmb_sy

; 238  : 	dmb_ish();

	bl          dmb_ish

; 239  : 	dsb_sy_barrier();

	bl          dsb_sy_barrier

; 240  : 	dsb_ish();

	bl          dsb_ish

; 241  : 
; 242  : 	return left;

	ldr         x0,[sp,#8]
	add         sp,sp,#0x10
	ldr         lr,[sp],#0x10
	ret

	ENDP  ; |melt_left|

; Function compile flags: /Odtpy
; File C:\Users\paras\source\repos\grep-name\XenevaOS\KernelAA64\Mm\liballoc.c

	AREA	|.text$mn|, CODE, ARM64

|remove_tag| PROC

; 207  : {

	str         lr,[sp,#-0x10]!
	sub         sp,sp,#0x10
	str         x0,[sp]

; 208  : 	if (l_freePages[tag->index] == tag) l_freePages[tag->index] = tag->next;

	ldr         x8,[sp]
	add         x8,x8,#0xC
	ldr         w8,[x8]
	sxtw        x9,w8
	mov         x8,#8
	mul         x9,x9,x8
	adrp        x8,l_freePages
	add         x8,x8,PageOffset(l_freePages)
	add         x8,x8,x9
	ldr         x9,[sp]
	ldr         x8,[x8]
	cmp         x8,x9
	bne         |$LN2@remove_tag|
	ldr         x8,[sp]
	add         x10,x8,#0x20
	ldr         x8,[sp]
	add         x8,x8,#0xC
	ldr         w8,[x8]
	sxtw        x9,w8
	mov         x8,#8
	mul         x9,x9,x8
	adrp        x8,l_freePages
	add         x8,x8,PageOffset(l_freePages)
	add         x9,x8,x9
	ldr         x8,[x10]
	str         x8,[x9]
|$LN2@remove_tag|

; 209  : 
; 210  : 	if (tag->prev != NULL) tag->prev->next = tag->next;

	ldr         x8,[sp]
	add         x8,x8,#0x28
	ldr         x8,[x8]
	cmp         x8,#0
	beq         |$LN3@remove_tag|
	ldr         x8,[sp]
	add         x10,x8,#0x20
	ldr         x8,[sp]
	add         x8,x8,#0x28
	ldr         x8,[x8]
	add         x9,x8,#0x20
	ldr         x8,[x10]
	str         x8,[x9]
|$LN3@remove_tag|

; 211  : 	if (tag->next != NULL) tag->next->prev = tag->prev;

	ldr         x8,[sp]
	add         x8,x8,#0x20
	ldr         x8,[x8]
	cmp         x8,#0
	beq         |$LN4@remove_tag|
	ldr         x8,[sp]
	add         x10,x8,#0x28
	ldr         x8,[sp]
	add         x8,x8,#0x20
	ldr         x8,[x8]
	add         x9,x8,#0x28
	ldr         x8,[x10]
	str         x8,[x9]
|$LN4@remove_tag|

; 212  : 
; 213  : 	tag->next = NULL;

	ldr         x8,[sp]
	add         x9,x8,#0x20
	mov         x8,#0
	str         x8,[x9]

; 214  : 	tag->prev = NULL;

	ldr         x8,[sp]
	add         x9,x8,#0x28
	mov         x8,#0
	str         x8,[x9]

; 215  : 	tag->index = -1;

	ldr         x8,[sp]
	add         x9,x8,#0xC
	mov         w8,#-1
	str         w8,[x9]

; 216  : 	dmb_sy();

	bl          dmb_sy

; 217  : 	dmb_ish();

	bl          dmb_ish

; 218  : 	dsb_sy_barrier();

	bl          dsb_sy_barrier

; 219  : 	dsb_ish();

	bl          dsb_ish
	add         sp,sp,#0x10
	ldr         lr,[sp],#0x10
	ret

	ENDP  ; |remove_tag|

; Function compile flags: /Odtpy
; File C:\Users\paras\source\repos\grep-name\XenevaOS\KernelAA64\Mm\liballoc.c

	AREA	|.text$mn|, CODE, ARM64

|insert_tag| PROC

; 179  : {

	str         lr,[sp,#-0x10]!
	sub         sp,sp,#0x10
	str         x0,[sp,#8]
	str         w1,[sp,#4]

; 180  : 	int realIndex = 0;

	mov         w8,#0
	str         w8,[sp]

; 181  : 
; 182  : 	if (index < 0)

	ldr         w8,[sp,#4]
	cmp         w8,#0
	bge         |$LN2@insert_tag|

; 183  : 	{
; 184  : 		realIndex = getexp(tag->real_size - sizeof(struct boundary_tag));

	ldr         x8,[sp,#8]
	add         x8,x8,#8
	ldr         w8,[x8]
	uxtw        x8,w8
	sub         x8,x8,#0x30
	mov         w0,w8
	mov         w0,w0
	bl          getexp
	mov         w0,w0
	str         w0,[sp]

; 185  : 
; 186  : 		if (realIndex < MINEXP) realIndex = MINEXP;

	ldr         w8,[sp]
	cmp         w8,#8
	bge         |$LN4@insert_tag|
	mov         w8,#8
	str         w8,[sp]
|$LN4@insert_tag|

; 187  : 	}

	b           |$LN3@insert_tag|
|$LN2@insert_tag|

; 188  : 	else
; 189  : 		realIndex = index;

	ldr         w8,[sp,#4]
	str         w8,[sp]
|$LN3@insert_tag|

; 190  : 
; 191  : 	tag->index = realIndex;

	ldr         x8,[sp,#8]
	add         x9,x8,#0xC
	ldr         w8,[sp]
	str         w8,[x9]

; 192  : 
; 193  : 	if (l_freePages[realIndex] != NULL)

	ldr         w8,[sp]
	sxtw        x9,w8
	mov         x8,#8
	mul         x9,x9,x8
	adrp        x8,l_freePages
	add         x8,x8,PageOffset(l_freePages)
	add         x8,x8,x9
	ldr         x8,[x8]
	cmp         x8,#0
	beq         |$LN5@insert_tag|

; 194  : 	{
; 195  : 		l_freePages[realIndex]->prev = tag;

	ldr         w8,[sp]
	sxtw        x9,w8
	mov         x8,#8
	mul         x9,x9,x8
	adrp        x8,l_freePages
	add         x8,x8,PageOffset(l_freePages)
	add         x8,x8,x9
	ldr         x8,[x8]
	add         x9,x8,#0x28
	ldr         x8,[sp,#8]
	str         x8,[x9]

; 196  : 		tag->next = l_freePages[realIndex];

	ldr         w8,[sp]
	sxtw        x9,w8
	mov         x8,#8
	mul         x9,x9,x8
	adrp        x8,l_freePages
	add         x8,x8,PageOffset(l_freePages)
	add         x10,x8,x9
	ldr         x8,[sp,#8]
	add         x9,x8,#0x20
	ldr         x8,[x10]
	str         x8,[x9]
|$LN5@insert_tag|

; 197  : 	}
; 198  : 
; 199  : 	l_freePages[realIndex] = tag;

	ldr         w8,[sp]
	sxtw        x9,w8
	mov         x8,#8
	mul         x9,x9,x8
	adrp        x8,l_freePages
	add         x8,x8,PageOffset(l_freePages)
	add         x9,x8,x9
	ldr         x8,[sp,#8]
	str         x8,[x9]

; 200  : 	dmb_sy();

	bl          dmb_sy

; 201  : 	dmb_ish();

	bl          dmb_ish

; 202  : 	dsb_sy_barrier();

	bl          dsb_sy_barrier

; 203  : 	dsb_ish();

	bl          dsb_ish
	add         sp,sp,#0x10
	ldr         lr,[sp],#0x10
	ret

	ENDP  ; |insert_tag|

; Function compile flags: /Odtpy
; File C:\Users\paras\source\repos\grep-name\XenevaOS\KernelAA64\Mm\liballoc.c

	AREA	|.text$mn|, CODE, ARM64

|liballoc_memcpy| PROC

; 118  : {

	sub         sp,sp,#0x40
	str         x0,[sp,#0x28]
	str         x1,[sp,#0x30]
	str         x2,[sp]

; 119  : 	char* cdest;
; 120  : 	char* csrc;
; 121  : 	unsigned int* ldest = (unsigned int*)s1;

	ldr         x8,[sp,#0x28]
	str         x8,[sp,#8]

; 122  : 	unsigned int* lsrc = (unsigned int*)s2;

	ldr         x8,[sp,#0x30]
	str         x8,[sp,#0x10]
|$LN2@liballoc_m|

; 123  : 
; 124  : 	while (n >= sizeof(unsigned int))

	ldr         x8,[sp]
	cmp         x8,#4
	blo         |$LN3@liballoc_m|

; 125  : 	{
; 126  : 		*ldest++ = *lsrc++;

	ldr         x9,[sp,#8]
	ldr         x8,[sp,#0x10]
	ldr         w8,[x8]
	str         w8,[x9]
	ldr         x8,[sp,#8]
	add         x8,x8,#4
	str         x8,[sp,#8]
	ldr         x8,[sp,#0x10]
	add         x8,x8,#4
	str         x8,[sp,#0x10]

; 127  : 		n -= sizeof(unsigned int);

	ldr         x8,[sp]
	sub         x8,x8,#4
	str         x8,[sp]

; 128  : 	}

	b           |$LN2@liballoc_m|
|$LN3@liballoc_m|

; 129  : 
; 130  : 	cdest = (char*)ldest;

	ldr         x8,[sp,#8]
	str         x8,[sp,#0x18]

; 131  : 	csrc = (char*)lsrc;

	ldr         x8,[sp,#0x10]
	str         x8,[sp,#0x20]
|$LN4@liballoc_m|

; 132  : 
; 133  : 	while (n > 0)

	ldr         x8,[sp]
	cmp         x8,#0
	bls         |$LN5@liballoc_m|

; 134  : 	{
; 135  : 		*cdest++ = *csrc++;

	ldr         x9,[sp,#0x18]
	ldr         x8,[sp,#0x20]
	ldrsb       w8,[x8]
	strb        w8,[x9]
	ldr         x8,[sp,#0x18]
	add         x8,x8,#1
	str         x8,[sp,#0x18]
	ldr         x8,[sp,#0x20]
	add         x8,x8,#1
	str         x8,[sp,#0x20]

; 136  : 		n -= 1;

	ldr         x8,[sp]
	sub         x8,x8,#1
	str         x8,[sp]

; 137  : 	}

	b           |$LN4@liballoc_m|
|$LN5@liballoc_m|

; 138  : 
; 139  : 	return s1;

	ldr         x0,[sp,#0x28]
	add         sp,sp,#0x40
	ret

	ENDP  ; |liballoc_memcpy|

; Function compile flags: /Odtpy
; File C:\Users\paras\source\repos\grep-name\XenevaOS\KernelAA64\Mm\liballoc.c

	AREA	|.text$mn|, CODE, ARM64

|liballoc_memset| PROC

; 109  : {

	sub         sp,sp,#0x20
	str         x0,[sp,#8]
	str         w1,[sp,#4]
	str         x2,[sp,#0x10]

; 110  : 	int i;
; 111  : 	for (i = 0; i < n; i++)

	mov         w8,#0
	str         w8,[sp]
	b           |$LN4@liballoc_m|
|$LN2@liballoc_m|
	ldr         w8,[sp]
	add         w8,w8,#1
	str         w8,[sp]
|$LN4@liballoc_m|
	ldr         w8,[sp]
	sxtw        x9,w8
	ldr         x8,[sp,#0x10]
	cmp         x9,x8
	bhs         |$LN3@liballoc_m|

; 112  : 		((char*)s)[i] = c;

	ldr         w8,[sp]
	sxtw        x9,w8
	mov         x8,#1
	mul         x9,x9,x8
	ldr         x8,[sp,#8]
	add         x9,x8,x9
	ldr         w8,[sp,#4]
	sxtb        w8,w8
	strb        w8,[x9]
	b           |$LN2@liballoc_m|
|$LN3@liballoc_m|

; 113  : 
; 114  : 	return s;

	ldr         x0,[sp,#8]
	add         sp,sp,#0x20
	ret

	ENDP  ; |liballoc_memset|

; Function compile flags: /Odtpy
; File C:\Users\paras\source\repos\grep-name\XenevaOS\KernelAA64\Mm\liballoc.c

	AREA	|.text$mn|, CODE, ARM64

|getexp| PROC

; 82   : {

	sub         sp,sp,#0x10
	str         w0,[sp,#4]

; 83   : 	if (size < (1 << MINEXP))

	ldr         w8,[sp,#4]
	cmp         w8,#0x100
	bhs         |$LN4@getexp|

; 84   : 	{
; 85   : #ifdef DEBUG
; 86   : 		printf("getexp returns -1 for %i less than MINEXP\n", size);
; 87   : #endif
; 88   : 		return -1;	// Smaller than the quantum.

	mov         w0,#-1
	b           |$LN1@getexp|
|$LN4@getexp|

; 89   : 	}
; 90   : 
; 91   : 
; 92   : 	int shift = MINEXP;

	mov         w8,#8
	str         w8,[sp]
|$LN2@getexp|

; 93   : 
; 94   : 	while (shift < MAXEXP)

	ldr         w8,[sp]
	cmp         w8,#0x20
	bge         |$LN3@getexp|

; 95   : 	{
; 96   : 		if ((1 << shift) > size) break;

	mov         w9,#1
	ldr         w8,[sp]
	lsl         w9,w9,w8
	ldr         w8,[sp,#4]
	cmp         w9,w8
	bls         |$LN5@getexp|
	b           |$LN3@getexp|
|$LN5@getexp|

; 97   : 		shift += 1;

	ldr         w8,[sp]
	add         w8,w8,#1
	str         w8,[sp]

; 98   : 	}

	b           |$LN2@getexp|
|$LN3@getexp|

; 99   : 
; 100  : #ifdef DEBUG
; 101  : 	printf("getexp returns %i (%i bytes) for %i size\n", shift - 1, (1 << (shift - 1)), size);
; 102  : #endif
; 103  : 
; 104  : 	return shift - 1;

	ldr         w8,[sp]
	sub         w0,w8,#1
	mov         w0,w0
|$LN1@getexp|
	add         sp,sp,#0x10
	ret

	ENDP  ; |getexp|

; Function compile flags: /Odtpy
; File C:\Users\paras\source\repos\grep-name\XenevaOS\KernelAA64\Mm\liballoc.c

	AREA	|.text$mn|, CODE, ARM64

|port_free| PROC

; 482  : {

|$LN18|
	str         lr,[sp,#-0x10]!
	sub         sp,sp,#0x20
	str         x0,[sp,#0x10]

; 483  : 	int index;
; 484  : 	struct boundary_tag* tag;
; 485  : 
; 486  : 	if (ptr == NULL) return;

	ldr         x8,[sp,#0x10]
	cmp         x8,#0
	bne         |$LN6@port_free|
	b           |$LN1@port_free|
|$LN6@port_free|

; 487  : 
; 488  : 	if (((size_t)ptr & 0xF) != 0) {

	ldr         x8,[sp,#0x10]
	and         x8,x8,#0xF
	cmp         x8,#0
	beq         |$LN7@port_free|

; 489  : 		//liballoc_unlock();
; 490  : 		UARTDebugOut("liballoc:free: unaligned pointer returning \n");

	adrp        x8,|$SG3020|
	add         x0,x8,PageOffset(|$SG3020|)
	bl          UARTDebugOut

; 491  : 		return;

	b           |$LN1@port_free|
|$LN7@port_free|

; 492  : 	}
; 493  : 	liballoc_lock();

	bl          liballoc_lock

; 494  : 
; 495  : 
; 496  : 	tag = (struct boundary_tag*)((size_t)ptr - sizeof(struct boundary_tag));

	ldr         x8,[sp,#0x10]
	sub         x8,x8,#0x30
	str         x8,[sp,#8]

; 497  : 
; 498  : 	
; 499  : 	if (((size_t)tag & 0xF) != 0) {

	ldr         x8,[sp,#8]
	and         x8,x8,#0xF
	cmp         x8,#0
	beq         |$LN8@port_free|

; 500  : 		liballoc_unlock();

	bl          liballoc_unlock

; 501  : 		UARTDebugOut("liballoc:free: tag unaligned returning \n");

	adrp        x8,|$SG3022|
	add         x0,x8,PageOffset(|$SG3022|)
	bl          UARTDebugOut
|$LN8@port_free|

; 502  : 	}
; 503  : 
; 504  : 	if (tag->magic != LIBALLOC_MAGIC)

	ldr         x8,[sp,#8]
	ldr         w9,|$LN17@port_free|
	ldr         w8,[x8]
	cmp         w8,w9
	beq         |$LN9@port_free|

; 505  : 	{
; 506  : 		liballoc_unlock();		// release the lock

	bl          liballoc_unlock

; 507  : 		return;

	b           |$LN1@port_free|
|$LN9@port_free|
|$LN2@port_free|

; 508  : 	}
; 509  : 
; 510  : 
; 511  : 
; 512  : #ifdef DEBUG
; 513  : 	l_inuse -= tag->size;
; 514  : 	printf("free: %x, %i, %i\n", ptr, (int)l_inuse / 1024, (int)l_allocated / 1024);
; 515  : #endif
; 516  : 
; 517  : 	// MELT LEFT...
; 518  : 	while ((tag->split_left != NULL) && (tag->split_left->index >= 0))

	ldr         x8,[sp,#8]
	add         x8,x8,#0x10
	ldr         x8,[x8]
	cmp         x8,#0
	beq         |$LN3@port_free|
	ldr         x8,[sp,#8]
	add         x8,x8,#0x10
	ldr         x8,[x8]
	add         x8,x8,#0xC
	ldr         w8,[x8]
	cmp         w8,#0
	blt         |$LN3@port_free|

; 519  : 	{
; 520  : #ifdef DEBUG
; 521  : 		printf("Melting tag left into available memory. Left was %i, becomes %i (%i)\n", tag->split_left->real_size, tag->split_left->real_size + tag->real_size, tag->split_left->real_size);
; 522  : #endif
; 523  : 		tag = melt_left(tag);

	ldr         x0,[sp,#8]
	bl          melt_left
	str         x0,[sp,#8]

; 524  : 		remove_tag(tag);

	ldr         x0,[sp,#8]
	bl          remove_tag

; 525  : 	}

	b           |$LN2@port_free|
|$LN3@port_free|
|$LN4@port_free|

; 526  : 
; 527  : 	// MELT RIGHT...
; 528  : 	while ((tag->split_right != NULL) && (tag->split_right->index >= 0))

	ldr         x8,[sp,#8]
	add         x8,x8,#0x18
	ldr         x8,[x8]
	cmp         x8,#0
	beq         |$LN5@port_free|
	ldr         x8,[sp,#8]
	add         x8,x8,#0x18
	ldr         x8,[x8]
	add         x8,x8,#0xC
	ldr         w8,[x8]
	cmp         w8,#0
	blt         |$LN5@port_free|

; 529  : 	{
; 530  : #ifdef DEBUG
; 531  : 		printf("Melting tag right into available memory. This was was %i, becomes %i (%i)\n", tag->real_size, tag->split_right->real_size + tag->real_size, tag->split_right->real_size);
; 532  : #endif
; 533  : 		tag = absorb_right(tag);

	ldr         x0,[sp,#8]
	bl          absorb_right
	str         x0,[sp,#8]

; 534  : 	}

	b           |$LN4@port_free|
|$LN5@port_free|

; 535  : 
; 536  : 
; 537  : 	// Where is it going back to?
; 538  : 	index = getexp(tag->real_size - sizeof(struct boundary_tag));

	ldr         x8,[sp,#8]
	add         x8,x8,#8
	ldr         w8,[x8]
	uxtw        x8,w8
	sub         x8,x8,#0x30
	mov         w0,w8
	mov         w0,w0
	bl          getexp
	mov         w0,w0
	str         w0,[sp]

; 539  : 	//UARTDebugOut("liballoc free index : %d \n", index);
; 540  : 	if (index < MINEXP) index = MINEXP;

	ldr         w8,[sp]
	cmp         w8,#8
	bge         |$LN10@port_free|
	mov         w8,#8
	str         w8,[sp]
|$LN10@port_free|

; 541  : 
; 542  : 	// A whole, empty block?
; 543  : 	if ((tag->split_left == NULL) && (tag->split_right == NULL))

	ldr         x8,[sp,#8]
	add         x8,x8,#0x10
	ldr         x8,[x8]
	cmp         x8,#0
	bne         |$LN11@port_free|
	ldr         x8,[sp,#8]
	add         x8,x8,#0x18
	ldr         x8,[x8]
	cmp         x8,#0
	bne         |$LN11@port_free|

; 544  : 	{
; 545  : 
; 546  : 		if (l_completePages[index] == MAXCOMPLETE)

	ldr         w8,[sp]
	sxtw        x9,w8
	mov         x8,#4
	mul         x9,x9,x8
	adrp        x8,l_completePages
	add         x8,x8,PageOffset(l_completePages)
	add         x8,x8,x9
	ldr         w8,[x8]
	cmp         w8,#5
	bne         |$LN12@port_free|

; 547  : 		{
; 548  : 			// Too many standing by to keep. Free this one.
; 549  : 			unsigned int pages = tag->real_size / l_pageSize;

	ldr         x8,[sp,#8]
	add         x8,x8,#8
	ldr         w9,[x8]
	adrp        x8,l_pageSize
	ldr         w8,[x8,PageOffset(l_pageSize)]
	cbnz        w8,|$LN15@port_free|
	brk         #0xF004
|$LN15@port_free|
	udiv        w8,w9,w8
	str         w8,[sp,#4]

; 550  : 
; 551  : 			if ((tag->real_size % l_pageSize) != 0) pages += 1;

	ldr         x8,[sp,#8]
	add         x8,x8,#8
	ldr         w10,[x8]
	adrp        x8,l_pageSize
	ldr         w9,[x8,PageOffset(l_pageSize)]
	cbnz        w9,|$LN16@port_free|
	brk         #0xF004
|$LN16@port_free|
	udiv        w8,w10,w9
	mul         w8,w8,w9
	sub         w8,w10,w8
	cmp         w8,#0
	beq         |$LN13@port_free|
	ldr         w8,[sp,#4]
	add         w8,w8,#1
	str         w8,[sp,#4]
|$LN13@port_free|

; 552  : 			//if (pages < l_pageCount) pages = l_pageCount;
; 553  : 			//UARTDebugOut("liballoc: Freeing page for address : %x \n", ptr);
; 554  : 			liballoc_free(tag, pages);

	ldr         w1,[sp,#4]
	ldr         x0,[sp,#8]
	bl          liballoc_free

; 555  : 
; 556  : #ifdef DEBUG
; 557  : 			l_allocated -= pages * l_pageSize;
; 558  : 			printf("Resource freeing %x of %i pages\n", tag, pages);
; 559  : 			dump_array();
; 560  : #endif  
; 561  : 			liballoc_unlock();

	bl          liballoc_unlock

; 562  : 			return;

	b           |$LN1@port_free|
|$LN12@port_free|

; 563  : 		}
; 564  : 
; 565  : 
; 566  : 		l_completePages[index] += 1;	// Increase the count of complete pages.

	ldr         w8,[sp]
	sxtw        x9,w8
	mov         x8,#4
	mul         x9,x9,x8
	adrp        x8,l_completePages
	add         x8,x8,PageOffset(l_completePages)
	add         x8,x8,x9
	ldr         w8,[x8]
	add         w10,w8,#1
	ldr         w8,[sp]
	sxtw        x9,w8
	mov         x8,#4
	mul         x9,x9,x8
	adrp        x8,l_completePages
	add         x8,x8,PageOffset(l_completePages)
	add         x8,x8,x9
	str         w10,[x8]
|$LN11@port_free|

; 567  : 	}
; 568  : 
; 569  : 
; 570  : 	// ..........
; 571  : 
; 572  : 
; 573  : 	insert_tag(tag, index);

	ldr         w1,[sp]
	ldr         x0,[sp,#8]
	bl          insert_tag

; 574  : 
; 575  : #ifdef DEBUG
; 576  : 	printf("Returning tag with %i bytes (requested %i bytes), which has exponent: %i\n", tag->real_size, tag->size, index);
; 577  : 	dump_array();
; 578  : #endif
; 579  : 	liballoc_unlock();

	bl          liballoc_unlock
|$LN1@port_free|
	add         sp,sp,#0x20
	ldr         lr,[sp],#0x10
	ret
|$LN17@port_free|
	DCD         0xc001c0de

	ENDP  ; |port_free|

; Function compile flags: /Odtpy
; File C:\Users\paras\source\repos\grep-name\XenevaOS\KernelAA64\Mm\liballoc.c

	AREA	|.text$mn|, CODE, ARM64

|port_calloc| PROC

; 586  : {

|$LN3|
	str         lr,[sp,#-0x10]!
	sub         sp,sp,#0x20
	str         x0,[sp,#0x10]
	str         x1,[sp,#0x18]

; 587  : 	int real_size;
; 588  : 	void* p;
; 589  : 
; 590  : 	real_size = nobj * size;

	ldr         x9,[sp,#0x10]
	ldr         x8,[sp,#0x18]
	mul         x8,x9,x8
	mov         w8,w8
	str         w8,[sp]

; 591  : 
; 592  : 	p = port_malloc(real_size);

	ldr         w0,[sp]
	bl          port_malloc
	str         x0,[sp,#8]

; 593  : 
; 594  : 	liballoc_memset(p, 0, real_size);

	ldr         w8,[sp]
	sxtw        x2,w8
	mov         w1,#0
	ldr         x0,[sp,#8]
	bl          liballoc_memset

; 595  : 
; 596  : 	return p;

	ldr         x0,[sp,#8]
	add         sp,sp,#0x20
	ldr         lr,[sp],#0x10
	ret

	ENDP  ; |port_calloc|

; Function compile flags: /Odtpy
; File C:\Users\paras\source\repos\grep-name\XenevaOS\KernelAA64\Mm\liballoc.c

	AREA	|.text$mn|, CODE, ARM64

|port_realloc| PROC

; 602  : {

|$LN8|
	str         lr,[sp,#-0x10]!
	sub         sp,sp,#0x20
	str         x0,[sp,#8]
	str         w1,[sp]

; 603  : 	void* ptr;
; 604  : 	struct boundary_tag* tag;
; 605  : 	int real_size;
; 606  : 
; 607  : 	if (size == 0)

	ldr         w8,[sp]
	cmp         w8,#0
	bne         |$LN2@port_reall|

; 608  : 	{
; 609  : 		port_free(p);

	ldr         x0,[sp,#8]
	bl          port_free

; 610  : 		return NULL;

	mov         x0,#0
	b           |$LN1@port_reall|
|$LN2@port_reall|

; 611  : 	}
; 612  : 	if (p == NULL) return port_malloc(size);

	ldr         x8,[sp,#8]
	cmp         x8,#0
	bne         |$LN3@port_reall|
	ldr         w0,[sp]
	bl          port_malloc
	b           |$LN1@port_reall|
|$LN3@port_reall|

; 613  : 
; 614  : 	if (liballoc_lock != NULL) liballoc_lock();		// lockit

	adrp        x8,liballoc_lock
	add         x8,x8,PageOffset(liballoc_lock)
	cmp         x8,#0
	beq         |$LN4@port_reall|
	bl          liballoc_lock
|$LN4@port_reall|

; 615  : 	tag = (struct boundary_tag*)((size_t)p - sizeof(struct boundary_tag));

	ldr         x8,[sp,#8]
	sub         x8,x8,#0x30
	str         x8,[sp,#0x18]

; 616  : 	real_size = tag->size;

	ldr         x8,[sp,#0x18]
	add         x8,x8,#4
	ldr         w8,[x8]
	str         w8,[sp,#4]

; 617  : 	if (liballoc_unlock != NULL) liballoc_unlock();

	adrp        x8,liballoc_unlock
	add         x8,x8,PageOffset(liballoc_unlock)
	cmp         x8,#0
	beq         |$LN5@port_reall|
	bl          liballoc_unlock
|$LN5@port_reall|

; 618  : 
; 619  : 	if (real_size > size) real_size = size;

	ldr         w9,[sp]
	ldr         w8,[sp,#4]
	cmp         w8,w9
	bls         |$LN6@port_reall|
	ldr         w8,[sp]
	str         w8,[sp,#4]
|$LN6@port_reall|

; 620  : 
; 621  : 	ptr = port_malloc(size);

	ldr         w0,[sp]
	bl          port_malloc
	str         x0,[sp,#0x10]

; 622  : 	liballoc_memcpy(ptr, p, real_size);

	ldr         w8,[sp,#4]
	sxtw        x2,w8
	ldr         x1,[sp,#8]
	ldr         x0,[sp,#0x10]
	bl          liballoc_memcpy

; 623  : 	port_free(p);

	ldr         x0,[sp,#8]
	bl          port_free

; 624  : 	return ptr;

	ldr         x0,[sp,#0x10]
|$LN1@port_reall|
	add         sp,sp,#0x20
	ldr         lr,[sp],#0x10
	ret

	ENDP  ; |port_realloc|

; Function compile flags: /Odtpy
; File C:\Users\paras\source\repos\grep-name\XenevaOS\KernelAA64\Mm\liballoc.c

	AREA	|.text$mn|, CODE, ARM64

|port_malloc| PROC

; 370  : {

|$LN17|
	str         lr,[sp,#-0x10]!
	sub         sp,sp,#0x30
	str         w0,[sp,#4]

; 371  : 	size = (size + 7) & ~7;

	ldr         w8,[sp,#4]
	add         w8,w8,#7
	and         w8,w8,#0xFFFFFFF8
	str         w8,[sp,#4]

; 372  : 
; 373  : 	int index;
; 374  : 	void* ptr;
; 375  : 	struct boundary_tag* tag = NULL;

	mov         x8,#0
	str         x8,[sp,#0x10]

; 376  : 
; 377  : 	liballoc_lock();

	bl          liballoc_lock

; 378  : 	
; 379  : 	if (l_initialized == 0)

	adrp        x8,l_initialized
	ldr         w8,[x8,PageOffset(l_initialized)]
	cmp         w8,#0
	bne         |$LN7@port_mallo|

; 380  : 	{
; 381  : #ifdef DEBUG
; 382  : 		printf("%s\n", "liballoc initializing.");
; 383  : #endif
; 384  : 		for (index = 0; index < MAXEXP; index++)

	mov         w8,#0
	str         w8,[sp]
	b           |$LN4@port_mallo|
|$LN2@port_mallo|
	ldr         w8,[sp]
	add         w8,w8,#1
	str         w8,[sp]
|$LN4@port_mallo|
	ldr         w8,[sp]
	cmp         w8,#0x20
	bge         |$LN3@port_mallo|

; 385  : 		{
; 386  : 			l_freePages[index] = NULL;

	ldr         w8,[sp]
	sxtw        x9,w8
	mov         x8,#8
	mul         x9,x9,x8
	adrp        x8,l_freePages
	add         x8,x8,PageOffset(l_freePages)
	add         x9,x8,x9
	mov         x8,#0
	str         x8,[x9]

; 387  : 			l_completePages[index] = 0;

	ldr         w8,[sp]
	sxtw        x9,w8
	mov         x8,#4
	mul         x9,x9,x8
	adrp        x8,l_completePages
	add         x8,x8,PageOffset(l_completePages)
	add         x9,x8,x9
	mov         w8,#0
	str         w8,[x9]

; 388  : 		}

	b           |$LN2@port_mallo|
|$LN3@port_mallo|

; 389  : 		l_initialized = 1;

	adrp        x9,l_initialized
	mov         w8,#1
	str         w8,[x9,PageOffset(l_initialized)]
|$LN7@port_mallo|

; 390  : 	}
; 391  : 
; 392  : 	index = getexp(size) + MODE;

	ldr         w0,[sp,#4]
	bl          getexp
	mov         w0,w0
	str         w0,[sp]

; 393  : 
; 394  : 	if (index < MINEXP) index = MINEXP;

	ldr         w8,[sp]
	cmp         w8,#8
	bge         |$LN8@port_mallo|
	mov         w8,#8
	str         w8,[sp]
|$LN8@port_mallo|

; 395  : 
; 396  : 	// Find one big enough.
; 397  : 	tag = l_freePages[index];				// Start at the front of the list.

	ldr         w8,[sp]
	sxtw        x9,w8
	mov         x8,#8
	mul         x9,x9,x8
	adrp        x8,l_freePages
	add         x8,x8,PageOffset(l_freePages)
	add         x8,x8,x9
	ldr         x8,[x8]
	str         x8,[sp,#0x10]
|$LN5@port_mallo|

; 398  : 	
; 399  : 	while (tag != NULL)

	ldr         x8,[sp,#0x10]
	cmp         x8,#0
	beq         |$LN6@port_mallo|

; 400  : 	{
; 401  : 		// If there's enough space in this tag.
; 402  : 		if ((tag->real_size - sizeof(struct boundary_tag))
; 403  : 			>= (size + sizeof(struct boundary_tag)))

	ldr         x8,[sp,#0x10]
	add         x8,x8,#8
	ldr         w8,[x8]
	uxtw        x8,w8
	sub         x9,x8,#0x30
	ldr         w8,[sp,#4]
	uxtw        x8,w8
	add         x8,x8,#0x30
	cmp         x9,x8
	blo         |$LN9@port_mallo|

; 404  : 		{
; 405  : #ifdef DEBUG
; 406  : 			printf("Tag search found %i >= %i\n", (tag->real_size - sizeof(struct boundary_tag)), (size + sizeof(struct boundary_tag)));
; 407  : #endif
; 408  : 			break;

	b           |$LN6@port_mallo|
|$LN9@port_mallo|

; 409  : 		}
; 410  : 
; 411  : 		tag = tag->next;

	ldr         x8,[sp,#0x10]
	add         x8,x8,#0x20
	ldr         x8,[x8]
	str         x8,[sp,#0x10]

; 412  : 	}

	b           |$LN5@port_mallo|
|$LN6@port_mallo|

; 413  : 
; 414  : 	
; 415  : 	// No page found. Make one.
; 416  : 	if (tag == NULL)

	ldr         x8,[sp,#0x10]
	cmp         x8,#0
	bne         |$LN10@port_mallo|

; 417  : 	{
; 418  : 		if ((tag = allocate_new_tag(size)) == NULL)

	ldr         w0,[sp,#4]
	bl          allocate_new_tag
	str         x0,[sp,#0x10]
	ldr         x8,[sp,#0x10]
	cmp         x8,#0
	bne         |$LN12@port_mallo|

; 419  : 		{
; 420  : 			liballoc_unlock();

	bl          liballoc_unlock

; 421  : 			return NULL;

	mov         x0,#0
	b           |$LN1@port_mallo|
|$LN12@port_mallo|

; 422  : 		}
; 423  : 		/*if (isSyscall())
; 424  : 			return;*/
; 425  : 		index = getexp(tag->real_size - sizeof(struct boundary_tag));

	ldr         x8,[sp,#0x10]
	add         x8,x8,#8
	ldr         w8,[x8]
	uxtw        x8,w8
	sub         x8,x8,#0x30
	mov         w0,w8
	mov         w0,w0
	bl          getexp
	mov         w0,w0
	str         w0,[sp]

; 426  : 	}

	b           |$LN11@port_mallo|
|$LN10@port_mallo|

; 427  : 	else
; 428  : 	{
; 429  : 		remove_tag(tag);

	ldr         x0,[sp,#0x10]
	bl          remove_tag

; 430  : 
; 431  : 		if ((tag->split_left == NULL) && (tag->split_right == NULL))

	ldr         x8,[sp,#0x10]
	add         x8,x8,#0x10
	ldr         x8,[x8]
	cmp         x8,#0
	bne         |$LN13@port_mallo|
	ldr         x8,[sp,#0x10]
	add         x8,x8,#0x18
	ldr         x8,[x8]
	cmp         x8,#0
	bne         |$LN13@port_mallo|

; 432  : 			l_completePages[index] -= 1;

	ldr         w8,[sp]
	sxtw        x9,w8
	mov         x8,#4
	mul         x9,x9,x8
	adrp        x8,l_completePages
	add         x8,x8,PageOffset(l_completePages)
	add         x8,x8,x9
	ldr         w8,[x8]
	sub         w10,w8,#1
	ldr         w8,[sp]
	sxtw        x9,w8
	mov         x8,#4
	mul         x9,x9,x8
	adrp        x8,l_completePages
	add         x8,x8,PageOffset(l_completePages)
	add         x8,x8,x9
	str         w10,[x8]
|$LN13@port_mallo|
|$LN11@port_mallo|

; 433  : 	}
; 434  : 
; 435  : 	// We have a free page.  Remove it from the free pages list.
; 436  : 	tag->size = size;

	ldr         x8,[sp,#0x10]
	add         x9,x8,#4
	ldr         w8,[sp,#4]
	str         w8,[x9]

; 437  : 	
; 438  : 	
; 439  : 	// Removed... see if we can re-use the excess space.
; 440  : 
; 441  : #ifdef DEBUG
; 442  : 	printf("Found tag with %i bytes available (requested %i bytes, leaving %i), which has exponent: %i (%i bytes)\n", tag->real_size - sizeof(struct boundary_tag), size, tag->real_size - size - sizeof(struct boundary_tag), index, 1 << index);
; 443  : #endif
; 444  : 	unsigned int remainder = tag->real_size - size - sizeof(struct boundary_tag) * 2; // Support a new tag + remainder

	ldr         x8,[sp,#0x10]
	add         x8,x8,#8
	ldr         w9,[x8]
	ldr         w8,[sp,#4]
	sub         w8,w9,w8
	uxtw        x8,w8
	sub         x8,x8,#0x60
	mov         w8,w8
	str         w8,[sp,#8]

; 445  : 
; 446  : 
; 447  : 	if (remainder > 0 /*&& ( (tag->real_size - remainder) >= (1<<MINEXP))*/)

	ldr         w8,[sp,#8]
	cmp         w8,#0
	bls         |$LN14@port_mallo|

; 448  : 	{
; 449  : 		int childIndex = getexp(remainder);

	ldr         w0,[sp,#8]
	bl          getexp
	mov         w0,w0
	str         w0,[sp,#0xC]

; 450  : 
; 451  : 		if (childIndex >= 0)

	ldr         w8,[sp,#0xC]
	cmp         w8,#0
	blt         |$LN15@port_mallo|

; 452  : 		{
; 453  : #ifdef DEBUG
; 454  : 			printf("Seems to be splittable: %i >= 2^%i .. %i\n", remainder, childIndex, (1 << childIndex));
; 455  : #endif
; 456  : 			struct boundary_tag* new_tag = split_tag(tag);

	ldr         x0,[sp,#0x10]
	bl          split_tag
	str         x0,[sp,#0x18]

; 457  : 
; 458  : 			new_tag = new_tag;	// Get around the compiler warning about unused variables.

	ldr         x8,[sp,#0x18]
	str         x8,[sp,#0x18]
|$LN15@port_mallo|
|$LN14@port_mallo|

; 459  : #ifdef DEBUG
; 460  : 			printf("Old tag has become %i bytes, new tag is now %i bytes (%i exp)\n", tag->real_size, new_tag->real_size, new_tag->index);
; 461  : #endif
; 462  : 		}
; 463  : 	}
; 464  : 
; 465  : 
; 466  : 	ptr = (void*)((size_t)tag + sizeof(struct boundary_tag));

	ldr         x8,[sp,#0x10]
	add         x8,x8,#0x30
	str         x8,[sp,#0x20]

; 467  : #ifdef DEBUG
; 468  : 	l_inuse += size;
; 469  : 	printf("malloc: %x,  %i, %i\n", ptr, (int)l_inuse / 1024, (int)l_allocated / 1024);
; 470  : 	dump_array();
; 471  : #endif
; 472  : 	dmb_sy();

	bl          dmb_sy

; 473  : 	liballoc_unlock();

	bl          liballoc_unlock

; 474  : 	return ptr;

	ldr         x0,[sp,#0x20]
|$LN1@port_mallo|
	add         sp,sp,#0x30
	ldr         lr,[sp],#0x10
	ret

	ENDP  ; |port_malloc|

; Function compile flags: /Odtpy
; File C:\Users\paras\source\repos\grep-name\XenevaOS\KernelAA64\Mm\liballoc.c

	AREA	|.text$mn|, CODE, ARM64

|liballoc_free| PROC

; 661  : int liballoc_free(void* ptr, int pages) {

|$LN3|
	str         lr,[sp,#-0x10]!
	sub         sp,sp,#0x10
	str         x0,[sp,#8]
	str         w1,[sp]

; 662  : 	UARTDebugOut("Liballoc free: %d \n", pages);

	ldr         w1,[sp]
	adrp        x8,|$SG3076|
	add         x0,x8,PageOffset(|$SG3076|)
	bl          UARTDebugOut

; 663  : 	//AuFreePages((uint64_t)ptr, true, (pages*4096));
; 664  : 	return 0;

	mov         w0,#0
	add         sp,sp,#0x10
	ldr         lr,[sp],#0x10
	ret

	ENDP  ; |liballoc_free|

; Function compile flags: /Odtpy
; File C:\Users\paras\source\repos\grep-name\XenevaOS\KernelAA64\Mm\liballoc.c

	AREA	|.text$mn|, CODE, ARM64

|liballoc_alloc| PROC

; 638  : void* liballoc_alloc(int pages) {

|$LN10|
	str         lr,[sp,#-0x10]!
	sub         sp,sp,#0x30
	str         w0,[sp]

; 639  : 	size_t size = pages * 4096;

	ldr         w9,[sp]
	mov         w8,#0x1000
	mul         w8,w9,w8
	sxtw        x8,w8
	str         x8,[sp,#0x28]

; 640  : 	char* page = (char*)AuGetFreePage(0, false);

	mov         x1,#0
	mov         w0,#0
	bl          AuGetFreePage
	str         x0,[sp,#0x10]

; 641  : 	uint64_t page_ = (uint64_t)page;

	ldr         x8,[sp,#0x10]
	str         x8,[sp,#0x18]

; 642  : 	for (size_t i = 0; i < pages; i++) {

	mov         x8,#0
	str         x8,[sp,#8]
	b           |$LN4@liballoc_a|
|$LN2@liballoc_a|
	ldr         x8,[sp,#8]
	add         x8,x8,#1
	str         x8,[sp,#8]
|$LN4@liballoc_a|
	ldr         w8,[sp]
	sxtw        x9,w8
	ldr         x8,[sp,#8]
	cmp         x8,x9
	bhs         |$LN3@liballoc_a|

; 643  : 		void* p = AuPmmngrAlloc();

	bl          AuPmmngrAlloc
	str         x0,[sp,#0x20]

; 644  : 		AuMapPage((uint64_t)p, page_ + i * 4096,PTE_NORMAL_MEM);

	ldr         x9,[sp,#8]
	mov         x8,#0x1000
	mul         x9,x9,x8
	ldr         x8,[sp,#0x18]
	add         x1,x8,x9
	mov         w2,#4
	ldr         x0,[sp,#0x20]
	bl          AuMapPage

; 645  : 	}

	b           |$LN2@liballoc_a|
|$LN3@liballoc_a|

; 646  : 	memset(page, 0, pages * PAGE_SIZE);

	ldr         w8,[sp]
	sxtw        x9,w8
	mov         x8,#0x1000
	mul         x8,x9,x8
	mov         w2,w8
	mov         w2,w2
	mov         w1,#0
	ldr         x0,[sp,#0x10]
	bl          memset

; 647  : 
; 648  : 	/*if (isSyscall()) {
; 649  : 		UARTDebugOut("LibAlloc : %x \n", page);
; 650  : 		return;
; 651  : 	}*/
; 652  : 	//UARTDebugOut("New page allocated %x %d\n", page, pages);
; 653  : 	if ((page_ % PAGE_SIZE) != 0) {

	ldr         x10,[sp,#0x18]
	mov         x9,#0x1000
	udiv        x8,x10,x9
	mul         x8,x8,x9
	sub         x8,x10,x8
	cmp         x8,#0
	beq         |$LN8@liballoc_a|
|$LN5@liballoc_a|

; 654  : 		//AuTextOut("Request page not aligned to page boundary \r\n");
; 655  : 		for (;;);

	b           |$LN5@liballoc_a|
|$LN8@liballoc_a|

; 656  : 	}
; 657  : 	isb_flush();

	bl          isb_flush

; 658  : 	return page;

	ldr         x0,[sp,#0x10]
	add         sp,sp,#0x30
	ldr         lr,[sp],#0x10
	ret

	ENDP  ; |liballoc_alloc|

; Function compile flags: /Odtpy
; File C:\Users\paras\source\repos\grep-name\XenevaOS\KernelAA64\Mm\liballoc.c

	AREA	|.text$mn|, CODE, ARM64

|liballoc_unlock| PROC

; 634  : 	return 0;

	mov         w0,#0
	ret

	ENDP  ; |liballoc_unlock|

; Function compile flags: /Odtpy
; File C:\Users\paras\source\repos\grep-name\XenevaOS\KernelAA64\Mm\liballoc.c

	AREA	|.text$mn|, CODE, ARM64

|liballoc_lock| PROC

; 629  : 	return 0;

	mov         w0,#0
	ret

	ENDP  ; |liballoc_lock|

	END
