; Listing generated by Microsoft (R) Optimizing Compiler Version 19.29.30159.0 

	TTL	C:\Users\paras\source\repos\grep-name\XenevaOS\KernelAA64\ARM64\Debug\list.obj
	ARM64

	AREA	|.drectve|, DRECTVE

	EXPORT	|initialize_list|
	EXPORT	|list_add|
	EXPORT	|list_remove|
	EXPORT	|list_get_at|
	IMPORT	|kmalloc|
	IMPORT	|kfree|
	IMPORT	|dsb_ish|
	IMPORT	|dmb_ish|
	IMPORT	|dmb_sy|
	IMPORT	|dsb_sy_barrier|
	IMPORT	|aa64_data_cache_clean_range|

	AREA	|.pdata|, PDATA
|$pdata$initialize_list| DCD imagerel |$LN3|
	DCD	0x1200041
	;Flags[SingleProEpi] functionLength[64] RegF[0] RegI[0] H[0] frameChainReturn[UnChainedSavedLR] frameSize[32]
|$pdata$list_add| DCD imagerel |$LN7|
	DCD	0x1a000dd
	;Flags[SingleProEpi] functionLength[220] RegF[0] RegI[0] H[0] frameChainReturn[UnChainedSavedLR] frameSize[48]
|$pdata$list_remove| DCD imagerel |$LN12|
	DCD	0x1a00175
	;Flags[SingleProEpi] functionLength[372] RegF[0] RegI[0] H[0] frameChainReturn[UnChainedSavedLR] frameSize[48]
|$pdata$list_get_at| DCD imagerel |$LN10|
	DCD	0x10000c1
	;Flags[SingleProEpi] functionLength[192] RegF[0] RegI[0] H[0] frameChainReturn[UnChained] frameSize[32]
; Function compile flags: /Odtpy
; File C:\Users\paras\source\repos\grep-name\XenevaOS\KernelAA64\list.c

	AREA	|.text$mn|, CODE, ARM64

|list_get_at| PROC

; 78   : void* list_get_at(list_t* list, unsigned int index) {

|$LN10|
	sub         sp,sp,#0x20
	str         x0,[sp,#0x10]
	str         w1,[sp,#4]

; 79   : 
; 80   : 	if (list->pointer == 0 || index >= list->pointer)

	ldr         x8,[sp,#0x10]
	ldr         w8,[x8]
	cmp         w8,#0
	beq         |$LN6@list_get_a|
	ldr         x8,[sp,#0x10]
	ldr         w9,[x8]
	ldr         w8,[sp,#4]
	cmp         w8,w9
	blo         |$LN5@list_get_a|
|$LN6@list_get_a|

; 81   : 		return NULL;

	mov         x0,#0
	b           |$LN1@list_get_a|
|$LN5@list_get_a|

; 82   : 
; 83   : 	/*dmb_sy();
; 84   : 	dmb_ish();
; 85   : 	dsb_sy_barrier();
; 86   : 	dsb_ish();*/
; 87   : 	dataentry* current_node = list->entry_current;

	ldr         x8,[sp,#0x10]
	add         x8,x8,#8
	ldr         x8,[x8]
	str         x8,[sp,#8]

; 88   : 
; 89   : 	for (unsigned int current_index = 0; (current_index < index) && current_node; current_index++) {

	mov         w8,#0
	str         w8,[sp]
	b           |$LN4@list_get_a|
|$LN2@list_get_a|
	ldr         w8,[sp]
	add         w8,w8,#1
	str         w8,[sp]
|$LN4@list_get_a|
	ldr         w9,[sp,#4]
	ldr         w8,[sp]
	cmp         w8,w9
	bhs         |$LN3@list_get_a|
	ldr         x8,[sp,#8]
	cmp         x8,#0
	beq         |$LN3@list_get_a|

; 90   : 		current_node = current_node->next;

	ldr         x8,[sp,#8]
	ldr         x8,[x8]
	str         x8,[sp,#8]

; 91   : 		//dmb_sy();
; 92   : 	}

	b           |$LN2@list_get_a|
|$LN3@list_get_a|

; 93   : 
; 94   : 	return current_node ? current_node->data : NULL;

	ldr         x8,[sp,#8]
	cmp         x8,#0
	beq         |$LN8@list_get_a|
	ldr         x8,[sp,#8]
	add         x8,x8,#0x10
	ldr         x8,[x8]
	str         x8,[sp,#0x18]
	b           |$LN9@list_get_a|
|$LN8@list_get_a|
	mov         x8,#0
	str         x8,[sp,#0x18]
|$LN9@list_get_a|
	ldr         x0,[sp,#0x18]
|$LN1@list_get_a|
	add         sp,sp,#0x20
	ret

	ENDP  ; |list_get_at|

; Function compile flags: /Odtpy
; File C:\Users\paras\source\repos\grep-name\XenevaOS\KernelAA64\list.c

	AREA	|.text$mn|, CODE, ARM64

|list_remove| PROC

; 97   : void* list_remove(list_t* list, unsigned int index) {

|$LN12|
	str         lr,[sp,#-0x10]!
	sub         sp,sp,#0x20
	str         x0,[sp,#0x10]
	str         w1,[sp,#4]

; 98   : 
; 99   : 	void* payload;
; 100  : 
; 101  : 	if (list->pointer == 0 || index >= list->pointer)

	ldr         x8,[sp,#0x10]
	ldr         w8,[x8]
	cmp         w8,#0
	beq         |$LN6@list_remov|
	ldr         x8,[sp,#0x10]
	ldr         w9,[x8]
	ldr         w8,[sp,#4]
	cmp         w8,w9
	blo         |$LN5@list_remov|
|$LN6@list_remov|

; 102  : 		return NULL;

	mov         x0,#0
	b           |$LN1@list_remov|
|$LN5@list_remov|

; 103  : 
; 104  : 	dataentry* current_node = list->entry_current;

	ldr         x8,[sp,#0x10]
	add         x8,x8,#8
	ldr         x8,[x8]
	str         x8,[sp,#8]

; 105  : 
; 106  : 	for (unsigned int current_index = 0; (current_index < index) && current_node; current_index++)

	mov         w8,#0
	str         w8,[sp]
	b           |$LN4@list_remov|
|$LN2@list_remov|
	ldr         w8,[sp]
	add         w8,w8,#1
	str         w8,[sp]
|$LN4@list_remov|
	ldr         w9,[sp,#4]
	ldr         w8,[sp]
	cmp         w8,w9
	bhs         |$LN3@list_remov|
	ldr         x8,[sp,#8]
	cmp         x8,#0
	beq         |$LN3@list_remov|

; 107  : 		current_node = current_node->next;

	ldr         x8,[sp,#8]
	ldr         x8,[x8]
	str         x8,[sp,#8]
	b           |$LN2@list_remov|
|$LN3@list_remov|

; 108  : 
; 109  : 	if (!current_node)

	ldr         x8,[sp,#8]
	cmp         x8,#0
	bne         |$LN7@list_remov|

; 110  : 		return NULL;

	mov         x0,#0
	b           |$LN1@list_remov|
|$LN7@list_remov|

; 111  : 	payload = current_node->data;

	ldr         x8,[sp,#8]
	add         x8,x8,#0x10
	ldr         x8,[x8]
	str         x8,[sp,#0x18]

; 112  : 
; 113  : 	if (current_node->prev)

	ldr         x8,[sp,#8]
	add         x8,x8,#8
	ldr         x8,[x8]
	cmp         x8,#0
	beq         |$LN8@list_remov|

; 114  : 		current_node->prev->next = current_node->next;

	ldr         x10,[sp,#8]
	ldr         x8,[sp,#8]
	add         x8,x8,#8
	ldr         x9,[x8]
	ldr         x8,[x10]
	str         x8,[x9]
|$LN8@list_remov|

; 115  : 
; 116  : 	if (current_node->next)

	ldr         x8,[sp,#8]
	ldr         x8,[x8]
	cmp         x8,#0
	beq         |$LN9@list_remov|

; 117  : 		current_node->next->prev = current_node->prev;

	ldr         x8,[sp,#8]
	add         x10,x8,#8
	ldr         x8,[sp,#8]
	ldr         x8,[x8]
	add         x9,x8,#8
	ldr         x8,[x10]
	str         x8,[x9]
|$LN9@list_remov|

; 118  : 
; 119  : 	if (index == 0)

	ldr         w8,[sp,#4]
	cmp         w8,#0
	bne         |$LN10@list_remov|

; 120  : 		list->entry_current = current_node->next;

	ldr         x10,[sp,#8]
	ldr         x8,[sp,#0x10]
	add         x9,x8,#8
	ldr         x8,[x10]
	str         x8,[x9]
|$LN10@list_remov|

; 121  : 
; 122  : 	dmb_sy();

	bl          dmb_sy

; 123  : 	dmb_ish();

	bl          dmb_ish

; 124  : 	dsb_sy_barrier();

	bl          dsb_sy_barrier

; 125  : 	dsb_ish();

	bl          dsb_ish

; 126  : 
; 127  : 	kfree(current_node);

	ldr         x0,[sp,#8]
	bl          kfree

; 128  : 
; 129  : 
; 130  : 
; 131  : 	list->pointer--;

	ldr         x8,[sp,#0x10]
	ldr         w8,[x8]
	sub         w9,w8,#1
	ldr         x8,[sp,#0x10]
	str         w9,[x8]

; 132  : 
; 133  : 	aa64_data_cache_clean_range(list, sizeof(list_t));

	mov         x1,#0x10
	ldr         x0,[sp,#0x10]
	bl          aa64_data_cache_clean_range

; 134  : 
; 135  : 	return payload;

	ldr         x0,[sp,#0x18]
|$LN1@list_remov|
	add         sp,sp,#0x20
	ldr         lr,[sp],#0x10
	ret

	ENDP  ; |list_remove|

; Function compile flags: /Odtpy
; File C:\Users\paras\source\repos\grep-name\XenevaOS\KernelAA64\list.c

	AREA	|.text$mn|, CODE, ARM64

|list_add| PROC

; 46   : void list_add(list_t* list, void* data) {

|$LN7|
	str         lr,[sp,#-0x10]!
	sub         sp,sp,#0x20
	str         x0,[sp,#0x10]
	str         x1,[sp,#0x18]

; 47   : 	dataentry* current_data = (dataentry*)kmalloc(sizeof(dataentry));

	mov         w0,#0x18
	bl          kmalloc
	str         x0,[sp]

; 48   : 	current_data->next = NULL;

	ldr         x9,[sp]
	mov         x8,#0
	str         x8,[x9]

; 49   : 	current_data->prev = NULL;

	ldr         x8,[sp]
	add         x9,x8,#8
	mov         x8,#0
	str         x8,[x9]

; 50   : 	current_data->data = data;

	ldr         x8,[sp]
	add         x9,x8,#0x10
	ldr         x8,[sp,#0x18]
	str         x8,[x9]

; 51   : 
; 52   : 	/*dmb_sy();
; 53   : 	dmb_ish();
; 54   : 	dsb_sy_barrier();
; 55   : 	dsb_ish();*/
; 56   : 
; 57   : 	if (!list->entry_current) {

	ldr         x8,[sp,#0x10]
	add         x8,x8,#8
	ldr         x8,[x8]
	cmp         x8,#0
	bne         |$LN4@list_add|

; 58   : 		list->entry_current = current_data;

	ldr         x8,[sp,#0x10]
	add         x9,x8,#8
	ldr         x8,[sp]
	str         x8,[x9]

; 59   : 	}

	b           |$LN5@list_add|
|$LN4@list_add|

; 60   : 	else {
; 61   : 		dataentry* current_entry = list->entry_current;

	ldr         x8,[sp,#0x10]
	add         x8,x8,#8
	ldr         x8,[x8]
	str         x8,[sp,#8]
|$LN2@list_add|

; 62   : 		while (current_entry->next) {

	ldr         x8,[sp,#8]
	ldr         x8,[x8]
	cmp         x8,#0
	beq         |$LN3@list_add|

; 63   : 			current_entry = current_entry->next;

	ldr         x8,[sp,#8]
	ldr         x8,[x8]
	str         x8,[sp,#8]

; 64   : 		}

	b           |$LN2@list_add|
|$LN3@list_add|

; 65   : 		current_entry->next = current_data;

	ldr         x9,[sp,#8]
	ldr         x8,[sp]
	str         x8,[x9]

; 66   : 		current_data->prev = current_entry;

	ldr         x8,[sp]
	add         x9,x8,#8
	ldr         x8,[sp,#8]
	str         x8,[x9]
|$LN5@list_add|

; 67   : 	}
; 68   : 	/*dmb_sy();
; 69   : 	dmb_ish();
; 70   : 	dsb_sy_barrier();
; 71   : 	dsb_ish();*/
; 72   : 
; 73   : 	list->pointer++;

	ldr         x8,[sp,#0x10]
	ldr         w8,[x8]
	add         w9,w8,#1
	ldr         x8,[sp,#0x10]
	str         w9,[x8]
	add         sp,sp,#0x20
	ldr         lr,[sp],#0x10
	ret

	ENDP  ; |list_add|

; Function compile flags: /Odtpy
; File C:\Users\paras\source\repos\grep-name\XenevaOS\KernelAA64\list.c

	AREA	|.text$mn|, CODE, ARM64

|initialize_list| PROC

; 38   : list_t* initialize_list() {

|$LN3|
	str         lr,[sp,#-0x10]!
	sub         sp,sp,#0x10

; 39   : 	list_t* list = (list_t*)kmalloc(sizeof(list_t));

	mov         w0,#0x10
	bl          kmalloc
	str         x0,[sp]

; 40   : 	list->entry_current = NULL;

	ldr         x8,[sp]
	add         x9,x8,#8
	mov         x8,#0
	str         x8,[x9]

; 41   : 	list->pointer = 0;

	ldr         x9,[sp]
	mov         w8,#0
	str         w8,[x9]

; 42   : 	return list;

	ldr         x0,[sp]
	add         sp,sp,#0x10
	ldr         lr,[sp],#0x10
	ret

	ENDP  ; |initialize_list|

	END
