; Listing generated by Microsoft (R) Optimizing Compiler Version 19.29.30159.0 

	TTL	C:\Users\paras\source\repos\grep-name\XenevaOS\KernelAA64\ARM64\Debug\loader.obj
	ARM64

	AREA	|.drectve|, DRECTVE


	AREA	|.data|, DATA
	 COMMON	|_ldr_scratchBuffer|, 0x8

	 COMMON	|physFrames|, 0x200


	AREA	|.rdata|, DATA, READONLY
|MAGIC_NATIVE| DCD 0x10b
|MACHINE_NATIVE| DCD 0x14c
	EXPORT	|AuInitialiseLoader|
	EXPORT	|AuLoadExecToProcess|
	EXPORT	|AuProcessEntUser|
	EXPORT	|testFunc|
	EXPORT	|AuLoaderMapExecFromCache|
	IMPORT	|AuPEFileIsDynamicallyLinked|
	IMPORT	|AuVFSOpen|
	IMPORT	|AuVFSFind|
	IMPORT	|AuVFSNodeReadBlock|
	IMPORT	|AuCreateKthread|
	IMPORT	|AuGetCurrentThread|
	IMPORT	|UARTDebugOut|
	IMPORT	|strcmp|
	IMPORT	|strcpy|
	IMPORT	|strlen|
	IMPORT	|strchr|
	IMPORT	|memset|
	IMPORT	|memcpy|
	IMPORT	|AuPmmngrAlloc|
	IMPORT	|P2V|
	IMPORT	|V2P|
	IMPORT	|AuMapPage|
	IMPORT	|AuMapPageEx|
	IMPORT	|kmalloc|
	IMPORT	|kfree|
	IMPORT	|AuTextOut|
	IMPORT	|mask_irqs|
	IMPORT	|aa64_enter_user|
	IMPORT	|AuMmngrAddFileBack|
	IMPORT	|AuMmngrFileCacheLookup|
	IMPORT	|AuMmngrPageCacheCreate|
	IMPORT	|AuMmngrFileCacheGetByIndex|
	IMPORT	|AuMmngrFileBackAddPageCache|

	AREA	|.pdata|, PDATA
|$pdata$AuInitialiseLoader| DCD imagerel |$LN10|
	DCD	0x12100e5
	;Flags[SingleProEpi] functionLength[228] RegF[0] RegI[1] H[0] frameChainReturn[UnChainedSavedLR] frameSize[32]
|$pdata$AuLoadExecToProcess| DCD imagerel |$LN27|
	DCD	0x8a007c9
	;Flags[SingleProEpi] functionLength[1992] RegF[0] RegI[0] H[0] frameChainReturn[UnChainedSavedLR] frameSize[272]
|$pdata$AuProcessEntUser| DCD imagerel |$LN39|
	DCD	0x2a003e9
	;Flags[SingleProEpi] functionLength[1000] RegF[0] RegI[0] H[0] frameChainReturn[UnChainedSavedLR] frameSize[80]
|$pdata$testFunc| DCD imagerel |$LN3|
	DCD	0x1200031
	;Flags[SingleProEpi] functionLength[48] RegF[0] RegI[0] H[0] frameChainReturn[UnChainedSavedLR] frameSize[32]
|$pdata$AuLoaderMapExecFromCache| DCD imagerel |$LN18|
	DCD	0x6200365
	;Flags[SingleProEpi] functionLength[868] RegF[0] RegI[0] H[0] frameChainReturn[UnChainedSavedLR] frameSize[192]

	AREA	|.data|, DATA
|$SG3774| DCB	"x0: %x x1 : %x ", 0xd, 0xa, 0x0
	%	6
|$SG3879| DCB	"AuLoaderMapExecFromCache : %x, %x %xr", 0xa, 0x0
	%	1
|$SG3881| DCB	"Name : %s ", 0xd, 0xa, 0x0
	%	3
|$SG3958| DCB	"exe", 0x0
	%	4
|$SG3959| DCB	"[aurora]: non-executable process ", 0xd, 0xa, 0x0
	%	4
|$SG3962| DCB	"[loader.c]: file : %s was not in cache adding it ", 0xd, 0xa
	DCB	0x0
	%	4
|$SG3964| DCB	"No File found -> %s ", 0xd, 0xa, 0x0
	%	1
|$SG3972| DCB	"The process %s is Dynamically Linked", 0xa, 0x0
	%	2
|$SG3974| DCB	"/xeldr.exe", 0x0
	%	5
|$SG3978| DCB	"Arguments address already mapped ", 0xa, 0x0
	%	5
|$SG3990| DCB	"[aurora]: Kernel-level loader initialized ", 0xd, 0xa, 0x0
; Function compile flags: /Odtpy
; File C:\Users\paras\source\repos\grep-name\XenevaOS\KernelAA64\loader.c

	AREA	|.text$mn|, CODE, ARM64

|AuLoaderMapExecFromCache| PROC

; 131  : void AuLoaderMapExecFromCache(AuProcess* proc, AuMMFileBack *fb,PIMAGE_NT_HEADERS nt, PSECTION_HEADER secthdr, uint64_t _image_base_) {

|$LN18|
	str         lr,[sp,#-0x10]!
	sub         sp,sp,#0xB0
	str         x0,[sp,#0x50]
	str         x1,[sp,#0x30]
	str         x2,[sp,#0x68]
	str         x3,[sp,#0x18]
	str         x4,[sp,#0x70]

; 132  : 	UARTDebugOut("AuLoaderMapExecFromCache : %x, %x %xr\n", proc, fb, fb->file);

	ldr         x8,[sp,#0x30]
	ldr         x3,[x8]
	ldr         x2,[sp,#0x30]
	ldr         x1,[sp,#0x50]
	adrp        x8,|$SG3879|
	add         x0,x8,PageOffset(|$SG3879|)
	bl          UARTDebugOut

; 133  : 	if (fb->file)

	ldr         x8,[sp,#0x30]
	ldr         x8,[x8]
	cmp         x8,#0
	beq         |$LN11@AuLoaderMa|

; 134  : 		UARTDebugOut("Name : %s \r\n", fb->file->filename);

	ldr         x8,[sp,#0x30]
	ldr         x1,[x8]
	adrp        x8,|$SG3881|
	add         x0,x8,PageOffset(|$SG3881|)
	bl          UARTDebugOut
|$LN11@AuLoaderMa|

; 135  : 	for (size_t i = 0; i < nt->FileHeader.NumberOfSections; ++i) {

	mov         x8,#0
	str         x8,[sp,#0x10]
	b           |$LN4@AuLoaderMa|
|$LN2@AuLoaderMa|
	ldr         x8,[sp,#0x10]
	add         x8,x8,#1
	str         x8,[sp,#0x10]
|$LN4@AuLoaderMa|
	ldr         x8,[sp,#0x68]
	add         x8,x8,#6
	ldrh        w8,[x8]
	mov         w8,w8
	sxtw        x9,w8
	ldr         x8,[sp,#0x10]
	cmp         x8,x9
	bhs         |$LN3@AuLoaderMa|

; 136  : 		size_t load_addr = _image_base_ + secthdr[i].VirtualAddress;

	ldr         x9,[sp,#0x10]
	mov         x8,#0x28
	mul         x9,x9,x8
	ldr         x8,[sp,#0x18]
	add         x8,x8,x9
	add         x8,x8,#0xC
	ldr         w8,[x8]
	uxtw        x9,w8
	ldr         x8,[sp,#0x70]
	add         x8,x8,x9
	str         x8,[sp,#0x48]

; 137  : 		void* sect_addr = (void*)load_addr;

	ldr         x8,[sp,#0x48]
	str         x8,[sp,#0x98]

; 138  : 		size_t sectsz = secthdr[i].VirtualSize;

	ldr         x9,[sp,#0x10]
	mov         x8,#0x28
	mul         x9,x9,x8
	ldr         x8,[sp,#0x18]
	add         x8,x8,x9
	add         x8,x8,#8
	ldr         w8,[x8]
	uxtw        x8,w8
	str         x8,[sp,#0x58]

; 139  : 		int req_pages = sectsz / 4096 +

	ldr         x10,[sp,#0x58]
	mov         x9,#0x1000
	udiv        x8,x10,x9
	mul         x8,x8,x9
	sub         x8,x10,x8
	cmp         x8,#0
	beq         |$LN16@AuLoaderMa|
	mov         w8,#1
	str         w8,[sp,#0x28]
	b           |$LN17@AuLoaderMa|
|$LN16@AuLoaderMa|
	mov         w8,#0
	str         w8,[sp,#0x28]
|$LN17@AuLoaderMa|
	ldr         x9,[sp,#0x58]
	mov         x8,#0x1000
	udiv        x9,x9,x8
	ldr         w8,[sp,#0x28]
	sxtw        x8,w8
	add         x8,x9,x8
	mov         w8,w8
	str         w8,[sp,#0x2C]

; 140  : 			((sectsz % 4096) ? 1 : 0);
; 141  : 		uint64_t* block = 0;

	mov         x8,#0
	str         x8,[sp,#0x60]

; 142  : 		int physFrameIndex = 0;

	mov         w8,#0
	str         w8,[sp,#8]

; 143  : 		size_t rawSize = secthdr[i].SizeOfRawData;

	ldr         x9,[sp,#0x10]
	mov         x8,#0x28
	mul         x9,x9,x8
	ldr         x8,[sp,#0x18]
	add         x8,x8,x9
	add         x8,x8,#0x10
	ldr         w8,[x8]
	uxtw        x8,w8
	str         x8,[sp,#0xA0]

; 144  : 		size_t virtSize = secthdr[i].VirtualSize;

	ldr         x9,[sp,#0x10]
	mov         x8,#0x28
	mul         x9,x9,x8
	ldr         x8,[sp,#0x18]
	add         x8,x8,x9
	add         x8,x8,#8
	ldr         w8,[x8]
	uxtw        x8,w8
	str         x8,[sp,#0xA8]

; 145  : 		size_t fileOffset = secthdr[i].PointerToRawData;

	ldr         x9,[sp,#0x10]
	mov         x8,#0x28
	mul         x9,x9,x8
	ldr         x8,[sp,#0x18]
	add         x8,x8,x9
	add         x8,x8,#0x14
	ldr         w8,[x8]
	uxtw        x8,w8
	str         x8,[sp,#0x78]

; 146  : 		int page_index = fileOffset / PAGE_SIZE;

	ldr         x9,[sp,#0x78]
	mov         x8,#0x1000
	udiv        x8,x9,x8
	mov         w8,w8
	str         w8,[sp,#0x38]

; 147  : 		AuMMPageCache* cache = AuMmngrFileCacheGetByIndex(fb, page_index);

	ldr         w8,[sp,#0x38]
	sxtw        x1,w8
	ldr         x0,[sp,#0x30]
	bl          AuMmngrFileCacheGetByIndex
	str         x0,[sp,#0x20]

; 148  : 		if (secthdr[i].Characteristics & IMAGE_SCN_MEM_WRITE) {

	ldr         x9,[sp,#0x10]
	mov         x8,#0x28
	mul         x9,x9,x8
	ldr         x8,[sp,#0x18]
	add         x8,x8,x9
	add         x8,x8,#0x24
	ldr         w8,[x8]
	tbz         x8,#0x1F,|$LN12@AuLoaderMa|

; 149  : 			for (int j = 0; j < req_pages; j++) {

	mov         w8,#0
	str         w8,[sp]
	b           |$LN7@AuLoaderMa|
|$LN5@AuLoaderMa|
	ldr         w8,[sp]
	add         w8,w8,#1
	str         w8,[sp]
|$LN7@AuLoaderMa|
	ldr         w9,[sp,#0x2C]
	ldr         w8,[sp]
	cmp         w8,w9
	bge         |$LN6@AuLoaderMa|

; 150  : 				uint64_t alloc = (load_addr + j * 0x1000);

	ldr         w9,[sp]
	mov         w8,#0x1000
	mul         w8,w9,w8
	sxtw        x9,w8
	ldr         x8,[sp,#0x48]
	add         x8,x8,x9
	str         x8,[sp,#0x80]

; 151  : 					uint64_t phys = P2V((size_t)AuPmmngrAlloc());

	bl          AuPmmngrAlloc
	bl          P2V
	str         x0,[sp,#0x40]

; 152  : 					AuMapPageEx(proc->cr3, V2P(phys), alloc, PTE_USER_EXECUTABLE | PTE_AP_RW_USER | PTE_NORMAL_MEM);

	ldr         x0,[sp,#0x40]
	bl          V2P
	ldr         x8,[sp,#0x50]
	add         x8,x8,#0x18
	mov         w3,#0x44
	ldr         x2,[sp,#0x80]
	mov         x1,x0
	ldr         x0,[x8]
	bl          AuMapPageEx

; 153  : 					if (!block)

	ldr         x8,[sp,#0x60]
	cmp         x8,#0
	bne         |$LN14@AuLoaderMa|

; 154  : 						block = (uint64_t*)phys;

	ldr         x8,[sp,#0x40]
	str         x8,[sp,#0x60]
|$LN14@AuLoaderMa|

; 155  : 					memcpy(phys, (void*)P2V(cache->physicalPage), PAGE_SIZE);

	ldr         x8,[sp,#0x20]
	ldr         x0,[x8]
	bl          P2V
	mov         x2,#0x1000
	mov         x1,x0
	ldr         x0,[sp,#0x40]
	bl          memcpy

; 156  : 				physFrameIndex++;

	ldr         w8,[sp,#8]
	add         w8,w8,#1
	str         w8,[sp,#8]

; 157  : 				cache = cache->next;

	ldr         x8,[sp,#0x20]
	add         x8,x8,#0x18
	ldr         x8,[x8]
	str         x8,[sp,#0x20]

; 158  : 			}

	b           |$LN5@AuLoaderMa|
|$LN6@AuLoaderMa|

; 159  : 		}

	b           |$LN13@AuLoaderMa|
|$LN12@AuLoaderMa|

; 160  : 		else {
; 161  : 			for (int j = 0; j < req_pages; j++) {

	mov         w8,#0
	str         w8,[sp,#4]
	b           |$LN10@AuLoaderMa|
|$LN8@AuLoaderMa|
	ldr         w8,[sp,#4]
	add         w8,w8,#1
	str         w8,[sp,#4]
|$LN10@AuLoaderMa|
	ldr         w9,[sp,#0x2C]
	ldr         w8,[sp,#4]
	cmp         w8,w9
	bge         |$LN9@AuLoaderMa|

; 162  : 				uint64_t alloc = (load_addr + j * 0x1000);

	ldr         w9,[sp,#4]
	mov         w8,#0x1000
	mul         w8,w9,w8
	sxtw        x9,w8
	ldr         x8,[sp,#0x48]
	add         x8,x8,x9
	str         x8,[sp,#0x88]

; 163  : 				uint64_t phys = cache->physicalPage; //P2V((size_t)AuPmmngrAlloc());

	ldr         x8,[sp,#0x20]
	ldr         x8,[x8]
	str         x8,[sp,#0x90]

; 164  : 				AuMapPageEx(proc->cr3, phys, alloc, PTE_USER_EXECUTABLE | PTE_AP_RW_USER | PTE_NORMAL_MEM);

	ldr         x8,[sp,#0x50]
	add         x8,x8,#0x18
	mov         w3,#0x44
	ldr         x2,[sp,#0x88]
	ldr         x1,[sp,#0x90]
	ldr         x0,[x8]
	bl          AuMapPageEx

; 165  : 				physFrameIndex++;

	ldr         w8,[sp,#8]
	add         w8,w8,#1
	str         w8,[sp,#8]

; 166  : 				cache = cache->next;

	ldr         x8,[sp,#0x20]
	add         x8,x8,#0x18
	ldr         x8,[x8]
	str         x8,[sp,#0x20]

; 167  : 			}

	b           |$LN8@AuLoaderMa|
|$LN9@AuLoaderMa|
|$LN13@AuLoaderMa|

; 168  : 		}
; 169  : 	}

	b           |$LN2@AuLoaderMa|
|$LN3@AuLoaderMa|
	add         sp,sp,#0xB0
	ldr         lr,[sp],#0x10
	ret

	ENDP  ; |AuLoaderMapExecFromCache|

; Function compile flags: /Odtpy
; File C:\Users\paras\source\repos\grep-name\XenevaOS\KernelAA64\loader.c

	AREA	|.text$mn|, CODE, ARM64

|testFunc| PROC

; 73   : void testFunc(uint64_t x0, uint64_t x1) {

|$LN3|
	str         lr,[sp,#-0x10]!
	sub         sp,sp,#0x10
	str         x0,[sp,#8]
	str         x1,[sp]

; 74   : 	UARTDebugOut("x0: %x x1 : %x \r\n", x0, x1);

	ldr         x2,[sp]
	ldr         x1,[sp,#8]
	adrp        x8,|$SG3774|
	add         x0,x8,PageOffset(|$SG3774|)
	bl          UARTDebugOut
	add         sp,sp,#0x10
	ldr         lr,[sp],#0x10
	ret

	ENDP  ; |testFunc|

; Function compile flags: /Odtpy
; File C:\Users\paras\source\repos\grep-name\XenevaOS\KernelAA64\loader.c

	AREA	|.text$mn|, CODE, ARM64

|AuProcessEntUser| PROC

; 83   : void AuProcessEntUser(uint64_t rcx) {

|$LN39|
	str         lr,[sp,#-0x10]!
	sub         sp,sp,#0x40
	str         x0,[sp,#0x38]

; 84   : 	mask_irqs();

	bl          mask_irqs

; 85   : 	AA64Thread* t = AuGetCurrentThread();

	bl          AuGetCurrentThread
	str         x0,[sp,#0x18]

; 86   : 	AuUserEntry* uentry = t->uentry;

	ldr         x8,[sp,#0x18]
	add         x8,x8,#0xE0
	ldr         x8,[x8]
	str         x8,[sp]

; 87   : 	uentry->rsp -= 32;

	ldr         x8,[sp]
	add         x8,x8,#8
	ldr         x8,[x8]
	sub         x9,x8,#0x20
	ldr         x8,[sp]
	add         x8,x8,#8
	str         x9,[x8]
|$LN4@AuProcessE|

; 88   : 	PUSHALIGN(uentry->rsp, 16);

	ldr         x8,[sp]
	add         x8,x8,#8
	ldr         x8,[x8]
	and         x9,x8,#-0x10
	ldr         x8,[sp]
	add         x8,x8,#8
	str         x9,[x8]
	mov         w8,#0
	cmp         w8,#0
	bne         |$LN4@AuProcessE|

; 89   : 	t->first_run = 1;

	ldr         x8,[sp,#0x18]
	add         x9,x8,#0xE8
	mov         w8,#1
	strb        w8,[x9]

; 90   : 	/* do all arguments passing stuff, arguments
; 91   : 	 * are passed as strings to stack
; 92   : 	 */
; 93   : 
; 94   : 	char** argvs = (char**)uentry->argvaddr;

	ldr         x8,[sp]
	add         x8,x8,#0x28
	ldr         x8,[x8]
	str         x8,[sp,#0x28]

; 95   : 	for (int i = 0; i < uentry->num_args; i++) {

	mov         w8,#0
	str         w8,[sp,#8]
	b           |$LN7@AuProcessE|
|$LN5@AuProcessE|
	ldr         w8,[sp,#8]
	add         w8,w8,#1
	str         w8,[sp,#8]
|$LN7@AuProcessE|
	ldr         x8,[sp]
	add         x8,x8,#0x20
	ldr         w9,[x8]
	ldr         w8,[sp,#8]
	cmp         w8,w9
	bge         |$LN6@AuProcessE|

; 96   : 		char* str = uentry->argvs[i];

	ldr         x8,[sp]
	add         x10,x8,#0x30
	ldr         w8,[sp,#8]
	sxtw        x9,w8
	mov         x8,#8
	mul         x9,x9,x8
	ldr         x8,[x10]
	add         x8,x8,x9
	ldr         x8,[x8]
	str         x8,[sp,#0x20]

; 97   : 		for (int j = strlen(str); j >= 0; j--) {

	ldr         x0,[sp,#0x20]
	bl          strlen
	mov         w8,w0
	str         w8,[sp,#0xC]
	b           |$LN10@AuProcessE|
|$LN8@AuProcessE|
	ldr         w8,[sp,#0xC]
	sub         w8,w8,#1
	str         w8,[sp,#0xC]
|$LN10@AuProcessE|
	ldr         w8,[sp,#0xC]
	cmp         w8,#0
	blt         |$LN9@AuProcessE|
|$LN13@AuProcessE|

; 98   : 			PUSH(uentry->rsp, char, str[j]);

	ldr         x8,[sp]
	add         x8,x8,#8
	ldr         x8,[x8]
	sub         x9,x8,#1
	ldr         x8,[sp]
	add         x8,x8,#8
	str         x9,[x8]
|$LN14@AuProcessE|
	ldr         x8,[sp]
	add         x8,x8,#8
	ldr         x9,[x8]
	mov         x8,#0
	and         x8,x9,x8
	cmp         x8,#0
	beq         |$LN15@AuProcessE|
	ldr         x8,[sp]
	add         x8,x8,#8
	ldr         x8,[x8]
	sub         x9,x8,#1
	ldr         x8,[sp]
	add         x8,x8,#8
	str         x9,[x8]
	b           |$LN14@AuProcessE|
|$LN15@AuProcessE|
	ldr         w8,[sp,#0xC]
	sxtw        x9,w8
	mov         x8,#1
	mul         x9,x9,x8
	ldr         x8,[sp,#0x20]
	add         x10,x8,x9
	ldr         x8,[sp]
	add         x8,x8,#8
	ldr         x9,[x8]
	ldrsb       w8,[x10]
	strb        w8,[x9]
	mov         w8,#0
	cmp         w8,#0
	bne         |$LN13@AuProcessE|

; 99   : 		}

	b           |$LN8@AuProcessE|
|$LN9@AuProcessE|

; 100  : 		argvs[i] = (char*)uentry->rsp;

	ldr         x8,[sp]
	add         x10,x8,#8
	ldr         w8,[sp,#8]
	sxtw        x9,w8
	mov         x8,#8
	mul         x9,x9,x8
	ldr         x8,[sp,#0x28]
	add         x9,x8,x9
	ldr         x8,[x10]
	str         x8,[x9]

; 101  : 	}

	b           |$LN5@AuProcessE|
|$LN6@AuProcessE|

; 102  : 
; 103  : 	/* I think this code should be placed in _KeProcessExit */
; 104  : 	if (uentry->argvs) {

	ldr         x8,[sp]
	add         x8,x8,#0x30
	ldr         x8,[x8]
	cmp         x8,#0
	beq         |$LN37@AuProcessE|

; 105  : 		for (int i = 0; i < uentry->num_args; i++) {

	mov         w8,#0
	str         w8,[sp,#0x10]
	b           |$LN18@AuProcessE|
|$LN16@AuProcessE|
	ldr         w8,[sp,#0x10]
	add         w8,w8,#1
	str         w8,[sp,#0x10]
|$LN18@AuProcessE|
	ldr         x8,[sp]
	add         x8,x8,#0x20
	ldr         w9,[x8]
	ldr         w8,[sp,#0x10]
	cmp         w8,w9
	bge         |$LN17@AuProcessE|

; 106  : 			//uint64_t addr = (uint64_t)uentry->argvs[i];
; 107  : 			kfree(uentry->argvs[i]);

	ldr         x8,[sp]
	add         x10,x8,#0x30
	ldr         w8,[sp,#0x10]
	sxtw        x9,w8
	mov         x8,#8
	mul         x9,x9,x8
	ldr         x8,[x10]
	add         x8,x8,x9
	ldr         x0,[x8]
	bl          kfree

; 108  : 		}

	b           |$LN16@AuProcessE|
|$LN17@AuProcessE|

; 109  : 		void* address = (void*)uentry->argvs;

	ldr         x8,[sp]
	add         x8,x8,#0x30
	ldr         x8,[x8]
	str         x8,[sp,#0x30]

; 110  : 		kfree(address);

	ldr         x0,[sp,#0x30]
	bl          kfree
|$LN37@AuProcessE|
|$LN21@AuProcessE|

; 111  : 	}
; 112  : 	PUSHALIGN(uentry->rsp, 16);

	ldr         x8,[sp]
	add         x8,x8,#8
	ldr         x8,[x8]
	and         x9,x8,#-0x10
	ldr         x8,[sp]
	add         x8,x8,#8
	str         x9,[x8]
	mov         w8,#0
	cmp         w8,#0
	bne         |$LN21@AuProcessE|

; 113  : 	uentry->argvs = 0;

	ldr         x8,[sp]
	add         x9,x8,#0x30
	mov         x8,#0
	str         x8,[x9]
|$LN24@AuProcessE|

; 114  : 	PUSH(uentry->rsp, size_t, (size_t)uentry->argvaddr);

	ldr         x8,[sp]
	add         x8,x8,#8
	ldr         x8,[x8]
	sub         x9,x8,#8
	ldr         x8,[sp]
	add         x8,x8,#8
	str         x9,[x8]
|$LN25@AuProcessE|
	ldr         x8,[sp]
	add         x8,x8,#8
	ldr         x8,[x8]
	and         x8,x8,#7
	cmp         x8,#0
	beq         |$LN26@AuProcessE|
	ldr         x8,[sp]
	add         x8,x8,#8
	ldr         x8,[x8]
	sub         x9,x8,#1
	ldr         x8,[sp]
	add         x8,x8,#8
	str         x9,[x8]
	b           |$LN25@AuProcessE|
|$LN26@AuProcessE|
	ldr         x8,[sp]
	add         x10,x8,#0x28
	ldr         x8,[sp]
	add         x8,x8,#8
	ldr         x9,[x8]
	ldr         x8,[x10]
	str         x8,[x9]
	mov         w8,#0
	cmp         w8,#0
	bne         |$LN24@AuProcessE|
|$LN29@AuProcessE|

; 115  : 	PUSH(uentry->rsp, size_t, (size_t)uentry->num_args);

	ldr         x8,[sp]
	add         x8,x8,#8
	ldr         x8,[x8]
	sub         x9,x8,#8
	ldr         x8,[sp]
	add         x8,x8,#8
	str         x9,[x8]
|$LN30@AuProcessE|
	ldr         x8,[sp]
	add         x8,x8,#8
	ldr         x8,[x8]
	and         x8,x8,#7
	cmp         x8,#0
	beq         |$LN31@AuProcessE|
	ldr         x8,[sp]
	add         x8,x8,#8
	ldr         x8,[x8]
	sub         x9,x8,#1
	ldr         x8,[sp]
	add         x8,x8,#8
	str         x9,[x8]
	b           |$LN30@AuProcessE|
|$LN31@AuProcessE|
	ldr         x8,[sp]
	add         x8,x8,#0x20
	ldr         w8,[x8]
	sxtw        x9,w8
	ldr         x8,[sp]
	add         x8,x8,#8
	ldr         x8,[x8]
	str         x9,[x8]
	mov         w8,#0
	cmp         w8,#0
	bne         |$LN29@AuProcessE|
|$LN34@AuProcessE|

; 116  : 	PUSHALIGN(uentry->rsp, 16);

	ldr         x8,[sp]
	add         x8,x8,#8
	ldr         x8,[x8]
	and         x9,x8,#-0x10
	ldr         x8,[sp]
	add         x8,x8,#8
	str         x9,[x8]
	mov         w8,#0
	cmp         w8,#0
	bne         |$LN34@AuProcessE|

; 117  : 	aa64_enter_user(uentry->rsp, uentry->entrypoint);

	ldr         x9,[sp]
	ldr         x8,[sp]
	add         x8,x8,#8
	ldr         x1,[x9]
	ldr         x0,[x8]
	bl          aa64_enter_user
|$LN35@AuProcessE|

; 118  : 	while (1) {

	mov         w8,#1
	cmp         w8,#0
	beq         |$LN36@AuProcessE|

; 119  : 	}

	b           |$LN35@AuProcessE|
|$LN36@AuProcessE|
	add         sp,sp,#0x40
	ldr         lr,[sp],#0x10
	ret

	ENDP  ; |AuProcessEntUser|

; Function compile flags: /Odtpy
; File C:\Users\paras\source\repos\grep-name\XenevaOS\KernelAA64\loader.c

	AREA	|.text$mn|, CODE, ARM64

|AuLoadExecToProcess| PROC

; 183  : int AuLoadExecToProcess(AuProcess* proc, char* filename, int argc, char** argv) {

|$LN27|
	str         lr,[sp,#-0x10]!
	sub         sp,sp,#0x100
	str         x0,[sp,#0x38]
	str         x1,[sp,#0x28]
	str         w2,[sp,#0x1C]
	str         x3,[sp,#0x40]

; 184  : 	/* verify the filename, it can only be '.exe' file no '.dll' or other */
; 185  : #ifdef __KERNEL_PROFILER_ON__
; 186  : 	PROFILE_START("AuLoadExecToProcess");
; 187  : #endif
; 188  : 	char* v_ = strchr(filename, '.');

	mov         w1,#0x2E
	ldr         x0,[sp,#0x28]
	bl          strchr
	str         x0,[sp,#0x68]

; 189  : 	if (v_)

	ldr         x8,[sp,#0x68]
	cmp         x8,#0
	beq         |$LN10@AuLoadExec|

; 190  : 		v_++;

	ldr         x8,[sp,#0x68]
	add         x8,x8,#1
	str         x8,[sp,#0x68]
|$LN10@AuLoadExec|

; 191  : 	if (strcmp(v_, "exe") != 0) {

	adrp        x8,|$SG3958|
	add         x1,x8,PageOffset(|$SG3958|)
	ldr         x0,[sp,#0x68]
	bl          strcmp
	mov         w0,w0
	cmp         w0,#0
	beq         |$LN11@AuLoadExec|

; 192  : 		UARTDebugOut("[aurora]: non-executable process \r\n");

	adrp        x8,|$SG3959|
	add         x0,x8,PageOffset(|$SG3959|)
	bl          UARTDebugOut

; 193  : 		return -1;

	mov         w0,#-1
	b           |$LN1@AuLoadExec|
|$LN11@AuLoadExec|

; 194  : 	}
; 195  : 
; 196  : 	AuMMFileBack* fb = AuMmngrFileCacheLookup(filename);

	ldr         x0,[sp,#0x28]
	bl          AuMmngrFileCacheLookup
	str         x0,[sp,#8]

; 197  : 
; 198  : 	AuVFSNode* fsys = AuVFSFind(filename);

	ldr         x0,[sp,#0x28]
	bl          AuVFSFind
	str         x0,[sp,#0x88]

; 199  : 	AuVFSNode* file = NULL;

	mov         x8,#0
	str         x8,[sp,#0x10]

; 200  : 	if (fb) {

	ldr         x8,[sp,#8]
	cmp         x8,#0
	beq         |$LN12@AuLoadExec|

; 201  : 		file = fb->file;

	ldr         x8,[sp,#8]
	ldr         x8,[x8]
	str         x8,[sp,#0x10]

; 202  : 	}

	b           |$LN13@AuLoadExec|
|$LN12@AuLoadExec|

; 203  : 	else {
; 204  : 		UARTDebugOut("[loader.c]: file : %s was not in cache adding it \r\n", filename);

	ldr         x1,[sp,#0x28]
	adrp        x8,|$SG3962|
	add         x0,x8,PageOffset(|$SG3962|)
	bl          UARTDebugOut

; 205  : 		file = AuVFSOpen(filename);

	ldr         x0,[sp,#0x28]
	bl          AuVFSOpen
	str         x0,[sp,#0x10]

; 206  : 		fb = (AuMMFileBack*)kmalloc(sizeof(AuMMFileBack));

	mov         w0,#0x30
	bl          kmalloc
	str         x0,[sp,#8]

; 207  : 		memset(fb, 0, sizeof(AuMMFileBack));

	mov         w2,#0x30
	mov         w1,#0
	ldr         x0,[sp,#8]
	bl          memset

; 208  : 		file->flags |= FS_FLAG_CACHED;

	ldr         x8,[sp,#0x10]
	add         x8,x8,#0x40
	ldrh        w8,[x8]
	mov         w8,w8
	orr         w10,w8,#0x800
	ldr         x8,[sp,#0x10]
	add         x9,x8,#0x40
	uxth        w8,w10
	strh        w8,[x9]

; 209  : 		fb->file = file;

	ldr         x9,[sp,#8]
	ldr         x8,[sp,#0x10]
	str         x8,[x9]

; 210  : 		fb->pageCache = NULL;

	ldr         x8,[sp,#8]
	add         x9,x8,#8
	mov         x8,#0
	str         x8,[x9]

; 211  : 		fb->pageCacheLast = NULL;

	ldr         x8,[sp,#8]
	add         x9,x8,#0x10
	mov         x8,#0
	str         x8,[x9]

; 212  : 		fb->readComplete = false;

	ldr         x8,[sp,#8]
	add         x9,x8,#0x18
	mov         w8,#0
	strb        w8,[x9]

; 213  : 		AuMmngrAddFileBack(fb);

	ldr         x0,[sp,#8]
	bl          AuMmngrAddFileBack
|$LN13@AuLoadExec|

; 214  : 		//aa64_data_cache_clean_range(fb, sizeof(AuMMFileBack));
; 215  : 	}
; 216  : 	if (!file) {

	ldr         x8,[sp,#0x10]
	cmp         x8,#0
	bne         |$LN14@AuLoadExec|

; 217  : 		UARTDebugOut("No File found -> %s \r\n", filename);

	ldr         x1,[sp,#0x28]
	adrp        x8,|$SG3964|
	add         x0,x8,PageOffset(|$SG3964|)
	bl          UARTDebugOut

; 218  : 		return -1;

	mov         w0,#-1
	b           |$LN1@AuLoadExec|
|$LN14@AuLoadExec|

; 219  : 	}
; 220  : 	AuMMPageCache* pcache = fb->pageCache;

	ldr         x8,[sp,#8]
	add         x8,x8,#8
	ldr         x8,[x8]
	str         x8,[sp,#0x78]

; 221  : 	
; 222  : 	if (file->eof == 1 && fb->readComplete == 1)

	ldr         x8,[sp,#0x10]
	add         x8,x8,#0x24
	ldrb        w8,[x8]
	mov         w8,w8
	cmp         w8,#1
	bne         |$LN15@AuLoadExec|
	ldr         x8,[sp,#8]
	add         x8,x8,#0x18
	ldrb        w8,[x8]
	mov         w8,w8
	cmp         w8,#1
	bne         |$LN15@AuLoadExec|

; 223  : 		file->eof = 0;

	ldr         x8,[sp,#0x10]
	add         x9,x8,#0x24
	mov         w8,#0
	strb        w8,[x9]
|$LN15@AuLoadExec|

; 224  : 
; 225  : 	int sbIndex = 0;

	mov         w8,#0
	str         w8,[sp,#0x18]
|$LN2@AuLoadExec|

; 226  : 	while (file->eof != 1) {

	ldr         x8,[sp,#0x10]
	add         x8,x8,#0x24
	ldrb        w8,[x8]
	mov         w8,w8
	cmp         w8,#1
	beq         |$LN3@AuLoadExec|

; 227  : 		uint64_t physcache = NULL;

	mov         x8,#0
	str         x8,[sp,#0x48]

; 228  : 		if (fb->readComplete == false) {

	ldr         x8,[sp,#8]
	add         x8,x8,#0x18
	ldrb        w8,[x8]
	mov         w8,w8
	cmp         w8,#0
	bne         |$LN16@AuLoadExec|

; 229  : 			physcache = (uint64_t)AuPmmngrAlloc();

	bl          AuPmmngrAlloc
	str         x0,[sp,#0x48]

; 230  : 			AuMMPageCache* cache = AuMmngrPageCacheCreate();

	bl          AuMmngrPageCacheCreate
	str         x0,[sp,#0x70]

; 231  : 			cache->physicalPage = physcache;

	ldr         x9,[sp,#0x70]
	ldr         x8,[sp,#0x48]
	str         x8,[x9]

; 232  : 			cache->diskBlock = fsys->get_disk_block(fsys, file, file->current);

	ldr         x8,[sp,#0x10]
	add         x9,x8,#0x38
	ldr         x8,[sp,#0x88]
	add         x8,x8,#0xB8
	ldr         x2,[x9]
	ldr         x1,[sp,#0x10]
	ldr         x0,[sp,#0x88]
	ldr         x8,[x8]
	blr         x8
	mov         w0,w0
	ldr         x8,[sp,#0x70]
	add         x9,x8,#8
	uxtw        x8,w0
	str         x8,[x9]

; 233  : 			cache->pageIndex = sbIndex;

	ldr         x8,[sp,#0x70]
	add         x9,x8,#0x10
	ldr         w8,[sp,#0x18]
	sxtw        x8,w8
	str         x8,[x9]

; 234  : 			AuMmngrFileBackAddPageCache(fb, cache);

	ldr         x1,[sp,#0x70]
	ldr         x0,[sp,#8]
	bl          AuMmngrFileBackAddPageCache

; 235  : 			uint64_t block = ((uint64_t)_ldr_scratchBuffer + (sbIndex * 0x1000));

	ldr         w9,[sp,#0x18]
	mov         w8,#0x1000
	mul         w8,w9,w8
	sxtw        x9,w8
	adrp        x8,_ldr_scratchBuffer
	ldr         x8,[x8,PageOffset(_ldr_scratchBuffer)]
	add         x8,x8,x9
	str         x8,[sp,#0x90]

; 236  : 			memset(block, 0, 4096);

	mov         w2,#0x1000
	mov         w1,#0
	ldr         x0,[sp,#0x90]
	bl          memset

; 237  : 			AuVFSNodeReadBlock(fsys, file, block);

	ldr         x2,[sp,#0x90]
	ldr         x1,[sp,#0x10]
	ldr         x0,[sp,#0x88]
	bl          AuVFSNodeReadBlock

; 238  : 			if (physcache) {

	ldr         x8,[sp,#0x48]
	cmp         x8,#0
	beq         |$LN18@AuLoadExec|

; 239  : 				memcpy(P2V(physcache), block, PAGE_SIZE);

	ldr         x0,[sp,#0x48]
	bl          P2V
	mov         x2,#0x1000
	ldr         x1,[sp,#0x90]
	bl          memcpy
|$LN18@AuLoadExec|

; 240  : 			}
; 241  : 		}

	b           |$LN17@AuLoadExec|
|$LN16@AuLoadExec|

; 242  : 		else {
; 243  : 			if (pcache == NULL) {

	ldr         x8,[sp,#0x78]
	cmp         x8,#0
	bne         |$LN19@AuLoadExec|

; 244  : 				break;

	b           |$LN3@AuLoadExec|
|$LN19@AuLoadExec|

; 245  : 			}
; 246  : 			uint64_t block = ((uint64_t)_ldr_scratchBuffer + (sbIndex * 0x1000));

	ldr         w9,[sp,#0x18]
	mov         w8,#0x1000
	mul         w8,w9,w8
	sxtw        x9,w8
	adrp        x8,_ldr_scratchBuffer
	ldr         x8,[x8,PageOffset(_ldr_scratchBuffer)]
	add         x8,x8,x9
	str         x8,[sp,#0x98]

; 247  : 			memset(block, 0, 4096);

	mov         w2,#0x1000
	mov         w1,#0
	ldr         x0,[sp,#0x98]
	bl          memset

; 248  : 			memcpy(block, P2V(pcache->physicalPage), PAGE_SIZE);

	ldr         x8,[sp,#0x78]
	ldr         x0,[x8]
	bl          P2V
	mov         x2,#0x1000
	mov         x1,x0
	ldr         x0,[sp,#0x98]
	bl          memcpy

; 249  : 			if (physcache)

	ldr         x8,[sp,#0x48]
	cmp         x8,#0
	beq         |$LN20@AuLoadExec|

; 250  : 				memcpy(P2V(physcache), block, PAGE_SIZE);

	ldr         x0,[sp,#0x48]
	bl          P2V
	mov         x2,#0x1000
	ldr         x1,[sp,#0x98]
	bl          memcpy
|$LN20@AuLoadExec|

; 251  : 			pcache = pcache->next;

	ldr         x8,[sp,#0x78]
	add         x8,x8,#0x18
	ldr         x8,[x8]
	str         x8,[sp,#0x78]
|$LN17@AuLoadExec|

; 252  : 		}
; 253  : 		sbIndex++;

	ldr         w8,[sp,#0x18]
	add         w8,w8,#1
	str         w8,[sp,#0x18]

; 254  : 	}

	b           |$LN2@AuLoadExec|
|$LN3@AuLoadExec|

; 255  : 	
; 256  : 	fb->readComplete = 1;

	ldr         x8,[sp,#8]
	add         x9,x8,#0x18
	mov         w8,#1
	strb        w8,[x9]

; 257  : 
; 258  : 	IMAGE_DOS_HEADER* dos = (IMAGE_DOS_HEADER*)_ldr_scratchBuffer;

	adrp        x8,_ldr_scratchBuffer
	ldr         x8,[x8,PageOffset(_ldr_scratchBuffer)]
	str         x8,[sp,#0xC0]

; 259  : 	PIMAGE_NT_HEADERS nt = RAW_OFFSET(PIMAGE_NT_HEADERS,dos, dos->e_lfanew);

	ldr         x8,[sp,#0xC0]
	add         x8,x8,#0x3C
	ldrh        w8,[x8]
	mov         w8,w8
	sxtw        x9,w8
	ldr         x8,[sp,#0xC0]
	add         x8,x8,x9
	str         x8,[sp,#0x60]

; 260  : 	PSECTION_HEADER secthdr = RAW_OFFSET(PSECTION_HEADER,&nt->OptionalHeader, nt->FileHeader.SizeOfOptionaHeader);

	ldr         x8,[sp,#0x60]
	add         x9,x8,#0x18
	ldr         x8,[sp,#0x60]
	add         x8,x8,#0x14
	ldrh        w8,[x8]
	mov         w8,w8
	sxtw        x8,w8
	add         x8,x9,x8
	str         x8,[sp,#0xE0]

; 261  : 
; 262  : 	uint64_t _image_base_ = 0x60000000000;//   nt->OptionalHeader.ImageBase;

	mov         x8,#0x60000000000
	str         x8,[sp,#0xD0]

; 263  : 	entry ent = (entry)(nt->OptionalHeader.AddressOfEntryPoint + _image_base_);//nt->OptionalHeader.ImageBase);

	ldr         x8,[sp,#0x60]
	add         x8,x8,#0x28
	ldr         w8,[x8]
	uxtw        x9,w8
	ldr         x8,[sp,#0xD0]
	add         x8,x9,x8
	str         x8,[sp,#0xF0]

; 264  : 	//AuTextOut("Image base address : %x \n", dos->e_magic);
; 265  : 	uint64_t* cr3 = proc->cr3;

	ldr         x8,[sp,#0x38]
	add         x8,x8,#0x18
	ldr         x8,[x8]
	str         x8,[sp,#0xE8]

; 266  : 
; 267  : 	/* check if the binary is dynamically linked */
; 268  : 	if (AuPEFileIsDynamicallyLinked(_ldr_scratchBuffer)) {

	adrp        x8,_ldr_scratchBuffer
	ldr         x0,[x8,PageOffset(_ldr_scratchBuffer)]
	bl          AuPEFileIsDynamicallyLinked
	uxtb        w8,w0
	mov         w8,w8
	cmp         w8,#0
	beq         |$LN21@AuLoadExec|

; 269  : 		UARTDebugOut("The process %s is Dynamically Linked\n", filename);

	ldr         x1,[sp,#0x28]
	adrp        x8,|$SG3972|
	add         x0,x8,PageOffset(|$SG3972|)
	bl          UARTDebugOut

; 270  : 		/* free the current file*/
; 271  : 		//UARTDebugOut("fb : %x \r\n", fb);
; 272  : 		//aa64_data_cache_clean_range(fb, sizeof(AuMMFileBack));
; 273  : 		//AuMmngrRemoveFileBack(fb);
; 274  : 		//aa64_data_cache_clean_range(file, sizeof(AuVFSNode));
; 275  : 		//kfree(file);
; 276  : 		//AuPmmngrFree((void*)V2P((sizeof(buf))));
; 277  : 
; 278  : 		/* now load XELoader process, which'll further
; 279  : 		 * link this dynamic process with its shared
; 280  : 		 * libraries
; 281  : 		 */
; 282  : 		int char_cnt = 0;

	mov         w8,#0
	str         w8,[sp,#0x50]

; 283  : 
; 284  : 		for (int i = 0; i < argc; i++) {

	mov         w8,#0
	str         w8,[sp,#0x20]
	b           |$LN6@AuLoadExec|
|$LN4@AuLoadExec|
	ldr         w8,[sp,#0x20]
	add         w8,w8,#1
	str         w8,[sp,#0x20]
|$LN6@AuLoadExec|
	ldr         w9,[sp,#0x1C]
	ldr         w8,[sp,#0x20]
	cmp         w8,w9
	bge         |$LN5@AuLoadExec|

; 285  : 			char_cnt += strlen(argv[i]);

	ldr         w8,[sp,#0x20]
	sxtw        x9,w8
	mov         x8,#8
	mul         x9,x9,x8
	ldr         x8,[sp,#0x40]
	add         x8,x8,x9
	ldr         x0,[x8]
	bl          strlen
	ldr         w8,[sp,#0x50]
	sxtw        x8,w8
	add         x8,x8,x0
	mov         w8,w8
	str         w8,[sp,#0x50]

; 286  : 		}

	b           |$LN4@AuLoadExec|
|$LN5@AuLoadExec|

; 287  : 		/* here we allocate extra memories for each strings
; 288  : 		 * because we cannot allocate it to stack, the stack
; 289  : 		 * will get changed once we enter the desired thread
; 290  : 		 */
; 291  : 		int num_args_ = 1 + argc;

	ldr         w8,[sp,#0x1C]
	add         w8,w8,#1
	str         w8,[sp,#0x54]

; 292  : 		int string_len = strlen(filename);

	ldr         x0,[sp,#0x28]
	bl          strlen
	mov         w8,w0
	str         w8,[sp,#0x80]

; 293  : 		char* file__ = (char*)kmalloc(string_len+1);

	ldr         w8,[sp,#0x80]
	add         w0,w8,#1
	mov         w0,w0
	bl          kmalloc
	str         x0,[sp,#0xC8]

; 294  : 		strcpy(file__, filename);

	ldr         x1,[sp,#0x28]
	ldr         x0,[sp,#0xC8]
	bl          strcpy

; 295  : 	
; 296  : 		/* BUGG: if kmalloc allocates smaller memory below than 15 bytes,
; 297  : 		 * it crashes while freeing the allocated memory, that's why we
; 298  : 		 * allocate memory of size (string_len + char_cnt) * sizeof(char) for
; 299  : 		 * argument array
; 300  : 		 */
; 301  : 		char** argvs = (char**)kmalloc(num_args_ * sizeof(char*));

	ldr         w8,[sp,#0x54]
	sxtw        x9,w8
	mov         x8,#8
	mul         x8,x9,x8
	mov         w0,w8
	mov         w0,w0
	bl          kmalloc
	str         x0,[sp,#0xA8]

; 302  : 		//memset(argvs, 0, num_args_ * sizeof(char*));
; 303  : 		argvs[0] = file__;

	ldr         x9,[sp,#0xA8]
	ldr         x8,[sp,#0xC8]
	str         x8,[x9]

; 304  : 
; 305  : 		for (int i = 0; i < argc; i++) {

	mov         w8,#0
	str         w8,[sp]
	b           |$LN9@AuLoadExec|
|$LN7@AuLoadExec|
	ldr         w8,[sp]
	add         w8,w8,#1
	str         w8,[sp]
|$LN9@AuLoadExec|
	ldr         w9,[sp,#0x1C]
	ldr         w8,[sp]
	cmp         w8,w9
	bge         |$LN8@AuLoadExec|

; 306  : 			char* argpass = (char*)kmalloc(strlen(argv[i])+1);

	ldr         w8,[sp]
	sxtw        x9,w8
	mov         x8,#8
	mul         x9,x9,x8
	ldr         x8,[sp,#0x40]
	add         x8,x8,x9
	ldr         x0,[x8]
	bl          strlen
	add         x8,x0,#1
	mov         w0,w8
	mov         w0,w0
	bl          kmalloc
	str         x0,[sp,#0xA0]

; 307  : 			memset(argpass, 0, strlen(argv[i])+1);

	ldr         w8,[sp]
	sxtw        x9,w8
	mov         x8,#8
	mul         x9,x9,x8
	ldr         x8,[sp,#0x40]
	add         x8,x8,x9
	ldr         x0,[x8]
	bl          strlen
	add         x8,x0,#1
	mov         w2,w8
	mov         w2,w2
	mov         w1,#0
	ldr         x0,[sp,#0xA0]
	bl          memset

; 308  : 			strcpy(argpass, argv[i]);

	ldr         w8,[sp]
	sxtw        x9,w8
	mov         x8,#8
	mul         x9,x9,x8
	ldr         x8,[sp,#0x40]
	add         x8,x8,x9
	ldr         x1,[x8]
	ldr         x0,[sp,#0xA0]
	bl          strcpy

; 309  : 			argvs[1 + i] = argpass;

	ldr         w8,[sp]
	add         w8,w8,#1
	sxtw        x9,w8
	mov         x8,#8
	mul         x9,x9,x8
	ldr         x8,[sp,#0xA8]
	add         x9,x8,x9
	ldr         x8,[sp,#0xA0]
	str         x8,[x9]

; 310  : 		}

	b           |$LN7@AuLoadExec|
|$LN8@AuLoadExec|

; 311  : 
; 312  : 
; 313  : 		if (argc > 0) {

	ldr         w8,[sp,#0x1C]
	cmp         w8,#0
	ble         |$LN22@AuLoadExec|

; 314  : 			kfree(argv);

	ldr         x0,[sp,#0x40]
	bl          kfree
|$LN22@AuLoadExec|

; 315  : 		}
; 316  : 
; 317  : 	//	setStk();
; 318  : 		//AuReleaseSpinlock(loader_lock);
; 319  : 
; 320  : #ifdef __KERNEL_PROFILER_ON__
; 321  : 		PROFILE_END("AuLoadExecToProcess");
; 322  : #endif
; 323  : 		/* load the loader */
; 324  : 		return AuLoadExecToProcess(proc, "/xeldr.exe", num_args_, argvs);

	ldr         x3,[sp,#0xA8]
	ldr         w2,[sp,#0x54]
	adrp        x8,|$SG3974|
	add         x1,x8,PageOffset(|$SG3974|)
	ldr         x0,[sp,#0x38]
	bl          AuLoadExecToProcess
	mov         w0,w0
	mov         w0,w0
	b           |$LN1@AuLoadExec|
|$LN21@AuLoadExec|

; 325  : 	}
; 326  : 
; 327  : 	
; 328  : 	AuLoaderMapExecFromCache(proc, fb, nt, secthdr, _image_base_);

	ldr         x4,[sp,#0xD0]
	ldr         x3,[sp,#0xE0]
	ldr         x2,[sp,#0x60]
	ldr         x1,[sp,#8]
	ldr         x0,[sp,#0x38]
	bl          AuLoaderMapExecFromCache

; 329  : 	
; 330  : 
; 331  : 	AA64Thread* thr = AuCreateKthread(AuProcessEntUser, cr3,proc->name);

	ldr         x2,[sp,#0x38]
	ldr         x1,[sp,#0xE8]
	adrp        x8,AuProcessEntUser
	add         x0,x8,PageOffset(AuProcessEntUser)
	bl          AuCreateKthread
	str         x0,[sp,#0xB8]

; 332  : 	thr->threadType = THREAD_LEVEL_USER;

	ldr         x8,[sp,#0xB8]
	add         x9,x8,#0xC1
	mov         w8,#2
	strb        w8,[x9]

; 333  : 	AuUserEntry* uentry = (AuUserEntry*)kmalloc(sizeof(AuUserEntry));

	mov         w0,#0x40
	bl          kmalloc
	str         x0,[sp,#0x30]

; 334  : 	memset(uentry, 0, sizeof(AuUserEntry));

	mov         w2,#0x40
	mov         w1,#0
	ldr         x0,[sp,#0x30]
	bl          memset

; 335  : 	uentry->rsp = proc->_main_stack_;

	ldr         x8,[sp,#0x38]
	add         x10,x8,#0x30
	ldr         x8,[sp,#0x30]
	add         x9,x8,#8
	ldr         x8,[x10]
	str         x8,[x9]

; 336  : 	uentry->entrypoint = (size_t)ent;

	ldr         x9,[sp,#0x30]
	ldr         x8,[sp,#0xF0]
	str         x8,[x9]

; 337  : 	uentry->stackBase = proc->_main_stack_;

	ldr         x8,[sp,#0x38]
	add         x10,x8,#0x30
	ldr         x8,[sp,#0x30]
	add         x9,x8,#0x38
	ldr         x8,[x10]
	str         x8,[x9]

; 338  : 	int num_args = argc;

	ldr         w8,[sp,#0x1C]
	str         w8,[sp,#0x58]

; 339  : 	uint64_t argvaddr = 0;

	mov         x8,#0
	str         x8,[sp,#0xB0]

; 340  : 	if (num_args) {

	ldr         w8,[sp,#0x58]
	cmp         w8,#0
	beq         |$LN23@AuLoadExec|

; 341  : 		/* Allocate a memory for passing arguments */
; 342  : 		uint64_t* args = (uint64_t*)P2V((size_t)AuPmmngrAlloc());

	bl          AuPmmngrAlloc
	bl          P2V
	str         x0,[sp,#0xD8]

; 343  : 		memset(args, 0, PAGE_SIZE);

	mov         w2,#0x1000
	mov         w1,#0
	ldr         x0,[sp,#0xD8]
	bl          memset

; 344  : 		if (!AuMapPageEx(proc->cr3, (size_t)V2P((uint64_t)args), 0x40000000000,PTE_AP_RW_USER | PTE_NORMAL_MEM)) {

	ldr         x0,[sp,#0xD8]
	bl          V2P
	ldr         x8,[sp,#0x38]
	add         x8,x8,#0x18
	mov         w3,#0x44
	mov         x2,#0x40000000000
	mov         x1,x0
	ldr         x0,[x8]
	bl          AuMapPageEx
	uxtb        w8,w0
	mov         w8,w8
	cmp         w8,#0
	bne         |$LN24@AuLoadExec|

; 345  : 			UARTDebugOut("Arguments address already mapped \n");

	adrp        x8,|$SG3978|
	add         x0,x8,PageOffset(|$SG3978|)
	bl          UARTDebugOut

; 346  : 			argvaddr = 0;

	mov         x8,#0
	str         x8,[sp,#0xB0]

; 347  : 		}

	b           |$LN25@AuLoadExec|
|$LN24@AuLoadExec|

; 348  : 		else {
; 349  : 			argvaddr = 0x40000000000;

	mov         x8,#0x40000000000
	str         x8,[sp,#0xB0]
|$LN25@AuLoadExec|
|$LN23@AuLoadExec|

; 350  : 		}
; 351  : 	}
; 352  : 	uentry->argvaddr = argvaddr;

	ldr         x8,[sp,#0x30]
	add         x9,x8,#0x28
	ldr         x8,[sp,#0xB0]
	str         x8,[x9]

; 353  : 	uentry->num_args = num_args;

	ldr         x8,[sp,#0x30]
	add         x9,x8,#0x20
	ldr         w8,[sp,#0x58]
	str         w8,[x9]

; 354  : 	uentry->argvs = argv;

	ldr         x8,[sp,#0x30]
	add         x9,x8,#0x30
	ldr         x8,[sp,#0x40]
	str         x8,[x9]

; 355  : 	thr->uentry = uentry;

	ldr         x8,[sp,#0xB8]
	add         x9,x8,#0xE0
	ldr         x8,[sp,#0x30]
	str         x8,[x9]

; 356  : 	proc->main_thread = thr;

	ldr         x8,[sp,#0x38]
	add         x9,x8,#0x50
	ldr         x8,[sp,#0xB8]
	str         x8,[x9]

; 357  : 	file->current = file->first_block;

	ldr         x8,[sp,#0x10]
	add         x10,x8,#0x30
	ldr         x8,[sp,#0x10]
	add         x9,x8,#0x38
	ldr         x8,[x10]
	str         x8,[x9]

; 358  : 	file->eof = 0;

	ldr         x8,[sp,#0x10]
	add         x9,x8,#0x24
	mov         w8,#0
	strb        w8,[x9]

; 359  : #ifdef __KERNEL_PROFILER_ON__
; 360  : 	PROFILE_END("AuLoadExecToProcess");
; 361  : #endif
; 362  : 	return 0;

	mov         w0,#0
|$LN1@AuLoadExec|
	add         sp,sp,#0x100
	ldr         lr,[sp],#0x10
	ret

	ENDP  ; |AuLoadExecToProcess|

; Function compile flags: /Odtpy
; File C:\Users\paras\source\repos\grep-name\XenevaOS\KernelAA64\loader.c

	AREA	|.text$mn|, CODE, ARM64

|AuInitialiseLoader| PROC

; 368  : void AuInitialiseLoader() {

|$LN10|
	sub         sp,sp,#0x10
	stp         x19,lr,[sp]
	sub         sp,sp,#0x10

; 369  : 	for (int i = 0; i < (1024 * 1024) / 0x1000; i++) {

	mov         w8,#0
	str         w8,[sp]
	b           |$LN4@AuInitiali|
|$LN2@AuInitiali|
	ldr         w8,[sp]
	add         w8,w8,#1
	str         w8,[sp]
|$LN4@AuInitiali|
	ldr         w8,[sp]
	cmp         w8,#0x100
	bge         |$LN3@AuInitiali|

; 370  : 		AuMapPage((size_t)AuPmmngrAlloc(), LOADER_SCRATCH_VIRT + i * 0x1000, PTE_NORMAL_MEM);

	ldr         w9,[sp]
	mov         w8,#0x1000
	mul         w8,w9,w8
	sxtw        x9,w8
	ldr         x8,|$LN9@AuInitiali|
	add         x19,x9,x8
	bl          AuPmmngrAlloc
	mov         w2,#4
	mov         x1,x19
	bl          AuMapPage

; 371  : 	}

	b           |$LN2@AuInitiali|
|$LN3@AuInitiali|

; 372  : 	_ldr_scratchBuffer = (uint64_t*)LOADER_SCRATCH_VIRT; // (uint64_t*)P2V((uint64_t)AuPmmngrAllocBlocks((1024 * 1024) / 0x1000));

	adrp        x9,_ldr_scratchBuffer
	ldr         x8,|$LN9@AuInitiali|
	str         x8,[x9,PageOffset(_ldr_scratchBuffer)]

; 373  : 	memset(_ldr_scratchBuffer, 0, 1024 * 1024);

	mov         w2,#0x100000
	mov         w1,#0
	adrp        x8,_ldr_scratchBuffer
	ldr         x0,[x8,PageOffset(_ldr_scratchBuffer)]
	bl          memset

; 374  : 	for (int i = 0; i < 64; i++)

	mov         w8,#0
	str         w8,[sp,#4]
	b           |$LN7@AuInitiali|
|$LN5@AuInitiali|
	ldr         w8,[sp,#4]
	add         w8,w8,#1
	str         w8,[sp,#4]
|$LN7@AuInitiali|
	ldr         w8,[sp,#4]
	cmp         w8,#0x40
	bge         |$LN6@AuInitiali|

; 375  : 		physFrames[i] = 0;

	ldr         w8,[sp,#4]
	sxtw        x9,w8
	mov         x8,#8
	mul         x9,x9,x8
	adrp        x8,physFrames
	add         x8,x8,PageOffset(physFrames)
	add         x9,x8,x9
	mov         x8,#0
	str         x8,[x9]
	b           |$LN5@AuInitiali|
|$LN6@AuInitiali|

; 376  : 
; 377  : 	AuTextOut("[aurora]: Kernel-level loader initialized \r\n");

	adrp        x8,|$SG3990|
	add         x0,x8,PageOffset(|$SG3990|)
	bl          AuTextOut
	add         sp,sp,#0x10
	ldp         x19,lr,[sp]
	add         sp,sp,#0x10
	ret
	nop
|$LN9@AuInitiali|
	DCQ         0xffffc00000700000

	ENDP  ; |AuInitialiseLoader|

	END
