; Listing generated by Microsoft (R) Optimizing Compiler Version 19.29.30159.0 

	TTL	C:\Users\paras\source\repos\grep-name\XenevaOS\KernelAA64\ARM64\Debug\mmap.obj
	ARM64

	AREA	|.drectve|, DRECTVE


	AREA	|.data|, DATA
	 COMMON	|shmmaplist|, 0x8

	EXPORT	|SharedMemMapListInitialise|
	EXPORT	|CreateMemMapping|
	EXPORT	|MemMapDirty|
	EXPORT	|UnmapMemMapping|
	EXPORT	|AuCreateSharedMmapObject|
	EXPORT	|AuAddSharedMmapObject|
	EXPORT	|AuRemoveSharedMmapObject|
	EXPORT	|AuSharedMmapObjectFindByName|
	IMPORT	|strcmp|
	IMPORT	|strcpy|
	IMPORT	|strlen|
	IMPORT	|memset|
	IMPORT	|memcpy|
	IMPORT	|AuVmmngrGetPage|
	IMPORT	|AuMapPage|
	IMPORT	|AuGetFreePage|
	IMPORT	|AuPmmngrAlloc|
	IMPORT	|AuPmmngrFree|
	IMPORT	|P2V|
	IMPORT	|kmalloc|
	IMPORT	|kfree|
	IMPORT	|initialize_list|
	IMPORT	|list_add|
	IMPORT	|list_remove|
	IMPORT	|list_get_at|
	IMPORT	|AuVFSFind|
	IMPORT	|AuVFSNodeReadBlock|
	IMPORT	|AuGetCurrentThread|
	IMPORT	|AuProcessFindThread|
	IMPORT	|AuProcessFindSubThread|
	IMPORT	|AuVMAreaCreate|
	IMPORT	|AuVMAreaGet|
	IMPORT	|UARTDebugOut|
	IMPORT	|dsb_ish|
	IMPORT	|isb_flush|
	IMPORT	|tlb_flush_vmalle1is|
	IMPORT	|AuMmngrAddFileBack|
	IMPORT	|AuMmngrFileCacheLookup|
	IMPORT	|AuMmngrFileCacheGetPhysicalBlock|
	IMPORT	|AuMmngrPageCacheCreate|
	IMPORT	|AuMmngrFileBackAddPageCache|

	AREA	|.pdata|, PDATA
|$pdata$SharedMemMapListInitialise| DCD imagerel |$LN3|
	DCD	0xa00019
	;Flags[SingleProEpi] functionLength[24] RegF[0] RegI[0] H[0] frameChainReturn[UnChainedSavedLR] frameSize[16]
|$pdata$CreateMemMapping| DCD imagerel |$LN46|
	DCD	0x62107b1
	;Flags[SingleProEpi] functionLength[1968] RegF[0] RegI[1] H[0] frameChainReturn[UnChainedSavedLR] frameSize[192]
|$pdata$MemMapDirty| DCD imagerel |$LN16|
	DCD	0x3200221
	;Flags[SingleProEpi] functionLength[544] RegF[0] RegI[0] H[0] frameChainReturn[UnChainedSavedLR] frameSize[96]
|$pdata$UnmapMemMapping| DCD imagerel |$LN11|
	DCD	0x2a00139
	;Flags[SingleProEpi] functionLength[312] RegF[0] RegI[0] H[0] frameChainReturn[UnChainedSavedLR] frameSize[80]
|$pdata$AuCreateSharedMmapObject| DCD imagerel |$LN3|
	DCD	0x1200089
	;Flags[SingleProEpi] functionLength[136] RegF[0] RegI[0] H[0] frameChainReturn[UnChainedSavedLR] frameSize[32]
|$pdata$AuAddSharedMmapObject| DCD imagerel |$LN3|
	DCD	0x1200029
	;Flags[SingleProEpi] functionLength[40] RegF[0] RegI[0] H[0] frameChainReturn[UnChainedSavedLR] frameSize[32]
|$pdata$AuRemoveSharedMmapObject| DCD imagerel |$LN7|
	DCD	0x1a00095
	;Flags[SingleProEpi] functionLength[148] RegF[0] RegI[0] H[0] frameChainReturn[UnChainedSavedLR] frameSize[48]
|$pdata$AuSharedMmapObjectFindByName| DCD imagerel |$LN7|
	DCD	0x1a00089
	;Flags[SingleProEpi] functionLength[136] RegF[0] RegI[0] H[0] frameChainReturn[UnChainedSavedLR] frameSize[48]

	AREA	|.data|, DATA
|$SG3651| DCB	"/", 0x0
	%	6
|$SG3654| DCB	"[mmap]: file %s is not in cache, we're caching it ", 0xd
	DCB	0xa, 0x0
	%	3
|$SG3655| DCB	"[mmap]: file starting address : %x , curr : %x", 0xd, 0xa
	DCB	0x0
	%	7
|$SG3656| DCB	"mmap: file flag : %x ", 0xd, 0xa, 0x0
|$SG3676| DCB	"File : %s , eof done : %d", 0xd, 0xa, 0x0
	%	4
|$SG3685| DCB	"SHOBJ newly created -> %s ", 0xd, 0xa, 0x0
	%	3
|$SG3713| DCB	"PAGE got : %x ", 0xa, 0x0
|$SG3715| DCB	"Memmap dirty setting : readonly ", 0xa, 0x0
	%	6
|$SG3717| DCB	"Memmap dirty setting : no exec ", 0xa, 0x0
	%	7
|$SG3719| DCB	"Memmap dirty setting : no cache", 0xa, 0x0
	%	7
|$SG3721| DCB	"Memmap dirty setting : write ", 0xa, 0x0
; Function compile flags: /Odtpy
; File C:\Users\paras\source\repos\grep-name\XenevaOS\KernelAA64\Mm\mmap.c

	AREA	|.text$mn|, CODE, ARM64

|AuSharedMmapObjectFindByName| PROC

; 107  : AuSharedMmapObject* AuSharedMmapObjectFindByName(char* name) {

|$LN7|
	str         lr,[sp,#-0x10]!
	sub         sp,sp,#0x20
	str         x0,[sp,#0x10]

; 108  : 	for (int i = 0; i < shmmaplist->pointer; i++) {

	mov         w8,#0
	str         w8,[sp]
	b           |$LN4@AuSharedMm|
|$LN2@AuSharedMm|
	ldr         w8,[sp]
	add         w8,w8,#1
	str         w8,[sp]
|$LN4@AuSharedMm|
	adrp        x8,shmmaplist
	ldr         x8,[x8,PageOffset(shmmaplist)]
	ldr         w9,[x8]
	ldr         w8,[sp]
	cmp         w8,w9
	bhs         |$LN3@AuSharedMm|

; 109  : 		AuSharedMmapObject* obj_ = (AuSharedMmapObject*)list_get_at(shmmaplist, i);

	ldr         w1,[sp]
	adrp        x8,shmmaplist
	ldr         x0,[x8,PageOffset(shmmaplist)]
	bl          list_get_at
	str         x0,[sp,#8]

; 110  : 		if (strcmp(obj_->objectName, name) == 0)

	ldr         x8,[sp,#8]
	ldr         x1,[sp,#0x10]
	ldr         x0,[x8]
	bl          strcmp
	mov         w0,w0
	cmp         w0,#0
	bne         |$LN5@AuSharedMm|

; 111  : 			return obj_;

	ldr         x0,[sp,#8]
	b           |$LN1@AuSharedMm|
|$LN5@AuSharedMm|

; 112  : 	}

	b           |$LN2@AuSharedMm|
|$LN3@AuSharedMm|

; 113  : 	return NULL;

	mov         x0,#0
|$LN1@AuSharedMm|
	add         sp,sp,#0x20
	ldr         lr,[sp],#0x10
	ret

	ENDP  ; |AuSharedMmapObjectFindByName|

; Function compile flags: /Odtpy
; File C:\Users\paras\source\repos\grep-name\XenevaOS\KernelAA64\Mm\mmap.c

	AREA	|.text$mn|, CODE, ARM64

|AuRemoveSharedMmapObject| PROC

; 97   : void AuRemoveSharedMmapObject(AuSharedMmapObject* obj) {

|$LN7|
	str         lr,[sp,#-0x10]!
	sub         sp,sp,#0x20
	str         x0,[sp,#8]

; 98   : 	for (int i = 0; i < shmmaplist->pointer; i++) {

	mov         w8,#0
	str         w8,[sp]
	b           |$LN4@AuRemoveSh|
|$LN2@AuRemoveSh|
	ldr         w8,[sp]
	add         w8,w8,#1
	str         w8,[sp]
|$LN4@AuRemoveSh|
	adrp        x8,shmmaplist
	ldr         x8,[x8,PageOffset(shmmaplist)]
	ldr         w9,[x8]
	ldr         w8,[sp]
	cmp         w8,w9
	bhs         |$LN3@AuRemoveSh|

; 99   : 		AuSharedMmapObject* obj_ = (AuSharedMmapObject*)list_get_at(shmmaplist, i);

	ldr         w1,[sp]
	adrp        x8,shmmaplist
	ldr         x0,[x8,PageOffset(shmmaplist)]
	bl          list_get_at
	str         x0,[sp,#0x10]

; 100  : 		if (obj_ == obj)

	ldr         x9,[sp,#8]
	ldr         x8,[sp,#0x10]
	cmp         x8,x9
	bne         |$LN5@AuRemoveSh|

; 101  : 			list_remove(shmmaplist, i);

	ldr         w1,[sp]
	adrp        x8,shmmaplist
	ldr         x0,[x8,PageOffset(shmmaplist)]
	bl          list_remove
|$LN5@AuRemoveSh|

; 102  : 	}

	b           |$LN2@AuRemoveSh|
|$LN3@AuRemoveSh|

; 103  : 	kfree(obj->objectName);

	ldr         x8,[sp,#8]
	ldr         x0,[x8]
	bl          kfree

; 104  : 	kfree(obj);

	ldr         x0,[sp,#8]
	bl          kfree
	add         sp,sp,#0x20
	ldr         lr,[sp],#0x10
	ret

	ENDP  ; |AuRemoveSharedMmapObject|

; Function compile flags: /Odtpy
; File C:\Users\paras\source\repos\grep-name\XenevaOS\KernelAA64\Mm\mmap.c

	AREA	|.text$mn|, CODE, ARM64

|AuAddSharedMmapObject| PROC

; 93   : void AuAddSharedMmapObject(AuSharedMmapObject* obj) {

|$LN3|
	str         lr,[sp,#-0x10]!
	sub         sp,sp,#0x10
	str         x0,[sp]

; 94   : 	list_add(shmmaplist, obj);

	ldr         x1,[sp]
	adrp        x8,shmmaplist
	ldr         x0,[x8,PageOffset(shmmaplist)]
	bl          list_add
	add         sp,sp,#0x10
	ldr         lr,[sp],#0x10
	ret

	ENDP  ; |AuAddSharedMmapObject|

; Function compile flags: /Odtpy
; File C:\Users\paras\source\repos\grep-name\XenevaOS\KernelAA64\Mm\mmap.c

	AREA	|.text$mn|, CODE, ARM64

|AuCreateSharedMmapObject| PROC

; 84   : AuSharedMmapObject* AuCreateSharedMmapObject(char* name) {

|$LN3|
	str         lr,[sp,#-0x10]!
	sub         sp,sp,#0x10
	str         x0,[sp,#8]

; 85   : 	AuSharedMmapObject* obj = (AuSharedMmapObject*)kmalloc(sizeof(AuSharedMmapObject));

	mov         w0,#0x28
	bl          kmalloc
	str         x0,[sp]

; 86   : 	memset(obj, 0, sizeof(AuSharedMmapObject));

	mov         w2,#0x28
	mov         w1,#0
	ldr         x0,[sp]
	bl          memset

; 87   : 	obj->objectName = (char*)kmalloc(strlen(name));

	ldr         x0,[sp,#8]
	bl          strlen
	mov         w0,w0
	mov         w0,w0
	bl          kmalloc
	ldr         x8,[sp]
	str         x0,[x8]

; 88   : 	strcpy(obj->objectName, name);

	ldr         x8,[sp]
	ldr         x1,[sp,#8]
	ldr         x0,[x8]
	bl          strcpy

; 89   : 	obj->linkCount += 1;

	ldr         x8,[sp]
	add         x8,x8,#0x20
	ldrh        w8,[x8]
	mov         w8,w8
	add         w10,w8,#1
	ldr         x8,[sp]
	add         x9,x8,#0x20
	uxth        w8,w10
	strh        w8,[x9]

; 90   : 	return obj;

	ldr         x0,[sp]
	add         sp,sp,#0x10
	ldr         lr,[sp],#0x10
	ret

	ENDP  ; |AuCreateSharedMmapObject|

; Function compile flags: /Odtpy
; File C:\Users\paras\source\repos\grep-name\XenevaOS\KernelAA64\Mm\mmap.c

	AREA	|.text$mn|, CODE, ARM64

|UnmapMemMapping| PROC

; 385  : void UnmapMemMapping(void* address, size_t len) {

|$LN11|
	str         lr,[sp,#-0x10]!
	sub         sp,sp,#0x40
	str         x0,[sp,#0x28]
	str         x1,[sp,#8]

; 386  : 	if (!len)

	ldr         x8,[sp,#8]
	cmp         x8,#0
	bne         |$LN5@UnmapMemMa|

; 387  : 		return;

	b           |$LN1@UnmapMemMa|
|$LN5@UnmapMemMa|

; 388  : 
; 389  : 	//SeTextOut("MemUnmap len -> %d \r\n", len);
; 390  : 	len = PAGE_ALIGN(len); //simply align the length

	ldr         x8,[sp,#8]
	and         x8,x8,#0xFFF
	cmp         x8,#0
	beq         |$LN9@UnmapMemMa|
	ldr         x8,[sp,#8]
	add         x8,x8,#1,lsl #0xC
	and         x8,x8,#-0x1000
	str         x8,[sp,#0x18]
	b           |$LN10@UnmapMemMa|
|$LN9@UnmapMemMa|
	ldr         x8,[sp,#8]
	str         x8,[sp,#0x18]
|$LN10@UnmapMemMa|
	ldr         x8,[sp,#0x18]
	str         x8,[sp,#8]

; 391  : 	//SeTextOut("Mem Unmap len aligned -> %d \r\n", len);
; 392  : 	uint64_t addr = (uint64_t)address;

	ldr         x8,[sp,#0x28]
	str         x8,[sp,#0x30]

; 393  : 	for (int i = 0; i < len / PAGE_SIZE; i++) {

	mov         w8,#0
	str         w8,[sp]
	b           |$LN4@UnmapMemMa|
|$LN2@UnmapMemMa|
	ldr         w8,[sp]
	add         w8,w8,#1
	str         w8,[sp]
|$LN4@UnmapMemMa|
	ldr         w8,[sp]
	sxtw        x10,w8
	ldr         x9,[sp,#8]
	mov         x8,#0x1000
	udiv        x8,x9,x8
	cmp         x10,x8
	bhs         |$LN3@UnmapMemMa|

; 394  : 		AuVPage* page = AuVmmngrGetPage(addr + i * PAGE_SIZE, VIRT_GETPAGE_ONLY_RET, VIRT_GETPAGE_ONLY_RET);

	ldr         w8,[sp]
	sxtw        x9,w8
	mov         x8,#0x1000
	mul         x9,x9,x8
	ldr         x8,[sp,#0x30]
	add         x0,x8,x9
	mov         w2,#2
	mov         w1,#2
	bl          AuVmmngrGetPage
	str         x0,[sp,#0x10]

; 395  : 		if (page) {

	ldr         x8,[sp,#0x10]
	cmp         x8,#0
	beq         |$LN6@UnmapMemMa|

; 396  : 			uint64_t phys = page->bits.page << PAGE_SHIFT;

	ldr         x8,[sp,#0x10]
	ldr         x8,[x8]
	ubfx        x8,x8,#0xC,#0x24
	lsl         x8,x8,#0xC
	str         x8,[sp,#0x20]

; 397  : 			if (phys) {

	ldr         x8,[sp,#0x20]
	cmp         x8,#0
	beq         |$LN7@UnmapMemMa|

; 398  : 				AuPmmngrFree((void*)phys);

	ldr         x0,[sp,#0x20]
	bl          AuPmmngrFree
|$LN7@UnmapMemMa|

; 399  : 			}
; 400  : 			page->bits.page = 0;

	ldr         x8,[sp,#0x10]
	ldr         x8,[x8]
	and         x9,x8,#-0xFFFFFFFFF001
	ldr         x8,[sp,#0x10]
	str         x9,[x8]

; 401  : 			isb_flush();

	bl          isb_flush

; 402  : 			page->bits.present = 0;

	ldr         x8,[sp,#0x10]
	ldr         x8,[x8]
	and         x9,x8,#-2
	ldr         x8,[sp,#0x10]
	str         x9,[x8]

; 403  : 			isb_flush();

	bl          isb_flush

; 404  : 			tlb_flush_vmalle1is();

	bl          tlb_flush_vmalle1is

; 405  : 			dsb_ish();

	bl          dsb_ish

; 406  : 			isb_flush();

	bl          isb_flush
|$LN6@UnmapMemMa|

; 407  : 		}
; 408  : 	}

	b           |$LN2@UnmapMemMa|
|$LN3@UnmapMemMa|
|$LN1@UnmapMemMa|
	add         sp,sp,#0x40
	ldr         lr,[sp],#0x10
	ret

	ENDP  ; |UnmapMemMapping|

; Function compile flags: /Odtpy
; File C:\Users\paras\source\repos\grep-name\XenevaOS\KernelAA64\Mm\mmap.c

	AREA	|.text$mn|, CODE, ARM64

|MemMapDirty| PROC

; 332  : void MemMapDirty(void* startingVaddr, size_t len, int flags, int prot) {

|$LN16|
	str         lr,[sp,#-0x10]!
	sub         sp,sp,#0x50
	str         x0,[sp,#0x20]
	str         x1,[sp,#0x10]
	str         w2,[sp,#0x38]
	str         w3,[sp]

; 333  : 	AA64Thread* curr_thr = AuGetCurrentThread();

	bl          AuGetCurrentThread
	str         x0,[sp,#0x28]

; 334  : 	AuProcess* proc = AuProcessFindThread(curr_thr);

	ldr         x0,[sp,#0x28]
	bl          AuProcessFindThread
	str         x0,[sp,#0x18]

; 335  : 	if (!proc) {

	ldr         x8,[sp,#0x18]
	cmp         x8,#0
	bne         |$LN5@MemMapDirt|

; 336  : 		proc = AuProcessFindSubThread(curr_thr);

	ldr         x0,[sp,#0x28]
	bl          AuProcessFindSubThread
	str         x0,[sp,#0x18]

; 337  : 		if (!proc)

	ldr         x8,[sp,#0x18]
	cmp         x8,#0
	bne         |$LN6@MemMapDirt|

; 338  : 			return;

	b           |$LN1@MemMapDirt|
|$LN6@MemMapDirt|
|$LN5@MemMapDirt|

; 339  : 	}
; 340  : 
; 341  : 	len = PAGE_ALIGN(len); //simply align the length

	ldr         x8,[sp,#0x10]
	and         x8,x8,#0xFFF
	cmp         x8,#0
	beq         |$LN14@MemMapDirt|
	ldr         x8,[sp,#0x10]
	add         x8,x8,#1,lsl #0xC
	and         x8,x8,#-0x1000
	str         x8,[sp,#0x30]
	b           |$LN15@MemMapDirt|
|$LN14@MemMapDirt|
	ldr         x8,[sp,#0x10]
	str         x8,[sp,#0x30]
|$LN15@MemMapDirt|
	ldr         x8,[sp,#0x30]
	str         x8,[sp,#0x10]

; 342  : 	uint64_t startAddr = (uint64_t)startingVaddr;

	ldr         x8,[sp,#0x20]
	str         x8,[sp,#0x40]

; 343  : 	if (prot != 0) {

	ldr         w8,[sp]
	cmp         w8,#0
	beq         |$LN7@MemMapDirt|

; 344  : 		for (int i = 0; i < len / PAGE_SIZE; i++) {

	mov         w8,#0
	str         w8,[sp,#4]
	b           |$LN4@MemMapDirt|
|$LN2@MemMapDirt|
	ldr         w8,[sp,#4]
	add         w8,w8,#1
	str         w8,[sp,#4]
|$LN4@MemMapDirt|
	ldr         w8,[sp,#4]
	sxtw        x10,w8
	ldr         x9,[sp,#0x10]
	mov         x8,#0x1000
	udiv        x8,x9,x8
	cmp         x10,x8
	bhs         |$LN3@MemMapDirt|

; 345  : 			AuVPage* page = AuVmmngrGetPage(startAddr + i * PAGE_SIZE, NULL, VIRT_GETPAGE_ONLY_RET);

	ldr         w8,[sp,#4]
	sxtw        x9,w8
	mov         x8,#0x1000
	mul         x9,x9,x8
	ldr         x8,[sp,#0x40]
	add         x0,x8,x9
	mov         w2,#2
	mov         w1,#0
	bl          AuVmmngrGetPage
	str         x0,[sp,#8]

; 346  : 			UARTDebugOut("PAGE got : %x \n", page);

	ldr         x1,[sp,#8]
	adrp        x8,|$SG3713|
	add         x0,x8,PageOffset(|$SG3713|)
	bl          UARTDebugOut

; 347  : 			/* check for  protection flag */
; 348  : 			if (prot & PROTECTION_FLAG_READONLY) {

	ldr         w8,[sp]
	tbz         x8,#0,|$LN8@MemMapDirt|

; 349  : 				page->bits.ap = 0b11;

	ldr         x8,[sp,#8]
	ldr         x8,[x8]
	orr         x9,x8,#0xC0
	ldr         x8,[sp,#8]
	str         x9,[x8]

; 350  : 				UARTDebugOut("Memmap dirty setting : readonly \n");

	adrp        x8,|$SG3715|
	add         x0,x8,PageOffset(|$SG3715|)
	bl          UARTDebugOut

; 351  : 				isb_flush();

	bl          isb_flush
|$LN8@MemMapDirt|

; 352  : 			}
; 353  : 			if (prot & PROTECTION_FLAG_NO_EXEC) {

	ldr         w8,[sp]
	tbz         x8,#2,|$LN9@MemMapDirt|

; 354  : 				page->bits.uxn = 1;

	ldr         x8,[sp,#8]
	ldr         x8,[x8]
	orr         x9,x8,#0x40000000000000
	ldr         x8,[sp,#8]
	str         x9,[x8]

; 355  : 				UARTDebugOut("Memmap dirty setting : no exec \n");

	adrp        x8,|$SG3717|
	add         x0,x8,PageOffset(|$SG3717|)
	bl          UARTDebugOut

; 356  : 				isb_flush();

	bl          isb_flush
|$LN9@MemMapDirt|

; 357  : 			}
; 358  : 			if (prot & PROTECTION_FLAG_NO_CACHE) {

	ldr         w8,[sp]
	tbz         x8,#3,|$LN10@MemMapDirt|

; 359  : 				page->bits.attrindex = PTE_DEVICE_MEM;

	ldr         x8,[sp,#8]
	ldr         x8,[x8]
	and         x9,x8,#-0x1D
	ldr         x8,[sp,#8]
	str         x9,[x8]

; 360  : 				UARTDebugOut("Memmap dirty setting : no cache\n");

	adrp        x8,|$SG3719|
	add         x0,x8,PageOffset(|$SG3719|)
	bl          UARTDebugOut

; 361  : 				isb_flush();

	bl          isb_flush
|$LN10@MemMapDirt|

; 362  : 			}
; 363  : 			if (prot & PROTECTION_FLAG_READONLY && prot & PROTECTION_FLAG_WRITE) {

	ldr         w8,[sp]
	tbz         x8,#0,|$LN11@MemMapDirt|
	ldr         w8,[sp]
	tbz         x8,#1,|$LN11@MemMapDirt|

; 364  : 				page->bits.ap = 0b01;

	ldr         x8,[sp,#8]
	ldr         x9,[x8]
	mov         x8,#1
	bfi         x9,x8,#6,#2
	ldr         x8,[sp,#8]
	str         x9,[x8]

; 365  : 				UARTDebugOut("Memmap dirty setting : write \n");

	adrp        x8,|$SG3721|
	add         x0,x8,PageOffset(|$SG3721|)
	bl          UARTDebugOut

; 366  : 				isb_flush();

	bl          isb_flush
|$LN11@MemMapDirt|

; 367  : 			}
; 368  : 
; 369  : 			/*if (flags & MEMMAP_FLAG_COW)
; 370  : 				page->bits.cow = 1;*/
; 371  : 		}

	b           |$LN2@MemMapDirt|
|$LN3@MemMapDirt|
|$LN7@MemMapDirt|

; 372  : 	}
; 373  : 	if (!AuVMAreaGet(proc, (size_t)startingVaddr)) {

	ldr         x1,[sp,#0x20]
	ldr         x0,[sp,#0x18]
	bl          AuVMAreaGet
	cmp         x0,#0
	bne         |$LN12@MemMapDirt|

; 374  : 		AuVMArea* area = AuVMAreaCreate((size_t)startingVaddr, ((uint64_t)startingVaddr + len), 0, len, VM_EXEC);

	ldr         x9,[sp,#0x20]
	ldr         x8,[sp,#0x10]
	add         x1,x9,x8
	mov         w4,#4
	ldr         x3,[sp,#0x10]
	mov         w2,#0
	ldr         x0,[sp,#0x20]
	bl          AuVMAreaCreate
	str         x0,[sp,#0x48]

; 375  : 		list_add(proc->vmareas, area);

	ldr         x8,[sp,#0x18]
	add         x8,x8,#0x438
	ldr         x1,[sp,#0x48]
	ldr         x0,[x8]
	bl          list_add
|$LN12@MemMapDirt|
|$LN1@MemMapDirt|
	add         sp,sp,#0x50
	ldr         lr,[sp],#0x10
	ret

	ENDP  ; |MemMapDirty|

; Function compile flags: /Odtpy
; File C:\Users\paras\source\repos\grep-name\XenevaOS\KernelAA64\Mm\mmap.c

	AREA	|.text$mn|, CODE, ARM64

|CreateMemMapping| PROC

; 128  : 	uint64_t offset) {

|$LN46|
	sub         sp,sp,#0x10
	stp         x19,lr,[sp]
	sub         sp,sp,#0xB0
	str         x0,[sp,#0x90]
	str         x1,[sp,#0x38]
	str         w2,[sp,#0x28]
	str         w3,[sp,#0x20]
	str         w4,[sp,#0x50]
	str         x5,[sp,#0x78]

; 129  : 	
; 130  : 	if (!len)

	ldr         x8,[sp,#0x38]
	cmp         x8,#0
	bne         |$LN5@CreateMemM|

; 131  : 		return 0;

	mov         x0,#0
	b           |$LN1@CreateMemM|
|$LN5@CreateMemM|

; 132  : 
; 133  : 
; 134  : 	/* for now, memory mapping doesn't support lazy loading
; 135  : 	 * so everything works at pre-paging */
; 136  : 
; 137  : 	AA64Thread* curr_thr = AuGetCurrentThread();

	bl          AuGetCurrentThread
	str         x0,[sp,#0x88]

; 138  : 	AuProcess* proc = AuProcessFindThread(curr_thr);

	ldr         x0,[sp,#0x88]
	bl          AuProcessFindThread
	str         x0,[sp,#0x48]

; 139  : 	if (!proc) {

	ldr         x8,[sp,#0x48]
	cmp         x8,#0
	bne         |$LN6@CreateMemM|

; 140  : 		proc = AuProcessFindSubThread(curr_thr);

	ldr         x0,[sp,#0x88]
	bl          AuProcessFindSubThread
	str         x0,[sp,#0x48]

; 141  : 		if (!proc)

	ldr         x8,[sp,#0x48]
	cmp         x8,#0
	bne         |$LN7@CreateMemM|

; 142  : 			return NULL;

	mov         x0,#0
	b           |$LN1@CreateMemM|
|$LN7@CreateMemM|
|$LN6@CreateMemM|

; 143  : 	}
; 144  : 	AuVFSNode* file = NULL;

	mov         x8,#0
	str         x8,[sp,#8]

; 145  : 	AuVFSNode* fsys = NULL;

	mov         x8,#0
	str         x8,[sp,#0x58]

; 146  : 	uint64_t startingPhysAddr = NULL;

	mov         x8,#0
	str         x8,[sp,#0x60]

; 147  : 	bool shobj_len_increase = false;

	mov         w8,#0
	strb        w8,[sp,#1]

; 148  : 	bool shobj_new_create = false;

	mov         w8,#0
	strb        w8,[sp]

; 149  : 
; 150  : 	AuSharedMmapObject* shobj = NULL;

	mov         x8,#0
	str         x8,[sp,#0x18]

; 151  : 	if (fd != -1)

	ldr         w8,[sp,#0x50]
	cmn         w8,#1
	beq         |$LN8@CreateMemM|

; 152  : 		file = proc->fds[fd];

	ldr         x8,[sp,#0x48]
	add         x10,x8,#0x248
	ldr         w8,[sp,#0x50]
	sxtw        x9,w8
	mov         x8,#8
	mul         x8,x9,x8
	add         x8,x10,x8
	ldr         x8,[x8]
	str         x8,[sp,#8]
|$LN8@CreateMemM|

; 153  : 
; 154  : 	size_t lookup_addr = NULL;

	mov         x8,#0
	str         x8,[sp,#0x70]

; 155  : 	if (!address)

	ldr         x8,[sp,#0x90]
	cmp         x8,#0
	bne         |$LN9@CreateMemM|

; 156  : 		lookup_addr = (size_t)AuGetFreePage(true, (void*)PROCESS_MMAP_ADDRESS);

	mov         x1,#0xC00000000
	mov         w0,#1
	bl          AuGetFreePage
	str         x0,[sp,#0x70]
	b           |$LN10@CreateMemM|
|$LN9@CreateMemM|

; 157  : 	else
; 158  : 		lookup_addr = (size_t)address;

	ldr         x8,[sp,#0x90]
	str         x8,[sp,#0x70]
|$LN10@CreateMemM|

; 159  : 
; 160  : 	len = PAGE_ALIGN(len); //simply align the length

	ldr         x8,[sp,#0x38]
	and         x8,x8,#0xFFF
	cmp         x8,#0
	beq         |$LN44@CreateMemM|
	ldr         x8,[sp,#0x38]
	add         x8,x8,#1,lsl #0xC
	and         x8,x8,#-0x1000
	str         x8,[sp,#0x98]
	b           |$LN45@CreateMemM|
|$LN44@CreateMemM|
	ldr         x8,[sp,#0x38]
	str         x8,[sp,#0x98]
|$LN45@CreateMemM|
	ldr         x8,[sp,#0x98]
	str         x8,[sp,#0x38]

; 161  : 	AuMMFileBack* fb = NULL;

	mov         x8,#0
	str         x8,[sp,#0x10]

; 162  : 
; 163  : 	if (file && (file->flags & FS_FLAG_GENERAL)) {

	ldr         x8,[sp,#8]
	cmp         x8,#0
	beq         |$LN11@CreateMemM|
	ldr         x8,[sp,#8]
	add         x8,x8,#0x40
	ldrh        w8,[x8]
	mov         w8,w8
	tbz         x8,#2,|$LN11@CreateMemM|

; 164  : 		//UARTDebugOut("[CreateMemMapping] getting file \n");
; 165  : 		uint64_t file_block_start = 0;

	mov         x8,#0
	str         x8,[sp,#0xA8]

; 166  : 		fsys = AuVFSFind("/");

	adrp        x8,|$SG3651|
	add         x0,x8,PageOffset(|$SG3651|)
	bl          AuVFSFind
	str         x0,[sp,#0x58]

; 167  : 		if (!fsys && fd != -1)

	ldr         x8,[sp,#0x58]
	cmp         x8,#0
	bne         |$LN12@CreateMemM|
	ldr         w8,[sp,#0x50]
	cmn         w8,#1
	beq         |$LN12@CreateMemM|

; 168  : 			return 0;

	mov         x0,#0
	b           |$LN1@CreateMemM|
|$LN12@CreateMemM|

; 169  : 		//if (!(file->flags & FS_FLAG_DEVICE)) {
; 170  : 		//	file_block_start = AuVFSGetBlockFor(fsys, file, offset);
; 171  : 		//	file->current = file_block_start;
; 172  : 		//}
; 173  : 
; 174  : 		fb = AuMmngrFileCacheLookup(file->filename);

	ldr         x0,[sp,#8]
	bl          AuMmngrFileCacheLookup
	str         x0,[sp,#0x10]

; 175  : 		if (!fb) {

	ldr         x8,[sp,#0x10]
	cmp         x8,#0
	bne         |$LN13@CreateMemM|

; 176  : 			UARTDebugOut("[mmap]: file %s is not in cache, we're caching it \r\n", file->filename);

	ldr         x1,[sp,#8]
	adrp        x8,|$SG3654|
	add         x0,x8,PageOffset(|$SG3654|)
	bl          UARTDebugOut

; 177  : 			UARTDebugOut("[mmap]: file starting address : %x , curr : %x\r\n", file->first_block, file->current);

	ldr         x8,[sp,#8]
	add         x9,x8,#0x38
	ldr         x8,[sp,#8]
	add         x8,x8,#0x30
	ldr         x2,[x9]
	ldr         x1,[x8]
	adrp        x8,|$SG3655|
	add         x0,x8,PageOffset(|$SG3655|)
	bl          UARTDebugOut

; 178  : 			fb = (AuMMFileBack*)kmalloc(sizeof(AuMMFileBack));

	mov         w0,#0x30
	bl          kmalloc
	str         x0,[sp,#0x10]

; 179  : 			memset(fb, 0, sizeof(AuMMFileBack));

	mov         w2,#0x30
	mov         w1,#0
	ldr         x0,[sp,#0x10]
	bl          memset

; 180  : 			UARTDebugOut("mmap: file flag : %x \r\n", file->flags);

	ldr         x8,[sp,#8]
	add         x8,x8,#0x40
	ldrh        w1,[x8]
	mov         w1,w1
	mov         w1,w1
	adrp        x8,|$SG3656|
	add         x0,x8,PageOffset(|$SG3656|)
	bl          UARTDebugOut

; 181  : 			fb->file = file;

	ldr         x9,[sp,#0x10]
	ldr         x8,[sp,#8]
	str         x8,[x9]

; 182  : 			AuMmngrAddFileBack(fb);

	ldr         x0,[sp,#0x10]
	bl          AuMmngrAddFileBack
|$LN13@CreateMemM|

; 183  : 		}
; 184  : 		
; 185  : 		if (flags & MEMMAP_FLAG_SHARED) {

	ldr         w8,[sp,#0x20]
	tbz         x8,#0,|$LN14@CreateMemM|

; 186  : 			shobj = AuSharedMmapObjectFindByName(file->filename);

	ldr         x0,[sp,#8]
	bl          AuSharedMmapObjectFindByName
	str         x0,[sp,#0x18]

; 187  : 			/* no shobject found with specified name, so we create
; 188  : 			 * new one */
; 189  : 			if (!shobj) {

	ldr         x8,[sp,#0x18]
	cmp         x8,#0
	bne         |$LN15@CreateMemM|

; 190  : 				shobj = AuCreateSharedMmapObject(file->filename);

	ldr         x0,[sp,#8]
	bl          AuCreateSharedMmapObject
	str         x0,[sp,#0x18]

; 191  : 				shobj->flags = flags;

	ldr         x8,[sp,#0x18]
	add         x9,x8,#8
	ldr         w8,[sp,#0x20]
	uxtb        w8,w8
	strb        w8,[x9]

; 192  : 				shobj->len = 0;

	ldr         x8,[sp,#0x18]
	add         x9,x8,#0x18
	mov         x8,#0
	str         x8,[x9]

; 193  : 				shobj->prot_flags = prot;

	ldr         x8,[sp,#0x18]
	add         x9,x8,#9
	ldr         w8,[sp,#0x28]
	uxtb        w8,w8
	strb        w8,[x9]

; 194  : 				shobj->ownerProc = proc->proc_id;

	ldr         x8,[sp,#0x48]
	add         x10,x8,#0x10
	ldr         x8,[sp,#0x18]
	add         x9,x8,#0x22
	ldr         w8,[x10]
	uxth        w8,w8
	strh        w8,[x9]

; 195  : 				AuAddSharedMmapObject(shobj);

	ldr         x0,[sp,#0x18]
	bl          AuAddSharedMmapObject

; 196  : 				shobj_new_create = true;

	mov         w8,#1
	strb        w8,[sp]
|$LN15@CreateMemM|

; 197  : 			}
; 198  : 			/* okay, already there is an shared object with this
; 199  : 			 * particular name, so check further
; 200  : 			 */
; 201  : 			if (shobj) {

	ldr         x8,[sp,#0x18]
	cmp         x8,#0
	beq         |$LN16@CreateMemM|

; 202  : 				/* firstly, check if the owner process is accessing,
; 203  : 				 * then simply we work on the shared object
; 204  : 				 */
; 205  : 				if (shobj->ownerProc == proc->proc_id) {

	ldr         x8,[sp,#0x18]
	add         x8,x8,#0x22
	ldrh        w9,[x8]
	mov         w9,w9
	ldr         x8,[sp,#0x48]
	add         x8,x8,#0x10
	ldr         w8,[x8]
	cmp         w9,w8
	bne         |$LN17@CreateMemM|

; 206  : 					shobj_len_increase = true;

	mov         w8,#1
	strb        w8,[sp,#1]

; 207  : 				}

	b           |$LN18@CreateMemM|
|$LN17@CreateMemM|

; 208  : 				else {
; 209  : 					/* we need to map that object here*/
; 210  : 					startingPhysAddr = shobj->beginPhysicalAddr;

	ldr         x8,[sp,#0x18]
	add         x8,x8,#0x10
	ldr         x8,[x8]
	str         x8,[sp,#0x60]
|$LN18@CreateMemM|
|$LN16@CreateMemM|
|$LN14@CreateMemM|
|$LN11@CreateMemM|

; 211  : 				}
; 212  : 			}
; 213  : 		}
; 214  : 	}
; 215  : 
; 216  : 
; 217  : 	//UARTDebugOut("[mmap]: num pages reading : %d \r\n", (len / PAGE_SIZE));
; 218  : 	for (int i = 0; i < len / PAGE_SIZE; i++) {

	mov         w8,#0
	str         w8,[sp,#0x24]
	b           |$LN4@CreateMemM|
|$LN2@CreateMemM|
	ldr         w8,[sp,#0x24]
	add         w8,w8,#1
	str         w8,[sp,#0x24]
|$LN4@CreateMemM|
	ldr         w8,[sp,#0x24]
	sxtw        x10,w8
	ldr         x9,[sp,#0x38]
	mov         x8,#0x1000
	udiv        x8,x9,x8
	cmp         x10,x8
	bhs         |$LN3@CreateMemM|

; 219  : 		uint64_t phys = 0;

	mov         x8,#0
	str         x8,[sp,#0x30]

; 220  : 		if (startingPhysAddr && (flags & MEMMAP_FLAG_SHARED))

	ldr         x8,[sp,#0x60]
	cmp         x8,#0
	beq         |$LN19@CreateMemM|
	ldr         w8,[sp,#0x20]
	tbz         x8,#0,|$LN19@CreateMemM|

; 221  : 			phys = startingPhysAddr + i * PAGE_SIZE;

	ldr         w8,[sp,#0x24]
	sxtw        x9,w8
	mov         x8,#0x1000
	mul         x9,x9,x8
	ldr         x8,[sp,#0x60]
	add         x8,x8,x9
	str         x8,[sp,#0x30]
	b           |$LN20@CreateMemM|
|$LN19@CreateMemM|

; 222  : 		else {
; 223  : 			if (fb) {

	ldr         x8,[sp,#0x10]
	cmp         x8,#0
	beq         |$LN21@CreateMemM|

; 224  : 				if (AuMmngrFileCacheGetPhysicalBlock(fb, offset) == UINT64_MAX) {

	ldr         x8,[sp,#0x78]
	mov         w1,w8
	mov         w1,w1
	ldr         x0,[sp,#0x10]
	bl          AuMmngrFileCacheGetPhysicalBlock
	cmn         x0,#1
	bne         |$LN23@CreateMemM|

; 225  : 					phys = (uint64_t)AuPmmngrAlloc();

	bl          AuPmmngrAlloc
	str         x0,[sp,#0x30]

; 226  : 				}

	b           |$LN24@CreateMemM|
|$LN23@CreateMemM|

; 227  : 				else {
; 228  : 					if (flags & MEMMAP_FLAG_COW) {

	ldr         w8,[sp,#0x20]
	tbz         x8,#1,|$LN25@CreateMemM|

; 229  : 						uint64_t datablk = AuMmngrFileCacheGetPhysicalBlock(fb, offset);

	ldr         x8,[sp,#0x78]
	mov         w1,w8
	mov         w1,w1
	ldr         x0,[sp,#0x10]
	bl          AuMmngrFileCacheGetPhysicalBlock
	str         x0,[sp,#0xA0]

; 230  : 						phys = (uint64_t)AuPmmngrAlloc();

	bl          AuPmmngrAlloc
	str         x0,[sp,#0x30]

; 231  : 						memcpy((void*)P2V(phys), (void*)P2V(datablk), PAGE_SIZE);

	ldr         x0,[sp,#0xA0]
	bl          P2V
	mov         x19,x0
	ldr         x0,[sp,#0x30]
	bl          P2V
	mov         x2,#0x1000
	mov         x1,x19
	bl          memcpy

; 232  : 
; 233  : 					}

	b           |$LN26@CreateMemM|
|$LN25@CreateMemM|

; 234  : 					else {
; 235  : 						phys = AuMmngrFileCacheGetPhysicalBlock(fb, offset);

	ldr         x8,[sp,#0x78]
	mov         w1,w8
	mov         w1,w1
	ldr         x0,[sp,#0x10]
	bl          AuMmngrFileCacheGetPhysicalBlock
	str         x0,[sp,#0x30]
|$LN26@CreateMemM|
|$LN24@CreateMemM|

; 236  : 					}
; 237  : 				}
; 238  : 
; 239  : 			}

	b           |$LN22@CreateMemM|
|$LN21@CreateMemM|

; 240  : 			else {
; 241  : 				phys = (uint64_t)AuPmmngrAlloc();

	bl          AuPmmngrAlloc
	str         x0,[sp,#0x30]
|$LN22@CreateMemM|
|$LN20@CreateMemM|

; 242  : 			}
; 243  : 		}
; 244  : 
; 245  : 		if (startingPhysAddr == 0 && shobj_new_create)

	ldr         x8,[sp,#0x60]
	cmp         x8,#0
	bne         |$LN27@CreateMemM|
	ldrb        w8,[sp]
	mov         w8,w8
	cmp         w8,#0
	beq         |$LN27@CreateMemM|

; 246  : 			startingPhysAddr = phys;

	ldr         x8,[sp,#0x30]
	str         x8,[sp,#0x60]
|$LN27@CreateMemM|

; 247  : 
; 248  : 		if (file && fb) {

	ldr         x8,[sp,#8]
	cmp         x8,#0
	beq         |$LN28@CreateMemM|
	ldr         x8,[sp,#0x10]
	cmp         x8,#0
	beq         |$LN28@CreateMemM|

; 249  : 			if (AuMmngrFileCacheGetPhysicalBlock(fb,offset) == UINT64_MAX) {

	ldr         x8,[sp,#0x78]
	mov         w1,w8
	mov         w1,w1
	ldr         x0,[sp,#0x10]
	bl          AuMmngrFileCacheGetPhysicalBlock
	cmn         x0,#1
	bne         |$LN29@CreateMemM|

; 250  : 				uint64_t datablk = phys;

	ldr         x8,[sp,#0x30]
	str         x8,[sp,#0x68]

; 251  : 				if (flags & MEMMAP_FLAG_COW) {

	ldr         w8,[sp,#0x20]
	tbz         x8,#1,|$LN30@CreateMemM|

; 252  : 					datablk = (uint64_t)AuPmmngrAlloc();

	bl          AuPmmngrAlloc
	str         x0,[sp,#0x68]

; 253  : 					AuVFSNodeReadBlock(fsys, file, (uint64_t*)P2V(datablk));

	ldr         x0,[sp,#0x68]
	bl          P2V
	mov         x2,x0
	ldr         x1,[sp,#8]
	ldr         x0,[sp,#0x58]
	bl          AuVFSNodeReadBlock

; 254  : 					memcpy(P2V(phys), P2V(datablk), PAGE_SIZE);

	ldr         x0,[sp,#0x68]
	bl          P2V
	mov         x19,x0
	ldr         x0,[sp,#0x30]
	bl          P2V
	mov         x2,#0x1000
	mov         x1,x19
	bl          memcpy

; 255  : 				}

	b           |$LN31@CreateMemM|
|$LN30@CreateMemM|

; 256  : 				else 
; 257  : 					AuVFSNodeReadBlock(fsys, file, (uint64_t*)P2V(datablk));

	ldr         x0,[sp,#0x68]
	bl          P2V
	mov         x2,x0
	ldr         x1,[sp,#8]
	ldr         x0,[sp,#0x58]
	bl          AuVFSNodeReadBlock
|$LN31@CreateMemM|

; 258  : 				
; 259  : 				AuMMPageCache* cache = AuMmngrPageCacheCreate();

	bl          AuMmngrPageCacheCreate
	str         x0,[sp,#0x80]

; 260  : 				cache->physicalPage = datablk;

	ldr         x9,[sp,#0x80]
	ldr         x8,[sp,#0x68]
	str         x8,[x9]

; 261  : 				cache->pageIndex = fb->numPageIndex;

	ldr         x8,[sp,#0x10]
	add         x10,x8,#0x1C
	ldr         x8,[sp,#0x80]
	add         x9,x8,#0x10
	ldr         w8,[x10]
	uxtw        x8,w8
	str         x8,[x9]

; 262  : 				cache->diskBlock = fsys->get_disk_block(fsys, file, file->current);

	ldr         x8,[sp,#8]
	add         x9,x8,#0x38
	ldr         x8,[sp,#0x58]
	add         x8,x8,#0xB8
	ldr         x2,[x9]
	ldr         x1,[sp,#8]
	ldr         x0,[sp,#0x58]
	ldr         x8,[x8]
	blr         x8
	mov         w0,w0
	ldr         x8,[sp,#0x80]
	add         x9,x8,#8
	uxtw        x8,w0
	str         x8,[x9]

; 263  : 				AuMmngrFileBackAddPageCache(fb, cache);

	ldr         x1,[sp,#0x80]
	ldr         x0,[sp,#0x10]
	bl          AuMmngrFileBackAddPageCache

; 264  : 				fb->numPageIndex++;

	ldr         x8,[sp,#0x10]
	add         x8,x8,#0x1C
	ldr         w8,[x8]
	add         w9,w8,#1
	ldr         x8,[sp,#0x10]
	add         x8,x8,#0x1C
	str         w9,[x8]

; 265  : 
; 266  : 				if (file->eof) {

	ldr         x8,[sp,#8]
	add         x8,x8,#0x24
	ldrb        w8,[x8]
	mov         w8,w8
	cmp         w8,#0
	beq         |$LN32@CreateMemM|

; 267  : 					UARTDebugOut("File : %s , eof done : %d\r\n", file->filename, file->eof);

	ldr         x8,[sp,#8]
	add         x8,x8,#0x24
	ldrb        w2,[x8]
	mov         w2,w2
	ldr         x1,[sp,#8]
	mov         w2,w2
	adrp        x8,|$SG3676|
	add         x0,x8,PageOffset(|$SG3676|)
	bl          UARTDebugOut
|$LN32@CreateMemM|
|$LN29@CreateMemM|

; 268  : 				}
; 269  : 			}
; 270  : 
; 271  : 			if (file->eof)

	ldr         x8,[sp,#8]
	add         x8,x8,#0x24
	ldrb        w8,[x8]
	mov         w8,w8
	cmp         w8,#0
	beq         |$LN33@CreateMemM|

; 272  : 				fb->readComplete = 1;

	ldr         x8,[sp,#0x10]
	add         x9,x8,#0x18
	mov         w8,#1
	strb        w8,[x9]
|$LN33@CreateMemM|
|$LN28@CreateMemM|

; 273  : 		}
; 274  : 
; 275  : 		AuMapPage(phys, lookup_addr + i * PAGE_SIZE, PTE_NORMAL_MEM | PTE_AP_RW_USER);

	ldr         w8,[sp,#0x24]
	sxtw        x9,w8
	mov         x8,#0x1000
	mul         x9,x9,x8
	ldr         x8,[sp,#0x70]
	add         x1,x8,x9
	mov         w2,#0x44
	ldr         x0,[sp,#0x30]
	bl          AuMapPage

; 276  : 		isb_flush();

	bl          isb_flush

; 277  : 		dsb_ish();

	bl          dsb_ish

; 278  : 
; 279  : 		AuVPage* page = AuVmmngrGetPage(lookup_addr + i * PAGE_SIZE, NULL, VIRT_GETPAGE_ONLY_RET);

	ldr         w8,[sp,#0x24]
	sxtw        x9,w8
	mov         x8,#0x1000
	mul         x9,x9,x8
	ldr         x8,[sp,#0x70]
	add         x0,x8,x9
	mov         w2,#2
	mov         w1,#0
	bl          AuVmmngrGetPage
	str         x0,[sp,#0x40]

; 280  : 
; 281  : 		/* check for  protection flag */
; 282  : 		if (prot & PROTECTION_FLAG_READONLY) {

	ldr         w8,[sp,#0x28]
	tbz         x8,#0,|$LN34@CreateMemM|

; 283  : 			page->bits.ap = 0b11; //EL1 + EL0 readonly

	ldr         x8,[sp,#0x40]
	ldr         x8,[x8]
	orr         x9,x8,#0xC0
	ldr         x8,[sp,#0x40]
	str         x9,[x8]

; 284  : 			isb_flush();

	bl          isb_flush
|$LN34@CreateMemM|

; 285  : 		}
; 286  : 		if (prot & PROTECTION_FLAG_NO_EXEC) {

	ldr         w8,[sp,#0x28]
	tbz         x8,#2,|$LN35@CreateMemM|

; 287  : 			page->bits.uxn = 1;

	ldr         x8,[sp,#0x40]
	ldr         x8,[x8]
	orr         x9,x8,#0x40000000000000
	ldr         x8,[sp,#0x40]
	str         x9,[x8]

; 288  : 			isb_flush();

	bl          isb_flush
|$LN35@CreateMemM|

; 289  : 		}
; 290  : 		if (prot & PROTECTION_FLAG_NO_CACHE) {

	ldr         w8,[sp,#0x28]
	tbz         x8,#3,|$LN36@CreateMemM|

; 291  : 			page->bits.attrindex = PTE_DEVICE_MEM;

	ldr         x8,[sp,#0x40]
	ldr         x8,[x8]
	and         x9,x8,#-0x1D
	ldr         x8,[sp,#0x40]
	str         x9,[x8]

; 292  : 			isb_flush();

	bl          isb_flush
|$LN36@CreateMemM|

; 293  : 		}
; 294  : 		if (prot & PROTECTION_FLAG_READONLY && prot & PROTECTION_FLAG_WRITE) {

	ldr         w8,[sp,#0x28]
	tbz         x8,#0,|$LN37@CreateMemM|
	ldr         w8,[sp,#0x28]
	tbz         x8,#1,|$LN37@CreateMemM|

; 295  : 			page->bits.ap = 0b01; //RW for both EL0 EL1

	ldr         x8,[sp,#0x40]
	ldr         x9,[x8]
	mov         x8,#1
	bfi         x9,x8,#6,#2
	ldr         x8,[sp,#0x40]
	str         x9,[x8]

; 296  : 			isb_flush();

	bl          isb_flush
|$LN37@CreateMemM|

; 297  : 		}
; 298  : 
; 299  : 		/*if (flags & MEMMAP_FLAG_COW) 
; 300  : 			page->bits.cow = 1;*/
; 301  : 		
; 302  : 		if (flags & MEMMAP_FLAG_FILE_BACK) {
; 303  : 			//add to file mapping list
; 304  : 		}
; 305  : 	}

	b           |$LN2@CreateMemM|
|$LN3@CreateMemM|

; 306  : 
; 307  : 	/* shared bit should be handled differently */
; 308  : 	if (flags & MEMMAP_FLAG_SHARED && shobj) {

	ldr         w8,[sp,#0x20]
	tbz         x8,#0,|$LN39@CreateMemM|
	ldr         x8,[sp,#0x18]
	cmp         x8,#0
	beq         |$LN39@CreateMemM|

; 309  : 		if (shobj_new_create) {

	ldrb        w8,[sp]
	mov         w8,w8
	cmp         w8,#0
	beq         |$LN40@CreateMemM|

; 310  : 			shobj->beginPhysicalAddr = startingPhysAddr;

	ldr         x8,[sp,#0x18]
	add         x9,x8,#0x10
	ldr         x8,[sp,#0x60]
	str         x8,[x9]

; 311  : 			shobj->len = len;

	ldr         x8,[sp,#0x18]
	add         x9,x8,#0x18
	ldr         x8,[sp,#0x38]
	str         x8,[x9]

; 312  : 			UARTDebugOut("SHOBJ newly created -> %s \r\n", shobj->objectName);

	ldr         x8,[sp,#0x18]
	ldr         x1,[x8]
	adrp        x8,|$SG3685|
	add         x0,x8,PageOffset(|$SG3685|)
	bl          UARTDebugOut
|$LN40@CreateMemM|

; 313  : 		}
; 314  : 		if (shobj_len_increase)

	ldrb        w8,[sp,#1]
	mov         w8,w8
	cmp         w8,#0
	beq         |$LN41@CreateMemM|

; 315  : 			shobj->len += len;

	ldr         x8,[sp,#0x18]
	add         x8,x8,#0x18
	ldr         x9,[x8]
	ldr         x8,[sp,#0x38]
	add         x9,x9,x8
	ldr         x8,[sp,#0x18]
	add         x8,x8,#0x18
	str         x9,[x8]
|$LN41@CreateMemM|
|$LN39@CreateMemM|

; 316  : 	}
; 317  : 
; 318  : 	if (file)

	ldr         x8,[sp,#8]
	cmp         x8,#0
	beq         |$LN42@CreateMemM|

; 319  : 		file->flags |= FS_FLAG_CACHED;

	ldr         x8,[sp,#8]
	add         x8,x8,#0x40
	ldrh        w8,[x8]
	mov         w8,w8
	orr         w10,w8,#0x800
	ldr         x8,[sp,#8]
	add         x9,x8,#0x40
	uxth        w8,w10
	strh        w8,[x9]
|$LN42@CreateMemM|

; 320  : 
; 321  : 	proc->proc_mmap_len += len;

	ldr         x8,[sp,#0x48]
	add         x8,x8,#0x468
	ldr         x9,[x8]
	ldr         x8,[sp,#0x38]
	add         x9,x9,x8
	ldr         x8,[sp,#0x48]
	add         x8,x8,#0x468
	str         x9,[x8]

; 322  : 	return (void*)lookup_addr;

	ldr         x0,[sp,#0x70]
|$LN1@CreateMemM|
	add         sp,sp,#0xB0
	ldp         x19,lr,[sp]
	add         sp,sp,#0x10
	ret

	ENDP  ; |CreateMemMapping|

; Function compile flags: /Odtpy
; File C:\Users\paras\source\repos\grep-name\XenevaOS\KernelAA64\Mm\mmap.c

	AREA	|.text$mn|, CODE, ARM64

|SharedMemMapListInitialise| PROC

; 77   : void SharedMemMapListInitialise() {

|$LN3|
	str         lr,[sp,#-0x10]!

; 78   : 	shmmaplist = initialize_list();

	bl          initialize_list
	adrp        x8,shmmaplist
	str         x0,[x8,PageOffset(shmmaplist)]
	ldr         lr,[sp],#0x10
	ret

	ENDP  ; |SharedMemMapListInitialise|

	END
