; Listing generated by Microsoft (R) Optimizing Compiler Version 19.29.30159.0 

	TTL	C:\Users\paras\source\repos\grep-name\XenevaOS\KernelAA64\ARM64\Debug\mmfile.obj
	ARM64

	AREA	|.drectve|, DRECTVE


	AREA	|.bss|, NOINIT
|fb_first| %	0x8
|fb_last| %	0x8
|_page_cache_enable| % 0x1
	EXPORT	|AuMmngrFileCacheInit|
	EXPORT	|AuMmngrAddFileBack|
	EXPORT	|AuMmngrRemoveFileBack|
	EXPORT	|AuMmngrFileCacheEnable|
	EXPORT	|AuMmngrFileCacheLookup|
	EXPORT	|AuMmngrFileCacheGetPhysicalBlock|
	EXPORT	|AuMmngrPageCacheCreate|
	EXPORT	|AuMmngrFileCacheGetByIndex|
	EXPORT	|AuMmngrFileBackAddPageCache|
	IMPORT	|AuPmmngrGetPageDesc|
	IMPORT	|kmalloc|
	IMPORT	|UARTDebugOut|
	IMPORT	|data_cache_flush|
	IMPORT	|strcmp|
	IMPORT	|memset|

	AREA	|.pdata|, PDATA
|$pdata$AuMmngrAddFileBack| DCD imagerel |$LN6|
	DCD	0x8000a9
	;Flags[SingleProEpi] functionLength[168] RegF[0] RegI[0] H[0] frameChainReturn[UnChained] frameSize[16]
|$pdata$AuMmngrRemoveFileBack| DCD imagerel |$LN13|
	DCD	0x120016d
	;Flags[SingleProEpi] functionLength[364] RegF[0] RegI[0] H[0] frameChainReturn[UnChainedSavedLR] frameSize[32]
|$pdata$AuMmngrFileCacheLookup| DCD imagerel |$LN11|
	DCD	0x1a000ed
	;Flags[SingleProEpi] functionLength[236] RegF[0] RegI[0] H[0] frameChainReturn[UnChainedSavedLR] frameSize[48]
|$pdata$AuMmngrFileCacheGetPhysicalBlock| DCD imagerel |$LN8|
	DCD	0x1000099
	;Flags[SingleProEpi] functionLength[152] RegF[0] RegI[0] H[0] frameChainReturn[UnChained] frameSize[32]
|$pdata$AuMmngrPageCacheCreate| DCD imagerel |$LN3|
	DCD	0x1200035
	;Flags[SingleProEpi] functionLength[52] RegF[0] RegI[0] H[0] frameChainReturn[UnChainedSavedLR] frameSize[32]
|$pdata$AuMmngrFileCacheGetByIndex| DCD imagerel |$LN8|
	DCD	0x1000081
	;Flags[SingleProEpi] functionLength[128] RegF[0] RegI[0] H[0] frameChainReturn[UnChained] frameSize[32]
|$pdata$AuMmngrFileBackAddPageCache| DCD imagerel |$LN6|
	DCD	0x1a000fd
	;Flags[SingleProEpi] functionLength[252] RegF[0] RegI[0] H[0] frameChainReturn[UnChainedSavedLR] frameSize[48]

	AREA	|.data|, DATA
|$SG3156| DCB	"Removing file back :%s ", 0xd, 0xa, 0x0
; Function compile flags: /Odtpy
; File C:\Users\paras\source\repos\grep-name\XenevaOS\KernelAA64\Mm\mmfile.c

	AREA	|.text$mn|, CODE, ARM64

|AuMmngrFileBackAddPageCache| PROC

; 196  : void AuMmngrFileBackAddPageCache(AuMMFileBack* fileb, AuMMPageCache* cache) {

|$LN6|
	str         lr,[sp,#-0x10]!
	sub         sp,sp,#0x20
	str         x0,[sp,#8]
	str         x1,[sp]

; 197  : 	cache->next = NULL;

	ldr         x8,[sp]
	add         x9,x8,#0x18
	mov         x8,#0
	str         x8,[x9]

; 198  : 	cache->prev = NULL;

	ldr         x8,[sp]
	add         x9,x8,#0x20
	mov         x8,#0
	str         x8,[x9]

; 199  : 	if (fileb->pageCache == NULL) {

	ldr         x8,[sp,#8]
	add         x8,x8,#8
	ldr         x8,[x8]
	cmp         x8,#0
	bne         |$LN2@AuMmngrFil|

; 200  : 		fileb->pageCacheLast = cache;

	ldr         x8,[sp,#8]
	add         x9,x8,#0x10
	ldr         x8,[sp]
	str         x8,[x9]

; 201  : 		fileb->pageCache = cache;

	ldr         x8,[sp,#8]
	add         x9,x8,#8
	ldr         x8,[sp]
	str         x8,[x9]

; 202  : 	}

	b           |$LN3@AuMmngrFil|
|$LN2@AuMmngrFil|

; 203  : 	else {
; 204  : 		fileb->pageCacheLast->next = cache;

	ldr         x8,[sp,#8]
	add         x8,x8,#0x10
	ldr         x8,[x8]
	add         x9,x8,#0x18
	ldr         x8,[sp]
	str         x8,[x9]

; 205  : 		cache->prev = fileb->pageCacheLast;

	ldr         x8,[sp,#8]
	add         x10,x8,#0x10
	ldr         x8,[sp]
	add         x9,x8,#0x20
	ldr         x8,[x10]
	str         x8,[x9]
|$LN3@AuMmngrFil|

; 206  : 	}
; 207  : 	AuPageDesc* desc = AuPmmngrGetPageDesc(cache->physicalPage);

	ldr         x8,[sp]
	ldr         x0,[x8]
	bl          AuPmmngrGetPageDesc
	str         x0,[sp,#0x10]

; 208  : 
; 209  : 	if (desc && (cache->diskBlock != -1))

	ldr         x8,[sp,#0x10]
	cmp         x8,#0
	beq         |$LN4@AuMmngrFil|
	ldr         x8,[sp]
	add         x8,x8,#8
	ldr         x8,[x8]
	cmn         x8,#1
	beq         |$LN4@AuMmngrFil|

; 210  : 		desc->diskblock = cache->diskBlock;

	ldr         x8,[sp]
	add         x10,x8,#8
	ldr         x8,[sp,#0x10]
	add         x9,x8,#0x20
	ldr         x8,[x10]
	str         x8,[x9]
|$LN4@AuMmngrFil|

; 211  : 
; 212  : 	fileb->pageCacheLast = cache;

	ldr         x8,[sp,#8]
	add         x9,x8,#0x10
	ldr         x8,[sp]
	str         x8,[x9]
	add         sp,sp,#0x20
	ldr         lr,[sp],#0x10
	ret

	ENDP  ; |AuMmngrFileBackAddPageCache|

; Function compile flags: /Odtpy
; File C:\Users\paras\source\repos\grep-name\XenevaOS\KernelAA64\Mm\mmfile.c

	AREA	|.text$mn|, CODE, ARM64

|AuMmngrFileCacheGetByIndex| PROC

; 171  : AuMMPageCache* AuMmngrFileCacheGetByIndex(AuMMFileBack* fb, size_t pageIndex) {

|$LN8|
	sub         sp,sp,#0x20
	str         x0,[sp,#8]
	str         x1,[sp,#0x10]

; 172  : 	if (!fb)

	ldr         x8,[sp,#8]
	cmp         x8,#0
	bne         |$LN5@AuMmngrFil|

; 173  : 		return NULL;

	mov         x0,#0
	b           |$LN1@AuMmngrFil|
|$LN5@AuMmngrFil|

; 174  : 	for (AuMMPageCache* cache = fb->pageCache; cache != NULL; cache = cache->next) {

	ldr         x8,[sp,#8]
	add         x8,x8,#8
	ldr         x8,[x8]
	str         x8,[sp]
	b           |$LN4@AuMmngrFil|
|$LN2@AuMmngrFil|
	ldr         x8,[sp]
	add         x8,x8,#0x18
	ldr         x8,[x8]
	str         x8,[sp]
|$LN4@AuMmngrFil|
	ldr         x8,[sp]
	cmp         x8,#0
	beq         |$LN3@AuMmngrFil|

; 175  : 		if (cache->pageIndex == pageIndex)

	ldr         x8,[sp]
	add         x8,x8,#0x10
	ldr         x9,[sp,#0x10]
	ldr         x8,[x8]
	cmp         x8,x9
	bne         |$LN6@AuMmngrFil|

; 176  : 			return cache;

	ldr         x0,[sp]
	b           |$LN1@AuMmngrFil|
|$LN6@AuMmngrFil|

; 177  : 	}

	b           |$LN2@AuMmngrFil|
|$LN3@AuMmngrFil|

; 178  : 	return NULL;

	mov         x0,#0
|$LN1@AuMmngrFil|
	add         sp,sp,#0x20
	ret

	ENDP  ; |AuMmngrFileCacheGetByIndex|

; Function compile flags: /Odtpy
; File C:\Users\paras\source\repos\grep-name\XenevaOS\KernelAA64\Mm\mmfile.c

	AREA	|.text$mn|, CODE, ARM64

|AuMmngrPageCacheCreate| PROC

; 185  : AuMMPageCache* AuMmngrPageCacheCreate() {

|$LN3|
	str         lr,[sp,#-0x10]!
	sub         sp,sp,#0x10

; 186  : 	AuMMPageCache* pc = (AuMMPageCache*)kmalloc(sizeof(AuMMPageCache));

	mov         w0,#0x28
	bl          kmalloc
	str         x0,[sp]

; 187  : 	memset(pc, 0, sizeof(AuMMPageCache));

	mov         w2,#0x28
	mov         w1,#0
	ldr         x0,[sp]
	bl          memset

; 188  : 	return pc;

	ldr         x0,[sp]
	add         sp,sp,#0x10
	ldr         lr,[sp],#0x10
	ret

	ENDP  ; |AuMmngrPageCacheCreate|

; Function compile flags: /Odtpy
; File C:\Users\paras\source\repos\grep-name\XenevaOS\KernelAA64\Mm\mmfile.c

	AREA	|.text$mn|, CODE, ARM64

|AuMmngrFileCacheGetPhysicalBlock| PROC

; 158  : uint64_t AuMmngrFileCacheGetPhysicalBlock(AuMMFileBack* fb, uint32_t fileoffset) {

|$LN8|
	sub         sp,sp,#0x20
	str         x0,[sp,#0x10]
	str         w1,[sp]

; 159  : 	if (!fb)

	ldr         x8,[sp,#0x10]
	cmp         x8,#0
	bne         |$LN5@AuMmngrFil|

; 160  : 		return NULL;

	mov         x0,#0
	b           |$LN1@AuMmngrFil|
|$LN5@AuMmngrFil|

; 161  : 	size_t pageIndex = fileoffset / PAGE_SIZE;

	ldr         w8,[sp]
	uxtw        x9,w8
	mov         x8,#0x1000
	udiv        x8,x9,x8
	str         x8,[sp,#0x18]

; 162  : 	for (AuMMPageCache* cache = fb->pageCache; cache != NULL; cache = cache->next) {

	ldr         x8,[sp,#0x10]
	add         x8,x8,#8
	ldr         x8,[x8]
	str         x8,[sp,#8]
	b           |$LN4@AuMmngrFil|
|$LN2@AuMmngrFil|
	ldr         x8,[sp,#8]
	add         x8,x8,#0x18
	ldr         x8,[x8]
	str         x8,[sp,#8]
|$LN4@AuMmngrFil|
	ldr         x8,[sp,#8]
	cmp         x8,#0
	beq         |$LN3@AuMmngrFil|

; 163  : 		if (cache->pageIndex == pageIndex)

	ldr         x8,[sp,#8]
	add         x8,x8,#0x10
	ldr         x9,[sp,#0x18]
	ldr         x8,[x8]
	cmp         x8,x9
	bne         |$LN6@AuMmngrFil|

; 164  : 			return cache->physicalPage;

	ldr         x8,[sp,#8]
	ldr         x0,[x8]
	b           |$LN1@AuMmngrFil|
|$LN6@AuMmngrFil|

; 165  : 	}

	b           |$LN2@AuMmngrFil|
|$LN3@AuMmngrFil|

; 166  : 
; 167  : 	return UINT64_MAX;

	mov         x0,#-1
|$LN1@AuMmngrFil|
	add         sp,sp,#0x20
	ret

	ENDP  ; |AuMmngrFileCacheGetPhysicalBlock|

; Function compile flags: /Odtpy
; File C:\Users\paras\source\repos\grep-name\XenevaOS\KernelAA64\Mm\mmfile.c

	AREA	|.text$mn|, CODE, ARM64

|AuMmngrFileCacheLookup| PROC

; 125  : AuMMFileBack* AuMmngrFileCacheLookup(const char* filename) {

|$LN11|
	str         lr,[sp,#-0x10]!
	sub         sp,sp,#0x20
	str         x0,[sp]

; 126  : 	if (_page_cache_enable == false)

	adrp        x8,_page_cache_enable
	ldrb        w8,[x8,PageOffset(_page_cache_enable)]
	mov         w8,w8
	cmp         w8,#0
	bne         |$LN7@AuMmngrFil|

; 127  : 		return NULL;

	mov         x0,#0
	b           |$LN1@AuMmngrFil|
|$LN7@AuMmngrFil|

; 128  : 
; 129  : 	char* fname = filename;

	ldr         x8,[sp]
	str         x8,[sp,#0x10]
|$LN2@AuMmngrFil|

; 130  : 	while (*filename) {

	ldr         x8,[sp]
	ldrsb       w8,[x8]
	mov         w8,w8
	cmp         w8,#0
	beq         |$LN3@AuMmngrFil|

; 131  : 		if (*filename == '/')

	ldr         x8,[sp]
	ldrsb       w8,[x8]
	mov         w8,w8
	cmp         w8,#0x2F
	bne         |$LN8@AuMmngrFil|

; 132  : 			fname = filename + 1;

	ldr         x8,[sp]
	add         x8,x8,#1
	str         x8,[sp,#0x10]
|$LN8@AuMmngrFil|

; 133  : 		filename++;

	ldr         x8,[sp]
	add         x8,x8,#1
	str         x8,[sp]

; 134  : 	}

	b           |$LN2@AuMmngrFil|
|$LN3@AuMmngrFil|

; 135  : #ifdef __TARGET_BOARD_QEMU_VIRT__
; 136  : 	data_cache_flush(fname);

	ldr         x0,[sp,#0x10]
	bl          data_cache_flush

; 137  : #endif
; 138  : 	
; 139  : 	AuMMFileBack* fileback = NULL;

	mov         x8,#0
	str         x8,[sp,#0x18]

; 140  : 
; 141  : 	for (AuMMFileBack* fileb_ = fb_first; fileb_ != NULL; fileb_ = fileb_->next) {

	adrp        x8,fb_first
	ldr         x8,[x8,PageOffset(fb_first)]
	str         x8,[sp,#8]
	b           |$LN6@AuMmngrFil|
|$LN4@AuMmngrFil|
	ldr         x8,[sp,#8]
	add         x8,x8,#0x20
	ldr         x8,[x8]
	str         x8,[sp,#8]
|$LN6@AuMmngrFil|
	ldr         x8,[sp,#8]
	cmp         x8,#0
	beq         |$LN5@AuMmngrFil|

; 142  : 		if (strcmp(fname, fileb_->file->filename) == 0) {

	ldr         x8,[sp,#8]
	ldr         x1,[x8]
	ldr         x0,[sp,#0x10]
	bl          strcmp
	mov         w0,w0
	cmp         w0,#0
	bne         |$LN9@AuMmngrFil|

; 143  : 			fileback = fileb_;

	ldr         x8,[sp,#8]
	str         x8,[sp,#0x18]

; 144  : 			break;

	b           |$LN5@AuMmngrFil|
|$LN9@AuMmngrFil|

; 145  : 		}
; 146  : 	}

	b           |$LN4@AuMmngrFil|
|$LN5@AuMmngrFil|

; 147  : 
; 148  : 	return fileback;

	ldr         x0,[sp,#0x18]
|$LN1@AuMmngrFil|
	add         sp,sp,#0x20
	ldr         lr,[sp],#0x10
	ret

	ENDP  ; |AuMmngrFileCacheLookup|

; Function compile flags: /Odtpy
; File C:\Users\paras\source\repos\grep-name\XenevaOS\KernelAA64\Mm\mmfile.c

	AREA	|.text$mn|, CODE, ARM64

|AuMmngrFileCacheEnable| PROC

; 117  : 	_page_cache_enable = true;

	adrp        x9,_page_cache_enable
	mov         w8,#1
	strb        w8,[x9,PageOffset(_page_cache_enable)]
	ret

	ENDP  ; |AuMmngrFileCacheEnable|

; Function compile flags: /Odtpy
; File C:\Users\paras\source\repos\grep-name\XenevaOS\KernelAA64\Mm\mmfile.c

	AREA	|.text$mn|, CODE, ARM64

|AuMmngrRemoveFileBack| PROC

; 84   : void AuMmngrRemoveFileBack(AuMMFileBack* fb) {

|$LN13|
	str         lr,[sp,#-0x10]!
	sub         sp,sp,#0x10
	str         x0,[sp]

; 85   : 	UARTDebugOut("Removing file back :%s \r\n", fb->file->filename);

	ldr         x8,[sp]
	ldr         x1,[x8]
	adrp        x8,|$SG3156|
	add         x0,x8,PageOffset(|$SG3156|)
	bl          UARTDebugOut

; 86   : 	if (fb_first == NULL)

	adrp        x8,fb_first
	ldr         x8,[x8,PageOffset(fb_first)]
	cmp         x8,#0
	bne         |$LN2@AuMmngrRem|

; 87   : 		return;

	b           |$LN1@AuMmngrRem|
|$LN2@AuMmngrRem|

; 88   : 	
; 89   : 	if (fb == fb_first) {

	adrp        x8,fb_first
	ldr         x9,[x8,PageOffset(fb_first)]
	ldr         x8,[sp]
	cmp         x8,x9
	bne         |$LN3@AuMmngrRem|

; 90   : 		fb_first = fb_first->next;

	adrp        x8,fb_first
	ldr         x8,[x8,PageOffset(fb_first)]
	add         x8,x8,#0x20
	adrp        x9,fb_first
	ldr         x8,[x8]
	str         x8,[x9,PageOffset(fb_first)]

; 91   : 		if (fb_first)

	adrp        x8,fb_first
	ldr         x8,[x8,PageOffset(fb_first)]
	cmp         x8,#0
	beq         |$LN5@AuMmngrRem|

; 92   : 			fb_first->prev = NULL;

	adrp        x8,fb_first
	ldr         x8,[x8,PageOffset(fb_first)]
	add         x9,x8,#0x28
	mov         x8,#0
	str         x8,[x9]
|$LN5@AuMmngrRem|

; 93   : 	}

	b           |$LN4@AuMmngrRem|
|$LN3@AuMmngrRem|

; 94   : 	else {
; 95   : 		if (fb->prev)

	ldr         x8,[sp]
	add         x8,x8,#0x28
	ldr         x8,[x8]
	cmp         x8,#0
	beq         |$LN6@AuMmngrRem|

; 96   : 			fb->prev->next = fb->next;

	ldr         x8,[sp]
	add         x10,x8,#0x20
	ldr         x8,[sp]
	add         x8,x8,#0x28
	ldr         x8,[x8]
	add         x9,x8,#0x20
	ldr         x8,[x10]
	str         x8,[x9]
|$LN6@AuMmngrRem|
|$LN4@AuMmngrRem|

; 97   : 	}
; 98   : 	if (fb == fb_last) {

	adrp        x8,fb_last
	ldr         x9,[x8,PageOffset(fb_last)]
	ldr         x8,[sp]
	cmp         x8,x9
	bne         |$LN7@AuMmngrRem|

; 99   : 		fb_last = fb->prev;

	ldr         x8,[sp]
	add         x8,x8,#0x28
	adrp        x9,fb_last
	ldr         x8,[x8]
	str         x8,[x9,PageOffset(fb_last)]

; 100  : 		if (fb_last)

	adrp        x8,fb_last
	ldr         x8,[x8,PageOffset(fb_last)]
	cmp         x8,#0
	beq         |$LN9@AuMmngrRem|

; 101  : 			fb_last->next = NULL;

	adrp        x8,fb_last
	ldr         x8,[x8,PageOffset(fb_last)]
	add         x9,x8,#0x20
	mov         x8,#0
	str         x8,[x9]
|$LN9@AuMmngrRem|

; 102  : 	}

	b           |$LN8@AuMmngrRem|
|$LN7@AuMmngrRem|

; 103  : 	else {
; 104  : 		if (fb->next)

	ldr         x8,[sp]
	add         x8,x8,#0x20
	ldr         x8,[x8]
	cmp         x8,#0
	beq         |$LN10@AuMmngrRem|

; 105  : 			fb->next->prev = fb->prev;

	ldr         x8,[sp]
	add         x10,x8,#0x28
	ldr         x8,[sp]
	add         x8,x8,#0x20
	ldr         x8,[x8]
	add         x9,x8,#0x28
	ldr         x8,[x10]
	str         x8,[x9]
|$LN10@AuMmngrRem|
|$LN8@AuMmngrRem|

; 106  : 	}
; 107  : 
; 108  : 	fb->next = (AuMMFileBack*)0xDEADDEADDEADDEADULL;

	ldr         x8,[sp]
	add         x9,x8,#0x20
	ldr         x8,|$LN12@AuMmngrRem|
	str         x8,[x9]

; 109  : 	fb->prev = (AuMMFileBack*)0xDEADDEADDEADDEADULL;

	ldr         x8,[sp]
	add         x9,x8,#0x28
	ldr         x8,|$LN12@AuMmngrRem|
	str         x8,[x9]
|$LN1@AuMmngrRem|
	add         sp,sp,#0x10
	ldr         lr,[sp],#0x10
	ret
	nop
|$LN12@AuMmngrRem|
	DCQ         0xdeaddeaddeaddead

	ENDP  ; |AuMmngrRemoveFileBack|

; Function compile flags: /Odtpy
; File C:\Users\paras\source\repos\grep-name\XenevaOS\KernelAA64\Mm\mmfile.c

	AREA	|.text$mn|, CODE, ARM64

|AuMmngrAddFileBack| PROC

; 64   : void AuMmngrAddFileBack(AuMMFileBack* fb) {

|$LN6|
	sub         sp,sp,#0x10
	str         x0,[sp]

; 65   : 	if (_page_cache_enable == false)

	adrp        x8,_page_cache_enable
	ldrb        w8,[x8,PageOffset(_page_cache_enable)]
	mov         w8,w8
	cmp         w8,#0
	bne         |$LN2@AuMmngrAdd|

; 66   : 		return;

	b           |$LN1@AuMmngrAdd|
|$LN2@AuMmngrAdd|

; 67   : 	fb->next = NULL;

	ldr         x8,[sp]
	add         x9,x8,#0x20
	mov         x8,#0
	str         x8,[x9]

; 68   : 	fb->prev = NULL;

	ldr         x8,[sp]
	add         x9,x8,#0x28
	mov         x8,#0
	str         x8,[x9]

; 69   : 	if (fb_first == NULL) {

	adrp        x8,fb_first
	ldr         x8,[x8,PageOffset(fb_first)]
	cmp         x8,#0
	bne         |$LN3@AuMmngrAdd|

; 70   : 		fb_last = fb;

	adrp        x9,fb_last
	ldr         x8,[sp]
	str         x8,[x9,PageOffset(fb_last)]

; 71   : 		fb_first = fb;

	adrp        x9,fb_first
	ldr         x8,[sp]
	str         x8,[x9,PageOffset(fb_first)]

; 72   : 	}

	b           |$LN4@AuMmngrAdd|
|$LN3@AuMmngrAdd|

; 73   : 	else {
; 74   : 		fb_last->next = fb;

	adrp        x8,fb_last
	ldr         x8,[x8,PageOffset(fb_last)]
	add         x9,x8,#0x20
	ldr         x8,[sp]
	str         x8,[x9]

; 75   : 		fb->prev = fb_last;

	ldr         x8,[sp]
	add         x9,x8,#0x28
	adrp        x8,fb_last
	ldr         x8,[x8,PageOffset(fb_last)]
	str         x8,[x9]
|$LN4@AuMmngrAdd|

; 76   : 	}
; 77   : 	fb_last = fb;

	adrp        x9,fb_last
	ldr         x8,[sp]
	str         x8,[x9,PageOffset(fb_last)]
|$LN1@AuMmngrAdd|
	add         sp,sp,#0x10
	ret

	ENDP  ; |AuMmngrAddFileBack|

; Function compile flags: /Odtpy
; File C:\Users\paras\source\repos\grep-name\XenevaOS\KernelAA64\Mm\mmfile.c

	AREA	|.text$mn|, CODE, ARM64

|AuMmngrFileCacheInit| PROC

; 51   : 	//baalor kela, enei bonai thoisu eitu function
; 52   : 	fb_first = NULL;

	adrp        x9,fb_first
	mov         x8,#0
	str         x8,[x9,PageOffset(fb_first)]

; 53   : 	fb_last = NULL;

	adrp        x9,fb_last
	mov         x8,#0
	str         x8,[x9,PageOffset(fb_last)]

; 54   : 	_page_cache_enable = false;

	adrp        x9,_page_cache_enable
	mov         w8,#0
	strb        w8,[x9,PageOffset(_page_cache_enable)]
	ret

	ENDP  ; |AuMmngrFileCacheInit|

	END
