; Listing generated by Microsoft (R) Optimizing Compiler Version 19.29.30159.0 

	TTL	C:\Users\paras\source\repos\grep-name\XenevaOS\KernelAA64\ARM64\Debug\mmserv.obj
	ARM64

	AREA	|.drectve|, DRECTVE

	EXPORT	|CreateSharedMem|
	EXPORT	|ObtainSharedMem|
	EXPORT	|UnmapSharedMem|
	EXPORT	|GetProcessHeapMem|
	EXPORT	|ProcessHeapUnmap|
	IMPORT	|AuGetCurrentThread|
	IMPORT	|AuProcessFindThread|
	IMPORT	|AuProcessFindSubThread|
	IMPORT	|dsb_ish|
	IMPORT	|dsb_sy_barrier|
	IMPORT	|isb_flush|
	IMPORT	|tlb_flush_vmalle1is|
	IMPORT	|AuCreateSHM|
	IMPORT	|AuSHMObtainMem|
	IMPORT	|AuSHMUnmap|
	IMPORT	|AuPmmngrAlloc|
	IMPORT	|AuPmmngrFree|
	IMPORT	|AuVmmngrGetPage|
	IMPORT	|AuMapPage|
	IMPORT	|AuGetFreePage|
	IMPORT	|UARTDebugOut|
	IMPORT	|AuTextOut|

	AREA	|.pdata|, PDATA
|$pdata$CreateSharedMem| DCD imagerel |$LN6|
	DCD	0x1a0009d
	;Flags[SingleProEpi] functionLength[156] RegF[0] RegI[0] H[0] frameChainReturn[UnChainedSavedLR] frameSize[48]
|$pdata$ObtainSharedMem| DCD imagerel |$LN6|
	DCD	0x1a0008d
	;Flags[SingleProEpi] functionLength[140] RegF[0] RegI[0] H[0] frameChainReturn[UnChainedSavedLR] frameSize[48]
|$pdata$UnmapSharedMem| DCD imagerel |$LN6|
	DCD	0x1a00075
	;Flags[SingleProEpi] functionLength[116] RegF[0] RegI[0] H[0] frameChainReturn[UnChainedSavedLR] frameSize[48]
|$pdata$GetProcessHeapMem| DCD imagerel |$LN14|
	DCD	0x2a001dd
	;Flags[SingleProEpi] functionLength[476] RegF[0] RegI[0] H[0] frameChainReturn[UnChainedSavedLR] frameSize[80]
|$pdata$ProcessHeapUnmap| DCD imagerel |$LN14|
	DCD	0x32001d9
	;Flags[SingleProEpi] functionLength[472] RegF[0] RegI[0] H[0] frameChainReturn[UnChainedSavedLR] frameSize[96]

	AREA	|.data|, DATA
|$SG3366| DCB	"Returning error heap mem -> %d ", 0xd, 0xa, 0x0
	%	6
|$SG3371| DCB	"[GetProcessHeapMem]: dlmalloc is asking to free up pages"
	DCB	" ", 0xd, 0xa, 0x0
	%	4
|$SG3373| DCB	"already present %x ", 0xd, 0xa, 0x0
	%	2
|$SG3392| DCB	"[ProcessHeapUnmap]: called : %x , sz : %d ", 0xd, 0xa, 0x0
	%	3
|$SG3394| DCB	"Returning error heap unmap -> %d ", 0xd, 0xa, 0x0
; Function compile flags: /Odtpy
; File C:\Users\paras\source\repos\grep-name\XenevaOS\KernelAA64\Mm\mmserv.c

	AREA	|.text$mn|, CODE, ARM64

|ProcessHeapUnmap| PROC

; 151  : int ProcessHeapUnmap(void* ptr, size_t sz) {

|$LN14|
	str         lr,[sp,#-0x10]!
	sub         sp,sp,#0x50
	str         x0,[sp,#0x30]
	str         x1,[sp,#8]

; 152  : 	UARTDebugOut("[ProcessHeapUnmap]: called : %x , sz : %d \r\n", ptr, sz);

	ldr         x2,[sp,#8]
	ldr         x1,[sp,#0x30]
	adrp        x8,|$SG3392|
	add         x0,x8,PageOffset(|$SG3392|)
	bl          UARTDebugOut

; 153  : 	/* check if size is page aligned */
; 154  : 	if ((sz % PAGE_SIZE) != 0) {

	ldr         x10,[sp,#8]
	mov         x9,#0x1000
	udiv        x8,x10,x9
	mul         x8,x8,x9
	sub         x8,x10,x8
	cmp         x8,#0
	beq         |$LN5@ProcessHea|

; 155  : 		AuTextOut("Returning error heap unmap -> %d \r\n", sz);

	ldr         x1,[sp,#8]
	adrp        x8,|$SG3394|
	add         x0,x8,PageOffset(|$SG3394|)
	bl          AuTextOut

; 156  : 		return -1;

	mov         w0,#-1
	b           |$LN1@ProcessHea|

; 157  : 		sz = PAGE_ALIGN(sz);

	ldr         x8,[sp,#8]
	and         x8,x8,#0xFFF
	cmp         x8,#0
	beq         |$LN12@ProcessHea|
	ldr         x8,[sp,#8]
	add         x8,x8,#1,lsl #0xC
	and         x8,x8,#-0x1000
	str         x8,[sp,#0x28]
	b           |$LN13@ProcessHea|
|$LN12@ProcessHea|
	ldr         x8,[sp,#8]
	str         x8,[sp,#0x28]
|$LN13@ProcessHea|
	ldr         x8,[sp,#0x28]
	str         x8,[sp,#8]
|$LN5@ProcessHea|

; 158  : 	}
; 159  : 
; 160  : 	AA64Thread* thr = AuGetCurrentThread();

	bl          AuGetCurrentThread
	str         x0,[sp,#0x20]

; 161  : 	if (!thr)

	ldr         x8,[sp,#0x20]
	cmp         x8,#0
	bne         |$LN6@ProcessHea|

; 162  : 		return -1;

	mov         w0,#-1
	b           |$LN1@ProcessHea|
|$LN6@ProcessHea|

; 163  : 	AuProcess* proc = AuProcessFindThread(thr);

	ldr         x0,[sp,#0x20]
	bl          AuProcessFindThread
	str         x0,[sp,#0x18]

; 164  : 	if (!proc) {

	ldr         x8,[sp,#0x18]
	cmp         x8,#0
	bne         |$LN7@ProcessHea|

; 165  : 		proc = AuProcessFindSubThread(thr);

	ldr         x0,[sp,#0x20]
	bl          AuProcessFindSubThread
	str         x0,[sp,#0x18]

; 166  : 		if (!proc) {

	ldr         x8,[sp,#0x18]
	cmp         x8,#0
	bne         |$LN8@ProcessHea|

; 167  : 			return -1;

	mov         w0,#-1
	b           |$LN1@ProcessHea|
|$LN8@ProcessHea|
|$LN7@ProcessHea|

; 168  : 		}
; 169  : 	}
; 170  : 	uint64_t start_addr = (uint64_t)ptr;

	ldr         x8,[sp,#0x30]
	str         x8,[sp,#0x40]

; 171  : 	for (int i = 0; i < sz / PAGE_SIZE; i++) {

	mov         w8,#0
	str         w8,[sp]
	b           |$LN4@ProcessHea|
|$LN2@ProcessHea|
	ldr         w8,[sp]
	add         w8,w8,#1
	str         w8,[sp]
|$LN4@ProcessHea|
	ldr         w8,[sp]
	sxtw        x10,w8
	ldr         x9,[sp,#8]
	mov         x8,#0x1000
	udiv        x8,x9,x8
	cmp         x10,x8
	bhs         |$LN3@ProcessHea|

; 172  : 		AuVPage* page_ = AuVmmngrGetPage(start_addr + i * PAGE_SIZE, VIRT_GETPAGE_ONLY_RET, VIRT_GETPAGE_ONLY_RET);

	ldr         w8,[sp]
	sxtw        x9,w8
	mov         x8,#0x1000
	mul         x9,x9,x8
	ldr         x8,[sp,#0x40]
	add         x0,x8,x9
	mov         w2,#2
	mov         w1,#2
	bl          AuVmmngrGetPage
	str         x0,[sp,#0x10]

; 173  : 		if (page_) {

	ldr         x8,[sp,#0x10]
	cmp         x8,#0
	beq         |$LN9@ProcessHea|

; 174  : 			uint64_t phys_page = page_->bits.page << PAGE_SHIFT;

	ldr         x8,[sp,#0x10]
	ldr         x8,[x8]
	ubfx        x8,x8,#0xC,#0x24
	lsl         x8,x8,#0xC
	str         x8,[sp,#0x38]

; 175  : 			//UARTDebugOut("Unmap phys page : %x \n", phys_page);
; 176  : 			if (phys_page) {

	ldr         x8,[sp,#0x38]
	cmp         x8,#0
	beq         |$LN10@ProcessHea|

; 177  : 				AuPmmngrFree((void*)phys_page);

	ldr         x0,[sp,#0x38]
	bl          AuPmmngrFree

; 178  : 				//page_->raw = 0;
; 179  : 				page_->bits.present = 0;

	ldr         x8,[sp,#0x10]
	ldr         x8,[x8]
	and         x9,x8,#-2
	ldr         x8,[sp,#0x10]
	str         x9,[x8]

; 180  : 				isb_flush();

	bl          isb_flush

; 181  : 				page_->bits.page = 0;

	ldr         x8,[sp,#0x10]
	ldr         x8,[x8]
	and         x9,x8,#-0xFFFFFFFFF001
	ldr         x8,[sp,#0x10]
	str         x9,[x8]

; 182  : 				isb_flush();

	bl          isb_flush
|$LN10@ProcessHea|
|$LN9@ProcessHea|

; 183  : 				/* flush all PTE entries in TLB*/
; 184  : 				
; 185  : 			}
; 186  : 		}
; 187  : 	
; 188  : 	}

	b           |$LN2@ProcessHea|
|$LN3@ProcessHea|

; 189  : 
; 190  : 	tlb_flush_vmalle1is();

	bl          tlb_flush_vmalle1is

; 191  : 	dsb_ish();

	bl          dsb_ish

; 192  : 	isb_flush();

	bl          isb_flush

; 193  : 	/*if (start_addr < proc->proc_mem_heap)*/
; 194  : 	proc->proc_mem_heap = start_addr;

	ldr         x8,[sp,#0x18]
	add         x9,x8,#0x458
	ldr         x8,[sp,#0x40]
	str         x8,[x9]

; 195  : 	return 0;

	mov         w0,#0
|$LN1@ProcessHea|
	add         sp,sp,#0x50
	ldr         lr,[sp],#0x10
	ret

	ENDP  ; |ProcessHeapUnmap|

; Function compile flags: /Odtpy
; File C:\Users\paras\source\repos\grep-name\XenevaOS\KernelAA64\Mm\mmserv.c

	AREA	|.text$mn|, CODE, ARM64

|GetProcessHeapMem| PROC

; 108  : uint64_t GetProcessHeapMem(size_t sz) {

|$LN14|
	str         lr,[sp,#-0x10]!
	sub         sp,sp,#0x40
	str         x0,[sp,#8]

; 109  : 	/* check if size is page aligned */
; 110  : 	if ((sz % PAGE_SIZE) != 0) {

	ldr         x10,[sp,#8]
	mov         x9,#0x1000
	udiv        x8,x10,x9
	mul         x8,x8,x9
	sub         x8,x10,x8
	cmp         x8,#0
	beq         |$LN5@GetProcess|

; 111  : 		UARTDebugOut("Returning error heap mem -> %d \r\n", sz);

	ldr         x1,[sp,#8]
	adrp        x8,|$SG3366|
	add         x0,x8,PageOffset(|$SG3366|)
	bl          UARTDebugOut

; 112  : 		sz = PAGE_ALIGN(sz);

	ldr         x8,[sp,#8]
	and         x8,x8,#0xFFF
	cmp         x8,#0
	beq         |$LN12@GetProcess|
	ldr         x8,[sp,#8]
	add         x8,x8,#1,lsl #0xC
	and         x8,x8,#-0x1000
	str         x8,[sp,#0x28]
	b           |$LN13@GetProcess|
|$LN12@GetProcess|
	ldr         x8,[sp,#8]
	str         x8,[sp,#0x28]
|$LN13@GetProcess|
	ldr         x8,[sp,#0x28]
	str         x8,[sp,#8]
|$LN5@GetProcess|

; 113  : 	}
; 114  : 
; 115  : 	AA64Thread* thr = AuGetCurrentThread();

	bl          AuGetCurrentThread
	str         x0,[sp,#0x20]

; 116  : 	if (!thr)

	ldr         x8,[sp,#0x20]
	cmp         x8,#0
	bne         |$LN6@GetProcess|

; 117  : 		return -1;

	mov         x0,#-1
	b           |$LN1@GetProcess|
|$LN6@GetProcess|

; 118  : 	AuProcess* proc = AuProcessFindThread(thr);

	ldr         x0,[sp,#0x20]
	bl          AuProcessFindThread
	str         x0,[sp,#0x10]

; 119  : 	if (!proc) {

	ldr         x8,[sp,#0x10]
	cmp         x8,#0
	bne         |$LN7@GetProcess|

; 120  : 		proc = AuProcessFindSubThread(thr);

	ldr         x0,[sp,#0x20]
	bl          AuProcessFindSubThread
	str         x0,[sp,#0x10]

; 121  : 		if (!proc) {

	ldr         x8,[sp,#0x10]
	cmp         x8,#0
	bne         |$LN8@GetProcess|

; 122  : 			return -1;

	mov         x0,#-1
	b           |$LN1@GetProcess|
|$LN8@GetProcess|
|$LN7@GetProcess|

; 123  : 		}
; 124  : 	}
; 125  : 
; 126  : 	if (sz < 0)

	ldr         x8,[sp,#8]
	cmp         x8,#0
	bhs         |$LN9@GetProcess|

; 127  : 		UARTDebugOut("[GetProcessHeapMem]: dlmalloc is asking to free up pages \r\n");

	adrp        x8,|$SG3371|
	add         x0,x8,PageOffset(|$SG3371|)
	bl          UARTDebugOut
|$LN9@GetProcess|

; 128  : 	
; 129  : 	uint64_t start_addr = (uint64_t)AuGetFreePage(false, (void*)proc->proc_mem_heap);

	ldr         x8,[sp,#0x10]
	add         x8,x8,#0x458
	ldr         x1,[x8]
	mov         w0,#0
	bl          AuGetFreePage
	str         x0,[sp,#0x18]

; 130  : 	for (int i = 0; i < sz / PAGE_SIZE; i++) {

	mov         w8,#0
	str         w8,[sp]
	b           |$LN4@GetProcess|
|$LN2@GetProcess|
	ldr         w8,[sp]
	add         w8,w8,#1
	str         w8,[sp]
|$LN4@GetProcess|
	ldr         w8,[sp]
	sxtw        x10,w8
	ldr         x9,[sp,#8]
	mov         x8,#0x1000
	udiv        x8,x9,x8
	cmp         x10,x8
	bhs         |$LN3@GetProcess|

; 131  : 		uint64_t phys = (uint64_t)AuPmmngrAlloc();

	bl          AuPmmngrAlloc
	str         x0,[sp,#0x30]

; 132  : 		if (!AuMapPage(phys, start_addr + i * PAGE_SIZE,PTE_AP_RW_USER | PTE_NORMAL_MEM)) {

	ldr         w8,[sp]
	sxtw        x9,w8
	mov         x8,#0x1000
	mul         x9,x9,x8
	ldr         x8,[sp,#0x18]
	add         x1,x8,x9
	mov         w2,#0x44
	ldr         x0,[sp,#0x30]
	bl          AuMapPage
	uxtb        w8,w0
	mov         w8,w8
	cmp         w8,#0
	bne         |$LN10@GetProcess|

; 133  : 			UARTDebugOut("already present %x \r\n", (start_addr + i * 0x1000));

	ldr         w9,[sp]
	mov         w8,#0x1000
	mul         w8,w9,w8
	sxtw        x9,w8
	ldr         x8,[sp,#0x18]
	add         x1,x8,x9
	adrp        x8,|$SG3373|
	add         x0,x8,PageOffset(|$SG3373|)
	bl          UARTDebugOut

; 134  : 			AuPmmngrFree((void*)phys);

	ldr         x0,[sp,#0x30]
	bl          AuPmmngrFree
|$LN10@GetProcess|

; 135  : 		}
; 136  : 	}

	b           |$LN2@GetProcess|
|$LN3@GetProcess|

; 137  : 	isb_flush();

	bl          isb_flush

; 138  : 	dsb_ish();

	bl          dsb_ish

; 139  : 	dsb_sy_barrier();

	bl          dsb_sy_barrier

; 140  : 	proc->proc_mem_heap = start_addr;

	ldr         x8,[sp,#0x10]
	add         x9,x8,#0x458
	ldr         x8,[sp,#0x18]
	str         x8,[x9]

; 141  : 	proc->proc_heapmem_len += sz;

	ldr         x8,[sp,#0x10]
	add         x8,x8,#0x460
	ldr         x9,[x8]
	ldr         x8,[sp,#8]
	add         x9,x9,x8
	ldr         x8,[sp,#0x10]
	add         x8,x8,#0x460
	str         x9,[x8]

; 142  : 	return start_addr;

	ldr         x0,[sp,#0x18]
|$LN1@GetProcess|
	add         sp,sp,#0x40
	ldr         lr,[sp],#0x10
	ret

	ENDP  ; |GetProcessHeapMem|

; Function compile flags: /Odtpy
; File C:\Users\paras\source\repos\grep-name\XenevaOS\KernelAA64\Mm\mmserv.c

	AREA	|.text$mn|, CODE, ARM64

|UnmapSharedMem| PROC

; 89   : void UnmapSharedMem(uint16_t key) {

|$LN6|
	str         lr,[sp,#-0x10]!
	sub         sp,sp,#0x20
	uxth        w8,w0
	strh        w8,[sp]

; 90   : 	AA64Thread* thr = AuGetCurrentThread();

	bl          AuGetCurrentThread
	str         x0,[sp,#0x10]

; 91   : 	if (!thr)  //some serious memory problem

	ldr         x8,[sp,#0x10]
	cmp         x8,#0
	bne         |$LN2@UnmapShare|

; 92   : 		return;

	b           |$LN1@UnmapShare|
|$LN2@UnmapShare|

; 93   : 	AuProcess* proc = AuProcessFindThread(thr);

	ldr         x0,[sp,#0x10]
	bl          AuProcessFindThread
	str         x0,[sp,#8]

; 94   : 	if (!proc) {

	ldr         x8,[sp,#8]
	cmp         x8,#0
	bne         |$LN3@UnmapShare|

; 95   : 		proc = AuProcessFindSubThread(thr);

	ldr         x0,[sp,#0x10]
	bl          AuProcessFindSubThread
	str         x0,[sp,#8]

; 96   : 		if (!proc)

	ldr         x8,[sp,#8]
	cmp         x8,#0
	bne         |$LN4@UnmapShare|

; 97   : 			return;

	b           |$LN1@UnmapShare|
|$LN4@UnmapShare|
|$LN3@UnmapShare|

; 98   : 	}
; 99   : 	AuSHMUnmap(key, proc);

	ldr         x1,[sp,#8]
	ldrh        w0,[sp]
	bl          AuSHMUnmap
|$LN1@UnmapShare|
	add         sp,sp,#0x20
	ldr         lr,[sp],#0x10
	ret

	ENDP  ; |UnmapSharedMem|

; Function compile flags: /Odtpy
; File C:\Users\paras\source\repos\grep-name\XenevaOS\KernelAA64\Mm\mmserv.c

	AREA	|.text$mn|, CODE, ARM64

|ObtainSharedMem| PROC

; 72   : void* ObtainSharedMem(uint16_t id, void* shmaddr, int shmflg) {

|$LN6|
	str         lr,[sp,#-0x10]!
	sub         sp,sp,#0x20
	uxth        w8,w0
	strh        w8,[sp]
	str         x1,[sp,#0x18]
	str         w2,[sp,#4]

; 73   : 	AA64Thread* thr = AuGetCurrentThread();

	bl          AuGetCurrentThread
	str         x0,[sp,#0x10]

; 74   : 	if (!thr)

	ldr         x8,[sp,#0x10]
	cmp         x8,#0
	bne         |$LN2@ObtainShar|

; 75   : 		return 0;

	mov         x0,#0
	b           |$LN1@ObtainShar|
|$LN2@ObtainShar|

; 76   : 	AuProcess* proc = AuProcessFindThread(thr);

	ldr         x0,[sp,#0x10]
	bl          AuProcessFindThread
	str         x0,[sp,#8]

; 77   : 	if (!proc) {

	ldr         x8,[sp,#8]
	cmp         x8,#0
	bne         |$LN3@ObtainShar|

; 78   : 		proc = AuProcessFindSubThread(thr);

	ldr         x0,[sp,#0x10]
	bl          AuProcessFindSubThread
	str         x0,[sp,#8]

; 79   : 		if (!proc)

	ldr         x8,[sp,#8]
	cmp         x8,#0
	bne         |$LN4@ObtainShar|

; 80   : 			return NULL;

	mov         x0,#0
	b           |$LN1@ObtainShar|
|$LN4@ObtainShar|
|$LN3@ObtainShar|

; 81   : 	}
; 82   : 	return AuSHMObtainMem(proc, id, shmaddr, shmflg);

	ldr         w3,[sp,#4]
	ldr         x2,[sp,#0x18]
	ldrh        w1,[sp]
	ldr         x0,[sp,#8]
	bl          AuSHMObtainMem
|$LN1@ObtainShar|
	add         sp,sp,#0x20
	ldr         lr,[sp],#0x10
	ret

	ENDP  ; |ObtainSharedMem|

; Function compile flags: /Odtpy
; File C:\Users\paras\source\repos\grep-name\XenevaOS\KernelAA64\Mm\mmserv.c

	AREA	|.text$mn|, CODE, ARM64

|CreateSharedMem| PROC

; 51   : int CreateSharedMem(uint16_t key, size_t sz, uint8_t flags) {

|$LN6|
	str         lr,[sp,#-0x10]!
	sub         sp,sp,#0x20
	uxth        w8,w0
	strh        w8,[sp,#2]
	str         x1,[sp,#0x18]
	uxtb        w8,w2
	strb        w8,[sp]

; 52   : 	AA64Thread* thr = AuGetCurrentThread();

	bl          AuGetCurrentThread
	str         x0,[sp,#0x10]

; 53   : 	if (!thr)

	ldr         x8,[sp,#0x10]
	cmp         x8,#0
	bne         |$LN2@CreateShar|

; 54   : 		return -1;

	mov         w0,#-1
	b           |$LN1@CreateShar|
|$LN2@CreateShar|

; 55   : 	AuProcess* proc = AuProcessFindThread(thr);

	ldr         x0,[sp,#0x10]
	bl          AuProcessFindThread
	str         x0,[sp,#8]

; 56   : 	if (!proc) {

	ldr         x8,[sp,#8]
	cmp         x8,#0
	bne         |$LN3@CreateShar|

; 57   : 		proc = AuProcessFindSubThread(thr);

	ldr         x0,[sp,#0x10]
	bl          AuProcessFindSubThread
	str         x0,[sp,#8]

; 58   : 		if (!proc) {

	ldr         x8,[sp,#8]
	cmp         x8,#0
	bne         |$LN4@CreateShar|

; 59   : 			return -1;

	mov         w0,#-1
	b           |$LN1@CreateShar|
|$LN4@CreateShar|
|$LN3@CreateShar|

; 60   : 		}
; 61   : 	}
; 62   : 	int id = AuCreateSHM(proc, key, sz, flags);

	ldrb        w3,[sp]
	ldr         x2,[sp,#0x18]
	ldrh        w1,[sp,#2]
	ldr         x0,[sp,#8]
	bl          AuCreateSHM
	mov         w0,w0
	str         w0,[sp,#4]

; 63   : 	return id;

	ldr         w0,[sp,#4]
|$LN1@CreateShar|
	add         sp,sp,#0x20
	ldr         lr,[sp],#0x10
	ret

	ENDP  ; |CreateSharedMem|

	END
