; Listing generated by Microsoft (R) Optimizing Compiler Version 19.29.30159.0 

	TTL	C:\Users\paras\source\repos\grep-name\XenevaOS\KernelAA64\ARM64\Debug\netserv.obj
	ARM64

	AREA	|.drectve|, DRECTVE

	EXPORT	|NetSend|
	EXPORT	|NetReceive|
	EXPORT	|NetConnect|
	EXPORT	|NetBind|
	EXPORT	|NetAccept|
	EXPORT	|NetListen|
	IMPORT	|AuGetCurrentThread|
	IMPORT	|AuProcessFindThread|
	IMPORT	|AuProcessFindSubThread|
	IMPORT	|UARTDebugOut|

	AREA	|.pdata|, PDATA
|$pdata$NetSend| DCD imagerel |$LN9|
	DCD	0x220012d
	;Flags[SingleProEpi] functionLength[300] RegF[0] RegI[0] H[0] frameChainReturn[UnChainedSavedLR] frameSize[64]
|$pdata$NetReceive| DCD imagerel |$LN9|
	DCD	0x2200111
	;Flags[SingleProEpi] functionLength[272] RegF[0] RegI[0] H[0] frameChainReturn[UnChainedSavedLR] frameSize[64]
|$pdata$NetConnect| DCD imagerel |$LN8|
	DCD	0x2a000fd
	;Flags[SingleProEpi] functionLength[252] RegF[0] RegI[0] H[0] frameChainReturn[UnChainedSavedLR] frameSize[80]
|$pdata$NetBind| DCD imagerel |$LN8|
	DCD	0x2a000fd
	;Flags[SingleProEpi] functionLength[252] RegF[0] RegI[0] H[0] frameChainReturn[UnChainedSavedLR] frameSize[80]
|$pdata$NetAccept| DCD imagerel |$LN3|
	DCD	0x100001d
	;Flags[SingleProEpi] functionLength[28] RegF[0] RegI[0] H[0] frameChainReturn[UnChained] frameSize[32]
|$pdata$NetListen| DCD imagerel |$LN3|
	DCD	0x800019
	;Flags[SingleProEpi] functionLength[24] RegF[0] RegI[0] H[0] frameChainReturn[UnChained] frameSize[16]

	AREA	|.data|, DATA
|$SG3363| DCB	"[NetSend]: sock : %x , send: %x", 0xd, 0xa, 0x0
; Function compile flags: /Odtpy
; File C:\Users\paras\source\repos\grep-name\XenevaOS\KernelAA64\Net\netserv.c

	AREA	|.text$mn|, CODE, ARM64

|NetListen| PROC

; 124  : int NetListen(int sockfd, int backlog) {

|$LN3|
	sub         sp,sp,#0x10
	str         w0,[sp]
	str         w1,[sp,#4]

; 125  : 	return 0;

	mov         w0,#0
	add         sp,sp,#0x10
	ret

	ENDP  ; |NetListen|

; Function compile flags: /Odtpy
; File C:\Users\paras\source\repos\grep-name\XenevaOS\KernelAA64\Net\netserv.c

	AREA	|.text$mn|, CODE, ARM64

|NetAccept| PROC

; 120  : int NetAccept(int sockfd, sockaddr* addr, socklen_t* addrlen) {

|$LN3|
	sub         sp,sp,#0x20
	str         w0,[sp]
	str         x1,[sp,#8]
	str         x2,[sp,#0x10]

; 121  : 	return 0;

	mov         w0,#0
	add         sp,sp,#0x20
	ret

	ENDP  ; |NetAccept|

; Function compile flags: /Odtpy
; File C:\Users\paras\source\repos\grep-name\XenevaOS\KernelAA64\Net\netserv.c

	AREA	|.text$mn|, CODE, ARM64

|NetBind| PROC

; 100  : int NetBind(int sockfd, sockaddr* addr, socklen_t addrlen) {

|$LN8|
	str         lr,[sp,#-0x10]!
	sub         sp,sp,#0x40
	str         w0,[sp]
	str         x1,[sp,#0x30]
	str         x2,[sp,#0x28]

; 101  : 	AA64Thread* thr = AuGetCurrentThread();

	bl          AuGetCurrentThread
	str         x0,[sp,#0x10]

; 102  : 	if (!thr)

	ldr         x8,[sp,#0x10]
	cmp         x8,#0
	bne         |$LN2@NetBind|

; 103  : 		return 1;

	mov         w0,#1
	b           |$LN1@NetBind|
|$LN2@NetBind|

; 104  : 	AuProcess* proc = AuProcessFindThread(thr);

	ldr         x0,[sp,#0x10]
	bl          AuProcessFindThread
	str         x0,[sp,#8]

; 105  : 	if (!proc) {

	ldr         x8,[sp,#8]
	cmp         x8,#0
	bne         |$LN3@NetBind|

; 106  : 		proc = AuProcessFindSubThread(thr);

	ldr         x0,[sp,#0x10]
	bl          AuProcessFindSubThread
	str         x0,[sp,#8]

; 107  : 		if (!proc)

	ldr         x8,[sp,#8]
	cmp         x8,#0
	bne         |$LN4@NetBind|

; 108  : 			return 1;

	mov         w0,#1
	b           |$LN1@NetBind|
|$LN4@NetBind|
|$LN3@NetBind|

; 109  : 	}
; 110  : 
; 111  : 	AuVFSNode* node = proc->fds[sockfd];

	ldr         x8,[sp,#8]
	add         x10,x8,#0x248
	ldr         w8,[sp]
	sxtw        x9,w8
	mov         x8,#8
	mul         x8,x9,x8
	add         x8,x10,x8
	ldr         x8,[x8]
	str         x8,[sp,#0x20]

; 112  : 	if (!node)

	ldr         x8,[sp,#0x20]
	cmp         x8,#0
	bne         |$LN5@NetBind|

; 113  : 		return 0;

	mov         w0,#0
	b           |$LN1@NetBind|
|$LN5@NetBind|

; 114  : 	AuSocket* sock = (AuSocket*)node->device;

	ldr         x8,[sp,#0x20]
	add         x8,x8,#0x50
	ldr         x8,[x8]
	str         x8,[sp,#0x18]

; 115  : 	if (sock->bind)

	ldr         x8,[sp,#0x18]
	add         x8,x8,#0x40
	ldr         x8,[x8]
	cmp         x8,#0
	beq         |$LN6@NetBind|

; 116  : 		return sock->bind(sock, addr, addrlen);

	ldr         x8,[sp,#0x18]
	add         x8,x8,#0x40
	ldr         x2,[sp,#0x28]
	ldr         x1,[sp,#0x30]
	ldr         x0,[sp,#0x18]
	ldr         x8,[x8]
	blr         x8
	mov         w0,w0
	mov         w0,w0
	b           |$LN1@NetBind|
|$LN6@NetBind|

; 117  : 	return 1;

	mov         w0,#1
|$LN1@NetBind|
	add         sp,sp,#0x40
	ldr         lr,[sp],#0x10
	ret

	ENDP  ; |NetBind|

; Function compile flags: /Odtpy
; File C:\Users\paras\source\repos\grep-name\XenevaOS\KernelAA64\Net\netserv.c

	AREA	|.text$mn|, CODE, ARM64

|NetConnect| PROC

; 80   : int NetConnect(int sockfd, sockaddr* addr, socklen_t addrlen) {

|$LN8|
	str         lr,[sp,#-0x10]!
	sub         sp,sp,#0x40
	str         w0,[sp]
	str         x1,[sp,#0x30]
	str         x2,[sp,#0x28]

; 81   : 	AA64Thread* thr = AuGetCurrentThread();

	bl          AuGetCurrentThread
	str         x0,[sp,#0x10]

; 82   : 	if (!thr)

	ldr         x8,[sp,#0x10]
	cmp         x8,#0
	bne         |$LN2@NetConnect|

; 83   : 		return 1;

	mov         w0,#1
	b           |$LN1@NetConnect|
|$LN2@NetConnect|

; 84   : 	AuProcess* proc = AuProcessFindThread(thr);

	ldr         x0,[sp,#0x10]
	bl          AuProcessFindThread
	str         x0,[sp,#8]

; 85   : 	if (!proc) {

	ldr         x8,[sp,#8]
	cmp         x8,#0
	bne         |$LN3@NetConnect|

; 86   : 		proc = AuProcessFindSubThread(thr);

	ldr         x0,[sp,#0x10]
	bl          AuProcessFindSubThread
	str         x0,[sp,#8]

; 87   : 		if (!proc)

	ldr         x8,[sp,#8]
	cmp         x8,#0
	bne         |$LN4@NetConnect|

; 88   : 			return 1;

	mov         w0,#1
	b           |$LN1@NetConnect|
|$LN4@NetConnect|
|$LN3@NetConnect|

; 89   : 	}
; 90   : 
; 91   : 	AuVFSNode* node = proc->fds[sockfd];

	ldr         x8,[sp,#8]
	add         x10,x8,#0x248
	ldr         w8,[sp]
	sxtw        x9,w8
	mov         x8,#8
	mul         x8,x9,x8
	add         x8,x10,x8
	ldr         x8,[x8]
	str         x8,[sp,#0x20]

; 92   : 	if (!node)

	ldr         x8,[sp,#0x20]
	cmp         x8,#0
	bne         |$LN5@NetConnect|

; 93   : 		return 0;

	mov         w0,#0
	b           |$LN1@NetConnect|
|$LN5@NetConnect|

; 94   : 	AuSocket* sock = (AuSocket*)node->device;

	ldr         x8,[sp,#0x20]
	add         x8,x8,#0x50
	ldr         x8,[x8]
	str         x8,[sp,#0x18]

; 95   : 	if (sock->connect)

	ldr         x8,[sp,#0x18]
	add         x8,x8,#0x38
	ldr         x8,[x8]
	cmp         x8,#0
	beq         |$LN6@NetConnect|

; 96   : 		return sock->connect(sock, addr, addrlen);

	ldr         x8,[sp,#0x18]
	add         x8,x8,#0x38
	ldr         x2,[sp,#0x28]
	ldr         x1,[sp,#0x30]
	ldr         x0,[sp,#0x18]
	ldr         x8,[x8]
	blr         x8
	mov         w0,w0
	mov         w0,w0
	b           |$LN1@NetConnect|
|$LN6@NetConnect|

; 97   : 	return 1;

	mov         w0,#1
|$LN1@NetConnect|
	add         sp,sp,#0x40
	ldr         lr,[sp],#0x10
	ret

	ENDP  ; |NetConnect|

; Function compile flags: /Odtpy
; File C:\Users\paras\source\repos\grep-name\XenevaOS\KernelAA64\Net\netserv.c

	AREA	|.text$mn|, CODE, ARM64

|NetReceive| PROC

; 59   : int NetReceive(int sockfd, msghdr* msg, int flags) {

|$LN9|
	str         lr,[sp,#-0x10]!
	sub         sp,sp,#0x30
	str         w0,[sp]
	str         x1,[sp,#0x20]
	str         w2,[sp,#4]

; 60   : 	if (!msg)

	ldr         x8,[sp,#0x20]
	cmp         x8,#0
	bne         |$LN2@NetReceive|

; 61   : 		return 1;

	mov         w0,#1
	b           |$LN1@NetReceive|
|$LN2@NetReceive|

; 62   : 	AA64Thread* thr = AuGetCurrentThread();

	bl          AuGetCurrentThread
	str         x0,[sp,#0x18]

; 63   : 	if (!thr)

	ldr         x8,[sp,#0x18]
	cmp         x8,#0
	bne         |$LN3@NetReceive|

; 64   : 		return 1;

	mov         w0,#1
	b           |$LN1@NetReceive|
|$LN3@NetReceive|

; 65   : 	AuProcess* proc = AuProcessFindThread(thr);

	ldr         x0,[sp,#0x18]
	bl          AuProcessFindThread
	str         x0,[sp,#8]

; 66   : 	if (!proc) {

	ldr         x8,[sp,#8]
	cmp         x8,#0
	bne         |$LN4@NetReceive|

; 67   : 		proc = AuProcessFindSubThread(thr);

	ldr         x0,[sp,#0x18]
	bl          AuProcessFindSubThread
	str         x0,[sp,#8]

; 68   : 		if (!proc)

	ldr         x8,[sp,#8]
	cmp         x8,#0
	bne         |$LN5@NetReceive|

; 69   : 			return 1;

	mov         w0,#1
	b           |$LN1@NetReceive|
|$LN5@NetReceive|
|$LN4@NetReceive|

; 70   : 	}
; 71   : 	AuVFSNode* node = proc->fds[sockfd];

	ldr         x8,[sp,#8]
	add         x10,x8,#0x248
	ldr         w8,[sp]
	sxtw        x9,w8
	mov         x8,#8
	mul         x8,x9,x8
	add         x8,x10,x8
	ldr         x8,[x8]
	str         x8,[sp,#0x28]

; 72   : 	AuSocket* sock = (AuSocket*)node->device;

	ldr         x8,[sp,#0x28]
	add         x8,x8,#0x50
	ldr         x8,[x8]
	str         x8,[sp,#0x10]

; 73   : 	if (!sock)

	ldr         x8,[sp,#0x10]
	cmp         x8,#0
	bne         |$LN6@NetReceive|

; 74   : 		return -1;

	mov         w0,#-1
	b           |$LN1@NetReceive|
|$LN6@NetReceive|

; 75   : 	if (sock->receive)

	ldr         x8,[sp,#0x10]
	add         x8,x8,#0x20
	ldr         x8,[x8]
	cmp         x8,#0
	beq         |$LN7@NetReceive|

; 76   : 		return sock->receive(sock, msg, flags);

	ldr         x8,[sp,#0x10]
	add         x8,x8,#0x20
	ldr         w2,[sp,#4]
	ldr         x1,[sp,#0x20]
	ldr         x0,[sp,#0x10]
	ldr         x8,[x8]
	blr         x8
	mov         w0,w0
	mov         w0,w0
	b           |$LN1@NetReceive|
|$LN7@NetReceive|

; 77   : 	return 1;

	mov         w0,#1
|$LN1@NetReceive|
	add         sp,sp,#0x30
	ldr         lr,[sp],#0x10
	ret

	ENDP  ; |NetReceive|

; Function compile flags: /Odtpy
; File C:\Users\paras\source\repos\grep-name\XenevaOS\KernelAA64\Net\netserv.c

	AREA	|.text$mn|, CODE, ARM64

|NetSend| PROC

; 37   : int NetSend(int sockfd, msghdr* msg, int flags) {

|$LN9|
	str         lr,[sp,#-0x10]!
	sub         sp,sp,#0x30
	str         w0,[sp]
	str         x1,[sp,#0x20]
	str         w2,[sp,#4]

; 38   : 	if (!msg)

	ldr         x8,[sp,#0x20]
	cmp         x8,#0
	bne         |$LN2@NetSend|

; 39   : 		return 1;

	mov         w0,#1
	b           |$LN1@NetSend|
|$LN2@NetSend|

; 40   : 	AA64Thread* thr = AuGetCurrentThread();

	bl          AuGetCurrentThread
	str         x0,[sp,#0x18]

; 41   : 	if (!thr)

	ldr         x8,[sp,#0x18]
	cmp         x8,#0
	bne         |$LN3@NetSend|

; 42   : 		return 1;

	mov         w0,#1
	b           |$LN1@NetSend|
|$LN3@NetSend|

; 43   : 	AuProcess* proc = AuProcessFindThread(thr);

	ldr         x0,[sp,#0x18]
	bl          AuProcessFindThread
	str         x0,[sp,#0x10]

; 44   : 	if (!proc) {

	ldr         x8,[sp,#0x10]
	cmp         x8,#0
	bne         |$LN4@NetSend|

; 45   : 		proc = AuProcessFindSubThread(thr);

	ldr         x0,[sp,#0x18]
	bl          AuProcessFindSubThread
	str         x0,[sp,#0x10]

; 46   : 		if (!proc)

	ldr         x8,[sp,#0x10]
	cmp         x8,#0
	bne         |$LN5@NetSend|

; 47   : 			return 1;

	mov         w0,#1
	b           |$LN1@NetSend|
|$LN5@NetSend|
|$LN4@NetSend|

; 48   : 	}
; 49   : 	AuVFSNode* node = proc->fds[sockfd];

	ldr         x8,[sp,#0x10]
	add         x10,x8,#0x248
	ldr         w8,[sp]
	sxtw        x9,w8
	mov         x8,#8
	mul         x8,x9,x8
	add         x8,x10,x8
	ldr         x8,[x8]
	str         x8,[sp,#0x28]

; 50   : 	AuSocket* sock = (AuSocket*)node->device;

	ldr         x8,[sp,#0x28]
	add         x8,x8,#0x50
	ldr         x8,[x8]
	str         x8,[sp,#8]

; 51   : 	UARTDebugOut("[NetSend]: sock : %x , send: %x\r\n", sock, sock->send);

	ldr         x8,[sp,#8]
	add         x8,x8,#0x28
	ldr         x2,[x8]
	ldr         x1,[sp,#8]
	adrp        x8,|$SG3363|
	add         x0,x8,PageOffset(|$SG3363|)
	bl          UARTDebugOut

; 52   : 	if (!sock)

	ldr         x8,[sp,#8]
	cmp         x8,#0
	bne         |$LN6@NetSend|

; 53   : 		return -1;

	mov         w0,#-1
	b           |$LN1@NetSend|
|$LN6@NetSend|

; 54   : 	if (sock->send)

	ldr         x8,[sp,#8]
	add         x8,x8,#0x28
	ldr         x8,[x8]
	cmp         x8,#0
	beq         |$LN7@NetSend|

; 55   : 		return sock->send(sock, msg, flags);

	ldr         x8,[sp,#8]
	add         x8,x8,#0x28
	ldr         w2,[sp,#4]
	ldr         x1,[sp,#0x20]
	ldr         x0,[sp,#8]
	ldr         x8,[x8]
	blr         x8
	mov         w0,w0
	mov         w0,w0
	b           |$LN1@NetSend|
|$LN7@NetSend|

; 56   : 	return 1;

	mov         w0,#1
|$LN1@NetSend|
	add         sp,sp,#0x30
	ldr         lr,[sp],#0x10
	ret

	ENDP  ; |NetSend|

	END
