; Listing generated by Microsoft (R) Optimizing Compiler Version 19.29.30159.0 

	TTL	C:\Users\paras\source\repos\grep-name\XenevaOS\KernelAA64\ARM64\Debug\pcie.obj
	ARM64

	AREA	|.drectve|, DRECTVE


	AREA	|.bss|, NOINIT
|_ecamAddress| % 0x8
|_pcieInitialized| % 0x1
	EXPORT	|AuPCIEGetDevice|
	EXPORT	|AuPCIEAllocMSI|
	EXPORT	|AuPCIEScanClassIF|
	EXPORT	|AuPCIEScanVendorDevice|
	EXPORT	|AuPCIEScanClass|
	EXPORT	|AuPCIEWrite|
	EXPORT	|AuPCIERead|
	EXPORT	|AuPCIERead64|
	EXPORT	|AuPCIEWrite64|
	EXPORT	|AA64PCIeInitialize|
	EXPORT	|AuIsPCIeInitialized|
	EXPORT	|AuPCIEReadBAR|
	IMPORT	|AuACPIGetMCFG|
	IMPORT	|AuACPIPCIESupported|
	IMPORT	|AuDeviceTreeGetNode|
	IMPORT	|AuDeviceTreeGetAddressCells|
	IMPORT	|AuDeviceTreeGetSizeCells|
	IMPORT	|AuDeviceTreeGetRegAddress|
	IMPORT	|AuDeviceTreeGetRegSize|
	IMPORT	|AuTextOut|
	IMPORT	|AuGICGetMSIAddress|
	IMPORT	|AuGICGetMSIData|
	IMPORT	|AuMapMMIO|
	IMPORT	|dsb_ish|
	IMPORT	|isb_flush|
	IMPORT	|UARTDebugOut|

	AREA	|.pdata|, PDATA
|$pdata$AuPCIEGetDevice| DCD imagerel |$LN9|
	DCD	0x2200155
	;Flags[SingleProEpi] functionLength[340] RegF[0] RegI[0] H[0] frameChainReturn[UnChainedSavedLR] frameSize[64]
|$pdata$AuPCIEAllocMSI| DCD imagerel |$LN16|
	DCD	0x62005e9
	;Flags[SingleProEpi] functionLength[1512] RegF[0] RegI[0] H[0] frameChainReturn[UnChainedSavedLR] frameSize[192]
|$pdata$AuPCIEScanClassIF| DCD imagerel |$LN15|
	DCD	0x2a001d5
	;Flags[SingleProEpi] functionLength[468] RegF[0] RegI[0] H[0] frameChainReturn[UnChainedSavedLR] frameSize[80]
|$pdata$AuPCIEScanVendorDevice| DCD imagerel |$LN17|
	DCD	0x2a001f9
	;Flags[SingleProEpi] functionLength[504] RegF[0] RegI[0] H[0] frameChainReturn[UnChainedSavedLR] frameSize[80]
|$pdata$AuPCIEScanClass| DCD imagerel |$LN17|
	DCD	0x2a001f9
	;Flags[SingleProEpi] functionLength[504] RegF[0] RegI[0] H[0] frameChainReturn[UnChainedSavedLR] frameSize[80]
|$pdata$AuPCIEWrite| DCD imagerel |$LN97|
	DCD	0x18001dd
	;Flags[SingleProEpi] functionLength[476] RegF[0] RegI[0] H[0] frameChainReturn[UnChained] frameSize[48]
|$pdata$AuPCIERead| DCD imagerel |$LN97|
	DCD	0x1800219
	;Flags[SingleProEpi] functionLength[536] RegF[0] RegI[0] H[0] frameChainReturn[UnChained] frameSize[48]
|$pdata$AuPCIERead64| DCD imagerel |$LN8|
	DCD	0x18000d1
	;Flags[SingleProEpi] functionLength[208] RegF[0] RegI[0] H[0] frameChainReturn[UnChained] frameSize[48]
|$pdata$AuPCIEWrite64| DCD imagerel |$LN8|
	DCD	0x18000a9
	;Flags[SingleProEpi] functionLength[168] RegF[0] RegI[0] H[0] frameChainReturn[UnChained] frameSize[48]
|$pdata$AA64PCIeInitialize| DCD imagerel |$LN9|
	DCD	0x1a000fd
	;Flags[SingleProEpi] functionLength[252] RegF[0] RegI[0] H[0] frameChainReturn[UnChainedSavedLR] frameSize[48]

	AREA	|.pdata|, PDATA
|$pdata$_pcie_check_and_map_dtb| DCD imagerel |_pcie_check_and_map_dtb|
	DCD	0x1a000f5
	;Flags[SingleProEpi] functionLength[244] RegF[0] RegI[0] H[0] frameChainReturn[UnChainedSavedLR] frameSize[48]

	AREA	|.pdata|, PDATA
|$pdata$_pcie_use_hard_code_ecam| DCD imagerel |_pcie_use_hard_code_ecam|
	DCD	0xa00051
	;Flags[SingleProEpi] functionLength[80] RegF[0] RegI[0] H[0] frameChainReturn[UnChainedSavedLR] frameSize[16]
|$pdata$AuPCIEReadBAR| DCD imagerel |$LN18|
	DCD	0x3a004b5
	;Flags[SingleProEpi] functionLength[1204] RegF[0] RegI[0] H[0] frameChainReturn[UnChainedSavedLR] frameSize[112]

	AREA	|.data|, DATA
|$SG3304| DCB	"[aurora]: pcie getting ecam from dtb ", 0xd, 0xa, 0x0
|$SG3305| DCB	"pcie", 0x0
	%	3
|$SG3307| DCB	"[aurora]: pcie not found ", 0xd, 0xa, 0x0
	%	4
|$SG3308| DCB	"[aurora]: pcie found ", 0xd, 0xa, 0x0
|$SG3309| DCB	"[aurora]: pcie address cell : %d, size cell : %d ", 0xa, 0x0
	%	5
|$SG3310| DCB	"[aurora]: ecam address : %x, size value : %x ", 0xa, 0x0
	%	1
|$SG3313| DCB	"[aurora]: pcie getting hard code ecam address ", 0xd, 0xa
	DCB	0x0
	%	7
|$SG3324| DCB	"[aurora]: could not get pcie ecam from device tree blob "
	DCB	0xd, 0xa, 0x0
	%	5
|$SG3327| DCB	"[aurora]: ACPI PCIe is supported ", 0xa, 0x0
	%	5
|$SG3330| DCB	"[aurora]: no hard coded value for PCIe ", 0xd, 0xa, 0x0
	%	6
|$SG3331| DCB	"[aurora]: kernel can't continue boot, no device discover"
	DCB	"y mechanism supported ", 0xd, 0xa, 0x0
	%	7
|$SG3333| DCB	"[aurora]: Ponta Bhaat khuwa ge ", 0xd, 0xa, 0x0
	%	6
|$SG3332| DCB	"[aurora]: Ki koriba aru !! Eku dekhun device discovery m"
	DCB	"echanism support nokore !! Baad diya ", 0xd, 0xa, 0x0
|$SG3640| DCB	"PCIReadBAR: BAR TYPE is IO", 0xa, 0x0
	%	4
|$SG3707| DCB	"MSI found ", 0xd, 0xa, 0x0
	%	3
|$SG3710| DCB	"MSI-X Enabled ", 0xa, 0x0
|$SG3712| DCB	"Function mask ", 0xa, 0x0
; Function compile flags: /Odtpy
; File C:\Users\paras\source\repos\grep-name\XenevaOS\KernelAA64\pcie.c

	AREA	|.text$mn|, CODE, ARM64

|AuPCIEReadBAR| PROC

; 531  : uint64_t AuPCIEReadBAR(uint64_t device, uint16_t bus, uint16_t dev,uint16_t func, size_t BAR, size_t* barsz) {

|$LN18|
	str         lr,[sp,#-0x10]!
	sub         sp,sp,#0x60
	str         x0,[sp,#0x20]
	uxth        w8,w1
	strh        w8,[sp,#4]
	uxth        w8,w2
	strh        w8,[sp,#2]
	uxth        w8,w3
	strh        w8,[sp]
	str         x4,[sp,#0x10]
	str         x5,[sp,#0x50]

; 532  : #define INTERNAL_PCI_REG_BAR0 0x4
; 533  : 	uint64_t baseaddr, highbits, headertype;
; 534  : 	uint64_t ret = 0;

	mov         x8,#0
	str         x8,[sp,#0x38]

; 535  : 	headertype = AuPCIERead64(device, PCI_HEADER_TYPE, 1, bus, dev, func);

	ldrh        w5,[sp]
	mov         w5,w5
	ldrh        w4,[sp,#2]
	mov         w4,w4
	ldrh        w3,[sp,#4]
	mov         w3,w3
	mov         w5,w5
	mov         w4,w4
	mov         w3,w3
	mov         w2,#1
	mov         w1,#0xE
	ldr         x0,[sp,#0x20]
	bl          AuPCIERead64
	str         x0,[sp,#0x30]

; 536  : 	headertype >>= 16;

	ldr         x8,[sp,#0x30]
	lsr         x8,x8,#0x10
	str         x8,[sp,#0x30]

; 537  : 	headertype &= 0xFF;

	ldr         x8,[sp,#0x30]
	and         x8,x8,#0xFF
	str         x8,[sp,#0x30]

; 538  : 	if (((headertype & 0x7F) == 1 && BAR > 1) || ((headertype & 0x7F) == 2))

	ldr         x8,[sp,#0x30]
	and         x8,x8,#0x7F
	cmp         x8,#1
	bne         |$LN4@AuPCIERead|
	ldr         x8,[sp,#0x10]
	cmp         x8,#1
	bhi         |$LN3@AuPCIERead|
|$LN4@AuPCIERead|
	ldr         x8,[sp,#0x30]
	and         x8,x8,#0x7F
	cmp         x8,#2
	bne         |$LN2@AuPCIERead|
|$LN3@AuPCIERead|

; 539  : 		goto end;

	b           |$end$19|
|$LN2@AuPCIERead|

; 540  : 	if (BAR > 5)

	ldr         x8,[sp,#0x10]
	cmp         x8,#5
	bls         |$LN5@AuPCIERead|

; 541  : 		goto end;

	b           |$end$19|
|$LN5@AuPCIERead|

; 542  : 	baseaddr = AuPCIERead64(device, (BAR + (PCI_BAR0/4))*4, 4, bus, dev, func);

	ldrh        w5,[sp]
	mov         w5,w5
	ldrh        w4,[sp,#2]
	mov         w4,w4
	ldrh        w3,[sp,#4]
	mov         w3,w3
	ldr         x8,[sp,#0x10]
	add         x9,x8,#4
	mov         x8,#4
	mul         x8,x9,x8
	mov         w1,w8
	mov         w5,w5
	mov         w4,w4
	mov         w3,w3
	mov         w2,#4
	mov         w1,w1
	ldr         x0,[sp,#0x20]
	bl          AuPCIERead64
	str         x0,[sp,#0x28]

; 543  : 	uint32_t bartype = baseaddr & 0xF;

	ldr         x8,[sp,#0x28]
	and         x8,x8,#0xF
	mov         w8,w8
	str         w8,[sp,#8]

; 544  : 	if (PCI_IS_IO_BAR(bartype)) {

	ldr         w8,[sp,#8]
	tbz         x8,#0,|$LN6@AuPCIERead|

; 545  : 		ret = baseaddr;

	ldr         x8,[sp,#0x28]
	str         x8,[sp,#0x38]

; 546  : 		UARTDebugOut("PCIReadBAR: BAR TYPE is IO\n");

	adrp        x8,|$SG3640|
	add         x0,x8,PageOffset(|$SG3640|)
	bl          UARTDebugOut

; 547  : 		goto end;

	b           |$end$19|

; 548  : 	}

	b           |$LN7@AuPCIERead|
|$LN6@AuPCIERead|

; 549  : 	else if (PCI_MEM_BAR_TYPE(bartype) == MEMBAR32)

	ldr         w8,[sp,#8]
	ubfx        w8,w8,#1,#2
	cmp         w8,#0
	bne         |$LN8@AuPCIERead|

; 550  : 		ret = baseaddr ^ bartype;

	ldr         w8,[sp,#8]
	uxtw        x9,w8
	ldr         x8,[sp,#0x28]
	eor         x8,x8,x9
	str         x8,[sp,#0x38]
	b           |$LN9@AuPCIERead|
|$LN8@AuPCIERead|

; 551  : 	else if (PCI_MEM_BAR_TYPE(bartype) == MEMBAR64) {

	ldr         w8,[sp,#8]
	ubfx        w8,w8,#1,#2
	cmp         w8,#2
	bne         |$LN10@AuPCIERead|

; 552  : 		highbits = AuPCIERead64(device,(BAR + 1 + (PCI_BAR0/4))*4, 4, bus, dev, func);

	ldrh        w5,[sp]
	mov         w5,w5
	ldrh        w4,[sp,#2]
	mov         w4,w4
	ldrh        w3,[sp,#4]
	mov         w3,w3
	ldr         x8,[sp,#0x10]
	add         x9,x8,#5
	mov         x8,#4
	mul         x8,x9,x8
	mov         w1,w8
	mov         w5,w5
	mov         w4,w4
	mov         w3,w3
	mov         w2,#4
	mov         w1,w1
	ldr         x0,[sp,#0x20]
	bl          AuPCIERead64
	str         x0,[sp,#0x40]

; 553  : 		baseaddr |= (highbits << 32);

	ldr         x8,[sp,#0x40]
	lsl         x9,x8,#0x20
	ldr         x8,[sp,#0x28]
	orr         x8,x8,x9
	str         x8,[sp,#0x28]

; 554  : 		ret = baseaddr ^ bartype;

	ldr         w8,[sp,#8]
	uxtw        x9,w8
	ldr         x8,[sp,#0x28]
	eor         x8,x8,x9
	str         x8,[sp,#0x38]

; 555  : 	}

	b           |$LN11@AuPCIERead|
|$LN10@AuPCIERead|

; 556  : 	else
; 557  : 		goto end;

	b           |$end$19|
|$LN11@AuPCIERead|
|$LN9@AuPCIERead|
|$LN7@AuPCIERead|

; 558  : 
; 559  : 	if (barsz) {

	ldr         x8,[sp,#0x50]
	cmp         x8,#0
	beq         |$LN12@AuPCIERead|

; 560  : 		AuPCIEWrite64(device, (BAR + (PCI_BAR0/4))*4, 4, UINT32_MAX, bus, dev, func);

	ldrh        w6,[sp]
	mov         w6,w6
	ldrh        w5,[sp,#2]
	mov         w5,w5
	ldrh        w4,[sp,#4]
	mov         w4,w4
	ldr         x8,[sp,#0x10]
	add         x9,x8,#4
	mov         x8,#4
	mul         x8,x9,x8
	mov         w1,w8
	mov         w6,w6
	mov         w5,w5
	mov         w4,w4
	mov         x3,#0xFFFFFFFF
	mov         w2,#4
	mov         w1,w1
	ldr         x0,[sp,#0x20]
	bl          AuPCIEWrite64

; 561  : 		uint64_t reread = AuPCIERead64(device, (BAR + (PCI_BAR0 / 4)) * 4, 4, bus, dev, func);

	ldrh        w5,[sp]
	mov         w5,w5
	ldrh        w4,[sp,#2]
	mov         w4,w4
	ldrh        w3,[sp,#4]
	mov         w3,w3
	ldr         x8,[sp,#0x10]
	add         x9,x8,#4
	mov         x8,#4
	mul         x8,x9,x8
	mov         w1,w8
	mov         w5,w5
	mov         w4,w4
	mov         w3,w3
	mov         w2,#4
	mov         w1,w1
	ldr         x0,[sp,#0x20]
	bl          AuPCIERead64
	str         x0,[sp,#0x58]

; 562  : 		if (PCI_MEM_BAR_TYPE(bartype) == MEMBAR64)

	ldr         w8,[sp,#8]
	ubfx        w8,w8,#1,#2
	cmp         w8,#2
	bne         |$LN13@AuPCIERead|

; 563  : 			AuPCIEWrite64(device, (BAR + 1 + (PCI_BAR0/4))*4, 4, UINT32_MAX, bus, dev, func);

	ldrh        w6,[sp]
	mov         w6,w6
	ldrh        w5,[sp,#2]
	mov         w5,w5
	ldrh        w4,[sp,#4]
	mov         w4,w4
	ldr         x8,[sp,#0x10]
	add         x9,x8,#5
	mov         x8,#4
	mul         x8,x9,x8
	mov         w1,w8
	mov         w6,w6
	mov         w5,w5
	mov         w4,w4
	mov         x3,#0xFFFFFFFF
	mov         w2,#4
	mov         w1,w1
	ldr         x0,[sp,#0x20]
	bl          AuPCIEWrite64
|$LN13@AuPCIERead|

; 564  : 		uint64_t szbits, szhighbits = 0;

	mov         x8,#0
	str         x8,[sp,#0x48]

; 565  : 		szbits = AuPCIERead64(device, (BAR + (PCI_BAR0/4))*4, 4, bus, dev, func);

	ldrh        w5,[sp]
	mov         w5,w5
	ldrh        w4,[sp,#2]
	mov         w4,w4
	ldrh        w3,[sp,#4]
	mov         w3,w3
	ldr         x8,[sp,#0x10]
	add         x9,x8,#4
	mov         x8,#4
	mul         x8,x9,x8
	mov         w1,w8
	mov         w5,w5
	mov         w4,w4
	mov         w3,w3
	mov         w2,#4
	mov         w1,w1
	ldr         x0,[sp,#0x20]
	bl          AuPCIERead64
	str         x0,[sp,#0x18]

; 566  : 		if (PCI_MEM_BAR_TYPE(bartype) == MEMBAR64)

	ldr         w8,[sp,#8]
	ubfx        w8,w8,#1,#2
	cmp         w8,#2
	bne         |$LN14@AuPCIERead|

; 567  : 			szhighbits = AuPCIERead64(device, (BAR + 1 + (PCI_BAR0/4))*4, 4, bus, dev, func);

	ldrh        w5,[sp]
	mov         w5,w5
	ldrh        w4,[sp,#2]
	mov         w4,w4
	ldrh        w3,[sp,#4]
	mov         w3,w3
	ldr         x8,[sp,#0x10]
	add         x9,x8,#5
	mov         x8,#4
	mul         x8,x9,x8
	mov         w1,w8
	mov         w5,w5
	mov         w4,w4
	mov         w3,w3
	mov         w2,#4
	mov         w1,w1
	ldr         x0,[sp,#0x20]
	bl          AuPCIERead64
	str         x0,[sp,#0x48]
|$LN14@AuPCIERead|

; 568  : 		AuPCIEWrite64(device, (BAR + (PCI_BAR0/4))*4, 4, baseaddr, bus, dev, func);

	ldrh        w6,[sp]
	mov         w6,w6
	ldrh        w5,[sp,#2]
	mov         w5,w5
	ldrh        w4,[sp,#4]
	mov         w4,w4
	ldr         x8,[sp,#0x10]
	add         x9,x8,#4
	mov         x8,#4
	mul         x8,x9,x8
	mov         w1,w8
	mov         w6,w6
	mov         w5,w5
	mov         w4,w4
	ldr         x3,[sp,#0x28]
	mov         w2,#4
	mov         w1,w1
	ldr         x0,[sp,#0x20]
	bl          AuPCIEWrite64

; 569  : 		if (PCI_MEM_BAR_TYPE(bartype) == MEMBAR64) {

	ldr         w8,[sp,#8]
	ubfx        w8,w8,#1,#2
	cmp         w8,#2
	bne         |$LN15@AuPCIERead|

; 570  : 			AuPCIEWrite64(device, (BAR + 1 + (PCI_BAR0/4))*4, 4, highbits, bus, dev, func);

	ldrh        w6,[sp]
	mov         w6,w6
	ldrh        w5,[sp,#2]
	mov         w5,w5
	ldrh        w4,[sp,#4]
	mov         w4,w4
	ldr         x8,[sp,#0x10]
	add         x9,x8,#5
	mov         x8,#4
	mul         x8,x9,x8
	mov         w1,w8
	mov         w6,w6
	mov         w5,w5
	mov         w4,w4
	ldr         x3,[sp,#0x40]
	mov         w2,#4
	mov         w1,w1
	ldr         x0,[sp,#0x20]
	bl          AuPCIEWrite64

; 571  : 			szbits |= (szhighbits << 32);

	ldr         x8,[sp,#0x48]
	lsl         x9,x8,#0x20
	ldr         x8,[sp,#0x18]
	orr         x8,x8,x9
	str         x8,[sp,#0x18]

; 572  : 		}

	b           |$LN16@AuPCIERead|
|$LN15@AuPCIERead|

; 573  : 		else
; 574  : 			szbits |= ((uint64_t)UINT32_MAX << 32);

	ldr         x8,[sp,#0x18]
	orr         x8,x8,#-0x100000000
	str         x8,[sp,#0x18]
|$LN16@AuPCIERead|

; 575  : 		szbits &= (UINT64_MAX - 0xF);

	ldr         x8,[sp,#0x18]
	and         x8,x8,#-0x10
	str         x8,[sp,#0x18]

; 576  : 		szbits = ~szbits;

	ldr         x8,[sp,#0x18]
	mvn         x8,x8
	str         x8,[sp,#0x18]

; 577  : 		++szbits;

	ldr         x8,[sp,#0x18]
	add         x8,x8,#1
	str         x8,[sp,#0x18]

; 578  : 		*barsz = szbits;

	ldr         x9,[sp,#0x50]
	ldr         x8,[sp,#0x18]
	str         x8,[x9]
|$LN12@AuPCIERead|
|$end$19|

; 579  : 	}
; 580  : end:
; 581  : 	return ret;

	ldr         x0,[sp,#0x38]
	add         sp,sp,#0x60
	ldr         lr,[sp],#0x10
	ret

	ENDP  ; |AuPCIEReadBAR|

; Function compile flags: /Odtpy
; File C:\Users\paras\source\repos\grep-name\XenevaOS\KernelAA64\pcie.c

	AREA	|.text$mn|, CODE, ARM64

|AuIsPCIeInitialized| PROC

; 134  : 	return _pcieInitialized;

	adrp        x8,_pcieInitialized
	ldrb        w0,[x8,PageOffset(_pcieInitialized)]
	ret

	ENDP  ; |AuIsPCIeInitialized|

; Function compile flags: /Odtpy
; File C:\Users\paras\source\repos\grep-name\XenevaOS\KernelAA64\pcie.c

	AREA	|.text$mn|, CODE, ARM64

|_pcie_use_hard_code_ecam| PROC

; 73   : static bool _pcie_use_hard_code_ecam() {

	str         lr,[sp,#-0x10]!

; 74   : 	AuTextOut("[aurora]: pcie getting hard code ecam address \r\n");

	adrp        x8,|$SG3313|
	add         x0,x8,PageOffset(|$SG3313|)
	bl          AuTextOut

; 75   : #ifdef __TARGET_BOARD_QEMU_VIRT__
; 76   : 	_ecamAddress = QEMU_VIRT_ECAM_BASE; // AuMapMMIO(QEMU_VIRT_ECAM_BASE, 0x10000000 / 0x1000);

	adrp        x9,_ecamAddress
	ldr         x8,|$LN5@pcie_use_h|
	str         x8,[x9,PageOffset(_ecamAddress)]

; 77   : #elif __TARGET_BOARD_RPI3__
; 78   : 	_ecamAddress = 0;
; 79   : #elif __TARGET_BOARD_IMX8MP_VERDIN_DAHLIA__
; 80   : 	_ecamAddress = 0;
; 81   : #endif
; 82   : 
; 83   : 	if (_ecamAddress != 0) {

	adrp        x8,_ecamAddress
	ldr         x8,[x8,PageOffset(_ecamAddress)]
	cmp         x8,#0
	beq         |$LN2@pcie_use_h|

; 84   : 		_pcieInitialized = 1;

	adrp        x9,_pcieInitialized
	mov         w8,#1
	strb        w8,[x9,PageOffset(_pcieInitialized)]

; 85   : 		return 0;

	mov         w0,#0
	b           |$LN1@pcie_use_h|

; 86   : 	}

	b           |$LN3@pcie_use_h|
|$LN2@pcie_use_h|

; 87   : 	else
; 88   : 		return 1;

	mov         w0,#1
|$LN3@pcie_use_h|
|$LN1@pcie_use_h|
	ldr         lr,[sp],#0x10
	ret
|$LN5@pcie_use_h|
	DCQ         0x4010000000

	ENDP  ; |_pcie_use_hard_code_ecam|

; Function compile flags: /Odtpy
; File C:\Users\paras\source\repos\grep-name\XenevaOS\KernelAA64\pcie.c

	AREA	|.text$mn|, CODE, ARM64

|_pcie_check_and_map_dtb| PROC

; 50   : static int _pcie_check_and_map_dtb() {

	str         lr,[sp,#-0x10]!
	sub         sp,sp,#0x20

; 51   : 	AuTextOut("[aurora]: pcie getting ecam from dtb \r\n");

	adrp        x8,|$SG3304|
	add         x0,x8,PageOffset(|$SG3304|)
	bl          AuTextOut

; 52   : 	uint32_t* pcie = AuDeviceTreeGetNode("pcie");

	adrp        x8,|$SG3305|
	add         x0,x8,PageOffset(|$SG3305|)
	bl          AuDeviceTreeGetNode
	str         x0,[sp,#8]

; 53   : 	if (!pcie) {

	ldr         x8,[sp,#8]
	cmp         x8,#0
	bne         |$LN2@pcie_check|

; 54   : 		AuTextOut("[aurora]: pcie not found \r\n");

	adrp        x8,|$SG3307|
	add         x0,x8,PageOffset(|$SG3307|)
	bl          AuTextOut

; 55   : 		return 1;

	mov         w0,#1
	b           |$LN1@pcie_check|
|$LN2@pcie_check|

; 56   : 	}
; 57   : 	AuTextOut("[aurora]: pcie found \r\n");

	adrp        x8,|$SG3308|
	add         x0,x8,PageOffset(|$SG3308|)
	bl          AuTextOut

; 58   : #ifdef __TARGET_BOARD_QEMU_VIRT__
; 59   : 	/* else need to parse the DTB for */
; 60   : 	uint32_t addressCell = AuDeviceTreeGetAddressCells(pcie);

	ldr         x0,[sp,#8]
	bl          AuDeviceTreeGetAddressCells
	mov         w0,w0
	str         w0,[sp,#4]

; 61   : 	uint32_t sizeCell = AuDeviceTreeGetSizeCells(pcie);

	ldr         x0,[sp,#8]
	bl          AuDeviceTreeGetSizeCells
	mov         w0,w0
	str         w0,[sp]

; 62   : 	AuTextOut("[aurora]: pcie address cell : %d, size cell : %d \n", addressCell, sizeCell);

	ldr         w2,[sp]
	ldr         w1,[sp,#4]
	adrp        x8,|$SG3309|
	add         x0,x8,PageOffset(|$SG3309|)
	bl          AuTextOut

; 63   : 	uint64_t ecamAddr = AuDeviceTreeGetRegAddress(pcie, 2);

	mov         w1,#2
	ldr         x0,[sp,#8]
	bl          AuDeviceTreeGetRegAddress
	str         x0,[sp,#0x18]

; 64   : 	uint64_t sizeValue = AuDeviceTreeGetRegSize(pcie, 2, 2);

	mov         w2,#2
	mov         w1,#2
	ldr         x0,[sp,#8]
	bl          AuDeviceTreeGetRegSize
	str         x0,[sp,#0x10]

; 65   : 	AuTextOut("[aurora]: ecam address : %x, size value : %x \n", ecamAddr, sizeValue);

	ldr         x2,[sp,#0x10]
	ldr         x1,[sp,#0x18]
	adrp        x8,|$SG3310|
	add         x0,x8,PageOffset(|$SG3310|)
	bl          AuTextOut

; 66   : 	_ecamAddress = AuMapMMIO(ecamAddr, sizeValue / 0x1000);

	ldr         x9,[sp,#0x10]
	mov         x8,#0x1000
	udiv        x1,x9,x8
	ldr         x0,[sp,#0x18]
	bl          AuMapMMIO
	adrp        x8,_ecamAddress
	str         x0,[x8,PageOffset(_ecamAddress)]

; 67   : #endif
; 68   : 
; 69   : 	_pcieInitialized = 1;

	adrp        x9,_pcieInitialized
	mov         w8,#1
	strb        w8,[x9,PageOffset(_pcieInitialized)]

; 70   : 	return 0;

	mov         w0,#0
|$LN1@pcie_check|
	add         sp,sp,#0x20
	ldr         lr,[sp],#0x10
	ret

	ENDP  ; |_pcie_check_and_map_dtb|

; Function compile flags: /Odtpy
; File C:\Users\paras\source\repos\grep-name\XenevaOS\KernelAA64\pcie.c

	AREA	|.text$mn|, CODE, ARM64

|AA64PCIeInitialize| PROC

; 93   : void AA64PCIeInitialize() {

|$LN9|
	str         lr,[sp,#-0x10]!
	sub         sp,sp,#0x20

; 94   : 
; 95   : 	bool _use_hard_code_ = false;

	mov         w8,#0
	strb        w8,[sp,#1]

; 96   : 	bool _use_acpi = false;

	mov         w8,#0
	strb        w8,[sp]

; 97   : 
; 98   : 	if (_pcie_check_and_map_dtb()) {

	bl          _pcie_check_and_map_dtb
	mov         w0,w0
	cmp         w0,#0
	beq         |$LN2@AA64PCIeIn|

; 99   : 		AuTextOut("[aurora]: could not get pcie ecam from device tree blob \r\n");

	adrp        x8,|$SG3324|
	add         x0,x8,PageOffset(|$SG3324|)
	bl          AuTextOut

; 100  : 		_use_acpi = true;

	mov         w8,#1
	strb        w8,[sp]

; 101  : 	}

	b           |$LN3@AA64PCIeIn|
|$LN2@AA64PCIeIn|

; 102  : 	else
; 103  : 		return;

	b           |$LN1@AA64PCIeIn|
|$LN3@AA64PCIeIn|

; 104  : 
; 105  : 	if (_use_acpi) {

	ldrb        w8,[sp]
	mov         w8,w8
	cmp         w8,#0
	beq         |$LN4@AA64PCIeIn|

; 106  : 		if (AuACPIPCIESupported()) {

	bl          AuACPIPCIESupported
	uxtb        w8,w0
	mov         w8,w8
	cmp         w8,#0
	beq         |$LN5@AA64PCIeIn|

; 107  : 			AuTextOut("[aurora]: ACPI PCIe is supported \n");

	adrp        x8,|$SG3327|
	add         x0,x8,PageOffset(|$SG3327|)
	bl          AuTextOut

; 108  : 			acpiMcfg* mcfg = AuACPIGetMCFG();

	bl          AuACPIGetMCFG
	str         x0,[sp,#8]

; 109  : 			acpiMcfgAlloc* allocs = MEM_AFTER(acpiMcfgAlloc*, mcfg);

	ldr         x8,[sp,#8]
	add         x8,x8,#0x2C
	str         x8,[sp,#0x10]

; 110  : 			//_ecamAddress = AuMapMMIO(allocs->baseAddress, 0x10000000/0x1000);
; 111  : 			_pcieInitialized = 1;

	adrp        x9,_pcieInitialized
	mov         w8,#1
	strb        w8,[x9,PageOffset(_pcieInitialized)]

; 112  : 			return;

	b           |$LN1@AA64PCIeIn|
|$LN5@AA64PCIeIn|
|$LN4@AA64PCIeIn|

; 113  : 		}
; 114  : 	}
; 115  : 
; 116  : 
; 117  : 	if (_pcie_use_hard_code_ecam()) {

	bl          _pcie_use_hard_code_ecam
	uxtb        w8,w0
	mov         w8,w8
	cmp         w8,#0
	beq         |$LN6@AA64PCIeIn|

; 118  : 		AuTextOut("[aurora]: no hard coded value for PCIe \r\n");

	adrp        x8,|$SG3330|
	add         x0,x8,PageOffset(|$SG3330|)
	bl          AuTextOut

; 119  : 	}

	b           |$LN7@AA64PCIeIn|
|$LN6@AA64PCIeIn|

; 120  : 	else
; 121  : 		return;

	b           |$LN1@AA64PCIeIn|
|$LN7@AA64PCIeIn|

; 122  : 
; 123  : 
; 124  : 
; 125  : 	AuTextOut("[aurora]: kernel can't continue boot, no device discovery mechanism supported \r\n");

	adrp        x8,|$SG3331|
	add         x0,x8,PageOffset(|$SG3331|)
	bl          AuTextOut

; 126  : 	AuTextOut("[aurora]: Ki koriba aru !! Eku dekhun device discovery mechanism support nokore !! Baad diya \r\n");

	adrp        x8,|$SG3332|
	add         x0,x8,PageOffset(|$SG3332|)
	bl          AuTextOut

; 127  : 	AuTextOut("[aurora]: Ponta Bhaat khuwa ge \r\n");

	adrp        x8,|$SG3333|
	add         x0,x8,PageOffset(|$SG3333|)
	bl          AuTextOut

; 128  : 	_pcieInitialized = 0;

	adrp        x9,_pcieInitialized
	mov         w8,#0
	strb        w8,[x9,PageOffset(_pcieInitialized)]
|$LN1@AA64PCIeIn|
	add         sp,sp,#0x20
	ldr         lr,[sp],#0x10
	ret

	ENDP  ; |AA64PCIeInitialize|

; Function compile flags: /Odtpy
; File C:\Users\paras\source\repos\grep-name\XenevaOS\KernelAA64\pcie.c

	AREA	|.text$mn|, CODE, ARM64

|AuPCIEWrite64| PROC

; 395  : void AuPCIEWrite64(uint64_t device, int reg, int size, uint64_t val, int bus, int dev, int func) {

|$LN8|
	sub         sp,sp,#0x30
	str         x0,[sp,#0x18]
	str         w1,[sp,#4]
	str         w2,[sp]
	str         x3,[sp,#0x20]
	str         w4,[sp,#8]
	str         w5,[sp,#0xC]
	str         w6,[sp,#0x10]

; 396  : 	
; 397  : 	if (size == 1) {

	ldr         w8,[sp]
	cmp         w8,#1
	bne         |$LN2@AuPCIEWrit|

; 398  : 		*RAW_OFFSET(volatile uint8_t*,device, reg) = (uint8_t)val;

	ldr         x8,[sp,#0x20]
	uxtb        w10,w8
	ldr         w8,[sp,#4]
	sxtw        x9,w8
	ldr         x8,[sp,#0x18]
	add         x8,x8,x9
	strb        w10,[x8]

; 399  : 	}

	b           |$LN3@AuPCIEWrit|
|$LN2@AuPCIEWrit|

; 400  : 	else if (size == 2) {

	ldr         w8,[sp]
	cmp         w8,#2
	bne         |$LN4@AuPCIEWrit|

; 401  : 		*RAW_OFFSET(volatile uint16_t*,device, reg) = (uint16_t)val;

	ldr         x8,[sp,#0x20]
	uxth        w10,w8
	ldr         w8,[sp,#4]
	sxtw        x9,w8
	ldr         x8,[sp,#0x18]
	add         x8,x8,x9
	strh        w10,[x8]

; 402  : 	}

	b           |$LN5@AuPCIEWrit|
|$LN4@AuPCIEWrit|

; 403  : 	else if (size == 4) {

	ldr         w8,[sp]
	cmp         w8,#4
	bne         |$LN6@AuPCIEWrit|

; 404  : 		*RAW_OFFSET(volatile uint32_t*,device, reg) = val;

	ldr         w8,[sp,#4]
	sxtw        x9,w8
	ldr         x8,[sp,#0x18]
	add         x9,x8,x9
	ldr         x8,[sp,#0x20]
	mov         w8,w8
	str         w8,[x9]
|$LN6@AuPCIEWrit|
|$LN5@AuPCIEWrit|
|$LN3@AuPCIEWrit|
	add         sp,sp,#0x30
	ret

	ENDP  ; |AuPCIEWrite64|

; Function compile flags: /Odtpy
; File C:\Users\paras\source\repos\grep-name\XenevaOS\KernelAA64\pcie.c

	AREA	|.text$mn|, CODE, ARM64

|AuPCIERead64| PROC

; 279  : uint64_t AuPCIERead64(uint64_t device, int reg, int size, int bus, int dev, int func) {

|$LN8|
	sub         sp,sp,#0x30
	str         x0,[sp,#0x20]
	str         w1,[sp,#4]
	str         w2,[sp]
	str         w3,[sp,#8]
	str         w4,[sp,#0xC]
	str         w5,[sp,#0x10]

; 280  : 
; 281  : 	uint64_t result = 0;

	mov         x8,#0
	str         x8,[sp,#0x18]

; 282  : 	if (size == 1) {

	ldr         w8,[sp]
	cmp         w8,#1
	bne         |$LN2@AuPCIERead|

; 283  : 		result = *RAW_OFFSET(volatile uint8_t*,device, reg);

	ldr         w8,[sp,#4]
	sxtw        x9,w8
	ldr         x8,[sp,#0x20]
	add         x8,x8,x9
	ldrb        w8,[x8]
	mov         w8,w8
	sxtw        x8,w8
	str         x8,[sp,#0x18]

; 284  : 		return result;

	ldr         x0,[sp,#0x18]
	b           |$LN1@AuPCIERead|

; 285  : 	}

	b           |$LN3@AuPCIERead|
|$LN2@AuPCIERead|

; 286  : 	else if (size == 2) {

	ldr         w8,[sp]
	cmp         w8,#2
	bne         |$LN4@AuPCIERead|

; 287  : 		result = *RAW_OFFSET(volatile uint16_t*,device, reg);

	ldr         w8,[sp,#4]
	sxtw        x9,w8
	ldr         x8,[sp,#0x20]
	add         x8,x8,x9
	ldrh        w8,[x8]
	mov         w8,w8
	sxtw        x8,w8
	str         x8,[sp,#0x18]

; 288  : 		return result;

	ldr         x0,[sp,#0x18]
	b           |$LN1@AuPCIERead|

; 289  : 	}

	b           |$LN5@AuPCIERead|
|$LN4@AuPCIERead|

; 290  : 	else if (size == 4) {

	ldr         w8,[sp]
	cmp         w8,#4
	bne         |$LN6@AuPCIERead|

; 291  : 		result = *RAW_OFFSET(volatile uint32_t*,device, reg);

	ldr         w8,[sp,#4]
	sxtw        x9,w8
	ldr         x8,[sp,#0x20]
	add         x8,x8,x9
	ldr         w8,[x8]
	uxtw        x8,w8
	str         x8,[sp,#0x18]

; 292  : 		return result;

	ldr         x0,[sp,#0x18]
	b           |$LN1@AuPCIERead|
|$LN6@AuPCIERead|
|$LN5@AuPCIERead|
|$LN3@AuPCIERead|

; 293  : 	}
; 294  : 
; 295  : 
; 296  : 	return 0xFFFFFFFFFFFFFFFF;

	mov         x0,#-1
|$LN1@AuPCIERead|
	add         sp,sp,#0x30
	ret

	ENDP  ; |AuPCIERead64|

; Function compile flags: /Odtpy
; File C:\Users\paras\source\repos\grep-name\XenevaOS\KernelAA64\pcie.c

	AREA	|.text$mn|, CODE, ARM64

|AuPCIERead| PROC

; 178  : uint32_t AuPCIERead(uint64_t device, int reg, int bus, int dev, int func) {

|$LN97|
	sub         sp,sp,#0x30
	str         x0,[sp,#0x20]
	str         w1,[sp,#4]
	str         w2,[sp,#0xC]
	str         w3,[sp,#0x10]
	str         w4,[sp,#0x14]

; 179  : 	
; 180  : 	uint64_t result = 0;

	mov         x8,#0
	str         x8,[sp,#0x18]

; 181  : 
; 182  : 	int size = 0;

	mov         w8,#0
	str         w8,[sp]

; 183  : 	switch (reg) {

	ldr         w8,[sp,#4]
	str         w8,[sp,#8]
	ldr         w8,[sp,#8]
	cmp         w8,#0x3D
	bhi         |$LN25@AuPCIERead|
	ldr         w10,[sp,#8]
	adr         x9,__swt
	ldrsb       x8,[x9,w10 uxtw #0]
	add         x8,x9,x8,lsl #2
	br          x8
|$LN4@AuPCIERead|

; 184  : 	case PCI_VENDOR_ID:
; 185  : 		size = 2;

	mov         w8,#2
	str         w8,[sp]

; 186  : 		break;

	b           |$LN2@AuPCIERead|
|$LN5@AuPCIERead|

; 187  : 	case PCI_DEVICE_ID:
; 188  : 		size = 2;

	mov         w8,#2
	str         w8,[sp]

; 189  : 		break;

	b           |$LN2@AuPCIERead|
|$LN6@AuPCIERead|

; 190  : 	case PCI_COMMAND:
; 191  : 		size = 2;

	mov         w8,#2
	str         w8,[sp]

; 192  : 		break;

	b           |$LN2@AuPCIERead|
|$LN7@AuPCIERead|

; 193  : 	case PCI_STATUS:
; 194  : 		size = 2;

	mov         w8,#2
	str         w8,[sp]

; 195  : 		break;

	b           |$LN2@AuPCIERead|
|$LN8@AuPCIERead|

; 196  : 	case PCI_REVISION_ID:
; 197  : 		size = 1;

	mov         w8,#1
	str         w8,[sp]

; 198  : 		break;

	b           |$LN2@AuPCIERead|
|$LN9@AuPCIERead|

; 199  : 	case PCI_PROG_IF:
; 200  : 		size = 1;

	mov         w8,#1
	str         w8,[sp]

; 201  : 		break;

	b           |$LN2@AuPCIERead|
|$LN10@AuPCIERead|

; 202  : 	case PCI_SUBCLASS:
; 203  : 		size = 1;

	mov         w8,#1
	str         w8,[sp]

; 204  : 		break;

	b           |$LN2@AuPCIERead|
|$LN11@AuPCIERead|

; 205  : 	case PCI_CLASS:
; 206  : 		size = 1;

	mov         w8,#1
	str         w8,[sp]

; 207  : 		break;

	b           |$LN2@AuPCIERead|
|$LN12@AuPCIERead|

; 208  : 	case PCI_CACHE_LINE_SIZE:
; 209  : 		size = 1;

	mov         w8,#1
	str         w8,[sp]

; 210  : 		break;

	b           |$LN2@AuPCIERead|
|$LN13@AuPCIERead|

; 211  : 	case PCI_LATENCY_TIMER:
; 212  : 		size = 1;

	mov         w8,#1
	str         w8,[sp]

; 213  : 		break;

	b           |$LN2@AuPCIERead|
|$LN14@AuPCIERead|

; 214  : 	case PCI_HEADER_TYPE:
; 215  : 		size = 1;

	mov         w8,#1
	str         w8,[sp]

; 216  : 		break;

	b           |$LN2@AuPCIERead|
|$LN15@AuPCIERead|

; 217  : 	case PCI_BIST:
; 218  : 		size = 1;

	mov         w8,#1
	str         w8,[sp]

; 219  : 		break;

	b           |$LN2@AuPCIERead|
|$LN16@AuPCIERead|

; 220  : 	case PCI_BAR0:
; 221  : 		size = 4;

	mov         w8,#4
	str         w8,[sp]

; 222  : 		break;

	b           |$LN2@AuPCIERead|
|$LN17@AuPCIERead|

; 223  : 	case PCI_BAR1:
; 224  : 		size = 4;

	mov         w8,#4
	str         w8,[sp]

; 225  : 		break;

	b           |$LN2@AuPCIERead|
|$LN18@AuPCIERead|

; 226  : 	case PCI_BAR2:
; 227  : 		size = 4;

	mov         w8,#4
	str         w8,[sp]

; 228  : 		break;

	b           |$LN2@AuPCIERead|
|$LN19@AuPCIERead|

; 229  : 	case PCI_BAR3:
; 230  : 		size = 4;

	mov         w8,#4
	str         w8,[sp]

; 231  : 		break;

	b           |$LN2@AuPCIERead|
|$LN20@AuPCIERead|

; 232  : 	case PCI_BAR4:
; 233  : 		size = 4;

	mov         w8,#4
	str         w8,[sp]

; 234  : 		break;

	b           |$LN2@AuPCIERead|
|$LN21@AuPCIERead|

; 235  : 	case PCI_BAR5:
; 236  : 		size = 4;

	mov         w8,#4
	str         w8,[sp]

; 237  : 		break;

	b           |$LN2@AuPCIERead|
|$LN22@AuPCIERead|

; 238  : 	case PCI_CAPABILITIES_PTR:
; 239  : 		size = 1;

	mov         w8,#1
	str         w8,[sp]

; 240  : 		break;

	b           |$LN2@AuPCIERead|
|$LN23@AuPCIERead|

; 241  : 	case PCI_INTERRUPT_LINE:
; 242  : 		size = 1;

	mov         w8,#1
	str         w8,[sp]

; 243  : 		break;

	b           |$LN2@AuPCIERead|
|$LN24@AuPCIERead|

; 244  : 	case PCI_INTERRUPT_PIN:
; 245  : 		size = 1;

	mov         w8,#1
	str         w8,[sp]

; 246  : 		break;

	b           |$LN2@AuPCIERead|
|$LN25@AuPCIERead|

; 247  : 	default:
; 248  : 		size = 1;

	mov         w8,#1
	str         w8,[sp]
|$LN2@AuPCIERead|

; 249  : 		break;
; 250  : 	}
; 251  : 
; 252  : 	if (size == 1) {

	ldr         w8,[sp]
	cmp         w8,#1
	bne         |$LN26@AuPCIERead|

; 253  : 		result = *RAW_OFFSET(volatile uint8_t*, device, reg);

	ldr         w8,[sp,#4]
	sxtw        x9,w8
	ldr         x8,[sp,#0x20]
	add         x8,x8,x9
	ldrb        w8,[x8]
	mov         w8,w8
	sxtw        x8,w8
	str         x8,[sp,#0x18]

; 254  : 		return result;

	ldr         x8,[sp,#0x18]
	mov         w0,w8
	mov         w0,w0
	b           |$LN1@AuPCIERead|

; 255  : 	}

	b           |$LN27@AuPCIERead|
|$LN26@AuPCIERead|

; 256  : 	else if (size == 2) {

	ldr         w8,[sp]
	cmp         w8,#2
	bne         |$LN28@AuPCIERead|

; 257  : 		result = *RAW_OFFSET(volatile uint16_t*, device, reg);

	ldr         w8,[sp,#4]
	sxtw        x9,w8
	ldr         x8,[sp,#0x20]
	add         x8,x8,x9
	ldrh        w8,[x8]
	mov         w8,w8
	sxtw        x8,w8
	str         x8,[sp,#0x18]

; 258  : 		return result;

	ldr         x8,[sp,#0x18]
	mov         w0,w8
	mov         w0,w0
	b           |$LN1@AuPCIERead|

; 259  : 	}

	b           |$LN29@AuPCIERead|
|$LN28@AuPCIERead|

; 260  : 	else if (size == 4) {

	ldr         w8,[sp]
	cmp         w8,#4
	bne         |$LN30@AuPCIERead|

; 261  : 		result = *RAW_OFFSET(volatile uint32_t*,device, reg);

	ldr         w8,[sp,#4]
	sxtw        x9,w8
	ldr         x8,[sp,#0x20]
	add         x8,x8,x9
	ldr         w8,[x8]
	uxtw        x8,w8
	str         x8,[sp,#0x18]

; 262  : 		return result;

	ldr         x8,[sp,#0x18]
	mov         w0,w8
	mov         w0,w0
	b           |$LN1@AuPCIERead|
|$LN30@AuPCIERead|
|$LN29@AuPCIERead|
|$LN27@AuPCIERead|

; 263  : 	}
; 264  : 
; 265  : 	return 0xFFFFFFFF;

	mov         w0,#-1
|$LN1@AuPCIERead|
	add         sp,sp,#0x30
	ret
|__swt|
|$LN33@AuPCIERead|

; 183  : 	switch (reg) {

	DCB         0x8e
|$LN34@AuPCIERead|
	DCB         0xcd
|$LN35@AuPCIERead|
	DCB         0x91
|$LN36@AuPCIERead|
	DCB         0xcd
|$LN37@AuPCIERead|
	DCB         0x94
|$LN38@AuPCIERead|
	DCB         0xcd
|$LN39@AuPCIERead|
	DCB         0x97
|$LN40@AuPCIERead|
	DCB         0xcd
|$LN41@AuPCIERead|
	DCB         0x9a
|$LN42@AuPCIERead|
	DCB         0x9d
|$LN43@AuPCIERead|
	DCB         0xa0
|$LN44@AuPCIERead|
	DCB         0xa3
|$LN45@AuPCIERead|
	DCB         0xa6
|$LN46@AuPCIERead|
	DCB         0xa9
|$LN47@AuPCIERead|
	DCB         0xac
|$LN48@AuPCIERead|
	DCB         0xaf
|$LN49@AuPCIERead|
	DCB         0xb2
|$LN50@AuPCIERead|
	DCB         0xcd
|$LN51@AuPCIERead|
	DCB         0xcd
|$LN52@AuPCIERead|
	DCB         0xcd
|$LN53@AuPCIERead|
	DCB         0xb5
|$LN54@AuPCIERead|
	DCB         0xcd
|$LN55@AuPCIERead|
	DCB         0xcd
|$LN56@AuPCIERead|
	DCB         0xcd
|$LN57@AuPCIERead|
	DCB         0xb8
|$LN58@AuPCIERead|
	DCB         0xcd
|$LN59@AuPCIERead|
	DCB         0xcd
|$LN60@AuPCIERead|
	DCB         0xcd
|$LN61@AuPCIERead|
	DCB         0xbb
|$LN62@AuPCIERead|
	DCB         0xcd
|$LN63@AuPCIERead|
	DCB         0xcd
|$LN64@AuPCIERead|
	DCB         0xcd
|$LN65@AuPCIERead|
	DCB         0xbe
|$LN66@AuPCIERead|
	DCB         0xcd
|$LN67@AuPCIERead|
	DCB         0xcd
|$LN68@AuPCIERead|
	DCB         0xcd
|$LN69@AuPCIERead|
	DCB         0xc1
|$LN70@AuPCIERead|
	DCB         0xcd
|$LN71@AuPCIERead|
	DCB         0xcd
|$LN72@AuPCIERead|
	DCB         0xcd
|$LN73@AuPCIERead|
	DCB         0xcd
|$LN74@AuPCIERead|
	DCB         0xcd
|$LN75@AuPCIERead|
	DCB         0xcd
|$LN76@AuPCIERead|
	DCB         0xcd
|$LN77@AuPCIERead|
	DCB         0xcd
|$LN78@AuPCIERead|
	DCB         0xcd
|$LN79@AuPCIERead|
	DCB         0xcd
|$LN80@AuPCIERead|
	DCB         0xcd
|$LN81@AuPCIERead|
	DCB         0xcd
|$LN82@AuPCIERead|
	DCB         0xcd
|$LN83@AuPCIERead|
	DCB         0xcd
|$LN84@AuPCIERead|
	DCB         0xcd
|$LN85@AuPCIERead|
	DCB         0xc4
|$LN86@AuPCIERead|
	DCB         0xcd
|$LN87@AuPCIERead|
	DCB         0xcd
|$LN88@AuPCIERead|
	DCB         0xcd
|$LN89@AuPCIERead|
	DCB         0xcd
|$LN90@AuPCIERead|
	DCB         0xcd
|$LN91@AuPCIERead|
	DCB         0xcd
|$LN92@AuPCIERead|
	DCB         0xcd
|$LN93@AuPCIERead|
	DCB         0xc7
|$LN94@AuPCIERead|
	DCB         0xca
|$LN95@AuPCIERead|
	DCB         0xca
|$LN96@AuPCIERead|
	DCB         0xca

	ENDP  ; |AuPCIERead|

; Function compile flags: /Odtpy
; File C:\Users\paras\source\repos\grep-name\XenevaOS\KernelAA64\pcie.c

	AREA	|.text$mn|, CODE, ARM64

|AuPCIEWrite| PROC

; 309  : void AuPCIEWrite(uint64_t device, int reg, uint32_t val, int bus, int dev, int func) {

|$LN97|
	sub         sp,sp,#0x30
	str         x0,[sp,#0x20]
	str         w1,[sp,#4]
	str         w2,[sp,#8]
	str         w3,[sp,#0x10]
	str         w4,[sp,#0x14]
	str         w5,[sp,#0x18]

; 310  : 
; 311  : 	reg = reg;

	ldr         w8,[sp,#4]
	str         w8,[sp,#4]

; 312  : 	int size = 0;

	mov         w8,#0
	str         w8,[sp]

; 313  : 	switch (reg) {

	ldr         w8,[sp,#4]
	str         w8,[sp,#0xC]
	ldr         w8,[sp,#0xC]
	cmp         w8,#0x3D
	bhi         |$LN25@AuPCIEWrit|
	ldr         w10,[sp,#0xC]
	adr         x9,__swt
	ldrsb       x8,[x9,w10 uxtw #0]
	add         x8,x9,x8,lsl #2
	br          x8
|$LN4@AuPCIEWrit|

; 314  : 	case PCI_VENDOR_ID:
; 315  : 		size = 2;

	mov         w8,#2
	str         w8,[sp]

; 316  : 		break;

	b           |$LN2@AuPCIEWrit|
|$LN5@AuPCIEWrit|

; 317  : 	case PCI_DEVICE_ID:
; 318  : 		size = 2;

	mov         w8,#2
	str         w8,[sp]

; 319  : 		break;

	b           |$LN2@AuPCIEWrit|
|$LN6@AuPCIEWrit|

; 320  : 	case PCI_COMMAND:
; 321  : 		size = 2;

	mov         w8,#2
	str         w8,[sp]

; 322  : 		break;

	b           |$LN2@AuPCIEWrit|
|$LN7@AuPCIEWrit|

; 323  : 	case PCI_STATUS:
; 324  : 		size = 2;

	mov         w8,#2
	str         w8,[sp]

; 325  : 		break;

	b           |$LN2@AuPCIEWrit|
|$LN8@AuPCIEWrit|

; 326  : 	case PCI_REVISION_ID:
; 327  : 		size = 1;

	mov         w8,#1
	str         w8,[sp]

; 328  : 		break;

	b           |$LN2@AuPCIEWrit|
|$LN9@AuPCIEWrit|

; 329  : 	case PCI_PROG_IF:
; 330  : 		size = 1;

	mov         w8,#1
	str         w8,[sp]

; 331  : 		break;

	b           |$LN2@AuPCIEWrit|
|$LN10@AuPCIEWrit|

; 332  : 	case PCI_SUBCLASS:
; 333  : 		size = 1;

	mov         w8,#1
	str         w8,[sp]

; 334  : 		break;

	b           |$LN2@AuPCIEWrit|
|$LN11@AuPCIEWrit|

; 335  : 	case PCI_CLASS:
; 336  : 		size = 1;

	mov         w8,#1
	str         w8,[sp]

; 337  : 		break;

	b           |$LN2@AuPCIEWrit|
|$LN12@AuPCIEWrit|

; 338  : 	case PCI_CACHE_LINE_SIZE:
; 339  : 		size = 1;

	mov         w8,#1
	str         w8,[sp]

; 340  : 		break;

	b           |$LN2@AuPCIEWrit|
|$LN13@AuPCIEWrit|

; 341  : 	case PCI_LATENCY_TIMER:
; 342  : 		size = 1;

	mov         w8,#1
	str         w8,[sp]

; 343  : 		break;

	b           |$LN2@AuPCIEWrit|
|$LN14@AuPCIEWrit|

; 344  : 	case PCI_HEADER_TYPE:
; 345  : 		size = 1;

	mov         w8,#1
	str         w8,[sp]

; 346  : 		break;

	b           |$LN2@AuPCIEWrit|
|$LN15@AuPCIEWrit|

; 347  : 	case PCI_BIST:
; 348  : 		size = 1;

	mov         w8,#1
	str         w8,[sp]

; 349  : 		break;

	b           |$LN2@AuPCIEWrit|
|$LN16@AuPCIEWrit|

; 350  : 	case PCI_BAR0:
; 351  : 		size = 4;

	mov         w8,#4
	str         w8,[sp]

; 352  : 		break;

	b           |$LN2@AuPCIEWrit|
|$LN17@AuPCIEWrit|

; 353  : 	case PCI_BAR1:
; 354  : 		size = 4;

	mov         w8,#4
	str         w8,[sp]

; 355  : 		break;

	b           |$LN2@AuPCIEWrit|
|$LN18@AuPCIEWrit|

; 356  : 	case PCI_BAR2:
; 357  : 		size = 4;

	mov         w8,#4
	str         w8,[sp]

; 358  : 		break;

	b           |$LN2@AuPCIEWrit|
|$LN19@AuPCIEWrit|

; 359  : 	case PCI_BAR3:
; 360  : 		size = 4;

	mov         w8,#4
	str         w8,[sp]

; 361  : 		break;

	b           |$LN2@AuPCIEWrit|
|$LN20@AuPCIEWrit|

; 362  : 	case PCI_BAR4:
; 363  : 		size = 4;

	mov         w8,#4
	str         w8,[sp]

; 364  : 		break;

	b           |$LN2@AuPCIEWrit|
|$LN21@AuPCIEWrit|

; 365  : 	case PCI_BAR5:
; 366  : 		size = 4;

	mov         w8,#4
	str         w8,[sp]

; 367  : 		break;

	b           |$LN2@AuPCIEWrit|
|$LN22@AuPCIEWrit|

; 368  : 	case PCI_CAPABILITIES_PTR:
; 369  : 		size = 1;

	mov         w8,#1
	str         w8,[sp]

; 370  : 		break;

	b           |$LN2@AuPCIEWrit|
|$LN23@AuPCIEWrit|

; 371  : 	case PCI_INTERRUPT_LINE:
; 372  : 		size = 1;

	mov         w8,#1
	str         w8,[sp]

; 373  : 		break;

	b           |$LN2@AuPCIEWrit|
|$LN24@AuPCIEWrit|

; 374  : 	case PCI_INTERRUPT_PIN:
; 375  : 		size = 1;

	mov         w8,#1
	str         w8,[sp]

; 376  : 		break;

	b           |$LN2@AuPCIEWrit|
|$LN25@AuPCIEWrit|

; 377  : 	default:
; 378  : 		size = 4;

	mov         w8,#4
	str         w8,[sp]
|$LN2@AuPCIEWrit|

; 379  : 		break;
; 380  : 	}
; 381  : 
; 382  : 	if (size == 1) {

	ldr         w8,[sp]
	cmp         w8,#1
	bne         |$LN26@AuPCIEWrit|

; 383  : 		*RAW_OFFSET(volatile uint8_t*,device, reg) = (uint8_t)val;

	ldr         w8,[sp,#8]
	uxtb        w10,w8
	ldr         w8,[sp,#4]
	sxtw        x9,w8
	ldr         x8,[sp,#0x20]
	add         x8,x8,x9
	strb        w10,[x8]

; 384  : 	}

	b           |$LN27@AuPCIEWrit|
|$LN26@AuPCIEWrit|

; 385  : 	else if (size == 2) {

	ldr         w8,[sp]
	cmp         w8,#2
	bne         |$LN28@AuPCIEWrit|

; 386  : 		*RAW_OFFSET(volatile uint16_t*,device, reg) = (uint16_t)val;

	ldr         w8,[sp,#8]
	uxth        w10,w8
	ldr         w8,[sp,#4]
	sxtw        x9,w8
	ldr         x8,[sp,#0x20]
	add         x8,x8,x9
	strh        w10,[x8]

; 387  : 	}

	b           |$LN29@AuPCIEWrit|
|$LN28@AuPCIEWrit|

; 388  : 	else if (size == 4) {

	ldr         w8,[sp]
	cmp         w8,#4
	bne         |$LN30@AuPCIEWrit|

; 389  : 		*RAW_OFFSET(volatile uint32_t*,device, reg) = (uint32_t)val;

	ldr         w8,[sp,#4]
	sxtw        x9,w8
	ldr         x8,[sp,#0x20]
	add         x9,x8,x9
	ldr         w8,[sp,#8]
	str         w8,[x9]
|$LN30@AuPCIEWrit|
|$LN29@AuPCIEWrit|
|$LN27@AuPCIEWrit|
	add         sp,sp,#0x30
	ret
|__swt|
|$LN33@AuPCIEWrit|

; 313  : 	switch (reg) {

	DCB         0x9e
|$LN34@AuPCIEWrit|
	DCB         0xdd
|$LN35@AuPCIEWrit|
	DCB         0xa1
|$LN36@AuPCIEWrit|
	DCB         0xdd
|$LN37@AuPCIEWrit|
	DCB         0xa4
|$LN38@AuPCIEWrit|
	DCB         0xdd
|$LN39@AuPCIEWrit|
	DCB         0xa7
|$LN40@AuPCIEWrit|
	DCB         0xdd
|$LN41@AuPCIEWrit|
	DCB         0xaa
|$LN42@AuPCIEWrit|
	DCB         0xad
|$LN43@AuPCIEWrit|
	DCB         0xb0
|$LN44@AuPCIEWrit|
	DCB         0xb3
|$LN45@AuPCIEWrit|
	DCB         0xb6
|$LN46@AuPCIEWrit|
	DCB         0xb9
|$LN47@AuPCIEWrit|
	DCB         0xbc
|$LN48@AuPCIEWrit|
	DCB         0xbf
|$LN49@AuPCIEWrit|
	DCB         0xc2
|$LN50@AuPCIEWrit|
	DCB         0xdd
|$LN51@AuPCIEWrit|
	DCB         0xdd
|$LN52@AuPCIEWrit|
	DCB         0xdd
|$LN53@AuPCIEWrit|
	DCB         0xc5
|$LN54@AuPCIEWrit|
	DCB         0xdd
|$LN55@AuPCIEWrit|
	DCB         0xdd
|$LN56@AuPCIEWrit|
	DCB         0xdd
|$LN57@AuPCIEWrit|
	DCB         0xc8
|$LN58@AuPCIEWrit|
	DCB         0xdd
|$LN59@AuPCIEWrit|
	DCB         0xdd
|$LN60@AuPCIEWrit|
	DCB         0xdd
|$LN61@AuPCIEWrit|
	DCB         0xcb
|$LN62@AuPCIEWrit|
	DCB         0xdd
|$LN63@AuPCIEWrit|
	DCB         0xdd
|$LN64@AuPCIEWrit|
	DCB         0xdd
|$LN65@AuPCIEWrit|
	DCB         0xce
|$LN66@AuPCIEWrit|
	DCB         0xdd
|$LN67@AuPCIEWrit|
	DCB         0xdd
|$LN68@AuPCIEWrit|
	DCB         0xdd
|$LN69@AuPCIEWrit|
	DCB         0xd1
|$LN70@AuPCIEWrit|
	DCB         0xdd
|$LN71@AuPCIEWrit|
	DCB         0xdd
|$LN72@AuPCIEWrit|
	DCB         0xdd
|$LN73@AuPCIEWrit|
	DCB         0xdd
|$LN74@AuPCIEWrit|
	DCB         0xdd
|$LN75@AuPCIEWrit|
	DCB         0xdd
|$LN76@AuPCIEWrit|
	DCB         0xdd
|$LN77@AuPCIEWrit|
	DCB         0xdd
|$LN78@AuPCIEWrit|
	DCB         0xdd
|$LN79@AuPCIEWrit|
	DCB         0xdd
|$LN80@AuPCIEWrit|
	DCB         0xdd
|$LN81@AuPCIEWrit|
	DCB         0xdd
|$LN82@AuPCIEWrit|
	DCB         0xdd
|$LN83@AuPCIEWrit|
	DCB         0xdd
|$LN84@AuPCIEWrit|
	DCB         0xdd
|$LN85@AuPCIEWrit|
	DCB         0xd4
|$LN86@AuPCIEWrit|
	DCB         0xdd
|$LN87@AuPCIEWrit|
	DCB         0xdd
|$LN88@AuPCIEWrit|
	DCB         0xdd
|$LN89@AuPCIEWrit|
	DCB         0xdd
|$LN90@AuPCIEWrit|
	DCB         0xdd
|$LN91@AuPCIEWrit|
	DCB         0xdd
|$LN92@AuPCIEWrit|
	DCB         0xdd
|$LN93@AuPCIEWrit|
	DCB         0xd7
|$LN94@AuPCIEWrit|
	DCB         0xda
|$LN95@AuPCIEWrit|
	DCB         0xda
|$LN96@AuPCIEWrit|
	DCB         0xda

	ENDP  ; |AuPCIEWrite|

; Function compile flags: /Odtpy
; File C:\Users\paras\source\repos\grep-name\XenevaOS\KernelAA64\pcie.c

	AREA	|.text$mn|, CODE, ARM64

|AuPCIEScanClass| PROC

; 417  : uint64_t AuPCIEScanClass(uint8_t classCode, uint8_t subClassCode, int* bus_, int* dev_, int* func_) {

|$LN17|
	str         lr,[sp,#-0x10]!
	sub         sp,sp,#0x40
	uxtb        w8,w0
	strb        w8,[sp]
	uxtb        w8,w1
	strb        w8,[sp,#0x11]
	str         x2,[sp,#0x28]
	str         x3,[sp,#0x30]
	str         x4,[sp,#0x38]

; 418  : 
; 419  : 	for (int bus = 0; bus < 255; bus++) {

	mov         w8,#0
	str         w8,[sp,#4]
	b           |$LN4@AuPCIEScan|
|$LN2@AuPCIEScan|
	ldr         w8,[sp,#4]
	add         w8,w8,#1
	str         w8,[sp,#4]
|$LN4@AuPCIEScan|
	ldr         w8,[sp,#4]
	cmp         w8,#0xFF
	bge         |$LN3@AuPCIEScan|

; 420  : 		for (int dev = 0; dev < PCI_DEVICE_PER_BUS; dev++) {

	mov         w8,#0
	str         w8,[sp,#8]
	b           |$LN7@AuPCIEScan|
|$LN5@AuPCIEScan|
	ldr         w8,[sp,#8]
	add         w8,w8,#1
	str         w8,[sp,#8]
|$LN7@AuPCIEScan|
	ldr         w8,[sp,#8]
	cmp         w8,#0x20
	bge         |$LN6@AuPCIEScan|

; 421  : 			for (int func = 0; func < PCI_FUNCTION_PER_DEVICE; func++) {

	mov         w8,#0
	str         w8,[sp,#0xC]
	b           |$LN10@AuPCIEScan|
|$LN8@AuPCIEScan|
	ldr         w8,[sp,#0xC]
	add         w8,w8,#1
	str         w8,[sp,#0xC]
|$LN10@AuPCIEScan|
	ldr         w8,[sp,#0xC]
	cmp         w8,#8
	bge         |$LN9@AuPCIEScan|

; 422  : 				uint64_t address = AuPCIEGetDevice(0,bus, dev, func);

	ldr         w3,[sp,#0xC]
	ldr         w2,[sp,#8]
	ldr         w1,[sp,#4]
	mov         w0,#0
	bl          AuPCIEGetDevice
	str         x0,[sp,#0x18]

; 423  : 				if (address == 0)

	ldr         x8,[sp,#0x18]
	cmp         x8,#0
	bne         |$LN11@AuPCIEScan|

; 424  : 					continue;

	b           |$LN8@AuPCIEScan|
|$LN11@AuPCIEScan|

; 425  : 				if (address == 0xFFFFFFFF)

	mov         x9,#0xFFFFFFFF
	ldr         x8,[sp,#0x18]
	cmp         x8,x9
	bne         |$LN12@AuPCIEScan|

; 426  : 					continue;

	b           |$LN8@AuPCIEScan|
|$LN12@AuPCIEScan|

; 427  : 				uint8_t class_code = AuPCIERead(address, PCI_CLASS, bus, dev, func);

	ldr         w4,[sp,#0xC]
	ldr         w3,[sp,#8]
	ldr         w2,[sp,#4]
	mov         w1,#0xB
	ldr         x0,[sp,#0x18]
	bl          AuPCIERead
	mov         w0,w0
	uxtb        w8,w0
	strb        w8,[sp,#0x10]

; 428  : 				uint8_t sub_ClassCode = AuPCIERead(address, PCI_SUBCLASS, bus, dev, func);

	ldr         w4,[sp,#0xC]
	ldr         w3,[sp,#8]
	ldr         w2,[sp,#4]
	mov         w1,#0xA
	ldr         x0,[sp,#0x18]
	bl          AuPCIERead
	mov         w0,w0
	uxtb        w8,w0
	strb        w8,[sp,#1]

; 429  : 				uint16_t vendID = AuPCIERead(address, PCI_VENDOR_ID, bus, dev, func);

	ldr         w4,[sp,#0xC]
	ldr         w3,[sp,#8]
	ldr         w2,[sp,#4]
	mov         w1,#0
	ldr         x0,[sp,#0x18]
	bl          AuPCIERead
	mov         w0,w0
	uxth        w8,w0
	strh        w8,[sp,#0x20]

; 430  : 				uint16_t devID = AuPCIERead(address, PCI_DEVICE_ID, bus, dev, func);

	ldr         w4,[sp,#0xC]
	ldr         w3,[sp,#8]
	ldr         w2,[sp,#4]
	mov         w1,#2
	ldr         x0,[sp,#0x18]
	bl          AuPCIERead
	mov         w0,w0
	uxth        w8,w0
	strh        w8,[sp,#0x22]

; 431  : 				if (classCode == 0xFF || sub_ClassCode == 0xFF)

	ldrb        w8,[sp]
	mov         w8,w8
	cmp         w8,#0xFF
	beq         |$LN14@AuPCIEScan|
	ldrb        w8,[sp,#1]
	mov         w8,w8
	cmp         w8,#0xFF
	bne         |$LN13@AuPCIEScan|
|$LN14@AuPCIEScan|

; 432  : 					continue;

	b           |$LN8@AuPCIEScan|
|$LN13@AuPCIEScan|

; 433  : 				if (class_code == classCode && sub_ClassCode == subClassCode) {

	ldrb        w9,[sp,#0x10]
	mov         w9,w9
	ldrb        w8,[sp]
	mov         w8,w8
	cmp         w9,w8
	bne         |$LN15@AuPCIEScan|
	ldrb        w9,[sp,#1]
	mov         w9,w9
	ldrb        w8,[sp,#0x11]
	mov         w8,w8
	cmp         w9,w8
	bne         |$LN15@AuPCIEScan|

; 434  : 					*bus_ = bus;

	ldr         x9,[sp,#0x28]
	ldr         w8,[sp,#4]
	str         w8,[x9]

; 435  : 					*dev_ = dev;

	ldr         x9,[sp,#0x30]
	ldr         w8,[sp,#8]
	str         w8,[x9]

; 436  : 					*func_ = func;

	ldr         x9,[sp,#0x38]
	ldr         w8,[sp,#0xC]
	str         w8,[x9]

; 437  : 					return address;

	ldr         x0,[sp,#0x18]
	b           |$LN1@AuPCIEScan|
|$LN15@AuPCIEScan|

; 438  : 				}
; 439  : 			}

	b           |$LN8@AuPCIEScan|
|$LN9@AuPCIEScan|

; 440  : 		}

	b           |$LN5@AuPCIEScan|
|$LN6@AuPCIEScan|

; 441  : 	}

	b           |$LN2@AuPCIEScan|
|$LN3@AuPCIEScan|

; 442  : 
; 443  : 	return 0xFFFFFFFF;

	mov         x0,#0xFFFFFFFF
|$LN1@AuPCIEScan|
	add         sp,sp,#0x40
	ldr         lr,[sp],#0x10
	ret

	ENDP  ; |AuPCIEScanClass|

; Function compile flags: /Odtpy
; File C:\Users\paras\source\repos\grep-name\XenevaOS\KernelAA64\pcie.c

	AREA	|.text$mn|, CODE, ARM64

|AuPCIEScanVendorDevice| PROC

; 455  : uint64_t AuPCIEScanVendorDevice(uint16_t vendor, uint16_t device, int* bus_, int* dev_, int* func_) {

|$LN17|
	str         lr,[sp,#-0x10]!
	sub         sp,sp,#0x40
	uxth        w8,w0
	strh        w8,[sp,#0xE]
	uxth        w8,w1
	strh        w8,[sp,#0x12]
	str         x2,[sp,#0x20]
	str         x3,[sp,#0x28]
	str         x4,[sp,#0x30]

; 456  : 
; 457  : 
; 458  : 	for (int bus = 0; bus < 255; bus++) {

	mov         w8,#0
	str         w8,[sp]
	b           |$LN4@AuPCIEScan|
|$LN2@AuPCIEScan|
	ldr         w8,[sp]
	add         w8,w8,#1
	str         w8,[sp]
|$LN4@AuPCIEScan|
	ldr         w8,[sp]
	cmp         w8,#0xFF
	bge         |$LN3@AuPCIEScan|

; 459  : 		for (int dev = 0; dev < PCI_DEVICE_PER_BUS; dev++) {

	mov         w8,#0
	str         w8,[sp,#4]
	b           |$LN7@AuPCIEScan|
|$LN5@AuPCIEScan|
	ldr         w8,[sp,#4]
	add         w8,w8,#1
	str         w8,[sp,#4]
|$LN7@AuPCIEScan|
	ldr         w8,[sp,#4]
	cmp         w8,#0x20
	bge         |$LN6@AuPCIEScan|

; 460  : 			for (int func = 0; func < PCI_FUNCTION_PER_DEVICE; func++) {

	mov         w8,#0
	str         w8,[sp,#8]
	b           |$LN10@AuPCIEScan|
|$LN8@AuPCIEScan|
	ldr         w8,[sp,#8]
	add         w8,w8,#1
	str         w8,[sp,#8]
|$LN10@AuPCIEScan|
	ldr         w8,[sp,#8]
	cmp         w8,#8
	bge         |$LN9@AuPCIEScan|

; 461  : 				uint64_t address = AuPCIEGetDevice(0, bus, dev, func);

	ldr         w3,[sp,#8]
	ldr         w2,[sp,#4]
	ldr         w1,[sp]
	mov         w0,#0
	bl          AuPCIEGetDevice
	str         x0,[sp,#0x18]

; 462  : 				if (address == 0)

	ldr         x8,[sp,#0x18]
	cmp         x8,#0
	bne         |$LN11@AuPCIEScan|

; 463  : 					continue;

	b           |$LN8@AuPCIEScan|
|$LN11@AuPCIEScan|

; 464  : 				if (address == 0xFFFFFFFF)

	mov         x9,#0xFFFFFFFF
	ldr         x8,[sp,#0x18]
	cmp         x8,x9
	bne         |$LN12@AuPCIEScan|

; 465  : 					continue;

	b           |$LN8@AuPCIEScan|
|$LN12@AuPCIEScan|

; 466  : 				uint8_t class_code = AuPCIERead(address, PCI_CLASS, bus, dev, func);

	ldr         w4,[sp,#8]
	ldr         w3,[sp,#4]
	ldr         w2,[sp]
	mov         w1,#0xB
	ldr         x0,[sp,#0x18]
	bl          AuPCIERead
	mov         w0,w0
	uxtb        w8,w0
	strb        w8,[sp,#0xC]

; 467  : 				uint8_t sub_ClassCode = AuPCIERead(address, PCI_SUBCLASS, bus, dev, func);

	ldr         w4,[sp,#8]
	ldr         w3,[sp,#4]
	ldr         w2,[sp]
	mov         w1,#0xA
	ldr         x0,[sp,#0x18]
	bl          AuPCIERead
	mov         w0,w0
	uxtb        w8,w0
	strb        w8,[sp,#0xD]

; 468  : 				uint16_t vendID = AuPCIERead(address, PCI_VENDOR_ID, bus, dev, func);

	ldr         w4,[sp,#8]
	ldr         w3,[sp,#4]
	ldr         w2,[sp]
	mov         w1,#0
	ldr         x0,[sp,#0x18]
	bl          AuPCIERead
	mov         w0,w0
	uxth        w8,w0
	strh        w8,[sp,#0x10]

; 469  : 				uint16_t devID = AuPCIERead(address, PCI_DEVICE_ID, bus, dev, func);

	ldr         w4,[sp,#8]
	ldr         w3,[sp,#4]
	ldr         w2,[sp]
	mov         w1,#2
	ldr         x0,[sp,#0x18]
	bl          AuPCIERead
	mov         w0,w0
	uxth        w8,w0
	strh        w8,[sp,#0x14]

; 470  : 				if (class_code == 0xFF || sub_ClassCode == 0xFF)

	ldrb        w8,[sp,#0xC]
	mov         w8,w8
	cmp         w8,#0xFF
	beq         |$LN14@AuPCIEScan|
	ldrb        w8,[sp,#0xD]
	mov         w8,w8
	cmp         w8,#0xFF
	bne         |$LN13@AuPCIEScan|
|$LN14@AuPCIEScan|

; 471  : 					continue;

	b           |$LN8@AuPCIEScan|
|$LN13@AuPCIEScan|

; 472  : 				if (vendor == vendID && device == devID) {

	ldrh        w9,[sp,#0xE]
	mov         w9,w9
	ldrh        w8,[sp,#0x10]
	mov         w8,w8
	cmp         w9,w8
	bne         |$LN15@AuPCIEScan|
	ldrh        w9,[sp,#0x12]
	mov         w9,w9
	ldrh        w8,[sp,#0x14]
	mov         w8,w8
	cmp         w9,w8
	bne         |$LN15@AuPCIEScan|

; 473  : 					*bus_ = bus;

	ldr         x9,[sp,#0x20]
	ldr         w8,[sp]
	str         w8,[x9]

; 474  : 					*dev_ = dev;

	ldr         x9,[sp,#0x28]
	ldr         w8,[sp,#4]
	str         w8,[x9]

; 475  : 					*func_ = func;

	ldr         x9,[sp,#0x30]
	ldr         w8,[sp,#8]
	str         w8,[x9]

; 476  : 					return address;

	ldr         x0,[sp,#0x18]
	b           |$LN1@AuPCIEScan|
|$LN15@AuPCIEScan|

; 477  : 				}
; 478  : 			}

	b           |$LN8@AuPCIEScan|
|$LN9@AuPCIEScan|

; 479  : 		}

	b           |$LN5@AuPCIEScan|
|$LN6@AuPCIEScan|

; 480  : 	}

	b           |$LN2@AuPCIEScan|
|$LN3@AuPCIEScan|

; 481  : 
; 482  : 	return 0xFFFFFFFF;

	mov         x0,#0xFFFFFFFF
|$LN1@AuPCIEScan|
	add         sp,sp,#0x40
	ldr         lr,[sp],#0x10
	ret

	ENDP  ; |AuPCIEScanVendorDevice|

; Function compile flags: /Odtpy
; File C:\Users\paras\source\repos\grep-name\XenevaOS\KernelAA64\pcie.c

	AREA	|.text$mn|, CODE, ARM64

|AuPCIEScanClassIF| PROC

; 496  : uint64_t AuPCIEScanClassIF(uint8_t classCode, uint8_t subClassCode, uint8_t progIf, int* bus_, int* dev_, int* func_) {

|$LN15|
	str         lr,[sp,#-0x10]!
	sub         sp,sp,#0x40
	uxtb        w8,w0
	strb        w8,[sp]
	uxtb        w8,w1
	strb        w8,[sp,#0x12]
	uxtb        w8,w2
	strb        w8,[sp,#0x14]
	str         x3,[sp,#0x20]
	str         x4,[sp,#0x28]
	str         x5,[sp,#0x30]

; 497  : 
; 498  : 	for (int bus = 0; bus < 255; bus++) {

	mov         w8,#0
	str         w8,[sp,#4]
	b           |$LN4@AuPCIEScan|
|$LN2@AuPCIEScan|
	ldr         w8,[sp,#4]
	add         w8,w8,#1
	str         w8,[sp,#4]
|$LN4@AuPCIEScan|
	ldr         w8,[sp,#4]
	cmp         w8,#0xFF
	bge         |$LN3@AuPCIEScan|

; 499  : 		for (int dev = 0; dev < PCI_DEVICE_PER_BUS; dev++) {

	mov         w8,#0
	str         w8,[sp,#8]
	b           |$LN7@AuPCIEScan|
|$LN5@AuPCIEScan|
	ldr         w8,[sp,#8]
	add         w8,w8,#1
	str         w8,[sp,#8]
|$LN7@AuPCIEScan|
	ldr         w8,[sp,#8]
	cmp         w8,#0x20
	bge         |$LN6@AuPCIEScan|

; 500  : 			for (int func = 0; func < PCI_FUNCTION_PER_DEVICE; func++) {

	mov         w8,#0
	str         w8,[sp,#0xC]
	b           |$LN10@AuPCIEScan|
|$LN8@AuPCIEScan|
	ldr         w8,[sp,#0xC]
	add         w8,w8,#1
	str         w8,[sp,#0xC]
|$LN10@AuPCIEScan|
	ldr         w8,[sp,#0xC]
	cmp         w8,#8
	bge         |$LN9@AuPCIEScan|

; 501  : 				uint64_t address = AuPCIEGetDevice(0,bus, dev, func);

	ldr         w3,[sp,#0xC]
	ldr         w2,[sp,#8]
	ldr         w1,[sp,#4]
	mov         w0,#0
	bl          AuPCIEGetDevice
	str         x0,[sp,#0x18]

; 502  : 
; 503  : 				if (address == 0xFFFFFFFF)

	mov         x9,#0xFFFFFFFF
	ldr         x8,[sp,#0x18]
	cmp         x8,x9
	bne         |$LN11@AuPCIEScan|

; 504  : 					continue;

	b           |$LN8@AuPCIEScan|
|$LN11@AuPCIEScan|

; 505  : 				uint8_t class_code = AuPCIERead(address, PCI_CLASS, bus, dev, func);

	ldr         w4,[sp,#0xC]
	ldr         w3,[sp,#8]
	ldr         w2,[sp,#4]
	mov         w1,#0xB
	ldr         x0,[sp,#0x18]
	bl          AuPCIERead
	mov         w0,w0
	uxtb        w8,w0
	strb        w8,[sp,#0x10]

; 506  : 				uint8_t sub_ClassCode = AuPCIERead(address, PCI_SUBCLASS, bus, dev, func);

	ldr         w4,[sp,#0xC]
	ldr         w3,[sp,#8]
	ldr         w2,[sp,#4]
	mov         w1,#0xA
	ldr         x0,[sp,#0x18]
	bl          AuPCIERead
	mov         w0,w0
	uxtb        w8,w0
	strb        w8,[sp,#0x11]

; 507  : 				uint8_t prog_if = AuPCIERead(address, PCI_PROG_IF, bus, dev, func);

	ldr         w4,[sp,#0xC]
	ldr         w3,[sp,#8]
	ldr         w2,[sp,#4]
	mov         w1,#9
	ldr         x0,[sp,#0x18]
	bl          AuPCIERead
	mov         w0,w0
	uxtb        w8,w0
	strb        w8,[sp,#0x13]

; 508  : 				if (classCode == 0xFF)

	ldrb        w8,[sp]
	mov         w8,w8
	cmp         w8,#0xFF
	bne         |$LN12@AuPCIEScan|

; 509  : 					continue;

	b           |$LN8@AuPCIEScan|
|$LN12@AuPCIEScan|

; 510  : 				if (class_code == classCode && sub_ClassCode == subClassCode && prog_if == progIf) {

	ldrb        w9,[sp,#0x10]
	mov         w9,w9
	ldrb        w8,[sp]
	mov         w8,w8
	cmp         w9,w8
	bne         |$LN13@AuPCIEScan|
	ldrb        w9,[sp,#0x11]
	mov         w9,w9
	ldrb        w8,[sp,#0x12]
	mov         w8,w8
	cmp         w9,w8
	bne         |$LN13@AuPCIEScan|
	ldrb        w9,[sp,#0x13]
	mov         w9,w9
	ldrb        w8,[sp,#0x14]
	mov         w8,w8
	cmp         w9,w8
	bne         |$LN13@AuPCIEScan|

; 511  : 					*bus_ = bus;

	ldr         x9,[sp,#0x20]
	ldr         w8,[sp,#4]
	str         w8,[x9]

; 512  : 					*dev_ = dev;

	ldr         x9,[sp,#0x28]
	ldr         w8,[sp,#8]
	str         w8,[x9]

; 513  : 					*func_ = func;

	ldr         x9,[sp,#0x30]
	ldr         w8,[sp,#0xC]
	str         w8,[x9]

; 514  : 					return address;

	ldr         x0,[sp,#0x18]
	b           |$LN1@AuPCIEScan|
|$LN13@AuPCIEScan|

; 515  : 				}
; 516  : 			}

	b           |$LN8@AuPCIEScan|
|$LN9@AuPCIEScan|

; 517  : 		}

	b           |$LN5@AuPCIEScan|
|$LN6@AuPCIEScan|

; 518  : 	}

	b           |$LN2@AuPCIEScan|
|$LN3@AuPCIEScan|

; 519  : 
; 520  : 	return 0xFFFFFFFF;

	mov         x0,#0xFFFFFFFF
|$LN1@AuPCIEScan|
	add         sp,sp,#0x40
	ldr         lr,[sp],#0x10
	ret

	ENDP  ; |AuPCIEScanClassIF|

; Function compile flags: /Odtpy
; File C:\Users\paras\source\repos\grep-name\XenevaOS\KernelAA64\pcie.c

	AREA	|.text$mn|, CODE, ARM64

|AuPCIEAllocMSI| PROC

; 593  : bool AuPCIEAllocMSI(uint64_t device, size_t vector, int bus, int dev, int func) {

|$LN16|
	str         lr,[sp,#-0x10]!
	sub         sp,sp,#0xB0
	str         x0,[sp,#0x28]
	str         x1,[sp,#0x58]
	str         w2,[sp,#0x10]
	str         w3,[sp,#0xC]
	str         w4,[sp,#8]

; 594  : 
; 595  : 	bool value = false;

	mov         w8,#0
	strb        w8,[sp,#4]

; 596  : 	uint64_t status = AuPCIERead64(device, PCI_COMMAND, 4, bus, dev, func);

	ldr         w5,[sp,#8]
	ldr         w4,[sp,#0xC]
	ldr         w3,[sp,#0x10]
	mov         w2,#4
	mov         w1,#4
	ldr         x0,[sp,#0x28]
	bl          AuPCIERead64
	str         x0,[sp,#0x50]

; 597  : 	status >>= 16;

	ldr         x8,[sp,#0x50]
	lsr         x8,x8,#0x10
	str         x8,[sp,#0x50]

; 598  : 	if ((status & (1 << 4)) != 0) {

	ldr         x8,[sp,#0x50]
	tbz         x8,#4,|$LN7@AuPCIEAllo|

; 599  : 		uint32_t capptr = AuPCIERead64(device, PCI_CAPABILITIES_PTR, 4, bus, dev, func);

	ldr         w5,[sp,#8]
	ldr         w4,[sp,#0xC]
	ldr         w3,[sp,#0x10]
	mov         w2,#4
	mov         w1,#0x34
	ldr         x0,[sp,#0x28]
	bl          AuPCIERead64
	mov         w8,w0
	str         w8,[sp]

; 600  : 		capptr &= 0xFF;

	ldr         w8,[sp]
	and         w8,w8,#0xFF
	str         w8,[sp]

; 601  : 		uint32_t cap_reg = 0;

	mov         w8,#0
	str         w8,[sp,#0x1C]

; 602  : 		uint32_t msi_reg = 0;

	mov         w8,#0
	str         w8,[sp,#0x18]
|$LN2@AuPCIEAllo|

; 603  : 		while (capptr != 0) {

	ldr         w8,[sp]
	cmp         w8,#0
	beq         |$LN3@AuPCIEAllo|

; 604  : 			cap_reg = AuPCIERead64(device, capptr, 4, bus, dev, func);

	ldr         w5,[sp,#8]
	ldr         w4,[sp,#0xC]
	ldr         w3,[sp,#0x10]
	mov         w2,#4
	ldr         w1,[sp]
	ldr         x0,[sp,#0x28]
	bl          AuPCIERead64
	mov         w8,w0
	str         w8,[sp,#0x1C]

; 605  : 			if ((cap_reg & 0xff) == 0x5) {

	ldr         w8,[sp,#0x1C]
	and         w8,w8,#0xFF
	cmp         w8,#5
	bne         |$LN8@AuPCIEAllo|

; 606  : 				msi_reg = cap_reg;

	ldr         w8,[sp,#0x1C]
	str         w8,[sp,#0x18]

; 607  : 				uint16_t msctl = msi_reg >> 16;

	ldr         w8,[sp,#0x18]
	lsr         w8,w8,#0x10
	uxth        w8,w8
	strh        w8,[sp,#0x14]

; 608  : 				bool bit64_cap = (msctl & (1 << 7));

	ldrh        w8,[sp,#0x14]
	mov         w8,w8
	and         w8,w8,#0x80
	uxtb        w8,w8
	strb        w8,[sp,#0x20]

; 609  : 				bool maskcap = (msctl & (1 << 8));

	ldrh        w8,[sp,#0x14]
	mov         w8,w8
	and         w8,w8,#0x100
	uxtb        w8,w8
	strb        w8,[sp,#0x21]

; 610  : 
; 611  : 				/* for GICv2 msi_data is 0*/
; 612  : 				uint64_t msi_data = 0;

	mov         x8,#0
	str         x8,[sp,#0x68]

; 613  : 
; 614  : 				uint64_t msi_addr = AuGICGetMSIAddress((int)vector);

	ldr         x8,[sp,#0x58]
	mov         w0,w8
	mov         w0,w0
	bl          AuGICGetMSIAddress
	str         x0,[sp,#0x60]

; 615  : 
; 616  : 
; 617  : 				AuPCIEWrite64(device, capptr + 0x4, 4, msi_addr & UINT32_MAX, bus, dev, func);

	ldr         x8,[sp,#0x60]
	and         x3,x8,#0xFFFFFFFF
	ldr         w8,[sp]
	add         w1,w8,#4
	ldr         w6,[sp,#8]
	ldr         w5,[sp,#0xC]
	ldr         w4,[sp,#0x10]
	mov         w2,#4
	mov         w1,w1
	ldr         x0,[sp,#0x28]
	bl          AuPCIEWrite64

; 618  : 
; 619  : 				if (bit64_cap) {

	ldrb        w8,[sp,#0x20]
	mov         w8,w8
	cmp         w8,#0
	beq         |$LN9@AuPCIEAllo|

; 620  : 					AuPCIEWrite64(device, capptr + 0x8, 4, msi_addr >> 32, bus, dev, func);

	ldr         x8,[sp,#0x60]
	lsr         x3,x8,#0x20
	ldr         w8,[sp]
	add         w1,w8,#8
	ldr         w6,[sp,#8]
	ldr         w5,[sp,#0xC]
	ldr         w4,[sp,#0x10]
	mov         w2,#4
	mov         w1,w1
	ldr         x0,[sp,#0x28]
	bl          AuPCIEWrite64

; 621  : 					AuPCIEWrite64(device, capptr + 0xC, 2, msi_data & UINT16_MAX, bus, dev, func);

	ldr         x8,[sp,#0x68]
	and         x3,x8,#0xFFFF
	ldr         w8,[sp]
	add         w1,w8,#0xC
	ldr         w6,[sp,#8]
	ldr         w5,[sp,#0xC]
	ldr         w4,[sp,#0x10]
	mov         w2,#2
	mov         w1,w1
	ldr         x0,[sp,#0x28]
	bl          AuPCIEWrite64

; 622  : 				}

	b           |$LN10@AuPCIEAllo|
|$LN9@AuPCIEAllo|

; 623  : 				else
; 624  : 					AuPCIEWrite64(device, capptr + 0x8, 2, msi_data & UINT16_MAX, bus, dev, func);

	ldr         x8,[sp,#0x68]
	and         x3,x8,#0xFFFF
	ldr         w8,[sp]
	add         w1,w8,#8
	ldr         w6,[sp,#8]
	ldr         w5,[sp,#0xC]
	ldr         w4,[sp,#0x10]
	mov         w2,#2
	mov         w1,w1
	ldr         x0,[sp,#0x28]
	bl          AuPCIEWrite64
|$LN10@AuPCIEAllo|

; 625  : 
; 626  : 
; 627  : 				if (maskcap)

	ldrb        w8,[sp,#0x21]
	mov         w8,w8
	cmp         w8,#0
	beq         |$LN11@AuPCIEAllo|

; 628  : 					AuPCIEWrite64(device, capptr + 0x10, 4, 0, bus, dev, func);

	ldr         w8,[sp]
	add         w1,w8,#0x10
	ldr         w6,[sp,#8]
	ldr         w5,[sp,#0xC]
	ldr         w4,[sp,#0x10]
	mov         x3,#0
	mov         w2,#4
	mov         w1,w1
	ldr         x0,[sp,#0x28]
	bl          AuPCIEWrite64
|$LN11@AuPCIEAllo|

; 629  : 
; 630  : 
; 631  : 
; 632  : 				msctl |= 1;

	ldrh        w8,[sp,#0x14]
	mov         w8,w8
	orr         w8,w8,#1
	uxth        w8,w8
	strh        w8,[sp,#0x14]

; 633  : 
; 634  : 				cap_reg = msi_reg & UINT16_MAX | msctl << 16;

	ldr         w8,[sp,#0x18]
	and         w9,w8,#0xFFFF
	ldrh        w8,[sp,#0x14]
	mov         w8,w8
	lsl         w8,w8,#0x10
	orr         w8,w9,w8
	str         w8,[sp,#0x1C]

; 635  : 				AuPCIEWrite64(device, capptr, 4, cap_reg & UINT32_MAX, bus, dev, func);

	ldr         w8,[sp,#0x1C]
	uxtw        x3,w8
	ldr         w6,[sp,#8]
	ldr         w5,[sp,#0xC]
	ldr         w4,[sp,#0x10]
	mov         w2,#4
	ldr         w1,[sp]
	ldr         x0,[sp,#0x28]
	bl          AuPCIEWrite64

; 636  : 				uint32_t cap_reg2 = AuPCIERead64(device, capptr, 4, bus, dev, func);

	ldr         w5,[sp,#8]
	ldr         w4,[sp,#0xC]
	ldr         w3,[sp,#0x10]
	mov         w2,#4
	ldr         w1,[sp]
	ldr         x0,[sp,#0x28]
	bl          AuPCIERead64
	mov         w8,w0
	str         w8,[sp,#0x80]

; 637  : 				value = true; //MSI Allocated

	mov         w8,#1
	strb        w8,[sp,#4]

; 638  : 				UARTDebugOut("MSI found \r\n");

	adrp        x8,|$SG3707|
	add         x0,x8,PageOffset(|$SG3707|)
	bl          UARTDebugOut

; 639  : 				break;

	b           |$LN3@AuPCIEAllo|
|$LN8@AuPCIEAllo|

; 640  : 			}
; 641  : 
; 642  : 			if ((cap_reg & 0xff) == 0x11) {

	ldr         w8,[sp,#0x1C]
	and         w8,w8,#0xFF
	cmp         w8,#0x11
	bne         |$LN12@AuPCIEAllo|

; 643  : 				value = true; //MSI-X Allocated: not implemented

	mov         w8,#1
	strb        w8,[sp,#4]

; 644  : 				msi_reg = cap_reg;

	ldr         w8,[sp,#0x1C]
	str         w8,[sp,#0x18]

; 645  : 				uint16_t msixctl = (msi_reg >> 16) & 0xFFFF;

	ldr         w8,[sp,#0x18]
	lsr         w8,w8,#0x10
	uxth        w8,w8
	strh        w8,[sp,#0x34]

; 646  : 				uint64_t tableOffset = AuPCIERead64(device, capptr + 0x4, 4, bus, dev, func);

	ldr         w8,[sp]
	add         w1,w8,#4
	ldr         w5,[sp,#8]
	ldr         w4,[sp,#0xC]
	ldr         w3,[sp,#0x10]
	mov         w2,#4
	mov         w1,w1
	ldr         x0,[sp,#0x28]
	bl          AuPCIERead64
	str         x0,[sp,#0x70]

; 647  : 				uint64_t pbaOffset = AuPCIERead64(device, capptr + 0x8, 4, bus, dev, func);

	ldr         w8,[sp]
	add         w1,w8,#8
	ldr         w5,[sp,#8]
	ldr         w4,[sp,#0xC]
	ldr         w3,[sp,#0x10]
	mov         w2,#4
	mov         w1,w1
	ldr         x0,[sp,#0x28]
	bl          AuPCIERead64
	str         x0,[sp,#0x88]

; 648  : 				isb_flush();

	bl          isb_flush

; 649  : 				dsb_ish();

	bl          dsb_ish

; 650  : 				uint8_t table_bir = tableOffset & 0x7;

	ldr         x8,[sp,#0x70]
	and         x8,x8,#7
	uxtb        w8,w8
	strb        w8,[sp,#0x22]

; 651  : 				uint8_t pba_bir = pbaOffset & 0x7;

	ldr         x8,[sp,#0x88]
	and         x8,x8,#7
	uxtb        w8,w8
	strb        w8,[sp,#0x32]

; 652  : 				size_t barsz = 0;

	mov         x8,#0
	str         x8,[sp,#0x90]

; 653  : 				uint64_t msi_bar = AuPCIEReadBAR(device, bus, dev, func,table_bir, &barsz);

	ldrb        w8,[sp,#0x22]
	mov         w8,w8
	sxtw        x4,w8
	ldr         w8,[sp,#8]
	uxth        w3,w8
	ldr         w8,[sp,#0xC]
	uxth        w2,w8
	ldr         w8,[sp,#0x10]
	uxth        w1,w8
	add         x5,sp,#0x90
	mov         w3,w3
	mov         w2,w2
	mov         w1,w1
	ldr         x0,[sp,#0x28]
	bl          AuPCIEReadBAR
	str         x0,[sp,#0x98]

; 654  : 				uint64_t mappedMsiBar = (uint64_t)AuMapMMIO(msi_bar,1);

	mov         x1,#1
	ldr         x0,[sp,#0x98]
	bl          AuMapMMIO
	str         x0,[sp,#0xA0]

; 655  : 				uint64_t tablecount = (msixctl & 0x7ff) + 1;

	ldrh        w8,[sp,#0x34]
	mov         w8,w8
	and         w8,w8,#0x7FF
	add         w8,w8,#1
	sxtw        x8,w8
	str         x8,[sp,#0xA8]

; 656  : 				uint64_t msi_address = AuGICGetMSIAddress((int)vector);

	ldr         x8,[sp,#0x58]
	mov         w0,w8
	mov         w0,w0
	bl          AuGICGetMSIAddress
	str         x0,[sp,#0x78]

; 657  : 				uint32_t msi_data = AuGICGetMSIData((int)vector);

	ldr         x8,[sp,#0x58]
	mov         w0,w8
	mov         w0,w0
	bl          AuGICGetMSIData
	mov         w0,w0
	str         w0,[sp,#0x44]

; 658  : 				uint32_t offset = tableOffset & ~0x7;

	ldr         x8,[sp,#0x70]
	and         x8,x8,#-8
	mov         w8,w8
	str         w8,[sp,#0x40]

; 659  : 				volatile uint32_t* msitab = RAW_OFFSET(volatile uint32_t*, mappedMsiBar, offset);

	ldr         w8,[sp,#0x40]
	uxtw        x9,w8
	ldr         x8,[sp,#0xA0]
	add         x8,x8,x9
	str         x8,[sp,#0x38]

; 660  : 				for (int n = 0; n < tablecount; ++n) {

	mov         w8,#0
	str         w8,[sp,#0x24]
	b           |$LN6@AuPCIEAllo|
|$LN4@AuPCIEAllo|
	ldr         w8,[sp,#0x24]
	add         w8,w8,#1
	str         w8,[sp,#0x24]
|$LN6@AuPCIEAllo|
	ldr         w8,[sp,#0x24]
	sxtw        x9,w8
	ldr         x8,[sp,#0xA8]
	cmp         x9,x8
	bhs         |$LN5@AuPCIEAllo|

; 661  : 					msitab[0 + 4 * n] = (uint32_t)msi_address;

	ldr         x8,[sp,#0x78]
	mov         w10,w8
	ldr         w9,[sp,#0x24]
	mov         w8,#4
	mul         w8,w9,w8
	mov         w8,w8
	sxtw        x9,w8
	mov         x8,#4
	mul         x9,x9,x8
	ldr         x8,[sp,#0x38]
	add         x8,x8,x9
	str         w10,[x8]

; 662  : 					msitab[1 + 4 * n] = (uint32_t)(msi_address >> 32);

	ldr         x8,[sp,#0x78]
	lsr         x8,x8,#0x20
	mov         w10,w8
	ldr         w9,[sp,#0x24]
	mov         w8,#4
	mul         w8,w9,w8
	add         w8,w8,#1
	sxtw        x9,w8
	mov         x8,#4
	mul         x9,x9,x8
	ldr         x8,[sp,#0x38]
	add         x8,x8,x9
	str         w10,[x8]

; 663  : 					msitab[2 + 4 * n] = (uint32_t)msi_data;

	ldr         w9,[sp,#0x24]
	mov         w8,#4
	mul         w8,w9,w8
	add         w8,w8,#2
	sxtw        x9,w8
	mov         x8,#4
	mul         x9,x9,x8
	ldr         x8,[sp,#0x38]
	add         x9,x8,x9
	ldr         w8,[sp,#0x44]
	str         w8,[x9]

; 664  : 					msitab[3 + 4 * n] = 0; //vector control

	ldr         w9,[sp,#0x24]
	mov         w8,#4
	mul         w8,w9,w8
	add         w8,w8,#3
	sxtw        x9,w8
	mov         x8,#4
	mul         x9,x9,x8
	ldr         x8,[sp,#0x38]
	add         x9,x8,x9
	mov         w8,#0
	str         w8,[x9]

; 665  : 				}

	b           |$LN4@AuPCIEAllo|
|$LN5@AuPCIEAllo|

; 666  : 				isb_flush();

	bl          isb_flush

; 667  : 				dsb_ish();

	bl          dsb_ish

; 668  : 				msi_reg |= (1 << 31); //MSX

	ldr         w8,[sp,#0x18]
	orr         w8,w8,#0x80000000
	str         w8,[sp,#0x18]

; 669  : 				msi_reg &= ~(1 << 30);

	ldr         w8,[sp,#0x18]
	and         w8,w8,#0xBFFFFFFF
	str         w8,[sp,#0x18]

; 670  : 				AuPCIEWrite64(device, capptr, 4, msi_reg, bus, dev, func);

	ldr         w8,[sp,#0x18]
	uxtw        x3,w8
	ldr         w6,[sp,#8]
	ldr         w5,[sp,#0xC]
	ldr         w4,[sp,#0x10]
	mov         w2,#4
	ldr         w1,[sp]
	ldr         x0,[sp,#0x28]
	bl          AuPCIEWrite64

; 671  : 				isb_flush();

	bl          isb_flush

; 672  : 				dsb_ish();

	bl          dsb_ish

; 673  : 				uint32_t msiv = AuPCIERead64(device, capptr, 4, bus, dev, func);

	ldr         w5,[sp,#8]
	ldr         w4,[sp,#0xC]
	ldr         w3,[sp,#0x10]
	mov         w2,#4
	ldr         w1,[sp]
	ldr         x0,[sp,#0x28]
	bl          AuPCIERead64
	mov         w8,w0
	str         w8,[sp,#0x48]

; 674  : 				uint16_t msicv = (msiv >> 16) & 0xFFFF;

	ldr         w8,[sp,#0x48]
	lsr         w8,w8,#0x10
	uxth        w8,w8
	strh        w8,[sp,#0x30]

; 675  : 				if ((msicv & (1 << 15)) != 0)

	ldrh        w8,[sp,#0x30]
	mov         w8,w8
	tbz         x8,#0xF,|$LN13@AuPCIEAllo|

; 676  : 					UARTDebugOut("MSI-X Enabled \n");

	adrp        x8,|$SG3710|
	add         x0,x8,PageOffset(|$SG3710|)
	bl          UARTDebugOut
|$LN13@AuPCIEAllo|

; 677  : 				if ((msicv & (1 << 14)) != 0)

	ldrh        w8,[sp,#0x30]
	mov         w8,w8
	tbz         x8,#0xE,|$LN14@AuPCIEAllo|

; 678  : 					UARTDebugOut("Function mask \n");

	adrp        x8,|$SG3712|
	add         x0,x8,PageOffset(|$SG3712|)
	bl          UARTDebugOut
|$LN14@AuPCIEAllo|

; 679  : 
; 680  : 				break;

	b           |$LN3@AuPCIEAllo|
|$LN12@AuPCIEAllo|

; 681  : 			}
; 682  : 			capptr = ((cap_reg >> 8) & 0xff);   //((cap_reg >> 8) & 0xFF) / 4;

	ldr         w8,[sp,#0x1C]
	ubfx        w8,w8,#8,#8
	str         w8,[sp]

; 683  : 		}

	b           |$LN2@AuPCIEAllo|
|$LN3@AuPCIEAllo|
|$LN7@AuPCIEAllo|

; 684  : 	}
; 685  : 
; 686  : 	return value;

	ldrb        w0,[sp,#4]
	add         sp,sp,#0xB0
	ldr         lr,[sp],#0x10
	ret

	ENDP  ; |AuPCIEAllocMSI|

; Function compile flags: /Odtpy
; File C:\Users\paras\source\repos\grep-name\XenevaOS\KernelAA64\pcie.c

	AREA	|.text$mn|, CODE, ARM64

|AuPCIEGetDevice| PROC

; 146  : uint64_t AuPCIEGetDevice(uint16_t seg, int bus, int dev, int func) {

|$LN9|
	str         lr,[sp,#-0x10]!
	sub         sp,sp,#0x30
	uxth        w8,w0
	strh        w8,[sp]
	str         w1,[sp,#4]
	str         w2,[sp,#8]
	str         w3,[sp,#0xC]

; 147  : 	if (bus > 255)

	ldr         w8,[sp,#4]
	cmp         w8,#0xFF
	ble         |$LN2@AuPCIEGetD|

; 148  : 		return 0;

	mov         x0,#0
	b           |$LN1@AuPCIEGetD|
|$LN2@AuPCIEGetD|

; 149  : 	if (dev > 31)

	ldr         w8,[sp,#8]
	cmp         w8,#0x1F
	ble         |$LN3@AuPCIEGetD|

; 150  : 		return 0;

	mov         x0,#0
	b           |$LN1@AuPCIEGetD|
|$LN3@AuPCIEGetD|

; 151  : 	if (func > 8)

	ldr         w8,[sp,#0xC]
	cmp         w8,#8
	ble         |$LN4@AuPCIEGetD|

; 152  : 		return 0;

	mov         x0,#0
	b           |$LN1@AuPCIEGetD|
|$LN4@AuPCIEGetD|

; 153  : 	uint64_t addr = 0;

	mov         x8,#0
	str         x8,[sp,#0x18]

; 154  : 	if (_ecamAddress != 0) {

	adrp        x8,_ecamAddress
	ldr         x8,[x8,PageOffset(_ecamAddress)]
	cmp         x8,#0
	beq         |$LN5@AuPCIEGetD|

; 155  : 		addr = _ecamAddress + ((bus << 20) |

	ldr         w8,[sp,#4]
	lsl         w9,w8,#0x14
	ldr         w8,[sp,#8]
	lsl         w8,w8,#0xF
	orr         w9,w9,w8
	ldr         w8,[sp,#0xC]
	lsl         w8,w8,#0xC
	orr         w8,w9,w8
	sxtw        x9,w8
	adrp        x8,_ecamAddress
	ldr         x8,[x8,PageOffset(_ecamAddress)]
	add         x8,x8,x9
	str         x8,[sp,#0x18]

; 156  : 			(dev << 15) | (func << 12));
; 157  : 	}

	b           |$LN6@AuPCIEGetD|
|$LN5@AuPCIEGetD|

; 158  : 	else {
; 159  : 		acpiMcfg* mcfg = AuACPIGetMCFG();

	bl          AuACPIGetMCFG
	str         x0,[sp,#0x20]

; 160  : 		acpiMcfgAlloc* allocs = MEM_AFTER(acpiMcfgAlloc*,mcfg);

	ldr         x8,[sp,#0x20]
	add         x8,x8,#0x2C
	str         x8,[sp,#0x10]

; 161  : 		if (allocs->startBusNum <= bus && bus <= allocs->endBusNum) {

	ldr         x8,[sp,#0x10]
	add         x8,x8,#0xA
	ldrb        w9,[x8]
	mov         w9,w9
	ldr         w8,[sp,#4]
	cmp         w9,w8
	bgt         |$LN7@AuPCIEGetD|
	ldr         x8,[sp,#0x10]
	add         x8,x8,#0xB
	ldrb        w9,[x8]
	mov         w9,w9
	ldr         w8,[sp,#4]
	cmp         w8,w9
	bgt         |$LN7@AuPCIEGetD|

; 162  : 			addr = allocs->baseAddress + ((bus - allocs->startBusNum) << 20) |

	ldr         x10,[sp,#0x10]
	ldr         x8,[sp,#0x10]
	add         x8,x8,#0xA
	ldrb        w9,[x8]
	mov         w9,w9
	ldr         w8,[sp,#4]
	sub         w8,w8,w9
	lsl         w8,w8,#0x14
	sxtw        x9,w8
	ldr         x8,[x10]
	add         x9,x8,x9
	ldr         w8,[sp,#8]
	lsl         w8,w8,#0xF
	sxtw        x8,w8
	orr         x9,x9,x8
	ldr         w8,[sp,#0xC]
	lsl         w8,w8,#0xC
	sxtw        x8,w8
	orr         x8,x9,x8
	str         x8,[sp,#0x18]
|$LN7@AuPCIEGetD|
|$LN6@AuPCIEGetD|

; 163  : 				(dev << 15) | (func << 12);
; 164  : 		}
; 165  : 	}
; 166  : 	return addr;

	ldr         x0,[sp,#0x18]
|$LN1@AuPCIEGetD|
	add         sp,sp,#0x30
	ldr         lr,[sp],#0x10
	ret

	ENDP  ; |AuPCIEGetDevice|

	END
