; Listing generated by Microsoft (R) Optimizing Compiler Version 19.29.30159.0 

	TTL	C:\Users\paras\source\repos\grep-name\XenevaOS\KernelAA64\ARM64\Debug\pe.obj
	ARM64

	AREA	|.drectve|, DRECTVE


	AREA	|.rdata|, DATA, READONLY
|MAGIC_NATIVE| DCD 0x10b
|MACHINE_NATIVE| DCD 0x14c
	EXPORT	|AuGetProcAddress|
	EXPORT	|AuKernelLinkDLL|
	EXPORT	|AuPEPrintExports|
	EXPORT	|AuKernelLinkImports|
	EXPORT	|AuKernelRelocatePE|
	EXPORT	|AuPEFileIsDynamicallyLinked|
	EXPORT	|AuCoffResolveAddress|
	IMPORT	|strcmp|
	IMPORT	|AuTextOut|
	IMPORT	|UARTDebugOut|

	AREA	|.pdata|, PDATA
|$pdata$AuGetProcAddress| DCD imagerel |$LN10|
	DCD	0x42001e1
	;Flags[SingleProEpi] functionLength[480] RegF[0] RegI[0] H[0] frameChainReturn[UnChainedSavedLR] frameSize[128]
|$pdata$AuKernelLinkDLL| DCD imagerel |$LN11|
	DCD	0x42001ad
	;Flags[SingleProEpi] functionLength[428] RegF[0] RegI[0] H[0] frameChainReturn[UnChainedSavedLR] frameSize[128]
|$pdata$AuPEPrintExports| DCD imagerel |$LN9|
	DCD	0x3a00175
	;Flags[SingleProEpi] functionLength[372] RegF[0] RegI[0] H[0] frameChainReturn[UnChainedSavedLR] frameSize[112]
|$pdata$AuKernelLinkImports| DCD imagerel |$LN11|
	DCD	0x42001b5
	;Flags[SingleProEpi] functionLength[436] RegF[0] RegI[0] H[0] frameChainReturn[UnChainedSavedLR] frameSize[128]
|$pdata$AuKernelRelocatePE| DCD imagerel |$LN35|
	DCD	0x30002a1
	;Flags[SingleProEpi] functionLength[672] RegF[0] RegI[0] H[0] frameChainReturn[UnChained] frameSize[96]
|$pdata$AuPEFileIsDynamicallyLinked| DCD imagerel |$LN6|
	DCD	0x22000dd
	;Flags[SingleProEpi] functionLength[220] RegF[0] RegI[0] H[0] frameChainReturn[UnChainedSavedLR] frameSize[64]
|$pdata$AuCoffResolveAddress| DCD imagerel |$LN13|
	DCD	0x4a00245
	;Flags[SingleProEpi] functionLength[580] RegF[0] RegI[0] H[0] frameChainReturn[UnChainedSavedLR] frameSize[144]
|$pdata$AuCoffSymName| DCD imagerel |AuCoffSymName|
	DCD	0x800045
	;Flags[SingleProEpi] functionLength[68] RegF[0] RegI[0] H[0] frameChainReturn[UnChained] frameSize[16]
|$pdata$AuCoffSectionBase| DCD imagerel |AuCoffSectionBase|
	DCD	0x1800089
	;Flags[SingleProEpi] functionLength[136] RegF[0] RegI[0] H[0] frameChainReturn[UnChained] frameSize[48]

	AREA	|.data|, DATA
|$SG2857| DCB	"Fname -> %s ", 0xa, 0x0
	%	2
|$SG2994| DCB	"data dir va = %d , size = %d ", 0xd, 0xa, 0x0
|$SG3050| DCB	"num_symbols : %d, SymbolTable : %x ", 0xd, 0xa, 0x0
	%	2
|$SG3058| DCB	"[aurora]: pe symbol name : %s ", 0xd, 0xa, 0x0
	%	7
|$SG3059| DCB	"[aurora]: out offset : %x ", 0xd, 0xa, 0x0
	%	3
|$SG3060| DCB	"[aurora]: pe symbol <?no match?>, offset : %x ", 0xd, 0xa
	DCB	0x0
; Function compile flags: /Odtpy
; File C:\Users\paras\source\repos\grep-name\XenevaOS\KernelAA64\pe.c

	AREA	|.text$mn|, CODE, ARM64

|AuCoffSectionBase| PROC

; 278  : static uint64_t AuCoffSectionBase(uint8_t* imageBase, int section_idx) {

	sub         sp,sp,#0x30
	str         x0,[sp,#8]
	str         w1,[sp]

; 279  : 	IMAGE_DOS_HEADER* dos = (IMAGE_DOS_HEADER*)imageBase;

	ldr         x8,[sp,#8]
	str         x8,[sp,#0x18]

; 280  : 	IMAGE_NT_HEADERS* nt = (IMAGE_NT_HEADERS*)(imageBase + dos->e_lfanew);

	ldr         x8,[sp,#0x18]
	add         x8,x8,#0x3C
	ldrh        w8,[x8]
	mov         w9,w8
	ldr         x8,[sp,#8]
	add         x8,x8,x9
	str         x8,[sp,#0x10]

; 281  : 	SECTION_HEADER* sec = IMAGE_FIRST_SECTION(nt);

	ldr         x8,[sp,#0x10]
	add         x9,x8,#0x18
	ldr         x8,[sp,#0x10]
	add         x8,x8,#0x14
	ldrh        w8,[x8]
	mov         w8,w8
	add         x8,x9,x8
	str         x8,[sp,#0x20]

; 282  : 	return (uint64_t)(imageBase)+sec[section_idx - 1].VirtualAddress;

	ldr         w8,[sp]
	sub         w8,w8,#1
	sxtw        x9,w8
	mov         x8,#0x28
	mul         x9,x9,x8
	ldr         x8,[sp,#0x20]
	add         x8,x8,x9
	add         x8,x8,#0xC
	ldr         w8,[x8]
	uxtw        x9,w8
	ldr         x8,[sp,#8]
	add         x0,x8,x9
	add         sp,sp,#0x30
	ret

	ENDP  ; |AuCoffSectionBase|

; Function compile flags: /Odtpy
; File C:\Users\paras\source\repos\grep-name\XenevaOS\KernelAA64\pe.c

	AREA	|.text$mn|, CODE, ARM64

|AuCoffSymName| PROC

; 263  : static const char* AuCoffSymName(IMAGE_COFF_SYMBOL* sym, const char* strtab) {

	sub         sp,sp,#0x10
	str         x0,[sp]
	str         x1,[sp,#8]

; 264  : 	if (sym->name.lng.zeros != 0)

	ldr         x8,[sp]
	ldr         w8,[x8]
	cmp         w8,#0
	beq         |$LN2@AuCoffSymN|

; 265  : 		return sym->name.short_name;

	ldr         x0,[sp]
	b           |$LN1@AuCoffSymN|
|$LN2@AuCoffSymN|

; 266  : 	return strtab + sym->name.lng.offset;

	ldr         x8,[sp]
	add         x8,x8,#4
	ldr         w8,[x8]
	uxtw        x9,w8
	ldr         x8,[sp,#8]
	add         x0,x8,x9
|$LN1@AuCoffSymN|
	add         sp,sp,#0x10
	ret

	ENDP  ; |AuCoffSymName|

; Function compile flags: /Odtpy
; File C:\Users\paras\source\repos\grep-name\XenevaOS\KernelAA64\pe.c

	AREA	|.text$mn|, CODE, ARM64

|AuCoffResolveAddress| PROC

; 291  : bool AuCoffResolveAddress(uint8_t* imageBase, uint64_t paddr) {

|$LN13|
	str         lr,[sp,#-0x10]!
	sub         sp,sp,#0x80
	str         x0,[sp,#8]
	str         x1,[sp,#0x58]

; 292  : 	IMAGE_DOS_HEADER* dos = (IMAGE_DOS_HEADER*)imageBase;

	ldr         x8,[sp,#8]
	str         x8,[sp,#0x68]

; 293  : 	IMAGE_NT_HEADERS* nt = (IMAGE_NT_HEADERS*)(imageBase + dos->e_lfanew);

	ldr         x8,[sp,#0x68]
	add         x8,x8,#0x3C
	ldrh        w8,[x8]
	mov         w9,w8
	ldr         x8,[sp,#8]
	add         x8,x8,x9
	str         x8,[sp,#0x38]

; 294  : 	uint32_t symoff = nt->FileHeader.PointerToSymbolTable;

	ldr         x8,[sp,#0x38]
	add         x8,x8,#0xC
	ldr         w8,[x8]
	str         w8,[sp,#0x20]

; 295  : 	uint32_t nsyms = nt->FileHeader.NumberOfSymbols;

	ldr         x8,[sp,#0x38]
	add         x8,x8,#0x10
	ldr         w8,[x8]
	str         w8,[sp,#0x10]

; 296  : 
; 297  : 	uint64_t rva = paddr - (uint64_t)imageBase;

	ldr         x9,[sp,#0x58]
	ldr         x8,[sp,#8]
	sub         x8,x9,x8
	str         x8,[sp,#0x60]

; 298  : 
; 299  : 	IMAGE_COFF_SYMBOL* coff_symtab = (void*)(imageBase + symoff);

	ldr         w8,[sp,#0x20]
	uxtw        x9,w8
	ldr         x8,[sp,#8]
	add         x8,x8,x9
	str         x8,[sp,#0x40]

; 300  : 	char* strtab = (char*)(imageBase + symoff + nsyms * 18);

	ldr         w8,[sp,#0x20]
	uxtw        x9,w8
	ldr         x8,[sp,#8]
	add         x10,x8,x9
	ldr         w9,[sp,#0x10]
	mov         w8,#0x12
	mul         w8,w9,w8
	uxtw        x8,w8
	add         x8,x10,x8
	str         x8,[sp,#0x70]

; 301  : 	IMAGE_COFF_SYMBOL* best = NULL;

	mov         x8,#0
	str         x8,[sp,#0x28]

; 302  : 	uint64_t best_va = 0;

	mov         x8,#0
	str         x8,[sp,#0x30]

; 303  : 
; 304  : 	UARTDebugOut("num_symbols : %d, SymbolTable : %x \r\n", nsyms, coff_symtab);

	ldr         x2,[sp,#0x40]
	ldr         w1,[sp,#0x10]
	adrp        x8,|$SG3050|
	add         x0,x8,PageOffset(|$SG3050|)
	bl          UARTDebugOut

; 305  : 
; 306  : 	
; 307  : 	for (uint32_t j = 0; j < nsyms; j++) {

	mov         w8,#0
	str         w8,[sp]
	b           |$LN4@AuCoffReso|
|$LN2@AuCoffReso|
	ldr         w8,[sp]
	add         w8,w8,#1
	str         w8,[sp]
|$LN4@AuCoffReso|
	ldr         w9,[sp,#0x10]
	ldr         w8,[sp]
	cmp         w8,w9
	bhs         |$LN3@AuCoffReso|

; 308  : 		IMAGE_COFF_SYMBOL* s = &coff_symtab[j];

	ldr         w8,[sp]
	uxtw        x9,w8
	mov         x8,#0x12
	mul         x9,x9,x8
	ldr         x8,[sp,#0x40]
	add         x8,x8,x9
	str         x8,[sp,#0x18]

; 309  : 
; 310  : 		if (s->section <= 0) goto next;

	ldr         x8,[sp,#0x18]
	add         x8,x8,#0xC
	ldrsh       w8,[x8]
	mov         w8,w8
	cmp         w8,#0
	bgt         |$LN5@AuCoffReso|
	b           |$next$14|
|$LN5@AuCoffReso|

; 311  : 
; 312  : 		if ((s->type & 0x20) == 0) goto next;

	ldr         x8,[sp,#0x18]
	add         x8,x8,#0xE
	ldrh        w8,[x8]
	mov         w8,w8
	tbnz        x8,#5,|$LN6@AuCoffReso|
	b           |$next$14|
|$LN6@AuCoffReso|

; 313  : 
; 314  : 		uint64_t sym_va = AuCoffSectionBase(imageBase, s->section) + s->value;

	ldr         x8,[sp,#0x18]
	add         x8,x8,#0xC
	ldrsh       w1,[x8]
	mov         w1,w1
	mov         w1,w1
	ldr         x0,[sp,#8]
	bl          AuCoffSectionBase
	ldr         x8,[sp,#0x18]
	add         x8,x8,#8
	ldr         w8,[x8]
	uxtw        x8,w8
	add         x8,x0,x8
	str         x8,[sp,#0x50]

; 315  : 		uint64_t sym_rva = sym_va - (uint64_t)imageBase;

	ldr         x9,[sp,#0x50]
	ldr         x8,[sp,#8]
	sub         x8,x9,x8
	str         x8,[sp,#0x48]

; 316  : 
; 317  : 		if (sym_rva <= rva) {

	ldr         x9,[sp,#0x60]
	ldr         x8,[sp,#0x48]
	cmp         x8,x9
	bhi         |$LN7@AuCoffReso|

; 318  : 			if (!best || sym_rva > (best_va - (uint64_t)imageBase)) {

	ldr         x8,[sp,#0x28]
	cmp         x8,#0
	beq         |$LN9@AuCoffReso|
	ldr         x9,[sp,#0x30]
	ldr         x8,[sp,#8]
	sub         x9,x9,x8
	ldr         x8,[sp,#0x48]
	cmp         x8,x9
	bls         |$LN8@AuCoffReso|
|$LN9@AuCoffReso|

; 319  : 				best = s;

	ldr         x8,[sp,#0x18]
	str         x8,[sp,#0x28]

; 320  : 				best_va = sym_va;

	ldr         x8,[sp,#0x50]
	str         x8,[sp,#0x30]
|$LN8@AuCoffReso|
|$LN7@AuCoffReso|
|$next$14|

; 321  : 			}
; 322  : 		}
; 323  : 	next:
; 324  : 		j += s->aux_count;

	ldr         x8,[sp,#0x18]
	add         x8,x8,#0x11
	ldrb        w9,[x8]
	mov         w9,w9
	ldr         w8,[sp]
	add         w8,w8,w9
	str         w8,[sp]

; 325  : 	}

	b           |$LN2@AuCoffReso|
|$LN3@AuCoffReso|

; 326  : 
; 327  : 	if (best) {

	ldr         x8,[sp,#0x28]
	cmp         x8,#0
	beq         |$LN10@AuCoffReso|

; 328  : 		UARTDebugOut("[aurora]: pe symbol name : %s \r\n", AuCoffSymName(best, strtab));

	ldr         x1,[sp,#0x70]
	ldr         x0,[sp,#0x28]
	bl          AuCoffSymName
	mov         x1,x0
	adrp        x8,|$SG3058|
	add         x0,x8,PageOffset(|$SG3058|)
	bl          UARTDebugOut

; 329  : 		UARTDebugOut("[aurora]: out offset : %x \r\n", (paddr - best_va));

	ldr         x9,[sp,#0x58]
	ldr         x8,[sp,#0x30]
	sub         x1,x9,x8
	adrp        x8,|$SG3059|
	add         x0,x8,PageOffset(|$SG3059|)
	bl          UARTDebugOut

; 330  : 	}

	b           |$LN11@AuCoffReso|
|$LN10@AuCoffReso|

; 331  : 	else 
; 332  : 		UARTDebugOut("[aurora]: pe symbol <?no match?>, offset : %x \r\n", rva);

	ldr         x1,[sp,#0x60]
	adrp        x8,|$SG3060|
	add         x0,x8,PageOffset(|$SG3060|)
	bl          UARTDebugOut
|$LN11@AuCoffReso|
	add         sp,sp,#0x80
	ldr         lr,[sp],#0x10
	ret

	ENDP  ; |AuCoffResolveAddress|

; Function compile flags: /Odtpy
; File C:\Users\paras\source\repos\grep-name\XenevaOS\KernelAA64\pe.c

	AREA	|.text$mn|, CODE, ARM64

|AuPEFileIsDynamicallyLinked| PROC

; 247  : bool AuPEFileIsDynamicallyLinked(void* image) {

|$LN6|
	str         lr,[sp,#-0x10]!
	sub         sp,sp,#0x30
	str         x0,[sp,#0x20]

; 248  : 	uint8_t* imageAligned = (uint8_t*)image;

	ldr         x8,[sp,#0x20]
	str         x8,[sp,#0x18]

; 249  : 	PIMAGE_DOS_HEADER dos_header = (PIMAGE_DOS_HEADER)imageAligned;

	ldr         x8,[sp,#0x18]
	str         x8,[sp,#8]

; 250  : 	PIMAGE_NT_HEADERS nt_headers = RAW_OFFSET(PIMAGE_NT_HEADERS,dos_header, dos_header->e_lfanew);

	ldr         x8,[sp,#8]
	add         x8,x8,#0x3C
	ldrh        w8,[x8]
	mov         w8,w8
	sxtw        x9,w8
	ldr         x8,[sp,#8]
	add         x8,x8,x9
	str         x8,[sp,#0x10]

; 251  : 
; 252  : 	if (IMAGE_DATA_DIRECTORY_IMPORT + 1 > nt_headers->OptionalHeader.NumberOfRvaAndSizes)

	ldr         x8,[sp,#0x10]
	add         x8,x8,#0x84
	ldr         w9,[x8]
	mov         w8,#2
	cmp         w8,w9
	bls         |$LN2@AuPEFileIs|

; 253  : 		return false;

	mov         w0,#0
	b           |$LN1@AuPEFileIs|
|$LN2@AuPEFileIs|

; 254  : 	IMAGE_DATA_DIRECTORY* datadir = &nt_headers->OptionalHeader.DataDirectory[IMAGE_DATA_DIRECTORY_IMPORT];

	ldr         x8,[sp,#0x10]
	add         x8,x8,#0x90
	str         x8,[sp]

; 255  : 	UARTDebugOut("data dir va = %d , size = %d \r\n", datadir->VirtualAddress, datadir->Size);

	ldr         x8,[sp]
	add         x9,x8,#4
	ldr         x8,[sp]
	ldr         w2,[x9]
	ldr         w1,[x8]
	adrp        x8,|$SG2994|
	add         x0,x8,PageOffset(|$SG2994|)
	bl          UARTDebugOut

; 256  : 	if (datadir->VirtualAddress == 0 || datadir->Size == 0)

	ldr         x8,[sp]
	ldr         w8,[x8]
	cmp         w8,#0
	beq         |$LN4@AuPEFileIs|
	ldr         x8,[sp]
	add         x8,x8,#4
	ldr         w8,[x8]
	cmp         w8,#0
	bne         |$LN3@AuPEFileIs|
|$LN4@AuPEFileIs|

; 257  : 		return false;

	mov         w0,#0
	b           |$LN1@AuPEFileIs|
|$LN3@AuPEFileIs|

; 258  : 
; 259  : 	PIMAGE_IMPORT_DIRECTORY importdir = RAW_OFFSET(PIMAGE_IMPORT_DIRECTORY,imageAligned, datadir->VirtualAddress);

	ldr         x8,[sp]
	ldr         w8,[x8]
	uxtw        x9,w8
	ldr         x8,[sp,#0x18]
	add         x8,x8,x9
	str         x8,[sp,#0x28]

; 260  : 	return true;

	mov         w0,#1
|$LN1@AuPEFileIs|
	add         sp,sp,#0x30
	ldr         lr,[sp],#0x10
	ret

	ENDP  ; |AuPEFileIsDynamicallyLinked|

; Function compile flags: /Odtpy
; File C:\Users\paras\source\repos\grep-name\XenevaOS\KernelAA64\pe.c

	AREA	|.text$mn|, CODE, ARM64

|AuKernelRelocatePE| PROC

; 190  : void AuKernelRelocatePE(void* image, PIMAGE_NT_HEADERS nt, int diff) {

|$LN35|
	sub         sp,sp,#0x60
	str         x0,[sp,#0x50]
	str         x1,[sp,#0x40]
	str         w2,[sp,#4]

; 191  : 	if (!diff)

	ldr         w8,[sp,#4]
	cmp         w8,#0
	bne         |$LN9@AuKernelRe|

; 192  : 		return;

	b           |$LN1@AuKernelRe|
|$LN9@AuKernelRe|

; 193  : 	if ((nt->OptionalHeader.DllCharacteristics & IMAGE_DLL_CHARACTERISTICS_DYNAMIC_BASE) == 0)

	ldr         x8,[sp,#0x40]
	add         x8,x8,#0x5E
	ldrh        w8,[x8]
	mov         w8,w8
	tbnz        x8,#6,|$LN10@AuKernelRe|

; 194  : 		return;

	b           |$LN1@AuKernelRe|
|$LN10@AuKernelRe|

; 195  : 	if (IMAGE_DATA_DIRECTORY_RELOC + 1 > nt->OptionalHeader.NumberOfRvaAndSizes)

	ldr         x8,[sp,#0x40]
	add         x8,x8,#0x84
	ldr         w9,[x8]
	mov         w8,#6
	cmp         w8,w9
	bls         |$LN11@AuKernelRe|

; 196  : 		return;

	b           |$LN1@AuKernelRe|
|$LN11@AuKernelRe|

; 197  : 	IMAGE_DATA_DIRECTORY data_dir = nt->OptionalHeader.DataDirectory[IMAGE_DATA_DIRECTORY_RELOC];

	ldr         x8,[sp,#0x40]
	add         x8,x8,#0xB0
	add         x9,sp,#0x58
	ldr         x8,[x8]
	str         x8,[x9]
	add         x9,sp,#0x30
	add         x8,sp,#0x58
	ldr         x8,[x8]
	str         x8,[x9]

; 198  : 	if (data_dir.VirtualAddress == 0 || data_dir.Size == 0)

	ldr         w8,[sp,#0x30]
	cmp         w8,#0
	beq         |$LN13@AuKernelRe|
	ldr         w8,[sp,#0x34]
	cmp         w8,#0
	bne         |$LN12@AuKernelRe|
|$LN13@AuKernelRe|

; 199  : 		return;

	b           |$LN1@AuKernelRe|
|$LN12@AuKernelRe|

; 200  : 
; 201  : 	PIMAGE_RELOCATION_BLOCK reloc_table = RAW_OFFSET(PIMAGE_RELOCATION_BLOCK,image, data_dir.VirtualAddress);

	ldr         w8,[sp,#0x30]
	uxtw        x9,w8
	ldr         x8,[sp,#0x50]
	add         x8,x8,x9
	str         x8,[sp,#0x48]

; 202  : 	PIMAGE_RELOCATION_BLOCK cur_block = reloc_table;

	ldr         x8,[sp,#0x48]
	str         x8,[sp,#0x20]
|$LN2@AuKernelRe|

; 203  : 
; 204  : 	while (RAW_DIFF(cur_block, reloc_table) < data_dir.Size) {

	ldr         x8,[sp,#0x20]
	mov         w9,w8
	ldr         x8,[sp,#0x48]
	mov         w8,w8
	sub         w9,w9,w8
	ldr         w8,[sp,#0x34]
	cmp         w9,w8
	bhs         |$LN3@AuKernelRe|

; 205  : 		uint32_t entries = (cur_block->BlockSize - 8) / 2;

	ldr         x8,[sp,#0x20]
	add         x8,x8,#4
	ldr         w8,[x8]
	sub         w9,w8,#8
	mov         w8,#2
	udiv        w8,w9,w8
	str         w8,[sp,#0x38]

; 206  : 		for (uint32_t i = 0; i < entries; ++i) {

	mov         w8,#0
	str         w8,[sp,#8]
	b           |$LN6@AuKernelRe|
|$LN4@AuKernelRe|
	ldr         w8,[sp,#8]
	add         w8,w8,#1
	str         w8,[sp,#8]
|$LN6@AuKernelRe|
	ldr         w9,[sp,#0x38]
	ldr         w8,[sp,#8]
	cmp         w8,w9
	bhs         |$LN5@AuKernelRe|

; 207  : 			IMAGE_RELOCATION_ENTRY entry = cur_block->entries[i];

	ldr         x8,[sp,#0x20]
	add         x10,x8,#8
	ldr         w8,[sp,#8]
	uxtw        x9,w8
	mov         x8,#2
	mul         x8,x9,x8
	add         x8,x10,x8
	add         x9,sp,#0x18
	ldrsh       w8,[x8]
	strh        w8,[x9]
	mov         x9,sp
	add         x8,sp,#0x18
	ldrsh       w8,[x8]
	strh        w8,[x9]

; 208  : 			uint16_t type = entry.type;

	ldrh        w8,[sp]
	ubfx        w8,w8,#0xC,#4
	strh        w8,[sp,#0x1A]

; 209  : 			void* relocitem = RAW_OFFSET(void*,image, entry.offset + cur_block->PageRVA);

	ldrh        w8,[sp]
	and         w8,w8,#0xFFF
	uxth        w8,w8
	mov         w8,w8
	sxtw        x9,w8
	ldr         x8,[sp,#0x50]
	add         x9,x8,x9
	ldr         x8,[sp,#0x20]
	ldr         w8,[x8]
	uxtw        x8,w8
	add         x8,x9,x8
	str         x8,[sp,#0x10]

; 210  : 			switch (type) {

	ldrh        w8,[sp,#0x1A]
	mov         w8,w8
	str         w8,[sp,#0x28]
	ldr         w8,[sp,#0x28]
	cmp         w8,#0xA
	bhi         |$LN20@AuKernelRe|
	ldr         w10,[sp,#0x28]
	adr         x9,__swt
	ldrsb       x8,[x9,w10 uxtw #0]
	add         x8,x9,x8,lsl #2
	br          x8
|$LN14@AuKernelRe|

; 211  : 			case IMAGE_REL_BASED_ABSOLUTE:
; 212  : 				break;

	b           |$LN7@AuKernelRe|
|$LN15@AuKernelRe|

; 213  : 			case IMAGE_REL_BASED_HIGH:
; 214  : 				*(uint16_t*)relocitem += (diff >> 16) & UINT16_MAX;

	ldr         w8,[sp,#4]
	asr         w8,w8,#0x10
	and         w9,w8,#0xFFFF
	ldr         x8,[sp,#0x10]
	ldrh        w8,[x8]
	mov         w8,w8
	add         w8,w8,w9
	uxth        w9,w8
	ldr         x8,[sp,#0x10]
	strh        w9,[x8]

; 215  : 				break;

	b           |$LN7@AuKernelRe|
|$LN16@AuKernelRe|

; 216  : 			case IMAGE_REL_BASED_LOW:
; 217  : 				*(uint16_t*)relocitem += (diff & UINT16_MAX);

	ldr         w8,[sp,#4]
	and         w9,w8,#0xFFFF
	ldr         x8,[sp,#0x10]
	ldrh        w8,[x8]
	mov         w8,w8
	add         w8,w8,w9
	uxth        w9,w8
	ldr         x8,[sp,#0x10]
	strh        w9,[x8]

; 218  : 				break;

	b           |$LN7@AuKernelRe|
|$LN17@AuKernelRe|

; 219  : 			case IMAGE_REL_BASED_HIGHLOW:
; 220  : 				*(uint32_t*)relocitem += (diff & UINT32_MAX);

	ldr         x8,[sp,#0x10]
	ldr         w9,[x8]
	ldr         w8,[sp,#4]
	add         w9,w9,w8
	ldr         x8,[sp,#0x10]
	str         w9,[x8]

; 221  : 				break;

	b           |$LN7@AuKernelRe|

; 222  : 			case IMAGE_REL_BASED_HIGHADJ:
; 223  : 				return;

	b           |$LN1@AuKernelRe|

; 224  : 				break;

	b           |$LN7@AuKernelRe|
|$LN19@AuKernelRe|

; 225  : 			case IMAGE_REL_BASED_DIR64:
; 226  : 				*(uint64_t*)relocitem += (diff & UINT32_MAX);

	ldr         w8,[sp,#4]
	uxtw        x9,w8
	ldr         x8,[sp,#0x10]
	ldr         x8,[x8]
	add         x9,x8,x9
	ldr         x8,[sp,#0x10]
	str         x9,[x8]

; 227  : 				//SeTextOut("Relocating executable dir64 %x\r\n", *reinterpret_cast<uint64_t*>(relocitem));
; 228  : 				break;

	b           |$LN7@AuKernelRe|
|$LN20@AuKernelRe|

; 229  : 			default:
; 230  : 				return;

	b           |$LN1@AuKernelRe|
|$LN7@AuKernelRe|

; 231  : 				break;
; 232  : 			}
; 233  : 
; 234  : 		}

	b           |$LN4@AuKernelRe|
|$LN5@AuKernelRe|

; 235  : 
; 236  : 		uint32_t next_off = DIV_ROUND_UP(cur_block->BlockSize, 4) * 4;

	ldr         x8,[sp,#0x20]
	add         x8,x8,#4
	ldr         w8,[x8]
	add         w8,w8,#4
	sub         w9,w8,#1
	mov         w8,#4
	udiv        w9,w9,w8
	mov         w8,#4
	mul         w8,w9,w8
	str         w8,[sp,#0x3C]

; 237  : 		cur_block = RAW_OFFSET(PIMAGE_RELOCATION_BLOCK,cur_block, next_off);

	ldr         w8,[sp,#0x3C]
	uxtw        x9,w8
	ldr         x8,[sp,#0x20]
	add         x8,x8,x9
	str         x8,[sp,#0x20]

; 238  : 	}

	b           |$LN2@AuKernelRe|
|$LN3@AuKernelRe|
|$LN1@AuKernelRe|
	add         sp,sp,#0x60
	ret
|__swt|
|$LN23@AuKernelRe|

; 210  : 			switch (type) {

	DCB         0xc5
|$LN24@AuKernelRe|
	DCB         0xc6
|$LN25@AuKernelRe|
	DCB         0xd1
|$LN26@AuKernelRe|
	DCB         0xdb
|$LN27@AuKernelRe|
	DCB         0xec
|$LN28@AuKernelRe|
	DCB         0xec
|$LN29@AuKernelRe|
	DCB         0xec
|$LN30@AuKernelRe|
	DCB         0xec
|$LN31@AuKernelRe|
	DCB         0xec
|$LN32@AuKernelRe|
	DCB         0xec
|$LN33@AuKernelRe|
	DCB         0xe4
|$LN34@AuKernelRe|
	DCB         0xe4

	ENDP  ; |AuKernelRelocatePE|

; Function compile flags: /Odtpy
; File C:\Users\paras\source\repos\grep-name\XenevaOS\KernelAA64\pe.c

	AREA	|.text$mn|, CODE, ARM64

|AuKernelLinkImports| PROC

; 128  : void AuKernelLinkImports(void* image) {

|$LN11|
	str         lr,[sp,#-0x10]!
	sub         sp,sp,#0x70
	str         x0,[sp,#0x58]

; 129  : 	void* keaddr = (void*)0xFFFFC00000000000;

	mov         x8,#-0x400000000000
	str         x8,[sp,#0x38]

; 130  : 	uint8_t* imageAligned = (uint8_t*)keaddr;

	ldr         x8,[sp,#0x38]
	str         x8,[sp,#8]

; 131  : 	PIMAGE_DOS_HEADER dos_header = (PIMAGE_DOS_HEADER)imageAligned;

	ldr         x8,[sp,#8]
	str         x8,[sp,#0x28]

; 132  : 	PIMAGE_NT_HEADERS nt_headers = RAW_OFFSET(PIMAGE_NT_HEADERS,dos_header, dos_header->e_lfanew);

	ldr         x8,[sp,#0x28]
	add         x8,x8,#0x3C
	ldrh        w8,[x8]
	mov         w8,w8
	sxtw        x9,w8
	ldr         x8,[sp,#0x28]
	add         x8,x8,x9
	str         x8,[sp,#0x30]

; 133  : 	if (IMAGE_DATA_DIRECTORY_IMPORT + 1 > nt_headers->OptionalHeader.NumberOfRvaAndSizes)

	ldr         x8,[sp,#0x30]
	add         x8,x8,#0x84
	ldr         w9,[x8]
	mov         w8,#2
	cmp         w8,w9
	bls         |$LN7@AuKernelLi|

; 134  : 		return;

	b           |$LN1@AuKernelLi|
|$LN7@AuKernelLi|

; 135  : 	IMAGE_DATA_DIRECTORY datadir = nt_headers->OptionalHeader.DataDirectory[IMAGE_DATA_DIRECTORY_IMPORT];

	ldr         x8,[sp,#0x30]
	add         x8,x8,#0x90
	add         x9,sp,#0x40
	ldr         x8,[x8]
	str         x8,[x9]
	add         x9,sp,#0x18
	add         x8,sp,#0x40
	ldr         x8,[x8]
	str         x8,[x9]

; 136  : 	if (datadir.VirtualAddress == 0 || datadir.Size == 0)

	ldr         w8,[sp,#0x18]
	cmp         w8,#0
	beq         |$LN9@AuKernelLi|
	ldr         w8,[sp,#0x1C]
	cmp         w8,#0
	bne         |$LN8@AuKernelLi|
|$LN9@AuKernelLi|

; 137  : 		return;

	b           |$LN1@AuKernelLi|
|$LN8@AuKernelLi|

; 138  : 
; 139  : 	PIMAGE_IMPORT_DIRECTORY importdir = RAW_OFFSET(PIMAGE_IMPORT_DIRECTORY,imageAligned, datadir.VirtualAddress);

	ldr         w8,[sp,#0x18]
	uxtw        x9,w8
	ldr         x8,[sp,#8]
	add         x8,x8,x9
	str         x8,[sp,#0x20]

; 140  : 	for (size_t n = 0; importdir[n].ThunkTableRva; ++n) {

	mov         x8,#0
	str         x8,[sp]
	b           |$LN4@AuKernelLi|
|$LN2@AuKernelLi|
	ldr         x8,[sp]
	add         x8,x8,#1
	str         x8,[sp]
|$LN4@AuKernelLi|
	ldr         x9,[sp]
	mov         x8,#0x14
	mul         x9,x9,x8
	ldr         x8,[sp,#0x20]
	add         x8,x8,x9
	add         x8,x8,#0x10
	ldr         w8,[x8]
	cmp         w8,#0
	beq         |$LN3@AuKernelLi|

; 141  : 		const char* func = RAW_OFFSET(const char*,imageAligned, importdir[n].NameRva);

	ldr         x9,[sp]
	mov         x8,#0x14
	mul         x9,x9,x8
	ldr         x8,[sp,#0x20]
	add         x8,x8,x9
	add         x8,x8,#0xC
	ldr         w8,[x8]
	uxtw        x9,w8
	ldr         x8,[sp,#8]
	add         x8,x8,x9
	str         x8,[sp,#0x68]

; 142  : 		PIMAGE_IMPORT_LOOKUP_TABLE_PE32P iat = RAW_OFFSET(PIMAGE_IMPORT_LOOKUP_TABLE_PE32P,imageAligned, importdir[n].ThunkTableRva);

	ldr         x9,[sp]
	mov         x8,#0x14
	mul         x9,x9,x8
	ldr         x8,[sp,#0x20]
	add         x8,x8,x9
	add         x8,x8,#0x10
	ldr         w8,[x8]
	uxtw        x9,w8
	ldr         x8,[sp,#8]
	add         x8,x8,x9
	str         x8,[sp,#0x10]
|$LN5@AuKernelLi|

; 143  : 		while (*iat) {

	ldr         x8,[sp,#0x10]
	ldr         x8,[x8]
	cmp         x8,#0
	beq         |$LN6@AuKernelLi|

; 144  : 			PIMAGE_IMPORT_HINT_TABLE hint = RAW_OFFSET(PIMAGE_IMPORT_HINT_TABLE,imageAligned, *iat);

	ldr         x9,[sp,#8]
	ldr         x8,[sp,#0x10]
	ldr         x8,[x8]
	add         x8,x9,x8
	str         x8,[sp,#0x48]

; 145  : 			const char* fname = hint->name;

	ldr         x8,[sp,#0x48]
	add         x8,x8,#2
	str         x8,[sp,#0x50]

; 146  : 			//AuTextOut("Imports -> %s \n", fname);
; 147  : 			void* procaddr = AuGetProcAddress((void*)image, fname);

	ldr         x1,[sp,#0x50]
	ldr         x0,[sp,#0x58]
	bl          AuGetProcAddress
	str         x0,[sp,#0x60]

; 148  : 			*iat = (uint64_t)procaddr;

	ldr         x9,[sp,#0x10]
	ldr         x8,[sp,#0x60]
	str         x8,[x9]

; 149  : 			++iat;

	ldr         x8,[sp,#0x10]
	add         x8,x8,#8
	str         x8,[sp,#0x10]

; 150  : 		}

	b           |$LN5@AuKernelLi|
|$LN6@AuKernelLi|

; 151  : 	}

	b           |$LN2@AuKernelLi|
|$LN3@AuKernelLi|
|$LN1@AuKernelLi|
	add         sp,sp,#0x70
	ldr         lr,[sp],#0x10
	ret

	ENDP  ; |AuKernelLinkImports|

; Function compile flags: /Odtpy
; File C:\Users\paras\source\repos\grep-name\XenevaOS\KernelAA64\pe.c

	AREA	|.text$mn|, CODE, ARM64

|AuPEPrintExports| PROC

; 75   : void AuPEPrintExports(void* image) {

|$LN9|
	str         lr,[sp,#-0x10]!
	sub         sp,sp,#0x60
	str         x0,[sp,#8]

; 76   : 
; 77   : 	PIMAGE_DOS_HEADER dos_header = (PIMAGE_DOS_HEADER)image;

	ldr         x8,[sp,#8]
	str         x8,[sp,#0x20]

; 78   : 	PIMAGE_NT_HEADERS ntHeaders = RAW_OFFSET(PIMAGE_NT_HEADERS,dos_header, dos_header->e_lfanew);

	ldr         x8,[sp,#0x20]
	add         x8,x8,#0x3C
	ldrh        w8,[x8]
	mov         w8,w8
	sxtw        x9,w8
	ldr         x8,[sp,#0x20]
	add         x8,x8,x9
	str         x8,[sp,#0x28]

; 79   : 	if (IMAGE_DATA_DIRECTORY_EXPORT + 1 > ntHeaders->OptionalHeader.NumberOfRvaAndSizes)

	ldr         x8,[sp,#0x28]
	add         x8,x8,#0x84
	ldr         w9,[x8]
	mov         w8,#1
	cmp         w8,w9
	bls         |$LN5@AuPEPrintE|

; 80   : 		return;

	b           |$LN1@AuPEPrintE|
|$LN5@AuPEPrintE|

; 81   : 	IMAGE_DATA_DIRECTORY datadir = ntHeaders->OptionalHeader.DataDirectory[IMAGE_DATA_DIRECTORY_EXPORT];

	ldr         x8,[sp,#0x28]
	add         x8,x8,#0x88
	add         x9,sp,#0x30
	ldr         x8,[x8]
	str         x8,[x9]
	add         x9,sp,#0x18
	add         x8,sp,#0x30
	ldr         x8,[x8]
	str         x8,[x9]

; 82   : 	if (datadir.VirtualAddress == 0 || datadir.Size == 0)

	ldr         w8,[sp,#0x18]
	cmp         w8,#0
	beq         |$LN7@AuPEPrintE|
	ldr         w8,[sp,#0x1C]
	cmp         w8,#0
	bne         |$LN6@AuPEPrintE|
|$LN7@AuPEPrintE|

; 83   : 		return;

	b           |$LN1@AuPEPrintE|
|$LN6@AuPEPrintE|

; 84   : 	PIMAGE_EXPORT_DIRECTORY exportdir = RAW_OFFSET(PIMAGE_EXPORT_DIRECTORY,image, datadir.VirtualAddress);

	ldr         w8,[sp,#0x18]
	uxtw        x9,w8
	ldr         x8,[sp,#8]
	add         x8,x8,x9
	str         x8,[sp,#0x10]

; 85   : 	uint32_t* FuntionNameAddressArray = RAW_OFFSET(uint32_t*,image, exportdir->AddressOfNames);

	ldr         x8,[sp,#0x10]
	add         x8,x8,#0x20
	ldr         w8,[x8]
	uxtw        x9,w8
	ldr         x8,[sp,#8]
	add         x8,x8,x9
	str         x8,[sp,#0x38]

; 86   : 	uint16_t* FunctionOrdinalAddressArray = RAW_OFFSET(uint16_t*,image, exportdir->AddressOfNameOrdinal);

	ldr         x8,[sp,#0x10]
	add         x8,x8,#0x24
	ldr         w8,[x8]
	uxtw        x9,w8
	ldr         x8,[sp,#8]
	add         x8,x8,x9
	str         x8,[sp,#0x48]

; 87   : 	uint32_t* FunctionAddressArray = RAW_OFFSET(uint32_t*,image, exportdir->AddressOfFunctions);

	ldr         x8,[sp,#0x10]
	add         x8,x8,#0x1C
	ldr         w8,[x8]
	uxtw        x9,w8
	ldr         x8,[sp,#8]
	add         x8,x8,x9
	str         x8,[sp,#0x50]

; 88   : 
; 89   : 	for (int i = 0; i < exportdir->NumberOfNames; i++) {

	mov         w8,#0
	str         w8,[sp]
	b           |$LN4@AuPEPrintE|
|$LN2@AuPEPrintE|
	ldr         w8,[sp]
	add         w8,w8,#1
	str         w8,[sp]
|$LN4@AuPEPrintE|
	ldr         x8,[sp,#0x10]
	add         x8,x8,#0x18
	ldr         w9,[x8]
	ldr         w8,[sp]
	cmp         w8,w9
	bhs         |$LN3@AuPEPrintE|

; 90   : 
; 91   : 		char* function_name = RAW_OFFSET(char*,image, FuntionNameAddressArray[i]);

	ldr         w8,[sp]
	sxtw        x9,w8
	mov         x8,#4
	mul         x9,x9,x8
	ldr         x8,[sp,#0x38]
	add         x8,x8,x9
	ldr         w8,[x8]
	uxtw        x9,w8
	ldr         x8,[sp,#8]
	add         x8,x8,x9
	str         x8,[sp,#0x40]

; 92   : 		AuTextOut("Fname -> %s \n", function_name);

	ldr         x1,[sp,#0x40]
	adrp        x8,|$SG2857|
	add         x0,x8,PageOffset(|$SG2857|)
	bl          AuTextOut

; 93   : 	}

	b           |$LN2@AuPEPrintE|
|$LN3@AuPEPrintE|
|$LN1@AuPEPrintE|
	add         sp,sp,#0x60
	ldr         lr,[sp],#0x10
	ret

	ENDP  ; |AuPEPrintExports|

; Function compile flags: /Odtpy
; File C:\Users\paras\source\repos\grep-name\XenevaOS\KernelAA64\pe.c

	AREA	|.text$mn|, CODE, ARM64

|AuKernelLinkDLL| PROC

; 99   : void AuKernelLinkDLL(void* image) {

|$LN11|
	str         lr,[sp,#-0x10]!
	sub         sp,sp,#0x70
	str         x0,[sp,#0x28]

; 100  : 	uint8_t* imageAligned = (uint8_t*)image;

	ldr         x8,[sp,#0x28]
	str         x8,[sp,#0x20]

; 101  : 	PIMAGE_DOS_HEADER dos_header = (PIMAGE_DOS_HEADER)imageAligned;

	ldr         x8,[sp,#0x20]
	str         x8,[sp,#0x30]

; 102  : 	PIMAGE_NT_HEADERS nt_headers = RAW_OFFSET(PIMAGE_NT_HEADERS,dos_header, dos_header->e_lfanew);

	ldr         x8,[sp,#0x30]
	add         x8,x8,#0x3C
	ldrh        w8,[x8]
	mov         w8,w8
	sxtw        x9,w8
	ldr         x8,[sp,#0x30]
	add         x8,x8,x9
	str         x8,[sp,#0x38]

; 103  : 	if (IMAGE_DATA_DIRECTORY_IMPORT + 1 > nt_headers->OptionalHeader.NumberOfRvaAndSizes)

	ldr         x8,[sp,#0x38]
	add         x8,x8,#0x84
	ldr         w9,[x8]
	mov         w8,#2
	cmp         w8,w9
	bls         |$LN7@AuKernelLi|

; 104  : 		return;

	b           |$LN1@AuKernelLi|
|$LN7@AuKernelLi|

; 105  : 	IMAGE_DATA_DIRECTORY datadir = nt_headers->OptionalHeader.DataDirectory[IMAGE_DATA_DIRECTORY_IMPORT];

	ldr         x8,[sp,#0x38]
	add         x8,x8,#0x90
	add         x9,sp,#0x40
	ldr         x8,[x8]
	str         x8,[x9]
	add         x9,sp,#0x10
	add         x8,sp,#0x40
	ldr         x8,[x8]
	str         x8,[x9]

; 106  : 	if (datadir.VirtualAddress == 0 || datadir.Size == 0) {

	ldr         w8,[sp,#0x10]
	cmp         w8,#0
	beq         |$LN9@AuKernelLi|
	ldr         w8,[sp,#0x14]
	cmp         w8,#0
	bne         |$LN8@AuKernelLi|
|$LN9@AuKernelLi|

; 107  : 		return;

	b           |$LN1@AuKernelLi|
|$LN8@AuKernelLi|

; 108  : 	}
; 109  : 	PIMAGE_IMPORT_DIRECTORY importdir = RAW_OFFSET(PIMAGE_IMPORT_DIRECTORY,imageAligned, datadir.VirtualAddress);

	ldr         w8,[sp,#0x10]
	uxtw        x9,w8
	ldr         x8,[sp,#0x20]
	add         x8,x8,x9
	str         x8,[sp,#0x18]

; 110  : 	for (size_t n = 0; importdir[n].ThunkTableRva; ++n) {

	mov         x8,#0
	str         x8,[sp]
	b           |$LN4@AuKernelLi|
|$LN2@AuKernelLi|
	ldr         x8,[sp]
	add         x8,x8,#1
	str         x8,[sp]
|$LN4@AuKernelLi|
	ldr         x9,[sp]
	mov         x8,#0x14
	mul         x9,x9,x8
	ldr         x8,[sp,#0x18]
	add         x8,x8,x9
	add         x8,x8,#0x10
	ldr         w8,[x8]
	cmp         w8,#0
	beq         |$LN3@AuKernelLi|

; 111  : 		const char* func = RAW_OFFSET(const char*,image, importdir[n].NameRva);

	ldr         x9,[sp]
	mov         x8,#0x14
	mul         x9,x9,x8
	ldr         x8,[sp,#0x18]
	add         x8,x8,x9
	add         x8,x8,#0xC
	ldr         w8,[x8]
	uxtw        x9,w8
	ldr         x8,[sp,#0x28]
	add         x8,x8,x9
	str         x8,[sp,#0x60]

; 112  : 		PIMAGE_IMPORT_LOOKUP_TABLE_PE32P iat = RAW_OFFSET(PIMAGE_IMPORT_LOOKUP_TABLE_PE32P,imageAligned, importdir[n].ThunkTableRva);

	ldr         x9,[sp]
	mov         x8,#0x14
	mul         x9,x9,x8
	ldr         x8,[sp,#0x18]
	add         x8,x8,x9
	add         x8,x8,#0x10
	ldr         w8,[x8]
	uxtw        x9,w8
	ldr         x8,[sp,#0x20]
	add         x8,x8,x9
	str         x8,[sp,#8]
|$LN5@AuKernelLi|

; 113  : 		while (*iat) {

	ldr         x8,[sp,#8]
	ldr         x8,[x8]
	cmp         x8,#0
	beq         |$LN6@AuKernelLi|

; 114  : 			PIMAGE_IMPORT_HINT_TABLE hint = RAW_OFFSET(PIMAGE_IMPORT_HINT_TABLE,image, *iat);

	ldr         x9,[sp,#0x28]
	ldr         x8,[sp,#8]
	ldr         x8,[x8]
	add         x8,x9,x8
	str         x8,[sp,#0x48]

; 115  : 			const char* fname = hint->name;

	ldr         x8,[sp,#0x48]
	add         x8,x8,#2
	str         x8,[sp,#0x50]

; 116  : 			void* procaddr = AuGetProcAddress((void*)0xFFFFC00000000000, fname);

	ldr         x1,[sp,#0x50]
	mov         x0,#-0x400000000000
	bl          AuGetProcAddress
	str         x0,[sp,#0x58]

; 117  : 			*iat = (uint64_t)procaddr;

	ldr         x9,[sp,#8]
	ldr         x8,[sp,#0x58]
	str         x8,[x9]

; 118  : 			++iat;

	ldr         x8,[sp,#8]
	add         x8,x8,#8
	str         x8,[sp,#8]

; 119  : 		}

	b           |$LN5@AuKernelLi|
|$LN6@AuKernelLi|

; 120  : 	}

	b           |$LN2@AuKernelLi|
|$LN3@AuKernelLi|
|$LN1@AuKernelLi|
	add         sp,sp,#0x70
	ldr         lr,[sp],#0x10
	ret

	ENDP  ; |AuKernelLinkDLL|

; Function compile flags: /Odtpy
; File C:\Users\paras\source\repos\grep-name\XenevaOS\KernelAA64\pe.c

	AREA	|.text$mn|, CODE, ARM64

|AuGetProcAddress| PROC

; 45   : void* AuGetProcAddress(void* image, const char* procname) {

|$LN10|
	str         lr,[sp,#-0x10]!
	sub         sp,sp,#0x70
	str         x0,[sp,#8]
	str         x1,[sp,#0x48]

; 46   : 	IMAGE_DOS_HEADER* dos_header = (IMAGE_DOS_HEADER*)image;

	ldr         x8,[sp,#8]
	str         x8,[sp,#0x28]

; 47   : 	PIMAGE_NT_HEADERS ntHeaders = RAW_OFFSET(IMAGE_NT_HEADERS*,dos_header, dos_header->e_lfanew);

	ldr         x8,[sp,#0x28]
	add         x8,x8,#0x3C
	ldrh        w8,[x8]
	mov         w8,w8
	sxtw        x9,w8
	ldr         x8,[sp,#0x28]
	add         x8,x8,x9
	str         x8,[sp,#0x30]

; 48   : 	if (IMAGE_DATA_DIRECTORY_EXPORT + 1 > ntHeaders->OptionalHeader.NumberOfRvaAndSizes)

	ldr         x8,[sp,#0x30]
	add         x8,x8,#0x84
	ldr         w9,[x8]
	mov         w8,#1
	cmp         w8,w9
	bls         |$LN5@AuGetProcA|

; 49   : 		return NULL;

	mov         x0,#0
	b           |$LN1@AuGetProcA|
|$LN5@AuGetProcA|

; 50   : 	IMAGE_DATA_DIRECTORY datadir = ntHeaders->OptionalHeader.DataDirectory[IMAGE_DATA_DIRECTORY_EXPORT];

	ldr         x8,[sp,#0x30]
	add         x8,x8,#0x88
	add         x9,sp,#0x38
	ldr         x8,[x8]
	str         x8,[x9]
	add         x9,sp,#0x20
	add         x8,sp,#0x38
	ldr         x8,[x8]
	str         x8,[x9]

; 51   : 	if (datadir.VirtualAddress == 0 || datadir.Size == 0)

	ldr         w8,[sp,#0x20]
	cmp         w8,#0
	beq         |$LN7@AuGetProcA|
	ldr         w8,[sp,#0x24]
	cmp         w8,#0
	bne         |$LN6@AuGetProcA|
|$LN7@AuGetProcA|

; 52   : 		return NULL;

	mov         x0,#0
	b           |$LN1@AuGetProcA|
|$LN6@AuGetProcA|

; 53   : 	PIMAGE_EXPORT_DIRECTORY exportdir = RAW_OFFSET(PIMAGE_EXPORT_DIRECTORY,image, datadir.VirtualAddress);

	ldr         w8,[sp,#0x20]
	uxtw        x9,w8
	ldr         x8,[sp,#8]
	add         x8,x8,x9
	str         x8,[sp,#0x10]

; 54   : 	uint32_t* FuntionNameAddressArray = RAW_OFFSET(uint32_t*,image, exportdir->AddressOfNames);

	ldr         x8,[sp,#0x10]
	add         x8,x8,#0x20
	ldr         w8,[x8]
	uxtw        x9,w8
	ldr         x8,[sp,#8]
	add         x8,x8,x9
	str         x8,[sp,#0x40]

; 55   : 	uint16_t* FunctionOrdinalAddressArray = RAW_OFFSET(uint16_t*,image, exportdir->AddressOfNameOrdinal);

	ldr         x8,[sp,#0x10]
	add         x8,x8,#0x24
	ldr         w8,[x8]
	uxtw        x9,w8
	ldr         x8,[sp,#8]
	add         x8,x8,x9
	str         x8,[sp,#0x58]

; 56   : 	uint32_t* FunctionAddressArray = RAW_OFFSET(uint32_t*,image, exportdir->AddressOfFunctions);

	ldr         x8,[sp,#0x10]
	add         x8,x8,#0x1C
	ldr         w8,[x8]
	uxtw        x9,w8
	ldr         x8,[sp,#8]
	add         x8,x8,x9
	str         x8,[sp,#0x60]

; 57   : 
; 58   : 	for (int i = 0; i < exportdir->NumberOfNames; i++) {

	mov         w8,#0
	str         w8,[sp]
	b           |$LN4@AuGetProcA|
|$LN2@AuGetProcA|
	ldr         w8,[sp]
	add         w8,w8,#1
	str         w8,[sp]
|$LN4@AuGetProcA|
	ldr         x8,[sp,#0x10]
	add         x8,x8,#0x18
	ldr         w9,[x8]
	ldr         w8,[sp]
	cmp         w8,w9
	bhs         |$LN3@AuGetProcA|

; 59   : 
; 60   : 		char* function_name = RAW_OFFSET(char*,image, FuntionNameAddressArray[i]);

	ldr         w8,[sp]
	sxtw        x9,w8
	mov         x8,#4
	mul         x9,x9,x8
	ldr         x8,[sp,#0x40]
	add         x8,x8,x9
	ldr         w8,[x8]
	uxtw        x9,w8
	ldr         x8,[sp,#8]
	add         x8,x8,x9
	str         x8,[sp,#0x50]

; 61   : 		if (strcmp(function_name, procname) == 0) {

	ldr         x1,[sp,#0x48]
	ldr         x0,[sp,#0x50]
	bl          strcmp
	mov         w0,w0
	cmp         w0,#0
	bne         |$LN8@AuGetProcA|

; 62   : 			uint16_t ordinal = FunctionOrdinalAddressArray[i];

	ldr         w8,[sp]
	sxtw        x9,w8
	mov         x8,#2
	mul         x9,x9,x8
	ldr         x8,[sp,#0x58]
	add         x8,x8,x9
	ldrh        w8,[x8]
	strh        w8,[sp,#4]

; 63   : 			uint32_t FunctionAddress = FunctionAddressArray[ordinal];

	ldrh        w8,[sp,#4]
	mov         w9,w8
	mov         x8,#4
	mul         x9,x9,x8
	ldr         x8,[sp,#0x60]
	add         x8,x8,x9
	ldr         w8,[x8]
	str         w8,[sp,#0x18]

; 64   : 			return RAW_OFFSET(void*,image, FunctionAddress);

	ldr         w8,[sp,#0x18]
	uxtw        x9,w8
	ldr         x8,[sp,#8]
	add         x0,x8,x9
	b           |$LN1@AuGetProcA|
|$LN8@AuGetProcA|

; 65   : 		}
; 66   : 	}

	b           |$LN2@AuGetProcA|
|$LN3@AuGetProcA|

; 67   : 
; 68   : 	return NULL;

	mov         x0,#0
|$LN1@AuGetProcA|
	add         sp,sp,#0x70
	ldr         lr,[sp],#0x10
	ret

	ENDP  ; |AuGetProcAddress|

	END
