; Listing generated by Microsoft (R) Optimizing Compiler Version 19.29.30159.0 

	TTL	C:\Users\paras\source\repos\grep-name\XenevaOS\KernelAA64\ARM64\Debug\pipe.obj
	ARM64

	AREA	|.drectve|, DRECTVE


	AREA	|.data|, DATA
	 COMMON	|pipeFS|, 0x8

	EXPORT	|AuPipeUnread|
	EXPORT	|AuCreatePipe|
	EXPORT	|AuPipeFSAddFile|
	EXPORT	|AuPipeFSInitialise|
	EXPORT	|AuPipeGetAvailableBytes|
	EXPORT	|AuPipeIncrementRead|
	EXPORT	|AuPipeIncrementWrite|
	EXPORT	|AuPipeIncrementWriteAmount|
	EXPORT	|AuPipeRead|
	EXPORT	|AuPipeWrite|
	EXPORT	|AuPipeOpen|
	EXPORT	|AuPipeFSRemoveFile|
	EXPORT	|AuPipeClose|
	EXPORT	|AuPipeFSOpen|
	IMPORT	|initialize_list|
	IMPORT	|list_add|
	IMPORT	|list_remove|
	IMPORT	|list_get_at|
	IMPORT	|AuVFSAddFileSystem|
	IMPORT	|kmalloc|
	IMPORT	|kfree|
	IMPORT	|strcmp|
	IMPORT	|strcpy|
	IMPORT	|strchr|
	IMPORT	|memset|
	IMPORT	|AuGetCurrentThread|
	IMPORT	|AuProcessFindThread|
	IMPORT	|AuProcessFindSubThread|
	IMPORT	|AuProcessGetFileDesc|
	IMPORT	|UARTDebugOut|
	IMPORT	|AuTextOut|

	AREA	|.pdata|, PDATA
|$pdata$AuPipeUnread| DCD imagerel |$LN6|
	DCD	0x8000a9
	;Flags[SingleProEpi] functionLength[168] RegF[0] RegI[0] H[0] frameChainReturn[UnChained] frameSize[16]
|$pdata$AuCreatePipe| DCD imagerel |$LN7|
	DCD	0x2a002c5
	;Flags[SingleProEpi] functionLength[708] RegF[0] RegI[0] H[0] frameChainReturn[UnChainedSavedLR] frameSize[80]
|$pdata$AuPipeFSAddFile| DCD imagerel |$LN18|
	DCD	0x3a0021d
	;Flags[SingleProEpi] functionLength[540] RegF[0] RegI[0] H[0] frameChainReturn[UnChainedSavedLR] frameSize[112]
|$pdata$AuPipeFSInitialise| DCD imagerel |$LN3|
	DCD	0x12000c1
	;Flags[SingleProEpi] functionLength[192] RegF[0] RegI[0] H[0] frameChainReturn[UnChainedSavedLR] frameSize[32]
|$pdata$AuPipeGetAvailableBytes| DCD imagerel |$LN6|
	DCD	0x8000bd
	;Flags[SingleProEpi] functionLength[188] RegF[0] RegI[0] H[0] frameChainReturn[UnChained] frameSize[16]
|$pdata$AuPipeIncrementRead| DCD imagerel |$LN4|
	DCD	0x80005d
	;Flags[SingleProEpi] functionLength[92] RegF[0] RegI[0] H[0] frameChainReturn[UnChained] frameSize[16]
|$pdata$AuPipeIncrementWrite| DCD imagerel |$LN4|
	DCD	0x80005d
	;Flags[SingleProEpi] functionLength[92] RegF[0] RegI[0] H[0] frameChainReturn[UnChained] frameSize[16]
|$pdata$AuPipeIncrementWriteAmount| DCD imagerel |$LN3|
	DCD	0x800045
	;Flags[SingleProEpi] functionLength[68] RegF[0] RegI[0] H[0] frameChainReturn[UnChained] frameSize[16]
|$pdata$AuPipeRead| DCD imagerel |$LN9|
	DCD	0x2a000e9
	;Flags[SingleProEpi] functionLength[232] RegF[0] RegI[0] H[0] frameChainReturn[UnChainedSavedLR] frameSize[80]
|$pdata$AuPipeWrite| DCD imagerel |$LN8|
	DCD	0x2a000f1
	;Flags[SingleProEpi] functionLength[240] RegF[0] RegI[0] H[0] frameChainReturn[UnChainedSavedLR] frameSize[80]
|$pdata$AuPipeOpen| DCD imagerel |$LN3|
	DCD	0x1000045
	;Flags[SingleProEpi] functionLength[68] RegF[0] RegI[0] H[0] frameChainReturn[UnChained] frameSize[32]
|$pdata$AuPipeFSRemoveFile| DCD imagerel |$LN22|
	DCD	0x3a002c1
	;Flags[SingleProEpi] functionLength[704] RegF[0] RegI[0] H[0] frameChainReturn[UnChainedSavedLR] frameSize[112]
|$pdata$AuPipeClose| DCD imagerel |$LN4|
	DCD	0x1a000b5
	;Flags[SingleProEpi] functionLength[180] RegF[0] RegI[0] H[0] frameChainReturn[UnChainedSavedLR] frameSize[48]
|$pdata$AuPipeFSOpen| DCD imagerel |$LN21|
	DCD	0x3a00235
	;Flags[SingleProEpi] functionLength[564] RegF[0] RegI[0] H[0] frameChainReturn[UnChainedSavedLR] frameSize[112]

	AREA	|.data|, DATA
|$SG3334| DCB	"Creating PIPE ", 0xd, 0xa, 0x0
	%	7
|$SG3336| DCB	"creating pipe !currentThr", 0xd, 0xa, 0x0
|$SG3342| DCB	"/", 0x0
	%	2
|$SG3339| DCB	"!proc ", 0xd, 0xa, 0x0
	%	7
|$SG3341| DCB	"SZ == 0 ", 0xd, 0xa, 0x0
	%	5
|$SG3343| DCB	"[aurora]: pipe created : %d name: %s", 0xd, 0xa, 0x0
	%	1
|$SG3387| DCB	"pipe", 0x0
	%	3
|$SG3388| DCB	"[aurora]: pipefs mounted ", 0xd, 0xa, 0x0
; Function compile flags: /Odtpy
; File C:\Users\paras\source\repos\grep-name\XenevaOS\KernelAA64\Fs\pipe.c

	AREA	|.text$mn|, CODE, ARM64

|AuPipeFSOpen| PROC

; 357  : AuVFSNode* AuPipeFSOpen(AuVFSNode* fs, char* path) {

|$LN21|
	str         lr,[sp,#-0x10]!
	sub         sp,sp,#0x60
	str         x0,[sp,#0x30]
	str         x1,[sp,#0x38]

; 358  : 	AuVFSContainer* entries = (AuVFSContainer*)fs->device;

	ldr         x8,[sp,#0x30]
	add         x8,x8,#0x50
	ldr         x8,[x8]
	str         x8,[sp,#0x40]

; 359  : 	/* now verify the path and add the directory to the list */
; 360  : 	char* next = strchr(path, '/');

	mov         w1,#0x2F
	ldr         x0,[sp,#0x38]
	bl          strchr
	str         x0,[sp,#8]

; 361  : 	if (next)

	ldr         x8,[sp,#8]
	cmp         x8,#0
	beq         |$LN10@AuPipeFSOp|

; 362  : 		next++;

	ldr         x8,[sp,#8]
	add         x8,x8,#1
	str         x8,[sp,#8]
|$LN10@AuPipeFSOp|

; 363  : 
; 364  : 	AuVFSContainer* first_list = entries;

	ldr         x8,[sp,#0x40]
	str         x8,[sp,#0x20]

; 365  : 	AuVFSNode* node_to_ret = NULL;

	mov         x8,#0
	str         x8,[sp,#0x28]
|$LN2@AuPipeFSOp|

; 366  : 	while (next) {

	ldr         x8,[sp,#8]
	cmp         x8,#0
	beq         |$LN3@AuPipeFSOp|

; 367  : 		char pathname[16];
; 368  : 		int i;
; 369  : 		for (i = 0; i < 16; i++) {

	mov         w8,#0
	str         w8,[sp]
	b           |$LN6@AuPipeFSOp|
|$LN4@AuPipeFSOp|
	ldr         w8,[sp]
	add         w8,w8,#1
	str         w8,[sp]
|$LN6@AuPipeFSOp|
	ldr         w8,[sp]
	cmp         w8,#0x10
	bge         |$LN5@AuPipeFSOp|

; 370  : 			if (next[i] == '/' || next[i] == '\0')

	ldr         w8,[sp]
	sxtw        x9,w8
	mov         x8,#1
	mul         x9,x9,x8
	ldr         x8,[sp,#8]
	add         x8,x8,x9
	ldrsb       w8,[x8]
	mov         w8,w8
	cmp         w8,#0x2F
	beq         |$LN12@AuPipeFSOp|
	ldr         w8,[sp]
	sxtw        x9,w8
	mov         x8,#1
	mul         x9,x9,x8
	ldr         x8,[sp,#8]
	add         x8,x8,x9
	ldrsb       w8,[x8]
	mov         w8,w8
	cmp         w8,#0
	bne         |$LN11@AuPipeFSOp|
|$LN12@AuPipeFSOp|

; 371  : 				break;

	b           |$LN5@AuPipeFSOp|
|$LN11@AuPipeFSOp|

; 372  : 			pathname[i] = next[i];

	ldr         w8,[sp]
	sxtw        x9,w8
	mov         x8,#1
	mul         x9,x9,x8
	ldr         x8,[sp,#8]
	add         x10,x8,x9
	ldr         w8,[sp]
	sxtw        x9,w8
	mov         x8,#1
	mul         x9,x9,x8
	add         x8,sp,#0x48
	add         x9,x8,x9
	ldrsb       w8,[x10]
	strb        w8,[x9]

; 373  : 		}

	b           |$LN4@AuPipeFSOp|
|$LN5@AuPipeFSOp|

; 374  : 		pathname[i] = 0;

	ldr         w8,[sp]
	sxtw        x9,w8
	mov         x8,#1
	mul         x9,x9,x8
	add         x8,sp,#0x48
	add         x9,x8,x9
	mov         w8,#0
	strb        w8,[x9]

; 375  : 
; 376  : 		for (int j = 0; j < first_list->childs->pointer; j++) {

	mov         w8,#0
	str         w8,[sp,#0x10]
	b           |$LN9@AuPipeFSOp|
|$LN7@AuPipeFSOp|
	ldr         w8,[sp,#0x10]
	add         w8,w8,#1
	str         w8,[sp,#0x10]
|$LN9@AuPipeFSOp|
	ldr         x8,[sp,#0x20]
	ldr         x8,[x8]
	ldr         w9,[x8]
	ldr         w8,[sp,#0x10]
	cmp         w8,w9
	bhs         |$LN8@AuPipeFSOp|

; 377  : 			AuVFSNode* node_ = (AuVFSNode*)list_get_at(first_list->childs, j);

	ldr         x8,[sp,#0x20]
	ldr         w1,[sp,#0x10]
	ldr         x0,[x8]
	bl          list_get_at
	str         x0,[sp,#0x18]

; 378  : 			if (strcmp(node_->filename, pathname) == 0) {

	ldr         x0,[sp,#0x18]
	add         x1,sp,#0x48
	bl          strcmp
	mov         w0,w0
	cmp         w0,#0
	bne         |$LN13@AuPipeFSOp|

; 379  : 				if (node_->flags & FS_FLAG_DIRECTORY)

	ldr         x8,[sp,#0x18]
	add         x8,x8,#0x40
	ldrh        w8,[x8]
	mov         w8,w8
	tbz         x8,#1,|$LN14@AuPipeFSOp|

; 380  : 					first_list = (AuVFSContainer*)node_->device;

	ldr         x8,[sp,#0x18]
	add         x8,x8,#0x50
	ldr         x8,[x8]
	str         x8,[sp,#0x20]
	b           |$LN15@AuPipeFSOp|
|$LN14@AuPipeFSOp|

; 381  : 				else if (node_->flags & FS_FLAG_PIPE)

	ldr         x8,[sp,#0x18]
	add         x8,x8,#0x40
	ldrh        w8,[x8]
	mov         w8,w8
	tbz         x8,#7,|$LN16@AuPipeFSOp|

; 382  : 					node_to_ret = node_;

	ldr         x8,[sp,#0x18]
	str         x8,[sp,#0x28]
|$LN16@AuPipeFSOp|
|$LN15@AuPipeFSOp|
|$LN13@AuPipeFSOp|

; 383  : 			}
; 384  : 		}

	b           |$LN7@AuPipeFSOp|
|$LN8@AuPipeFSOp|

; 385  : 
; 386  : 		next = strchr(next + 1, '/');

	ldr         x8,[sp,#8]
	add         x0,x8,#1
	mov         w1,#0x2F
	bl          strchr
	str         x0,[sp,#8]

; 387  : 		if (next)

	ldr         x8,[sp,#8]
	cmp         x8,#0
	beq         |$LN17@AuPipeFSOp|

; 388  : 			next++;

	ldr         x8,[sp,#8]
	add         x8,x8,#1
	str         x8,[sp,#8]
|$LN17@AuPipeFSOp|

; 389  : 	}

	b           |$LN2@AuPipeFSOp|
|$LN3@AuPipeFSOp|

; 390  : 
; 391  : 	if (node_to_ret)

	ldr         x8,[sp,#0x28]
	cmp         x8,#0
	beq         |$LN18@AuPipeFSOp|

; 392  : 		return node_to_ret;

	ldr         x0,[sp,#0x28]
	b           |$LN1@AuPipeFSOp|
	b           |$LN19@AuPipeFSOp|
|$LN18@AuPipeFSOp|

; 393  : 	else
; 394  : 		return NULL;

	mov         x0,#0
|$LN19@AuPipeFSOp|
|$LN1@AuPipeFSOp|
	add         sp,sp,#0x60
	ldr         lr,[sp],#0x10
	ret

	ENDP  ; |AuPipeFSOpen|

; Function compile flags: /Odtpy
; File C:\Users\paras\source\repos\grep-name\XenevaOS\KernelAA64\Fs\pipe.c

	AREA	|.text$mn|, CODE, ARM64

|AuPipeClose| PROC

; 276  : int AuPipeClose(AuVFSNode* fs, AuVFSNode* file) {

|$LN4|
	str         lr,[sp,#-0x10]!
	sub         sp,sp,#0x20
	str         x0,[sp,#8]
	str         x1,[sp,#0x10]

; 277  : 	AuPipe* pipe = (AuPipe*)fs->device;

	ldr         x8,[sp,#8]
	add         x8,x8,#0x50
	ldr         x8,[x8]
	str         x8,[sp]

; 278  : 	pipe->refcount--;

	ldr         x8,[sp]
	add         x8,x8,#0x20
	ldr         x8,[x8]
	sub         x9,x8,#1
	ldr         x8,[sp]
	add         x8,x8,#0x20
	str         x9,[x8]

; 279  : 	if (pipe->refcount == 0) {

	ldr         x8,[sp]
	add         x8,x8,#0x20
	ldr         x8,[x8]
	cmp         x8,#0
	bne         |$LN2@AuPipeClos|

; 280  : 		kfree(pipe->buffer);

	ldr         x8,[sp]
	ldr         x0,[x8]
	bl          kfree

; 281  : 		kfree(pipe->readers_wait_queue);

	ldr         x8,[sp]
	add         x8,x8,#0x28
	ldr         x0,[x8]
	bl          kfree

; 282  : 		kfree(pipe->writers_wait_queue);

	ldr         x8,[sp]
	add         x8,x8,#0x30
	ldr         x0,[x8]
	bl          kfree

; 283  : 		kfree(pipe);

	ldr         x0,[sp]
	bl          kfree

; 284  : 		fs->device = NULL;

	ldr         x8,[sp,#8]
	add         x9,x8,#0x50
	mov         x8,#0
	str         x8,[x9]

; 285  : 		AuPipeFSRemoveFile(pipeFS, file->filename);

	ldr         x1,[sp,#0x10]
	adrp        x8,pipeFS
	ldr         x0,[x8,PageOffset(pipeFS)]
	bl          AuPipeFSRemoveFile
|$LN2@AuPipeClos|

; 286  : 	}
; 287  : 	return 1;

	mov         w0,#1
	add         sp,sp,#0x20
	ldr         lr,[sp],#0x10
	ret

	ENDP  ; |AuPipeClose|

; Function compile flags: /Odtpy
; File C:\Users\paras\source\repos\grep-name\XenevaOS\KernelAA64\Fs\pipe.c

	AREA	|.text$mn|, CODE, ARM64

|AuPipeFSRemoveFile| PROC

; 217  : int AuPipeFSRemoveFile(AuVFSNode* fs, char* path) {

|$LN22|
	str         lr,[sp,#-0x10]!
	sub         sp,sp,#0x60
	str         x0,[sp,#0x38]
	str         x1,[sp,#0x40]

; 218  : 	AuVFSContainer* entries = (AuVFSContainer*)fs->device;

	ldr         x8,[sp,#0x38]
	add         x8,x8,#0x50
	ldr         x8,[x8]
	str         x8,[sp,#0x48]

; 219  : 	/* now verify the path and add the directory to the list */
; 220  : 	char* next = strchr(path, '/');

	mov         w1,#0x2F
	ldr         x0,[sp,#0x40]
	bl          strchr
	str         x0,[sp,#8]

; 221  : 	if (next)

	ldr         x8,[sp,#8]
	cmp         x8,#0
	beq         |$LN10@AuPipeFSRe|

; 222  : 		next++;

	ldr         x8,[sp,#8]
	add         x8,x8,#1
	str         x8,[sp,#8]
|$LN10@AuPipeFSRe|

; 223  : 
; 224  : 	AuVFSContainer* first_list = entries;

	ldr         x8,[sp,#0x48]
	str         x8,[sp,#0x30]

; 225  : 	AuVFSNode* node_to_rem = NULL;

	mov         x8,#0
	str         x8,[sp,#0x18]

; 226  : 	int index = 0;

	mov         w8,#0
	str         w8,[sp,#0x20]
|$LN2@AuPipeFSRe|

; 227  : 	while (next) {

	ldr         x8,[sp,#8]
	cmp         x8,#0
	beq         |$LN3@AuPipeFSRe|

; 228  : 		char pathname[16];
; 229  : 		int i;
; 230  : 		for (i = 0; i < 16; i++) {

	mov         w8,#0
	str         w8,[sp]
	b           |$LN6@AuPipeFSRe|
|$LN4@AuPipeFSRe|
	ldr         w8,[sp]
	add         w8,w8,#1
	str         w8,[sp]
|$LN6@AuPipeFSRe|
	ldr         w8,[sp]
	cmp         w8,#0x10
	bge         |$LN5@AuPipeFSRe|

; 231  : 			if (next[i] == '/' || next[i] == '\0')

	ldr         w8,[sp]
	sxtw        x9,w8
	mov         x8,#1
	mul         x9,x9,x8
	ldr         x8,[sp,#8]
	add         x8,x8,x9
	ldrsb       w8,[x8]
	mov         w8,w8
	cmp         w8,#0x2F
	beq         |$LN12@AuPipeFSRe|
	ldr         w8,[sp]
	sxtw        x9,w8
	mov         x8,#1
	mul         x9,x9,x8
	ldr         x8,[sp,#8]
	add         x8,x8,x9
	ldrsb       w8,[x8]
	mov         w8,w8
	cmp         w8,#0
	bne         |$LN11@AuPipeFSRe|
|$LN12@AuPipeFSRe|

; 232  : 				break;

	b           |$LN5@AuPipeFSRe|
|$LN11@AuPipeFSRe|

; 233  : 			pathname[i] = next[i];

	ldr         w8,[sp]
	sxtw        x9,w8
	mov         x8,#1
	mul         x9,x9,x8
	ldr         x8,[sp,#8]
	add         x10,x8,x9
	ldr         w8,[sp]
	sxtw        x9,w8
	mov         x8,#1
	mul         x9,x9,x8
	add         x8,sp,#0x50
	add         x9,x8,x9
	ldrsb       w8,[x10]
	strb        w8,[x9]

; 234  : 		}

	b           |$LN4@AuPipeFSRe|
|$LN5@AuPipeFSRe|

; 235  : 		pathname[i] = 0;

	ldr         w8,[sp]
	sxtw        x9,w8
	mov         x8,#1
	mul         x9,x9,x8
	add         x8,sp,#0x50
	add         x9,x8,x9
	mov         w8,#0
	strb        w8,[x9]

; 236  : 
; 237  : 		for (int j = 0; j < first_list->childs->pointer; j++) {

	mov         w8,#0
	str         w8,[sp,#0x10]
	b           |$LN9@AuPipeFSRe|
|$LN7@AuPipeFSRe|
	ldr         w8,[sp,#0x10]
	add         w8,w8,#1
	str         w8,[sp,#0x10]
|$LN9@AuPipeFSRe|
	ldr         x8,[sp,#0x30]
	ldr         x8,[x8]
	ldr         w9,[x8]
	ldr         w8,[sp,#0x10]
	cmp         w8,w9
	bhs         |$LN8@AuPipeFSRe|

; 238  : 			AuVFSNode* node_ = (AuVFSNode*)list_get_at(first_list->childs, j);

	ldr         x8,[sp,#0x30]
	ldr         w1,[sp,#0x10]
	ldr         x0,[x8]
	bl          list_get_at
	str         x0,[sp,#0x28]

; 239  : 			if (strcmp(node_->filename, pathname) == 0) {

	ldr         x0,[sp,#0x28]
	add         x1,sp,#0x50
	bl          strcmp
	mov         w0,w0
	cmp         w0,#0
	bne         |$LN13@AuPipeFSRe|

; 240  : 				if (node_->flags & FS_FLAG_DIRECTORY)

	ldr         x8,[sp,#0x28]
	add         x8,x8,#0x40
	ldrh        w8,[x8]
	mov         w8,w8
	tbz         x8,#1,|$LN14@AuPipeFSRe|

; 241  : 					first_list = (AuVFSContainer*)node_->device;

	ldr         x8,[sp,#0x28]
	add         x8,x8,#0x50
	ldr         x8,[x8]
	str         x8,[sp,#0x30]
	b           |$LN15@AuPipeFSRe|
|$LN14@AuPipeFSRe|

; 242  : 				else if (node_->flags & FS_FLAG_PIPE) {

	ldr         x8,[sp,#0x28]
	add         x8,x8,#0x40
	ldrh        w8,[x8]
	mov         w8,w8
	tbz         x8,#7,|$LN16@AuPipeFSRe|

; 243  : 					node_to_rem = node_;

	ldr         x8,[sp,#0x28]
	str         x8,[sp,#0x18]

; 244  : 					index = j;

	ldr         w8,[sp,#0x10]
	str         w8,[sp,#0x20]
|$LN16@AuPipeFSRe|
|$LN15@AuPipeFSRe|
|$LN13@AuPipeFSRe|

; 245  : 				}
; 246  : 			}
; 247  : 		}

	b           |$LN7@AuPipeFSRe|
|$LN8@AuPipeFSRe|

; 248  : 
; 249  : 		next = strchr(next + 1, '/');

	ldr         x8,[sp,#8]
	add         x0,x8,#1
	mov         w1,#0x2F
	bl          strchr
	str         x0,[sp,#8]

; 250  : 		if (next)

	ldr         x8,[sp,#8]
	cmp         x8,#0
	beq         |$LN17@AuPipeFSRe|

; 251  : 			next++;

	ldr         x8,[sp,#8]
	add         x8,x8,#1
	str         x8,[sp,#8]
|$LN17@AuPipeFSRe|

; 252  : 	}

	b           |$LN2@AuPipeFSRe|
|$LN3@AuPipeFSRe|

; 253  : 
; 254  : 	/* only files can be removed */
; 255  : 	if (node_to_rem && node_to_rem->flags & FS_FLAG_DIRECTORY)

	ldr         x8,[sp,#0x18]
	cmp         x8,#0
	beq         |$LN18@AuPipeFSRe|
	ldr         x8,[sp,#0x18]
	add         x8,x8,#0x40
	ldrh        w8,[x8]
	mov         w8,w8
	tbz         x8,#1,|$LN18@AuPipeFSRe|

; 256  : 		return -1;

	mov         w0,#-1
	b           |$LN1@AuPipeFSRe|
|$LN18@AuPipeFSRe|

; 257  : 
; 258  : 	if (node_to_rem && (node_to_rem->flags & FS_FLAG_DEVICE)) {

	ldr         x8,[sp,#0x18]
	cmp         x8,#0
	beq         |$LN19@AuPipeFSRe|
	ldr         x8,[sp,#0x18]
	add         x8,x8,#0x40
	ldrh        w8,[x8]
	mov         w8,w8
	tbz         x8,#3,|$LN19@AuPipeFSRe|

; 259  : 		list_remove(first_list->childs, index);

	ldr         x8,[sp,#0x30]
	ldr         w1,[sp,#0x20]
	ldr         x0,[x8]
	bl          list_remove

; 260  : 		/* here, call node_to_rem->close(node_to_rem) in order
; 261  : 		 * to inform the device to shutdown itself */
; 262  : 		if (node_to_rem->close)

	ldr         x8,[sp,#0x18]
	add         x8,x8,#0xA0
	ldr         x8,[x8]
	cmp         x8,#0
	beq         |$LN20@AuPipeFSRe|

; 263  : 			node_to_rem->close(node_to_rem, NULL);

	ldr         x8,[sp,#0x18]
	add         x8,x8,#0xA0
	mov         x1,#0
	ldr         x0,[sp,#0x18]
	ldr         x8,[x8]
	blr         x8
|$LN20@AuPipeFSRe|

; 264  : 		kfree(node_to_rem);

	ldr         x0,[sp,#0x18]
	bl          kfree

; 265  : 		return 1;

	mov         w0,#1
	b           |$LN1@AuPipeFSRe|
|$LN19@AuPipeFSRe|

; 266  : 	}
; 267  : 
; 268  : 	return -1;

	mov         w0,#-1
|$LN1@AuPipeFSRe|
	add         sp,sp,#0x60
	ldr         lr,[sp],#0x10
	ret

	ENDP  ; |AuPipeFSRemoveFile|

; Function compile flags: /Odtpy
; File C:\Users\paras\source\repos\grep-name\XenevaOS\KernelAA64\Fs\pipe.c

	AREA	|.text$mn|, CODE, ARM64

|AuPipeOpen| PROC

; 160  : AuVFSNode* AuPipeOpen(AuVFSNode* node, char* path) {

|$LN3|
	sub         sp,sp,#0x20
	str         x0,[sp,#8]
	str         x1,[sp,#0x10]

; 161  : 	AuPipe* pipe = (AuPipe*)node->device;

	ldr         x8,[sp,#8]
	add         x8,x8,#0x50
	ldr         x8,[x8]
	str         x8,[sp]

; 162  : 	pipe->refcount++;

	ldr         x8,[sp]
	add         x8,x8,#0x20
	ldr         x8,[x8]
	add         x9,x8,#1
	ldr         x8,[sp]
	add         x8,x8,#0x20
	str         x9,[x8]

; 163  : 	return node;

	ldr         x0,[sp,#8]
	add         sp,sp,#0x20
	ret

	ENDP  ; |AuPipeOpen|

; Function compile flags: /Odtpy
; File C:\Users\paras\source\repos\grep-name\XenevaOS\KernelAA64\Fs\pipe.c

	AREA	|.text$mn|, CODE, ARM64

|AuPipeWrite| PROC

; 144  : size_t AuPipeWrite(AuVFSNode* fs, AuVFSNode* file, uint64_t* buffer, uint32_t length) {

|$LN8|
	str         lr,[sp,#-0x10]!
	sub         sp,sp,#0x40
	str         x0,[sp,#0x20]
	str         x1,[sp,#0x30]
	str         x2,[sp,#0x18]
	str         w3,[sp]

; 145  : 	uint8_t* aligned_buff = (uint8_t*)buffer;

	ldr         x8,[sp,#0x18]
	str         x8,[sp,#0x28]

; 146  : 	AuPipe* pipe = (AuPipe*)fs->device;

	ldr         x8,[sp,#0x20]
	add         x8,x8,#0x50
	ldr         x8,[x8]
	str         x8,[sp,#0x10]

; 147  : 	size_t written = 0;

	mov         x8,#0
	str         x8,[sp,#8]
|$LN2@AuPipeWrit|

; 148  : 	while (written < length) {

	ldr         w8,[sp]
	uxtw        x9,w8
	ldr         x8,[sp,#8]
	cmp         x8,x9
	bhs         |$LN3@AuPipeWrit|

; 149  : 		if (AuPipeGetAvailableBytes(pipe) > length) {

	ldr         x0,[sp,#0x10]
	bl          AuPipeGetAvailableBytes
	ldr         w8,[sp]
	uxtw        x8,w8
	cmp         x0,x8
	bls         |$LN6@AuPipeWrit|
|$LN4@AuPipeWrit|

; 150  : 			while (AuPipeGetAvailableBytes(pipe) > 0 && written < length) {

	ldr         x0,[sp,#0x10]
	bl          AuPipeGetAvailableBytes
	cmp         x0,#0
	bls         |$LN5@AuPipeWrit|
	ldr         w8,[sp]
	uxtw        x9,w8
	ldr         x8,[sp,#8]
	cmp         x8,x9
	bhs         |$LN5@AuPipeWrit|

; 151  : 				pipe->buffer[pipe->write_ptr] = aligned_buff[written];

	ldr         x9,[sp,#8]
	mov         x8,#1
	mul         x9,x9,x8
	ldr         x8,[sp,#0x28]
	add         x11,x8,x9
	ldr         x10,[sp,#0x10]
	ldr         x8,[sp,#0x10]
	add         x8,x8,#8
	ldr         x9,[x8]
	mov         x8,#1
	mul         x9,x9,x8
	ldr         x8,[x10]
	add         x9,x8,x9
	ldrb        w8,[x11]
	strb        w8,[x9]

; 152  : 				AuPipeIncrementWrite(pipe);

	ldr         x0,[sp,#0x10]
	bl          AuPipeIncrementWrite

; 153  : 				written++;

	ldr         x8,[sp,#8]
	add         x8,x8,#1
	str         x8,[sp,#8]

; 154  : 			}

	b           |$LN4@AuPipeWrit|
|$LN5@AuPipeWrit|
|$LN6@AuPipeWrit|

; 155  : 		}
; 156  : 	}

	b           |$LN2@AuPipeWrit|
|$LN3@AuPipeWrit|

; 157  : 	return written;

	ldr         x0,[sp,#8]
	add         sp,sp,#0x40
	ldr         lr,[sp],#0x10
	ret

	ENDP  ; |AuPipeWrite|

; Function compile flags: /Odtpy
; File C:\Users\paras\source\repos\grep-name\XenevaOS\KernelAA64\Fs\pipe.c

	AREA	|.text$mn|, CODE, ARM64

|AuPipeRead| PROC

; 117  : size_t AuPipeRead(AuVFSNode* fs, AuVFSNode* file, uint64_t* buffer, uint32_t length) {

|$LN9|
	str         lr,[sp,#-0x10]!
	sub         sp,sp,#0x40
	str         x0,[sp,#0x20]
	str         x1,[sp,#0x30]
	str         x2,[sp,#0x18]
	str         w3,[sp]

; 118  : 	uint8_t* aligned_buff = (uint8_t*)buffer;

	ldr         x8,[sp,#0x18]
	str         x8,[sp,#0x28]

; 119  : 	AuPipe* pipe = (AuPipe*)fs->device;

	ldr         x8,[sp,#0x20]
	add         x8,x8,#0x50
	ldr         x8,[x8]
	str         x8,[sp,#0x10]

; 120  : 	size_t collected = 0;

	mov         x8,#0
	str         x8,[sp,#8]
|$LN2@AuPipeRead|

; 121  : 	while (collected == 0) {

	ldr         x8,[sp,#8]
	cmp         x8,#0
	bne         |$LN3@AuPipeRead|

; 122  : 		if (AuPipeUnread(pipe) > 0) {

	ldr         x0,[sp,#0x10]
	bl          AuPipeUnread
	cmp         x0,#0
	bls         |$LN6@AuPipeRead|
|$LN4@AuPipeRead|

; 123  : 			while (AuPipeUnread(pipe) > 0 && collected < length) {

	ldr         x0,[sp,#0x10]
	bl          AuPipeUnread
	cmp         x0,#0
	bls         |$LN5@AuPipeRead|
	ldr         w8,[sp]
	uxtw        x9,w8
	ldr         x8,[sp,#8]
	cmp         x8,x9
	bhs         |$LN5@AuPipeRead|

; 124  : 				aligned_buff[collected] = pipe->buffer[pipe->read_ptr];

	ldr         x10,[sp,#0x10]
	ldr         x8,[sp,#0x10]
	add         x8,x8,#0x10
	ldr         x9,[x8]
	mov         x8,#1
	mul         x9,x9,x8
	ldr         x8,[x10]
	add         x10,x8,x9
	ldr         x9,[sp,#8]
	mov         x8,#1
	mul         x9,x9,x8
	ldr         x8,[sp,#0x28]
	add         x9,x8,x9
	ldrb        w8,[x10]
	strb        w8,[x9]

; 125  : 				AuPipeIncrementRead(pipe);

	ldr         x0,[sp,#0x10]
	bl          AuPipeIncrementRead

; 126  : 				collected++;

	ldr         x8,[sp,#8]
	add         x8,x8,#1
	str         x8,[sp,#8]

; 127  : 			}

	b           |$LN4@AuPipeRead|
|$LN5@AuPipeRead|

; 128  : 
; 129  : 		}

	b           |$LN7@AuPipeRead|
|$LN6@AuPipeRead|

; 130  : 		else
; 131  : 			break;

	b           |$LN3@AuPipeRead|
|$LN7@AuPipeRead|

; 132  : 	}

	b           |$LN2@AuPipeRead|
|$LN3@AuPipeRead|

; 133  : 
; 134  : 	return collected;

	ldr         x0,[sp,#8]
	add         sp,sp,#0x40
	ldr         lr,[sp],#0x10
	ret

	ENDP  ; |AuPipeRead|

; Function compile flags: /Odtpy
; File C:\Users\paras\source\repos\grep-name\XenevaOS\KernelAA64\Fs\pipe.c

	AREA	|.text$mn|, CODE, ARM64

|AuPipeIncrementWriteAmount| PROC

; 106  : void AuPipeIncrementWriteAmount(AuPipe* pipe, size_t amount) {

|$LN3|
	sub         sp,sp,#0x10
	str         x0,[sp]
	str         x1,[sp,#8]

; 107  : 	pipe->write_ptr = (pipe->write_ptr + amount) & pipe->size;

	ldr         x8,[sp]
	add         x8,x8,#8
	ldr         x9,[x8]
	ldr         x8,[sp,#8]
	add         x9,x9,x8
	ldr         x8,[sp]
	add         x8,x8,#0x18
	ldr         x8,[x8]
	and         x9,x9,x8
	ldr         x8,[sp]
	add         x8,x8,#8
	str         x9,[x8]
	add         sp,sp,#0x10
	ret

	ENDP  ; |AuPipeIncrementWriteAmount|

; Function compile flags: /Odtpy
; File C:\Users\paras\source\repos\grep-name\XenevaOS\KernelAA64\Fs\pipe.c

	AREA	|.text$mn|, CODE, ARM64

|AuPipeIncrementWrite| PROC

; 94   : void AuPipeIncrementWrite(AuPipe* pipe) {

|$LN4|
	sub         sp,sp,#0x10
	str         x0,[sp]

; 95   : 	pipe->write_ptr++;

	ldr         x8,[sp]
	add         x8,x8,#8
	ldr         x8,[x8]
	add         x9,x8,#1
	ldr         x8,[sp]
	add         x8,x8,#8
	str         x9,[x8]

; 96   : 	if (pipe->write_ptr == pipe->size)

	ldr         x8,[sp]
	add         x10,x8,#8
	ldr         x8,[sp]
	add         x8,x8,#0x18
	ldr         x9,[x8]
	ldr         x8,[x10]
	cmp         x8,x9
	bne         |$LN2@AuPipeIncr|

; 97   : 		pipe->write_ptr = 0;

	ldr         x8,[sp]
	add         x9,x8,#8
	mov         x8,#0
	str         x8,[x9]
|$LN2@AuPipeIncr|
	add         sp,sp,#0x10
	ret

	ENDP  ; |AuPipeIncrementWrite|

; Function compile flags: /Odtpy
; File C:\Users\paras\source\repos\grep-name\XenevaOS\KernelAA64\Fs\pipe.c

	AREA	|.text$mn|, CODE, ARM64

|AuPipeIncrementRead| PROC

; 82   : void AuPipeIncrementRead(AuPipe* pipe) {

|$LN4|
	sub         sp,sp,#0x10
	str         x0,[sp]

; 83   : 	pipe->read_ptr++;

	ldr         x8,[sp]
	add         x8,x8,#0x10
	ldr         x8,[x8]
	add         x9,x8,#1
	ldr         x8,[sp]
	add         x8,x8,#0x10
	str         x9,[x8]

; 84   : 	if (pipe->read_ptr == pipe->size)

	ldr         x8,[sp]
	add         x10,x8,#0x10
	ldr         x8,[sp]
	add         x8,x8,#0x18
	ldr         x9,[x8]
	ldr         x8,[x10]
	cmp         x8,x9
	bne         |$LN2@AuPipeIncr|

; 85   : 		pipe->read_ptr = 0;

	ldr         x8,[sp]
	add         x9,x8,#0x10
	mov         x8,#0
	str         x8,[x9]
|$LN2@AuPipeIncr|
	add         sp,sp,#0x10
	ret

	ENDP  ; |AuPipeIncrementRead|

; Function compile flags: /Odtpy
; File C:\Users\paras\source\repos\grep-name\XenevaOS\KernelAA64\Fs\pipe.c

	AREA	|.text$mn|, CODE, ARM64

|AuPipeGetAvailableBytes| PROC

; 66   : size_t AuPipeGetAvailableBytes(AuPipe* pipe) {

|$LN6|
	sub         sp,sp,#0x10
	str         x0,[sp]

; 67   : 	if (pipe->read_ptr == pipe->write_ptr)

	ldr         x8,[sp]
	add         x10,x8,#0x10
	ldr         x8,[sp]
	add         x8,x8,#8
	ldr         x9,[x8]
	ldr         x8,[x10]
	cmp         x8,x9
	bne         |$LN2@AuPipeGetA|

; 68   : 		return pipe->size - 1;

	ldr         x8,[sp]
	add         x8,x8,#0x18
	ldr         x8,[x8]
	sub         x0,x8,#1
	b           |$LN1@AuPipeGetA|
|$LN2@AuPipeGetA|

; 69   : 
; 70   : 	if (pipe->read_ptr > pipe->write_ptr)

	ldr         x8,[sp]
	add         x10,x8,#0x10
	ldr         x8,[sp]
	add         x8,x8,#8
	ldr         x9,[x8]
	ldr         x8,[x10]
	cmp         x8,x9
	bls         |$LN3@AuPipeGetA|

; 71   : 		return pipe->read_ptr - pipe->write_ptr - 1;

	ldr         x8,[sp]
	add         x9,x8,#0x10
	ldr         x8,[sp]
	add         x8,x8,#8
	ldr         x9,[x9]
	ldr         x8,[x8]
	sub         x8,x9,x8
	sub         x0,x8,#1
	b           |$LN1@AuPipeGetA|
	b           |$LN4@AuPipeGetA|
|$LN3@AuPipeGetA|

; 72   : 	else
; 73   : 		return (pipe->size - pipe->write_ptr) + pipe->read_ptr - 1;

	ldr         x8,[sp]
	add         x9,x8,#0x18
	ldr         x8,[sp]
	add         x8,x8,#8
	ldr         x9,[x9]
	ldr         x8,[x8]
	sub         x9,x9,x8
	ldr         x8,[sp]
	add         x8,x8,#0x10
	ldr         x8,[x8]
	add         x8,x9,x8
	sub         x0,x8,#1
|$LN4@AuPipeGetA|
|$LN1@AuPipeGetA|
	add         sp,sp,#0x10
	ret

	ENDP  ; |AuPipeGetAvailableBytes|

; Function compile flags: /Odtpy
; File C:\Users\paras\source\repos\grep-name\XenevaOS\KernelAA64\Fs\pipe.c

	AREA	|.text$mn|, CODE, ARM64

|AuPipeFSInitialise| PROC

; 400  : void AuPipeFSInitialise() {

|$LN3|
	str         lr,[sp,#-0x10]!
	sub         sp,sp,#0x10

; 401  : 	AuVFSContainer* entries = (AuVFSContainer*)kmalloc(sizeof(AuVFSContainer));

	mov         w0,#8
	bl          kmalloc
	str         x0,[sp,#8]

; 402  : 	entries->childs = initialize_list();

	bl          initialize_list
	ldr         x8,[sp,#8]
	str         x0,[x8]

; 403  : 
; 404  : 	AuVFSNode* node = (AuVFSNode*)kmalloc(sizeof(AuVFSNode));

	mov         w0,#0xD0
	bl          kmalloc
	str         x0,[sp]

; 405  : 	memset(node, 0, sizeof(AuVFSNode));

	mov         w2,#0xD0
	mov         w1,#0
	ldr         x0,[sp]
	bl          memset

; 406  : 	strcpy(node->filename, "pipe");

	ldr         x0,[sp]
	adrp        x8,|$SG3387|
	add         x1,x8,PageOffset(|$SG3387|)
	bl          strcpy

; 407  : 	node->device = entries;

	ldr         x8,[sp]
	add         x9,x8,#0x50
	ldr         x8,[sp,#8]
	str         x8,[x9]

; 408  : 	node->flags |= FS_FLAG_FILE_SYSTEM;

	ldr         x8,[sp]
	add         x8,x8,#0x40
	ldrh        w8,[x8]
	mov         w8,w8
	orr         w10,w8,#0x40
	ldr         x8,[sp]
	add         x9,x8,#0x40
	uxth        w8,w10
	strh        w8,[x9]

; 409  : 	node->open = AuPipeFSOpen;

	ldr         x8,[sp]
	add         x9,x8,#0x60
	adrp        x8,AuPipeFSOpen
	add         x8,x8,PageOffset(AuPipeFSOpen)
	str         x8,[x9]

; 410  : 	AuVFSAddFileSystem(node);

	ldr         x0,[sp]
	bl          AuVFSAddFileSystem

; 411  : 	AuTextOut("[aurora]: pipefs mounted \r\n");

	adrp        x8,|$SG3388|
	add         x0,x8,PageOffset(|$SG3388|)
	bl          AuTextOut

; 412  : 	pipeFS = node;

	adrp        x9,pipeFS
	ldr         x8,[sp]
	str         x8,[x9,PageOffset(pipeFS)]
	add         sp,sp,#0x10
	ldr         lr,[sp],#0x10
	ret

	ENDP  ; |AuPipeFSInitialise|

; Function compile flags: /Odtpy
; File C:\Users\paras\source\repos\grep-name\XenevaOS\KernelAA64\Fs\pipe.c

	AREA	|.text$mn|, CODE, ARM64

|AuPipeFSAddFile| PROC

; 173  : int AuPipeFSAddFile(AuVFSNode* fs, char* path, AuVFSNode* file) {

|$LN18|
	str         lr,[sp,#-0x10]!
	sub         sp,sp,#0x60
	str         x0,[sp,#0x30]
	str         x1,[sp,#0x38]
	str         x2,[sp,#0x40]

; 174  : 	AuVFSContainer* entries = (AuVFSContainer*)fs->device;

	ldr         x8,[sp,#0x30]
	add         x8,x8,#0x50
	ldr         x8,[x8]
	str         x8,[sp,#0x28]

; 175  : 	if (!entries)

	ldr         x8,[sp,#0x28]
	cmp         x8,#0
	bne         |$LN10@AuPipeFSAd|

; 176  : 		return -1;

	mov         w0,#-1
	b           |$LN1@AuPipeFSAd|
|$LN10@AuPipeFSAd|

; 177  : 
; 178  : 	char* next = strchr(path, '/');

	mov         w1,#0x2F
	ldr         x0,[sp,#0x38]
	bl          strchr
	str         x0,[sp,#8]

; 179  : 	if (next)

	ldr         x8,[sp,#8]
	cmp         x8,#0
	beq         |$LN11@AuPipeFSAd|

; 180  : 		next++;

	ldr         x8,[sp,#8]
	add         x8,x8,#1
	str         x8,[sp,#8]
|$LN11@AuPipeFSAd|

; 181  : 
; 182  : 	AuVFSContainer* first_list = entries;

	ldr         x8,[sp,#0x28]
	str         x8,[sp,#0x18]
|$LN2@AuPipeFSAd|

; 183  : 	char pathname[16];
; 184  : 	while (next) {

	ldr         x8,[sp,#8]
	cmp         x8,#0
	beq         |$LN3@AuPipeFSAd|

; 185  : 		int i;
; 186  : 		for (i = 0; i < 16; i++) {

	mov         w8,#0
	str         w8,[sp]
	b           |$LN6@AuPipeFSAd|
|$LN4@AuPipeFSAd|
	ldr         w8,[sp]
	add         w8,w8,#1
	str         w8,[sp]
|$LN6@AuPipeFSAd|
	ldr         w8,[sp]
	cmp         w8,#0x10
	bge         |$LN5@AuPipeFSAd|

; 187  : 			if (next[i] == '/' || next[i] == '\0')

	ldr         w8,[sp]
	sxtw        x9,w8
	mov         x8,#1
	mul         x9,x9,x8
	ldr         x8,[sp,#8]
	add         x8,x8,x9
	ldrsb       w8,[x8]
	mov         w8,w8
	cmp         w8,#0x2F
	beq         |$LN13@AuPipeFSAd|
	ldr         w8,[sp]
	sxtw        x9,w8
	mov         x8,#1
	mul         x9,x9,x8
	ldr         x8,[sp,#8]
	add         x8,x8,x9
	ldrsb       w8,[x8]
	mov         w8,w8
	cmp         w8,#0
	bne         |$LN12@AuPipeFSAd|
|$LN13@AuPipeFSAd|

; 188  : 				break;

	b           |$LN5@AuPipeFSAd|
|$LN12@AuPipeFSAd|

; 189  : 			pathname[i] = next[i];

	ldr         w8,[sp]
	sxtw        x9,w8
	mov         x8,#1
	mul         x9,x9,x8
	ldr         x8,[sp,#8]
	add         x10,x8,x9
	ldr         w8,[sp]
	sxtw        x9,w8
	mov         x8,#1
	mul         x9,x9,x8
	add         x8,sp,#0x48
	add         x9,x8,x9
	ldrsb       w8,[x10]
	strb        w8,[x9]

; 190  : 		}

	b           |$LN4@AuPipeFSAd|
|$LN5@AuPipeFSAd|

; 191  : 		pathname[i] = 0;

	ldr         w8,[sp]
	sxtw        x9,w8
	mov         x8,#1
	mul         x9,x9,x8
	add         x8,sp,#0x48
	add         x9,x8,x9
	mov         w8,#0
	strb        w8,[x9]

; 192  : 
; 193  : 		for (int j = 0; j < first_list->childs->pointer; j++) {

	mov         w8,#0
	str         w8,[sp,#0x10]
	b           |$LN9@AuPipeFSAd|
|$LN7@AuPipeFSAd|
	ldr         w8,[sp,#0x10]
	add         w8,w8,#1
	str         w8,[sp,#0x10]
|$LN9@AuPipeFSAd|
	ldr         x8,[sp,#0x18]
	ldr         x8,[x8]
	ldr         w9,[x8]
	ldr         w8,[sp,#0x10]
	cmp         w8,w9
	bhs         |$LN8@AuPipeFSAd|

; 194  : 			AuVFSNode* node_ = (AuVFSNode*)list_get_at(first_list->childs, j);

	ldr         x8,[sp,#0x18]
	ldr         w1,[sp,#0x10]
	ldr         x0,[x8]
	bl          list_get_at
	str         x0,[sp,#0x20]

; 195  : 			if (strcmp(node_->filename, pathname) == 0) {

	ldr         x0,[sp,#0x20]
	add         x1,sp,#0x48
	bl          strcmp
	mov         w0,w0
	cmp         w0,#0
	bne         |$LN14@AuPipeFSAd|

; 196  : 				if (node_->flags & FS_FLAG_DIRECTORY)

	ldr         x8,[sp,#0x20]
	add         x8,x8,#0x40
	ldrh        w8,[x8]
	mov         w8,w8
	tbz         x8,#1,|$LN15@AuPipeFSAd|

; 197  : 					first_list = (AuVFSContainer*)node_->device;

	ldr         x8,[sp,#0x20]
	add         x8,x8,#0x50
	ldr         x8,[x8]
	str         x8,[sp,#0x18]
|$LN15@AuPipeFSAd|
|$LN14@AuPipeFSAd|

; 198  : 			}
; 199  : 		}

	b           |$LN7@AuPipeFSAd|
|$LN8@AuPipeFSAd|

; 200  : 
; 201  : 		next = strchr(next + 1, '/');

	ldr         x8,[sp,#8]
	add         x0,x8,#1
	mov         w1,#0x2F
	bl          strchr
	str         x0,[sp,#8]

; 202  : 		if (next)

	ldr         x8,[sp,#8]
	cmp         x8,#0
	beq         |$LN16@AuPipeFSAd|

; 203  : 			next++;

	ldr         x8,[sp,#8]
	add         x8,x8,#1
	str         x8,[sp,#8]
|$LN16@AuPipeFSAd|

; 204  : 	}

	b           |$LN2@AuPipeFSAd|
|$LN3@AuPipeFSAd|

; 205  : 
; 206  : 	list_add(first_list->childs, file);

	ldr         x8,[sp,#0x18]
	ldr         x1,[sp,#0x40]
	ldr         x0,[x8]
	bl          list_add

; 207  : 
; 208  : 	return 1;

	mov         w0,#1
|$LN1@AuPipeFSAd|
	add         sp,sp,#0x60
	ldr         lr,[sp],#0x10
	ret

	ENDP  ; |AuPipeFSAddFile|

; Function compile flags: /Odtpy
; File C:\Users\paras\source\repos\grep-name\XenevaOS\KernelAA64\Fs\pipe.c

	AREA	|.text$mn|, CODE, ARM64

|AuCreatePipe| PROC

; 295  : int AuCreatePipe(char* name, size_t sz) {

|$LN7|
	str         lr,[sp,#-0x10]!
	sub         sp,sp,#0x40
	str         x0,[sp,#0x30]
	str         x1,[sp,#0x20]

; 296  : 	UARTDebugOut("Creating PIPE \r\n");

	adrp        x8,|$SG3334|
	add         x0,x8,PageOffset(|$SG3334|)
	bl          UARTDebugOut

; 297  : 	AA64Thread* currentThr = AuGetCurrentThread();

	bl          AuGetCurrentThread
	str         x0,[sp,#0x28]

; 298  : 	if (!currentThr) {

	ldr         x8,[sp,#0x28]
	cmp         x8,#0
	bne         |$LN2@AuCreatePi|

; 299  : 		UARTDebugOut("creating pipe !currentThr\r\n");

	adrp        x8,|$SG3336|
	add         x0,x8,PageOffset(|$SG3336|)
	bl          UARTDebugOut

; 300  : 		return -1;

	mov         w0,#-1
	b           |$LN1@AuCreatePi|
|$LN2@AuCreatePi|

; 301  : 	}
; 302  : 	AuProcess* proc = AuProcessFindThread(currentThr);

	ldr         x0,[sp,#0x28]
	bl          AuProcessFindThread
	str         x0,[sp,#0x10]

; 303  : 	if (!proc) {

	ldr         x8,[sp,#0x10]
	cmp         x8,#0
	bne         |$LN3@AuCreatePi|

; 304  : 		proc = AuProcessFindSubThread(currentThr);

	ldr         x0,[sp,#0x28]
	bl          AuProcessFindSubThread
	str         x0,[sp,#0x10]

; 305  : 		if (!proc) {

	ldr         x8,[sp,#0x10]
	cmp         x8,#0
	bne         |$LN4@AuCreatePi|

; 306  : 			UARTDebugOut("!proc \r\n");

	adrp        x8,|$SG3339|
	add         x0,x8,PageOffset(|$SG3339|)
	bl          UARTDebugOut

; 307  : 			return -1;

	mov         w0,#-1
	b           |$LN1@AuCreatePi|
|$LN4@AuCreatePi|
|$LN3@AuCreatePi|

; 308  : 		}
; 309  : 	}
; 310  : 
; 311  : 	if (sz == 0) {

	ldr         x8,[sp,#0x20]
	cmp         x8,#0
	bne         |$LN5@AuCreatePi|

; 312  : 		UARTDebugOut("SZ == 0 \r\n");

	adrp        x8,|$SG3341|
	add         x0,x8,PageOffset(|$SG3341|)
	bl          UARTDebugOut

; 313  : 		return -1;

	mov         w0,#-1
	b           |$LN1@AuCreatePi|
|$LN5@AuCreatePi|

; 314  : 	}
; 315  : 
; 316  : 	int fd = AuProcessGetFileDesc(proc);

	ldr         x0,[sp,#0x10]
	bl          AuProcessGetFileDesc
	mov         w0,w0
	str         w0,[sp]

; 317  : 
; 318  : 	AuVFSNode* node = (AuVFSNode*)kmalloc(sizeof(AuVFSNode));

	mov         w0,#0xD0
	bl          kmalloc
	str         x0,[sp,#8]

; 319  : 	AuPipe* pipe = (AuPipe*)kmalloc(sizeof(AuPipe));

	mov         w0,#0x38
	bl          kmalloc
	str         x0,[sp,#0x18]

; 320  : 	memset(node, 0, sizeof(AuVFSNode));

	mov         w2,#0xD0
	mov         w1,#0
	ldr         x0,[sp,#8]
	bl          memset

; 321  : 	memset(pipe, 0, sizeof(AuPipe));

	mov         w2,#0x38
	mov         w1,#0
	ldr         x0,[sp,#0x18]
	bl          memset

; 322  : 
; 323  : 	pipe->buffer = (uint8_t*)kmalloc(sz);

	ldr         x8,[sp,#0x20]
	mov         w0,w8
	mov         w0,w0
	bl          kmalloc
	ldr         x8,[sp,#0x18]
	str         x0,[x8]

; 324  : 	pipe->readers_wait_queue = initialize_list();

	bl          initialize_list
	ldr         x8,[sp,#0x18]
	add         x8,x8,#0x28
	str         x0,[x8]

; 325  : 	pipe->writers_wait_queue = initialize_list();

	bl          initialize_list
	ldr         x8,[sp,#0x18]
	add         x8,x8,#0x30
	str         x0,[x8]

; 326  : 	pipe->size = sz;

	ldr         x8,[sp,#0x18]
	add         x9,x8,#0x18
	ldr         x8,[sp,#0x20]
	str         x8,[x9]

; 327  : 	pipe->refcount = 1;

	ldr         x8,[sp,#0x18]
	add         x9,x8,#0x20
	mov         x8,#1
	str         x8,[x9]

; 328  : 
; 329  : 	strcpy(node->filename, name);

	ldr         x0,[sp,#8]
	ldr         x1,[sp,#0x30]
	bl          strcpy

; 330  : 	node->flags = FS_FLAG_PIPE;

	ldr         x8,[sp,#8]
	add         x9,x8,#0x40
	mov         w8,#0x80
	strh        w8,[x9]

; 331  : 	node->size = sz;

	ldr         x8,[sp,#8]
	add         x9,x8,#0x20
	ldr         x8,[sp,#0x20]
	mov         w8,w8
	str         w8,[x9]

; 332  : 	node->uid = proc->creds.uid;

	ldr         x8,[sp,#0x10]
	add         x10,x8,#0x474
	ldr         x8,[sp,#8]
	add         x9,x8,#0x44
	ldr         w8,[x10]
	str         w8,[x9]

; 333  : 	node->gid = proc->creds.gid;

	ldr         x8,[sp,#0x10]
	add         x10,x8,#0x478
	ldr         x8,[sp,#8]
	add         x9,x8,#0x48
	ldr         w8,[x10]
	str         w8,[x9]

; 334  : 	node->device = pipe; // pipe;

	ldr         x8,[sp,#8]
	add         x9,x8,#0x50
	ldr         x8,[sp,#0x18]
	str         x8,[x9]

; 335  : 	node->read = AuPipeRead;

	ldr         x8,[sp,#8]
	add         x9,x8,#0x70
	adrp        x8,AuPipeRead
	add         x8,x8,PageOffset(AuPipeRead)
	str         x8,[x9]

; 336  : 	node->write = AuPipeWrite;

	ldr         x8,[sp,#8]
	add         x9,x8,#0x78
	adrp        x8,AuPipeWrite
	add         x8,x8,PageOffset(AuPipeWrite)
	str         x8,[x9]

; 337  : 	node->open = AuPipeOpen;

	ldr         x8,[sp,#8]
	add         x9,x8,#0x60
	adrp        x8,AuPipeOpen
	add         x8,x8,PageOffset(AuPipeOpen)
	str         x8,[x9]

; 338  : 	node->close = AuPipeClose;

	ldr         x8,[sp,#8]
	add         x9,x8,#0xA0
	adrp        x8,AuPipeClose
	add         x8,x8,PageOffset(AuPipeClose)
	str         x8,[x9]

; 339  : 	node->uid = proc->creds.uid;

	ldr         x8,[sp,#0x10]
	add         x10,x8,#0x474
	ldr         x8,[sp,#8]
	add         x9,x8,#0x44
	ldr         w8,[x10]
	str         w8,[x9]

; 340  : 	node->gid = proc->creds.gid;

	ldr         x8,[sp,#0x10]
	add         x10,x8,#0x478
	ldr         x8,[sp,#8]
	add         x9,x8,#0x48
	ldr         w8,[x10]
	str         w8,[x9]

; 341  : 	node->iocontrol = NULL;

	ldr         x8,[sp,#8]
	add         x9,x8,#0xC8
	mov         x8,#0
	str         x8,[x9]

; 342  : 
; 343  : 	proc->fds[fd] = node;

	ldr         x8,[sp,#0x10]
	add         x10,x8,#0x248
	ldr         w8,[sp]
	sxtw        x9,w8
	mov         x8,#8
	mul         x8,x9,x8
	add         x9,x10,x8
	ldr         x8,[sp,#8]
	str         x8,[x9]

; 344  : 
; 345  : 	AuPipeFSAddFile(pipeFS, "/", node);

	ldr         x2,[sp,#8]
	adrp        x8,|$SG3342|
	add         x1,x8,PageOffset(|$SG3342|)
	adrp        x8,pipeFS
	ldr         x0,[x8,PageOffset(pipeFS)]
	bl          AuPipeFSAddFile

; 346  : 	UARTDebugOut("[aurora]: pipe created : %d name: %s\r\n", fd, proc->fds[fd]->filename);

	ldr         x8,[sp,#0x10]
	add         x10,x8,#0x248
	ldr         w8,[sp]
	sxtw        x9,w8
	mov         x8,#8
	mul         x8,x9,x8
	add         x8,x10,x8
	ldr         x2,[x8]
	ldr         w1,[sp]
	adrp        x8,|$SG3343|
	add         x0,x8,PageOffset(|$SG3343|)
	bl          UARTDebugOut

; 347  : 	//AuForceScheduler();
; 348  : 	return fd;

	ldr         w0,[sp]
|$LN1@AuCreatePi|
	add         sp,sp,#0x40
	ldr         lr,[sp],#0x10
	ret

	ENDP  ; |AuCreatePipe|

; Function compile flags: /Odtpy
; File C:\Users\paras\source\repos\grep-name\XenevaOS\KernelAA64\Fs\pipe.c

	AREA	|.text$mn|, CODE, ARM64

|AuPipeUnread| PROC

; 50   : size_t AuPipeUnread(AuPipe* pipe) {

|$LN6|
	sub         sp,sp,#0x10
	str         x0,[sp]

; 51   : 	if (pipe->read_ptr == pipe->write_ptr)

	ldr         x8,[sp]
	add         x10,x8,#0x10
	ldr         x8,[sp]
	add         x8,x8,#8
	ldr         x9,[x8]
	ldr         x8,[x10]
	cmp         x8,x9
	bne         |$LN2@AuPipeUnre|

; 52   : 		return 0; //0 bytes difference

	mov         x0,#0
	b           |$LN1@AuPipeUnre|
|$LN2@AuPipeUnre|

; 53   : 	if (pipe->read_ptr > pipe->write_ptr)

	ldr         x8,[sp]
	add         x10,x8,#0x10
	ldr         x8,[sp]
	add         x8,x8,#8
	ldr         x9,[x8]
	ldr         x8,[x10]
	cmp         x8,x9
	bls         |$LN3@AuPipeUnre|

; 54   : 		return (pipe->size - pipe->read_ptr) + pipe->write_ptr;

	ldr         x8,[sp]
	add         x9,x8,#0x18
	ldr         x8,[sp]
	add         x8,x8,#0x10
	ldr         x9,[x9]
	ldr         x8,[x8]
	sub         x9,x9,x8
	ldr         x8,[sp]
	add         x8,x8,#8
	ldr         x8,[x8]
	add         x0,x9,x8
	b           |$LN1@AuPipeUnre|
	b           |$LN4@AuPipeUnre|
|$LN3@AuPipeUnre|

; 55   : 	else
; 56   : 		return (pipe->write_ptr - pipe->read_ptr);

	ldr         x8,[sp]
	add         x9,x8,#8
	ldr         x8,[sp]
	add         x8,x8,#0x10
	ldr         x9,[x9]
	ldr         x8,[x8]
	sub         x0,x9,x8
|$LN4@AuPipeUnre|
|$LN1@AuPipeUnre|
	add         sp,sp,#0x10
	ret

	ENDP  ; |AuPipeUnread|

	END
