; Listing generated by Microsoft (R) Optimizing Compiler Version 19.29.30159.0 

	TTL	C:\Users\paras\source\repos\grep-name\XenevaOS\KernelAA64\ARM64\Debug\pmmngr.obj
	ARM64

	AREA	|.drectve|, DRECTVE


	AREA	|.bss|, NOINIT
|_FreeMemory| %	0x8
|_ReservedMemory| % 0x8
|_UsedMemory| %	0x8
|_RamBitmapIndex| % 0x8
|_TotalRam| %	0x8
|UsablePhysicalMemory| % 0x8
|_BitmapSize| %	0x8
|_HigherHalf| %	0x1

	AREA	|.data|, DATA
	 COMMON	|debugon|, 0x1


	AREA	|.bss|, NOINIT
|BitmapBuffer| % 0x8
|page_desc| %	0x8
|total_page_desc_count| % 0x4
	EXPORT	|AuPmmngrInitialize|
	EXPORT	|AuPmmngrAlloc|
	EXPORT	|AuPmmngrAllocBlocks|
	EXPORT	|AuPmmngrFree|
	EXPORT	|AuPmmngrFreeBlocks|
	EXPORT	|P2V|
	EXPORT	|V2P|
	EXPORT	|AuPmmngrMoveHigher|
	EXPORT	|AuPmmngrGetFreeMem|
	EXPORT	|AuPmmngrGetUsedMem|
	EXPORT	|AuPmmngrGetTotalMem|
	EXPORT	|AuPmmngrAddRefcount|
	EXPORT	|AuPmmngrGetRefcount|
	EXPORT	|AuPmmngrGetPageDesc|
	EXPORT	|AuPmmngrSetPageType|
	EXPORT	|AuPmmngrInitBitmap|
	EXPORT	|AuPmmngrBitmapCheck|
	EXPORT	|AuPmmngrBitmapSet|
	EXPORT	|AuPmmngrLockPage|
	EXPORT	|AuPmmngrLockPages|
	EXPORT	|AuPmmngrUnreservePage|
	EXPORT	|AuPmmngrAllocCheck|
	EXPORT	|AuPmmngrDebugInfo|
	IMPORT	|dsb_ish|
	IMPORT	|memset|
	IMPORT	|AuTextOut|

	AREA	|.pdata|, PDATA
|$pdata$AuPmmngrInitialize| DCD imagerel |$LN49|
	DCD	0xa200925
	;Flags[SingleProEpi] functionLength[2340] RegF[0] RegI[0] H[0] frameChainReturn[UnChainedSavedLR] frameSize[320]
|$pdata$AuPmmngrAlloc| DCD imagerel |$LN10|
	DCD	0x1200195
	;Flags[SingleProEpi] functionLength[404] RegF[0] RegI[0] H[0] frameChainReturn[UnChainedSavedLR] frameSize[32]
|$pdata$AuPmmngrAllocBlocks| DCD imagerel |$LN6|
	DCD	0x1a00059
	;Flags[SingleProEpi] functionLength[88] RegF[0] RegI[0] H[0] frameChainReturn[UnChainedSavedLR] frameSize[48]
|$pdata$AuPmmngrFree| DCD imagerel |$LN7|
	DCD	0x1a00149
	;Flags[SingleProEpi] functionLength[328] RegF[0] RegI[0] H[0] frameChainReturn[UnChainedSavedLR] frameSize[48]
|$pdata$AuPmmngrFreeBlocks| DCD imagerel |$LN6|
	DCD	0x1a00065
	;Flags[SingleProEpi] functionLength[100] RegF[0] RegI[0] H[0] frameChainReturn[UnChainedSavedLR] frameSize[48]
|$pdata$P2V| DCD imagerel |$LN5|
	DCD	0x80003d
	;Flags[SingleProEpi] functionLength[60] RegF[0] RegI[0] H[0] frameChainReturn[UnChained] frameSize[16]
|$pdata$V2P| DCD imagerel |$LN5|
	DCD	0x80003d
	;Flags[SingleProEpi] functionLength[60] RegF[0] RegI[0] H[0] frameChainReturn[UnChained] frameSize[16]
|$pdata$AuPmmngrMoveHigher| DCD imagerel |$LN3|
	DCD	0xa00041
	;Flags[SingleProEpi] functionLength[64] RegF[0] RegI[0] H[0] frameChainReturn[UnChainedSavedLR] frameSize[16]
|$pdata$AuPmmngrAddRefcount| DCD imagerel |$LN3|
	DCD	0x800075
	;Flags[SingleProEpi] functionLength[116] RegF[0] RegI[0] H[0] frameChainReturn[UnChained] frameSize[16]
|$pdata$AuPmmngrGetRefcount| DCD imagerel |$LN3|
	DCD	0x800035
	;Flags[SingleProEpi] functionLength[52] RegF[0] RegI[0] H[0] frameChainReturn[UnChained] frameSize[16]
|$pdata$AuPmmngrGetPageDesc| DCD imagerel |$LN3|
	DCD	0x80002d
	;Flags[SingleProEpi] functionLength[44] RegF[0] RegI[0] H[0] frameChainReturn[UnChained] frameSize[16]
|$pdata$AuPmmngrSetPageType| DCD imagerel |$LN5|
	DCD	0x800091
	;Flags[SingleProEpi] functionLength[144] RegF[0] RegI[0] H[0] frameChainReturn[UnChained] frameSize[16]
|$pdata$AuPmmngrInitBitmap| DCD imagerel |$LN3|
	DCD	0x1200049
	;Flags[SingleProEpi] functionLength[72] RegF[0] RegI[0] H[0] frameChainReturn[UnChainedSavedLR] frameSize[32]
|$pdata$AuPmmngrBitmapCheck| DCD imagerel |$LN6|
	DCD	0x1a00115
	;Flags[SingleProEpi] functionLength[276] RegF[0] RegI[0] H[0] frameChainReturn[UnChainedSavedLR] frameSize[48]
|$pdata$AuPmmngrBitmapSet| DCD imagerel |$LN5|
	DCD	0x1000131
	;Flags[SingleProEpi] functionLength[304] RegF[0] RegI[0] H[0] frameChainReturn[UnChained] frameSize[32]
|$pdata$AuPmmngrLockPage| DCD imagerel |$LN5|
	DCD	0x1200085
	;Flags[SingleProEpi] functionLength[132] RegF[0] RegI[0] H[0] frameChainReturn[UnChainedSavedLR] frameSize[32]
|$pdata$AuPmmngrLockPages| DCD imagerel |$LN6|
	DCD	0x1a00069
	;Flags[SingleProEpi] functionLength[104] RegF[0] RegI[0] H[0] frameChainReturn[UnChainedSavedLR] frameSize[48]
|$pdata$AuPmmngrUnreservePage| DCD imagerel |$LN6|
	DCD	0x12000a9
	;Flags[SingleProEpi] functionLength[168] RegF[0] RegI[0] H[0] frameChainReturn[UnChainedSavedLR] frameSize[32]
|$pdata$AuPmmngrAllocCheck| DCD imagerel |$LN4|
	DCD	0x1a00061
	;Flags[SingleProEpi] functionLength[96] RegF[0] RegI[0] H[0] frameChainReturn[UnChainedSavedLR] frameSize[48]
|$pdata$AuPmmngrDebugInfo| DCD imagerel |$LN3|
	DCD	0xa00055
	;Flags[SingleProEpi] functionLength[84] RegF[0] RegI[0] H[0] frameChainReturn[UnChainedSavedLR] frameSize[16]

	AREA	|.data|, DATA
|$SG2756| DCB	"Bit -> %d Index -> %d ", 0xa, 0x0
|$SG2888| DCB	"RAM Starts at -> %x end -> %x ", 0xa, 0x0
|$SG2895| DCB	"[aurora]:Unable to continue Kernel initialization ", 0xd
	DCB	0xa, 0x0
	%	3
|$SG2894| DCB	"[aurora]:Booting from non-UEFI boot environment but miss"
	DCB	"ing LittleBoot protocol ", 0xd, 0xa, 0x0
	%	5
|$SG2897| DCB	"[aurora]: Usable memory Base : %x , PageCount : %d ", 0xd
	DCB	0xa, 0x0
	%	2
|$SG2898| DCB	"Total Ram : %d Pages ", 0xd, 0xa, 0x0
|$SG2899| DCB	"Memory Start : %x, Memory End : %x ", 0xd, 0xa, 0x0
	%	2
|$SG2900| DCB	"Total RAM : %x ", 0xd, 0xa, 0x0
	%	6
|$SG2901| DCB	"Usable RAM Start : %x, TotalRAM : %x ", 0xd, 0xa, 0x0
|$SG2902| DCB	"LastPage : %x ", 0xd, 0xa, 0x0
	%	7
|$SG2903| DCB	"Bitmap Size : %x %d ", 0xd, 0xa, 0x0
	%	1
|$SG2908| DCB	"[aurora]: Reserving LittleBoot data ", 0xd, 0xa, 0x0
	%	1
|$SG2909| DCB	"[aurora]: Pmmngr locked LittleBoot reserved memory", 0xd
	DCB	0xa, 0x0
	%	3
|$SG2929| DCB	"Kernel Panic!!! No more physical memory ", 0xa, 0x0
	%	6
|$SG3002| DCB	"Total ram page : %d --- %d GB ", 0xd, 0xa, 0x0
	%	7
|$SG3003| DCB	"UsablePhysical Start : %x ", 0xd, 0xa, 0x0
; Function compile flags: /Odtpy
; File C:\Users\paras\source\repos\grep-name\XenevaOS\KernelAA64\Mm\pmmngr.c

	AREA	|.text$mn|, CODE, ARM64

|AuPmmngrDebugInfo| PROC

; 509  : void AuPmmngrDebugInfo() {

|$LN3|
	str         lr,[sp,#-0x10]!

; 510  : 	AuTextOut("Total ram page : %d --- %d GB \r\n", _TotalRam, (_TotalRam / 1024 / 1024 / 1024));

	adrp        x8,_TotalRam
	ldr         x9,[x8,PageOffset(_TotalRam)]
	mov         x8,#0x400
	udiv        x9,x9,x8
	mov         x8,#0x400
	udiv        x9,x9,x8
	mov         x8,#0x400
	udiv        x2,x9,x8
	adrp        x8,_TotalRam
	ldr         x1,[x8,PageOffset(_TotalRam)]
	adrp        x8,|$SG3002|
	add         x0,x8,PageOffset(|$SG3002|)
	bl          AuTextOut

; 511  : 	AuTextOut("UsablePhysical Start : %x \r\n", UsablePhysicalMemory);

	adrp        x8,UsablePhysicalMemory
	ldr         x1,[x8,PageOffset(UsablePhysicalMemory)]
	adrp        x8,|$SG3003|
	add         x0,x8,PageOffset(|$SG3003|)
	bl          AuTextOut
	ldr         lr,[sp],#0x10
	ret

	ENDP  ; |AuPmmngrDebugInfo|

; Function compile flags: /Odtpy
; File C:\Users\paras\source\repos\grep-name\XenevaOS\KernelAA64\Mm\pmmngr.c

	AREA	|.text$mn|, CODE, ARM64

|AuPmmngrAllocCheck| PROC

; 320  : bool AuPmmngrAllocCheck(uint64_t address) {

|$LN4|
	str         lr,[sp,#-0x10]!
	sub         sp,sp,#0x20
	str         x0,[sp]

; 321  : 	uint64_t addr = ((uint64_t)address - UsablePhysicalMemory);

	ldr         x9,[sp]
	adrp        x8,UsablePhysicalMemory
	ldr         x8,[x8,PageOffset(UsablePhysicalMemory)]
	sub         x8,x9,x8
	str         x8,[sp,#8]

; 322  : 	uint64_t Index = (uint64_t)addr / 4096;

	ldr         x9,[sp,#8]
	mov         x8,#0x1000
	udiv        x8,x9,x8
	str         x8,[sp,#0x10]

; 323  : 	if (AuPmmngrBitmapCheck(Index) == true) return true;

	ldr         x0,[sp,#0x10]
	bl          AuPmmngrBitmapCheck
	uxtb        w8,w0
	mov         w8,w8
	cmp         w8,#1
	bne         |$LN2@AuPmmngrAl|
	mov         w0,#1
	b           |$LN1@AuPmmngrAl|
|$LN2@AuPmmngrAl|

; 324  : 	return false;

	mov         w0,#0
|$LN1@AuPmmngrAl|
	add         sp,sp,#0x20
	ldr         lr,[sp],#0x10
	ret

	ENDP  ; |AuPmmngrAllocCheck|

; Function compile flags: /Odtpy
; File C:\Users\paras\source\repos\grep-name\XenevaOS\KernelAA64\Mm\pmmngr.c

	AREA	|.text$mn|, CODE, ARM64

|AuPmmngrUnreservePage| PROC

; 131  : void AuPmmngrUnreservePage(void* Address) {

|$LN6|
	str         lr,[sp,#-0x10]!
	sub         sp,sp,#0x10
	str         x0,[sp,#8]

; 132  : 	uint64_t Index = (uint64_t)Address / 4096;

	ldr         x9,[sp,#8]
	mov         x8,#0x1000
	udiv        x8,x9,x8
	str         x8,[sp]

; 133  : 	if (AuPmmngrBitmapCheck(Index) == false) return;

	ldr         x0,[sp]
	bl          AuPmmngrBitmapCheck
	uxtb        w8,w0
	mov         w8,w8
	cmp         w8,#0
	bne         |$LN2@AuPmmngrUn|
	b           |$LN1@AuPmmngrUn|
|$LN2@AuPmmngrUn|

; 134  : 	if (AuPmmngrBitmapSet(Index, false)) {

	mov         w1,#0
	ldr         x0,[sp]
	bl          AuPmmngrBitmapSet
	uxtb        w8,w0
	mov         w8,w8
	cmp         w8,#0
	beq         |$LN3@AuPmmngrUn|

; 135  : 		_FreeMemory++;

	adrp        x8,_FreeMemory
	ldr         x8,[x8,PageOffset(_FreeMemory)]
	add         x9,x8,#1
	adrp        x8,_FreeMemory
	str         x9,[x8,PageOffset(_FreeMemory)]

; 136  : 		_ReservedMemory--;

	adrp        x8,_ReservedMemory
	ldr         x8,[x8,PageOffset(_ReservedMemory)]
	sub         x9,x8,#1
	adrp        x8,_ReservedMemory
	str         x9,[x8,PageOffset(_ReservedMemory)]

; 137  : 		if (_RamBitmapIndex > Index) _RamBitmapIndex = Index;

	ldr         x9,[sp]
	adrp        x8,_RamBitmapIndex
	ldr         x8,[x8,PageOffset(_RamBitmapIndex)]
	cmp         x8,x9
	bls         |$LN4@AuPmmngrUn|
	adrp        x9,_RamBitmapIndex
	ldr         x8,[sp]
	str         x8,[x9,PageOffset(_RamBitmapIndex)]
|$LN4@AuPmmngrUn|
|$LN3@AuPmmngrUn|
|$LN1@AuPmmngrUn|
	add         sp,sp,#0x10
	ldr         lr,[sp],#0x10
	ret

	ENDP  ; |AuPmmngrUnreservePage|

; Function compile flags: /Odtpy
; File C:\Users\paras\source\repos\grep-name\XenevaOS\KernelAA64\Mm\pmmngr.c

	AREA	|.text$mn|, CODE, ARM64

|AuPmmngrLockPages| PROC

; 120  : void AuPmmngrLockPages(void* Address, size_t Size) {

|$LN6|
	str         lr,[sp,#-0x10]!
	sub         sp,sp,#0x20
	str         x0,[sp,#8]
	str         x1,[sp,#0x10]

; 121  : 	uint64_t addr = (uint64_t)Address;

	ldr         x8,[sp,#8]
	str         x8,[sp,#0x18]

; 122  : 	for (size_t i = 0; i < Size; i++) {

	mov         x8,#0
	str         x8,[sp]
	b           |$LN4@AuPmmngrLo|
|$LN2@AuPmmngrLo|
	ldr         x8,[sp]
	add         x8,x8,#1
	str         x8,[sp]
|$LN4@AuPmmngrLo|
	ldr         x9,[sp,#0x10]
	ldr         x8,[sp]
	cmp         x8,x9
	bhs         |$LN3@AuPmmngrLo|

; 123  : 		AuPmmngrLockPage(addr + i * 4096);

	ldr         x9,[sp]
	mov         x8,#0x1000
	mul         x9,x9,x8
	ldr         x8,[sp,#0x18]
	add         x0,x8,x9
	bl          AuPmmngrLockPage

; 124  : 	}

	b           |$LN2@AuPmmngrLo|
|$LN3@AuPmmngrLo|
	add         sp,sp,#0x20
	ldr         lr,[sp],#0x10
	ret

	ENDP  ; |AuPmmngrLockPages|

; Function compile flags: /Odtpy
; File C:\Users\paras\source\repos\grep-name\XenevaOS\KernelAA64\Mm\pmmngr.c

	AREA	|.text$mn|, CODE, ARM64

|AuPmmngrLockPage| PROC

; 104  : void AuPmmngrLockPage(uint64_t Address) {

|$LN5|
	str         lr,[sp,#-0x10]!
	sub         sp,sp,#0x10
	str         x0,[sp,#8]

; 105  : 	uint64_t Index = Address >> PAGE_SHIFT;

	ldr         x8,[sp,#8]
	lsr         x8,x8,#0xC
	str         x8,[sp]

; 106  : 	if (AuPmmngrBitmapCheck(Index)) return;

	ldr         x0,[sp]
	bl          AuPmmngrBitmapCheck
	uxtb        w8,w0
	mov         w8,w8
	cmp         w8,#0
	beq         |$LN2@AuPmmngrLo|
	b           |$LN1@AuPmmngrLo|
|$LN2@AuPmmngrLo|

; 107  : 	if (AuPmmngrBitmapSet(Index, true)) {

	mov         w1,#1
	ldr         x0,[sp]
	bl          AuPmmngrBitmapSet
	uxtb        w8,w0
	mov         w8,w8
	cmp         w8,#0
	beq         |$LN3@AuPmmngrLo|

; 108  : 		_FreeMemory--;

	adrp        x8,_FreeMemory
	ldr         x8,[x8,PageOffset(_FreeMemory)]
	sub         x9,x8,#1
	adrp        x8,_FreeMemory
	str         x9,[x8,PageOffset(_FreeMemory)]

; 109  : 		_ReservedMemory++;

	adrp        x8,_ReservedMemory
	ldr         x8,[x8,PageOffset(_ReservedMemory)]
	add         x9,x8,#1
	adrp        x8,_ReservedMemory
	str         x9,[x8,PageOffset(_ReservedMemory)]
|$LN3@AuPmmngrLo|
|$LN1@AuPmmngrLo|
	add         sp,sp,#0x10
	ldr         lr,[sp],#0x10
	ret

	ENDP  ; |AuPmmngrLockPage|

; Function compile flags: /Odtpy
; File C:\Users\paras\source\repos\grep-name\XenevaOS\KernelAA64\Mm\pmmngr.c

	AREA	|.text$mn|, CODE, ARM64

|AuPmmngrBitmapSet| PROC

; 87   : bool AuPmmngrBitmapSet(uint64_t index, bool value) {

|$LN5|
	sub         sp,sp,#0x20
	str         x0,[sp,#0x10]
	uxtb        w8,w1
	strb        w8,[sp,#2]

; 88   : 	if (index >= _BitmapSize * 8) return false;

	adrp        x8,_BitmapSize
	ldr         x9,[x8,PageOffset(_BitmapSize)]
	mov         x8,#8
	mul         x9,x9,x8
	ldr         x8,[sp,#0x10]
	cmp         x8,x9
	blo         |$LN2@AuPmmngrBi|
	mov         w0,#0
	b           |$LN1@AuPmmngrBi|
|$LN2@AuPmmngrBi|

; 89   : 	size_t ByteIndex = index / 8;

	ldr         x9,[sp,#0x10]
	mov         x8,#8
	udiv        x8,x9,x8
	str         x8,[sp,#8]

; 90   : 	uint8_t BitIndex = index % 8;

	ldr         x10,[sp,#0x10]
	mov         x9,#8
	udiv        x8,x10,x9
	mul         x8,x8,x9
	sub         x8,x10,x8
	uxtb        w8,w8
	strb        w8,[sp,#1]

; 91   : 	uint8_t BitIndexer = 0x80 >> BitIndex;

	ldrb        w9,[sp,#1]
	mov         w9,w9
	mov         w8,#0x80
	asr         w8,w8,w9
	uxtb        w8,w8
	strb        w8,[sp]

; 92   : 
; 93   : 	BitmapBuffer[ByteIndex] &= ~BitIndexer;

	ldr         x9,[sp,#8]
	mov         x8,#1
	mul         x9,x9,x8
	adrp        x8,BitmapBuffer
	ldr         x8,[x8,PageOffset(BitmapBuffer)]
	add         x10,x8,x9
	ldrb        w8,[sp]
	mov         w8,w8
	mvn         w9,w8
	ldrb        w8,[x10]
	mov         w8,w8
	and         w10,w8,w9
	ldr         x9,[sp,#8]
	mov         x8,#1
	mul         x9,x9,x8
	adrp        x8,BitmapBuffer
	ldr         x8,[x8,PageOffset(BitmapBuffer)]
	add         x9,x8,x9
	uxtb        w8,w10
	strb        w8,[x9]

; 94   : 	if (value)

	ldrb        w8,[sp,#2]
	mov         w8,w8
	cmp         w8,#0
	beq         |$LN3@AuPmmngrBi|

; 95   : 		BitmapBuffer[ByteIndex] |= BitIndexer;

	ldr         x9,[sp,#8]
	mov         x8,#1
	mul         x9,x9,x8
	adrp        x8,BitmapBuffer
	ldr         x8,[x8,PageOffset(BitmapBuffer)]
	add         x8,x8,x9
	ldrb        w9,[sp]
	mov         w9,w9
	ldrb        w8,[x8]
	mov         w8,w8
	orr         w10,w8,w9
	ldr         x9,[sp,#8]
	mov         x8,#1
	mul         x9,x9,x8
	adrp        x8,BitmapBuffer
	ldr         x8,[x8,PageOffset(BitmapBuffer)]
	add         x9,x8,x9
	uxtb        w8,w10
	strb        w8,[x9]
|$LN3@AuPmmngrBi|

; 96   : 	return true;

	mov         w0,#1
|$LN1@AuPmmngrBi|
	add         sp,sp,#0x20
	ret

	ENDP  ; |AuPmmngrBitmapSet|

; Function compile flags: /Odtpy
; File C:\Users\paras\source\repos\grep-name\XenevaOS\KernelAA64\Mm\pmmngr.c

	AREA	|.text$mn|, CODE, ARM64

|AuPmmngrBitmapCheck| PROC

; 72   : bool AuPmmngrBitmapCheck(uint64_t index) {

|$LN6|
	str         lr,[sp,#-0x10]!
	sub         sp,sp,#0x20
	str         x0,[sp,#8]

; 73   : 	if (index >= _BitmapSize * 8) return false;

	adrp        x8,_BitmapSize
	ldr         x9,[x8,PageOffset(_BitmapSize)]
	mov         x8,#8
	mul         x9,x9,x8
	ldr         x8,[sp,#8]
	cmp         x8,x9
	blo         |$LN2@AuPmmngrBi|
	mov         w0,#0
	b           |$LN1@AuPmmngrBi|
|$LN2@AuPmmngrBi|

; 74   : 	size_t ByteIndex = index / 8;

	ldr         x9,[sp,#8]
	mov         x8,#8
	udiv        x8,x9,x8
	str         x8,[sp,#0x10]

; 75   : 	uint8_t BitIndex = index % 8;

	ldr         x10,[sp,#8]
	mov         x9,#8
	udiv        x8,x10,x9
	mul         x8,x8,x9
	sub         x8,x10,x8
	uxtb        w8,w8
	strb        w8,[sp,#1]

; 76   : 	uint8_t BitIndexer = 0x80 >> BitIndex;

	ldrb        w9,[sp,#1]
	mov         w9,w9
	mov         w8,#0x80
	asr         w8,w8,w9
	uxtb        w8,w8
	strb        w8,[sp]

; 77   : 
; 78   : 	if ((BitmapBuffer[ByteIndex] & BitIndexer) > 0) {

	ldr         x9,[sp,#0x10]
	mov         x8,#1
	mul         x9,x9,x8
	adrp        x8,BitmapBuffer
	ldr         x8,[x8,PageOffset(BitmapBuffer)]
	add         x8,x8,x9
	ldrb        w9,[x8]
	mov         w9,w9
	ldrb        w8,[sp]
	mov         w8,w8
	and         w8,w9,w8
	cmp         w8,#0
	ble         |$LN3@AuPmmngrBi|

; 79   : 		return true;

	mov         w0,#1
	b           |$LN1@AuPmmngrBi|
|$LN3@AuPmmngrBi|

; 80   : 	}
; 81   : 	if (debugon)

	adrp        x8,debugon
	ldrb        w8,[x8,PageOffset(debugon)]
	mov         w8,w8
	cmp         w8,#0
	beq         |$LN4@AuPmmngrBi|

; 82   : 		AuTextOut("Bit -> %d Index -> %d \n", (BitmapBuffer[ByteIndex] & BitIndexer), index);

	ldr         x9,[sp,#0x10]
	mov         x8,#1
	mul         x9,x9,x8
	adrp        x8,BitmapBuffer
	ldr         x8,[x8,PageOffset(BitmapBuffer)]
	add         x8,x8,x9
	ldrb        w9,[x8]
	mov         w9,w9
	ldrb        w8,[sp]
	mov         w8,w8
	and         w1,w9,w8
	ldr         x2,[sp,#8]
	mov         w1,w1
	adrp        x8,|$SG2756|
	add         x0,x8,PageOffset(|$SG2756|)
	bl          AuTextOut
|$LN4@AuPmmngrBi|

; 83   : 	//return ((Buffer[ByteIndex] & BitIndexer) != 0);
; 84   : 	return false;

	mov         w0,#0
|$LN1@AuPmmngrBi|
	add         sp,sp,#0x20
	ldr         lr,[sp],#0x10
	ret

	ENDP  ; |AuPmmngrBitmapCheck|

; Function compile flags: /Odtpy
; File C:\Users\paras\source\repos\grep-name\XenevaOS\KernelAA64\Mm\pmmngr.c

	AREA	|.text$mn|, CODE, ARM64

|AuPmmngrInitBitmap| PROC

; 66   : void AuPmmngrInitBitmap(size_t BSize, void* Buffer) {

|$LN3|
	str         lr,[sp,#-0x10]!
	sub         sp,sp,#0x10
	str         x0,[sp]
	str         x1,[sp,#8]

; 67   : 	BitmapBuffer = (uint8_t*)Buffer;

	adrp        x9,BitmapBuffer
	ldr         x8,[sp,#8]
	str         x8,[x9,PageOffset(BitmapBuffer)]

; 68   : 	memset(BitmapBuffer, 0, BSize);

	ldr         x2,[sp]
	mov         w1,#0
	adrp        x8,BitmapBuffer
	ldr         x0,[x8,PageOffset(BitmapBuffer)]
	bl          memset

; 69   : 	_BitmapSize = BSize;

	adrp        x9,_BitmapSize
	ldr         x8,[sp]
	str         x8,[x9,PageOffset(_BitmapSize)]
	add         sp,sp,#0x10
	ldr         lr,[sp],#0x10
	ret

	ENDP  ; |AuPmmngrInitBitmap|

; Function compile flags: /Odtpy
; File C:\Users\paras\source\repos\grep-name\XenevaOS\KernelAA64\Mm\pmmngr.c

	AREA	|.text$mn|, CODE, ARM64

|AuPmmngrSetPageType| PROC

; 496  : void AuPmmngrSetPageType(uint64_t physaddr,uint8_t flags) {

|$LN5|
	sub         sp,sp,#0x10
	str         x0,[sp,#8]
	uxtb        w8,w1
	strb        w8,[sp]

; 497  : 
; 498  : 	/** check if page is kernel or dma, if yes then 
; 499  : 	 * normal bit should be removed, because kernel
; 500  : 	 * will treat kernel or dma pages differently
; 501  : 	 */
; 502  : 	if (flags & AURORA_PAGE_KERNEL)

	ldrb        w8,[sp]
	mov         w8,w8
	sxtw        x8,w8
	tbz         x8,#0,|$LN2@AuPmmngrSe|

; 503  : 		flags &= ~AURORA_PAGE_NORMAL;

	ldrb        w8,[sp]
	mov         w8,w8
	sxtw        x8,w8
	and         x8,x8,#-9
	uxtb        w8,w8
	strb        w8,[sp]
|$LN2@AuPmmngrSe|

; 504  : 	if (flags & AURORA_PAGE_DMA)

	ldrb        w8,[sp]
	mov         w8,w8
	sxtw        x8,w8
	tbz         x8,#2,|$LN3@AuPmmngrSe|

; 505  : 		flags &= ~AURORA_PAGE_NORMAL;

	ldrb        w8,[sp]
	mov         w8,w8
	sxtw        x8,w8
	and         x8,x8,#-9
	uxtb        w8,w8
	strb        w8,[sp]
|$LN3@AuPmmngrSe|

; 506  : 	page_desc[physaddr >> PAGE_SHIFT].page_type = flags;

	ldr         x8,[sp,#8]
	lsr         x9,x8,#0xC
	mov         x8,#0x28
	mul         x9,x9,x8
	adrp        x8,page_desc
	ldr         x8,[x8,PageOffset(page_desc)]
	add         x8,x8,x9
	add         x9,x8,#0x18
	ldrb        w8,[sp]
	strb        w8,[x9]
	add         sp,sp,#0x10
	ret

	ENDP  ; |AuPmmngrSetPageType|

; Function compile flags: /Odtpy
; File C:\Users\paras\source\repos\grep-name\XenevaOS\KernelAA64\Mm\pmmngr.c

	AREA	|.text$mn|, CODE, ARM64

|AuPmmngrGetPageDesc| PROC

; 487  : AuPageDesc* AuPmmngrGetPageDesc(uint64_t physaddr) {

|$LN3|
	sub         sp,sp,#0x10
	str         x0,[sp]

; 488  : 	return &page_desc[physaddr >> PAGE_SHIFT];

	ldr         x8,[sp]
	lsr         x9,x8,#0xC
	mov         x8,#0x28
	mul         x9,x9,x8
	adrp        x8,page_desc
	ldr         x8,[x8,PageOffset(page_desc)]
	add         x0,x8,x9
	add         sp,sp,#0x10
	ret

	ENDP  ; |AuPmmngrGetPageDesc|

; Function compile flags: /Odtpy
; File C:\Users\paras\source\repos\grep-name\XenevaOS\KernelAA64\Mm\pmmngr.c

	AREA	|.text$mn|, CODE, ARM64

|AuPmmngrGetRefcount| PROC

; 478  : uint16_t AuPmmngrGetRefcount(uint64_t physaddr) {

|$LN3|
	sub         sp,sp,#0x10
	str         x0,[sp]

; 479  : 	return page_desc[physaddr >> PAGE_SHIFT].refcount;

	ldr         x8,[sp]
	lsr         x9,x8,#0xC
	mov         x8,#0x28
	mul         x9,x9,x8
	adrp        x8,page_desc
	ldr         x8,[x8,PageOffset(page_desc)]
	add         x8,x8,x9
	add         x8,x8,#8
	ldrh        w0,[x8]
	add         sp,sp,#0x10
	ret

	ENDP  ; |AuPmmngrGetRefcount|

; Function compile flags: /Odtpy
; File C:\Users\paras\source\repos\grep-name\XenevaOS\KernelAA64\Mm\pmmngr.c

	AREA	|.text$mn|, CODE, ARM64

|AuPmmngrAddRefcount| PROC

; 467  : void AuPmmngrAddRefcount(uint64_t physaddr, uint16_t count) {

|$LN3|
	sub         sp,sp,#0x10
	str         x0,[sp,#8]
	uxth        w8,w1
	strh        w8,[sp]

; 468  : 	page_desc[physaddr >> PAGE_SHIFT].refcount += count;

	ldr         x8,[sp,#8]
	lsr         x9,x8,#0xC
	mov         x8,#0x28
	mul         x9,x9,x8
	adrp        x8,page_desc
	ldr         x8,[x8,PageOffset(page_desc)]
	add         x8,x8,x9
	add         x8,x8,#8
	ldrh        w9,[sp]
	mov         w9,w9
	ldrh        w8,[x8]
	mov         w8,w8
	add         w10,w8,w9
	ldr         x8,[sp,#8]
	lsr         x9,x8,#0xC
	mov         x8,#0x28
	mul         x9,x9,x8
	adrp        x8,page_desc
	ldr         x8,[x8,PageOffset(page_desc)]
	add         x8,x8,x9
	add         x9,x8,#8
	uxth        w8,w10
	strh        w8,[x9]
	add         sp,sp,#0x10
	ret

	ENDP  ; |AuPmmngrAddRefcount|

; Function compile flags: /Odtpy
; File C:\Users\paras\source\repos\grep-name\XenevaOS\KernelAA64\Mm\pmmngr.c

	AREA	|.text$mn|, CODE, ARM64

|AuPmmngrGetTotalMem| PROC

; 457  : 	return _TotalRam;

	adrp        x8,_TotalRam
	ldr         x0,[x8,PageOffset(_TotalRam)]
	ret

	ENDP  ; |AuPmmngrGetTotalMem|

; Function compile flags: /Odtpy
; File C:\Users\paras\source\repos\grep-name\XenevaOS\KernelAA64\Mm\pmmngr.c

	AREA	|.text$mn|, CODE, ARM64

|AuPmmngrGetUsedMem| PROC

; 449  : 	return _UsedMemory;

	adrp        x8,_UsedMemory
	ldr         x0,[x8,PageOffset(_UsedMemory)]
	ret

	ENDP  ; |AuPmmngrGetUsedMem|

; Function compile flags: /Odtpy
; File C:\Users\paras\source\repos\grep-name\XenevaOS\KernelAA64\Mm\pmmngr.c

	AREA	|.text$mn|, CODE, ARM64

|AuPmmngrGetFreeMem| PROC

; 442  : 	return _FreeMemory;

	adrp        x8,_FreeMemory
	ldr         x0,[x8,PageOffset(_FreeMemory)]
	ret

	ENDP  ; |AuPmmngrGetFreeMem|

; Function compile flags: /Odtpy
; File C:\Users\paras\source\repos\grep-name\XenevaOS\KernelAA64\Mm\pmmngr.c

	AREA	|.text$mn|, CODE, ARM64

|AuPmmngrMoveHigher| PROC

; 431  : void AuPmmngrMoveHigher() {

|$LN3|
	str         lr,[sp,#-0x10]!

; 432  : 	_HigherHalf = true;

	adrp        x9,_HigherHalf
	mov         w8,#1
	strb        w8,[x9,PageOffset(_HigherHalf)]

; 433  : 	BitmapBuffer = (uint8_t*)P2V((uint64_t)BitmapBuffer);

	adrp        x8,BitmapBuffer
	ldr         x0,[x8,PageOffset(BitmapBuffer)]
	bl          P2V
	adrp        x8,BitmapBuffer
	str         x0,[x8,PageOffset(BitmapBuffer)]

; 434  : 	page_desc = (AuPageDesc*)P2V((uint64_t)page_desc);

	adrp        x8,page_desc
	ldr         x0,[x8,PageOffset(page_desc)]
	bl          P2V
	adrp        x8,page_desc
	str         x0,[x8,PageOffset(page_desc)]
	ldr         lr,[sp],#0x10
	ret

	ENDP  ; |AuPmmngrMoveHigher|

; Function compile flags: /Odtpy
; File C:\Users\paras\source\repos\grep-name\XenevaOS\KernelAA64\Mm\pmmngr.c

	AREA	|.text$mn|, CODE, ARM64

|V2P|	PROC

; 420  : uint64_t V2P(uint64_t vaddr) {

|$LN5|
	sub         sp,sp,#0x10
	str         x0,[sp]

; 421  : 	if (_HigherHalf)

	adrp        x8,_HigherHalf
	ldrb        w8,[x8,PageOffset(_HigherHalf)]
	mov         w8,w8
	cmp         w8,#0
	beq         |$LN2@V2P|

; 422  : 		return (vaddr - PHYSICAL_MEM_BASE);

	ldr         x9,[sp]
	mov         x8,#-0x800000000000
	sub         x0,x9,x8
	b           |$LN1@V2P|
	b           |$LN3@V2P|
|$LN2@V2P|

; 423  : 	else
; 424  : 		return vaddr;

	ldr         x0,[sp]
|$LN3@V2P|
|$LN1@V2P|
	add         sp,sp,#0x10
	ret

	ENDP  ; |V2P|

; Function compile flags: /Odtpy
; File C:\Users\paras\source\repos\grep-name\XenevaOS\KernelAA64\Mm\pmmngr.c

	AREA	|.text$mn|, CODE, ARM64

|P2V|	PROC

; 409  : uint64_t P2V(uint64_t addr) {

|$LN5|
	sub         sp,sp,#0x10
	str         x0,[sp]

; 410  : 	if (_HigherHalf)

	adrp        x8,_HigherHalf
	ldrb        w8,[x8,PageOffset(_HigherHalf)]
	mov         w8,w8
	cmp         w8,#0
	beq         |$LN2@P2V|

; 411  : 		return (PHYSICAL_MEM_BASE + addr);

	ldr         x9,[sp]
	mov         x8,#-0x800000000000
	add         x0,x9,x8
	b           |$LN1@P2V|
	b           |$LN3@P2V|
|$LN2@P2V|

; 412  : 	else
; 413  : 		return addr;

	ldr         x0,[sp]
|$LN3@P2V|
|$LN1@P2V|
	add         sp,sp,#0x10
	ret

	ENDP  ; |P2V|

; Function compile flags: /Odtpy
; File C:\Users\paras\source\repos\grep-name\XenevaOS\KernelAA64\Mm\pmmngr.c

	AREA	|.text$mn|, CODE, ARM64

|AuPmmngrFreeBlocks| PROC

; 396  : void AuPmmngrFreeBlocks(void* Addr, int Count) {

|$LN6|
	str         lr,[sp,#-0x10]!
	sub         sp,sp,#0x20
	str         x0,[sp,#0x10]
	str         w1,[sp,#4]

; 397  : 	uint64_t Address = (uint64_t)Addr;

	ldr         x8,[sp,#0x10]
	str         x8,[sp,#8]

; 398  : 	for (uint32_t i = 0; i < Count; i++) {

	mov         w8,#0
	str         w8,[sp]
	b           |$LN4@AuPmmngrFr|
|$LN2@AuPmmngrFr|
	ldr         w8,[sp]
	add         w8,w8,#1
	str         w8,[sp]
|$LN4@AuPmmngrFr|
	ldr         w9,[sp,#4]
	ldr         w8,[sp]
	cmp         w8,w9
	bhs         |$LN3@AuPmmngrFr|

; 399  : 		AuPmmngrFree((void*)Address);

	ldr         x0,[sp,#8]
	bl          AuPmmngrFree

; 400  : 		Address += 0x1000;

	ldr         x8,[sp,#8]
	add         x8,x8,#1,lsl #0xC
	str         x8,[sp,#8]

; 401  : 	}

	b           |$LN2@AuPmmngrFr|
|$LN3@AuPmmngrFr|
	add         sp,sp,#0x20
	ldr         lr,[sp],#0x10
	ret

	ENDP  ; |AuPmmngrFreeBlocks|

; Function compile flags: /Odtpy
; File C:\Users\paras\source\repos\grep-name\XenevaOS\KernelAA64\Mm\pmmngr.c

	AREA	|.text$mn|, CODE, ARM64

|AuPmmngrFree| PROC

; 369  : void AuPmmngrFree(void* Address) {

|$LN7|
	str         lr,[sp,#-0x10]!
	sub         sp,sp,#0x20
	str         x0,[sp,#0x10]

; 370  : 
; 371  : 	uint64_t ShiftAddr = (uint64_t)Address >> PAGE_SHIFT;

	ldr         x8,[sp,#0x10]
	lsr         x8,x8,#0xC
	str         x8,[sp,#8]

; 372  : 	if (page_desc[ShiftAddr].refcount > 1) {

	ldr         x9,[sp,#8]
	mov         x8,#0x28
	mul         x9,x9,x8
	adrp        x8,page_desc
	ldr         x8,[x8,PageOffset(page_desc)]
	add         x8,x8,x9
	add         x8,x8,#8
	ldrh        w8,[x8]
	mov         w8,w8
	cmp         w8,#1
	ble         |$LN2@AuPmmngrFr|

; 373  : 		page_desc[ShiftAddr].refcount -= 1;

	ldr         x9,[sp,#8]
	mov         x8,#0x28
	mul         x9,x9,x8
	adrp        x8,page_desc
	ldr         x8,[x8,PageOffset(page_desc)]
	add         x8,x8,x9
	add         x8,x8,#8
	ldrh        w8,[x8]
	mov         w8,w8
	sub         w10,w8,#1
	ldr         x9,[sp,#8]
	mov         x8,#0x28
	mul         x9,x9,x8
	adrp        x8,page_desc
	ldr         x8,[x8,PageOffset(page_desc)]
	add         x8,x8,x9
	add         x9,x8,#8
	uxth        w8,w10
	strh        w8,[x9]

; 374  : 		return;

	b           |$LN1@AuPmmngrFr|
|$LN2@AuPmmngrFr|

; 375  : 	}
; 376  : 	uint64_t addr = ((uint64_t)Address - UsablePhysicalMemory);

	ldr         x9,[sp,#0x10]
	adrp        x8,UsablePhysicalMemory
	ldr         x8,[x8,PageOffset(UsablePhysicalMemory)]
	sub         x8,x9,x8
	str         x8,[sp,#0x18]

; 377  : 	uint64_t Index = (uint64_t)addr / 4096;

	ldr         x9,[sp,#0x18]
	mov         x8,#0x1000
	udiv        x8,x9,x8
	str         x8,[sp]

; 378  : 	if (AuPmmngrBitmapCheck(Index) == false) return;

	ldr         x0,[sp]
	bl          AuPmmngrBitmapCheck
	uxtb        w8,w0
	mov         w8,w8
	cmp         w8,#0
	bne         |$LN3@AuPmmngrFr|
	b           |$LN1@AuPmmngrFr|
|$LN3@AuPmmngrFr|

; 379  : 	if (AuPmmngrBitmapSet(Index, false)) {

	mov         w1,#0
	ldr         x0,[sp]
	bl          AuPmmngrBitmapSet
	uxtb        w8,w0
	mov         w8,w8
	cmp         w8,#0
	beq         |$LN4@AuPmmngrFr|

; 380  : 		//UARTDebugOut("Was not free actual address : %x\n", Address);
; 381  : 		_FreeMemory++;

	adrp        x8,_FreeMemory
	ldr         x8,[x8,PageOffset(_FreeMemory)]
	add         x9,x8,#1
	adrp        x8,_FreeMemory
	str         x9,[x8,PageOffset(_FreeMemory)]

; 382  : 		_UsedMemory--;

	adrp        x8,_UsedMemory
	ldr         x8,[x8,PageOffset(_UsedMemory)]
	sub         x9,x8,#1
	adrp        x8,_UsedMemory
	str         x9,[x8,PageOffset(_UsedMemory)]

; 383  : 		if (_RamBitmapIndex > Index) {

	ldr         x9,[sp]
	adrp        x8,_RamBitmapIndex
	ldr         x8,[x8,PageOffset(_RamBitmapIndex)]
	cmp         x8,x9
	bls         |$LN5@AuPmmngrFr|

; 384  : 			//UARTDebugOut("RAMIndex was to : %d. set to : %d\n", _RamBitmapIndex, Index);
; 385  : 			_RamBitmapIndex = Index;

	adrp        x9,_RamBitmapIndex
	ldr         x8,[sp]
	str         x8,[x9,PageOffset(_RamBitmapIndex)]
|$LN5@AuPmmngrFr|
|$LN4@AuPmmngrFr|

; 386  : 		}
; 387  : 	}
; 388  : 	dsb_ish();

	bl          dsb_ish
|$LN1@AuPmmngrFr|
	add         sp,sp,#0x20
	ldr         lr,[sp],#0x10
	ret

	ENDP  ; |AuPmmngrFree|

; Function compile flags: /Odtpy
; File C:\Users\paras\source\repos\grep-name\XenevaOS\KernelAA64\Mm\pmmngr.c

	AREA	|.text$mn|, CODE, ARM64

|AuPmmngrAllocBlocks| PROC

; 355  : void* AuPmmngrAllocBlocks(int num) {

|$LN6|
	str         lr,[sp,#-0x10]!
	sub         sp,sp,#0x20
	str         w0,[sp,#4]

; 356  : 	void* First = AuPmmngrAlloc();

	bl          AuPmmngrAlloc
	str         x0,[sp,#8]

; 357  : 	//UARTDebugOut("AuPmmngrAllocBlocks: %x \n", First);
; 358  : 	for (int i = 1; i < num; i++) {

	mov         w8,#1
	str         w8,[sp]
	b           |$LN4@AuPmmngrAl|
|$LN2@AuPmmngrAl|
	ldr         w8,[sp]
	add         w8,w8,#1
	str         w8,[sp]
|$LN4@AuPmmngrAl|
	ldr         w9,[sp,#4]
	ldr         w8,[sp]
	cmp         w8,w9
	bge         |$LN3@AuPmmngrAl|

; 359  : 		void* p = AuPmmngrAlloc();

	bl          AuPmmngrAlloc
	str         x0,[sp,#0x10]

; 360  : 		//UARTDebugOut("AuPmmngrAllocBlocks: %x \n", p);
; 361  : 	}

	b           |$LN2@AuPmmngrAl|
|$LN3@AuPmmngrAl|

; 362  : 	return First;

	ldr         x0,[sp,#8]
	add         sp,sp,#0x20
	ldr         lr,[sp],#0x10
	ret

	ENDP  ; |AuPmmngrAllocBlocks|

; Function compile flags: /Odtpy
; File C:\Users\paras\source\repos\grep-name\XenevaOS\KernelAA64\Mm\pmmngr.c

	AREA	|.text$mn|, CODE, ARM64

|AuPmmngrAlloc| PROC

; 331  : void* AuPmmngrAlloc() {

|$LN10|
	str         lr,[sp,#-0x10]!
	sub         sp,sp,#0x10

; 332  : 	for (; _RamBitmapIndex < _BitmapSize * 8; _RamBitmapIndex++) {

	b           |$LN4@AuPmmngrAl|
|$LN2@AuPmmngrAl|
	adrp        x8,_RamBitmapIndex
	ldr         x8,[x8,PageOffset(_RamBitmapIndex)]
	add         x9,x8,#1
	adrp        x8,_RamBitmapIndex
	str         x9,[x8,PageOffset(_RamBitmapIndex)]
|$LN4@AuPmmngrAl|
	adrp        x8,_BitmapSize
	ldr         x9,[x8,PageOffset(_BitmapSize)]
	mov         x8,#8
	mul         x9,x9,x8
	adrp        x8,_RamBitmapIndex
	ldr         x8,[x8,PageOffset(_RamBitmapIndex)]
	cmp         x8,x9
	bhs         |$LN3@AuPmmngrAl|

; 333  : 		//AuTextOut("  RamBitmap[%d] -> %d   ",_RamBitmapIndex, RamBitmap[_RamBitmapIndex]);
; 334  : 		if (AuPmmngrBitmapCheck(_RamBitmapIndex)) continue;

	adrp        x8,_RamBitmapIndex
	ldr         x0,[x8,PageOffset(_RamBitmapIndex)]
	bl          AuPmmngrBitmapCheck
	uxtb        w8,w0
	mov         w8,w8
	cmp         w8,#0
	beq         |$LN8@AuPmmngrAl|
	b           |$LN2@AuPmmngrAl|
|$LN8@AuPmmngrAl|

; 335  : 		AuPmmngrLockPage(_RamBitmapIndex * 4096);

	adrp        x8,_RamBitmapIndex
	ldr         x9,[x8,PageOffset(_RamBitmapIndex)]
	mov         x8,#0x1000
	mul         x0,x9,x8
	bl          AuPmmngrLockPage

; 336  : 		_UsedMemory++;

	adrp        x8,_UsedMemory
	ldr         x8,[x8,PageOffset(_UsedMemory)]
	add         x9,x8,#1
	adrp        x8,_UsedMemory
	str         x9,[x8,PageOffset(_UsedMemory)]

; 337  : 		uint64_t index = _RamBitmapIndex;

	adrp        x8,_RamBitmapIndex
	ldr         x8,[x8,PageOffset(_RamBitmapIndex)]
	str         x8,[sp]

; 338  : 		//UARTDebugOut("AuPmmngrAlloc: RamBitmapIndex : %d %x \n", _RamBitmapIndex, (UsablePhysicalMemory + (index * 4096)));
; 339  : 		page_desc[(UsablePhysicalMemory + (index * PAGE_SIZE)) >> PAGE_SHIFT].refcount = 1;

	ldr         x9,[sp]
	mov         x8,#0x1000
	mul         x9,x9,x8
	adrp        x8,UsablePhysicalMemory
	ldr         x8,[x8,PageOffset(UsablePhysicalMemory)]
	add         x8,x8,x9
	lsr         x9,x8,#0xC
	mov         x8,#0x28
	mul         x9,x9,x8
	adrp        x8,page_desc
	ldr         x8,[x8,PageOffset(page_desc)]
	add         x8,x8,x9
	add         x9,x8,#8
	mov         w8,#1
	strh        w8,[x9]

; 340  : 		page_desc[(UsablePhysicalMemory + (index * PAGE_SIZE)) >> PAGE_SHIFT].phys_addr = 

	ldr         x9,[sp]
	mov         x8,#0x1000
	mul         x9,x9,x8
	adrp        x8,UsablePhysicalMemory
	ldr         x8,[x8,PageOffset(UsablePhysicalMemory)]
	add         x10,x8,x9
	ldr         x9,[sp]
	mov         x8,#0x1000
	mul         x9,x9,x8
	adrp        x8,UsablePhysicalMemory
	ldr         x8,[x8,PageOffset(UsablePhysicalMemory)]
	add         x8,x8,x9
	lsr         x9,x8,#0xC
	mov         x8,#0x28
	mul         x9,x9,x8
	adrp        x8,page_desc
	ldr         x8,[x8,PageOffset(page_desc)]
	add         x8,x8,x9
	str         x10,[x8]

; 341  : 			(UsablePhysicalMemory + (index * PAGE_SIZE));
; 342  : 		page_desc[(UsablePhysicalMemory + (index * PAGE_SIZE)) >> PAGE_SHIFT].diskblock = -1;

	ldr         x9,[sp]
	mov         x8,#0x1000
	mul         x9,x9,x8
	adrp        x8,UsablePhysicalMemory
	ldr         x8,[x8,PageOffset(UsablePhysicalMemory)]
	add         x8,x8,x9
	lsr         x9,x8,#0xC
	mov         x8,#0x28
	mul         x9,x9,x8
	adrp        x8,page_desc
	ldr         x8,[x8,PageOffset(page_desc)]
	add         x8,x8,x9
	add         x9,x8,#0x20
	mov         x8,#-1
	str         x8,[x9]

; 343  : 	//	UARTDebugOut("Page desc : %x \r\n", &page_desc[(UsablePhysicalMemory + (index * PAGE_SIZE)) >> PAGE_SHIFT]);
; 344  : 		return (void*)(UsablePhysicalMemory + (index * 4096));

	ldr         x9,[sp]
	mov         x8,#0x1000
	mul         x9,x9,x8
	adrp        x8,UsablePhysicalMemory
	ldr         x8,[x8,PageOffset(UsablePhysicalMemory)]
	add         x0,x8,x9
	b           |$LN1@AuPmmngrAl|

; 345  : 	}

	b           |$LN2@AuPmmngrAl|
|$LN3@AuPmmngrAl|

; 346  : 	AuTextOut("Kernel Panic!!! No more physical memory \n");

	adrp        x8,|$SG2929|
	add         x0,x8,PageOffset(|$SG2929|)
	bl          AuTextOut
|$LN5@AuPmmngrAl|

; 347  : 	for (;;);

	b           |$LN5@AuPmmngrAl|
|$LN1@AuPmmngrAl|
	add         sp,sp,#0x10
	ldr         lr,[sp],#0x10
	ret

	ENDP  ; |AuPmmngrAlloc|

; Function compile flags: /Odtpy
; File C:\Users\paras\source\repos\grep-name\XenevaOS\KernelAA64\Mm\pmmngr.c

	AREA	|.text$mn|, CODE, ARM64

|AuPmmngrInitialize| PROC

; 146  : void AuPmmngrInitialize(KERNEL_BOOT_INFO* info) {

|$LN49|
	str         lr,[sp,#-0x10]!
	sub         sp,sp,#0x130
	str         x0,[sp,#0x10]

; 147  : 
; 148  : 	/*
; 149  : 	 * TODO: UEFI has a good memory map, which describes which areas are usable and
; 150  : 	 * which are reserved, but for LittleBoot based memory map takes the starting of usable
; 151  : 	 * ram directly, and start sectioning the ram into usable and unusable area, below
; 152  : 	 * the starting of usable area, those areas are for hardware mmio reserved. Basically
; 153  : 	 * in this Pmmngr, it only takes the starting area for examplae, 0x40000000 in QEMU, and 
; 154  : 	 * search a suitable bitmap area from that area, and mark the usable area from bitmap_area + 
; 155  : 	 * bitmapsize, which is not a design approach, the design should be make the usable area
; 156  : 	 * from 0x0 of RAM and reserve all the Hardware mmio reserved memories, the usable_area
; 157  : 	 * marker will automatically come to 0x40000000
; 158  : 	 */
; 159  : 	debugon = 0;

	adrp        x9,debugon
	mov         w8,#0
	strb        w8,[x9,PageOffset(debugon)]

; 160  : 	_FreeMemory = 0;

	adrp        x9,_FreeMemory
	mov         x8,#0
	str         x8,[x9,PageOffset(_FreeMemory)]

; 161  : 	_BitmapSize = 0;

	adrp        x9,_BitmapSize
	mov         x8,#0
	str         x8,[x9,PageOffset(_BitmapSize)]

; 162  : 	_TotalRam = 0;

	adrp        x9,_TotalRam
	mov         x8,#0
	str         x8,[x9,PageOffset(_TotalRam)]

; 163  : 	_RamBitmapIndex = 0;

	adrp        x9,_RamBitmapIndex
	mov         x8,#0
	str         x8,[x9,PageOffset(_RamBitmapIndex)]

; 164  : 	BitmapBuffer = 0;

	adrp        x9,BitmapBuffer
	mov         x8,#0
	str         x8,[x9,PageOffset(BitmapBuffer)]

; 165  : 	uint64_t MemMapEntries = 0; 

	mov         x8,#0
	str         x8,[sp,#0x88]

; 166  : 	void* BitmapArea = 0;

	mov         x8,#0
	str         x8,[sp,#0x38]

; 167  : 	bool print = 0;

	mov         w8,#0
	strb        w8,[sp]

; 168  : 	
; 169  : 	if (info->boot_type != BOOT_LITTLEBOOT_ARM64) {

	ldr         x8,[sp,#0x10]
	ldr         w8,[x8]
	cmp         w8,#3
	beq         |$LN31@AuPmmngrIn|

; 170  : 		MemMapEntries = info->mem_map_size / info->descriptor_size;

	ldr         x8,[sp,#0x10]
	add         x9,x8,#0x28
	ldr         x8,[sp,#0x10]
	add         x8,x8,#0x20
	ldr         x9,[x9]
	ldr         x8,[x8]
	cbnz        x8,|$LN48@AuPmmngrIn|
	brk         #0xF004
|$LN48@AuPmmngrIn|
	udiv        x8,x9,x8
	str         x8,[sp,#0x88]

; 171  : 		/* Scan a suitable area for the bitmap */
; 172  : 		for (size_t i = 0; i < MemMapEntries; i++) {

	mov         x8,#0
	str         x8,[sp,#0x58]
	b           |$LN4@AuPmmngrIn|
|$LN2@AuPmmngrIn|
	ldr         x8,[sp,#0x58]
	add         x8,x8,#1
	str         x8,[sp,#0x58]
|$LN4@AuPmmngrIn|
	ldr         x9,[sp,#0x88]
	ldr         x8,[sp,#0x58]
	cmp         x8,x9
	bhs         |$LN3@AuPmmngrIn|

; 173  : 			EFI_MEMORY_DESCRIPTOR* EfiMem = (EFI_MEMORY_DESCRIPTOR*)((uint64_t)info->map + i * info->descriptor_size);

	ldr         x8,[sp,#0x10]
	add         x10,x8,#0x18
	ldr         x8,[sp,#0x10]
	add         x8,x8,#0x20
	ldr         x9,[sp,#0x58]
	ldr         x8,[x8]
	mul         x9,x9,x8
	ldr         x8,[x10]
	add         x8,x8,x9
	str         x8,[sp,#8]

; 174  : 		
; 175  : 			if (EfiMem->type == 7) {

	ldr         x8,[sp,#8]
	ldr         w8,[x8]
	cmp         w8,#7
	bne         |$LN33@AuPmmngrIn|

; 176  : 				_TotalRam += EfiMem->num_pages;

	ldr         x8,[sp,#8]
	add         x10,x8,#0x18
	adrp        x8,_TotalRam
	ldr         x9,[x8,PageOffset(_TotalRam)]
	ldr         x8,[x10]
	add         x9,x9,x8
	adrp        x8,_TotalRam
	str         x9,[x8,PageOffset(_TotalRam)]

; 177  : 				if (((EfiMem->num_pages * 4096) > 0x1F0000) && BitmapArea == 0) {

	ldr         x8,[sp,#8]
	add         x8,x8,#0x18
	ldr         x9,[x8]
	mov         x8,#0x1000
	mul         x8,x9,x8
	cmp         x8,#0x1F0,lsl #0xC
	bls         |$LN34@AuPmmngrIn|
	ldr         x8,[sp,#0x38]
	cmp         x8,#0
	bne         |$LN34@AuPmmngrIn|

; 178  : 					if ((EfiMem->phys_start & (4096 - 1)) == 0) {

	ldr         x8,[sp,#8]
	add         x8,x8,#8
	ldr         x8,[x8]
	and         x8,x8,#0xFFF
	cmp         x8,#0
	bne         |$LN35@AuPmmngrIn|

; 179  : 						if (!print)

	ldrb        w8,[sp]
	mov         w8,w8
	cmp         w8,#0
	bne         |$LN36@AuPmmngrIn|

; 180  : 							AuTextOut("RAM Starts at -> %x end -> %x \n", EfiMem->phys_start, (EfiMem->phys_start + (EfiMem->num_pages * 4096)));

	ldr         x8,[sp,#8]
	add         x10,x8,#8
	ldr         x8,[sp,#8]
	add         x8,x8,#0x18
	ldr         x9,[x8]
	mov         x8,#0x1000
	mul         x9,x9,x8
	ldr         x8,[x10]
	add         x2,x8,x9
	ldr         x8,[sp,#8]
	add         x8,x8,#8
	ldr         x1,[x8]
	adrp        x8,|$SG2888|
	add         x0,x8,PageOffset(|$SG2888|)
	bl          AuTextOut
|$LN36@AuPmmngrIn|

; 181  : 						BitmapArea = (void*)EfiMem->phys_start; // ((EfiMem->phys_start + 0xFFF) & ~0xFFF);

	ldr         x8,[sp,#8]
	add         x8,x8,#8
	ldr         x8,[x8]
	str         x8,[sp,#0x38]

; 182  : 						print = 0;

	mov         w8,#0
	strb        w8,[sp]
|$LN35@AuPmmngrIn|
|$LN34@AuPmmngrIn|
|$LN33@AuPmmngrIn|

; 183  : 					}
; 184  : 				}
; 185  : 			}
; 186  : 			if (EfiMem->type == 1) {

	ldr         x8,[sp,#8]
	ldr         w8,[x8]
	cmp         w8,#1
	bne         |$LN37@AuPmmngrIn|

; 187  : 				_TotalRam += EfiMem->num_pages;

	ldr         x8,[sp,#8]
	add         x10,x8,#0x18
	adrp        x8,_TotalRam
	ldr         x9,[x8,PageOffset(_TotalRam)]
	ldr         x8,[x10]
	add         x9,x9,x8
	adrp        x8,_TotalRam
	str         x9,[x8,PageOffset(_TotalRam)]
|$LN37@AuPmmngrIn|

; 188  : 			}
; 189  : 			if (EfiMem->type == 2) {

	ldr         x8,[sp,#8]
	ldr         w8,[x8]
	cmp         w8,#2
	bne         |$LN38@AuPmmngrIn|

; 190  : 				_TotalRam += EfiMem->num_pages;

	ldr         x8,[sp,#8]
	add         x10,x8,#0x18
	adrp        x8,_TotalRam
	ldr         x9,[x8,PageOffset(_TotalRam)]
	ldr         x8,[x10]
	add         x9,x9,x8
	adrp        x8,_TotalRam
	str         x9,[x8,PageOffset(_TotalRam)]
|$LN38@AuPmmngrIn|

; 191  : 			}
; 192  : 			if (EfiMem->type == 3) {

	ldr         x8,[sp,#8]
	ldr         w8,[x8]
	cmp         w8,#3
	bne         |$LN39@AuPmmngrIn|

; 193  : 				_TotalRam += EfiMem->num_pages;

	ldr         x8,[sp,#8]
	add         x10,x8,#0x18
	adrp        x8,_TotalRam
	ldr         x9,[x8,PageOffset(_TotalRam)]
	ldr         x8,[x10]
	add         x9,x9,x8
	adrp        x8,_TotalRam
	str         x9,[x8,PageOffset(_TotalRam)]
|$LN39@AuPmmngrIn|

; 194  : 			}
; 195  : 
; 196  : 			if (EfiMem->type == 4) {

	ldr         x8,[sp,#8]
	ldr         w8,[x8]
	cmp         w8,#4
	bne         |$LN40@AuPmmngrIn|

; 197  : 				_TotalRam += EfiMem->num_pages;

	ldr         x8,[sp,#8]
	add         x10,x8,#0x18
	adrp        x8,_TotalRam
	ldr         x9,[x8,PageOffset(_TotalRam)]
	ldr         x8,[x10]
	add         x9,x9,x8
	adrp        x8,_TotalRam
	str         x9,[x8,PageOffset(_TotalRam)]
|$LN40@AuPmmngrIn|

; 198  : 			}
; 199  : 		}

	b           |$LN2@AuPmmngrIn|
|$LN3@AuPmmngrIn|

; 200  : 	}

	b           |$LN32@AuPmmngrIn|
|$LN31@AuPmmngrIn|

; 201  : 	else {
; 202  : 		AuLittleBootProtocol* lb = (AuLittleBootProtocol*)info->driver_entry1;

	ldr         x8,[sp,#0x10]
	add         x8,x8,#0x78
	ldr         x8,[x8]
	str         x8,[sp,#0x30]

; 203  : 		LBMemoryRegion* memRegn = (LBMemoryRegion*)lb->usable_memory_map;

	ldr         x8,[sp,#0x30]
	add         x8,x8,#0x38
	ldr         x8,[x8]
	str         x8,[sp,#0xB0]

; 204  : 
; 205  : 		if (!lb) {

	ldr         x8,[sp,#0x30]
	cmp         x8,#0
	bne         |$LN41@AuPmmngrIn|

; 206  : 			AuTextOut("[aurora]:Booting from non-UEFI boot environment but missing LittleBoot protocol \r\n");

	adrp        x8,|$SG2894|
	add         x0,x8,PageOffset(|$SG2894|)
	bl          AuTextOut

; 207  : 			AuTextOut("[aurora]:Unable to continue Kernel initialization \r\n");

	adrp        x8,|$SG2895|
	add         x0,x8,PageOffset(|$SG2895|)
	bl          AuTextOut
|$LN5@AuPmmngrIn|

; 208  : 			for (;;);

	b           |$LN5@AuPmmngrIn|
|$LN41@AuPmmngrIn|

; 209  : 		}
; 210  : 		for (size_t i = 0; i < lb->usable_region_count; i++) {

	mov         x8,#0
	str         x8,[sp,#0x50]
	b           |$LN10@AuPmmngrIn|
|$LN8@AuPmmngrIn|
	ldr         x8,[sp,#0x50]
	add         x8,x8,#1
	str         x8,[sp,#0x50]
|$LN10@AuPmmngrIn|
	ldr         x8,[sp,#0x30]
	add         x8,x8,#0x40
	ldr         w8,[x8]
	sxtw        x9,w8
	ldr         x8,[sp,#0x50]
	cmp         x8,x9
	bhs         |$LN9@AuPmmngrIn|

; 211  : 			uint64_t base = memRegn[i].base;

	ldr         x9,[sp,#0x50]
	mov         x8,#0x18
	mul         x9,x9,x8
	ldr         x8,[sp,#0xB0]
	add         x8,x8,x9
	ldr         x8,[x8]
	str         x8,[sp,#0xC0]

; 212  : 			uint64_t numPages = memRegn[i].pageCount;

	ldr         x9,[sp,#0x50]
	mov         x8,#0x18
	mul         x9,x9,x8
	ldr         x8,[sp,#0xB0]
	add         x8,x8,x9
	add         x8,x8,#0x10
	ldr         x8,[x8]
	str         x8,[sp,#0xB8]

; 213  : 			if (((numPages * 4096) > 0x1F0000) && BitmapArea == 0) {

	ldr         x9,[sp,#0xB8]
	mov         x8,#0x1000
	mul         x8,x9,x8
	cmp         x8,#0x1F0,lsl #0xC
	bls         |$LN42@AuPmmngrIn|
	ldr         x8,[sp,#0x38]
	cmp         x8,#0
	bne         |$LN42@AuPmmngrIn|

; 214  : 				BitmapArea = (void*)base;

	ldr         x8,[sp,#0xC0]
	str         x8,[sp,#0x38]
|$LN42@AuPmmngrIn|

; 215  : 			}
; 216  : 			AuTextOut("[aurora]: Usable memory Base : %x , PageCount : %d \r\n", base, numPages);

	ldr         x2,[sp,#0xB8]
	ldr         x1,[sp,#0xC0]
	adrp        x8,|$SG2897|
	add         x0,x8,PageOffset(|$SG2897|)
	bl          AuTextOut

; 217  : 		}

	b           |$LN8@AuPmmngrIn|
|$LN9@AuPmmngrIn|

; 218  : 		_TotalRam = lb->numberOfPages;

	ldr         x8,[sp,#0x30]
	add         x8,x8,#0x58
	adrp        x9,_TotalRam
	ldr         x8,[x8]
	str         x8,[x9,PageOffset(_TotalRam)]

; 219  : 		AuTextOut("Total Ram : %d Pages \r\n", _TotalRam);

	adrp        x8,_TotalRam
	ldr         x1,[x8,PageOffset(_TotalRam)]
	adrp        x8,|$SG2898|
	add         x0,x8,PageOffset(|$SG2898|)
	bl          AuTextOut

; 220  : 		AuTextOut("Memory Start : %x, Memory End : %x \r\n", lb->physicalStart, lb->physicalEnd);

	ldr         x8,[sp,#0x30]
	add         x9,x8,#0x50
	ldr         x8,[sp,#0x30]
	add         x8,x8,#0x48
	ldr         x2,[x9]
	ldr         x1,[x8]
	adrp        x8,|$SG2899|
	add         x0,x8,PageOffset(|$SG2899|)
	bl          AuTextOut
|$LN32@AuPmmngrIn|

; 221  : 	}
; 222  : 
; 223  : 	//AuPmmngrEarlyVMSetup(info);
; 224  : 
; 225  : 	_FreeMemory = _TotalRam;

	adrp        x9,_FreeMemory
	adrp        x8,_TotalRam
	ldr         x8,[x8,PageOffset(_TotalRam)]
	str         x8,[x9,PageOffset(_FreeMemory)]

; 226  : 	AuTextOut("Total RAM : %x \r\n", (_TotalRam * 0x1000));

	adrp        x8,_TotalRam
	ldr         x9,[x8,PageOffset(_TotalRam)]
	mov         x8,#0x1000
	mul         x1,x9,x8
	adrp        x8,|$SG2900|
	add         x0,x8,PageOffset(|$SG2900|)
	bl          AuTextOut

; 227  : 
; 228  : 
; 229  : 
; 230  : 	uint64_t BitmapSize = (_TotalRam / 8) + 1; // (_TotalRam * 4096) / 4096 / 8 + 1;

	adrp        x8,_TotalRam
	ldr         x9,[x8,PageOffset(_TotalRam)]
	mov         x8,#8
	udiv        x8,x9,x8
	add         x8,x8,#1
	str         x8,[sp,#0x68]

; 231  : 	uint64_t page_desc_addr = (uint64_t)BitmapArea + BitmapSize;

	ldr         x9,[sp,#0x38]
	ldr         x8,[sp,#0x68]
	add         x8,x9,x8
	str         x8,[sp,#0x60]

; 232  : 	page_desc_addr = ALIGN_UP(page_desc_addr, 64);

	ldr         x8,[sp,#0x60]
	add         x8,x8,#0x40
	sub         x9,x8,#1
	mov         x8,#0x40
	udiv        x9,x9,x8
	mov         x8,#0x40
	mul         x8,x9,x8
	str         x8,[sp,#0x60]

; 233  : 	page_desc = (AuPageDesc*)page_desc_addr;

	adrp        x9,page_desc
	ldr         x8,[sp,#0x60]
	str         x8,[x9,PageOffset(page_desc)]

; 234  : 	total_page_desc_count = _TotalRam;

	adrp        x8,_TotalRam
	ldr         x8,[x8,PageOffset(_TotalRam)]
	mov         w9,w8
	adrp        x8,total_page_desc_count
	str         w9,[x8,PageOffset(total_page_desc_count)]

; 235  : 	size_t page_desc_len = total_page_desc_count * sizeof(AuPageDesc);

	adrp        x8,total_page_desc_count
	ldr         w8,[x8,PageOffset(total_page_desc_count)]
	uxtw        x9,w8
	mov         x8,#0x28
	mul         x8,x9,x8
	str         x8,[sp,#0xE0]

; 236  : 	UsablePhysicalMemory = (uint64_t)page_desc_addr + page_desc_len;

	ldr         x9,[sp,#0x60]
	ldr         x8,[sp,#0xE0]
	add         x9,x9,x8
	adrp        x8,UsablePhysicalMemory
	str         x9,[x8,PageOffset(UsablePhysicalMemory)]

; 237  : 	UsablePhysicalMemory = (UsablePhysicalMemory + (PAGE_SIZE - 1)) & ~(uint64_t)(PAGE_SIZE - 1);

	adrp        x8,UsablePhysicalMemory
	ldr         x8,[x8,PageOffset(UsablePhysicalMemory)]
	add         x8,x8,#0xFFF
	and         x9,x8,#-0x1000
	adrp        x8,UsablePhysicalMemory
	str         x9,[x8,PageOffset(UsablePhysicalMemory)]

; 238  : 
; 239  : 
; 240  : 	AuTextOut("Usable RAM Start : %x, TotalRAM : %x \r\n", UsablePhysicalMemory, _TotalRam);

	adrp        x8,_TotalRam
	ldr         x2,[x8,PageOffset(_TotalRam)]
	adrp        x8,UsablePhysicalMemory
	ldr         x1,[x8,PageOffset(UsablePhysicalMemory)]
	adrp        x8,|$SG2901|
	add         x0,x8,PageOffset(|$SG2901|)
	bl          AuTextOut

; 241  : 	AuTextOut("LastPage : %x \r\n", (_TotalRam * 4096));

	adrp        x8,_TotalRam
	ldr         x9,[x8,PageOffset(_TotalRam)]
	mov         x8,#0x1000
	mul         x1,x9,x8
	adrp        x8,|$SG2902|
	add         x0,x8,PageOffset(|$SG2902|)
	bl          AuTextOut

; 242  : 
; 243  : 	/* now initialise the bitmap */
; 244  : 	AuPmmngrInitBitmap(BitmapSize, BitmapArea);

	ldr         x1,[sp,#0x38]
	ldr         x0,[sp,#0x68]
	bl          AuPmmngrInitBitmap

; 245  : 	AuTextOut("Bitmap Size : %x %d \r\n", BitmapSize, BitmapSize);

	ldr         x2,[sp,#0x68]
	ldr         x1,[sp,#0x68]
	adrp        x8,|$SG2903|
	add         x0,x8,PageOffset(|$SG2903|)
	bl          AuTextOut

; 246  : 	//AuPmmngrLockPages((void*)BitmapArea, BitmapSize);
; 247  : 	//AuPmmngrLockPages((void*)page_desc_addr, total_page_desc_count);
; 248  : 
; 249  : 	if (info->boot_type != BOOT_LITTLEBOOT_ARM64) {

	ldr         x8,[sp,#0x10]
	ldr         w8,[x8]
	cmp         w8,#3
	beq         |$LN43@AuPmmngrIn|

; 250  : 		for (size_t i = 0; i < MemMapEntries; i++) {

	mov         x8,#0
	str         x8,[sp,#0x70]
	b           |$LN13@AuPmmngrIn|
|$LN11@AuPmmngrIn|
	ldr         x8,[sp,#0x70]
	add         x8,x8,#1
	str         x8,[sp,#0x70]
|$LN13@AuPmmngrIn|
	ldr         x9,[sp,#0x88]
	ldr         x8,[sp,#0x70]
	cmp         x8,x9
	bhs         |$LN12@AuPmmngrIn|

; 251  : 			EFI_MEMORY_DESCRIPTOR* EfiMem = (EFI_MEMORY_DESCRIPTOR*)((uint64_t)info->map + i * info->descriptor_size);

	ldr         x8,[sp,#0x10]
	add         x10,x8,#0x18
	ldr         x8,[sp,#0x10]
	add         x8,x8,#0x20
	ldr         x9,[sp,#0x70]
	ldr         x8,[x8]
	mul         x9,x9,x8
	ldr         x8,[x10]
	add         x8,x8,x9
	str         x8,[sp,#0x28]

; 252  : 			//_TotalRam += EfiMem->num_pages;
; 253  : 			if (EfiMem->type != 7 || EfiMem->type != 1 || EfiMem->type != 2 ||
; 254  : 				EfiMem->type != 3 || EfiMem->type != 4) {

	ldr         x8,[sp,#0x28]
	ldr         w8,[x8]
	cmp         w8,#7
	bne         |$LN45@AuPmmngrIn|
	ldr         x8,[sp,#0x28]
	ldr         w8,[x8]
	cmp         w8,#1
	bne         |$LN45@AuPmmngrIn|
	ldr         x8,[sp,#0x28]
	ldr         w8,[x8]
	cmp         w8,#2
	bne         |$LN45@AuPmmngrIn|
	ldr         x8,[sp,#0x28]
	ldr         w8,[x8]
	cmp         w8,#3
	bne         |$LN45@AuPmmngrIn|
	ldr         x8,[sp,#0x28]
	ldr         w8,[x8]
	cmp         w8,#4
	beq         |$LN44@AuPmmngrIn|
|$LN45@AuPmmngrIn|

; 255  : 				uint64_t PhysStart = EfiMem->phys_start;

	ldr         x8,[sp,#0x28]
	add         x8,x8,#8
	ldr         x8,[x8]
	str         x8,[sp,#0xE8]

; 256  : 				for (size_t j = 0; j < EfiMem->num_pages; j++) {

	mov         x8,#0
	str         x8,[sp,#0x78]
	b           |$LN16@AuPmmngrIn|
|$LN14@AuPmmngrIn|
	ldr         x8,[sp,#0x78]
	add         x8,x8,#1
	str         x8,[sp,#0x78]
|$LN16@AuPmmngrIn|
	ldr         x8,[sp,#0x28]
	add         x8,x8,#0x18
	ldr         x9,[x8]
	ldr         x8,[sp,#0x78]
	cmp         x8,x9
	bhs         |$LN15@AuPmmngrIn|

; 257  : 					AuPmmngrLockPage(PhysStart + j * 4096);

	ldr         x9,[sp,#0x78]
	mov         x8,#0x1000
	mul         x9,x9,x8
	ldr         x8,[sp,#0xE8]
	add         x0,x8,x9
	bl          AuPmmngrLockPage

; 258  : 				}

	b           |$LN14@AuPmmngrIn|
|$LN15@AuPmmngrIn|
|$LN44@AuPmmngrIn|

; 259  : 			}
; 260  : 		}

	b           |$LN11@AuPmmngrIn|
|$LN12@AuPmmngrIn|
|$LN43@AuPmmngrIn|

; 261  : 	}
; 262  : 
; 263  : 
; 264  : 	/* Lock addresses below 1MiB mark */
; 265  : 	for (size_t i = 0; i < (1 * 1024 * 1024) / 4096; i++)

	mov         x8,#0
	str         x8,[sp,#0x80]
	b           |$LN19@AuPmmngrIn|
|$LN17@AuPmmngrIn|
	ldr         x8,[sp,#0x80]
	add         x8,x8,#1
	str         x8,[sp,#0x80]
|$LN19@AuPmmngrIn|
	ldr         x8,[sp,#0x80]
	cmp         x8,#0x100
	bhs         |$LN18@AuPmmngrIn|

; 266  : 		AuPmmngrLockPage(i * 4096);

	ldr         x9,[sp,#0x80]
	mov         x8,#0x1000
	mul         x0,x9,x8
	bl          AuPmmngrLockPage
	b           |$LN17@AuPmmngrIn|
|$LN18@AuPmmngrIn|

; 267  : 
; 268  : 	uint32_t AllocCount = info->reserved_mem_count;

	ldr         x8,[sp,#0x10]
	add         x8,x8,#0x10
	ldr         x8,[x8]
	mov         w8,w8
	str         w8,[sp,#0x24]

; 269  : 	uint64_t* AllocStack = (uint64_t*)info->allocated_stack;

	ldr         x8,[sp,#0x10]
	add         x8,x8,#8
	ldr         x8,[x8]
	str         x8,[sp,#0x90]
|$LN20@AuPmmngrIn|

; 270  : 	while (AllocCount) {

	ldr         w8,[sp,#0x24]
	cmp         w8,#0
	beq         |$LN21@AuPmmngrIn|

; 271  : 		uint64_t Address = *AllocStack--;

	ldr         x8,[sp,#0x90]
	ldr         x8,[x8]
	str         x8,[sp,#0xF0]
	ldr         x8,[sp,#0x90]
	sub         x8,x8,#8
	str         x8,[sp,#0x90]

; 272  : 		uint64_t index = (Address - UsablePhysicalMemory);

	ldr         x9,[sp,#0xF0]
	adrp        x8,UsablePhysicalMemory
	ldr         x8,[x8,PageOffset(UsablePhysicalMemory)]
	sub         x8,x9,x8
	str         x8,[sp,#0xF8]

; 273  : 		AuPmmngrLockPage(index);

	ldr         x0,[sp,#0xF8]
	bl          AuPmmngrLockPage

; 274  : 		AllocCount--;

	ldr         w8,[sp,#0x24]
	sub         w8,w8,#1
	str         w8,[sp,#0x24]

; 275  : 	}

	b           |$LN20@AuPmmngrIn|
|$LN21@AuPmmngrIn|

; 276  : 
; 277  : 	/* need more reservation of memory allocated by initrd and others*/
; 278  : 	if (info->boot_type == BOOT_LITTLEBOOT_ARM64) {

	ldr         x8,[sp,#0x10]
	ldr         w8,[x8]
	cmp         w8,#3
	bne         |$LN46@AuPmmngrIn|

; 279  : 		/* reserving DTB area and Kernel INITRD area */
; 280  : 		AuTextOut("[aurora]: Reserving LittleBoot data \r\n");

	adrp        x8,|$SG2908|
	add         x0,x8,PageOffset(|$SG2908|)
	bl          AuTextOut

; 281  : 		uint64_t pageCount = 0;

	mov         x8,#0
	str         x8,[sp,#0x48]

; 282  : 		AuLittleBootProtocol* lb = (AuLittleBootProtocol*)info->driver_entry1;

	ldr         x8,[sp,#0x10]
	add         x8,x8,#0x78
	ldr         x8,[x8]
	str         x8,[sp,#0x40]

; 283  : 		uint64_t dtb_start = lb->device_tree_base;

	ldr         x8,[sp,#0x40]
	add         x8,x8,#0x10
	ldr         x8,[x8]
	str         x8,[sp,#0xC8]

; 284  : 		uint64_t dtb_end = lb->device_tree_end;

	ldr         x8,[sp,#0x40]
	add         x8,x8,#0x18
	ldr         x8,[x8]
	str         x8,[sp,#0x98]

; 285  : 		dtb_end = (dtb_end + 0x1000 - 1) & ~(0x1000 - 1);

	ldr         x8,[sp,#0x98]
	add         x8,x8,#1,lsl #0xC
	sub         x8,x8,#1
	and         x8,x8,#-0x1000
	str         x8,[sp,#0x98]

; 286  : 
; 287  : 		pageCount = (dtb_end - dtb_start) / 0x1000;

	ldr         x9,[sp,#0x98]
	ldr         x8,[sp,#0xC8]
	sub         x9,x9,x8
	mov         x8,#0x1000
	udiv        x8,x9,x8
	str         x8,[sp,#0x48]

; 288  : 
; 289  : 		for (int i = 0; i < pageCount; i++) {

	mov         w8,#0
	str         w8,[sp,#0x18]
	b           |$LN24@AuPmmngrIn|
|$LN22@AuPmmngrIn|
	ldr         w8,[sp,#0x18]
	add         w8,w8,#1
	str         w8,[sp,#0x18]
|$LN24@AuPmmngrIn|
	ldr         w8,[sp,#0x18]
	sxtw        x9,w8
	ldr         x8,[sp,#0x48]
	cmp         x9,x8
	bhs         |$LN23@AuPmmngrIn|

; 290  : 			uint64_t addr = dtb_start + i * 0x1000; //  ((uint64_t)Address - UsablePhysicalMemory);

	ldr         w9,[sp,#0x18]
	mov         w8,#0x1000
	mul         w8,w9,w8
	sxtw        x9,w8
	ldr         x8,[sp,#0xC8]
	add         x8,x8,x9
	str         x8,[sp,#0x100]

; 291  : 			uint64_t Index = (addr - UsablePhysicalMemory);

	ldr         x9,[sp,#0x100]
	adrp        x8,UsablePhysicalMemory
	ldr         x8,[x8,PageOffset(UsablePhysicalMemory)]
	sub         x8,x9,x8
	str         x8,[sp,#0x108]

; 292  : 			AuPmmngrLockPage(Index);

	ldr         x0,[sp,#0x108]
	bl          AuPmmngrLockPage

; 293  : 		
; 294  : 		}

	b           |$LN22@AuPmmngrIn|
|$LN23@AuPmmngrIn|

; 295  : 
; 296  : 		uint64_t initrdStart = lb->initrd_start;

	ldr         x8,[sp,#0x40]
	ldr         x8,[x8]
	str         x8,[sp,#0xD0]

; 297  : 		uint64_t initrdEnd = lb->initrd_end;

	ldr         x8,[sp,#0x40]
	add         x8,x8,#8
	ldr         x8,[x8]
	str         x8,[sp,#0xA0]

; 298  : 		initrdEnd = (initrdEnd + 0x1000 - 1) & ~(0x1000 - 1);

	ldr         x8,[sp,#0xA0]
	add         x8,x8,#1,lsl #0xC
	sub         x8,x8,#1
	and         x8,x8,#-0x1000
	str         x8,[sp,#0xA0]

; 299  : 		pageCount = (initrdEnd - initrdStart) / 0x1000;

	ldr         x9,[sp,#0xA0]
	ldr         x8,[sp,#0xD0]
	sub         x9,x9,x8
	mov         x8,#0x1000
	udiv        x8,x9,x8
	str         x8,[sp,#0x48]

; 300  : 		for (int i = 0; i < pageCount; i++) {

	mov         w8,#0
	str         w8,[sp,#0x1C]
	b           |$LN27@AuPmmngrIn|
|$LN25@AuPmmngrIn|
	ldr         w8,[sp,#0x1C]
	add         w8,w8,#1
	str         w8,[sp,#0x1C]
|$LN27@AuPmmngrIn|
	ldr         w8,[sp,#0x1C]
	sxtw        x9,w8
	ldr         x8,[sp,#0x48]
	cmp         x9,x8
	bhs         |$LN26@AuPmmngrIn|

; 301  : 			uint64_t addr = initrdStart + i * 0x1000;

	ldr         w9,[sp,#0x1C]
	mov         w8,#0x1000
	mul         w8,w9,w8
	sxtw        x9,w8
	ldr         x8,[sp,#0xD0]
	add         x8,x8,x9
	str         x8,[sp,#0x110]

; 302  : 			uint64_t Index = (addr - UsablePhysicalMemory);

	ldr         x9,[sp,#0x110]
	adrp        x8,UsablePhysicalMemory
	ldr         x8,[x8,PageOffset(UsablePhysicalMemory)]
	sub         x8,x9,x8
	str         x8,[sp,#0x118]

; 303  : 			AuPmmngrLockPage(Index);

	ldr         x0,[sp,#0x118]
	bl          AuPmmngrLockPage

; 304  : 		}

	b           |$LN25@AuPmmngrIn|
|$LN26@AuPmmngrIn|

; 305  : 	
; 306  : 		uint64_t lbStart = lb->littleBootStart;

	ldr         x8,[sp,#0x40]
	add         x8,x8,#0x28
	ldr         x8,[x8]
	str         x8,[sp,#0xD8]

; 307  : 		uint64_t lbEnd = lb->littleBootEnd;

	ldr         x8,[sp,#0x40]
	add         x8,x8,#0x30
	ldr         x8,[x8]
	str         x8,[sp,#0xA8]

; 308  : 		lbEnd = (lbEnd + 0x1000 - 1) & ~(0x1000 - 1);

	ldr         x8,[sp,#0xA8]
	add         x8,x8,#1,lsl #0xC
	sub         x8,x8,#1
	and         x8,x8,#-0x1000
	str         x8,[sp,#0xA8]

; 309  : 		pageCount = (lbEnd - lbStart) / 0x1000;

	ldr         x9,[sp,#0xA8]
	ldr         x8,[sp,#0xD8]
	sub         x9,x9,x8
	mov         x8,#0x1000
	udiv        x8,x9,x8
	str         x8,[sp,#0x48]

; 310  : 
; 311  : 		for (int i = 0; i < pageCount; i++) {

	mov         w8,#0
	str         w8,[sp,#0x20]
	b           |$LN30@AuPmmngrIn|
|$LN28@AuPmmngrIn|
	ldr         w8,[sp,#0x20]
	add         w8,w8,#1
	str         w8,[sp,#0x20]
|$LN30@AuPmmngrIn|
	ldr         w8,[sp,#0x20]
	sxtw        x9,w8
	ldr         x8,[sp,#0x48]
	cmp         x9,x8
	bhs         |$LN29@AuPmmngrIn|

; 312  : 			uint64_t addr = lbStart + i * 0x1000;

	ldr         w9,[sp,#0x20]
	mov         w8,#0x1000
	mul         w8,w9,w8
	sxtw        x9,w8
	ldr         x8,[sp,#0xD8]
	add         x8,x8,x9
	str         x8,[sp,#0x120]

; 313  : 			uint64_t Index = (addr - UsablePhysicalMemory);

	ldr         x9,[sp,#0x120]
	adrp        x8,UsablePhysicalMemory
	ldr         x8,[x8,PageOffset(UsablePhysicalMemory)]
	sub         x8,x9,x8
	str         x8,[sp,#0x128]

; 314  : 			AuPmmngrLockPage(Index);

	ldr         x0,[sp,#0x128]
	bl          AuPmmngrLockPage

; 315  : 		}

	b           |$LN28@AuPmmngrIn|
|$LN29@AuPmmngrIn|

; 316  : 		AuTextOut("[aurora]: Pmmngr locked LittleBoot reserved memory\r\n");

	adrp        x8,|$SG2909|
	add         x0,x8,PageOffset(|$SG2909|)
	bl          AuTextOut
|$LN46@AuPmmngrIn|
	add         sp,sp,#0x130
	ldr         lr,[sp],#0x10
	ret

	ENDP  ; |AuPmmngrInitialize|

	END
