; Listing generated by Microsoft (R) Optimizing Compiler Version 19.29.30159.0 

	TTL	C:\Users\paras\source\repos\grep-name\XenevaOS\KernelAA64\ARM64\Debug\postbox.obj
	ARM64

	AREA	|.drectve|, DRECTVE

	EXPORT	|firstBox| [ DATA ]
	EXPORT	|lastBox| [ DATA ]

	AREA	|.bss|, NOINIT
|firstBox| %	0x8
|lastBox| %	0x8

	AREA	|.data|, DATA
	 COMMON	|_PostBoxRootCreated|, 0x1

	 COMMON	|pbox|, 0x8

	EXPORT	|AuIPCPostBoxInitialise|
	EXPORT	|PostBoxPutEvent|
	EXPORT	|PostBoxGetEvent|
	EXPORT	|AuPostBOXGetNode|
	EXPORT	|PostBoxCreate|
	EXPORT	|PostBoxDestroyByID|
	EXPORT	|PostBoxIOControl|
	EXPORT	|PostBoxAdvanceIndex|
	EXPORT	|PostBoxRetreat|
	EXPORT	|IsPostBoxEmpty|
	EXPORT	|IsPostBoxFull|
	EXPORT	|PostBoxDestroy|
	IMPORT	|AuGetCurrentThread|
	IMPORT	|AuUnblockThread|
	IMPORT	|AuThreadFindByID|
	IMPORT	|AuThreadFindByIDBlockList|
	IMPORT	|AuCredGetGroupID|
	IMPORT	|AuVFSFind|
	IMPORT	|kmalloc|
	IMPORT	|kfree|
	IMPORT	|AuPmmngrAlloc|
	IMPORT	|AuPmmngrFree|
	IMPORT	|P2V|
	IMPORT	|V2P|
	IMPORT	|strcmp|
	IMPORT	|strcpy|
	IMPORT	|memset|
	IMPORT	|memcpy|
	IMPORT	|AuDevFSAddFile|
	IMPORT	|AuDevFSList|
	IMPORT	|dsb_sy_barrier|
	IMPORT	|UARTDebugOut|
	IMPORT	|AuTextOut|
	IMPORT	|read_sp|
	IMPORT	|enscheddebug|

	AREA	|.pdata|, PDATA
|$pdata$AuIPCPostBoxInitialise| DCD imagerel |$LN3|
	DCD	0x1200149
	;Flags[SingleProEpi] functionLength[328] RegF[0] RegI[0] H[0] frameChainReturn[UnChainedSavedLR] frameSize[32]
|$pdata$PostBoxPutEvent| DCD imagerel |$LN11|
	DCD	0x220015d
	;Flags[SingleProEpi] functionLength[348] RegF[0] RegI[0] H[0] frameChainReturn[UnChainedSavedLR] frameSize[64]
|$pdata$PostBoxGetEvent| DCD imagerel |$LN10|
	DCD	0x220012d
	;Flags[SingleProEpi] functionLength[300] RegF[0] RegI[0] H[0] frameChainReturn[UnChainedSavedLR] frameSize[64]
|$pdata$PostBoxCreate| DCD imagerel |$LN7|
	DCD	0x12001b9
	;Flags[SingleProEpi] functionLength[440] RegF[0] RegI[0] H[0] frameChainReturn[UnChainedSavedLR] frameSize[32]
|$pdata$PostBoxDestroyByID| DCD imagerel |$LN8|
	DCD	0x1a00095
	;Flags[SingleProEpi] functionLength[148] RegF[0] RegI[0] H[0] frameChainReturn[UnChainedSavedLR] frameSize[48]
|$pdata$PostBoxIOControl| DCD imagerel |$LN21|
	DCD	0x2a00131
	;Flags[SingleProEpi] functionLength[304] RegF[0] RegI[0] H[0] frameChainReturn[UnChainedSavedLR] frameSize[80]
|$pdata$PostBoxAdvanceIndex| DCD imagerel |$LN8|
	DCD	0x8000f1
	;Flags[SingleProEpi] functionLength[240] RegF[0] RegI[0] H[0] frameChainReturn[UnChained] frameSize[16]
|$pdata$PostBoxRetreat| DCD imagerel |$LN4|
	DCD	0x800061
	;Flags[SingleProEpi] functionLength[96] RegF[0] RegI[0] H[0] frameChainReturn[UnChained] frameSize[16]
|$pdata$IsPostBoxEmpty| DCD imagerel |$LN5|
	DCD	0x800069
	;Flags[SingleProEpi] functionLength[104] RegF[0] RegI[0] H[0] frameChainReturn[UnChained] frameSize[16]
|$pdata$IsPostBoxFull| DCD imagerel |$LN3|
	DCD	0x80001d
	;Flags[SingleProEpi] functionLength[28] RegF[0] RegI[0] H[0] frameChainReturn[UnChained] frameSize[16]
|$pdata$PostBoxDestroy| DCD imagerel |$LN8|
	DCD	0x12000ed
	;Flags[SingleProEpi] functionLength[236] RegF[0] RegI[0] H[0] frameChainReturn[UnChainedSavedLR] frameSize[32]

	AREA	|.data|, DATA
|$SG3568| DCB	"Postbox created for threadID : %d of size : %d num msg ", 0xa
	DCB	0x0
	%	7
|$SG3569| DCB	"SP : %x ", 0xd, 0xa, 0x0
	%	1
|$SG3669| DCB	"/", 0x0
	%	2
|$SG3581| DCB	"[postbox]: destroyed for id ", 0xd, 0xa, 0x0
	%	1
|$SG3611| DCB	"exec", 0x0
	%	3
|$SG3667| DCB	"/dev", 0x0
	%	3
|$SG3668| DCB	"postbox", 0x0
|$SG3670| DCB	"[aurora]: PostBox IPC mounted and initialized to /dev/pb"
	DCB	"ox ", 0xd, 0xa, 0x0
	%	2
|$SG3671| DCB	"[aurora]: PostEvent size : %d bytes ", 0xd, 0xa, 0x0
	%	1
|$SG3672| DCB	"[aurora]: PostBox size aligned : %d number ", 0xd, 0xa, 0x0
; Function compile flags: /Odtpy
; File C:\Users\paras\source\repos\grep-name\XenevaOS\KernelAA64\Ipc\postbox.c

	AREA	|.text$mn|, CODE, ARM64

|PostBoxDestroy| PROC

; 130  : void PostBoxDestroy(PostBox* box) {

|$LN8|
	str         lr,[sp,#-0x10]!
	sub         sp,sp,#0x10
	str         x0,[sp]

; 131  : 	if (firstBox == NULL)

	adrp        x8,firstBox
	ldr         x8,[x8,PageOffset(firstBox)]
	cmp         x8,#0
	bne         |$LN2@PostBoxDes|

; 132  : 		return;

	b           |$LN1@PostBoxDes|
|$LN2@PostBoxDes|

; 133  : 
; 134  : 	if (box == firstBox)

	adrp        x8,firstBox
	ldr         x9,[x8,PageOffset(firstBox)]
	ldr         x8,[sp]
	cmp         x8,x9
	bne         |$LN3@PostBoxDes|

; 135  : 		firstBox = firstBox->next;

	adrp        x8,firstBox
	ldr         x8,[x8,PageOffset(firstBox)]
	add         x8,x8,#0x18
	adrp        x9,firstBox
	ldr         x8,[x8]
	str         x8,[x9,PageOffset(firstBox)]
	b           |$LN4@PostBoxDes|
|$LN3@PostBoxDes|

; 136  : 	else
; 137  : 		box->prev->next = box->next;

	ldr         x8,[sp]
	add         x10,x8,#0x18
	ldr         x8,[sp]
	add         x8,x8,#0x20
	ldr         x8,[x8]
	add         x9,x8,#0x18
	ldr         x8,[x10]
	str         x8,[x9]
|$LN4@PostBoxDes|

; 138  : 
; 139  : 	if (box == lastBox) {

	adrp        x8,lastBox
	ldr         x9,[x8,PageOffset(lastBox)]
	ldr         x8,[sp]
	cmp         x8,x9
	bne         |$LN5@PostBoxDes|

; 140  : 		lastBox = box->prev;

	ldr         x8,[sp]
	add         x8,x8,#0x20
	adrp        x9,lastBox
	ldr         x8,[x8]
	str         x8,[x9,PageOffset(lastBox)]

; 141  : 	}

	b           |$LN6@PostBoxDes|
|$LN5@PostBoxDes|

; 142  : 	else {
; 143  : 		box->next->prev = box->prev;

	ldr         x8,[sp]
	add         x10,x8,#0x20
	ldr         x8,[sp]
	add         x8,x8,#0x18
	ldr         x8,[x8]
	add         x9,x8,#0x20
	ldr         x8,[x10]
	str         x8,[x9]
|$LN6@PostBoxDes|

; 144  : 	}
; 145  : 
; 146  : 	AuPmmngrFree((void*)V2P((size_t)box->address));

	ldr         x8,[sp]
	ldr         x0,[x8]
	bl          V2P
	bl          AuPmmngrFree

; 147  : 	kfree(box);

	ldr         x0,[sp]
	bl          kfree

; 148  : 	UARTDebugOut("[postbox]: destroyed for id \r\n");

	adrp        x8,|$SG3581|
	add         x0,x8,PageOffset(|$SG3581|)
	bl          UARTDebugOut
|$LN1@PostBoxDes|
	add         sp,sp,#0x10
	ldr         lr,[sp],#0x10
	ret

	ENDP  ; |PostBoxDestroy|

; Function compile flags: /Odtpy
; File C:\Users\paras\source\repos\grep-name\XenevaOS\KernelAA64\Ipc\postbox.c

	AREA	|.text$mn|, CODE, ARM64

|IsPostBoxFull| PROC

; 78   : bool IsPostBoxFull(PostBox* box) {

|$LN3|
	sub         sp,sp,#0x10
	str         x0,[sp]

; 79   : 	return box->full;

	ldr         x8,[sp]
	add         x8,x8,#0x14
	ldrb        w0,[x8]
	add         sp,sp,#0x10
	ret

	ENDP  ; |IsPostBoxFull|

; Function compile flags: /Odtpy
; File C:\Users\paras\source\repos\grep-name\XenevaOS\KernelAA64\Ipc\postbox.c

	AREA	|.text$mn|, CODE, ARM64

|IsPostBoxEmpty| PROC

; 74   : bool IsPostBoxEmpty(PostBox* box) {

|$LN5|
	sub         sp,sp,#0x10
	str         x0,[sp,#8]

; 75   : 	return (!box->full && (box->headIdx == box->tailIdx));

	ldr         x8,[sp,#8]
	add         x8,x8,#0x14
	ldrb        w8,[x8]
	mov         w8,w8
	cmp         w8,#0
	bne         |$LN3@IsPostBoxE|
	ldr         x8,[sp,#8]
	add         x10,x8,#0xC
	ldr         x8,[sp,#8]
	add         x8,x8,#0x10
	ldr         w9,[x8]
	ldr         w8,[x10]
	cmp         w8,w9
	bne         |$LN3@IsPostBoxE|
	mov         w8,#1
	str         w8,[sp]
	b           |$LN4@IsPostBoxE|
|$LN3@IsPostBoxE|
	mov         w8,#0
	str         w8,[sp]
|$LN4@IsPostBoxE|
	ldr         w8,[sp]
	uxtb        w0,w8
	mov         w0,w0
	add         sp,sp,#0x10
	ret

	ENDP  ; |IsPostBoxEmpty|

; Function compile flags: /Odtpy
; File C:\Users\paras\source\repos\grep-name\XenevaOS\KernelAA64\Ipc\postbox.c

	AREA	|.text$mn|, CODE, ARM64

|PostBoxRetreat| PROC

; 69   : void PostBoxRetreat(PostBox* box) {

|$LN4|
	sub         sp,sp,#0x10
	str         x0,[sp]

; 70   : 	box->full = false;

	ldr         x8,[sp]
	add         x9,x8,#0x14
	mov         w8,#0
	strb        w8,[x9]

; 71   : 	box->tailIdx = (box->tailIdx + 1) % box->size;

	ldr         x8,[sp]
	add         x8,x8,#0x10
	ldr         w8,[x8]
	add         w10,w8,#1
	ldr         x8,[sp]
	add         x8,x8,#0x16
	ldrh        w9,[x8]
	mov         w9,w9
	cbnz        w9,|$LN3@PostBoxRet|
	brk         #0xF004
|$LN3@PostBoxRet|
	sdiv        w8,w10,w9
	mul         w8,w8,w9
	sub         w9,w10,w8
	ldr         x8,[sp]
	add         x8,x8,#0x10
	str         w9,[x8]
	add         sp,sp,#0x10
	ret

	ENDP  ; |PostBoxRetreat|

; Function compile flags: /Odtpy
; File C:\Users\paras\source\repos\grep-name\XenevaOS\KernelAA64\Ipc\postbox.c

	AREA	|.text$mn|, CODE, ARM64

|PostBoxAdvanceIndex| PROC

; 61   : void PostBoxAdvanceIndex(PostBox* box) {

|$LN8|
	sub         sp,sp,#0x10
	str         x0,[sp,#8]

; 62   : 	if (box->full)

	ldr         x8,[sp,#8]
	add         x8,x8,#0x14
	ldrb        w8,[x8]
	mov         w8,w8
	cmp         w8,#0
	beq         |$LN2@PostBoxAdv|

; 63   : 		box->tailIdx = (box->tailIdx + 1) % box->size;

	ldr         x8,[sp,#8]
	add         x8,x8,#0x10
	ldr         w8,[x8]
	add         w10,w8,#1
	ldr         x8,[sp,#8]
	add         x8,x8,#0x16
	ldrh        w9,[x8]
	mov         w9,w9
	cbnz        w9,|$LN6@PostBoxAdv|
	brk         #0xF004
|$LN6@PostBoxAdv|
	sdiv        w8,w10,w9
	mul         w8,w8,w9
	sub         w9,w10,w8
	ldr         x8,[sp,#8]
	add         x8,x8,#0x10
	str         w9,[x8]
|$LN2@PostBoxAdv|

; 64   : 
; 65   : 	box->headIdx = (box->headIdx + 1) % box->size;

	ldr         x8,[sp,#8]
	add         x8,x8,#0xC
	ldr         w8,[x8]
	add         w10,w8,#1
	ldr         x8,[sp,#8]
	add         x8,x8,#0x16
	ldrh        w9,[x8]
	mov         w9,w9
	cbnz        w9,|$LN7@PostBoxAdv|
	brk         #0xF004
|$LN7@PostBoxAdv|
	sdiv        w8,w10,w9
	mul         w8,w8,w9
	sub         w9,w10,w8
	ldr         x8,[sp,#8]
	add         x8,x8,#0xC
	str         w9,[x8]

; 66   : 	box->full = (box->headIdx == box->tailIdx);

	ldr         x8,[sp,#8]
	add         x10,x8,#0xC
	ldr         x8,[sp,#8]
	add         x8,x8,#0x10
	ldr         w9,[x8]
	ldr         w8,[x10]
	cmp         w8,w9
	bne         |$LN4@PostBoxAdv|
	mov         w8,#1
	str         w8,[sp]
	b           |$LN5@PostBoxAdv|
|$LN4@PostBoxAdv|
	mov         w8,#0
	str         w8,[sp]
|$LN5@PostBoxAdv|
	ldr         x8,[sp,#8]
	add         x9,x8,#0x14
	ldr         w8,[sp]
	uxtb        w8,w8
	strb        w8,[x9]
	add         sp,sp,#0x10
	ret

	ENDP  ; |PostBoxAdvanceIndex|

; Function compile flags: /Odtpy
; File C:\Users\paras\source\repos\grep-name\XenevaOS\KernelAA64\Ipc\postbox.c

	AREA	|.text$mn|, CODE, ARM64

|PostBoxIOControl| PROC

; 249  : int PostBoxIOControl(AuVFSNode* file, int code, void* arg) {

|$LN21|
	str         lr,[sp,#-0x10]!
	sub         sp,sp,#0x40
	str         x0,[sp,#0x38]
	str         w1,[sp,#0x10]
	str         x2,[sp,#0x18]

; 250  : 	int ret_code = 1;

	mov         w8,#1
	str         w8,[sp,#4]

; 251  : 	AA64Thread* curr_thr = AuGetCurrentThread();

	bl          AuGetCurrentThread
	str         x0,[sp,#8]

; 252  : 	if (!curr_thr)

	ldr         x8,[sp,#8]
	cmp         x8,#0
	bne         |$LN4@PostBoxIOC|

; 253  : 		return 0;

	mov         w0,#0
	b           |$LN1@PostBoxIOC|
|$LN4@PostBoxIOC|

; 254  : 	switch (code) {

	ldr         w8,[sp,#0x10]
	str         w8,[sp]
	ldr         w8,[sp]
	sub         w8,w8,#0x191
	str         w8,[sp]
	ldr         w8,[sp]
	cmp         w8,#5
	bhi         |$LN2@PostBoxIOC|
	ldr         w10,[sp]
	adr         x9,__swt
	ldrsb       x8,[x9,w10 uxtw #0]
	add         x8,x9,x8,lsl #2
	br          x8
|$LN5@PostBoxIOC|

; 255  : 	case POSTBOX_CREATE: {
; 256  : 		PostBoxCreate(false, curr_thr->thread_id);

	ldr         x8,[sp,#8]
	add         x8,x8,#0xF0
	ldr         x8,[x8]
	uxth        w1,w8
	mov         w1,w1
	mov         w0,#0
	bl          PostBoxCreate

; 257  : 		break;

	b           |$LN2@PostBoxIOC|
|$LN6@PostBoxIOC|

; 258  : 	}
; 259  : 	case POSTBOX_CREATE_ROOT: {
; 260  : 		PostBoxCreate(true, curr_thr->thread_id);

	ldr         x8,[sp,#8]
	add         x8,x8,#0xF0
	ldr         x8,[x8]
	uxth        w1,w8
	mov         w1,w1
	mov         w0,#1
	bl          PostBoxCreate

; 261  : 		break;

	b           |$LN2@PostBoxIOC|
|$LN7@PostBoxIOC|

; 262  : 	}
; 263  : 	case POSTBOX_DESTROY: {
; 264  : 		PostBoxDestroyByID(curr_thr->thread_id);

	ldr         x8,[sp,#8]
	add         x8,x8,#0xF0
	ldr         x8,[x8]
	uxth        w0,w8
	mov         w0,w0
	bl          PostBoxDestroyByID

; 265  : 		break;

	b           |$LN2@PostBoxIOC|
|$LN8@PostBoxIOC|

; 266  : 	}
; 267  : 	case POSTBOX_PUT_EVENT: {
; 268  : 		PostEvent* event = (PostEvent*)arg;

	ldr         x8,[sp,#0x18]
	str         x8,[sp,#0x20]

; 269  : 		//UARTDebugOut("PostBoxPutEvent : %s \r\n", curr_thr->name);
; 270  : 		PostBoxPutEvent(event);

	ldr         x0,[sp,#0x20]
	bl          PostBoxPutEvent

; 271  : 		break;

	b           |$LN2@PostBoxIOC|
|$LN9@PostBoxIOC|

; 272  : 	}
; 273  : 
; 274  : 	case POSTBOX_GET_EVENT: {
; 275  : 		PostEvent* e = (PostEvent*)arg;

	ldr         x8,[sp,#0x18]
	str         x8,[sp,#0x28]

; 276  : 		ret_code = PostBoxGetEvent(e, false, curr_thr);

	ldr         x2,[sp,#8]
	mov         w1,#0
	ldr         x0,[sp,#0x28]
	bl          PostBoxGetEvent
	mov         w0,w0
	str         w0,[sp,#4]

; 277  : 		break;

	b           |$LN2@PostBoxIOC|
|$LN10@PostBoxIOC|

; 278  : 	}
; 279  : 	case POSTBOX_GET_EVENT_ROOT: {
; 280  : 		PostEvent* e = (PostEvent*)arg;

	ldr         x8,[sp,#0x18]
	str         x8,[sp,#0x30]

; 281  : 		ret_code = PostBoxGetEvent(e, true, curr_thr);

	ldr         x2,[sp,#8]
	mov         w1,#1
	ldr         x0,[sp,#0x30]
	bl          PostBoxGetEvent
	mov         w0,w0
	str         w0,[sp,#4]
|$LN2@PostBoxIOC|

; 282  : 		break;
; 283  : 	}
; 284  : 	}
; 285  : 
; 286  : 	return ret_code;

	ldr         w0,[sp,#4]
|$LN1@PostBoxIOC|
	add         sp,sp,#0x40
	ldr         lr,[sp],#0x10
	ret
|__swt|
|$LN13@PostBoxIOC|

; 254  : 	switch (code) {

	DCB         0xcf
|$LN14@PostBoxIOC|
	DCB         0xdf
|$LN15@PostBoxIOC|
	DCB         0xe6
|$LN16@PostBoxIOC|
	DCB         0xeb
|$LN17@PostBoxIOC|
	DCB         0xd7
|$LN18@PostBoxIOC|
	DCB         0xf4
|$LN19@PostBoxIOC|
	DCB         0xf4
|$LN20@PostBoxIOC|
	DCB         0xf4

	ENDP  ; |PostBoxIOControl|

; Function compile flags: /Odtpy
; File C:\Users\paras\source\repos\grep-name\XenevaOS\KernelAA64\Ipc\postbox.c

	AREA	|.text$mn|, CODE, ARM64

|PostBoxDestroyByID| PROC

; 156  : void PostBoxDestroyByID(uint16_t id) {

|$LN8|
	str         lr,[sp,#-0x10]!
	sub         sp,sp,#0x20
	uxth        w8,w0
	strh        w8,[sp]

; 157  : 	PostBox* destroyable = NULL;

	mov         x8,#0
	str         x8,[sp,#0x10]

; 158  : 	for (PostBox* box = firstBox; box != NULL; box = box->next) {

	adrp        x8,firstBox
	ldr         x8,[x8,PageOffset(firstBox)]
	str         x8,[sp,#8]
	b           |$LN4@PostBoxDes|
|$LN2@PostBoxDes|
	ldr         x8,[sp,#8]
	add         x8,x8,#0x18
	ldr         x8,[x8]
	str         x8,[sp,#8]
|$LN4@PostBoxDes|
	ldr         x8,[sp,#8]
	cmp         x8,#0
	beq         |$LN3@PostBoxDes|

; 159  : 		if (box->ownerID == id) {

	ldr         x8,[sp,#8]
	add         x8,x8,#8
	ldrh        w9,[x8]
	mov         w9,w9
	ldrh        w8,[sp]
	mov         w8,w8
	cmp         w9,w8
	bne         |$LN5@PostBoxDes|

; 160  : 			destroyable = box;

	ldr         x8,[sp,#8]
	str         x8,[sp,#0x10]

; 161  : 			break;

	b           |$LN3@PostBoxDes|
|$LN5@PostBoxDes|

; 162  : 		}
; 163  : 	}

	b           |$LN2@PostBoxDes|
|$LN3@PostBoxDes|

; 164  : 
; 165  : 	if (destroyable)

	ldr         x8,[sp,#0x10]
	cmp         x8,#0
	beq         |$LN6@PostBoxDes|

; 166  : 		PostBoxDestroy(destroyable);

	ldr         x0,[sp,#0x10]
	bl          PostBoxDestroy
|$LN6@PostBoxDes|
	add         sp,sp,#0x20
	ldr         lr,[sp],#0x10
	ret

	ENDP  ; |PostBoxDestroyByID|

; Function compile flags: /Odtpy
; File C:\Users\paras\source\repos\grep-name\XenevaOS\KernelAA64\Ipc\postbox.c

	AREA	|.text$mn|, CODE, ARM64

|PostBoxCreate| PROC

; 89   : void PostBoxCreate(bool root, uint16_t tid) {

|$LN7|
	str         lr,[sp,#-0x10]!
	sub         sp,sp,#0x10
	uxtb        w8,w0
	strb        w8,[sp]
	uxth        w8,w1
	strh        w8,[sp,#2]

; 90   : 	PostBox* box = (PostBox*)kmalloc(sizeof(PostBox));

	mov         w0,#0x28
	bl          kmalloc
	str         x0,[sp,#8]

; 91   : 	memset(box, 0, sizeof(PostBox));

	mov         w2,#0x28
	mov         w1,#0
	ldr         x0,[sp,#8]
	bl          memset

; 92   : 	box->address = (uint64_t*)P2V((size_t)AuPmmngrAlloc());

	bl          AuPmmngrAlloc
	bl          P2V
	ldr         x8,[sp,#8]
	str         x0,[x8]

; 93   : 	memset(box->address, 0, PAGE_SIZE);

	ldr         x8,[sp,#8]
	mov         w2,#0x1000
	mov         w1,#0
	ldr         x0,[x8]
	bl          memset

; 94   : 
; 95   : 	if (root && !_PostBoxRootCreated) {

	ldrb        w8,[sp]
	mov         w8,w8
	cmp         w8,#0
	beq         |$LN2@PostBoxCre|
	adrp        x8,_PostBoxRootCreated
	ldrb        w8,[x8,PageOffset(_PostBoxRootCreated)]
	mov         w8,w8
	cmp         w8,#0
	bne         |$LN2@PostBoxCre|

; 96   : 		box->ownerID = POSTBOX_ROOT_ID;

	ldr         x8,[sp,#8]
	add         x9,x8,#8
	mov         w8,#1
	strh        w8,[x9]

; 97   : 		_PostBoxRootCreated = true;

	adrp        x9,_PostBoxRootCreated
	mov         w8,#1
	strb        w8,[x9,PageOffset(_PostBoxRootCreated)]

; 98   : 	}

	b           |$LN3@PostBoxCre|
|$LN2@PostBoxCre|

; 99   : 	else {
; 100  : 		box->ownerID = tid;

	ldr         x8,[sp,#8]
	add         x9,x8,#8
	ldrh        w8,[sp,#2]
	strh        w8,[x9]
|$LN3@PostBoxCre|

; 101  : 	}
; 102  : 
; 103  : 	box->next = NULL;

	ldr         x8,[sp,#8]
	add         x9,x8,#0x18
	mov         x8,#0
	str         x8,[x9]

; 104  : 	box->prev = NULL;

	ldr         x8,[sp,#8]
	add         x9,x8,#0x20
	mov         x8,#0
	str         x8,[x9]

; 105  : 	box->headIdx = 0;

	ldr         x8,[sp,#8]
	add         x9,x8,#0xC
	mov         w8,#0
	str         w8,[x9]

; 106  : 	box->tailIdx = 0;

	ldr         x8,[sp,#8]
	add         x9,x8,#0x10
	mov         w8,#0
	str         w8,[x9]

; 107  : 	box->full = false;

	ldr         x8,[sp,#8]
	add         x9,x8,#0x14
	mov         w8,#0
	strb        w8,[x9]

; 108  : 
; 109  : 	box->size = PAGE_SIZE / ALIGN_UP(sizeof(PostEvent), 8);

	ldr         x8,[sp,#8]
	add         x9,x8,#0x16
	mov         w8,#0x17
	strh        w8,[x9]

; 110  : 	
; 111  : 
; 112  : 
; 113  : 	if (firstBox == NULL) {

	adrp        x8,firstBox
	ldr         x8,[x8,PageOffset(firstBox)]
	cmp         x8,#0
	bne         |$LN4@PostBoxCre|

; 114  : 		firstBox = box;

	adrp        x9,firstBox
	ldr         x8,[sp,#8]
	str         x8,[x9,PageOffset(firstBox)]

; 115  : 		lastBox = box;

	adrp        x9,lastBox
	ldr         x8,[sp,#8]
	str         x8,[x9,PageOffset(lastBox)]

; 116  : 	}

	b           |$LN5@PostBoxCre|
|$LN4@PostBoxCre|

; 117  : 	else {
; 118  : 		lastBox->next = box;

	adrp        x8,lastBox
	ldr         x8,[x8,PageOffset(lastBox)]
	add         x9,x8,#0x18
	ldr         x8,[sp,#8]
	str         x8,[x9]

; 119  : 		box->prev = lastBox;

	ldr         x8,[sp,#8]
	add         x9,x8,#0x20
	adrp        x8,lastBox
	ldr         x8,[x8,PageOffset(lastBox)]
	str         x8,[x9]

; 120  : 		lastBox = box;

	adrp        x9,lastBox
	ldr         x8,[sp,#8]
	str         x8,[x9,PageOffset(lastBox)]
|$LN5@PostBoxCre|

; 121  : 	}
; 122  : 	UARTDebugOut("Postbox created for threadID : %d of size : %d num msg \n", tid, box->size);

	ldr         x8,[sp,#8]
	add         x8,x8,#0x16
	ldrh        w2,[x8]
	mov         w2,w2
	ldrh        w1,[sp,#2]
	mov         w1,w1
	mov         w2,w2
	mov         w1,w1
	adrp        x8,|$SG3568|
	add         x0,x8,PageOffset(|$SG3568|)
	bl          UARTDebugOut

; 123  : 	UARTDebugOut("SP : %x \r\n", read_sp());

	bl          read_sp
	mov         x1,x0
	adrp        x8,|$SG3569|
	add         x0,x8,PageOffset(|$SG3569|)
	bl          UARTDebugOut
	add         sp,sp,#0x10
	ldr         lr,[sp],#0x10
	ret

	ENDP  ; |PostBoxCreate|

; Function compile flags: /Odtpy
; File C:\Users\paras\source\repos\grep-name\XenevaOS\KernelAA64\Ipc\postbox.c

	AREA	|.text$mn|, CODE, ARM64

|AuPostBOXGetNode| PROC

; 290  : 	return pbox;

	adrp        x8,pbox
	ldr         x0,[x8,PageOffset(pbox)]
	ret

	ENDP  ; |AuPostBOXGetNode|

; Function compile flags: /Odtpy
; File C:\Users\paras\source\repos\grep-name\XenevaOS\KernelAA64\Ipc\postbox.c

	AREA	|.text$mn|, CODE, ARM64

|PostBoxGetEvent| PROC

; 214  : int PostBoxGetEvent(PostEvent* event, bool root, AA64Thread* curr_thread) {

|$LN10|
	str         lr,[sp,#-0x10]!
	sub         sp,sp,#0x30
	str         x0,[sp,#0x20]
	uxtb        w8,w1
	strb        w8,[sp]
	str         x2,[sp,#0x18]

; 215  : 	int ret_code = POSTBOX_NO_EVENT;

	mov         w8,#-1
	str         w8,[sp,#4]

; 216  : 	uint16_t owner_id = 0;

	mov         w8,#0
	strh        w8,[sp,#2]

; 217  : 	if (root)

	ldrb        w8,[sp]
	mov         w8,w8
	cmp         w8,#0
	beq         |$LN5@PostBoxGet|

; 218  : 		owner_id = POSTBOX_ROOT_ID;

	mov         w8,#1
	strh        w8,[sp,#2]
	b           |$LN6@PostBoxGet|
|$LN5@PostBoxGet|

; 219  : 	else
; 220  : 		owner_id = curr_thread->thread_id;

	ldr         x8,[sp,#0x18]
	add         x8,x8,#0xF0
	ldr         x8,[x8]
	uxth        w8,w8
	strh        w8,[sp,#2]
|$LN6@PostBoxGet|

; 221  : 	
; 222  : 	for (PostBox* box = firstBox; box != NULL; box = box->next) {

	adrp        x8,firstBox
	ldr         x8,[x8,PageOffset(firstBox)]
	str         x8,[sp,#8]
	b           |$LN4@PostBoxGet|
|$LN2@PostBoxGet|
	ldr         x8,[sp,#8]
	add         x8,x8,#0x18
	ldr         x8,[x8]
	str         x8,[sp,#8]
|$LN4@PostBoxGet|
	ldr         x8,[sp,#8]
	cmp         x8,#0
	beq         |$LN3@PostBoxGet|

; 223  : 		if (box->ownerID == owner_id) {

	ldr         x8,[sp,#8]
	add         x8,x8,#8
	ldrh        w9,[x8]
	mov         w9,w9
	ldrh        w8,[sp,#2]
	mov         w8,w8
	cmp         w9,w8
	bne         |$LN7@PostBoxGet|

; 224  : 			//UARTDebugOut("[postbox]: getting event : %d %d\r\n", box->ownerID, owner_id);
; 225  : 			if (!IsPostBoxEmpty(box)) {

	ldr         x0,[sp,#8]
	bl          IsPostBoxEmpty
	uxtb        w8,w0
	mov         w8,w8
	cmp         w8,#0
	bne         |$LN8@PostBoxGet|

; 226  : 				uint8_t* src = (uint8_t*)box->address + (box->tailIdx * POSTEVENT_SIZE_ALIGNED);

	ldr         x10,[sp,#8]
	ldr         x8,[sp,#8]
	add         x8,x8,#0x10
	ldr         w8,[x8]
	sxtw        x9,w8
	mov         x8,#0xB0
	mul         x9,x9,x8
	ldr         x8,[x10]
	add         x8,x8,x9
	str         x8,[sp,#0x10]

; 227  : 				//memcpy(event, &box->address[box->tailIdx], sizeof(PostEvent));
; 228  : 				memcpy(event, src, sizeof(PostEvent));

	mov         x2,#0xB0
	ldr         x1,[sp,#0x10]
	ldr         x0,[sp,#0x20]
	bl          memcpy

; 229  : 				memset(src, 0, sizeof(PostEvent));

	mov         w2,#0xB0
	mov         w1,#0
	ldr         x0,[sp,#0x10]
	bl          memset

; 230  : 				//memset(&box->address[box->tailIdx], 0, sizeof(PostEvent));
; 231  : 				PostBoxRetreat(box);

	ldr         x0,[sp,#8]
	bl          PostBoxRetreat

; 232  : 				ret_code = 1;

	mov         w8,#1
	str         w8,[sp,#4]
|$LN8@PostBoxGet|

; 233  : 			}
; 234  : 			break;

	b           |$LN3@PostBoxGet|
|$LN7@PostBoxGet|

; 235  : 		}
; 236  : 	}

	b           |$LN2@PostBoxGet|
|$LN3@PostBoxGet|

; 237  : 
; 238  : 	return ret_code;

	ldr         w0,[sp,#4]
	add         sp,sp,#0x30
	ldr         lr,[sp],#0x10
	ret

	ENDP  ; |PostBoxGetEvent|

; Function compile flags: /Odtpy
; File C:\Users\paras\source\repos\grep-name\XenevaOS\KernelAA64\Ipc\postbox.c

	AREA	|.text$mn|, CODE, ARM64

|PostBoxPutEvent| PROC

; 176  : void PostBoxPutEvent(PostEvent* event) {

|$LN11|
	str         lr,[sp,#-0x10]!
	sub         sp,sp,#0x30
	str         x0,[sp,#0x18]

; 177  : 	enscheddebug();

	bl          enscheddebug

; 178  : 	uint16_t owner_id = event->to_id;

	ldr         x8,[sp,#0x18]
	add         x8,x8,#2
	ldrh        w8,[x8]
	strh        w8,[sp]

; 179  : 	for (PostBox* box = firstBox; box != NULL; box = box->next) {

	adrp        x8,firstBox
	ldr         x8,[x8,PageOffset(firstBox)]
	str         x8,[sp,#8]
	b           |$LN4@PostBoxPut|
|$LN2@PostBoxPut|
	ldr         x8,[sp,#8]
	add         x8,x8,#0x18
	ldr         x8,[x8]
	str         x8,[sp,#8]
|$LN4@PostBoxPut|
	ldr         x8,[sp,#8]
	cmp         x8,#0
	beq         |$LN3@PostBoxPut|

; 180  : 		if (box->ownerID == owner_id) {

	ldr         x8,[sp,#8]
	add         x8,x8,#8
	ldrh        w9,[x8]
	mov         w9,w9
	ldrh        w8,[sp]
	mov         w8,w8
	cmp         w9,w8
	bne         |$LN5@PostBoxPut|

; 181  : 			if (!IsPostBoxFull(box)) {

	ldr         x0,[sp,#8]
	bl          IsPostBoxFull
	uxtb        w8,w0
	mov         w8,w8
	cmp         w8,#0
	bne         |$LN6@PostBoxPut|

; 182  : 				uint8_t* dest = (uint8_t*)box->address + (box->headIdx * POSTEVENT_SIZE_ALIGNED);

	ldr         x10,[sp,#8]
	ldr         x8,[sp,#8]
	add         x8,x8,#0xC
	ldr         w8,[x8]
	sxtw        x9,w8
	mov         x8,#0xB0
	mul         x9,x9,x8
	ldr         x8,[x10]
	add         x8,x8,x9
	str         x8,[sp,#0x20]

; 183  : 				//memcpy(&box->address[box->headIdx], event, sizeof(PostEvent));
; 184  : 				memcpy(dest, event, sizeof(PostEvent));

	mov         x2,#0xB0
	ldr         x1,[sp,#0x18]
	ldr         x0,[sp,#0x20]
	bl          memcpy

; 185  : 				PostBoxAdvanceIndex(box);

	ldr         x0,[sp,#8]
	bl          PostBoxAdvanceIndex
|$LN6@PostBoxPut|

; 186  : 			}
; 187  : 			break;

	b           |$LN3@PostBoxPut|
|$LN5@PostBoxPut|

; 188  : 		}
; 189  : 	}

	b           |$LN2@PostBoxPut|
|$LN3@PostBoxPut|

; 190  : 
; 191  : 
; 192  : 	AA64Thread* thread = AuThreadFindByID(owner_id);

	ldrh        w8,[sp]
	mov         w8,w8
	sxtw        x0,w8
	bl          AuThreadFindByID
	str         x0,[sp,#0x10]

; 193  : 	if (!thread)

	ldr         x8,[sp,#0x10]
	cmp         x8,#0
	bne         |$LN7@PostBoxPut|

; 194  : 		thread = AuThreadFindByIDBlockList(owner_id);

	ldrh        w8,[sp]
	mov         w8,w8
	sxtw        x0,w8
	bl          AuThreadFindByIDBlockList
	str         x0,[sp,#0x10]
|$LN7@PostBoxPut|

; 195  : 
; 196  : 	if (thread != NULL && thread->state == THREAD_STATE_BLOCKED) {

	ldr         x8,[sp,#0x10]
	cmp         x8,#0
	beq         |$LN8@PostBoxPut|
	ldr         x8,[sp,#0x10]
	add         x8,x8,#0xC0
	ldrb        w8,[x8]
	mov         w8,w8
	cmp         w8,#3
	bne         |$LN8@PostBoxPut|

; 197  : 		/* sometime i don't know, this happens */
; 198  : 		if (strcmp(thread->name, "exec") == 0)

	ldr         x8,[sp,#0x10]
	add         x0,x8,#0xD0
	adrp        x8,|$SG3611|
	add         x1,x8,PageOffset(|$SG3611|)
	bl          strcmp
	mov         w0,w0
	cmp         w0,#0
	bne         |$LN9@PostBoxPut|

; 199  : 			return;

	b           |$LN1@PostBoxPut|
|$LN9@PostBoxPut|

; 200  : 		AuUnblockThread(thread);

	ldr         x0,[sp,#0x10]
	bl          AuUnblockThread
|$LN8@PostBoxPut|
|$LN1@PostBoxPut|
	add         sp,sp,#0x30
	ldr         lr,[sp],#0x10
	ret

	ENDP  ; |PostBoxPutEvent|

; Function compile flags: /Odtpy
; File C:\Users\paras\source\repos\grep-name\XenevaOS\KernelAA64\Ipc\postbox.c

	AREA	|.text$mn|, CODE, ARM64

|AuIPCPostBoxInitialise| PROC

; 297  : void AuIPCPostBoxInitialise() {

|$LN3|
	str         lr,[sp,#-0x10]!
	sub         sp,sp,#0x10

; 298  : 	firstBox = NULL;

	adrp        x9,firstBox
	mov         x8,#0
	str         x8,[x9,PageOffset(firstBox)]

; 299  : 	lastBox = NULL;

	adrp        x9,lastBox
	mov         x8,#0
	str         x8,[x9,PageOffset(lastBox)]

; 300  : 
; 301  : 	/** create the postbox file */
; 302  : 
; 303  : 	/** I dont know, but the sixth item in the device fs list is
; 304  : 	 * the postbox file node, but miraculously 6th item disappers from 
; 305  : 	 * the list when opened from user space that's why we are creating
; 306  : 	 * a dummy node in the dev list
; 307  : 	 */
; 308  : 	AuVFSNode* dev = AuVFSFind("/dev");

	adrp        x8,|$SG3667|
	add         x0,x8,PageOffset(|$SG3667|)
	bl          AuVFSFind
	str         x0,[sp,#8]

; 309  : 	/*AuVFSNode* node = (AuVFSNode*)kmalloc(sizeof(AuVFSNode));
; 310  : 	memset(node, 0, sizeof(AuVFSNode));
; 311  : 	strcpy(node->filename, "dummy");
; 312  : 	aa64_data_cache_clean_range(&node->filename, 32);
; 313  : 	node->flags = FS_FLAG_DEVICE;
; 314  : 	node->device = dev;
; 315  : 	node->read = 0;
; 316  : 	node->write = 0;
; 317  : 	node->iocontrol = PostBoxIOControl;
; 318  : 	dsb_sy_barrier();
; 319  : 	AuDevFSAddFile(dev, "/", node);*/
; 320  : 
; 321  : 
; 322  : 	AuVFSNode* node2 = (AuVFSNode*)kmalloc(sizeof(AuVFSNode));

	mov         w0,#0xD0
	bl          kmalloc
	str         x0,[sp]

; 323  : 	memset(node2, 0, sizeof(AuVFSNode));

	mov         w2,#0xD0
	mov         w1,#0
	ldr         x0,[sp]
	bl          memset

; 324  : 	strcpy(node2->filename, "postbox");

	ldr         x0,[sp]
	adrp        x8,|$SG3668|
	add         x1,x8,PageOffset(|$SG3668|)
	bl          strcpy

; 325  : 	node2->flags = FS_FLAG_DEVICE;

	ldr         x8,[sp]
	add         x9,x8,#0x40
	mov         w8,#8
	strh        w8,[x9]

; 326  : 	node2->device = dev;

	ldr         x8,[sp]
	add         x9,x8,#0x50
	ldr         x8,[sp,#8]
	str         x8,[x9]

; 327  : 	node2->read = 0;

	ldr         x8,[sp]
	add         x9,x8,#0x70
	mov         x8,#0
	str         x8,[x9]

; 328  : 	node2->write = 0;

	ldr         x8,[sp]
	add         x9,x8,#0x78
	mov         x8,#0
	str         x8,[x9]

; 329  : 	node2->uid = 0;

	ldr         x8,[sp]
	add         x9,x8,#0x44
	mov         w8,#0
	str         w8,[x9]

; 330  : 	node2->gid = AuCredGetGroupID(AURORA_GID_IPC_POSTBOX);

	mov         w0,#4
	bl          AuCredGetGroupID
	mov         w0,w0
	ldr         x8,[sp]
	add         x8,x8,#0x48
	str         w0,[x8]

; 331  : 	node2->iocontrol = PostBoxIOControl;

	ldr         x8,[sp]
	add         x9,x8,#0xC8
	adrp        x8,PostBoxIOControl
	add         x8,x8,PageOffset(PostBoxIOControl)
	str         x8,[x9]

; 332  : 	dsb_sy_barrier();

	bl          dsb_sy_barrier

; 333  : 	AuDevFSAddFile(dev, "/", node2);

	ldr         x2,[sp]
	adrp        x8,|$SG3669|
	add         x1,x8,PageOffset(|$SG3669|)
	ldr         x0,[sp,#8]
	bl          AuDevFSAddFile

; 334  : 	AuDevFSList(dev);

	ldr         x0,[sp,#8]
	bl          AuDevFSList

; 335  : 
; 336  : 	//aa64_data_cache_clean_range(node, sizeof(AuVFSNode));
; 337  : 	pbox = node2;

	adrp        x9,pbox
	ldr         x8,[sp]
	str         x8,[x9,PageOffset(pbox)]

; 338  : 	_PostBoxRootCreated = false;

	adrp        x9,_PostBoxRootCreated
	mov         w8,#0
	strb        w8,[x9,PageOffset(_PostBoxRootCreated)]

; 339  : 	AuTextOut("[aurora]: PostBox IPC mounted and initialized to /dev/pbox \r\n");

	adrp        x8,|$SG3670|
	add         x0,x8,PageOffset(|$SG3670|)
	bl          AuTextOut

; 340  : 	AuTextOut("[aurora]: PostEvent size : %d bytes \r\n", sizeof(PostEvent));

	mov         x1,#0xB0
	adrp        x8,|$SG3671|
	add         x0,x8,PageOffset(|$SG3671|)
	bl          AuTextOut

; 341  : 	AuTextOut("[aurora]: PostBox size aligned : %d number \r\n", (4096 / ALIGN_UP(sizeof(PostEvent), 8)));

	mov         x1,#0x17
	adrp        x8,|$SG3672|
	add         x0,x8,PageOffset(|$SG3672|)
	bl          AuTextOut
	add         sp,sp,#0x10
	ldr         lr,[sp],#0x10
	ret

	ENDP  ; |AuIPCPostBoxInitialise|

	END
