; Listing generated by Microsoft (R) Optimizing Compiler Version 19.29.30159.0 

	TTL	C:\Users\paras\source\repos\grep-name\XenevaOS\KernelAA64\ARM64\Debug\power.obj
	ARM64

	AREA	|.drectve|, DRECTVE

	EXPORT	|AuPowerDown|
	EXPORT	|AuPowerReset|
	IMPORT	|AuAA64BoardPowerDown|
	IMPORT	|AuAA64BoardReboot|
	IMPORT	|AuGetCurrentThread|
	IMPORT	|AuProcessFindThread|
	IMPORT	|AuProcessFindSubThread|

	AREA	|.pdata|, PDATA
|$pdata$AuPowerDown| DCD imagerel |$LN7|
	DCD	0x1200091
	;Flags[SingleProEpi] functionLength[144] RegF[0] RegI[0] H[0] frameChainReturn[UnChainedSavedLR] frameSize[32]
|$pdata$AuPowerReset| DCD imagerel |$LN7|
	DCD	0x1200091
	;Flags[SingleProEpi] functionLength[144] RegF[0] RegI[0] H[0] frameChainReturn[UnChainedSavedLR] frameSize[32]
; Function compile flags: /Odtpy
; File C:\Users\paras\source\repos\grep-name\XenevaOS\KernelAA64\power.c

	AREA	|.text$mn|, CODE, ARM64

|AuPowerReset| PROC

; 71   : void AuPowerReset() {

|$LN7|
	str         lr,[sp,#-0x10]!
	sub         sp,sp,#0x10

; 72   : 	AA64Thread* thr = AuGetCurrentThread();

	bl          AuGetCurrentThread
	str         x0,[sp,#8]

; 73   : 	AuProcess* proc = AuProcessFindThread(thr);

	ldr         x0,[sp,#8]
	bl          AuProcessFindThread
	str         x0,[sp]

; 74   : 	if (!proc) {

	ldr         x8,[sp]
	cmp         x8,#0
	bne         |$LN2@AuPowerRes|

; 75   : 		proc = AuProcessFindSubThread(thr);

	ldr         x0,[sp,#8]
	bl          AuProcessFindSubThread
	str         x0,[sp]

; 76   : 		if (!proc)

	ldr         x8,[sp]
	cmp         x8,#0
	bne         |$LN3@AuPowerRes|

; 77   : 			return 1;

	mov         w0,#1
	b           |$LN1@AuPowerRes|
|$LN3@AuPowerRes|
|$LN2@AuPowerRes|

; 78   : 	}
; 79   : 
; 80   : 	if (proc->creds.uid != 0)

	ldr         x8,[sp]
	add         x8,x8,#0x474
	ldr         w8,[x8]
	cmp         w8,#0
	beq         |$LN4@AuPowerRes|

; 81   : 		return 1;

	mov         w0,#1
	b           |$LN1@AuPowerRes|
|$LN4@AuPowerRes|

; 82   : 
; 83   : 	if (proc->creds.gid != 0)

	ldr         x8,[sp]
	add         x8,x8,#0x478
	ldr         w8,[x8]
	cmp         w8,#0
	beq         |$LN5@AuPowerRes|

; 84   : 		return 1;

	mov         w0,#1
	b           |$LN1@AuPowerRes|
|$LN5@AuPowerRes|

; 85   : 
; 86   : 	// call system_down for xeneva for freeing up resources
; 87   : 	// call all driver to power off itself before restart
; 88   : 
; 89   : 	/** TODO : Flush all system resources that needs disk
; 90   : 	 * writes and call board power down which will handle
; 91   : 	 * powering down of the board
; 92   : 	 */
; 93   : 	AuAA64BoardReboot();

	bl          AuAA64BoardReboot
|$LN1@AuPowerRes|
	add         sp,sp,#0x10
	ldr         lr,[sp],#0x10
	ret

	ENDP  ; |AuPowerReset|

; Function compile flags: /Odtpy
; File C:\Users\paras\source\repos\grep-name\XenevaOS\KernelAA64\power.c

	AREA	|.text$mn|, CODE, ARM64

|AuPowerDown| PROC

; 42   : int AuPowerDown() {

|$LN7|
	str         lr,[sp,#-0x10]!
	sub         sp,sp,#0x10

; 43   : 	AA64Thread* thr = AuGetCurrentThread();

	bl          AuGetCurrentThread
	str         x0,[sp,#8]

; 44   : 	AuProcess* proc = AuProcessFindThread(thr);

	ldr         x0,[sp,#8]
	bl          AuProcessFindThread
	str         x0,[sp]

; 45   : 	if (!proc) {

	ldr         x8,[sp]
	cmp         x8,#0
	bne         |$LN2@AuPowerDow|

; 46   : 		proc = AuProcessFindSubThread(thr);

	ldr         x0,[sp,#8]
	bl          AuProcessFindSubThread
	str         x0,[sp]

; 47   : 		if (!proc)

	ldr         x8,[sp]
	cmp         x8,#0
	bne         |$LN3@AuPowerDow|

; 48   : 			return 1;

	mov         w0,#1
	b           |$LN1@AuPowerDow|
|$LN3@AuPowerDow|
|$LN2@AuPowerDow|

; 49   : 	}
; 50   : 
; 51   : 	if (proc->creds.uid != 0)

	ldr         x8,[sp]
	add         x8,x8,#0x474
	ldr         w8,[x8]
	cmp         w8,#0
	beq         |$LN4@AuPowerDow|

; 52   : 		return 1;

	mov         w0,#1
	b           |$LN1@AuPowerDow|
|$LN4@AuPowerDow|

; 53   : 
; 54   : 	if (proc->creds.gid != 0)

	ldr         x8,[sp]
	add         x8,x8,#0x478
	ldr         w8,[x8]
	cmp         w8,#0
	beq         |$LN5@AuPowerDow|

; 55   : 		return 1;

	mov         w0,#1
	b           |$LN1@AuPowerDow|
|$LN5@AuPowerDow|

; 56   : 
; 57   : 	// call system_down for xeneva for freeing up resources
; 58   : 	// call all drivers to turn off itself before powering off
; 59   : 
; 60   : 	/** TODO : Flush all system resources that needs disk
; 61   : 	 * writes and call board power down which will handle
; 62   : 	 * powering down of the board
; 63   : 	 */
; 64   : 	AuAA64BoardPowerDown();

	bl          AuAA64BoardPowerDown
|$LN1@AuPowerDow|
	add         sp,sp,#0x10
	ldr         lr,[sp],#0x10
	ret

	ENDP  ; |AuPowerDown|

	END
