; Listing generated by Microsoft (R) Optimizing Compiler Version 19.29.30159.0 

	TTL	C:\Users\paras\source\repos\grep-name\XenevaOS\KernelAA64\ARM64\Debug\process.obj
	ARM64

	AREA	|.drectve|, DRECTVE


	AREA	|.data|, DATA
	 COMMON	|proc_first|, 0x8

	 COMMON	|proc_last|, 0x8

	 COMMON	|root_proc|, 0x8


	AREA	|.rdata|, DATA, READONLY
|MAGIC_NATIVE| DCD 0x10b
|MACHINE_NATIVE| DCD 0x14c
	EXPORT	|AuAddProcess|
	EXPORT	|AuRemoveProcess|
	EXPORT	|AuProcessFindPID|
	EXPORT	|AuProcessFindThread|
	EXPORT	|AuProcessFindSubThread|
	EXPORT	|CreateUserStack|
	EXPORT	|AuCreateProcessSlot|
	EXPORT	|AuProcessExit|
	EXPORT	|AuProcessGetFileDesc|
	EXPORT	|AuProcessWaitForTermination|
	EXPORT	|CreateSubUserStack|
	EXPORT	|AuCreateUserthread|
	EXPORT	|AuProcessFindByPID|
	EXPORT	|AuProcessFindByThread|
	EXPORT	|AuAllocateProcessID|
	EXPORT	|AuProcessHeapMemDestroy|
	EXPORT	|AuProcessFreeKeResource|
	EXPORT	|AuGetKillableProcess|
	IMPORT	|initialize_list|
	IMPORT	|list_add|
	IMPORT	|list_remove|
	IMPORT	|AuCreateKernelStack|
	IMPORT	|AuCreateSubKthread|
	IMPORT	|AuGetCurrentThread|
	IMPORT	|AuBlockThread|
	IMPORT	|AuUnblockThread|
	IMPORT	|AuSleepThread|
	IMPORT	|AuThreadMoveToTrash|
	IMPORT	|AuVmmngrGetPage|
	IMPORT	|AuMapPage|
	IMPORT	|AuMapPageEx|
	IMPORT	|AuCreateVirtualAddressSpace|
	IMPORT	|kmalloc|
	IMPORT	|kfree|
	IMPORT	|AuPmmngrAlloc|
	IMPORT	|AuPmmngrFree|
	IMPORT	|P2V|
	IMPORT	|V2P|
	IMPORT	|strncpy|
	IMPORT	|memset|
	IMPORT	|memcpy|
	IMPORT	|AuSHMUnmapAll|
	IMPORT	|AuProcessEntUser|
	IMPORT	|PostBoxDestroyByID|
	IMPORT	|UARTDebugOut|
	IMPORT	|isb_flush|
	IMPORT	|tlb_flush_vmalle1is|
	IMPORT	|dsb_ish|
	IMPORT	|AuProcessClean|

	AREA	|.pdata|, PDATA
|$pdata$AuAddProcess| DCD imagerel |$LN5|
	DCD	0x800095
	;Flags[SingleProEpi] functionLength[148] RegF[0] RegI[0] H[0] frameChainReturn[UnChained] frameSize[16]
|$pdata$AuRemoveProcess| DCD imagerel |$LN8|
	DCD	0x12000d5
	;Flags[SingleProEpi] functionLength[212] RegF[0] RegI[0] H[0] frameChainReturn[UnChainedSavedLR] frameSize[32]
|$pdata$AuProcessFindPID| DCD imagerel |$LN7|
	DCD	0x800065
	;Flags[SingleProEpi] functionLength[100] RegF[0] RegI[0] H[0] frameChainReturn[UnChained] frameSize[16]
|$pdata$AuProcessFindThread| DCD imagerel |$LN7|
	DCD	0x800065
	;Flags[SingleProEpi] functionLength[100] RegF[0] RegI[0] H[0] frameChainReturn[UnChained] frameSize[16]
|$pdata$AuProcessFindSubThread| DCD imagerel |$LN3|
	DCD	0x800025
	;Flags[SingleProEpi] functionLength[36] RegF[0] RegI[0] H[0] frameChainReturn[UnChained] frameSize[16]
|$pdata$CreateUserStack| DCD imagerel |$LN7|
	DCD	0x22000f9
	;Flags[SingleProEpi] functionLength[248] RegF[0] RegI[0] H[0] frameChainReturn[UnChainedSavedLR] frameSize[64]
|$pdata$AuCreateProcessSlot| DCD imagerel |$LN9|
	DCD	0x2a002b5
	;Flags[SingleProEpi] functionLength[692] RegF[0] RegI[0] H[0] frameChainReturn[UnChainedSavedLR] frameSize[80]
|$pdata$AuProcessExit| DCD imagerel |$LN27|
	DCD	0x220034d
	;Flags[SingleProEpi] functionLength[844] RegF[0] RegI[0] H[0] frameChainReturn[UnChainedSavedLR] frameSize[64]
|$pdata$AuProcessGetFileDesc| DCD imagerel |$LN7|
	DCD	0x80006d
	;Flags[SingleProEpi] functionLength[108] RegF[0] RegI[0] H[0] frameChainReturn[UnChained] frameSize[16]
|$pdata$AuProcessWaitForTermination| DCD imagerel |$LN11|
	DCD	0x22000d9
	;Flags[SingleProEpi] functionLength[216] RegF[0] RegI[0] H[0] frameChainReturn[UnChainedSavedLR] frameSize[64]
|$pdata$CreateSubUserStack| DCD imagerel |$LN7|
	DCD	0x220010d
	;Flags[SingleProEpi] functionLength[268] RegF[0] RegI[0] H[0] frameChainReturn[UnChainedSavedLR] frameSize[64]
|$pdata$AuCreateUserthread| DCD imagerel |$LN3|
	DCD	0x2a0022d
	;Flags[SingleProEpi] functionLength[556] RegF[0] RegI[0] H[0] frameChainReturn[UnChainedSavedLR] frameSize[80]
|$pdata$AuProcessFindByPID| DCD imagerel |$LN7|
	DCD	0x1000069
	;Flags[SingleProEpi] functionLength[104] RegF[0] RegI[0] H[0] frameChainReturn[UnChained] frameSize[32]
|$pdata$AuProcessFindByThread| DCD imagerel |$LN7|
	DCD	0x1000069
	;Flags[SingleProEpi] functionLength[104] RegF[0] RegI[0] H[0] frameChainReturn[UnChained] frameSize[32]
|$pdata$AuAllocateProcessID| DCD imagerel |$LN3|
	DCD	0x80003d
	;Flags[SingleProEpi] functionLength[60] RegF[0] RegI[0] H[0] frameChainReturn[UnChained] frameSize[16]
|$pdata$AuProcessHeapMemDestroy| DCD imagerel |$LN9|
	DCD	0x2200139
	;Flags[SingleProEpi] functionLength[312] RegF[0] RegI[0] H[0] frameChainReturn[UnChainedSavedLR] frameSize[64]
|$pdata$AuProcessFreeKeResource| DCD imagerel |$LN4|
	DCD	0x1200041
	;Flags[SingleProEpi] functionLength[64] RegF[0] RegI[0] H[0] frameChainReturn[UnChainedSavedLR] frameSize[32]
|$pdata$AuGetKillableProcess| DCD imagerel |$LN7|
	DCD	0x80005d
	;Flags[SingleProEpi] functionLength[92] RegF[0] RegI[0] H[0] frameChainReturn[UnChained] frameSize[16]

	AREA	|.data|, DATA
|pid|	DCD	0x1
	%	4
|$SG3714| DCB	"CreateUserStack: already mapped %x ", 0xd, 0xa, 0x0
	%	2
|$SG3729| DCB	"User stack index : %x ", 0xd, 0xa, 0x0
	%	7
|$SG3731| DCB	"CreateUserStack: already mapped %x ", 0xd, 0xa, 0x0
	%	2
|$SG3760| DCB	"Failed to map environment block for proc %s ", 0xd, 0xa, 0x0
	%	1
|$SG3790| DCB	"[aurora]: user thread creating kmapping : %s ", 0xd, 0xa
	DCB	0x0
|$SG3791| DCB	"User stack created %x ", 0xd, 0xa, 0x0
	%	7
|$SG3792| DCB	"[aurora]: user thread created ", 0xd, 0xa, 0x0
	%	7
|$SG3793| DCB	"[aurora]: creating user stack for user thread cr3 : %x %"
	DCB	"x", 0xd, 0xa, 0x0
	%	4
|$SG3794| DCB	"[aurora]:User stack created : %x main_stack : %x ", 0xd, 0xa
	DCB	0x0
	%	4
|$SG3840| DCB	"[aurora]: cannot exit root process ", 0xd, 0xa, 0x0
	%	2
|$SG3842| DCB	"[aurora]: process : %s cannot exit ", 0xd, 0xa, 0x0
	%	2
|$SG3844| DCB	"[AuProcessExit]: closing file : %s flags %x", 0xd, 0xa, 0x0
	%	2
|$SG3846| DCB	"[AuProcessExit]: cached file skipped close : %s, flags :"
	DCB	" %x", 0xd, 0xa, 0x0
	%	2
|$SG3854| DCB	"Freeing up file : %s ", 0xd, 0xa, 0x0
; Function compile flags: /Odtpy
; File C:\Users\paras\source\repos\grep-name\XenevaOS\KernelAA64\process.c

	AREA	|.text$mn|, CODE, ARM64

|AuGetKillableProcess| PROC

; 472  : AuProcess* AuGetKillableProcess() {

|$LN7|
	sub         sp,sp,#0x10

; 473  : 	for (AuProcess* proc_ = proc_first; proc_ != NULL; proc_ = proc_->next) {

	adrp        x8,proc_first
	ldr         x8,[x8,PageOffset(proc_first)]
	str         x8,[sp]
	b           |$LN4@AuGetKilla|
|$LN2@AuGetKilla|
	ldr         x8,[sp]
	add         x8,x8,#0x4B0
	ldr         x8,[x8]
	str         x8,[sp]
|$LN4@AuGetKilla|
	ldr         x8,[sp]
	cmp         x8,#0
	beq         |$LN3@AuGetKilla|

; 474  : 		if (proc_->state & PROCESS_STATE_DIED)

	ldr         x8,[sp]
	add         x8,x8,#0x14
	ldrb        w8,[x8]
	mov         w8,w8
	tbz         x8,#3,|$LN5@AuGetKilla|

; 475  : 			return proc_;

	ldr         x0,[sp]
	b           |$LN1@AuGetKilla|
|$LN5@AuGetKilla|

; 476  : 	}

	b           |$LN2@AuGetKilla|
|$LN3@AuGetKilla|

; 477  : 
; 478  : 	return NULL;

	mov         x0,#0
|$LN1@AuGetKilla|
	add         sp,sp,#0x10
	ret

	ENDP  ; |AuGetKillableProcess|

; Function compile flags: /Odtpy
; File C:\Users\paras\source\repos\grep-name\XenevaOS\KernelAA64\process.c

	AREA	|.text$mn|, CODE, ARM64

|AuProcessFreeKeResource| PROC

; 370  : void AuProcessFreeKeResource(AA64Thread* thr) {

|$LN4|
	str         lr,[sp,#-0x10]!
	sub         sp,sp,#0x10
	str         x0,[sp]

; 371  : 	if (!thr)

	ldr         x8,[sp]
	cmp         x8,#0
	bne         |$LN2@AuProcessF|

; 372  : 		return;

	b           |$LN1@AuProcessF|
|$LN2@AuProcessF|

; 373  : 	/* free-up all allocated kernel resources */
; 374  : 
; 375  : 	/* cleanup user related informations */
; 376  : 
; 377  : 	//AuSoundRemoveDSP(thr->id);
; 378  : 
; 379  : 	/* close allocated signals */
; 380  : 	//AuSignalRemoveAll(thr);
; 381  : 
; 382  : 	/* remove allocated postbox*/
; 383  : 	PostBoxDestroyByID(thr->thread_id);

	ldr         x8,[sp]
	add         x8,x8,#0xF0
	ldr         x8,[x8]
	uxth        w0,w8
	mov         w0,w0
	bl          PostBoxDestroyByID
|$LN1@AuProcessF|
	add         sp,sp,#0x10
	ldr         lr,[sp],#0x10
	ret

	ENDP  ; |AuProcessFreeKeResource|

; Function compile flags: /Odtpy
; File C:\Users\paras\source\repos\grep-name\XenevaOS\KernelAA64\process.c

	AREA	|.text$mn|, CODE, ARM64

|AuProcessHeapMemDestroy| PROC

; 338  : void AuProcessHeapMemDestroy(AuProcess* proc) {

|$LN9|
	str         lr,[sp,#-0x10]!
	sub         sp,sp,#0x30
	str         x0,[sp,#0x10]

; 339  : 	uint64_t startaddr = PROCESS_BREAK_ADDRESS;

	mov         x8,#0x3000000000
	str         x8,[sp,#0x20]

; 340  : 	if ((proc->proc_heapmem_len % PAGE_SIZE) != 0)

	ldr         x8,[sp,#0x10]
	add         x8,x8,#0x460
	ldr         x10,[x8]
	mov         x9,#0x1000
	udiv        x8,x10,x9
	mul         x8,x8,x9
	sub         x8,x10,x8
	cmp         x8,#0
	beq         |$LN5@AuProcessH|

; 341  : 		proc->proc_heapmem_len++;

	ldr         x8,[sp,#0x10]
	add         x8,x8,#0x460
	ldr         x8,[x8]
	add         x9,x8,#1
	ldr         x8,[sp,#0x10]
	add         x8,x8,#0x460
	str         x9,[x8]
|$LN5@AuProcessH|

; 342  : 
; 343  : 	for (int i = 0; i < proc->proc_heapmem_len / 4096; i++) {

	mov         w8,#0
	str         w8,[sp]
	b           |$LN4@AuProcessH|
|$LN2@AuProcessH|
	ldr         w8,[sp]
	add         w8,w8,#1
	str         w8,[sp]
|$LN4@AuProcessH|
	ldr         w8,[sp]
	sxtw        x10,w8
	ldr         x8,[sp,#0x10]
	add         x8,x8,#0x460
	ldr         x9,[x8]
	mov         x8,#0x1000
	udiv        x8,x9,x8
	cmp         x10,x8
	bhs         |$LN3@AuProcessH|

; 344  : 		AuVPage* page = AuVmmngrGetPage(startaddr + i * PAGE_SIZE, VIRT_GETPAGE_ONLY_RET, VIRT_GETPAGE_ONLY_RET);

	ldr         w8,[sp]
	sxtw        x9,w8
	mov         x8,#0x1000
	mul         x9,x9,x8
	ldr         x8,[sp,#0x20]
	add         x0,x8,x9
	mov         w2,#2
	mov         w1,#2
	bl          AuVmmngrGetPage
	str         x0,[sp,#8]

; 345  : 		if (page) {

	ldr         x8,[sp,#8]
	cmp         x8,#0
	beq         |$LN6@AuProcessH|

; 346  : 			uint64_t phys = page->bits.page << PAGE_SHIFT;

	ldr         x8,[sp,#8]
	ldr         x8,[x8]
	ubfx        x8,x8,#0xC,#0x24
	lsl         x8,x8,#0xC
	str         x8,[sp,#0x18]

; 347  : 			if (phys) {

	ldr         x8,[sp,#0x18]
	cmp         x8,#0
	beq         |$LN7@AuProcessH|

; 348  : #if 0
; 349  : 				UARTDebugOut("Heap mem destroy -> %x \r\n", phys);
; 350  : #endif
; 351  : 				AuPmmngrFree((void*)phys);

	ldr         x0,[sp,#0x18]
	bl          AuPmmngrFree
|$LN7@AuProcessH|

; 352  : 			}
; 353  : 			page->bits.page = 0;

	ldr         x8,[sp,#8]
	ldr         x8,[x8]
	and         x9,x8,#-0xFFFFFFFFF001
	ldr         x8,[sp,#8]
	str         x9,[x8]

; 354  : 			isb_flush();

	bl          isb_flush

; 355  : 			page->bits.present = 0;

	ldr         x8,[sp,#8]
	ldr         x8,[x8]
	and         x9,x8,#-2
	ldr         x8,[sp,#8]
	str         x9,[x8]

; 356  : 			isb_flush();

	bl          isb_flush

; 357  : 			tlb_flush_vmalle1is();

	bl          tlb_flush_vmalle1is

; 358  : 			dsb_ish();

	bl          dsb_ish

; 359  : 			isb_flush();

	bl          isb_flush
|$LN6@AuProcessH|

; 360  : 		}
; 361  : 	}

	b           |$LN2@AuProcessH|
|$LN3@AuProcessH|
	add         sp,sp,#0x30
	ldr         lr,[sp],#0x10
	ret

	ENDP  ; |AuProcessHeapMemDestroy|

; Function compile flags: /Odtpy
; File C:\Users\paras\source\repos\grep-name\XenevaOS\KernelAA64\process.c

	AREA	|.text$mn|, CODE, ARM64

|AuAllocateProcessID| PROC

; 169  : int AuAllocateProcessID() {

|$LN3|
	sub         sp,sp,#0x10

; 170  : 	size_t _pid = pid;

	adrp        x8,pid
	ldr         w8,[x8,PageOffset(pid)]
	sxtw        x8,w8
	str         x8,[sp]

; 171  : 	pid = pid + 1;

	adrp        x8,pid
	ldr         w8,[x8,PageOffset(pid)]
	add         w9,w8,#1
	adrp        x8,pid
	str         w9,[x8,PageOffset(pid)]

; 172  : 	return _pid;

	ldr         x8,[sp]
	mov         w0,w8
	mov         w0,w0
	add         sp,sp,#0x10
	ret

	ENDP  ; |AuAllocateProcessID|

; Function compile flags: /Odtpy
; File C:\Users\paras\source\repos\grep-name\XenevaOS\KernelAA64\process.c

	AREA	|.text$mn|, CODE, ARM64

|AuProcessFindByThread| PROC

; 116  : AuProcess* AuProcessFindByThread(AuProcess* proc, AA64Thread* thread) {

|$LN7|
	sub         sp,sp,#0x20
	str         x0,[sp,#0x10]
	str         x1,[sp,#8]

; 117  : 	for (AuProcess* proc_ = proc_first; proc_ != NULL; proc_ = proc_->next) {

	adrp        x8,proc_first
	ldr         x8,[x8,PageOffset(proc_first)]
	str         x8,[sp]
	b           |$LN4@AuProcessF|
|$LN2@AuProcessF|
	ldr         x8,[sp]
	add         x8,x8,#0x4B0
	ldr         x8,[x8]
	str         x8,[sp]
|$LN4@AuProcessF|
	ldr         x8,[sp]
	cmp         x8,#0
	beq         |$LN3@AuProcessF|

; 118  : 		if (proc_->main_thread == thread) {

	ldr         x8,[sp]
	add         x8,x8,#0x50
	ldr         x9,[sp,#8]
	ldr         x8,[x8]
	cmp         x8,x9
	bne         |$LN5@AuProcessF|

; 119  : 			return proc_;

	ldr         x0,[sp]
	b           |$LN1@AuProcessF|
|$LN5@AuProcessF|

; 120  : 		}
; 121  : 	}

	b           |$LN2@AuProcessF|
|$LN3@AuProcessF|

; 122  : 	return NULL;

	mov         x0,#0
|$LN1@AuProcessF|
	add         sp,sp,#0x20
	ret

	ENDP  ; |AuProcessFindByThread|

; Function compile flags: /Odtpy
; File C:\Users\paras\source\repos\grep-name\XenevaOS\KernelAA64\process.c

	AREA	|.text$mn|, CODE, ARM64

|AuProcessFindByPID| PROC

; 103  : AuProcess* AuProcessFindByPID(AuProcess* proc, int pid) {

|$LN7|
	sub         sp,sp,#0x20
	str         x0,[sp,#0x10]
	str         w1,[sp]

; 104  : 	for (AuProcess* proc_ = proc_first; proc_ != NULL; proc_ = proc_->next) {

	adrp        x8,proc_first
	ldr         x8,[x8,PageOffset(proc_first)]
	str         x8,[sp,#8]
	b           |$LN4@AuProcessF|
|$LN2@AuProcessF|
	ldr         x8,[sp,#8]
	add         x8,x8,#0x4B0
	ldr         x8,[x8]
	str         x8,[sp,#8]
|$LN4@AuProcessF|
	ldr         x8,[sp,#8]
	cmp         x8,#0
	beq         |$LN3@AuProcessF|

; 105  : 		if (proc_->proc_id == pid)

	ldr         x8,[sp,#8]
	add         x8,x8,#0x10
	ldr         w9,[sp]
	ldr         w8,[x8]
	cmp         w8,w9
	bne         |$LN5@AuProcessF|

; 106  : 			return proc_;

	ldr         x0,[sp,#8]
	b           |$LN1@AuProcessF|
|$LN5@AuProcessF|

; 107  : 	}

	b           |$LN2@AuProcessF|
|$LN3@AuProcessF|

; 108  : 	return NULL;

	mov         x0,#0
|$LN1@AuProcessF|
	add         sp,sp,#0x20
	ret

	ENDP  ; |AuProcessFindByPID|

; Function compile flags: /Odtpy
; File C:\Users\paras\source\repos\grep-name\XenevaOS\KernelAA64\process.c

	AREA	|.text$mn|, CODE, ARM64

|AuCreateUserthread| PROC

; 304  : {

|$LN3|
	str         lr,[sp,#-0x10]!
	sub         sp,sp,#0x40
	str         x0,[sp,#8]
	str         x1,[sp,#0x38]
	str         x2,[sp,#0x30]

; 305  : 	UARTDebugOut("[aurora]: user thread creating kmapping : %s \r\n", proc->name);

	ldr         x1,[sp,#8]
	adrp        x8,|$SG3790|
	add         x0,x8,PageOffset(|$SG3790|)
	bl          UARTDebugOut

; 306  : 	uint64_t stack = AuCreateKernelStack(proc->cr3);

	ldr         x8,[sp,#8]
	add         x8,x8,#0x18
	ldr         x0,[x8]
	bl          AuCreateKernelStack
	str         x0,[sp,#0x18]

; 307  : 	uint64_t kstack = stack;

	ldr         x8,[sp,#0x18]
	str         x8,[sp,#0x28]

; 308  : 	stack = ((uint64_t)kstack & ~(uint64_t)0xF);

	ldr         x8,[sp,#0x28]
	and         x8,x8,#-0x10
	str         x8,[sp,#0x18]

; 309  : 	stack -= 64;

	ldr         x8,[sp,#0x18]
	sub         x8,x8,#0x40
	str         x8,[sp,#0x18]

; 310  : 	UARTDebugOut("User stack created %x \r\n", stack);

	ldr         x1,[sp,#0x18]
	adrp        x8,|$SG3791|
	add         x0,x8,PageOffset(|$SG3791|)
	bl          UARTDebugOut

; 311  : 	AA64Thread* thr = AuCreateSubKthread(AuProcessEntUser,stack,proc->cr3, name);

	ldr         x8,[sp,#8]
	add         x8,x8,#0x18
	ldr         x3,[sp,#0x30]
	ldr         x2,[x8]
	ldr         x1,[sp,#0x18]
	adrp        x8,AuProcessEntUser
	add         x0,x8,PageOffset(AuProcessEntUser)
	bl          AuCreateSubKthread
	str         x0,[sp,#0x20]

; 312  : 	UARTDebugOut("[aurora]: user thread created \r\n");

	adrp        x8,|$SG3792|
	add         x0,x8,PageOffset(|$SG3792|)
	bl          UARTDebugOut

; 313  : 	thr->threadType = THREAD_LEVEL_USER;

	ldr         x8,[sp,#0x20]
	add         x9,x8,#0xC1
	mov         w8,#2
	strb        w8,[x9]

; 314  : 	thr->first_run = 0;

	ldr         x8,[sp,#0x20]
	add         x9,x8,#0xE8
	mov         w8,#0
	strb        w8,[x9]

; 315  : 	thr->procSlot = proc;

	ldr         x8,[sp,#0x20]
	add         x9,x8,#0xD8
	ldr         x8,[sp,#8]
	str         x8,[x9]

; 316  : 	AuUserEntry* uentry = (AuUserEntry*)kmalloc(sizeof(AuUserEntry));

	mov         w0,#0x40
	bl          kmalloc
	str         x0,[sp,#0x10]

; 317  : 	memset(uentry, 0, sizeof(AuUserEntry));

	mov         w2,#0x40
	mov         w1,#0
	ldr         x0,[sp,#0x10]
	bl          memset

; 318  : 	uentry->argvaddr = 0;

	ldr         x8,[sp,#0x10]
	add         x9,x8,#0x28
	mov         x8,#0
	str         x8,[x9]

; 319  : 	uentry->entrypoint = (uint64_t)entry;

	ldr         x9,[sp,#0x10]
	ldr         x8,[sp,#0x38]
	str         x8,[x9]

; 320  : 	uentry->argvs = 0;

	ldr         x8,[sp,#0x10]
	add         x9,x8,#0x30
	mov         x8,#0
	str         x8,[x9]

; 321  : 	uentry->num_args = 0;

	ldr         x8,[sp,#0x10]
	add         x9,x8,#0x20
	mov         w8,#0
	str         w8,[x9]

; 322  : 	UARTDebugOut("[aurora]: creating user stack for user thread cr3 : %x %x\r\n",proc->cr3, V2P((uint64_t)thr->pml));

	ldr         x8,[sp,#0x20]
	add         x8,x8,#0xC8
	ldr         x0,[x8]
	bl          V2P
	ldr         x8,[sp,#8]
	add         x8,x8,#0x18
	mov         x2,x0
	ldr         x1,[x8]
	adrp        x8,|$SG3793|
	add         x0,x8,PageOffset(|$SG3793|)
	bl          UARTDebugOut

; 323  : 	uentry->rsp = (uint64_t)CreateSubUserStack(proc, proc->cr3);

	ldr         x8,[sp,#8]
	add         x8,x8,#0x18
	ldr         x1,[x8]
	ldr         x0,[sp,#8]
	bl          CreateSubUserStack
	ldr         x8,[sp,#0x10]
	add         x8,x8,#8
	str         x0,[x8]

; 324  : 	UARTDebugOut("[aurora]:User stack created : %x main_stack : %x \r\n", uentry->rsp, proc->_main_stack_);

	ldr         x8,[sp,#8]
	add         x9,x8,#0x30
	ldr         x8,[sp,#0x10]
	add         x8,x8,#8
	ldr         x2,[x9]
	ldr         x1,[x8]
	adrp        x8,|$SG3794|
	add         x0,x8,PageOffset(|$SG3794|)
	bl          UARTDebugOut

; 325  : 	uentry->stackBase = uentry->rsp;

	ldr         x8,[sp,#0x10]
	add         x10,x8,#8
	ldr         x8,[sp,#0x10]
	add         x9,x8,#0x38
	ldr         x8,[x10]
	str         x8,[x9]

; 326  : 	thr->uentry = uentry;

	ldr         x8,[sp,#0x20]
	add         x9,x8,#0xE0
	ldr         x8,[sp,#0x10]
	str         x8,[x9]

; 327  : 	int thread_indx = proc->num_thread;

	ldr         x8,[sp,#8]
	add         x8,x8,#0x58
	ldrb        w8,[x8]
	mov         w8,w8
	str         w8,[sp]

; 328  : 	proc->threads[proc->num_thread] = thr;

	ldr         x8,[sp,#8]
	add         x10,x8,#0x68
	ldr         x8,[sp,#8]
	add         x8,x8,#0x58
	ldrb        w8,[x8]
	mov         w9,w8
	mov         x8,#8
	mul         x8,x9,x8
	add         x9,x10,x8
	ldr         x8,[sp,#0x20]
	str         x8,[x9]

; 329  : 	proc->num_thread += 1;

	ldr         x8,[sp,#8]
	add         x8,x8,#0x58
	ldrb        w8,[x8]
	mov         w8,w8
	add         w10,w8,#1
	ldr         x8,[sp,#8]
	add         x9,x8,#0x58
	uxtb        w8,w10
	strb        w8,[x9]

; 330  : 	return thread_indx;

	ldr         w0,[sp]
	add         sp,sp,#0x40
	ldr         lr,[sp],#0x10
	ret

	ENDP  ; |AuCreateUserthread|

; Function compile flags: /Odtpy
; File C:\Users\paras\source\repos\grep-name\XenevaOS\KernelAA64\process.c

	AREA	|.text$mn|, CODE, ARM64

|CreateSubUserStack| PROC

; 207  : uint64_t* CreateSubUserStack(AuProcess* proc, uint64_t* cr3) {

|$LN7|
	str         lr,[sp,#-0x10]!
	sub         sp,sp,#0x30
	str         x0,[sp,#0x10]
	str         x1,[sp,#0x28]

; 208  : #define USER_STACK 0x000000A000000000 
; 209  : 	uint64_t location = USER_STACK;

	mov         x8,#0xA000000000
	str         x8,[sp,#8]

; 210  : 	UARTDebugOut("User stack index : %x \r\n", proc->_user_stack_index_);

	ldr         x8,[sp,#0x10]
	add         x8,x8,#0x38
	ldr         x1,[x8]
	adrp        x8,|$SG3729|
	add         x0,x8,PageOffset(|$SG3729|)
	bl          UARTDebugOut

; 211  : 	location += proc->_user_stack_index_;

	ldr         x8,[sp,#0x10]
	add         x8,x8,#0x38
	ldr         x9,[sp,#8]
	ldr         x8,[x8]
	add         x8,x9,x8
	str         x8,[sp,#8]

; 212  : 
; 213  : 	for (int i = 0; i < (PROCESS_USER_STACK_SZ / PAGE_SIZE); ++i) {

	mov         w8,#0
	str         w8,[sp]
	b           |$LN4@CreateSubU|
|$LN2@CreateSubU|
	ldr         w8,[sp]
	add         w8,w8,#1
	str         w8,[sp]
|$LN4@CreateSubU|
	ldr         w8,[sp]
	sxtw        x8,w8
	cmp         x8,#0x80
	bhs         |$LN3@CreateSubU|

; 214  : 		uint64_t blk = (uint64_t)AuPmmngrAlloc();

	bl          AuPmmngrAlloc
	str         x0,[sp,#0x18]

; 215  : 		if (!AuMapPage(blk, location + i * PAGE_SIZE, PTE_AP_RW_USER | PTE_AP_RW)) {

	ldr         w8,[sp]
	sxtw        x9,w8
	mov         x8,#0x1000
	mul         x9,x9,x8
	ldr         x8,[sp,#8]
	add         x1,x8,x9
	mov         w2,#0x40
	ldr         x0,[sp,#0x18]
	bl          AuMapPage
	uxtb        w8,w0
	mov         w8,w8
	cmp         w8,#0
	bne         |$LN5@CreateSubU|

; 216  : 			UARTDebugOut("CreateUserStack: already mapped %x \r\n", (location + i * PAGE_SIZE));

	ldr         w8,[sp]
	sxtw        x9,w8
	mov         x8,#0x1000
	mul         x9,x9,x8
	ldr         x8,[sp,#8]
	add         x1,x8,x9
	adrp        x8,|$SG3731|
	add         x0,x8,PageOffset(|$SG3731|)
	bl          UARTDebugOut
|$LN5@CreateSubU|

; 217  : 		}
; 218  : 
; 219  : 	}

	b           |$LN2@CreateSubU|
|$LN3@CreateSubU|

; 220  : 
; 221  : 	proc->_user_stack_index_ += PROCESS_USER_STACK_SZ;

	ldr         x8,[sp,#0x10]
	add         x8,x8,#0x38
	ldr         x8,[x8]
	add         x9,x8,#0x80,lsl #0xC
	ldr         x8,[sp,#0x10]
	add         x8,x8,#0x38
	str         x9,[x8]

; 222  : 	uint64_t* addr = (uint64_t*)(location + PROCESS_USER_STACK_SZ);

	ldr         x8,[sp,#8]
	add         x8,x8,#0x80,lsl #0xC
	str         x8,[sp,#0x20]

; 223  : 	return addr;

	ldr         x0,[sp,#0x20]
	add         sp,sp,#0x30
	ldr         lr,[sp],#0x10
	ret

	ENDP  ; |CreateSubUserStack|

; Function compile flags: /Odtpy
; File C:\Users\paras\source\repos\grep-name\XenevaOS\KernelAA64\process.c

	AREA	|.text$mn|, CODE, ARM64

|AuProcessWaitForTermination| PROC

; 489  : void AuProcessWaitForTermination(AuProcess* proc, int pid) {

|$LN11|
	str         lr,[sp,#-0x10]!
	sub         sp,sp,#0x30
	str         x0,[sp,#0x10]
	str         w1,[sp]

; 490  : 	if (pid == -1) {

	ldr         w8,[sp]
	cmn         w8,#1
	bne         |$LN5@AuProcessW|
|$LN4@AuProcessW|

; 491  : 		do {
; 492  : 			AuProcess* killable = AuGetKillableProcess();

	bl          AuGetKillableProcess
	str         x0,[sp,#8]

; 493  : 
; 494  : 			if (killable) {

	ldr         x8,[sp,#8]
	cmp         x8,#0
	beq         |$LN7@AuProcessW|

; 495  : 				AuProcessClean(0, killable);

	ldr         x1,[sp,#8]
	mov         w0,#0
	bl          AuProcessClean

; 496  : 				killable = NULL;

	mov         x8,#0
	str         x8,[sp,#8]
|$LN7@AuProcessW|

; 497  : 			}
; 498  : 
; 499  : 
; 500  : 			if (!killable) {

	ldr         x8,[sp,#8]
	cmp         x8,#0
	bne         |$LN8@AuProcessW|

; 501  : 				AuSleepThread(proc->main_thread, 10);

	ldr         x8,[sp,#0x10]
	add         x8,x8,#0x50
	mov         x1,#0xA
	ldr         x0,[x8]
	bl          AuSleepThread

; 502  : 				proc->state = PROCESS_STATE_SUSPENDED;

	ldr         x8,[sp,#0x10]
	add         x9,x8,#0x14
	mov         w8,#4
	strb        w8,[x9]

; 503  : 				return;

	b           |$LN1@AuProcessW|
|$LN8@AuProcessW|

; 504  : 			}
; 505  : 		} while (1);

	mov         w8,#1
	cmp         w8,#0
	bne         |$LN4@AuProcessW|

; 506  : 	}

	b           |$LN6@AuProcessW|
|$LN5@AuProcessW|

; 507  : 	else {
; 508  : 		AuProcess* proc = AuProcessFindByPID(0, pid);

	ldr         w1,[sp]
	mov         x0,#0
	bl          AuProcessFindByPID
	str         x0,[sp,#0x18]

; 509  : 		if (!proc)

	ldr         x8,[sp,#0x18]
	cmp         x8,#0
	bne         |$LN9@AuProcessW|

; 510  : 			return;

	b           |$LN1@AuProcessW|
|$LN9@AuProcessW|

; 511  : 		AA64Thread* thr = AuGetCurrentThread();

	bl          AuGetCurrentThread
	str         x0,[sp,#0x20]

; 512  : 		AuBlockThread(thr);

	ldr         x0,[sp,#0x20]
	bl          AuBlockThread

; 513  : 		list_add(proc->waitlist, thr);

	ldr         x8,[sp,#0x18]
	add         x8,x8,#0x448
	ldr         x1,[sp,#0x20]
	ldr         x0,[x8]
	bl          list_add
|$LN6@AuProcessW|
|$LN1@AuProcessW|
	add         sp,sp,#0x30
	ldr         lr,[sp],#0x10
	ret

	ENDP  ; |AuProcessWaitForTermination|

; Function compile flags: /Odtpy
; File C:\Users\paras\source\repos\grep-name\XenevaOS\KernelAA64\process.c

	AREA	|.text$mn|, CODE, ARM64

|AuProcessGetFileDesc| PROC

; 285  : int AuProcessGetFileDesc(AuProcess* proc) {

|$LN7|
	sub         sp,sp,#0x10
	str         x0,[sp,#8]

; 286  : 	for (int i = 3; i < (FILE_DESC_PER_PROCESS - 3); i++) {

	mov         w8,#3
	str         w8,[sp]
	b           |$LN4@AuProcessG|
|$LN2@AuProcessG|
	ldr         w8,[sp]
	add         w8,w8,#1
	str         w8,[sp]
|$LN4@AuProcessG|
	ldr         w8,[sp]
	cmp         w8,#0x39
	bge         |$LN3@AuProcessG|

; 287  : 		if (!proc->fds[i]) {

	ldr         x8,[sp,#8]
	add         x10,x8,#0x248
	ldr         w8,[sp]
	sxtw        x9,w8
	mov         x8,#8
	mul         x8,x9,x8
	add         x8,x10,x8
	ldr         x8,[x8]
	cmp         x8,#0
	bne         |$LN5@AuProcessG|

; 288  : 			return i;

	ldr         w0,[sp]
	b           |$LN1@AuProcessG|
|$LN5@AuProcessG|

; 289  : 		}
; 290  : 	}

	b           |$LN2@AuProcessG|
|$LN3@AuProcessG|

; 291  : 	return -1;

	mov         w0,#-1
|$LN1@AuProcessG|
	add         sp,sp,#0x10
	ret

	ENDP  ; |AuProcessGetFileDesc|

; Function compile flags: /Odtpy
; File C:\Users\paras\source\repos\grep-name\XenevaOS\KernelAA64\process.c

	AREA	|.text$mn|, CODE, ARM64

|AuProcessExit| PROC

; 397  : void AuProcessExit(AuProcess* proc, bool schedulable) {

|$LN27|
	str         lr,[sp,#-0x10]!
	sub         sp,sp,#0x30
	str         x0,[sp,#0x18]
	uxtb        w8,w1
	strb        w8,[sp]

; 398  : 	if (proc == root_proc) {

	adrp        x8,root_proc
	ldr         x9,[x8,PageOffset(root_proc)]
	ldr         x8,[sp,#0x18]
	cmp         x8,x9
	bne         |$LN11@AuProcessE|

; 399  : 		UARTDebugOut("[aurora]: cannot exit root process \r\n");

	adrp        x8,|$SG3840|
	add         x0,x8,PageOffset(|$SG3840|)
	bl          UARTDebugOut

; 400  : 		return;

	b           |$LN1@AuProcessE|
|$LN11@AuProcessE|

; 401  : 	}
; 402  : 
; 403  : 	if (proc->type_flags & PROCESS_TYPE_NON_KILLABLE) {

	ldr         x8,[sp,#0x18]
	add         x8,x8,#0x15
	ldrb        w8,[x8]
	mov         w8,w8
	tbz         x8,#3,|$LN12@AuProcessE|

; 404  : 		UARTDebugOut("[aurora]: process : %s cannot exit \r\n",proc->name);

	ldr         x1,[sp,#0x18]
	adrp        x8,|$SG3842|
	add         x0,x8,PageOffset(|$SG3842|)
	bl          UARTDebugOut

; 405  : 		return;

	b           |$LN1@AuProcessE|
|$LN12@AuProcessE|

; 406  : 	}
; 407  : 
; 408  : 	/** free up all allocated files by this process **/
; 409  : 	for (int i = 0; i < FILE_DESC_PER_PROCESS; i++) {

	mov         w8,#0
	str         w8,[sp,#4]
	b           |$LN4@AuProcessE|
|$LN2@AuProcessE|
	ldr         w8,[sp,#4]
	add         w8,w8,#1
	str         w8,[sp,#4]
|$LN4@AuProcessE|
	ldr         w8,[sp,#4]
	cmp         w8,#0x3C
	bge         |$LN3@AuProcessE|

; 410  : 		AuVFSNode* file = proc->fds[i];

	ldr         x8,[sp,#0x18]
	add         x10,x8,#0x248
	ldr         w8,[sp,#4]
	sxtw        x9,w8
	mov         x8,#8
	mul         x8,x9,x8
	add         x8,x10,x8
	ldr         x8,[x8]
	str         x8,[sp,#0x10]

; 411  : 		if (file) {

	ldr         x8,[sp,#0x10]
	cmp         x8,#0
	beq         |$LN13@AuProcessE|

; 412  : 			UARTDebugOut("[AuProcessExit]: closing file : %s flags %x\r\n", file->filename,file->flags);

	ldr         x8,[sp,#0x10]
	add         x8,x8,#0x40
	ldrh        w2,[x8]
	mov         w2,w2
	ldr         x1,[sp,#0x10]
	mov         w2,w2
	adrp        x8,|$SG3844|
	add         x0,x8,PageOffset(|$SG3844|)
	bl          UARTDebugOut

; 413  : 			/** conditional check for cache flag **/
; 414  : 			if (file->flags & FS_FLAG_CACHED) {

	ldr         x8,[sp,#0x10]
	add         x8,x8,#0x40
	ldrh        w8,[x8]
	mov         w8,w8
	tbz         x8,#0xB,|$LN14@AuProcessE|

; 415  : 				UARTDebugOut("[AuProcessExit]: cached file skipped close : %s, flags : %x\r\n", file->filename);

	ldr         x1,[sp,#0x10]
	adrp        x8,|$SG3846|
	add         x0,x8,PageOffset(|$SG3846|)
	bl          UARTDebugOut

; 416  : 				if (file->fileCopyCount > 0)

	ldr         x8,[sp,#0x10]
	add         x8,x8,#0x58
	ldrh        w8,[x8]
	mov         w8,w8
	cmp         w8,#0
	ble         |$LN15@AuProcessE|

; 417  : 					file->fileCopyCount -= 1;

	ldr         x8,[sp,#0x10]
	add         x8,x8,#0x58
	ldrh        w8,[x8]
	mov         w8,w8
	sub         w10,w8,#1
	ldr         x8,[sp,#0x10]
	add         x9,x8,#0x58
	uxth        w8,w10
	strh        w8,[x9]
|$LN15@AuProcessE|

; 418  : 				continue;

	b           |$LN2@AuProcessE|
|$LN14@AuProcessE|

; 419  : 			}
; 420  : 			if (file->flags & FS_FLAG_DEVICE || file->flags & FS_FLAG_FILE_SYSTEM)

	ldr         x8,[sp,#0x10]
	add         x8,x8,#0x40
	ldrh        w8,[x8]
	mov         w8,w8
	tbnz        x8,#3,|$LN17@AuProcessE|
	ldr         x8,[sp,#0x10]
	add         x8,x8,#0x40
	ldrh        w8,[x8]
	mov         w8,w8
	tbz         x8,#6,|$LN16@AuProcessE|
|$LN17@AuProcessE|

; 421  : 				continue;

	b           |$LN2@AuProcessE|
|$LN16@AuProcessE|

; 422  : 			if ((file->flags & FS_FLAG_GENERAL) || (file->flags & FS_FLAG_DIRECTORY)) {

	ldr         x8,[sp,#0x10]
	add         x8,x8,#0x40
	ldrh        w8,[x8]
	mov         w8,w8
	tbnz        x8,#2,|$LN19@AuProcessE|
	ldr         x8,[sp,#0x10]
	add         x8,x8,#0x40
	ldrh        w8,[x8]
	mov         w8,w8
	tbz         x8,#1,|$LN18@AuProcessE|
|$LN19@AuProcessE|

; 423  : 				if (file->fileCopyCount <= 0) {

	ldr         x8,[sp,#0x10]
	add         x8,x8,#0x58
	ldrh        w8,[x8]
	mov         w8,w8
	cmp         w8,#0
	bgt         |$LN20@AuProcessE|

; 424  : 					UARTDebugOut("Freeing up file : %s \r\n", file->filename);

	ldr         x1,[sp,#0x10]
	adrp        x8,|$SG3854|
	add         x0,x8,PageOffset(|$SG3854|)
	bl          UARTDebugOut

; 425  : 					kfree(file);

	ldr         x0,[sp,#0x10]
	bl          kfree

; 426  : 				}

	b           |$LN21@AuProcessE|
|$LN20@AuProcessE|

; 427  : 				else
; 428  : 					file->fileCopyCount -= 1;

	ldr         x8,[sp,#0x10]
	add         x8,x8,#0x58
	ldrh        w8,[x8]
	mov         w8,w8
	sub         w10,w8,#1
	ldr         x8,[sp,#0x10]
	add         x9,x8,#0x58
	uxth        w8,w10
	strh        w8,[x9]
|$LN21@AuProcessE|
|$LN18@AuProcessE|

; 429  : 			}
; 430  : 			if (file->flags & FS_FLAG_SOCKET) {

	ldr         x8,[sp,#0x10]
	add         x8,x8,#0x40
	ldrh        w8,[x8]
	mov         w8,w8
	tbz         x8,#9,|$LN22@AuProcessE|

; 431  : 				if (file->close)

	ldr         x8,[sp,#0x10]
	add         x8,x8,#0xA0
	ldr         x8,[x8]
	cmp         x8,#0
	beq         |$LN23@AuProcessE|

; 432  : 					file->close(file, file);

	ldr         x8,[sp,#0x10]
	add         x8,x8,#0xA0
	ldr         x1,[sp,#0x10]
	ldr         x0,[sp,#0x10]
	ldr         x8,[x8]
	blr         x8
|$LN23@AuProcessE|
|$LN22@AuProcessE|
|$LN13@AuProcessE|

; 433  : 			}
; 434  : 		}
; 435  : 	}

	b           |$LN2@AuProcessE|
|$LN3@AuProcessE|

; 436  : 
; 437  : 	AuProcessFreeKeResource(proc->main_thread);

	ldr         x8,[sp,#0x18]
	add         x8,x8,#0x50
	ldr         x0,[x8]
	bl          AuProcessFreeKeResource

; 438  : 
; 439  : 	//UnmapMemMapping((void*)PROCESS_MMAP_ADDRESS, proc->proc_mmap_len);
; 440  : 	/* we need to add this process to killable list, so that we can kill it
; 441  : 	 * later on, because we can't kill here, or else system will crash
; 442  : 	 */
; 443  : 	proc->state = PROCESS_STATE_DIED;

	ldr         x8,[sp,#0x18]
	add         x9,x8,#0x14
	mov         w8,#8
	strb        w8,[x9]

; 444  : 	AuSHMUnmapAll(proc);

	ldr         x0,[sp,#0x18]
	bl          AuSHMUnmapAll

; 445  : 
; 446  : 	/** unblock all waitlisted threads **/
; 447  : 	for (int i = 0; i < proc->waitlist->pointer; i++) {

	mov         w8,#0
	str         w8,[sp,#8]
	b           |$LN7@AuProcessE|
|$LN5@AuProcessE|
	ldr         w8,[sp,#8]
	add         w8,w8,#1
	str         w8,[sp,#8]
|$LN7@AuProcessE|
	ldr         x8,[sp,#0x18]
	add         x8,x8,#0x448
	ldr         x8,[x8]
	ldr         w9,[x8]
	ldr         w8,[sp,#8]
	cmp         w8,w9
	bhs         |$LN6@AuProcessE|

; 448  : 		AA64Thread* thr = (AA64Thread*)list_remove(proc->waitlist, i);

	ldr         x8,[sp,#0x18]
	add         x8,x8,#0x448
	ldr         w1,[sp,#8]
	ldr         x0,[x8]
	bl          list_remove
	str         x0,[sp,#0x28]

; 449  : 		if (thr) 

	ldr         x8,[sp,#0x28]
	cmp         x8,#0
	beq         |$LN24@AuProcessE|

; 450  : 			AuUnblockThread(thr);

	ldr         x0,[sp,#0x28]
	bl          AuUnblockThread
|$LN24@AuProcessE|

; 451  : 	}

	b           |$LN5@AuProcessE|
|$LN6@AuProcessE|

; 452  : 
; 453  : 	kfree(proc->waitlist);

	ldr         x8,[sp,#0x18]
	add         x8,x8,#0x448
	ldr         x0,[x8]
	bl          kfree

; 454  : 
; 455  : 	///* mark all the threads as blocked */
; 456  : 	for (int i = 1; i < proc->num_thread; i++) {

	mov         w8,#1
	str         w8,[sp,#0xC]
	b           |$LN10@AuProcessE|
|$LN8@AuProcessE|
	ldr         w8,[sp,#0xC]
	add         w8,w8,#1
	str         w8,[sp,#0xC]
|$LN10@AuProcessE|
	ldr         x8,[sp,#0x18]
	add         x8,x8,#0x58
	ldrb        w9,[x8]
	mov         w9,w9
	ldr         w8,[sp,#0xC]
	cmp         w8,w9
	bge         |$LN9@AuProcessE|

; 457  : 		AA64Thread* killable = proc->threads[i];

	ldr         x8,[sp,#0x18]
	add         x10,x8,#0x68
	ldr         w8,[sp,#0xC]
	sxtw        x9,w8
	mov         x8,#8
	mul         x8,x9,x8
	add         x8,x10,x8
	ldr         x8,[x8]
	str         x8,[sp,#0x20]

; 458  : 		if (killable) {

	ldr         x8,[sp,#0x20]
	cmp         x8,#0
	beq         |$LN25@AuProcessE|

; 459  : 			/* here we should cleanup sub postbox
; 460  : 			 * sound, timer resources also
; 461  : 			 */
; 462  : 			AuProcessFreeKeResource(killable);

	ldr         x0,[sp,#0x20]
	bl          AuProcessFreeKeResource

; 463  : 			AuThreadMoveToTrash(killable);

	ldr         x0,[sp,#0x20]
	bl          AuThreadMoveToTrash
|$LN25@AuProcessE|

; 464  : 		}
; 465  : 	}

	b           |$LN8@AuProcessE|
|$LN9@AuProcessE|
|$LN1@AuProcessE|
	add         sp,sp,#0x30
	ldr         lr,[sp],#0x10
	ret

	ENDP  ; |AuProcessExit|

; Function compile flags: /Odtpy
; File C:\Users\paras\source\repos\grep-name\XenevaOS\KernelAA64\process.c

	AREA	|.text$mn|, CODE, ARM64

|AuCreateProcessSlot| PROC

; 229  : AuProcess * AuCreateProcessSlot(AuProcess * parent, char* name) {

|$LN9|
	str         lr,[sp,#-0x10]!
	sub         sp,sp,#0x40
	str         x0,[sp,#0x10]
	str         x1,[sp,#0x28]

; 230  : 	AuProcess* proc = (AuProcess*)kmalloc(sizeof(AuProcess));

	mov         w0,#0x4C0
	bl          kmalloc
	str         x0,[sp,#8]

; 231  : 	memset(proc, 0, sizeof(AuProcess));

	mov         w2,#0x4C0
	mov         w1,#0
	ldr         x0,[sp,#8]
	bl          memset

; 232  : 	strncpy(proc->name, name,16);

	ldr         x0,[sp,#8]
	mov         x2,#0x10
	ldr         x1,[sp,#0x28]
	bl          strncpy

; 233  : 
; 234  : 
; 235  : 	proc->proc_id = AuAllocateProcessID();

	bl          AuAllocateProcessID
	mov         w0,w0
	ldr         x8,[sp,#8]
	add         x8,x8,#0x10
	str         w0,[x8]

; 236  : 	/* create empty virtual address space */
; 237  : 	uint64_t* cr3 = AuCreateVirtualAddressSpace();

	bl          AuCreateVirtualAddressSpace
	str         x0,[sp,#0x18]

; 238  : 	/* create the process main thread stack */
; 239  : 	uint64_t  main_thr_stack = (uint64_t)CreateUserStack(proc, cr3);

	ldr         x1,[sp,#0x18]
	ldr         x0,[sp,#8]
	bl          CreateUserStack
	str         x0,[sp,#0x30]

; 240  : 	proc->state = PROCESS_STATE_NOT_READY;

	ldr         x8,[sp,#8]
	add         x9,x8,#0x14
	mov         w8,#1
	strb        w8,[x9]

; 241  : 	proc->cr3 = cr3;

	ldr         x8,[sp,#8]
	add         x9,x8,#0x18
	ldr         x8,[sp,#0x18]
	str         x8,[x9]

; 242  : 	proc->shm_break = USER_SHARED_MEM_START;

	ldr         x8,[sp,#8]
	add         x9,x8,#0x450
	mov         x8,#0x80000000
	str         x8,[x9]

; 243  : 	proc->proc_mem_heap = PROCESS_BREAK_ADDRESS;

	ldr         x8,[sp,#8]
	add         x9,x8,#0x458
	mov         x8,#0x3000000000
	str         x8,[x9]

; 244  : 	proc->proc_heapmem_len = 0;

	ldr         x8,[sp,#8]
	add         x9,x8,#0x460
	mov         x8,#0
	str         x8,[x9]

; 245  : 	proc->_kstack_index_ = 1;

	ldr         x8,[sp,#8]
	add         x9,x8,#0x40
	mov         x8,#1
	str         x8,[x9]

; 246  : 	proc->_main_stack_ = main_thr_stack;

	ldr         x8,[sp,#8]
	add         x9,x8,#0x30
	ldr         x8,[sp,#0x30]
	str         x8,[x9]

; 247  : 	uint64_t* envpBlock = (uint64_t*)P2V((size_t)AuPmmngrAlloc());

	bl          AuPmmngrAlloc
	bl          P2V
	str         x0,[sp,#0x20]

; 248  : 	memset(envpBlock, 0, PAGE_SIZE);

	mov         w2,#0x1000
	mov         w1,#0
	ldr         x0,[sp,#0x20]
	bl          memset

; 249  : 
; 250  : 	/** confusing code :hehehehe **/
; 251  : 	if (!AuMapPageEx(cr3, (uint64_t)V2P((size_t)envpBlock), 0x5000, PTE_AP_RW_USER | PTE_NORMAL_MEM))

	ldr         x0,[sp,#0x20]
	bl          V2P
	mov         w3,#0x44
	mov         x2,#0x5000
	mov         x1,x0
	ldr         x0,[sp,#0x18]
	bl          AuMapPageEx
	uxtb        w8,w0
	mov         w8,w8
	cmp         w8,#0
	bne         |$LN5@AuCreatePr|

; 252  : 		UARTDebugOut("Failed to map environment block for proc %s \r\n", name);

	ldr         x1,[sp,#0x28]
	adrp        x8,|$SG3760|
	add         x0,x8,PageOffset(|$SG3760|)
	bl          UARTDebugOut
	b           |$LN6@AuCreatePr|
|$LN5@AuCreatePr|

; 253  : 	else
; 254  : 		proc->_envp_block_ = 0x5000;

	ldr         x8,[sp,#8]
	add         x9,x8,#0x48
	mov         x8,#0x5000
	str         x8,[x9]
|$LN6@AuCreatePr|

; 255  : 
; 256  : 	if (parent) {

	ldr         x8,[sp,#0x10]
	cmp         x8,#0
	beq         |$LN7@AuCreatePr|

; 257  : 		memcpy((void*)envpBlock, (void*)parent->_envp_block_, PAGE_SIZE);

	ldr         x8,[sp,#0x10]
	add         x8,x8,#0x48
	mov         x2,#0x1000
	ldr         x1,[x8]
	ldr         x0,[sp,#0x20]
	bl          memcpy

; 258  : 
; 259  : 		/** just inherit all parent credential's to belong to that 
; 260  : 		 * uac and group
; 261  : 		 */
; 262  : 		proc->creds.uid = parent->creds.uid;

	ldr         x8,[sp,#0x10]
	add         x10,x8,#0x474
	ldr         x8,[sp,#8]
	add         x9,x8,#0x474
	ldr         w8,[x10]
	str         w8,[x9]

; 263  : 		proc->creds.gid = parent->creds.gid;

	ldr         x8,[sp,#0x10]
	add         x10,x8,#0x478
	ldr         x8,[sp,#8]
	add         x9,x8,#0x478
	ldr         w8,[x10]
	str         w8,[x9]

; 264  : 		proc->creds.num_sgid = parent->creds.num_sgid;

	ldr         x8,[sp,#0x10]
	add         x10,x8,#0x4AC
	ldr         x8,[sp,#8]
	add         x9,x8,#0x4AC
	ldrh        w8,[x10]
	strh        w8,[x9]

; 265  : 		for (int i = 0; i < parent->creds.num_sgid; i++)

	mov         w8,#0
	str         w8,[sp]
	b           |$LN4@AuCreatePr|
|$LN2@AuCreatePr|
	ldr         w8,[sp]
	add         w8,w8,#1
	str         w8,[sp]
|$LN4@AuCreatePr|
	ldr         x8,[sp,#0x10]
	add         x8,x8,#0x4AC
	ldrh        w9,[x8]
	mov         w9,w9
	ldr         w8,[sp]
	cmp         w8,w9
	bge         |$LN3@AuCreatePr|

; 266  : 			proc->creds.sgid[i] = parent->creds.sgid[i];

	ldr         x8,[sp,#0x10]
	add         x10,x8,#0x47C
	ldr         w8,[sp]
	sxtw        x9,w8
	mov         x8,#4
	mul         x8,x9,x8
	add         x11,x10,x8
	ldr         x8,[sp,#8]
	add         x10,x8,#0x47C
	ldr         w8,[sp]
	sxtw        x9,w8
	mov         x8,#4
	mul         x8,x9,x8
	add         x9,x10,x8
	ldr         w8,[x11]
	str         w8,[x9]
	b           |$LN2@AuCreatePr|
|$LN3@AuCreatePr|

; 267  : 		proc->creds.caps = parent->creds.caps;

	ldr         x8,[sp,#0x10]
	add         x10,x8,#0x470
	ldr         x8,[sp,#8]
	add         x9,x8,#0x470
	ldrb        w8,[x10]
	strb        w8,[x9]
|$LN7@AuCreatePr|

; 268  : 	}
; 269  : 
; 270  : 	proc->waitlist = initialize_list();

	bl          initialize_list
	ldr         x8,[sp,#8]
	add         x8,x8,#0x448
	str         x0,[x8]

; 271  : 	proc->vmareas = initialize_list();

	bl          initialize_list
	ldr         x8,[sp,#8]
	add         x8,x8,#0x438
	str         x0,[x8]

; 272  : 	proc->shmmaps = initialize_list();

	bl          initialize_list
	ldr         x8,[sp,#8]
	add         x8,x8,#0x440
	str         x0,[x8]

; 273  : 	uint64_t ustack = proc->_main_stack_;

	ldr         x8,[sp,#8]
	add         x8,x8,#0x30
	ldr         x8,[x8]
	str         x8,[sp,#0x38]

; 274  : 	proc->_main_stack_ = (((uint64_t)ustack + 15) & ~(uint64_t)0xF);

	ldr         x8,[sp,#0x38]
	add         x8,x8,#0xF
	and         x9,x8,#-0x10
	ldr         x8,[sp,#8]
	add         x8,x8,#0x30
	str         x9,[x8]

; 275  : 	AuAddProcess(parent, proc);

	ldr         x1,[sp,#8]
	ldr         x0,[sp,#0x10]
	bl          AuAddProcess

; 276  : 	return proc;

	ldr         x0,[sp,#8]
	add         sp,sp,#0x40
	ldr         lr,[sp],#0x10
	ret

	ENDP  ; |AuCreateProcessSlot|

; Function compile flags: /Odtpy
; File C:\Users\paras\source\repos\grep-name\XenevaOS\KernelAA64\process.c

	AREA	|.text$mn|, CODE, ARM64

|CreateUserStack| PROC

; 183  : uint64_t* CreateUserStack(AuProcess* proc, uint64_t* cr3) {

|$LN7|
	str         lr,[sp,#-0x10]!
	sub         sp,sp,#0x30
	str         x0,[sp,#0x10]
	str         x1,[sp,#0x20]

; 184  : #define USER_STACK 0x000000A000000000 
; 185  : 	uint64_t location = USER_STACK;

	mov         x8,#0xA000000000
	str         x8,[sp,#8]

; 186  : 	location += proc->_user_stack_index_;

	ldr         x8,[sp,#0x10]
	add         x8,x8,#0x38
	ldr         x9,[sp,#8]
	ldr         x8,[x8]
	add         x8,x9,x8
	str         x8,[sp,#8]

; 187  : 
; 188  : 	for (int i = 0; i < (PROCESS_USER_STACK_SZ / PAGE_SIZE); ++i) {

	mov         w8,#0
	str         w8,[sp]
	b           |$LN4@CreateUser|
|$LN2@CreateUser|
	ldr         w8,[sp]
	add         w8,w8,#1
	str         w8,[sp]
|$LN4@CreateUser|
	ldr         w8,[sp]
	sxtw        x8,w8
	cmp         x8,#0x80
	bhs         |$LN3@CreateUser|

; 189  : 		uint64_t blk = (uint64_t)AuPmmngrAlloc();

	bl          AuPmmngrAlloc
	str         x0,[sp,#0x18]

; 190  : 		if (!AuMapPageEx(cr3, blk, location + i * PAGE_SIZE, PTE_NORMAL_MEM | PTE_AP_RW_USER | PTE_AP_RW)){

	ldr         w8,[sp]
	sxtw        x9,w8
	mov         x8,#0x1000
	mul         x9,x9,x8
	ldr         x8,[sp,#8]
	add         x2,x8,x9
	mov         w3,#0x44
	ldr         x1,[sp,#0x18]
	ldr         x0,[sp,#0x20]
	bl          AuMapPageEx
	uxtb        w8,w0
	mov         w8,w8
	cmp         w8,#0
	bne         |$LN5@CreateUser|

; 191  : 			UARTDebugOut("CreateUserStack: already mapped %x \r\n", (location + i * PAGE_SIZE));

	ldr         w8,[sp]
	sxtw        x9,w8
	mov         x8,#0x1000
	mul         x9,x9,x8
	ldr         x8,[sp,#8]
	add         x1,x8,x9
	adrp        x8,|$SG3714|
	add         x0,x8,PageOffset(|$SG3714|)
	bl          UARTDebugOut
|$LN5@CreateUser|

; 192  : 		}
; 193  : 
; 194  : 	}

	b           |$LN2@CreateUser|
|$LN3@CreateUser|

; 195  : 
; 196  : 	proc->_user_stack_index_ += PROCESS_USER_STACK_SZ;

	ldr         x8,[sp,#0x10]
	add         x8,x8,#0x38
	ldr         x8,[x8]
	add         x9,x8,#0x80,lsl #0xC
	ldr         x8,[sp,#0x10]
	add         x8,x8,#0x38
	str         x9,[x8]

; 197  : 	uint64_t* addr = (uint64_t*)(location + PROCESS_USER_STACK_SZ);

	ldr         x8,[sp,#8]
	add         x8,x8,#0x80,lsl #0xC
	str         x8,[sp,#0x28]

; 198  : 	return addr;

	ldr         x0,[sp,#0x28]
	add         sp,sp,#0x30
	ldr         lr,[sp],#0x10
	ret

	ENDP  ; |CreateUserStack|

; Function compile flags: /Odtpy
; File C:\Users\paras\source\repos\grep-name\XenevaOS\KernelAA64\process.c

	AREA	|.text$mn|, CODE, ARM64

|AuProcessFindSubThread| PROC

; 160  : AuProcess* AuProcessFindSubThread(AA64Thread* thread) {

|$LN3|
	sub         sp,sp,#0x10
	str         x0,[sp]

; 161  : 	AuProcess* proc = (AuProcess*)thread->procSlot;

	ldr         x8,[sp]
	add         x8,x8,#0xD8
	ldr         x8,[x8]
	str         x8,[sp,#8]

; 162  : 	return proc;

	ldr         x0,[sp,#8]
	add         sp,sp,#0x10
	ret

	ENDP  ; |AuProcessFindSubThread|

; Function compile flags: /Odtpy
; File C:\Users\paras\source\repos\grep-name\XenevaOS\KernelAA64\process.c

	AREA	|.text$mn|, CODE, ARM64

|AuProcessFindThread| PROC

; 144  : AuProcess* AuProcessFindThread(AA64Thread* thread) {

|$LN7|
	sub         sp,sp,#0x10
	str         x0,[sp,#8]

; 145  : 	for (AuProcess* proc_ = proc_first; proc_ != NULL; proc_ = proc_->next) {

	adrp        x8,proc_first
	ldr         x8,[x8,PageOffset(proc_first)]
	str         x8,[sp]
	b           |$LN4@AuProcessF|
|$LN2@AuProcessF|
	ldr         x8,[sp]
	add         x8,x8,#0x4B0
	ldr         x8,[x8]
	str         x8,[sp]
|$LN4@AuProcessF|
	ldr         x8,[sp]
	cmp         x8,#0
	beq         |$LN3@AuProcessF|

; 146  : 		if (proc_->main_thread == thread) {

	ldr         x8,[sp]
	add         x8,x8,#0x50
	ldr         x9,[sp,#8]
	ldr         x8,[x8]
	cmp         x8,x9
	bne         |$LN5@AuProcessF|

; 147  : 			return proc_;

	ldr         x0,[sp]
	b           |$LN1@AuProcessF|
|$LN5@AuProcessF|

; 148  : 		}
; 149  : 	}

	b           |$LN2@AuProcessF|
|$LN3@AuProcessF|

; 150  : 
; 151  : 	return NULL;

	mov         x0,#0
|$LN1@AuProcessF|
	add         sp,sp,#0x10
	ret

	ENDP  ; |AuProcessFindThread|

; Function compile flags: /Odtpy
; File C:\Users\paras\source\repos\grep-name\XenevaOS\KernelAA64\process.c

	AREA	|.text$mn|, CODE, ARM64

|AuProcessFindPID| PROC

; 130  : AuProcess* AuProcessFindPID(int pid) {

|$LN7|
	sub         sp,sp,#0x10
	str         w0,[sp]

; 131  : 	AuProcess* proc_;
; 132  : 	for (proc_ = proc_first; proc_ != NULL; proc_ = proc_->next) {

	adrp        x8,proc_first
	ldr         x8,[x8,PageOffset(proc_first)]
	str         x8,[sp,#8]
	b           |$LN4@AuProcessF|
|$LN2@AuProcessF|
	ldr         x8,[sp,#8]
	add         x8,x8,#0x4B0
	ldr         x8,[x8]
	str         x8,[sp,#8]
|$LN4@AuProcessF|
	ldr         x8,[sp,#8]
	cmp         x8,#0
	beq         |$LN3@AuProcessF|

; 133  : 		if (proc_->proc_id == pid)

	ldr         x8,[sp,#8]
	add         x8,x8,#0x10
	ldr         w9,[sp]
	ldr         w8,[x8]
	cmp         w8,w9
	bne         |$LN5@AuProcessF|

; 134  : 			return proc_;

	ldr         x0,[sp,#8]
	b           |$LN1@AuProcessF|
|$LN5@AuProcessF|

; 135  : 	}

	b           |$LN2@AuProcessF|
|$LN3@AuProcessF|

; 136  : 	return NULL;

	mov         x0,#0
|$LN1@AuProcessF|
	add         sp,sp,#0x10
	ret

	ENDP  ; |AuProcessFindPID|

; Function compile flags: /Odtpy
; File C:\Users\paras\source\repos\grep-name\XenevaOS\KernelAA64\process.c

	AREA	|.text$mn|, CODE, ARM64

|AuRemoveProcess| PROC

; 78   : void AuRemoveProcess(AuProcess* parent, AuProcess* proc) {

|$LN8|
	str         lr,[sp,#-0x10]!
	sub         sp,sp,#0x10
	str         x0,[sp,#8]
	str         x1,[sp]

; 79   : 	if (proc_first == NULL)

	adrp        x8,proc_first
	ldr         x8,[x8,PageOffset(proc_first)]
	cmp         x8,#0
	bne         |$LN2@AuRemovePr|

; 80   : 		return;

	b           |$LN1@AuRemovePr|
|$LN2@AuRemovePr|

; 81   : 
; 82   : 	if (proc == proc_first) {

	adrp        x8,proc_first
	ldr         x9,[x8,PageOffset(proc_first)]
	ldr         x8,[sp]
	cmp         x8,x9
	bne         |$LN3@AuRemovePr|

; 83   : 		proc_first = proc_first->next;

	adrp        x8,proc_first
	ldr         x8,[x8,PageOffset(proc_first)]
	add         x8,x8,#0x4B0
	adrp        x9,proc_first
	ldr         x8,[x8]
	str         x8,[x9,PageOffset(proc_first)]

; 84   : 	}

	b           |$LN4@AuRemovePr|
|$LN3@AuRemovePr|

; 85   : 	else {
; 86   : 		proc->prev->next = proc->next;

	ldr         x8,[sp]
	add         x10,x8,#0x4B0
	ldr         x8,[sp]
	add         x8,x8,#0x4B8
	ldr         x8,[x8]
	add         x9,x8,#0x4B0
	ldr         x8,[x10]
	str         x8,[x9]
|$LN4@AuRemovePr|

; 87   : 	}
; 88   : 
; 89   : 	if (proc == proc_last) {

	adrp        x8,proc_last
	ldr         x9,[x8,PageOffset(proc_last)]
	ldr         x8,[sp]
	cmp         x8,x9
	bne         |$LN5@AuRemovePr|

; 90   : 		proc_last = proc->prev;

	ldr         x8,[sp]
	add         x8,x8,#0x4B8
	adrp        x9,proc_last
	ldr         x8,[x8]
	str         x8,[x9,PageOffset(proc_last)]

; 91   : 	}

	b           |$LN6@AuRemovePr|
|$LN5@AuRemovePr|

; 92   : 	else {
; 93   : 		proc->next->prev = proc->prev;

	ldr         x8,[sp]
	add         x10,x8,#0x4B8
	ldr         x8,[sp]
	add         x8,x8,#0x4B0
	ldr         x8,[x8]
	add         x9,x8,#0x4B8
	ldr         x8,[x10]
	str         x8,[x9]
|$LN6@AuRemovePr|

; 94   : 	}
; 95   : 	kfree(proc);

	ldr         x0,[sp]
	bl          kfree
|$LN1@AuRemovePr|
	add         sp,sp,#0x10
	ldr         lr,[sp],#0x10
	ret

	ENDP  ; |AuRemoveProcess|

; Function compile flags: /Odtpy
; File C:\Users\paras\source\repos\grep-name\XenevaOS\KernelAA64\process.c

	AREA	|.text$mn|, CODE, ARM64

|AuAddProcess| PROC

; 56   : void AuAddProcess(AuProcess* parent, AuProcess* proc) {

|$LN5|
	sub         sp,sp,#0x10
	str         x0,[sp,#8]
	str         x1,[sp]

; 57   : 	proc->next = NULL;

	ldr         x8,[sp]
	add         x9,x8,#0x4B0
	mov         x8,#0
	str         x8,[x9]

; 58   : 	proc->prev = NULL;

	ldr         x8,[sp]
	add         x9,x8,#0x4B8
	mov         x8,#0
	str         x8,[x9]

; 59   : 
; 60   : 	if (proc_first == NULL) {

	adrp        x8,proc_first
	ldr         x8,[x8,PageOffset(proc_first)]
	cmp         x8,#0
	bne         |$LN2@AuAddProce|

; 61   : 		proc_last = proc;

	adrp        x9,proc_last
	ldr         x8,[sp]
	str         x8,[x9,PageOffset(proc_last)]

; 62   : 		proc_first = proc;

	adrp        x9,proc_first
	ldr         x8,[sp]
	str         x8,[x9,PageOffset(proc_first)]

; 63   : 	}

	b           |$LN3@AuAddProce|
|$LN2@AuAddProce|

; 64   : 	else {
; 65   : 		proc_last->next = proc;

	adrp        x8,proc_last
	ldr         x8,[x8,PageOffset(proc_last)]
	add         x9,x8,#0x4B0
	ldr         x8,[sp]
	str         x8,[x9]

; 66   : 		proc->prev = proc_last;

	ldr         x8,[sp]
	add         x9,x8,#0x4B8
	adrp        x8,proc_last
	ldr         x8,[x8,PageOffset(proc_last)]
	str         x8,[x9]
|$LN3@AuAddProce|

; 67   : 	}
; 68   : 	proc_last = proc;

	adrp        x9,proc_last
	ldr         x8,[sp]
	str         x8,[x9,PageOffset(proc_last)]
	add         sp,sp,#0x10
	ret

	ENDP  ; |AuAddProcess|

	END
