; Listing generated by Microsoft (R) Optimizing Compiler Version 19.29.30159.0 

	TTL	C:\Users\paras\source\repos\grep-name\XenevaOS\KernelAA64\ARM64\Debug\proctoken.obj
	ARM64

	AREA	|.drectve|, DRECTVE


	AREA	|.data|, DATA
	 COMMON	|_tokens|, 0x320

	EXPORT	|AuProcessTokenInitialize|
	EXPORT	|AuProcessTokenAddSelf|
	EXPORT	|AuProcessTokenGetProc|
	EXPORT	|AuProcessTokenGetThreadID|
	EXPORT	|AuProcessTokenRemoveSelf|
	EXPORT	|_token_id_to_string|
	IMPORT	|AuGetCurrentThread|
	IMPORT	|AuProcessFindThread|
	IMPORT	|AuProcessFindSubThread|
	IMPORT	|AuTextOut|
	IMPORT	|UARTDebugOut|

	AREA	|.pdata|, PDATA
|$pdata$AuProcessTokenInitialize| DCD imagerel |$LN6|
	DCD	0x1200095
	;Flags[SingleProEpi] functionLength[148] RegF[0] RegI[0] H[0] frameChainReturn[UnChainedSavedLR] frameSize[32]
|$pdata$AuProcessTokenAddSelf| DCD imagerel |$LN6|
	DCD	0x1a00119
	;Flags[SingleProEpi] functionLength[280] RegF[0] RegI[0] H[0] frameChainReturn[UnChainedSavedLR] frameSize[48]
|$pdata$AuProcessTokenGetProc| DCD imagerel |$LN3|
	DCD	0x800035
	;Flags[SingleProEpi] functionLength[52] RegF[0] RegI[0] H[0] frameChainReturn[UnChained] frameSize[16]
|$pdata$AuProcessTokenGetThreadID| DCD imagerel |$LN3|
	DCD	0x800039
	;Flags[SingleProEpi] functionLength[56] RegF[0] RegI[0] H[0] frameChainReturn[UnChained] frameSize[16]
|$pdata$AuProcessTokenRemoveSelf| DCD imagerel |$LN5|
	DCD	0x1a000c5
	;Flags[SingleProEpi] functionLength[196] RegF[0] RegI[0] H[0] frameChainReturn[UnChainedSavedLR] frameSize[48]
|$pdata$_token_id_to_string| DCD imagerel |$LN20|
	DCD	0x800085
	;Flags[SingleProEpi] functionLength[132] RegF[0] RegI[0] H[0] frameChainReturn[UnChained] frameSize[16]

	AREA	|.data|, DATA
|$SG3064| DCB	"[aurora]: process tokens initialized ", 0xd, 0xa, 0x0
|$SG3072| DCB	"PROCESS_TOKEN_NETWORK", 0x0
	%	2
|$SG3074| DCB	"PROCESS_TOKEN_DISPLAY", 0x0
	%	2
|$SG3076| DCB	"PROCESS_TOKEN_AUDIO", 0x0
	%	4
|$SG3078| DCB	"PROCESS_TOKEN_DEV", 0x0
	%	6
|$SG3080| DCB	"PROCESS_TOKEN_NETSERVER", 0x0
|$SG3082| DCB	"unknown", 0x0
	%	8
|$SG3089| DCB	"[aurora]: token manager already has registered token to "
	DCB	"id : %s ", 0xd, 0xa, 0x0
	%	5
|$SG3092| DCB	"[aurora]: process registered to token : %s ", 0xd, 0xa, 0x0
	%	2
|$SG3106| DCB	"[aurora]: process removed from token : %s ", 0xd, 0xa, 0x0
; Function compile flags: /Odtpy
; File C:\Users\paras\source\repos\grep-name\XenevaOS\KernelAA64\proctoken.c

	AREA	|.text$mn|, CODE, ARM64

|_token_id_to_string| PROC

; 55   : char* _token_id_to_string(uint8_t category) {

|$LN20|
	sub         sp,sp,#0x10
	uxtb        w8,w0
	strb        w8,[sp]

; 56   : 	switch (category) {

	ldrb        w8,[sp]
	mov         w8,w8
	str         w8,[sp,#4]
	ldr         w8,[sp,#4]
	cmp         w8,#4
	bhi         |$LN9@token_id_t|
	ldr         w10,[sp,#4]
	adr         x9,__swt
	ldrsb       x8,[x9,w10 uxtw #0]
	add         x8,x9,x8,lsl #2
	br          x8
|$LN4@token_id_t|

; 57   : 	case PROCESS_TOKEN_NETWORK:
; 58   : 		return "PROCESS_TOKEN_NETWORK";

	adrp        x8,|$SG3072|
	add         x0,x8,PageOffset(|$SG3072|)
	b           |$LN1@token_id_t|
|$LN5@token_id_t|

; 59   : 	case PROCESS_TOKEN_DISPLAY:
; 60   : 		return "PROCESS_TOKEN_DISPLAY";

	adrp        x8,|$SG3074|
	add         x0,x8,PageOffset(|$SG3074|)
	b           |$LN1@token_id_t|
|$LN6@token_id_t|

; 61   : 	case PROCESS_TOKEN_AUDIO:
; 62   : 		return "PROCESS_TOKEN_AUDIO";

	adrp        x8,|$SG3076|
	add         x0,x8,PageOffset(|$SG3076|)
	b           |$LN1@token_id_t|
|$LN7@token_id_t|

; 63   : 	case PROCESS_TOKEN_DEV:
; 64   : 		return "PROCESS_TOKEN_DEV";

	adrp        x8,|$SG3078|
	add         x0,x8,PageOffset(|$SG3078|)
	b           |$LN1@token_id_t|
|$LN8@token_id_t|

; 65   : 	case PROCESS_TOKEN_NETSERVER:
; 66   : 		return "PROCESS_TOKEN_NETSERVER";

	adrp        x8,|$SG3080|
	add         x0,x8,PageOffset(|$SG3080|)
	b           |$LN1@token_id_t|
|$LN9@token_id_t|

; 67   : 	default:
; 68   : 		return "unknown";

	adrp        x8,|$SG3082|
	add         x0,x8,PageOffset(|$SG3082|)
|$LN1@token_id_t|
	add         sp,sp,#0x10
	ret
|__swt|
|$LN12@token_id_t|

; 56   : 	switch (category) {

	DCB         0xed
|$LN13@token_id_t|
	DCB         0xf0
|$LN14@token_id_t|
	DCB         0xf3
|$LN15@token_id_t|
	DCB         0xf6
|$LN16@token_id_t|
	DCB         0xf9
|$LN17@token_id_t|
	DCB         0xf9
|$LN18@token_id_t|
	DCB         0xf9
|$LN19@token_id_t|
	DCB         0xf9

	ENDP  ; |_token_id_to_string|

; Function compile flags: /Odtpy
; File C:\Users\paras\source\repos\grep-name\XenevaOS\KernelAA64\proctoken.c

	AREA	|.text$mn|, CODE, ARM64

|AuProcessTokenRemoveSelf| PROC

; 118  : int AuProcessTokenRemoveSelf(uint8_t category) {

|$LN5|
	str         lr,[sp,#-0x10]!
	sub         sp,sp,#0x20
	uxtb        w8,w0
	strb        w8,[sp]

; 119  : 	AA64Thread* current_thr = AuGetCurrentThread();

	bl          AuGetCurrentThread
	str         x0,[sp,#0x10]

; 120  : 	AuProcess* proc = AuProcessFindThread(current_thr);

	ldr         x0,[sp,#0x10]
	bl          AuProcessFindThread
	str         x0,[sp,#8]

; 121  : 	if (!proc) {

	ldr         x8,[sp,#8]
	cmp         x8,#0
	bne         |$LN2@AuProcessT|

; 122  : 		proc = AuProcessFindSubThread(current_thr);

	ldr         x0,[sp,#0x10]
	bl          AuProcessFindSubThread
	str         x0,[sp,#8]

; 123  : 		if (!proc)

	ldr         x8,[sp,#8]
	cmp         x8,#0
	bne         |$LN3@AuProcessT|

; 124  : 			return 1;

	mov         w0,#1
	b           |$LN1@AuProcessT|
|$LN3@AuProcessT|
|$LN2@AuProcessT|

; 125  : 	}
; 126  : 	_tokens[category].proc = NULL;

	ldrb        w8,[sp]
	mov         w9,w8
	mov         x8,#0x10
	mul         x9,x9,x8
	adrp        x8,_tokens
	add         x8,x8,PageOffset(_tokens)
	add         x9,x8,x9
	mov         x8,#0
	str         x8,[x9]

; 127  : 	_tokens[category].thread_id = -1;

	ldrb        w8,[sp]
	mov         w9,w8
	mov         x8,#0x10
	mul         x9,x9,x8
	adrp        x8,_tokens
	add         x8,x8,PageOffset(_tokens)
	add         x8,x8,x9
	add         x9,x8,#8
	mov         w8,#-1
	str         w8,[x9]

; 128  : 	UARTDebugOut("[aurora]: process removed from token : %s \r\n", _token_id_to_string(category));

	ldrb        w0,[sp]
	bl          _token_id_to_string
	mov         x1,x0
	adrp        x8,|$SG3106|
	add         x0,x8,PageOffset(|$SG3106|)
	bl          UARTDebugOut

; 129  : 	return 0;

	mov         w0,#0
|$LN1@AuProcessT|
	add         sp,sp,#0x20
	ldr         lr,[sp],#0x10
	ret

	ENDP  ; |AuProcessTokenRemoveSelf|

; Function compile flags: /Odtpy
; File C:\Users\paras\source\repos\grep-name\XenevaOS\KernelAA64\proctoken.c

	AREA	|.text$mn|, CODE, ARM64

|AuProcessTokenGetThreadID| PROC

; 109  : int AuProcessTokenGetThreadID(uint8_t category) {

|$LN3|
	sub         sp,sp,#0x10
	uxtb        w8,w0
	strb        w8,[sp]

; 110  : 	return _tokens[category].thread_id;

	ldrb        w8,[sp]
	mov         w9,w8
	mov         x8,#0x10
	mul         x9,x9,x8
	adrp        x8,_tokens
	add         x8,x8,PageOffset(_tokens)
	add         x8,x8,x9
	add         x8,x8,#8
	ldr         w0,[x8]
	add         sp,sp,#0x10
	ret

	ENDP  ; |AuProcessTokenGetThreadID|

; Function compile flags: /Odtpy
; File C:\Users\paras\source\repos\grep-name\XenevaOS\KernelAA64\proctoken.c

	AREA	|.text$mn|, CODE, ARM64

|AuProcessTokenGetProc| PROC

; 101  : AuProcess* AuProcessTokenGetProc(uint8_t category) {

|$LN3|
	sub         sp,sp,#0x10
	uxtb        w8,w0
	strb        w8,[sp]

; 102  : 	return _tokens[category].proc;

	ldrb        w8,[sp]
	mov         w9,w8
	mov         x8,#0x10
	mul         x9,x9,x8
	adrp        x8,_tokens
	add         x8,x8,PageOffset(_tokens)
	add         x8,x8,x9
	ldr         x0,[x8]
	add         sp,sp,#0x10
	ret

	ENDP  ; |AuProcessTokenGetProc|

; Function compile flags: /Odtpy
; File C:\Users\paras\source\repos\grep-name\XenevaOS\KernelAA64\proctoken.c

	AREA	|.text$mn|, CODE, ARM64

|AuProcessTokenAddSelf| PROC

; 78   : int AuProcessTokenAddSelf(uint8_t category) {

|$LN6|
	str         lr,[sp,#-0x10]!
	sub         sp,sp,#0x20
	uxtb        w8,w0
	strb        w8,[sp]

; 79   : 	if (_tokens[category].proc) {

	ldrb        w8,[sp]
	mov         w9,w8
	mov         x8,#0x10
	mul         x9,x9,x8
	adrp        x8,_tokens
	add         x8,x8,PageOffset(_tokens)
	add         x8,x8,x9
	ldr         x8,[x8]
	cmp         x8,#0
	beq         |$LN2@AuProcessT|

; 80   : 		UARTDebugOut("[aurora]: token manager already has registered token to id : %s \r\n", _token_id_to_string(category));

	ldrb        w0,[sp]
	bl          _token_id_to_string
	mov         x1,x0
	adrp        x8,|$SG3089|
	add         x0,x8,PageOffset(|$SG3089|)
	bl          UARTDebugOut

; 81   : 		return 1;

	mov         w0,#1
	b           |$LN1@AuProcessT|
|$LN2@AuProcessT|

; 82   : 	}
; 83   : 	AA64Thread* current_thr = AuGetCurrentThread();

	bl          AuGetCurrentThread
	str         x0,[sp,#0x10]

; 84   : 	AuProcess* proc = AuProcessFindThread(current_thr);

	ldr         x0,[sp,#0x10]
	bl          AuProcessFindThread
	str         x0,[sp,#8]

; 85   : 	if (!proc) {

	ldr         x8,[sp,#8]
	cmp         x8,#0
	bne         |$LN3@AuProcessT|

; 86   : 		proc = AuProcessFindSubThread(current_thr);

	ldr         x0,[sp,#0x10]
	bl          AuProcessFindSubThread
	str         x0,[sp,#8]

; 87   : 		if (!proc)

	ldr         x8,[sp,#8]
	cmp         x8,#0
	bne         |$LN4@AuProcessT|

; 88   : 			return 1;

	mov         w0,#1
	b           |$LN1@AuProcessT|
|$LN4@AuProcessT|
|$LN3@AuProcessT|

; 89   : 	}
; 90   : 	_tokens[category].proc = proc;

	ldrb        w8,[sp]
	mov         w9,w8
	mov         x8,#0x10
	mul         x9,x9,x8
	adrp        x8,_tokens
	add         x8,x8,PageOffset(_tokens)
	add         x9,x8,x9
	ldr         x8,[sp,#8]
	str         x8,[x9]

; 91   : 	_tokens[category].thread_id = current_thr->thread_id;

	ldr         x8,[sp,#0x10]
	add         x10,x8,#0xF0
	ldrb        w8,[sp]
	mov         w9,w8
	mov         x8,#0x10
	mul         x9,x9,x8
	adrp        x8,_tokens
	add         x8,x8,PageOffset(_tokens)
	add         x8,x8,x9
	add         x9,x8,#8
	ldr         x8,[x10]
	mov         w8,w8
	str         w8,[x9]

; 92   : 	UARTDebugOut("[aurora]: process registered to token : %s \r\n", _token_id_to_string(category));

	ldrb        w0,[sp]
	bl          _token_id_to_string
	mov         x1,x0
	adrp        x8,|$SG3092|
	add         x0,x8,PageOffset(|$SG3092|)
	bl          UARTDebugOut

; 93   : 	return 0;

	mov         w0,#0
|$LN1@AuProcessT|
	add         sp,sp,#0x20
	ldr         lr,[sp],#0x10
	ret

	ENDP  ; |AuProcessTokenAddSelf|

; Function compile flags: /Odtpy
; File C:\Users\paras\source\repos\grep-name\XenevaOS\KernelAA64\proctoken.c

	AREA	|.text$mn|, CODE, ARM64

|AuProcessTokenInitialize| PROC

; 44   : void AuProcessTokenInitialize() {

|$LN6|
	str         lr,[sp,#-0x10]!
	sub         sp,sp,#0x10

; 45   : 	for (int i = 0; i < AURORA_MAX_PROC_TOKEN; i++) {

	mov         w8,#0
	str         w8,[sp]
	b           |$LN4@AuProcessT|
|$LN2@AuProcessT|
	ldr         w8,[sp]
	add         w8,w8,#1
	str         w8,[sp]
|$LN4@AuProcessT|
	ldr         w8,[sp]
	cmp         w8,#0x32
	bge         |$LN3@AuProcessT|

; 46   : 		_tokens[i].proc = NULL;

	ldr         w8,[sp]
	sxtw        x9,w8
	mov         x8,#0x10
	mul         x9,x9,x8
	adrp        x8,_tokens
	add         x8,x8,PageOffset(_tokens)
	add         x9,x8,x9
	mov         x8,#0
	str         x8,[x9]

; 47   : 		_tokens[i].thread_id = -1;

	ldr         w8,[sp]
	sxtw        x9,w8
	mov         x8,#0x10
	mul         x9,x9,x8
	adrp        x8,_tokens
	add         x8,x8,PageOffset(_tokens)
	add         x8,x8,x9
	add         x9,x8,#8
	mov         w8,#-1
	str         w8,[x9]

; 48   : 	}

	b           |$LN2@AuProcessT|
|$LN3@AuProcessT|

; 49   : 	AuTextOut("[aurora]: process tokens initialized \r\n");

	adrp        x8,|$SG3064|
	add         x0,x8,PageOffset(|$SG3064|)
	bl          AuTextOut
	add         sp,sp,#0x10
	ldr         lr,[sp],#0x10
	ret

	ENDP  ; |AuProcessTokenInitialize|

	END
