; Listing generated by Microsoft (R) Optimizing Compiler Version 19.29.30159.0 

	TTL	C:\Users\paras\source\repos\grep-name\XenevaOS\KernelAA64\ARM64\Debug\route.obj
	ARM64

	AREA	|.drectve|, DRECTVE


	AREA	|.data|, DATA
	 COMMON	|_kernelRouteList|, 0x8

	EXPORT	|AuRouteTableInitialise|
	EXPORT	|AuRouteTableCreateEntry|
	EXPORT	|AuRouteTableAdd|
	EXPORT	|AuRouteTableDelete|
	EXPORT	|AuRouteTableGetNumEntry|
	EXPORT	|AuRouteTablePopulate|
	EXPORT	|AuRouteTableDoRouteLookup|
	IMPORT	|initialize_list|
	IMPORT	|list_add|
	IMPORT	|list_remove|
	IMPORT	|list_get_at|
	IMPORT	|strcpy|
	IMPORT	|memset|
	IMPORT	|kmalloc|
	IMPORT	|kfree|

	AREA	|.pdata|, PDATA
|$pdata$AuRouteTableInitialise| DCD imagerel |$LN3|
	DCD	0xa00019
	;Flags[SingleProEpi] functionLength[24] RegF[0] RegI[0] H[0] frameChainReturn[UnChainedSavedLR] frameSize[16]
|$pdata$AuRouteTableCreateEntry| DCD imagerel |$LN3|
	DCD	0x1200035
	;Flags[SingleProEpi] functionLength[52] RegF[0] RegI[0] H[0] frameChainReturn[UnChainedSavedLR] frameSize[32]
|$pdata$AuRouteTableAdd| DCD imagerel |$LN6|
	DCD	0x1200069
	;Flags[SingleProEpi] functionLength[104] RegF[0] RegI[0] H[0] frameChainReturn[UnChainedSavedLR] frameSize[32]
|$pdata$AuRouteTableDelete| DCD imagerel |$LN11|
	DCD	0x1a00129
	;Flags[SingleProEpi] functionLength[296] RegF[0] RegI[0] H[0] frameChainReturn[UnChainedSavedLR] frameSize[48]
|$pdata$AuRouteTablePopulate| DCD imagerel |$LN7|
	DCD	0x1a00109
	;Flags[SingleProEpi] functionLength[264] RegF[0] RegI[0] H[0] frameChainReturn[UnChainedSavedLR] frameSize[48]
|$pdata$AuRouteTableDoRouteLookup| DCD imagerel |$LN9|
	DCD	0x1a000d9
	;Flags[SingleProEpi] functionLength[216] RegF[0] RegI[0] H[0] frameChainReturn[UnChainedSavedLR] frameSize[48]
; Function compile flags: /Odtpy
; File C:\Users\paras\source\repos\grep-name\XenevaOS\KernelAA64\Net\route.c

	AREA	|.text$mn|, CODE, ARM64

|AuRouteTableDoRouteLookup| PROC

; 147  : AuRouteEntry* AuRouteTableDoRouteLookup(uint32_t address) {

|$LN9|
	str         lr,[sp,#-0x10]!
	sub         sp,sp,#0x20
	str         w0,[sp,#4]

; 148  : 	AuRouteEntry* bestRoute = NULL;

	mov         x8,#0
	str         x8,[sp,#0x10]

; 149  : 	for (int i = 0; i < _kernelRouteList->pointer; i++) {

	mov         w8,#0
	str         w8,[sp]
	b           |$LN4@AuRouteTab|
|$LN2@AuRouteTab|
	ldr         w8,[sp]
	add         w8,w8,#1
	str         w8,[sp]
|$LN4@AuRouteTab|
	adrp        x8,_kernelRouteList
	ldr         x8,[x8,PageOffset(_kernelRouteList)]
	ldr         w9,[x8]
	ldr         w8,[sp]
	cmp         w8,w9
	bhs         |$LN3@AuRouteTab|

; 150  : 		AuRouteEntry* _entry = (AuRouteEntry*)list_get_at(_kernelRouteList, i);

	ldr         w1,[sp]
	adrp        x8,_kernelRouteList
	ldr         x0,[x8,PageOffset(_kernelRouteList)]
	bl          list_get_at
	str         x0,[sp,#8]

; 151  : 		if ((address & _entry->netmask) == (_entry->dest & _entry->netmask)) {

	ldr         x8,[sp,#8]
	add         x8,x8,#0xC
	ldr         w9,[sp,#4]
	ldr         w8,[x8]
	and         w10,w9,w8
	ldr         x8,[sp,#8]
	add         x9,x8,#8
	ldr         x8,[sp,#8]
	add         x8,x8,#0xC
	ldr         w9,[x9]
	ldr         w8,[x8]
	and         w8,w9,w8
	cmp         w10,w8
	bne         |$LN5@AuRouteTab|

; 152  : 			if (!bestRoute || _entry->netmask > bestRoute->netmask)

	ldr         x8,[sp,#0x10]
	cmp         x8,#0
	beq         |$LN7@AuRouteTab|
	ldr         x8,[sp,#8]
	add         x10,x8,#0xC
	ldr         x8,[sp,#0x10]
	add         x8,x8,#0xC
	ldr         w9,[x8]
	ldr         w8,[x10]
	cmp         w8,w9
	bls         |$LN6@AuRouteTab|
|$LN7@AuRouteTab|

; 153  : 				bestRoute = _entry;

	ldr         x8,[sp,#8]
	str         x8,[sp,#0x10]
|$LN6@AuRouteTab|
|$LN5@AuRouteTab|

; 154  : 		}
; 155  : 	}

	b           |$LN2@AuRouteTab|
|$LN3@AuRouteTab|

; 156  : 	return bestRoute;

	ldr         x0,[sp,#0x10]
	add         sp,sp,#0x20
	ldr         lr,[sp],#0x10
	ret

	ENDP  ; |AuRouteTableDoRouteLookup|

; Function compile flags: /Odtpy
; File C:\Users\paras\source\repos\grep-name\XenevaOS\KernelAA64\Net\route.c

	AREA	|.text$mn|, CODE, ARM64

|AuRouteTablePopulate| PROC

; 122  : void AuRouteTablePopulate(AuRouteEntry* whereToPopulate, int entryIndex) {

|$LN7|
	str         lr,[sp,#-0x10]!
	sub         sp,sp,#0x20
	str         x0,[sp,#0x10]
	str         w1,[sp]

; 123  : 	if (!whereToPopulate)

	ldr         x8,[sp,#0x10]
	cmp         x8,#0
	bne         |$LN2@AuRouteTab|

; 124  : 		return;

	b           |$LN1@AuRouteTab|
|$LN2@AuRouteTab|

; 125  : 	if (entryIndex == -1)

	ldr         w8,[sp]
	cmn         w8,#1
	bne         |$LN3@AuRouteTab|

; 126  : 		return;

	b           |$LN1@AuRouteTab|
|$LN3@AuRouteTab|

; 127  : 
; 128  : 	if (entryIndex > _kernelRouteList->pointer)

	adrp        x8,_kernelRouteList
	ldr         x8,[x8,PageOffset(_kernelRouteList)]
	ldr         w9,[x8]
	ldr         w8,[sp]
	cmp         w8,w9
	bls         |$LN4@AuRouteTab|

; 129  : 		return;

	b           |$LN1@AuRouteTab|
|$LN4@AuRouteTab|

; 130  : 
; 131  : 	AuRouteEntry* entry = (AuRouteEntry*)list_get_at(_kernelRouteList, entryIndex);

	ldr         w1,[sp]
	adrp        x8,_kernelRouteList
	ldr         x0,[x8,PageOffset(_kernelRouteList)]
	bl          list_get_at
	str         x0,[sp,#8]

; 132  : 	if (!entry)

	ldr         x8,[sp,#8]
	cmp         x8,#0
	bne         |$LN5@AuRouteTab|

; 133  : 		return;

	b           |$LN1@AuRouteTab|
|$LN5@AuRouteTab|

; 134  : 	strcpy(whereToPopulate->ifname, entry->ifname);

	ldr         x9,[sp,#8]
	ldr         x8,[sp,#0x10]
	ldr         x1,[x9]
	ldr         x0,[x8]
	bl          strcpy

; 135  : 	whereToPopulate->dest = entry->dest;

	ldr         x8,[sp,#8]
	add         x10,x8,#8
	ldr         x8,[sp,#0x10]
	add         x9,x8,#8
	ldr         w8,[x10]
	str         w8,[x9]

; 136  : 	whereToPopulate->flags = entry->flags;

	ldr         x8,[sp,#8]
	add         x10,x8,#0x18
	ldr         x8,[sp,#0x10]
	add         x9,x8,#0x18
	ldrb        w8,[x10]
	strb        w8,[x9]

; 137  : 	whereToPopulate->gateway = entry->gateway;

	ldr         x8,[sp,#8]
	add         x10,x8,#0x14
	ldr         x8,[sp,#0x10]
	add         x9,x8,#0x14
	ldr         w8,[x10]
	str         w8,[x9]

; 138  : 	whereToPopulate->ifaddress = entry->ifaddress;

	ldr         x8,[sp,#8]
	add         x10,x8,#0x10
	ldr         x8,[sp,#0x10]
	add         x9,x8,#0x10
	ldr         w8,[x10]
	str         w8,[x9]

; 139  : 	whereToPopulate->netmask = entry->netmask;

	ldr         x8,[sp,#8]
	add         x10,x8,#0xC
	ldr         x8,[sp,#0x10]
	add         x9,x8,#0xC
	ldr         w8,[x10]
	str         w8,[x9]
|$LN1@AuRouteTab|
	add         sp,sp,#0x20
	ldr         lr,[sp],#0x10
	ret

	ENDP  ; |AuRouteTablePopulate|

; Function compile flags: /Odtpy
; File C:\Users\paras\source\repos\grep-name\XenevaOS\KernelAA64\Net\route.c

	AREA	|.text$mn|, CODE, ARM64

|AuRouteTableGetNumEntry| PROC

; 112  : 	return _kernelRouteList->pointer;

	adrp        x8,_kernelRouteList
	ldr         x8,[x8,PageOffset(_kernelRouteList)]
	ldr         w0,[x8]
	ret

	ENDP  ; |AuRouteTableGetNumEntry|

; Function compile flags: /Odtpy
; File C:\Users\paras\source\repos\grep-name\XenevaOS\KernelAA64\Net\route.c

	AREA	|.text$mn|, CODE, ARM64

|AuRouteTableDelete| PROC

; 85   : void AuRouteTableDelete(AuRouteEntry* entry) {

|$LN11|
	str         lr,[sp,#-0x10]!
	sub         sp,sp,#0x20
	str         x0,[sp,#8]

; 86   : 	if (!entry)

	ldr         x8,[sp,#8]
	cmp         x8,#0
	bne         |$LN5@AuRouteTab|

; 87   : 		return;

	b           |$LN1@AuRouteTab|
|$LN5@AuRouteTab|

; 88   : 	if (!entry->dest)

	ldr         x8,[sp,#8]
	add         x8,x8,#8
	ldr         w8,[x8]
	cmp         w8,#0
	bne         |$LN6@AuRouteTab|

; 89   : 		return;

	b           |$LN1@AuRouteTab|
|$LN6@AuRouteTab|

; 90   : 	if (!entry->netmask)

	ldr         x8,[sp,#8]
	add         x8,x8,#0xC
	ldr         w8,[x8]
	cmp         w8,#0
	bne         |$LN7@AuRouteTab|

; 91   : 		return;

	b           |$LN1@AuRouteTab|
|$LN7@AuRouteTab|

; 92   : 	int index = -1;

	mov         w8,#-1
	str         w8,[sp,#4]

; 93   : 	for (int i = 0; i < _kernelRouteList->pointer; i++) {

	mov         w8,#0
	str         w8,[sp]
	b           |$LN4@AuRouteTab|
|$LN2@AuRouteTab|
	ldr         w8,[sp]
	add         w8,w8,#1
	str         w8,[sp]
|$LN4@AuRouteTab|
	adrp        x8,_kernelRouteList
	ldr         x8,[x8,PageOffset(_kernelRouteList)]
	ldr         w9,[x8]
	ldr         w8,[sp]
	cmp         w8,w9
	bhs         |$LN3@AuRouteTab|

; 94   : 		AuRouteEntry* _entry = (AuRouteEntry*)list_get_at(_kernelRouteList, i);

	ldr         w1,[sp]
	adrp        x8,_kernelRouteList
	ldr         x0,[x8,PageOffset(_kernelRouteList)]
	bl          list_get_at
	str         x0,[sp,#0x10]

; 95   : 		if (_entry->dest == entry->dest && _entry->netmask == entry->netmask) {

	ldr         x8,[sp,#0x10]
	add         x10,x8,#8
	ldr         x8,[sp,#8]
	add         x8,x8,#8
	ldr         w9,[x8]
	ldr         w8,[x10]
	cmp         w8,w9
	bne         |$LN8@AuRouteTab|
	ldr         x8,[sp,#0x10]
	add         x10,x8,#0xC
	ldr         x8,[sp,#8]
	add         x8,x8,#0xC
	ldr         w9,[x8]
	ldr         w8,[x10]
	cmp         w8,w9
	bne         |$LN8@AuRouteTab|

; 96   : 			index = i;

	ldr         w8,[sp]
	str         w8,[sp,#4]

; 97   : 			break;

	b           |$LN3@AuRouteTab|
|$LN8@AuRouteTab|

; 98   : 		}
; 99   : 	}

	b           |$LN2@AuRouteTab|
|$LN3@AuRouteTab|

; 100  : 	if (index != -1) {

	ldr         w8,[sp,#4]
	cmn         w8,#1
	beq         |$LN9@AuRouteTab|

; 101  : 		AuRouteEntry* _removable = (AuRouteEntry*)list_remove(_kernelRouteList, index);

	ldr         w1,[sp,#4]
	adrp        x8,_kernelRouteList
	ldr         x0,[x8,PageOffset(_kernelRouteList)]
	bl          list_remove
	str         x0,[sp,#0x18]

; 102  : 		kfree(_removable->ifname);

	ldr         x8,[sp,#0x18]
	ldr         x0,[x8]
	bl          kfree

; 103  : 		kfree(_removable);

	ldr         x0,[sp,#0x18]
	bl          kfree
|$LN9@AuRouteTab|
|$LN1@AuRouteTab|
	add         sp,sp,#0x20
	ldr         lr,[sp],#0x10
	ret

	ENDP  ; |AuRouteTableDelete|

; Function compile flags: /Odtpy
; File C:\Users\paras\source\repos\grep-name\XenevaOS\KernelAA64\Net\route.c

	AREA	|.text$mn|, CODE, ARM64

|AuRouteTableAdd| PROC

; 70   : void AuRouteTableAdd(AuRouteEntry* entry) {

|$LN6|
	str         lr,[sp,#-0x10]!
	sub         sp,sp,#0x10
	str         x0,[sp]

; 71   : 	if (!entry)

	ldr         x8,[sp]
	cmp         x8,#0
	bne         |$LN2@AuRouteTab|

; 72   : 		return;

	b           |$LN1@AuRouteTab|
|$LN2@AuRouteTab|

; 73   : 	if (!entry->dest)

	ldr         x8,[sp]
	add         x8,x8,#8
	ldr         w8,[x8]
	cmp         w8,#0
	bne         |$LN3@AuRouteTab|

; 74   : 		return;

	b           |$LN1@AuRouteTab|
|$LN3@AuRouteTab|

; 75   : 	if (!entry->netmask)

	ldr         x8,[sp]
	add         x8,x8,#0xC
	ldr         w8,[x8]
	cmp         w8,#0
	bne         |$LN4@AuRouteTab|

; 76   : 		return;

	b           |$LN1@AuRouteTab|
|$LN4@AuRouteTab|

; 77   : 	list_add(_kernelRouteList, entry);

	ldr         x1,[sp]
	adrp        x8,_kernelRouteList
	ldr         x0,[x8,PageOffset(_kernelRouteList)]
	bl          list_add
|$LN1@AuRouteTab|
	add         sp,sp,#0x10
	ldr         lr,[sp],#0x10
	ret

	ENDP  ; |AuRouteTableAdd|

; Function compile flags: /Odtpy
; File C:\Users\paras\source\repos\grep-name\XenevaOS\KernelAA64\Net\route.c

	AREA	|.text$mn|, CODE, ARM64

|AuRouteTableCreateEntry| PROC

; 58   : AuRouteEntry* AuRouteTableCreateEntry() {

|$LN3|
	str         lr,[sp,#-0x10]!
	sub         sp,sp,#0x10

; 59   : 	AuRouteEntry* entry = (AuRouteEntry*)kmalloc(sizeof(AuRouteEntry));

	mov         w0,#0x20
	bl          kmalloc
	str         x0,[sp]

; 60   : 	memset(entry, 0, sizeof(AuRouteEntry));

	mov         w2,#0x20
	mov         w1,#0
	ldr         x0,[sp]
	bl          memset

; 61   : 	return entry;

	ldr         x0,[sp]
	add         sp,sp,#0x10
	ldr         lr,[sp],#0x10
	ret

	ENDP  ; |AuRouteTableCreateEntry|

; Function compile flags: /Odtpy
; File C:\Users\paras\source\repos\grep-name\XenevaOS\KernelAA64\Net\route.c

	AREA	|.text$mn|, CODE, ARM64

|AuRouteTableInitialise| PROC

; 49   : void AuRouteTableInitialise() {

|$LN3|
	str         lr,[sp,#-0x10]!

; 50   : 	_kernelRouteList = initialize_list();

	bl          initialize_list
	adrp        x8,_kernelRouteList
	str         x0,[x8,PageOffset(_kernelRouteList)]
	ldr         lr,[sp],#0x10
	ret

	ENDP  ; |AuRouteTableInitialise|

	END
