; Listing generated by Microsoft (R) Optimizing Compiler Version 19.29.30159.0 

	TTL	C:\Users\paras\source\repos\grep-name\XenevaOS\KernelAA64\ARM64\Debug\rtcmmio.obj
	ARM64

	AREA	|.drectve|, DRECTVE


	AREA	|.data|, DATA
	 COMMON	|__rtc|, 0x8


	AREA	|.rdata|, DATA, READONLY
|?days_in_month@?1??epoch_to_tm@@9@9| DCD 0x1f		; `epoch_to_tm'::`2'::days_in_month
	DCD	0x1c
	DCD	0x1f
	DCD	0x1e
	DCD	0x1f
	DCD	0x1e
	DCD	0x1f
	DCD	0x1f
	DCD	0x1e
	DCD	0x1f
	DCD	0x1e
	DCD	0x1f
	EXPORT	|AuPL031RTCIRQHandle|
	EXPORT	|AuPL031RTCInit|
	EXPORT	|AuRTCGetYear|
	EXPORT	|AuRTCGetCentury|
	EXPORT	|AuRTCGetMinutes|
	EXPORT	|AuRTCGetSecond|
	EXPORT	|AuRTCGetDay|
	EXPORT	|AuRTCGetHour|
	EXPORT	|AuRTCGetMonth|
	EXPORT	|AuRTCEnableInterrupt|
	EXPORT	|AuRTCGetCurrentTime|
	EXPORT	|AuRTCClearInterrupt|
	EXPORT	|is_leap|
	EXPORT	|epoch_to_tm|
	IMPORT	|GICEnableIRQ|
	IMPORT	|AuTextOut|
	IMPORT	|memset|

	AREA	|.pdata|, PDATA
|$pdata$AuPL031RTCIRQHandle| DCD imagerel |$LN3|
	DCD	0x120002d
	;Flags[SingleProEpi] functionLength[44] RegF[0] RegI[0] H[0] frameChainReturn[UnChainedSavedLR] frameSize[32]
|$pdata$AuPL031RTCInit| DCD imagerel |$LN6|
	DCD	0xa0005d
	;Flags[SingleProEpi] functionLength[92] RegF[0] RegI[0] H[0] frameChainReturn[UnChainedSavedLR] frameSize[16]
|$pdata$is_leap| DCD imagerel |$LN6|
	DCD	0x80007d
	;Flags[SingleProEpi] functionLength[124] RegF[0] RegI[0] H[0] frameChainReturn[UnChained] frameSize[16]
|$pdata$epoch_to_tm| DCD imagerel |$LN15|
	DCD	0x1a00221
	;Flags[SingleProEpi] functionLength[544] RegF[0] RegI[0] H[0] frameChainReturn[UnChainedSavedLR] frameSize[48]

	AREA	|.data|, DATA
|$SG2775| DCB	"PL031 RTC Initialized ", 0xa, 0x0
; Function compile flags: /Odtpy
; File C:\Users\paras\source\repos\grep-name\XenevaOS\KernelAA64\Drivers\rtcmmio.c

	AREA	|.text$mn|, CODE, ARM64

|epoch_to_tm| PROC

; 83   : void epoch_to_tm(uint32_t epoch) {

|$LN15|
	str         lr,[sp,#-0x10]!
	sub         sp,sp,#0x20
	str         w0,[sp,#0x14]

; 84   : 	static const int days_in_month[] = { 31, 28, 31, 30, 31,30, 31, 31, 30, 31, 30, 31 };
; 85   : 	uint32_t days = epoch / 86400;

	ldr         w9,[sp,#0x14]
	ldr         w8,|$LN14@epoch_to_t|
	udiv        w8,w9,w8
	str         w8,[sp]

; 86   : 	uint32_t rem = epoch % 86400;

	ldr         w10,[sp,#0x14]
	ldr         w9,|$LN14@epoch_to_t|
	udiv        w8,w10,w9
	mul         w8,w8,w9
	sub         w8,w10,w8
	str         w8,[sp,#4]

; 87   : 
; 88   : 	__rtc.hour = rem / 3600;

	ldr         w9,[sp,#4]
	mov         w8,#0xE10
	udiv        w8,w9,w8
	uxtb        w9,w8
	adrp        x8,__rtc+#5
	strb        w9,[x8,PageOffset(__rtc)+#5]

; 89   : 	rem %= 3600;

	ldr         w10,[sp,#4]
	mov         w9,#0xE10
	udiv        w8,w10,w9
	mul         w8,w8,w9
	sub         w8,w10,w8
	str         w8,[sp,#4]

; 90   : 	__rtc.minute = rem / 60;

	ldr         w9,[sp,#4]
	mov         w8,#0x3C
	udiv        w8,w9,w8
	uxtb        w9,w8
	adrp        x8,__rtc+#6
	strb        w9,[x8,PageOffset(__rtc)+#6]

; 91   : 	__rtc.second = rem % 60;

	ldr         w10,[sp,#4]
	mov         w9,#0x3C
	udiv        w8,w10,w9
	mul         w8,w8,w9
	sub         w8,w10,w8
	uxtb        w9,w8
	adrp        x8,__rtc+#7
	strb        w9,[x8,PageOffset(__rtc)+#7]

; 92   : 
; 93   : 	int year = 1970;

	mov         w8,#0x7B2
	str         w8,[sp,#8]
|$LN2@epoch_to_t|

; 94   : 	while (1) {

	mov         w8,#1
	cmp         w8,#0
	beq         |$LN3@epoch_to_t|

; 95   : 		int dim = is_leap(year) ? 366 : 365;

	ldr         w0,[sp,#8]
	bl          is_leap
	mov         w0,w0
	cmp         w0,#0
	beq         |$LN12@epoch_to_t|
	mov         w8,#0x16E
	str         w8,[sp,#0x18]
	b           |$LN13@epoch_to_t|
|$LN12@epoch_to_t|
	mov         w8,#0x16D
	str         w8,[sp,#0x18]
|$LN13@epoch_to_t|
	ldr         w8,[sp,#0x18]
	str         w8,[sp,#0x1C]

; 96   : 		if (days >= dim) {

	ldr         w9,[sp,#0x1C]
	ldr         w8,[sp]
	cmp         w8,w9
	blo         |$LN6@epoch_to_t|

; 97   : 			days -= dim;

	ldr         w9,[sp]
	ldr         w8,[sp,#0x1C]
	sub         w8,w9,w8
	str         w8,[sp]

; 98   : 			year++;

	ldr         w8,[sp,#8]
	add         w8,w8,#1
	str         w8,[sp,#8]

; 99   : 		}

	b           |$LN7@epoch_to_t|
|$LN6@epoch_to_t|

; 100  : 		else break;

	b           |$LN3@epoch_to_t|
|$LN7@epoch_to_t|

; 101  : 	}

	b           |$LN2@epoch_to_t|
|$LN3@epoch_to_t|

; 102  : 	__rtc.year = year;

	ldr         w8,[sp,#8]
	uxtb        w9,w8
	adrp        x8,__rtc+#2
	strb        w9,[x8,PageOffset(__rtc)+#2]

; 103  : 	int month = 0;

	mov         w8,#0
	str         w8,[sp,#0xC]
|$LN4@epoch_to_t|

; 104  : 	while (1) {

	mov         w8,#1
	cmp         w8,#0
	beq         |$LN5@epoch_to_t|

; 105  : 		int dim = days_in_month[month];

	ldr         w8,[sp,#0xC]
	sxtw        x9,w8
	mov         x8,#4
	mul         x9,x9,x8
	adrp        x8,|?days_in_month@?1??epoch_to_tm@@9@9|
	add         x8,x8,PageOffset(|?days_in_month@?1??epoch_to_tm@@9@9|)
	add         x8,x8,x9
	ldr         w8,[x8]
	str         w8,[sp,#0x10]

; 106  : 		if (month == 1 && is_leap(year)) dim++;

	ldr         w8,[sp,#0xC]
	cmp         w8,#1
	bne         |$LN8@epoch_to_t|
	ldr         w0,[sp,#8]
	bl          is_leap
	mov         w0,w0
	cmp         w0,#0
	beq         |$LN8@epoch_to_t|
	ldr         w8,[sp,#0x10]
	add         w8,w8,#1
	str         w8,[sp,#0x10]
|$LN8@epoch_to_t|

; 107  : 		if (days >= dim) {

	ldr         w9,[sp,#0x10]
	ldr         w8,[sp]
	cmp         w8,w9
	blo         |$LN9@epoch_to_t|

; 108  : 			days -= dim;

	ldr         w9,[sp]
	ldr         w8,[sp,#0x10]
	sub         w8,w9,w8
	str         w8,[sp]

; 109  : 			month++;

	ldr         w8,[sp,#0xC]
	add         w8,w8,#1
	str         w8,[sp,#0xC]

; 110  : 		}

	b           |$LN10@epoch_to_t|
|$LN9@epoch_to_t|

; 111  : 		else break;

	b           |$LN5@epoch_to_t|
|$LN10@epoch_to_t|

; 112  : 
; 113  : 	}

	b           |$LN4@epoch_to_t|
|$LN5@epoch_to_t|

; 114  : 	__rtc.month = month + 1;

	ldr         w8,[sp,#0xC]
	add         w8,w8,#1
	uxtb        w9,w8
	adrp        x8,__rtc+#3
	strb        w9,[x8,PageOffset(__rtc)+#3]

; 115  : 	__rtc.day = days + 1;

	ldr         w8,[sp]
	add         w8,w8,#1
	uxtb        w9,w8
	adrp        x8,__rtc+#4
	strb        w9,[x8,PageOffset(__rtc)+#4]

; 116  : 	__rtc.century = (__rtc.year - 1) / 100 + 1;

	adrp        x8,__rtc+#2
	ldrb        w8,[x8,PageOffset(__rtc)+#2]
	mov         w8,w8
	sub         w9,w8,#1
	mov         w8,#0x64
	sdiv        w8,w9,w8
	add         w8,w8,#1
	uxtb        w9,w8
	adrp        x8,__rtc+#1
	strb        w9,[x8,PageOffset(__rtc)+#1]
	add         sp,sp,#0x20
	ldr         lr,[sp],#0x10
	ret
|$LN14@epoch_to_t|
	DCD         0x15180

	ENDP  ; |epoch_to_tm|

; Function compile flags: /Odtpy
; File C:\Users\paras\source\repos\grep-name\XenevaOS\KernelAA64\Drivers\rtcmmio.c

	AREA	|.text$mn|, CODE, ARM64

|is_leap| PROC

; 75   : int is_leap(int year) {

|$LN6|
	sub         sp,sp,#0x10
	str         w0,[sp]

; 76   : 	return ((year % 4 == 0) && (year % 100 != 0)) || (year % 400 == 0);

	ldr         w10,[sp]
	mov         w9,#4
	sdiv        w8,w10,w9
	mul         w8,w8,w9
	sub         w8,w10,w8
	cmp         w8,#0
	bne         |$LN3@is_leap|
	ldr         w10,[sp]
	mov         w9,#0x64
	sdiv        w8,w10,w9
	mul         w8,w8,w9
	sub         w8,w10,w8
	cmp         w8,#0
	bne         |$LN4@is_leap|
|$LN3@is_leap|
	ldr         w10,[sp]
	mov         w9,#0x190
	sdiv        w8,w10,w9
	mul         w8,w8,w9
	sub         w8,w10,w8
	cmp         w8,#0
	beq         |$LN4@is_leap|
	mov         w8,#0
	str         w8,[sp,#4]
	b           |$LN5@is_leap|
|$LN4@is_leap|
	mov         w8,#1
	str         w8,[sp,#4]
|$LN5@is_leap|
	ldr         w0,[sp,#4]
	add         sp,sp,#0x10
	ret

	ENDP  ; |is_leap|

; Function compile flags: /Odtpy
; File C:\Users\paras\source\repos\grep-name\XenevaOS\KernelAA64\Drivers\rtcmmio.c

	AREA	|.text$mn|, CODE, ARM64

|AuRTCClearInterrupt| PROC

; 72   : 	rtc_write32(RTCICR, 1);

	ldr         x9,|$LN3@AuRTCClear|
	mov         w8,#1
	str         w8,[x9]
	ret
|$LN3@AuRTCClear|
	DCQ         0x901001c

	ENDP  ; |AuRTCClearInterrupt|

; Function compile flags: /Odtpy
; File C:\Users\paras\source\repos\grep-name\XenevaOS\KernelAA64\Drivers\rtcmmio.c

	AREA	|.text$mn|, CODE, ARM64

|AuRTCGetCurrentTime| PROC

; 65   : 	return rtc_read32(RTCDR);

	mov         x8,#0x9010000
	ldr         w0,[x8]
	ret

	ENDP  ; |AuRTCGetCurrentTime|

; Function compile flags: /Odtpy
; File C:\Users\paras\source\repos\grep-name\XenevaOS\KernelAA64\Drivers\rtcmmio.c

	AREA	|.text$mn|, CODE, ARM64

|AuRTCEnableInterrupt| PROC

; 56   : 	rtc_write32(RTCIMSC, 1);

	ldr         x9,|$LN3@AuRTCEnabl|
	mov         w8,#1
	str         w8,[x9]
	ret
|$LN3@AuRTCEnabl|
	DCQ         0x9010010

	ENDP  ; |AuRTCEnableInterrupt|

; Function compile flags: /Odtpy
; File C:\Users\paras\source\repos\grep-name\XenevaOS\KernelAA64\Drivers\rtcmmio.c

	AREA	|.text$mn|, CODE, ARM64

|AuRTCGetMonth| PROC

; 205  : 	return __rtc.month;

	adrp        x8,__rtc+#3
	ldrb        w0,[x8,PageOffset(__rtc)+#3]
	ret

	ENDP  ; |AuRTCGetMonth|

; Function compile flags: /Odtpy
; File C:\Users\paras\source\repos\grep-name\XenevaOS\KernelAA64\Drivers\rtcmmio.c

	AREA	|.text$mn|, CODE, ARM64

|AuRTCGetHour| PROC

; 197  : 	return __rtc.hour;

	adrp        x8,__rtc+#5
	ldrb        w0,[x8,PageOffset(__rtc)+#5]
	ret

	ENDP  ; |AuRTCGetHour|

; Function compile flags: /Odtpy
; File C:\Users\paras\source\repos\grep-name\XenevaOS\KernelAA64\Drivers\rtcmmio.c

	AREA	|.text$mn|, CODE, ARM64

|AuRTCGetDay| PROC

; 189  : 	return __rtc.day;

	adrp        x8,__rtc+#4
	ldrb        w0,[x8,PageOffset(__rtc)+#4]
	ret

	ENDP  ; |AuRTCGetDay|

; Function compile flags: /Odtpy
; File C:\Users\paras\source\repos\grep-name\XenevaOS\KernelAA64\Drivers\rtcmmio.c

	AREA	|.text$mn|, CODE, ARM64

|AuRTCGetSecond| PROC

; 180  : 	return __rtc.second;

	adrp        x8,__rtc+#7
	ldrb        w0,[x8,PageOffset(__rtc)+#7]
	ret

	ENDP  ; |AuRTCGetSecond|

; Function compile flags: /Odtpy
; File C:\Users\paras\source\repos\grep-name\XenevaOS\KernelAA64\Drivers\rtcmmio.c

	AREA	|.text$mn|, CODE, ARM64

|AuRTCGetMinutes| PROC

; 171  : 	return __rtc.minute;

	adrp        x8,__rtc+#6
	ldrb        w0,[x8,PageOffset(__rtc)+#6]
	ret

	ENDP  ; |AuRTCGetMinutes|

; Function compile flags: /Odtpy
; File C:\Users\paras\source\repos\grep-name\XenevaOS\KernelAA64\Drivers\rtcmmio.c

	AREA	|.text$mn|, CODE, ARM64

|AuRTCGetCentury| PROC

; 162  : 	return __rtc.century;

	adrp        x8,__rtc+#1
	ldrb        w0,[x8,PageOffset(__rtc)+#1]
	ret

	ENDP  ; |AuRTCGetCentury|

; Function compile flags: /Odtpy
; File C:\Users\paras\source\repos\grep-name\XenevaOS\KernelAA64\Drivers\rtcmmio.c

	AREA	|.text$mn|, CODE, ARM64

|AuRTCGetYear| PROC

; 153  : 	return __rtc.year;

	adrp        x8,__rtc+#2
	ldrb        w0,[x8,PageOffset(__rtc)+#2]
	ret

	ENDP  ; |AuRTCGetYear|

; Function compile flags: /Odtpy
; File C:\Users\paras\source\repos\grep-name\XenevaOS\KernelAA64\Drivers\rtcmmio.c

	AREA	|.text$mn|, CODE, ARM64

|AuPL031RTCInit| PROC

; 132  : void AuPL031RTCInit() {

|$LN6|
	str         lr,[sp,#-0x10]!

; 133  : #ifdef __TARGET_BOARD_QEMU_VIRT__
; 134  : 	memset(&__rtc, 0, sizeof(AuRTC));

	mov         w2,#8
	mov         w1,#0
	adrp        x8,__rtc
	add         x0,x8,PageOffset(__rtc)
	bl          memset

; 135  : 	GICEnableIRQ(QEMU_VIRT_RTCIRQ);

	mov         w0,#2
	bl          GICEnableIRQ

; 136  : 
; 137  : 	rtc_write32(RTC_BASE + PL031_RTC_LR, 1);

	ldr         x9,|$LN3@AuPL031RTC|
	mov         w8,#1
	str         w8,[x9]

; 138  : 	rtc_write32(RTC_BASE + PL031_RTC_MR, 0);

	ldr         x9,|$LN4@AuPL031RTC|
	mov         w8,#0
	str         w8,[x9]

; 139  : 	rtc_write32(RTC_BASE + PL031_RTC_CR, 1);

	ldr         x9,|$LN5@AuPL031RTC|
	mov         w8,#1
	str         w8,[x9]

; 140  : 
; 141  : 	//AuRTCClearInterrupt();
; 142  : 	AuRTCEnableInterrupt();

	bl          AuRTCEnableInterrupt

; 143  : 
; 144  : 	AuTextOut("PL031 RTC Initialized \n");

	adrp        x8,|$SG2775|
	add         x0,x8,PageOffset(|$SG2775|)
	bl          AuTextOut
	ldr         lr,[sp],#0x10
	ret
	nop
|$LN3@AuPL031RTC|
	DCQ         0x9010008
|$LN4@AuPL031RTC|
	DCQ         0x9010004
|$LN5@AuPL031RTC|
	DCQ         0x901000c

	ENDP  ; |AuPL031RTCInit|

; Function compile flags: /Odtpy
; File C:\Users\paras\source\repos\grep-name\XenevaOS\KernelAA64\Drivers\rtcmmio.c

	AREA	|.text$mn|, CODE, ARM64

|AuPL031RTCIRQHandle| PROC

; 122  : void AuPL031RTCIRQHandle() {

|$LN3|
	str         lr,[sp,#-0x10]!
	sub         sp,sp,#0x10

; 123  : 	uint32_t epoch = AuRTCGetCurrentTime();

	bl          AuRTCGetCurrentTime
	mov         w0,w0
	str         w0,[sp]

; 124  : 	epoch_to_tm(epoch);

	ldr         w0,[sp]
	bl          epoch_to_tm

; 125  : 	AuRTCClearInterrupt();

	bl          AuRTCClearInterrupt
	add         sp,sp,#0x10
	ldr         lr,[sp],#0x10
	ret

	ENDP  ; |AuPL031RTCIRQHandle|

	END
