; Listing generated by Microsoft (R) Optimizing Compiler Version 19.29.30159.0 

	TTL	C:\Users\paras\source\repos\grep-name\XenevaOS\KernelAA64\ARM64\Debug\sched.obj
	ARM64

	AREA	|.drectve|, DRECTVE

	EXPORT	|debug| [ DATA ]

	AREA	|.data|, DATA
	 COMMON	|thread_list_head|, 0x8

	 COMMON	|thread_list_last|, 0x8

	 COMMON	|blocked_thr_head|, 0x8

	 COMMON	|blocked_thr_last|, 0x8

	 COMMON	|trash_thr_head|, 0x8

	 COMMON	|trash_thr_last|, 0x8

	 COMMON	|sleep_thr_head|, 0x8

	 COMMON	|sleep_thr_last|, 0x8

	 COMMON	|current_thread|, 0x8

	 COMMON	|_idle_thr|, 0x8

	 COMMON	|thread_id|, 0x8

	 COMMON	|_scheduler_initialized|, 0x1

	 COMMON	|scheduler_tick|, 0x8


	AREA	|.bss|, NOINIT
|debug|	%	0x1
|ke_stack_idx| % 0x4
	EXPORT	|AuSchedulerInitialize|
	EXPORT	|AuCreateKernelStack|
	EXPORT	|AuCreateKthread|
	EXPORT	|AuCreateSubKthread|
	EXPORT	|AuScheduleThread|
	EXPORT	|AuSchedulerStart|
	EXPORT	|AuGetIdleThread|
	EXPORT	|AuGetCurrentThread|
	EXPORT	|AuBlockThread|
	EXPORT	|AuUnblockThread|
	EXPORT	|AuForceScheduler|
	EXPORT	|AuSleepThread|
	EXPORT	|AuThreadFindByID|
	EXPORT	|AuThreadFindByIDBlockList|
	EXPORT	|AuThreadMoveToTrash|
	EXPORT	|AuThreadCleanTrash|
	EXPORT	|AuGetSystemTimerTick|
	EXPORT	|AuCreateSubKernelStack|
	EXPORT	|AuThreadInsert|
	EXPORT	|AuThreadDelete|
	EXPORT	|AuThreadInsertBlock|
	EXPORT	|AuThreadDeleteBlock|
	EXPORT	|AuThreadInsertTrash|
	EXPORT	|AuThreadDeleteTrash|
	EXPORT	|AuThreadInsertSleep|
	EXPORT	|AuThreadDeleteSleep|
	EXPORT	|AA64NextThread|
	EXPORT	|PrintThreadInfo|
	EXPORT	|AuIdleThread|
	EXPORT	|AuResumeUserThread|
	EXPORT	|enscheddebug|
	EXPORT	|AuHandleSleepThreads|
	EXPORT	|PrintThrIn|
	EXPORT	|AuThreadSafeReturn|
	EXPORT	|AuPrintStack|
	EXPORT	|AuSetIdleThread|
	IMPORT	|AuPmmngrAlloc|
	IMPORT	|P2V|
	IMPORT	|V2P|
	IMPORT	|kmalloc|
	IMPORT	|AuMapPage|
	IMPORT	|AuCreateVirtualAddressSpace|
	IMPORT	|strncpy|
	IMPORT	|memset|
	IMPORT	|_getCurrentEL|
	IMPORT	|write_both_ttbr|
	IMPORT	|dsb_sy_barrier|
	IMPORT	|tlb_flush_vmalle1is|
	IMPORT	|setupTimerIRQ|
	IMPORT	|suspendTimer|
	IMPORT	|enable_irqs|
	IMPORT	|mask_irqs|
	IMPORT	|read_spsel|
	IMPORT	|aa64_store_fp|
	IMPORT	|aa64_restore_fp|
	IMPORT	|UARTDebugOut|
	IMPORT	|GICClearPendingIRQ|
	IMPORT	|AuTextOut|
	IMPORT	|aa64_store_context|
	IMPORT	|aa64_restore_context|
	IMPORT	|first_time_sex|
	IMPORT	|read_sp|
	IMPORT	|resume_user|

	AREA	|.pdata|, PDATA
|$pdata$AuSchedulerInitialize| DCD imagerel |$LN3|
	DCD	0x1200099
	;Flags[SingleProEpi] functionLength[152] RegF[0] RegI[0] H[0] frameChainReturn[UnChainedSavedLR] frameSize[32]
|$pdata$AuCreateKernelStack| DCD imagerel |$LN7|
	DCD	0x1a100ed
	;Flags[SingleProEpi] functionLength[236] RegF[0] RegI[1] H[0] frameChainReturn[UnChainedSavedLR] frameSize[48]
|$pdata$AuCreateKthread| DCD imagerel |$LN3|
	DCD	0x2200179
	;Flags[SingleProEpi] functionLength[376] RegF[0] RegI[0] H[0] frameChainReturn[UnChainedSavedLR] frameSize[64]
|$pdata$AuCreateSubKthread| DCD imagerel |$LN3|
	DCD	0x2200131
	;Flags[SingleProEpi] functionLength[304] RegF[0] RegI[0] H[0] frameChainReturn[UnChainedSavedLR] frameSize[64]
|$pdata$AuScheduleThread| DCD imagerel |$LN7|
	DCD	0x1a001dd
	;Flags[SingleProEpi] functionLength[476] RegF[0] RegI[0] H[0] frameChainReturn[UnChainedSavedLR] frameSize[48]
|$pdata$AuSchedulerStart| DCD imagerel |$LN3|
	DCD	0x120007d
	;Flags[SingleProEpi] functionLength[124] RegF[0] RegI[0] H[0] frameChainReturn[UnChainedSavedLR] frameSize[32]
|$pdata$AuBlockThread| DCD imagerel |$LN3|
	DCD	0x1200039
	;Flags[SingleProEpi] functionLength[56] RegF[0] RegI[0] H[0] frameChainReturn[UnChainedSavedLR] frameSize[32]
|$pdata$AuUnblockThread| DCD imagerel |$LN8|
	DCD	0x1a000a5
	;Flags[SingleProEpi] functionLength[164] RegF[0] RegI[0] H[0] frameChainReturn[UnChainedSavedLR] frameSize[48]
|$pdata$AuForceScheduler| DCD imagerel |$LN3|
	DCD	0xa00015
	;Flags[SingleProEpi] functionLength[20] RegF[0] RegI[0] H[0] frameChainReturn[UnChainedSavedLR] frameSize[16]
|$pdata$AuSleepThread| DCD imagerel |$LN3|
	DCD	0x120004d
	;Flags[SingleProEpi] functionLength[76] RegF[0] RegI[0] H[0] frameChainReturn[UnChainedSavedLR] frameSize[32]
|$pdata$AuThreadFindByID| DCD imagerel |$LN7|
	DCD	0x80006d
	;Flags[SingleProEpi] functionLength[108] RegF[0] RegI[0] H[0] frameChainReturn[UnChained] frameSize[16]
|$pdata$AuThreadFindByIDBlockList| DCD imagerel |$LN7|
	DCD	0x80006d
	;Flags[SingleProEpi] functionLength[108] RegF[0] RegI[0] H[0] frameChainReturn[UnChained] frameSize[16]
|$pdata$AuThreadMoveToTrash| DCD imagerel |$LN12|
	DCD	0x1a000e1
	;Flags[SingleProEpi] functionLength[224] RegF[0] RegI[0] H[0] frameChainReturn[UnChainedSavedLR] frameSize[48]
|$pdata$AuThreadCleanTrash| DCD imagerel |$LN3|
	DCD	0x1200021
	;Flags[SingleProEpi] functionLength[32] RegF[0] RegI[0] H[0] frameChainReturn[UnChainedSavedLR] frameSize[32]
|$pdata$AuCreateSubKernelStack| DCD imagerel |$LN7|
	DCD	0x22100fd
	;Flags[SingleProEpi] functionLength[252] RegF[0] RegI[1] H[0] frameChainReturn[UnChainedSavedLR] frameSize[64]
|$pdata$AuThreadInsert| DCD imagerel |$LN5|
	DCD	0x800091
	;Flags[SingleProEpi] functionLength[144] RegF[0] RegI[0] H[0] frameChainReturn[UnChained] frameSize[16]
|$pdata$AuThreadDelete| DCD imagerel |$LN8|
	DCD	0x8000c1
	;Flags[SingleProEpi] functionLength[192] RegF[0] RegI[0] H[0] frameChainReturn[UnChained] frameSize[16]
|$pdata$AuThreadInsertBlock| DCD imagerel |$LN5|
	DCD	0x800091
	;Flags[SingleProEpi] functionLength[144] RegF[0] RegI[0] H[0] frameChainReturn[UnChained] frameSize[16]
|$pdata$AuThreadDeleteBlock| DCD imagerel |$LN8|
	DCD	0x8000c1
	;Flags[SingleProEpi] functionLength[192] RegF[0] RegI[0] H[0] frameChainReturn[UnChained] frameSize[16]
|$pdata$AuThreadInsertTrash| DCD imagerel |$LN5|
	DCD	0x800091
	;Flags[SingleProEpi] functionLength[144] RegF[0] RegI[0] H[0] frameChainReturn[UnChained] frameSize[16]
|$pdata$AuThreadDeleteTrash| DCD imagerel |$LN8|
	DCD	0x8000c1
	;Flags[SingleProEpi] functionLength[192] RegF[0] RegI[0] H[0] frameChainReturn[UnChained] frameSize[16]
|$pdata$AuThreadInsertSleep| DCD imagerel |$LN5|
	DCD	0x800091
	;Flags[SingleProEpi] functionLength[144] RegF[0] RegI[0] H[0] frameChainReturn[UnChained] frameSize[16]
|$pdata$AuThreadDeleteSleep| DCD imagerel |$LN8|
	DCD	0x8000c1
	;Flags[SingleProEpi] functionLength[192] RegF[0] RegI[0] H[0] frameChainReturn[UnChained] frameSize[16]
|$pdata$AA64NextThread| DCD imagerel |$LN10|
	DCD	0x8000c5
	;Flags[SingleProEpi] functionLength[196] RegF[0] RegI[0] H[0] frameChainReturn[UnChained] frameSize[16]
|$pdata$PrintThreadInfo| DCD imagerel |$LN3|
	DCD	0x1200069
	;Flags[SingleProEpi] functionLength[104] RegF[0] RegI[0] H[0] frameChainReturn[UnChainedSavedLR] frameSize[32]
|$pdata$AuIdleThread| DCD imagerel |$LN5|
	DCD	0x1200079
	;Flags[SingleProEpi] functionLength[120] RegF[0] RegI[0] H[0] frameChainReturn[UnChainedSavedLR] frameSize[32]
|$pdata$AuResumeUserThread| DCD imagerel |$LN5|
	DCD	0x120005d
	;Flags[SingleProEpi] functionLength[92] RegF[0] RegI[0] H[0] frameChainReturn[UnChainedSavedLR] frameSize[32]
|$pdata$AuHandleSleepThreads| DCD imagerel |$LN7|
	DCD	0x1200095
	;Flags[SingleProEpi] functionLength[148] RegF[0] RegI[0] H[0] frameChainReturn[UnChainedSavedLR] frameSize[32]
|$pdata$PrintThrIn| DCD imagerel |$LN4|
	DCD	0xa0002d
	;Flags[SingleProEpi] functionLength[44] RegF[0] RegI[0] H[0] frameChainReturn[UnChainedSavedLR] frameSize[16]
|$pdata$AuThreadSafeReturn| DCD imagerel |$LN5|
	DCD	0x1200075
	;Flags[SingleProEpi] functionLength[116] RegF[0] RegI[0] H[0] frameChainReturn[UnChainedSavedLR] frameSize[32]
|$pdata$AuPrintStack| DCD imagerel |$LN3|
	DCD	0x1200029
	;Flags[SingleProEpi] functionLength[40] RegF[0] RegI[0] H[0] frameChainReturn[UnChainedSavedLR] frameSize[32]
|$pdata$AuSetIdleThread| DCD imagerel |$LN3|
	DCD	0x80001d
	;Flags[SingleProEpi] functionLength[28] RegF[0] RegI[0] H[0] frameChainReturn[UnChained] frameSize[16]

	AREA	|.data|, DATA
|$SG3607| DCB	"Saving thread : spsr %x ", 0xd, 0xa, 0x0
	%	5
|$SG3608| DCB	"ELR_EL1 : %x ", 0xd, 0xa, 0x0
|$SG3609| DCB	"SP : %x ", 0xd, 0xa, 0x0
	%	5
|$SG3617| DCB	"Idle thread running ", 0xd, 0xa, 0x0
	%	1
|$SG3618| DCB	"Starting up Xeneva please wait...", 0xd, 0xa, 0x0
	%	4
|$SG3619| DCB	"Current sp sel : %d ", 0xd, 0xa, 0x0
	%	1
|$SG3620| DCB	"IDLE CurrentEl : %d ", 0xa, 0x0
	%	2
|$SG3646| DCB	"Till here ", 0xd, 0xa, 0x0
	%	3
|$SG3654| DCB	"Inside thread safe return ", 0xd, 0xa, 0x0
	%	3
|$SG3655| DCB	"Executing the first time sex again %s", 0xd, 0xa, 0x0
|$SG3656| DCB	"Current EL : %d ", 0xd, 0xa, 0x0
	%	5
|$SG3661| DCB	"storing sp : %x ", 0xd, 0xa, 0x0
	%	5
|$SG3687| DCB	"Creating kernel stack : %x %d", 0xd, 0xa, 0x0
|$SG3701| DCB	"Creating Sub kernel stack : %d, %x ", 0xd, 0xa, 0x0
	%	2
|$SG3705| DCB	"Idle", 0x0
; Function compile flags: /Odtpy
; File C:\Users\paras\source\repos\grep-name\XenevaOS\KernelAA64\Hal\sched.c

	AREA	|.text$mn|, CODE, ARM64

|AuSetIdleThread| PROC

; 705  : void AuSetIdleThread(AA64Thread* thr) {

|$LN3|
	sub         sp,sp,#0x10
	str         x0,[sp]

; 706  : 	_idle_thr = thr;

	adrp        x9,_idle_thr
	ldr         x8,[sp]
	str         x8,[x9,PageOffset(_idle_thr)]
	add         sp,sp,#0x10
	ret

	ENDP  ; |AuSetIdleThread|

; Function compile flags: /Odtpy
; File C:\Users\paras\source\repos\grep-name\XenevaOS\KernelAA64\Hal\sched.c

	AREA	|.text$mn|, CODE, ARM64

|AuPrintStack| PROC

; 417  : extern void AuPrintStack(uint64_t st) {

|$LN3|
	str         lr,[sp,#-0x10]!
	sub         sp,sp,#0x10
	str         x0,[sp]

; 418  : 	UARTDebugOut("storing sp : %x \r\n", st);

	ldr         x1,[sp]
	adrp        x8,|$SG3661|
	add         x0,x8,PageOffset(|$SG3661|)
	bl          UARTDebugOut
	add         sp,sp,#0x10
	ldr         lr,[sp],#0x10
	ret

	ENDP  ; |AuPrintStack|

; Function compile flags: /Odtpy
; File C:\Users\paras\source\repos\grep-name\XenevaOS\KernelAA64\Hal\sched.c

	AREA	|.text$mn|, CODE, ARM64

|AuThreadSafeReturn| PROC

; 407  : void AuThreadSafeReturn(uint64_t rcx) {

|$LN5|
	str         lr,[sp,#-0x10]!
	sub         sp,sp,#0x10
	str         x0,[sp,#8]

; 408  : 	UARTDebugOut("Inside thread safe return \r\n");

	adrp        x8,|$SG3654|
	add         x0,x8,PageOffset(|$SG3654|)
	bl          UARTDebugOut

; 409  : 	mask_irqs();

	bl          mask_irqs

; 410  : 	AA64Thread* thr = current_thread;

	adrp        x8,current_thread
	ldr         x8,[x8,PageOffset(current_thread)]
	str         x8,[sp]

; 411  : 	UARTDebugOut("Executing the first time sex again %s\r\n", thr->name);

	ldr         x8,[sp]
	add         x1,x8,#0xD0
	adrp        x8,|$SG3655|
	add         x0,x8,PageOffset(|$SG3655|)
	bl          UARTDebugOut

; 412  : 	UARTDebugOut("Current EL : %d \r\n", _getCurrentEL());

	bl          _getCurrentEL
	mov         x1,x0
	adrp        x8,|$SG3656|
	add         x0,x8,PageOffset(|$SG3656|)
	bl          UARTDebugOut

; 413  : 	first_time_sex(thr);

	ldr         x0,[sp]
	bl          first_time_sex
|$LN2@AuThreadSa|

; 414  : 	while (1) {}

	mov         w8,#1
	cmp         w8,#0
	beq         |$LN3@AuThreadSa|
	b           |$LN2@AuThreadSa|
|$LN3@AuThreadSa|
	add         sp,sp,#0x10
	ldr         lr,[sp],#0x10
	ret

	ENDP  ; |AuThreadSafeReturn|

; Function compile flags: /Odtpy
; File C:\Users\paras\source\repos\grep-name\XenevaOS\KernelAA64\Hal\sched.c

	AREA	|.text$mn|, CODE, ARM64

|PrintThrIn| PROC

; 401  : void PrintThrIn() {

|$LN4|
	str         lr,[sp,#-0x10]!

; 402  : 	if (debug) {

	adrp        x8,debug
	ldrb        w8,[x8,PageOffset(debug)]
	mov         w8,w8
	cmp         w8,#0
	beq         |$LN2@PrintThrIn|

; 403  : 		UARTDebugOut("Till here \r\n");

	adrp        x8,|$SG3646|
	add         x0,x8,PageOffset(|$SG3646|)
	bl          UARTDebugOut
|$LN2@PrintThrIn|
	ldr         lr,[sp],#0x10
	ret

	ENDP  ; |PrintThrIn|

; Function compile flags: /Odtpy
; File C:\Users\paras\source\repos\grep-name\XenevaOS\KernelAA64\Hal\sched.c

	AREA	|.text$mn|, CODE, ARM64

|AuHandleSleepThreads| PROC

; 386  : void AuHandleSleepThreads() {

|$LN7|
	str         lr,[sp,#-0x10]!
	sub         sp,sp,#0x10

; 387  : 	AA64Thread* sleep_thr;
; 388  : 	for (sleep_thr = sleep_thr_head; sleep_thr != NULL; sleep_thr = sleep_thr->next) {

	adrp        x8,sleep_thr_head
	ldr         x8,[x8,PageOffset(sleep_thr_head)]
	str         x8,[sp]
	b           |$LN4@AuHandleSl|
|$LN2@AuHandleSl|
	ldr         x8,[sp]
	add         x8,x8,#0x338
	ldr         x8,[x8]
	str         x8,[sp]
|$LN4@AuHandleSl|
	ldr         x8,[sp]
	cmp         x8,#0
	beq         |$LN3@AuHandleSl|

; 389  : 		sleep_thr->sleepQuanta--;

	ldr         x8,[sp]
	add         x8,x8,#0xF8
	ldr         x8,[x8]
	sub         x9,x8,#1
	ldr         x8,[sp]
	add         x8,x8,#0xF8
	str         x9,[x8]

; 390  : 		if (sleep_thr->sleepQuanta == 0){

	ldr         x8,[sp]
	add         x8,x8,#0xF8
	ldr         x8,[x8]
	cmp         x8,#0
	bne         |$LN5@AuHandleSl|

; 391  : 			//settimerdebug();
; 392  : 			sleep_thr->state = THREAD_STATE_READY;

	ldr         x8,[sp]
	add         x9,x8,#0xC0
	mov         w8,#1
	strb        w8,[x9]

; 393  : 			AuThreadDeleteSleep(sleep_thr);

	ldr         x0,[sp]
	bl          AuThreadDeleteSleep

; 394  : 			AuThreadInsert(sleep_thr);

	ldr         x0,[sp]
	bl          AuThreadInsert
|$LN5@AuHandleSl|

; 395  : 		}
; 396  : 		
; 397  : 	}

	b           |$LN2@AuHandleSl|
|$LN3@AuHandleSl|
	add         sp,sp,#0x10
	ldr         lr,[sp],#0x10
	ret

	ENDP  ; |AuHandleSleepThreads|

; Function compile flags: /Odtpy
; File C:\Users\paras\source\repos\grep-name\XenevaOS\KernelAA64\Hal\sched.c

	AREA	|.text$mn|, CODE, ARM64

|enscheddebug| PROC

; 382  : 	debug = 1;

	adrp        x9,debug
	mov         w8,#1
	strb        w8,[x9,PageOffset(debug)]
	ret

	ENDP  ; |enscheddebug|

; Function compile flags: /Odtpy
; File C:\Users\paras\source\repos\grep-name\XenevaOS\KernelAA64\Hal\sched.c

	AREA	|.text$mn|, CODE, ARM64

|AuResumeUserThread| PROC

; 367  : void AuResumeUserThread() {

|$LN5|
	str         lr,[sp,#-0x10]!
	sub         sp,sp,#0x10

; 368  : 	AA64Thread* thr = current_thread;

	adrp        x8,current_thread
	ldr         x8,[x8,PageOffset(current_thread)]
	str         x8,[sp]

; 369  : 	thr->x30 = thr->elr_el1;

	ldr         x8,[sp]
	add         x10,x8,#0x68
	ldr         x8,[sp]
	add         x9,x8,#0x58
	ldr         x8,[x10]
	str         x8,[x9]

; 370  : 	resume_user(thr, thr->sp);

	ldr         x8,[sp]
	add         x8,x8,#0x60
	ldr         x1,[x8]
	ldr         x0,[sp]
	bl          resume_user
|$LN2@AuResumeUs|

; 371  : 	//aa64_enter_user(thr->sp, thr->elr_el1);
; 372  : 	while (1) {}

	mov         w8,#1
	cmp         w8,#0
	beq         |$LN3@AuResumeUs|
	b           |$LN2@AuResumeUs|
|$LN3@AuResumeUs|
	add         sp,sp,#0x10
	ldr         lr,[sp],#0x10
	ret

	ENDP  ; |AuResumeUserThread|

; Function compile flags: /Odtpy
; File C:\Users\paras\source\repos\grep-name\XenevaOS\KernelAA64\Hal\sched.c

	AREA	|.text$mn|, CODE, ARM64

|AuIdleThread| PROC

; 349  : void AuIdleThread(uint64_t ctx) {

|$LN5|
	str         lr,[sp,#-0x10]!
	sub         sp,sp,#0x10
	str         x0,[sp,#8]

; 350  : 	mask_irqs();

	bl          mask_irqs

; 351  : 	UARTDebugOut("Idle thread running \r\n");

	adrp        x8,|$SG3617|
	add         x0,x8,PageOffset(|$SG3617|)
	bl          UARTDebugOut

; 352  : 	AuTextOut("Starting up Xeneva please wait...\r\n");

	adrp        x8,|$SG3618|
	add         x0,x8,PageOffset(|$SG3618|)
	bl          AuTextOut

; 353  : 	//uint64_t sp = read_sp();
; 354  : 	//UARTDebugOut("SP : %x \r\n", sp);
; 355  : 	UARTDebugOut("Current sp sel : %d \r\n", read_spsel());

	bl          read_spsel
	mov         x1,x0
	adrp        x8,|$SG3619|
	add         x0,x8,PageOffset(|$SG3619|)
	bl          UARTDebugOut

; 356  : 	uint64_t el = _getCurrentEL();

	bl          _getCurrentEL
	str         x0,[sp]

; 357  : 	UARTDebugOut("IDLE CurrentEl : %d \n", el);

	ldr         x1,[sp]
	adrp        x8,|$SG3620|
	add         x0,x8,PageOffset(|$SG3620|)
	bl          UARTDebugOut

; 358  : 	enable_irqs();

	bl          enable_irqs
|$LN2@AuIdleThre|

; 359  : 	while (1) {

	mov         w8,#1
	cmp         w8,#0
	beq         |$LN3@AuIdleThre|

; 360  : 		enable_irqs();

	bl          enable_irqs

; 361  : 		//
; 362  : 		//UARTDebugOut("IDLE \r\n");
; 363  : 	}

	b           |$LN2@AuIdleThre|
|$LN3@AuIdleThre|
	add         sp,sp,#0x10
	ldr         lr,[sp],#0x10
	ret

	ENDP  ; |AuIdleThread|

; Function compile flags: /Odtpy
; File C:\Users\paras\source\repos\grep-name\XenevaOS\KernelAA64\Hal\sched.c

	AREA	|.text$mn|, CODE, ARM64

|PrintThreadInfo| PROC

; 342  : extern void PrintThreadInfo() {

|$LN3|
	str         lr,[sp,#-0x10]!
	sub         sp,sp,#0x10

; 343  : 	AA64Thread* thr = current_thread;

	adrp        x8,current_thread
	ldr         x8,[x8,PageOffset(current_thread)]
	str         x8,[sp]

; 344  : 	UARTDebugOut("Saving thread : spsr %x \r\n", thr->spsr_el1);

	ldr         x8,[sp]
	add         x8,x8,#0x70
	ldr         x1,[x8]
	adrp        x8,|$SG3607|
	add         x0,x8,PageOffset(|$SG3607|)
	bl          UARTDebugOut

; 345  : 	UARTDebugOut("ELR_EL1 : %x \r\n", thr->elr_el1);

	ldr         x8,[sp]
	add         x8,x8,#0x68
	ldr         x1,[x8]
	adrp        x8,|$SG3608|
	add         x0,x8,PageOffset(|$SG3608|)
	bl          UARTDebugOut

; 346  : 	UARTDebugOut("SP : %x \r\n", thr->sp);

	ldr         x8,[sp]
	add         x8,x8,#0x60
	ldr         x1,[x8]
	adrp        x8,|$SG3609|
	add         x0,x8,PageOffset(|$SG3609|)
	bl          UARTDebugOut
	add         sp,sp,#0x10
	ldr         lr,[sp],#0x10
	ret

	ENDP  ; |PrintThreadInfo|

; Function compile flags: /Odtpy
; File C:\Users\paras\source\repos\grep-name\XenevaOS\KernelAA64\Hal\sched.c

	AREA	|.text$mn|, CODE, ARM64

|AA64NextThread| PROC

; 255  : void AA64NextThread() {

|$LN10|
	sub         sp,sp,#0x10

; 256  : 	AA64Thread* thread = current_thread;

	adrp        x8,current_thread
	ldr         x8,[x8,PageOffset(current_thread)]
	str         x8,[sp,#8]

; 257  : 	bool _run_idle = false;

	mov         w8,#0
	strb        w8,[sp]
|$LN4@AA64NextTh|
|$run$11|

; 258  : run:
; 259  : 	do {
; 260  : 		thread = thread->next;

	ldr         x8,[sp,#8]
	add         x8,x8,#0x338
	ldr         x8,[x8]
	str         x8,[sp,#8]

; 261  : 		
; 262  : 		if (!thread) {

	ldr         x8,[sp,#8]
	cmp         x8,#0
	bne         |$LN5@AA64NextTh|

; 263  : 			thread = thread_list_head;

	adrp        x8,thread_list_head
	ldr         x8,[x8,PageOffset(thread_list_head)]
	str         x8,[sp,#8]
|$LN5@AA64NextTh|

; 264  : 		}
; 265  : 	
; 266  : 		if (thread == _idle_thr) {

	adrp        x8,_idle_thr
	ldr         x9,[x8,PageOffset(_idle_thr)]
	ldr         x8,[sp,#8]
	cmp         x8,x9
	bne         |$LN6@AA64NextTh|

; 267  : 			thread = thread->next;

	ldr         x8,[sp,#8]
	add         x8,x8,#0x338
	ldr         x8,[x8]
	str         x8,[sp,#8]
|$LN6@AA64NextTh|

; 268  : 		}
; 269  : 
; 270  : 		if (!thread) {

	ldr         x8,[sp,#8]
	cmp         x8,#0
	bne         |$LN7@AA64NextTh|

; 271  : 			_run_idle = true;

	mov         w8,#1
	strb        w8,[sp]

; 272  : 			break;

	b           |$LN3@AA64NextTh|
|$LN7@AA64NextTh|

; 273  : 		}
; 274  : 	} while (thread->state != THREAD_STATE_READY);

	ldr         x8,[sp,#8]
	add         x8,x8,#0xC0
	ldrb        w8,[x8]
	mov         w8,w8
	cmp         w8,#1
	bne         |$LN4@AA64NextTh|
|$LN3@AA64NextTh|
|$end$12|

; 275  : end:
; 276  : 	if (_run_idle)

	ldrb        w8,[sp]
	mov         w8,w8
	cmp         w8,#0
	beq         |$LN8@AA64NextTh|

; 277  : 		thread = _idle_thr;

	adrp        x8,_idle_thr
	ldr         x8,[x8,PageOffset(_idle_thr)]
	str         x8,[sp,#8]
|$LN8@AA64NextTh|

; 278  : 
; 279  : 	current_thread = thread;

	adrp        x9,current_thread
	ldr         x8,[sp,#8]
	str         x8,[x9,PageOffset(current_thread)]
	add         sp,sp,#0x10
	ret

	ENDP  ; |AA64NextThread|

; Function compile flags: /Odtpy
; File C:\Users\paras\source\repos\grep-name\XenevaOS\KernelAA64\Hal\sched.c

	AREA	|.text$mn|, CODE, ARM64

|AuThreadDeleteSleep| PROC

; 235  : void AuThreadDeleteSleep(AA64Thread* thread) {

|$LN8|
	sub         sp,sp,#0x10
	str         x0,[sp]

; 236  : 
; 237  : 	if (sleep_thr_head == NULL)

	adrp        x8,sleep_thr_head
	ldr         x8,[x8,PageOffset(sleep_thr_head)]
	cmp         x8,#0
	bne         |$LN2@AuThreadDe|

; 238  : 		return;

	b           |$LN1@AuThreadDe|
|$LN2@AuThreadDe|

; 239  : 
; 240  : 	if (thread == sleep_thr_head) {

	adrp        x8,sleep_thr_head
	ldr         x9,[x8,PageOffset(sleep_thr_head)]
	ldr         x8,[sp]
	cmp         x8,x9
	bne         |$LN3@AuThreadDe|

; 241  : 		sleep_thr_head = sleep_thr_head->next;

	adrp        x8,sleep_thr_head
	ldr         x8,[x8,PageOffset(sleep_thr_head)]
	add         x8,x8,#0x338
	adrp        x9,sleep_thr_head
	ldr         x8,[x8]
	str         x8,[x9,PageOffset(sleep_thr_head)]

; 242  : 	}

	b           |$LN4@AuThreadDe|
|$LN3@AuThreadDe|

; 243  : 	else {
; 244  : 		thread->prev->next = thread->next;

	ldr         x8,[sp]
	add         x10,x8,#0x338
	ldr         x8,[sp]
	add         x8,x8,#0x340
	ldr         x8,[x8]
	add         x9,x8,#0x338
	ldr         x8,[x10]
	str         x8,[x9]
|$LN4@AuThreadDe|

; 245  : 	}
; 246  : 
; 247  : 	if (thread == sleep_thr_last) {

	adrp        x8,sleep_thr_last
	ldr         x9,[x8,PageOffset(sleep_thr_last)]
	ldr         x8,[sp]
	cmp         x8,x9
	bne         |$LN5@AuThreadDe|

; 248  : 		sleep_thr_last = thread->prev;

	ldr         x8,[sp]
	add         x8,x8,#0x340
	adrp        x9,sleep_thr_last
	ldr         x8,[x8]
	str         x8,[x9,PageOffset(sleep_thr_last)]

; 249  : 	}

	b           |$LN6@AuThreadDe|
|$LN5@AuThreadDe|

; 250  : 	else {
; 251  : 		thread->next->prev = thread->prev;

	ldr         x8,[sp]
	add         x10,x8,#0x340
	ldr         x8,[sp]
	add         x8,x8,#0x338
	ldr         x8,[x8]
	add         x9,x8,#0x340
	ldr         x8,[x10]
	str         x8,[x9]
|$LN6@AuThreadDe|
|$LN1@AuThreadDe|
	add         sp,sp,#0x10
	ret

	ENDP  ; |AuThreadDeleteSleep|

; Function compile flags: /Odtpy
; File C:\Users\paras\source\repos\grep-name\XenevaOS\KernelAA64\Hal\sched.c

	AREA	|.text$mn|, CODE, ARM64

|AuThreadInsertSleep| PROC

; 216  : void AuThreadInsertSleep(AA64Thread* new_task) {

|$LN5|
	sub         sp,sp,#0x10
	str         x0,[sp]

; 217  : 	new_task->next = NULL;

	ldr         x8,[sp]
	add         x9,x8,#0x338
	mov         x8,#0
	str         x8,[x9]

; 218  : 	new_task->prev = NULL;

	ldr         x8,[sp]
	add         x9,x8,#0x340
	mov         x8,#0
	str         x8,[x9]

; 219  : 
; 220  : 	if (sleep_thr_head == NULL) {

	adrp        x8,sleep_thr_head
	ldr         x8,[x8,PageOffset(sleep_thr_head)]
	cmp         x8,#0
	bne         |$LN2@AuThreadIn|

; 221  : 		sleep_thr_last = new_task;

	adrp        x9,sleep_thr_last
	ldr         x8,[sp]
	str         x8,[x9,PageOffset(sleep_thr_last)]

; 222  : 		sleep_thr_head = new_task;

	adrp        x9,sleep_thr_head
	ldr         x8,[sp]
	str         x8,[x9,PageOffset(sleep_thr_head)]

; 223  : 	}

	b           |$LN3@AuThreadIn|
|$LN2@AuThreadIn|

; 224  : 	else {
; 225  : 		sleep_thr_last->next = new_task;

	adrp        x8,sleep_thr_last
	ldr         x8,[x8,PageOffset(sleep_thr_last)]
	add         x9,x8,#0x338
	ldr         x8,[sp]
	str         x8,[x9]

; 226  : 		new_task->prev = sleep_thr_last;

	ldr         x8,[sp]
	add         x9,x8,#0x340
	adrp        x8,sleep_thr_last
	ldr         x8,[x8,PageOffset(sleep_thr_last)]
	str         x8,[x9]
|$LN3@AuThreadIn|

; 227  : 	}
; 228  : 	sleep_thr_last = new_task;

	adrp        x9,sleep_thr_last
	ldr         x8,[sp]
	str         x8,[x9,PageOffset(sleep_thr_last)]
	add         sp,sp,#0x10
	ret

	ENDP  ; |AuThreadInsertSleep|

; Function compile flags: /Odtpy
; File C:\Users\paras\source\repos\grep-name\XenevaOS\KernelAA64\Hal\sched.c

	AREA	|.text$mn|, CODE, ARM64

|AuThreadDeleteTrash| PROC

; 191  : void AuThreadDeleteTrash(AA64Thread* thread) {

|$LN8|
	sub         sp,sp,#0x10
	str         x0,[sp]

; 192  : 
; 193  : 	if (trash_thr_head == NULL)

	adrp        x8,trash_thr_head
	ldr         x8,[x8,PageOffset(trash_thr_head)]
	cmp         x8,#0
	bne         |$LN2@AuThreadDe|

; 194  : 		return;

	b           |$LN1@AuThreadDe|
|$LN2@AuThreadDe|

; 195  : 
; 196  : 	if (thread == trash_thr_head) {

	adrp        x8,trash_thr_head
	ldr         x9,[x8,PageOffset(trash_thr_head)]
	ldr         x8,[sp]
	cmp         x8,x9
	bne         |$LN3@AuThreadDe|

; 197  : 		trash_thr_head = trash_thr_head->next;

	adrp        x8,trash_thr_head
	ldr         x8,[x8,PageOffset(trash_thr_head)]
	add         x8,x8,#0x338
	adrp        x9,trash_thr_head
	ldr         x8,[x8]
	str         x8,[x9,PageOffset(trash_thr_head)]

; 198  : 	}

	b           |$LN4@AuThreadDe|
|$LN3@AuThreadDe|

; 199  : 	else {
; 200  : 		thread->prev->next = thread->next;

	ldr         x8,[sp]
	add         x10,x8,#0x338
	ldr         x8,[sp]
	add         x8,x8,#0x340
	ldr         x8,[x8]
	add         x9,x8,#0x338
	ldr         x8,[x10]
	str         x8,[x9]
|$LN4@AuThreadDe|

; 201  : 	}
; 202  : 
; 203  : 	if (thread == trash_thr_last) {

	adrp        x8,trash_thr_last
	ldr         x9,[x8,PageOffset(trash_thr_last)]
	ldr         x8,[sp]
	cmp         x8,x9
	bne         |$LN5@AuThreadDe|

; 204  : 		trash_thr_last = thread->prev;

	ldr         x8,[sp]
	add         x8,x8,#0x340
	adrp        x9,trash_thr_last
	ldr         x8,[x8]
	str         x8,[x9,PageOffset(trash_thr_last)]

; 205  : 	}

	b           |$LN6@AuThreadDe|
|$LN5@AuThreadDe|

; 206  : 	else {
; 207  : 		thread->next->prev = thread->prev;

	ldr         x8,[sp]
	add         x10,x8,#0x340
	ldr         x8,[sp]
	add         x8,x8,#0x338
	ldr         x8,[x8]
	add         x9,x8,#0x340
	ldr         x8,[x10]
	str         x8,[x9]
|$LN6@AuThreadDe|
|$LN1@AuThreadDe|
	add         sp,sp,#0x10
	ret

	ENDP  ; |AuThreadDeleteTrash|

; Function compile flags: /Odtpy
; File C:\Users\paras\source\repos\grep-name\XenevaOS\KernelAA64\Hal\sched.c

	AREA	|.text$mn|, CODE, ARM64

|AuThreadInsertTrash| PROC

; 172  : void AuThreadInsertTrash(AA64Thread* new_task) {

|$LN5|
	sub         sp,sp,#0x10
	str         x0,[sp]

; 173  : 	new_task->next = NULL;

	ldr         x8,[sp]
	add         x9,x8,#0x338
	mov         x8,#0
	str         x8,[x9]

; 174  : 	new_task->prev = NULL;

	ldr         x8,[sp]
	add         x9,x8,#0x340
	mov         x8,#0
	str         x8,[x9]

; 175  : 
; 176  : 	if (trash_thr_head == NULL) {

	adrp        x8,trash_thr_head
	ldr         x8,[x8,PageOffset(trash_thr_head)]
	cmp         x8,#0
	bne         |$LN2@AuThreadIn|

; 177  : 		trash_thr_last = new_task;

	adrp        x9,trash_thr_last
	ldr         x8,[sp]
	str         x8,[x9,PageOffset(trash_thr_last)]

; 178  : 		trash_thr_head = new_task;

	adrp        x9,trash_thr_head
	ldr         x8,[sp]
	str         x8,[x9,PageOffset(trash_thr_head)]

; 179  : 	}

	b           |$LN3@AuThreadIn|
|$LN2@AuThreadIn|

; 180  : 	else {
; 181  : 		trash_thr_last->next = new_task;

	adrp        x8,trash_thr_last
	ldr         x8,[x8,PageOffset(trash_thr_last)]
	add         x9,x8,#0x338
	ldr         x8,[sp]
	str         x8,[x9]

; 182  : 		new_task->prev = trash_thr_last;

	ldr         x8,[sp]
	add         x9,x8,#0x340
	adrp        x8,trash_thr_last
	ldr         x8,[x8,PageOffset(trash_thr_last)]
	str         x8,[x9]
|$LN3@AuThreadIn|

; 183  : 	}
; 184  : 	trash_thr_last = new_task;

	adrp        x9,trash_thr_last
	ldr         x8,[sp]
	str         x8,[x9,PageOffset(trash_thr_last)]
	add         sp,sp,#0x10
	ret

	ENDP  ; |AuThreadInsertTrash|

; Function compile flags: /Odtpy
; File C:\Users\paras\source\repos\grep-name\XenevaOS\KernelAA64\Hal\sched.c

	AREA	|.text$mn|, CODE, ARM64

|AuThreadDeleteBlock| PROC

; 148  : void AuThreadDeleteBlock(AA64Thread* thread) {

|$LN8|
	sub         sp,sp,#0x10
	str         x0,[sp]

; 149  : 
; 150  : 	if (blocked_thr_head == NULL)

	adrp        x8,blocked_thr_head
	ldr         x8,[x8,PageOffset(blocked_thr_head)]
	cmp         x8,#0
	bne         |$LN2@AuThreadDe|

; 151  : 		return;

	b           |$LN1@AuThreadDe|
|$LN2@AuThreadDe|

; 152  : 
; 153  : 	if (thread == blocked_thr_head) {

	adrp        x8,blocked_thr_head
	ldr         x9,[x8,PageOffset(blocked_thr_head)]
	ldr         x8,[sp]
	cmp         x8,x9
	bne         |$LN3@AuThreadDe|

; 154  : 		blocked_thr_head = blocked_thr_head->next;

	adrp        x8,blocked_thr_head
	ldr         x8,[x8,PageOffset(blocked_thr_head)]
	add         x8,x8,#0x338
	adrp        x9,blocked_thr_head
	ldr         x8,[x8]
	str         x8,[x9,PageOffset(blocked_thr_head)]

; 155  : 	}

	b           |$LN4@AuThreadDe|
|$LN3@AuThreadDe|

; 156  : 	else {
; 157  : 		thread->prev->next = thread->next;

	ldr         x8,[sp]
	add         x10,x8,#0x338
	ldr         x8,[sp]
	add         x8,x8,#0x340
	ldr         x8,[x8]
	add         x9,x8,#0x338
	ldr         x8,[x10]
	str         x8,[x9]
|$LN4@AuThreadDe|

; 158  : 	}
; 159  : 
; 160  : 	if (thread == blocked_thr_last) {

	adrp        x8,blocked_thr_last
	ldr         x9,[x8,PageOffset(blocked_thr_last)]
	ldr         x8,[sp]
	cmp         x8,x9
	bne         |$LN5@AuThreadDe|

; 161  : 		blocked_thr_last = thread->prev;

	ldr         x8,[sp]
	add         x8,x8,#0x340
	adrp        x9,blocked_thr_last
	ldr         x8,[x8]
	str         x8,[x9,PageOffset(blocked_thr_last)]

; 162  : 	}

	b           |$LN6@AuThreadDe|
|$LN5@AuThreadDe|

; 163  : 	else {
; 164  : 		thread->next->prev = thread->prev;

	ldr         x8,[sp]
	add         x10,x8,#0x340
	ldr         x8,[sp]
	add         x8,x8,#0x338
	ldr         x8,[x8]
	add         x9,x8,#0x340
	ldr         x8,[x10]
	str         x8,[x9]
|$LN6@AuThreadDe|
|$LN1@AuThreadDe|
	add         sp,sp,#0x10
	ret

	ENDP  ; |AuThreadDeleteBlock|

; Function compile flags: /Odtpy
; File C:\Users\paras\source\repos\grep-name\XenevaOS\KernelAA64\Hal\sched.c

	AREA	|.text$mn|, CODE, ARM64

|AuThreadInsertBlock| PROC

; 127  : void AuThreadInsertBlock(AA64Thread* new_task) {

|$LN5|
	sub         sp,sp,#0x10
	str         x0,[sp]

; 128  : 	new_task->next = NULL;

	ldr         x8,[sp]
	add         x9,x8,#0x338
	mov         x8,#0
	str         x8,[x9]

; 129  : 	new_task->prev = NULL;

	ldr         x8,[sp]
	add         x9,x8,#0x340
	mov         x8,#0
	str         x8,[x9]

; 130  : 
; 131  : 	if (blocked_thr_head == NULL) {

	adrp        x8,blocked_thr_head
	ldr         x8,[x8,PageOffset(blocked_thr_head)]
	cmp         x8,#0
	bne         |$LN2@AuThreadIn|

; 132  : 		blocked_thr_last = new_task;

	adrp        x9,blocked_thr_last
	ldr         x8,[sp]
	str         x8,[x9,PageOffset(blocked_thr_last)]

; 133  : 		blocked_thr_head = new_task;

	adrp        x9,blocked_thr_head
	ldr         x8,[sp]
	str         x8,[x9,PageOffset(blocked_thr_head)]

; 134  : 	}

	b           |$LN3@AuThreadIn|
|$LN2@AuThreadIn|

; 135  : 	else {
; 136  : 		blocked_thr_last->next = new_task;

	adrp        x8,blocked_thr_last
	ldr         x8,[x8,PageOffset(blocked_thr_last)]
	add         x9,x8,#0x338
	ldr         x8,[sp]
	str         x8,[x9]

; 137  : 		new_task->prev = blocked_thr_last;

	ldr         x8,[sp]
	add         x9,x8,#0x340
	adrp        x8,blocked_thr_last
	ldr         x8,[x8,PageOffset(blocked_thr_last)]
	str         x8,[x9]
|$LN3@AuThreadIn|

; 138  : 	}
; 139  : 	blocked_thr_last = new_task;

	adrp        x9,blocked_thr_last
	ldr         x8,[sp]
	str         x8,[x9,PageOffset(blocked_thr_last)]
	add         sp,sp,#0x10
	ret

	ENDP  ; |AuThreadInsertBlock|

; Function compile flags: /Odtpy
; File C:\Users\paras\source\repos\grep-name\XenevaOS\KernelAA64\Hal\sched.c

	AREA	|.text$mn|, CODE, ARM64

|AuThreadDelete| PROC

; 95   : void AuThreadDelete(AA64Thread* thread) {

|$LN8|
	sub         sp,sp,#0x10
	str         x0,[sp]

; 96   : 
; 97   : 	if (thread_list_head == NULL)

	adrp        x8,thread_list_head
	ldr         x8,[x8,PageOffset(thread_list_head)]
	cmp         x8,#0
	bne         |$LN2@AuThreadDe|

; 98   : 		return;

	b           |$LN1@AuThreadDe|
|$LN2@AuThreadDe|

; 99   : 
; 100  : 	if (thread == thread_list_head) {

	adrp        x8,thread_list_head
	ldr         x9,[x8,PageOffset(thread_list_head)]
	ldr         x8,[sp]
	cmp         x8,x9
	bne         |$LN3@AuThreadDe|

; 101  : 		thread_list_head = thread_list_head->next;

	adrp        x8,thread_list_head
	ldr         x8,[x8,PageOffset(thread_list_head)]
	add         x8,x8,#0x338
	adrp        x9,thread_list_head
	ldr         x8,[x8]
	str         x8,[x9,PageOffset(thread_list_head)]

; 102  : 	}

	b           |$LN4@AuThreadDe|
|$LN3@AuThreadDe|

; 103  : 	else {
; 104  : 		thread->prev->next = thread->next;

	ldr         x8,[sp]
	add         x10,x8,#0x338
	ldr         x8,[sp]
	add         x8,x8,#0x340
	ldr         x8,[x8]
	add         x9,x8,#0x338
	ldr         x8,[x10]
	str         x8,[x9]
|$LN4@AuThreadDe|

; 105  : 	}
; 106  : 
; 107  : 	if (thread == thread_list_last) {

	adrp        x8,thread_list_last
	ldr         x9,[x8,PageOffset(thread_list_last)]
	ldr         x8,[sp]
	cmp         x8,x9
	bne         |$LN5@AuThreadDe|

; 108  : 		thread_list_last = thread->prev;

	ldr         x8,[sp]
	add         x8,x8,#0x340
	adrp        x9,thread_list_last
	ldr         x8,[x8]
	str         x8,[x9,PageOffset(thread_list_last)]

; 109  : 	}

	b           |$LN6@AuThreadDe|
|$LN5@AuThreadDe|

; 110  : 	else {
; 111  : 		thread->next->prev = thread->prev;

	ldr         x8,[sp]
	add         x10,x8,#0x340
	ldr         x8,[sp]
	add         x8,x8,#0x338
	ldr         x8,[x8]
	add         x9,x8,#0x340
	ldr         x8,[x10]
	str         x8,[x9]
|$LN6@AuThreadDe|
|$LN1@AuThreadDe|
	add         sp,sp,#0x10
	ret

	ENDP  ; |AuThreadDelete|

; Function compile flags: /Odtpy
; File C:\Users\paras\source\repos\grep-name\XenevaOS\KernelAA64\Hal\sched.c

	AREA	|.text$mn|, CODE, ARM64

|AuThreadInsert| PROC

; 75   : void AuThreadInsert(AA64Thread* new_task) {

|$LN5|
	sub         sp,sp,#0x10
	str         x0,[sp]

; 76   : 	new_task->next = NULL;

	ldr         x8,[sp]
	add         x9,x8,#0x338
	mov         x8,#0
	str         x8,[x9]

; 77   : 	new_task->prev = NULL;

	ldr         x8,[sp]
	add         x9,x8,#0x340
	mov         x8,#0
	str         x8,[x9]

; 78   : 
; 79   : 	if (thread_list_head == NULL) {

	adrp        x8,thread_list_head
	ldr         x8,[x8,PageOffset(thread_list_head)]
	cmp         x8,#0
	bne         |$LN2@AuThreadIn|

; 80   : 		thread_list_last = new_task;

	adrp        x9,thread_list_last
	ldr         x8,[sp]
	str         x8,[x9,PageOffset(thread_list_last)]

; 81   : 		thread_list_head = new_task;

	adrp        x9,thread_list_head
	ldr         x8,[sp]
	str         x8,[x9,PageOffset(thread_list_head)]

; 82   : 	}

	b           |$LN3@AuThreadIn|
|$LN2@AuThreadIn|

; 83   : 	else {
; 84   : 		thread_list_last->next = new_task;

	adrp        x8,thread_list_last
	ldr         x8,[x8,PageOffset(thread_list_last)]
	add         x9,x8,#0x338
	ldr         x8,[sp]
	str         x8,[x9]

; 85   : 		new_task->prev = thread_list_last;

	ldr         x8,[sp]
	add         x9,x8,#0x340
	adrp        x8,thread_list_last
	ldr         x8,[x8,PageOffset(thread_list_last)]
	str         x8,[x9]
|$LN3@AuThreadIn|

; 86   : 	}
; 87   : 	thread_list_last = new_task;

	adrp        x9,thread_list_last
	ldr         x8,[sp]
	str         x8,[x9,PageOffset(thread_list_last)]
	add         sp,sp,#0x10
	ret

	ENDP  ; |AuThreadInsert|

; Function compile flags: /Odtpy
; File C:\Users\paras\source\repos\grep-name\XenevaOS\KernelAA64\Hal\sched.c

	AREA	|.text$mn|, CODE, ARM64

|AuCreateSubKernelStack| PROC

; 516  : uint64_t AuCreateSubKernelStack(AuProcess* proc, uint64_t* pml) {

|$LN7|
	sub         sp,sp,#0x10
	stp         x19,lr,[sp]
	sub         sp,sp,#0x30
	str         x0,[sp,#0x10]
	str         x1,[sp,#0x20]

; 517  : 	uint64_t location = KERNEL_STACK_LOCATION;

	ldr         x8,|$LN6@AuCreateSu|
	str         x8,[sp,#8]

; 518  : 	location += proc->_kstack_index_ * KERNEL_STACK_SIZE;

	ldr         x8,[sp,#0x10]
	add         x8,x8,#0x40
	ldr         x9,[x8]
	mov         x8,#0xA000
	mul         x9,x9,x8
	ldr         x8,[sp,#8]
	add         x8,x8,x9
	str         x8,[sp,#8]

; 519  : 	UARTDebugOut("Creating Sub kernel stack : %d, %x \r\n", proc->_kstack_index_, location);

	ldr         x8,[sp,#0x10]
	add         x8,x8,#0x40
	ldr         x2,[sp,#8]
	ldr         x1,[x8]
	adrp        x8,|$SG3701|
	add         x0,x8,PageOffset(|$SG3701|)
	bl          UARTDebugOut

; 520  : 	for (int i = 0; i < (KERNEL_STACK_SIZE) / 0x1000; i++) {

	mov         w8,#0
	str         w8,[sp]
	b           |$LN4@AuCreateSu|
|$LN2@AuCreateSu|
	ldr         w8,[sp]
	add         w8,w8,#1
	str         w8,[sp]
|$LN4@AuCreateSu|
	ldr         w8,[sp]
	cmp         w8,#0xA
	bge         |$LN3@AuCreateSu|

; 521  : 		uint64_t addr = (uint64_t)P2V((uint64_t)AuPmmngrAlloc());

	bl          AuPmmngrAlloc
	bl          P2V
	str         x0,[sp,#0x18]

; 522  : 		memset(addr, 0, PAGE_SIZE);

	mov         w2,#0x1000
	mov         w1,#0
	ldr         x0,[sp,#0x18]
	bl          memset

; 523  : 		AuMapPage(V2P(addr), (location + i * 4096), PTE_AP_RW | PTE_NORMAL_MEM);

	ldr         w9,[sp]
	mov         w8,#0x1000
	mul         w8,w9,w8
	sxtw        x9,w8
	ldr         x8,[sp,#8]
	add         x19,x8,x9
	ldr         x0,[sp,#0x18]
	bl          V2P
	mov         w2,#4
	mov         x1,x19
	bl          AuMapPage

; 524  : 	}

	b           |$LN2@AuCreateSu|
|$LN3@AuCreateSu|

; 525  : 
; 526  : 	proc->_kstack_index_++;

	ldr         x8,[sp,#0x10]
	add         x8,x8,#0x40
	ldr         x8,[x8]
	add         x9,x8,#1
	ldr         x8,[sp,#0x10]
	add         x8,x8,#0x40
	str         x9,[x8]

; 527  : 
; 528  : 	return (location + KERNEL_STACK_SIZE);

	ldr         x8,[sp,#8]
	add         x0,x8,#0xA,lsl #0xC
	add         sp,sp,#0x30
	ldp         x19,lr,[sp]
	add         sp,sp,#0x10
	ret
	nop
|$LN6@AuCreateSu|
	DCQ         0xffffb00000000000

	ENDP  ; |AuCreateSubKernelStack|

; Function compile flags: /Odtpy
; File C:\Users\paras\source\repos\grep-name\XenevaOS\KernelAA64\Hal\sched.c

	AREA	|.text$mn|, CODE, ARM64

|AuGetSystemTimerTick| PROC

; 697  : 	return scheduler_tick;

	adrp        x8,scheduler_tick
	ldr         x0,[x8,PageOffset(scheduler_tick)]
	ret

	ENDP  ; |AuGetSystemTimerTick|

; Function compile flags: /Odtpy
; File C:\Users\paras\source\repos\grep-name\XenevaOS\KernelAA64\Hal\sched.c

	AREA	|.text$mn|, CODE, ARM64

|AuThreadCleanTrash| PROC

; 687  : void AuThreadCleanTrash(AA64Thread* t) {

|$LN3|
	str         lr,[sp,#-0x10]!
	sub         sp,sp,#0x10
	str         x0,[sp]

; 688  : 	AuThreadDeleteTrash(t);

	ldr         x0,[sp]
	bl          AuThreadDeleteTrash
	add         sp,sp,#0x10
	ldr         lr,[sp],#0x10
	ret

	ENDP  ; |AuThreadCleanTrash|

; Function compile flags: /Odtpy
; File C:\Users\paras\source\repos\grep-name\XenevaOS\KernelAA64\Hal\sched.c

	AREA	|.text$mn|, CODE, ARM64

|AuThreadMoveToTrash| PROC

; 659  : void AuThreadMoveToTrash(AA64Thread* t) {

|$LN12|
	str         lr,[sp,#-0x10]!
	sub         sp,sp,#0x20
	str         x0,[sp]

; 660  : 	if (!t)

	ldr         x8,[sp]
	cmp         x8,#0
	bne         |$LN8@AuThreadMo|

; 661  : 		return;

	b           |$LN1@AuThreadMo|
|$LN8@AuThreadMo|

; 662  : 
; 663  : 	t->state = THREAD_STATE_KILLABLE;

	ldr         x8,[sp]
	add         x9,x8,#0xC0
	mov         w8,#5
	strb        w8,[x9]

; 664  : 
; 665  : 	AA64Thread* ready_queue_ = NULL;

	mov         x8,#0
	str         x8,[sp,#8]

; 666  : 	/* search the thread in ready queue*/
; 667  : 	for (ready_queue_ = thread_list_head; ready_queue_ != NULL; ready_queue_ = ready_queue_->next) {

	adrp        x8,thread_list_head
	ldr         x8,[x8,PageOffset(thread_list_head)]
	str         x8,[sp,#8]
	b           |$LN4@AuThreadMo|
|$LN2@AuThreadMo|
	ldr         x8,[sp,#8]
	add         x8,x8,#0x338
	ldr         x8,[x8]
	str         x8,[sp,#8]
|$LN4@AuThreadMo|
	ldr         x8,[sp,#8]
	cmp         x8,#0
	beq         |$LN3@AuThreadMo|

; 668  : 		if (ready_queue_ == t)

	ldr         x9,[sp]
	ldr         x8,[sp,#8]
	cmp         x8,x9
	bne         |$LN9@AuThreadMo|

; 669  : 			AuThreadDelete(t);

	ldr         x0,[sp]
	bl          AuThreadDelete
|$LN9@AuThreadMo|

; 670  : 	}

	b           |$LN2@AuThreadMo|
|$LN3@AuThreadMo|

; 671  : 
; 672  : 	AA64Thread* block_queue_ = NULL;

	mov         x8,#0
	str         x8,[sp,#0x10]

; 673  : 	/* search the thread in block queue*/
; 674  : 	for (block_queue_ = blocked_thr_head; block_queue_ != NULL; block_queue_ = block_queue_->next) {

	adrp        x8,blocked_thr_head
	ldr         x8,[x8,PageOffset(blocked_thr_head)]
	str         x8,[sp,#0x10]
	b           |$LN7@AuThreadMo|
|$LN5@AuThreadMo|
	ldr         x8,[sp,#0x10]
	add         x8,x8,#0x338
	ldr         x8,[x8]
	str         x8,[sp,#0x10]
|$LN7@AuThreadMo|
	ldr         x8,[sp,#0x10]
	cmp         x8,#0
	beq         |$LN6@AuThreadMo|

; 675  : 		if (block_queue_ == t)

	ldr         x9,[sp]
	ldr         x8,[sp,#0x10]
	cmp         x8,x9
	bne         |$LN10@AuThreadMo|

; 676  : 			AuThreadDeleteBlock(t);

	ldr         x0,[sp]
	bl          AuThreadDeleteBlock
|$LN10@AuThreadMo|

; 677  : 	}

	b           |$LN5@AuThreadMo|
|$LN6@AuThreadMo|

; 678  : 
; 679  : 	/* insert it in the trash list */
; 680  : 	AuThreadInsertTrash(t);

	ldr         x0,[sp]
	bl          AuThreadInsertTrash
|$LN1@AuThreadMo|
	add         sp,sp,#0x20
	ldr         lr,[sp],#0x10
	ret

	ENDP  ; |AuThreadMoveToTrash|

; Function compile flags: /Odtpy
; File C:\Users\paras\source\repos\grep-name\XenevaOS\KernelAA64\Hal\sched.c

	AREA	|.text$mn|, CODE, ARM64

|AuThreadFindByIDBlockList| PROC

; 645  : AA64Thread* AuThreadFindByIDBlockList(uint64_t id) {

|$LN7|
	sub         sp,sp,#0x10
	str         x0,[sp,#8]

; 646  : 	AA64Thread* block_queue = NULL;

	mov         x8,#0
	str         x8,[sp]

; 647  : 	for (block_queue = blocked_thr_head; block_queue != NULL; block_queue = block_queue->next) {

	adrp        x8,blocked_thr_head
	ldr         x8,[x8,PageOffset(blocked_thr_head)]
	str         x8,[sp]
	b           |$LN4@AuThreadFi|
|$LN2@AuThreadFi|
	ldr         x8,[sp]
	add         x8,x8,#0x338
	ldr         x8,[x8]
	str         x8,[sp]
|$LN4@AuThreadFi|
	ldr         x8,[sp]
	cmp         x8,#0
	beq         |$LN3@AuThreadFi|

; 648  : 		if (block_queue->thread_id == id)

	ldr         x8,[sp]
	add         x8,x8,#0xF0
	ldr         x9,[sp,#8]
	ldr         x8,[x8]
	cmp         x8,x9
	bne         |$LN5@AuThreadFi|

; 649  : 			return block_queue;

	ldr         x0,[sp]
	b           |$LN1@AuThreadFi|
|$LN5@AuThreadFi|

; 650  : 	}

	b           |$LN2@AuThreadFi|
|$LN3@AuThreadFi|

; 651  : 	return NULL;

	mov         x0,#0
|$LN1@AuThreadFi|
	add         sp,sp,#0x10
	ret

	ENDP  ; |AuThreadFindByIDBlockList|

; Function compile flags: /Odtpy
; File C:\Users\paras\source\repos\grep-name\XenevaOS\KernelAA64\Hal\sched.c

	AREA	|.text$mn|, CODE, ARM64

|AuThreadFindByID| PROC

; 631  : AA64Thread* AuThreadFindByID(uint64_t id) {

|$LN7|
	sub         sp,sp,#0x10
	str         x0,[sp,#8]

; 632  : 	AA64Thread* ready_queue_ = NULL;

	mov         x8,#0
	str         x8,[sp]

; 633  : 	for (ready_queue_ = thread_list_head; ready_queue_ != NULL; ready_queue_ = ready_queue_->next) {

	adrp        x8,thread_list_head
	ldr         x8,[x8,PageOffset(thread_list_head)]
	str         x8,[sp]
	b           |$LN4@AuThreadFi|
|$LN2@AuThreadFi|
	ldr         x8,[sp]
	add         x8,x8,#0x338
	ldr         x8,[x8]
	str         x8,[sp]
|$LN4@AuThreadFi|
	ldr         x8,[sp]
	cmp         x8,#0
	beq         |$LN3@AuThreadFi|

; 634  : 		if (ready_queue_->thread_id== id)

	ldr         x8,[sp]
	add         x8,x8,#0xF0
	ldr         x9,[sp,#8]
	ldr         x8,[x8]
	cmp         x8,x9
	bne         |$LN5@AuThreadFi|

; 635  : 			return ready_queue_;

	ldr         x0,[sp]
	b           |$LN1@AuThreadFi|
|$LN5@AuThreadFi|

; 636  : 	}

	b           |$LN2@AuThreadFi|
|$LN3@AuThreadFi|

; 637  : 	return NULL;

	mov         x0,#0
|$LN1@AuThreadFi|
	add         sp,sp,#0x10
	ret

	ENDP  ; |AuThreadFindByID|

; Function compile flags: /Odtpy
; File C:\Users\paras\source\repos\grep-name\XenevaOS\KernelAA64\Hal\sched.c

	AREA	|.text$mn|, CODE, ARM64

|AuSleepThread| PROC

; 618  : void AuSleepThread(AA64Thread* thread, uint64_t ms) {

|$LN3|
	str         lr,[sp,#-0x10]!
	sub         sp,sp,#0x10
	str         x0,[sp]
	str         x1,[sp,#8]

; 619  : 	//UARTDebugOut("Inserting thread to sleep list : %s \n", thread->name);
; 620  : 	thread->state = THREAD_STATE_SLEEP;

	ldr         x8,[sp]
	add         x9,x8,#0xC0
	mov         w8,#4
	strb        w8,[x9]

; 621  : 	thread->sleepQuanta = ms;

	ldr         x8,[sp]
	add         x9,x8,#0xF8
	ldr         x8,[sp,#8]
	str         x8,[x9]

; 622  : 	AuThreadDelete(thread);

	ldr         x0,[sp]
	bl          AuThreadDelete

; 623  : 	AuThreadInsertSleep(thread);

	ldr         x0,[sp]
	bl          AuThreadInsertSleep
	add         sp,sp,#0x10
	ldr         lr,[sp],#0x10
	ret

	ENDP  ; |AuSleepThread|

; Function compile flags: /Odtpy
; File C:\Users\paras\source\repos\grep-name\XenevaOS\KernelAA64\Hal\sched.c

	AREA	|.text$mn|, CODE, ARM64

|AuForceScheduler| PROC

; 577  : void AuForceScheduler() {

|$LN3|
	str         lr,[sp,#-0x10]!

; 578  : 	AuScheduleThread(NULL);

	mov         x0,#0
	bl          AuScheduleThread
	ldr         lr,[sp],#0x10
	ret

	ENDP  ; |AuForceScheduler|

; Function compile flags: /Odtpy
; File C:\Users\paras\source\repos\grep-name\XenevaOS\KernelAA64\Hal\sched.c

	AREA	|.text$mn|, CODE, ARM64

|AuUnblockThread| PROC

; 597  : void AuUnblockThread(AA64Thread* thread) {

|$LN8|
	str         lr,[sp,#-0x10]!
	sub         sp,sp,#0x20
	str         x0,[sp,#0x10]

; 598  : 	thread->state = THREAD_STATE_READY;

	ldr         x8,[sp,#0x10]
	add         x9,x8,#0xC0
	mov         w8,#1
	strb        w8,[x9]

; 599  : 	bool found_ = false;

	mov         w8,#0
	strb        w8,[sp]

; 600  : 	AA64Thread* thr = NULL;

	mov         x8,#0
	str         x8,[sp,#8]

; 601  : 	for (thr = blocked_thr_head; thr != NULL; thr = thr->next) {

	adrp        x8,blocked_thr_head
	ldr         x8,[x8,PageOffset(blocked_thr_head)]
	str         x8,[sp,#8]
	b           |$LN4@AuUnblockT|
|$LN2@AuUnblockT|
	ldr         x8,[sp,#8]
	add         x8,x8,#0x338
	ldr         x8,[x8]
	str         x8,[sp,#8]
|$LN4@AuUnblockT|
	ldr         x8,[sp,#8]
	cmp         x8,#0
	beq         |$LN3@AuUnblockT|

; 602  : 		if (thr == thread) {

	ldr         x9,[sp,#0x10]
	ldr         x8,[sp,#8]
	cmp         x8,x9
	bne         |$LN5@AuUnblockT|

; 603  : 			AuThreadDeleteBlock(thr);

	ldr         x0,[sp,#8]
	bl          AuThreadDeleteBlock

; 604  : 			found_ = 1;

	mov         w8,#1
	strb        w8,[sp]

; 605  : 			break;

	b           |$LN3@AuUnblockT|
|$LN5@AuUnblockT|

; 606  : 		}
; 607  : 	}

	b           |$LN2@AuUnblockT|
|$LN3@AuUnblockT|

; 608  : 	if (found_) {

	ldrb        w8,[sp]
	mov         w8,w8
	cmp         w8,#0
	beq         |$LN6@AuUnblockT|

; 609  : 		AuThreadInsert(thread);

	ldr         x0,[sp,#0x10]
	bl          AuThreadInsert
|$LN6@AuUnblockT|
	add         sp,sp,#0x20
	ldr         lr,[sp],#0x10
	ret

	ENDP  ; |AuUnblockThread|

; Function compile flags: /Odtpy
; File C:\Users\paras\source\repos\grep-name\XenevaOS\KernelAA64\Hal\sched.c

	AREA	|.text$mn|, CODE, ARM64

|AuBlockThread| PROC

; 586  : void AuBlockThread(AA64Thread* thread) {

|$LN3|
	str         lr,[sp,#-0x10]!
	sub         sp,sp,#0x10
	str         x0,[sp]

; 587  : 	thread->state = THREAD_STATE_BLOCKED;

	ldr         x8,[sp]
	add         x9,x8,#0xC0
	mov         w8,#3
	strb        w8,[x9]

; 588  : 	AuThreadDelete(thread);

	ldr         x0,[sp]
	bl          AuThreadDelete

; 589  : 	AuThreadInsertBlock(thread);

	ldr         x0,[sp]
	bl          AuThreadInsertBlock
	add         sp,sp,#0x10
	ldr         lr,[sp],#0x10
	ret

	ENDP  ; |AuBlockThread|

; Function compile flags: /Odtpy
; File C:\Users\paras\source\repos\grep-name\XenevaOS\KernelAA64\Hal\sched.c

	AREA	|.text$mn|, CODE, ARM64

|AuGetCurrentThread| PROC

; 570  : 	return current_thread;

	adrp        x8,current_thread
	ldr         x0,[x8,PageOffset(current_thread)]
	ret

	ENDP  ; |AuGetCurrentThread|

; Function compile flags: /Odtpy
; File C:\Users\paras\source\repos\grep-name\XenevaOS\KernelAA64\Hal\sched.c

	AREA	|.text$mn|, CODE, ARM64

|AuGetIdleThread| PROC

; 566  : 	return _idle_thr;

	adrp        x8,_idle_thr
	ldr         x0,[x8,PageOffset(_idle_thr)]
	ret

	ENDP  ; |AuGetIdleThread|

; Function compile flags: /Odtpy
; File C:\Users\paras\source\repos\grep-name\XenevaOS\KernelAA64\Hal\sched.c

	AREA	|.text$mn|, CODE, ARM64

|AuSchedulerStart| PROC

; 550  : void AuSchedulerStart() {

|$LN3|
	str         lr,[sp,#-0x10]!
	sub         sp,sp,#0x10

; 551  : 	mask_irqs();

	bl          mask_irqs

; 552  : 	AA64Thread* idle = current_thread;

	adrp        x8,current_thread
	ldr         x8,[x8,PageOffset(current_thread)]
	str         x8,[sp]

; 553  : 	_scheduler_initialized = true;

	adrp        x9,_scheduler_initialized
	mov         w8,#1
	strb        w8,[x9,PageOffset(_scheduler_initialized)]

; 554  : #ifndef __TARGET_BOARD_RPI3__
; 555  : 	GICClearPendingIRQ(27);

	mov         w0,#0x1B
	bl          GICClearPendingIRQ

; 556  : #endif
; 557  : 	tlb_flush_vmalle1is();

	bl          tlb_flush_vmalle1is

; 558  : 	write_both_ttbr(V2P(idle->pml));

	ldr         x8,[sp]
	add         x8,x8,#0xC8
	ldr         x0,[x8]
	bl          V2P
	bl          write_both_ttbr

; 559  : 	aa64_restore_fp(&idle->fp_regs, &idle->fpcr, &idle->fpsr);

	ldr         x8,[sp]
	add         x2,x8,#0x328
	ldr         x8,[sp]
	add         x1,x8,#0x320
	ldr         x8,[sp]
	add         x0,x8,#0x120
	bl          aa64_restore_fp

; 560  : 	suspendTimer();

	bl          suspendTimer

; 561  : 	setupTimerIRQ();

	bl          setupTimerIRQ

; 562  : 	first_time_sex(idle);

	ldr         x0,[sp]
	bl          first_time_sex
	add         sp,sp,#0x10
	ldr         lr,[sp],#0x10
	ret

	ENDP  ; |AuSchedulerStart|

; Function compile flags: /Odtpy
; File C:\Users\paras\source\repos\grep-name\XenevaOS\KernelAA64\Hal\sched.c

	AREA	|.text$mn|, CODE, ARM64

|AuScheduleThread| PROC

; 425  : void AuScheduleThread(AA64Registers* regs) {

|$LN7|
	str         lr,[sp,#-0x10]!
	sub         sp,sp,#0x20
	str         x0,[sp,#8]

; 426  : 	mask_irqs();

	bl          mask_irqs

; 427  : 	if (_scheduler_initialized == 0) {

	adrp        x8,_scheduler_initialized
	ldrb        w8,[x8,PageOffset(_scheduler_initialized)]
	mov         w8,w8
	cmp         w8,#0
	bne         |$LN2@AuSchedule|

; 428  : 		return;

	b           |$LN1@AuSchedule|
|$LN2@AuSchedule|

; 429  : 	}
; 430  : 	AA64Thread* runThr = current_thread;

	adrp        x8,current_thread
	ldr         x8,[x8,PageOffset(current_thread)]
	str         x8,[sp]

; 431  : 
; 432  : 	//if (runThr->returnFromSyscall) {
; 433  : 	//	UARTDebugOut("System call interrupted for thread : %s  %d\r\n", runThr->name, runThr->syscallNum);
; 434  : 	//	store_syscall(runThr);
; 435  : 	//	goto sched;
; 436  : 	//}
; 437  : 	//else {
; 438  : 		aa64_store_context(runThr);

	ldr         x0,[sp]
	bl          aa64_store_context

; 439  : 		runThr->sp = (uint64_t)regs;

	ldr         x8,[sp]
	add         x9,x8,#0x60
	ldr         x8,[sp,#8]
	str         x8,[x9]
|$sched$8|

; 440  : 	//}
; 441  : 
; 442  : sched:
; 443  : 	//AuTextOut("Schedule thread upto here sp: %x \r\n", regs->EL0SP);
; 444  : 	aa64_store_fp(&runThr->fp_regs, &runThr->fpcr, &runThr->fpsr);

	ldr         x8,[sp]
	add         x2,x8,#0x328
	ldr         x8,[sp]
	add         x1,x8,#0x320
	ldr         x8,[sp]
	add         x0,x8,#0x120
	bl          aa64_store_fp

; 445  : 	
; 446  : 	//AuTextOut("Stored fp \r\n");
; 447  : 	if (regs) {

	ldr         x8,[sp,#8]
	cmp         x8,#0
	beq         |$LN3@AuSchedule|

; 448  : 		runThr->x0 = regs->x0;

	ldr         x8,[sp,#8]
	add         x10,x8,#0xF0
	ldr         x8,[sp]
	add         x9,x8,#0x78
	ldr         x8,[x10]
	str         x8,[x9]

; 449  : 		runThr->x1 = regs->x1;

	ldr         x8,[sp,#8]
	add         x10,x8,#0xF8
	ldr         x8,[sp]
	add         x9,x8,#0x80
	ldr         x8,[x10]
	str         x8,[x9]

; 450  : 		runThr->x30 = regs->x30;

	ldr         x10,[sp,#8]
	ldr         x8,[sp]
	add         x9,x8,#0x58
	ldr         x8,[x10]
	str         x8,[x9]

; 451  : 		runThr->x29 = regs->x29;

	ldr         x8,[sp,#8]
	add         x10,x8,#0x18
	ldr         x8,[sp]
	add         x9,x8,#0x50
	ldr         x8,[x10]
	str         x8,[x9]
|$LN3@AuSchedule|

; 452  : 	}
; 453  : 	//AuTextOut("Registered stored \r\n");
; 454  : 	scheduler_tick++;

	adrp        x8,scheduler_tick
	ldr         x8,[x8,PageOffset(scheduler_tick)]
	add         x9,x8,#1
	adrp        x8,scheduler_tick
	str         x9,[x8,PageOffset(scheduler_tick)]

; 455  : 	AuHandleSleepThreads();

	bl          AuHandleSleepThreads

; 456  : 	AA64NextThread();

	bl          AA64NextThread

; 457  : 	write_both_ttbr(V2P(current_thread->pml));

	adrp        x8,current_thread
	ldr         x8,[x8,PageOffset(current_thread)]
	add         x8,x8,#0xC8
	ldr         x0,[x8]
	bl          V2P
	bl          write_both_ttbr

; 458  : 	//tlb_flush_vmalle1is();
; 459  : 	aa64_restore_fp(&current_thread->fp_regs, &current_thread->fpcr, &current_thread->fpsr);

	adrp        x8,current_thread
	ldr         x8,[x8,PageOffset(current_thread)]
	add         x2,x8,#0x328
	adrp        x8,current_thread
	ldr         x8,[x8,PageOffset(current_thread)]
	add         x1,x8,#0x320
	adrp        x8,current_thread
	ldr         x8,[x8,PageOffset(current_thread)]
	add         x0,x8,#0x120
	bl          aa64_restore_fp

; 460  : 	dsb_sy_barrier();

	bl          dsb_sy_barrier

; 461  : 
; 462  : 	uint64_t sp = read_sp();

	bl          read_sp
	str         x0,[sp,#0x18]

; 463  : 	/*UARTDebugOut("Scheduler sp : %x \r\n", sp);*/
; 464  : 	/*if (debug) {
; 465  : 		UARTDebugOut("next thread : %s \r\n", current_thread->name);
; 466  : 	}*/
; 467  : 	/*if (current_thread->returnFromSyscall) {
; 468  : 		current_thread->justStored = 0;
; 469  : 		ret_from_syscall(current_thread);
; 470  : 		goto ret;
; 471  : 	}*/
; 472  : 
; 473  : 	if ((current_thread->threadType & THREAD_LEVEL_USER) && current_thread->first_run == 1) {

	adrp        x8,current_thread
	ldr         x8,[x8,PageOffset(current_thread)]
	add         x8,x8,#0xC1
	ldrb        w8,[x8]
	mov         w8,w8
	tbz         x8,#1,|$LN4@AuSchedule|
	adrp        x8,current_thread
	ldr         x8,[x8,PageOffset(current_thread)]
	add         x8,x8,#0xE8
	ldrb        w8,[x8]
	mov         w8,w8
	cmp         w8,#1
	bne         |$LN4@AuSchedule|

; 474  : 		uint64_t sp = current_thread->sp;

	adrp        x8,current_thread
	ldr         x8,[x8,PageOffset(current_thread)]
	add         x8,x8,#0x60
	ldr         x8,[x8]
	str         x8,[sp,#0x10]

; 475  : 		//current_thread->sp = current_thread->originalKSp;
; 476  : 		resume_user(current_thread,sp);

	ldr         x1,[sp,#0x10]
	adrp        x8,current_thread
	ldr         x0,[x8,PageOffset(current_thread)]
	bl          resume_user
|$LN4@AuSchedule|

; 477  : 	}
; 478  : 
; 479  : 
; 480  : 	current_thread->sp = current_thread->originalKSp;

	adrp        x8,current_thread
	ldr         x8,[x8,PageOffset(current_thread)]
	add         x10,x8,#0x100
	adrp        x8,current_thread
	ldr         x8,[x8,PageOffset(current_thread)]
	add         x9,x8,#0x60
	ldr         x8,[x10]
	str         x8,[x9]

; 481  : 	current_thread->data = regs;

	adrp        x8,current_thread
	ldr         x8,[x8,PageOffset(current_thread)]
	add         x9,x8,#0x110
	ldr         x8,[sp,#8]
	str         x8,[x9]

; 482  : 	if (aa64_restore_context(current_thread)) {

	adrp        x8,current_thread
	ldr         x0,[x8,PageOffset(current_thread)]
	bl          aa64_restore_context
|$ret$9|
|$LN1@AuSchedule|
	add         sp,sp,#0x20
	ldr         lr,[sp],#0x10
	ret

	ENDP  ; |AuScheduleThread|

; Function compile flags: /Odtpy
; File C:\Users\paras\source\repos\grep-name\XenevaOS\KernelAA64\Hal\sched.c

	AREA	|.text$mn|, CODE, ARM64

|AuCreateSubKthread| PROC

; 321  : AA64Thread* AuCreateSubKthread(void(*entry) (uint64_t),uint64_t stack, uint64_t* pml, char* name) {

|$LN3|
	str         lr,[sp,#-0x10]!
	sub         sp,sp,#0x30
	str         x0,[sp,#8]
	str         x1,[sp,#0x20]
	str         x2,[sp,#0x18]
	str         x3,[sp,#0x10]

; 322  : 
; 323  : 	AA64Thread* t = (AA64Thread*)kmalloc(sizeof(AA64Thread));

	mov         w0,#0x350
	bl          kmalloc
	str         x0,[sp]

; 324  : 	memset(t, 0, sizeof(AA64Thread));

	mov         w2,#0x350
	mov         w1,#0
	ldr         x0,[sp]
	bl          memset

; 325  : 	strncpy(t->name, name, 8);

	ldr         x8,[sp]
	add         x0,x8,#0xD0
	mov         x2,#8
	ldr         x1,[sp,#0x10]
	bl          strncpy

; 326  : 	t->name[8] = '\0';

	ldr         x8,[sp]
	add         x9,x8,#0xD8
	mov         w8,#0
	strb        w8,[x9]

; 327  : 	t->elr_el1 = (uint64_t)entry;

	ldr         x8,[sp]
	add         x9,x8,#0x68
	ldr         x8,[sp,#8]
	str         x8,[x9]

; 328  : 	t->x30 = (uint64_t)entry;

	ldr         x8,[sp]
	add         x9,x8,#0x58
	ldr         x8,[sp,#8]
	str         x8,[x9]

; 329  : 	t->spsr_el1 = 0x3C4; //0x3C4; // 0x245;

	ldr         x8,[sp]
	add         x9,x8,#0x70
	mov         x8,#0x3C4
	str         x8,[x9]

; 330  : 	//t->sp = stack;
; 331  : 	t->pml = (uint64_t)pml;

	ldr         x8,[sp]
	add         x9,x8,#0xC8
	ldr         x8,[sp,#0x18]
	str         x8,[x9]

; 332  : 	t->sp = stack;

	ldr         x8,[sp]
	add         x9,x8,#0x60
	ldr         x8,[sp,#0x20]
	str         x8,[x9]

; 333  : 	t->originalKSp = t->sp;

	ldr         x8,[sp]
	add         x10,x8,#0x60
	ldr         x8,[sp]
	add         x9,x8,#0x100
	ldr         x8,[x10]
	str         x8,[x9]

; 334  : 	t->state = THREAD_STATE_READY;

	ldr         x8,[sp]
	add         x9,x8,#0xC0
	mov         w8,#1
	strb        w8,[x9]

; 335  : 	t->thread_id = thread_id++;

	ldr         x8,[sp]
	add         x9,x8,#0xF0
	adrp        x8,thread_id
	ldr         x8,[x8,PageOffset(thread_id)]
	str         x8,[x9]
	adrp        x8,thread_id
	ldr         x8,[x8,PageOffset(thread_id)]
	add         x9,x8,#1
	adrp        x8,thread_id
	str         x9,[x8,PageOffset(thread_id)]

; 336  : 	t->fpsr = 0;

	ldr         x8,[sp]
	add         x9,x8,#0x328
	mov         x8,#0
	str         x8,[x9]

; 337  : 	t->fpcr = 0;

	ldr         x8,[sp]
	add         x9,x8,#0x320
	mov         x8,#0
	str         x8,[x9]

; 338  : 	AuThreadInsert(t);

	ldr         x0,[sp]
	bl          AuThreadInsert

; 339  : 	return t;

	ldr         x0,[sp]
	add         sp,sp,#0x30
	ldr         lr,[sp],#0x10
	ret

	ENDP  ; |AuCreateSubKthread|

; Function compile flags: /Odtpy
; File C:\Users\paras\source\repos\grep-name\XenevaOS\KernelAA64\Hal\sched.c

	AREA	|.text$mn|, CODE, ARM64

|AuCreateKthread| PROC

; 289  : AA64Thread* AuCreateKthread(void(*entry) (uint64_t),uint64_t* pml, char* name){

|$LN3|
	str         lr,[sp,#-0x10]!
	sub         sp,sp,#0x30
	str         x0,[sp,#8]
	str         x1,[sp,#0x18]
	str         x2,[sp,#0x10]

; 290  : 
; 291  : 	AA64Thread* t = (AA64Thread*)kmalloc(sizeof(AA64Thread));

	mov         w0,#0x350
	bl          kmalloc
	str         x0,[sp]

; 292  : 	memset(t, 0, sizeof(AA64Thread));

	mov         w2,#0x350
	mov         w1,#0
	ldr         x0,[sp]
	bl          memset

; 293  : 	strncpy(t->name, name,8);

	ldr         x8,[sp]
	add         x0,x8,#0xD0
	mov         x2,#8
	ldr         x1,[sp,#0x10]
	bl          strncpy

; 294  : 	t->name[8] = '\0';

	ldr         x8,[sp]
	add         x9,x8,#0xD8
	mov         w8,#0
	strb        w8,[x9]

; 295  : 	t->elr_el1 = (uint64_t)entry;

	ldr         x8,[sp]
	add         x9,x8,#0x68
	ldr         x8,[sp,#8]
	str         x8,[x9]

; 296  : 	t->x30 = (uint64_t)entry;

	ldr         x8,[sp]
	add         x9,x8,#0x58
	ldr         x8,[sp,#8]
	str         x8,[x9]

; 297  : 	t->spsr_el1 = 0x3C4; //0x3C4; // 0x245;

	ldr         x8,[sp]
	add         x9,x8,#0x70
	mov         x8,#0x3C4
	str         x8,[x9]

; 298  : 	//t->sp = stack;
; 299  : 	t->pml = (uint64_t)pml;

	ldr         x8,[sp]
	add         x9,x8,#0xC8
	ldr         x8,[sp,#0x18]
	str         x8,[x9]

; 300  : 	t->sp = AuCreateKernelStack((uint64_t*)t->pml);

	ldr         x8,[sp]
	add         x8,x8,#0xC8
	ldr         x0,[x8]
	bl          AuCreateKernelStack
	ldr         x8,[sp]
	add         x8,x8,#0x60
	str         x0,[x8]

; 301  : 	uint64_t kstack = t->sp;

	ldr         x8,[sp]
	add         x8,x8,#0x60
	ldr         x8,[x8]
	str         x8,[sp,#0x20]

; 302  : 	t->sp = ((uint64_t)kstack & ~(uint64_t)0xF);

	ldr         x8,[sp,#0x20]
	and         x9,x8,#-0x10
	ldr         x8,[sp]
	add         x8,x8,#0x60
	str         x9,[x8]

; 303  : 	t->sp -= 64;

	ldr         x8,[sp]
	add         x8,x8,#0x60
	ldr         x8,[x8]
	sub         x9,x8,#0x40
	ldr         x8,[sp]
	add         x8,x8,#0x60
	str         x9,[x8]

; 304  : 	t->originalKSp = t->sp;

	ldr         x8,[sp]
	add         x10,x8,#0x60
	ldr         x8,[sp]
	add         x9,x8,#0x100
	ldr         x8,[x10]
	str         x8,[x9]

; 305  : 	t->state = THREAD_STATE_READY;

	ldr         x8,[sp]
	add         x9,x8,#0xC0
	mov         w8,#1
	strb        w8,[x9]

; 306  : 	t->thread_id = thread_id++;

	ldr         x8,[sp]
	add         x9,x8,#0xF0
	adrp        x8,thread_id
	ldr         x8,[x8,PageOffset(thread_id)]
	str         x8,[x9]
	adrp        x8,thread_id
	ldr         x8,[x8,PageOffset(thread_id)]
	add         x9,x8,#1
	adrp        x8,thread_id
	str         x9,[x8,PageOffset(thread_id)]

; 307  : 	t->fpsr = 0;

	ldr         x8,[sp]
	add         x9,x8,#0x328
	mov         x8,#0
	str         x8,[x9]

; 308  : 	t->fpcr = 0;

	ldr         x8,[sp]
	add         x9,x8,#0x320
	mov         x8,#0
	str         x8,[x9]

; 309  : 	AuThreadInsert(t);

	ldr         x0,[sp]
	bl          AuThreadInsert

; 310  : 	return t;

	ldr         x0,[sp]
	add         sp,sp,#0x30
	ldr         lr,[sp],#0x10
	ret

	ENDP  ; |AuCreateKthread|

; Function compile flags: /Odtpy
; File C:\Users\paras\source\repos\grep-name\XenevaOS\KernelAA64\Hal\sched.c

	AREA	|.text$mn|, CODE, ARM64

|AuCreateKernelStack| PROC

; 497  : uint64_t AuCreateKernelStack(uint64_t* pml) {

|$LN7|
	sub         sp,sp,#0x10
	stp         x19,lr,[sp]
	sub         sp,sp,#0x20
	str         x0,[sp,#0x18]

; 498  : 	uint64_t location = KERNEL_STACK_LOCATION;

	ldr         x8,|$LN6@AuCreateKe|
	str         x8,[sp,#8]

; 499  : 	location += ke_stack_idx * KERNEL_STACK_SIZE;

	adrp        x8,ke_stack_idx
	ldr         w9,[x8,PageOffset(ke_stack_idx)]
	mov         w8,#0xA000
	mul         w8,w9,w8
	sxtw        x9,w8
	ldr         x8,[sp,#8]
	add         x8,x8,x9
	str         x8,[sp,#8]

; 500  : 	UARTDebugOut("Creating kernel stack : %x %d\r\n", location, ke_stack_idx);

	adrp        x8,ke_stack_idx
	ldr         w2,[x8,PageOffset(ke_stack_idx)]
	ldr         x1,[sp,#8]
	adrp        x8,|$SG3687|
	add         x0,x8,PageOffset(|$SG3687|)
	bl          UARTDebugOut

; 501  : 	for (int i = 0; i < (KERNEL_STACK_SIZE) / 0x1000; i++) {

	mov         w8,#0
	str         w8,[sp]
	b           |$LN4@AuCreateKe|
|$LN2@AuCreateKe|
	ldr         w8,[sp]
	add         w8,w8,#1
	str         w8,[sp]
|$LN4@AuCreateKe|
	ldr         w8,[sp]
	cmp         w8,#0xA
	bge         |$LN3@AuCreateKe|

; 502  : 		uint64_t addr = (uint64_t)P2V((uint64_t)AuPmmngrAlloc());

	bl          AuPmmngrAlloc
	bl          P2V
	str         x0,[sp,#0x10]

; 503  : 		memset(addr, 0, PAGE_SIZE);

	mov         w2,#0x1000
	mov         w1,#0
	ldr         x0,[sp,#0x10]
	bl          memset

; 504  : 		AuMapPage(V2P(addr), (location + i * 4096), PTE_AP_RW | PTE_NORMAL_MEM);

	ldr         w9,[sp]
	mov         w8,#0x1000
	mul         w8,w9,w8
	sxtw        x9,w8
	ldr         x8,[sp,#8]
	add         x19,x8,x9
	ldr         x0,[sp,#0x10]
	bl          V2P
	mov         w2,#4
	mov         x1,x19
	bl          AuMapPage

; 505  : 	}

	b           |$LN2@AuCreateKe|
|$LN3@AuCreateKe|

; 506  : 	ke_stack_idx += 2;

	adrp        x8,ke_stack_idx
	ldr         w8,[x8,PageOffset(ke_stack_idx)]
	add         w9,w8,#2
	adrp        x8,ke_stack_idx
	str         w9,[x8,PageOffset(ke_stack_idx)]

; 507  : 	return (location + KERNEL_STACK_SIZE);

	ldr         x8,[sp,#8]
	add         x0,x8,#0xA,lsl #0xC
	add         sp,sp,#0x20
	ldp         x19,lr,[sp]
	add         sp,sp,#0x10
	ret
	nop
|$LN6@AuCreateKe|
	DCQ         0xffffb00000000000

	ENDP  ; |AuCreateKernelStack|

; Function compile flags: /Odtpy
; File C:\Users\paras\source\repos\grep-name\XenevaOS\KernelAA64\Hal\sched.c

	AREA	|.text$mn|, CODE, ARM64

|AuSchedulerInitialize| PROC

; 533  : void AuSchedulerInitialize() {

|$LN3|
	str         lr,[sp,#-0x10]!
	sub         sp,sp,#0x10

; 534  : 	thread_list_head = NULL;

	adrp        x9,thread_list_head
	mov         x8,#0
	str         x8,[x9,PageOffset(thread_list_head)]

; 535  : 	thread_list_last = NULL;

	adrp        x9,thread_list_last
	mov         x8,#0
	str         x8,[x9,PageOffset(thread_list_last)]

; 536  : 	thread_id = 0;

	adrp        x9,thread_id
	mov         x8,#0
	str         x8,[x9,PageOffset(thread_id)]

; 537  : 	ke_stack_idx = 0;

	adrp        x9,ke_stack_idx
	mov         w8,#0
	str         w8,[x9,PageOffset(ke_stack_idx)]

; 538  : 	uint64_t* idle_pd = AuCreateVirtualAddressSpace();

	bl          AuCreateVirtualAddressSpace
	str         x0,[sp,#8]

; 539  : 	AA64Thread* idle_ = AuCreateKthread(AuIdleThread,idle_pd, "Idle");

	adrp        x8,|$SG3705|
	add         x2,x8,PageOffset(|$SG3705|)
	ldr         x1,[sp,#8]
	adrp        x8,AuIdleThread
	add         x0,x8,PageOffset(AuIdleThread)
	bl          AuCreateKthread
	str         x0,[sp]

; 540  : 	//idle_->elr_el1 = (uint64_t)AuIdleThread;
; 541  : 	_idle_thr = idle_;

	adrp        x9,_idle_thr
	ldr         x8,[sp]
	str         x8,[x9,PageOffset(_idle_thr)]

; 542  : 	current_thread = idle_;

	adrp        x9,current_thread
	ldr         x8,[sp]
	str         x8,[x9,PageOffset(current_thread)]

; 543  : 	_scheduler_initialized = false;

	adrp        x9,_scheduler_initialized
	mov         w8,#0
	strb        w8,[x9,PageOffset(_scheduler_initialized)]

; 544  : 	scheduler_tick = 0;

	adrp        x9,scheduler_tick
	mov         x8,#0
	str         x8,[x9,PageOffset(scheduler_tick)]
	add         sp,sp,#0x10
	ldr         lr,[sp],#0x10
	ret

	ENDP  ; |AuSchedulerInitialize|

	END
