; Listing generated by Microsoft (R) Optimizing Compiler Version 19.29.30159.0 

	TTL	C:\Users\paras\source\repos\grep-name\XenevaOS\KernelAA64\ARM64\Debug\shm.obj
	ARM64

	AREA	|.drectve|, DRECTVE


	AREA	|.bss|, NOINIT
|shm_list| %	0x8
|shm_id| %	0x2
	EXPORT	|AuInitialiseSHMMan|
	EXPORT	|AuGetSHMByID|
	EXPORT	|AuCreateSHM|
	EXPORT	|AuSHMObtainMem|
	EXPORT	|AuSHMUnmap|
	EXPORT	|AuSHMUnmapAll|
	EXPORT	|AuSHMGetID|
	EXPORT	|AuGetSHMSeg|
	EXPORT	|AuSHMDelete|
	EXPORT	|AuSHMProcBreak|
	EXPORT	|AuSHMProcSwap|
	EXPORT	|AuSHMProcOrderList|
	IMPORT	|initialize_list|
	IMPORT	|list_add|
	IMPORT	|list_remove|
	IMPORT	|list_get_at|
	IMPORT	|kmalloc|
	IMPORT	|kfree|
	IMPORT	|AuPmmngrAlloc|
	IMPORT	|AuPmmngrFree|
	IMPORT	|AuPmmngrAddRefcount|
	IMPORT	|AuVmmngrGetPage|
	IMPORT	|AuMapPage|
	IMPORT	|dsb_ish|
	IMPORT	|isb_flush|
	IMPORT	|memset|
	IMPORT	|UARTDebugOut|
	IMPORT	|envmdebug|

	AREA	|.pdata|, PDATA
|$pdata$AuInitialiseSHMMan| DCD imagerel |$LN3|
	DCD	0xa00025
	;Flags[SingleProEpi] functionLength[36] RegF[0] RegI[0] H[0] frameChainReturn[UnChainedSavedLR] frameSize[16]
|$pdata$AuGetSHMByID| DCD imagerel |$LN7|
	DCD	0x1200091
	;Flags[SingleProEpi] functionLength[144] RegF[0] RegI[0] H[0] frameChainReturn[UnChainedSavedLR] frameSize[32]
|$pdata$AuCreateSHM| DCD imagerel |$LN12|
	DCD	0x22001f5
	;Flags[SingleProEpi] functionLength[500] RegF[0] RegI[0] H[0] frameChainReturn[UnChainedSavedLR] frameSize[64]
|$pdata$AuSHMObtainMem| DCD imagerel |$LN23|
	DCD	0x52004b1
	;Flags[SingleProEpi] functionLength[1200] RegF[0] RegI[0] H[0] frameChainReturn[UnChainedSavedLR] frameSize[160]
|$pdata$AuSHMUnmap| DCD imagerel |$LN12|
	DCD	0x2a001b9
	;Flags[SingleProEpi] functionLength[440] RegF[0] RegI[0] H[0] frameChainReturn[UnChainedSavedLR] frameSize[80]
|$pdata$AuSHMUnmapAll| DCD imagerel |$LN9|
	DCD	0x1a00149
	;Flags[SingleProEpi] functionLength[328] RegF[0] RegI[0] H[0] frameChainReturn[UnChainedSavedLR] frameSize[48]
|$pdata$AuSHMGetID| DCD imagerel |$LN3|
	DCD	0x800039
	;Flags[SingleProEpi] functionLength[56] RegF[0] RegI[0] H[0] frameChainReturn[UnChained] frameSize[16]
|$pdata$AuGetSHMSeg| DCD imagerel |$LN7|
	DCD	0x120008d
	;Flags[SingleProEpi] functionLength[140] RegF[0] RegI[0] H[0] frameChainReturn[UnChainedSavedLR] frameSize[32]
|$pdata$AuSHMDelete| DCD imagerel |$LN13|
	DCD	0x1a00161
	;Flags[SingleProEpi] functionLength[352] RegF[0] RegI[0] H[0] frameChainReturn[UnChainedSavedLR] frameSize[48]
|$pdata$AuSHMProcBreak| DCD imagerel |$LN3|
	DCD	0x1000051
	;Flags[SingleProEpi] functionLength[80] RegF[0] RegI[0] H[0] frameChainReturn[UnChained] frameSize[32]
|$pdata$AuSHMProcSwap| DCD imagerel |$LN3|
	DCD	0x100004d
	;Flags[SingleProEpi] functionLength[76] RegF[0] RegI[0] H[0] frameChainReturn[UnChained] frameSize[32]
|$pdata$AuSHMProcOrderList| DCD imagerel |$LN12|
	DCD	0x2200135
	;Flags[SingleProEpi] functionLength[308] RegF[0] RegI[0] H[0] frameChainReturn[UnChainedSavedLR] frameSize[64]

	AREA	|.data|, DATA
|$SG3503| DCB	"[SHM] Creation failed, key exceeds limitation ", 0xd, 0xa
	DCB	0x0
	%	7
|$SG3506| DCB	"Creating shm for proc : %s ", 0xd, 0xa, 0x0
	%	2
|$SG3639| DCB	"%s Unmapping shm ->%d count ", 0xd, 0xa, 0x0
	%	1
|$SG3654| DCB	"Unmapping shm -> %x ", 0xd, 0xa, 0x0
; Function compile flags: /Odtpy
; File C:\Users\paras\source\repos\grep-name\XenevaOS\KernelAA64\Mm\shm.c

	AREA	|.text$mn|, CODE, ARM64

|AuSHMProcOrderList| PROC

; 195  : void AuSHMProcOrderList(AuProcess* proc) {

|$LN12|
	str         lr,[sp,#-0x10]!
	sub         sp,sp,#0x30
	str         x0,[sp,#0x18]

; 196  : 	dataentry* current = proc->shmmaps->entry_current;

	ldr         x8,[sp,#0x18]
	add         x8,x8,#0x440
	ldr         x8,[x8]
	add         x8,x8,#8
	ldr         x8,[x8]
	str         x8,[sp,#0x10]

; 197  : 	dataentry* index = NULL;

	mov         x8,#0
	str         x8,[sp,#8]

; 198  : 	for (int i = 0; i < proc->shmmaps->pointer; i++) {

	mov         w8,#0
	str         w8,[sp]
	b           |$LN4@AuSHMProcO|
|$LN2@AuSHMProcO|
	ldr         w8,[sp]
	add         w8,w8,#1
	str         w8,[sp]
|$LN4@AuSHMProcO|
	ldr         x8,[sp,#0x18]
	add         x8,x8,#0x440
	ldr         x8,[x8]
	ldr         w9,[x8]
	ldr         w8,[sp]
	cmp         w8,w9
	bhs         |$LN3@AuSHMProcO|

; 199  : 		if (current == NULL)

	ldr         x8,[sp,#0x10]
	cmp         x8,#0
	bne         |$LN8@AuSHMProcO|

; 200  : 			break;

	b           |$LN3@AuSHMProcO|
|$LN8@AuSHMProcO|

; 201  : 		AuSHMMappings* mappsone = (AuSHMMappings*)current->data;

	ldr         x8,[sp,#0x10]
	add         x8,x8,#0x10
	ldr         x8,[x8]
	str         x8,[sp,#0x20]

; 202  : 		index = current->next;

	ldr         x8,[sp,#0x10]
	ldr         x8,[x8]
	str         x8,[sp,#8]

; 203  : 		for (int k = 0; k < proc->shmmaps->pointer - 1; k++) {

	mov         w8,#0
	str         w8,[sp,#4]
	b           |$LN7@AuSHMProcO|
|$LN5@AuSHMProcO|
	ldr         w8,[sp,#4]
	add         w8,w8,#1
	str         w8,[sp,#4]
|$LN7@AuSHMProcO|
	ldr         x8,[sp,#0x18]
	add         x8,x8,#0x440
	ldr         x8,[x8]
	ldr         w8,[x8]
	sub         w9,w8,#1
	ldr         w8,[sp,#4]
	cmp         w8,w9
	bhs         |$LN6@AuSHMProcO|

; 204  : 			if (index == NULL)

	ldr         x8,[sp,#8]
	cmp         x8,#0
	bne         |$LN9@AuSHMProcO|

; 205  : 				break;

	b           |$LN6@AuSHMProcO|
|$LN9@AuSHMProcO|

; 206  : 			AuSHMMappings* maptwo = (AuSHMMappings*)index->data;

	ldr         x8,[sp,#8]
	add         x8,x8,#0x10
	ldr         x8,[x8]
	str         x8,[sp,#0x28]

; 207  : 			if (mappsone->start_addr > maptwo->start_addr)

	ldr         x10,[sp,#0x20]
	ldr         x8,[sp,#0x28]
	ldr         x9,[x8]
	ldr         x8,[x10]
	cmp         x8,x9
	bls         |$LN10@AuSHMProcO|

; 208  : 				AuSHMProcSwap(current, index);

	ldr         x1,[sp,#8]
	ldr         x0,[sp,#0x10]
	bl          AuSHMProcSwap
|$LN10@AuSHMProcO|

; 209  : 			index = index->next;

	ldr         x8,[sp,#8]
	ldr         x8,[x8]
	str         x8,[sp,#8]

; 210  : 		}

	b           |$LN5@AuSHMProcO|
|$LN6@AuSHMProcO|

; 211  : 		current = current->next;

	ldr         x8,[sp,#0x10]
	ldr         x8,[x8]
	str         x8,[sp,#0x10]

; 212  : 	}

	b           |$LN2@AuSHMProcO|
|$LN3@AuSHMProcO|
	add         sp,sp,#0x30
	ldr         lr,[sp],#0x10
	ret

	ENDP  ; |AuSHMProcOrderList|

; Function compile flags: /Odtpy
; File C:\Users\paras\source\repos\grep-name\XenevaOS\KernelAA64\Mm\shm.c

	AREA	|.text$mn|, CODE, ARM64

|AuSHMProcSwap| PROC

; 185  : void AuSHMProcSwap(dataentry* current, dataentry* index) {

|$LN3|
	sub         sp,sp,#0x20
	str         x0,[sp]
	str         x1,[sp,#8]

; 186  : 	void* tmp = current->data;

	ldr         x8,[sp]
	add         x8,x8,#0x10
	ldr         x8,[x8]
	str         x8,[sp,#0x10]

; 187  : 	current->data = index->data;

	ldr         x8,[sp,#8]
	add         x10,x8,#0x10
	ldr         x8,[sp]
	add         x9,x8,#0x10
	ldr         x8,[x10]
	str         x8,[x9]

; 188  : 	index->data = tmp;

	ldr         x8,[sp,#8]
	add         x9,x8,#0x10
	ldr         x8,[sp,#0x10]
	str         x8,[x9]
	add         sp,sp,#0x20
	ret

	ENDP  ; |AuSHMProcSwap|

; Function compile flags: /Odtpy
; File C:\Users\paras\source\repos\grep-name\XenevaOS\KernelAA64\Mm\shm.c

	AREA	|.text$mn|, CODE, ARM64

|AuSHMProcBreak| PROC

; 176  : size_t AuSHMProcBreak(AuProcess* proc, size_t num_frames) {

|$LN3|
	sub         sp,sp,#0x20
	str         x0,[sp]
	str         x1,[sp,#8]

; 177  : 	size_t start_addr = proc->shm_break;

	ldr         x8,[sp]
	add         x8,x8,#0x450
	ldr         x8,[x8]
	str         x8,[sp,#0x10]

; 178  : 	proc->shm_break = (proc->shm_break + num_frames * PAGE_SIZE);

	ldr         x8,[sp]
	add         x10,x8,#0x450
	ldr         x9,[sp,#8]
	mov         x8,#0x1000
	mul         x9,x9,x8
	ldr         x8,[x10]
	add         x9,x8,x9
	ldr         x8,[sp]
	add         x8,x8,#0x450
	str         x9,[x8]

; 179  : 	return start_addr;

	ldr         x0,[sp,#0x10]
	add         sp,sp,#0x20
	ret

	ENDP  ; |AuSHMProcBreak|

; Function compile flags: /Odtpy
; File C:\Users\paras\source\repos\grep-name\XenevaOS\KernelAA64\Mm\shm.c

	AREA	|.text$mn|, CODE, ARM64

|AuSHMDelete| PROC

; 147  : void AuSHMDelete(AuSHM* shm) {

|$LN13|
	str         lr,[sp,#-0x10]!
	sub         sp,sp,#0x20
	str         x0,[sp,#8]

; 148  : 	if (!shm)

	ldr         x8,[sp,#8]
	cmp         x8,#0
	bne         |$LN8@AuSHMDelet|

; 149  : 		return;

	b           |$LN1@AuSHMDelet|
|$LN8@AuSHMDelet|

; 150  : 	if (shm->link_count > 0) {

	ldr         x8,[sp,#8]
	add         x8,x8,#0x18
	ldrh        w8,[x8]
	mov         w8,w8
	cmp         w8,#0
	ble         |$LN9@AuSHMDelet|

; 151  : 		shm->link_count--;

	ldr         x8,[sp,#8]
	add         x8,x8,#0x18
	ldrh        w8,[x8]
	sub         w8,w8,#1
	uxth        w9,w8
	ldr         x8,[sp,#8]
	add         x8,x8,#0x18
	strh        w9,[x8]
|$LN9@AuSHMDelet|

; 152  : 	}
; 153  : 
; 154  : 	if (shm->link_count == 0) {

	ldr         x8,[sp,#8]
	add         x8,x8,#0x18
	ldrh        w8,[x8]
	mov         w8,w8
	cmp         w8,#0
	bne         |$LN10@AuSHMDelet|

; 155  : 		for (int i = 0; i < shm->num_frames; i++) {

	mov         w8,#0
	str         w8,[sp,#4]
	b           |$LN4@AuSHMDelet|
|$LN2@AuSHMDelet|
	ldr         w8,[sp,#4]
	add         w8,w8,#1
	str         w8,[sp,#4]
|$LN4@AuSHMDelet|
	ldr         w8,[sp,#4]
	sxtw        x9,w8
	ldr         x8,[sp,#8]
	add         x8,x8,#8
	ldr         x8,[x8]
	cmp         x9,x8
	bhs         |$LN3@AuSHMDelet|

; 156  : 			size_t phys = shm->frames[i];

	ldr         x8,[sp,#8]
	add         x10,x8,#0x10
	ldr         w8,[sp,#4]
	sxtw        x9,w8
	mov         x8,#8
	mul         x9,x9,x8
	ldr         x8,[x10]
	add         x8,x8,x9
	ldr         x8,[x8]
	str         x8,[sp,#0x10]

; 157  : 			AuPmmngrFree((void*)phys);

	ldr         x0,[sp,#0x10]
	bl          AuPmmngrFree

; 158  : 		}

	b           |$LN2@AuSHMDelet|
|$LN3@AuSHMDelet|

; 159  : 
; 160  : 		for (int j = 0; j <= shm_list->pointer; j++) {

	mov         w8,#0
	str         w8,[sp]
	b           |$LN7@AuSHMDelet|
|$LN5@AuSHMDelet|
	ldr         w8,[sp]
	add         w8,w8,#1
	str         w8,[sp]
|$LN7@AuSHMDelet|
	adrp        x8,shm_list
	ldr         x8,[x8,PageOffset(shm_list)]
	ldr         w9,[x8]
	ldr         w8,[sp]
	cmp         w8,w9
	bhi         |$LN6@AuSHMDelet|

; 161  : 			AuSHM* shm_ = (AuSHM*)list_get_at(shm_list, j);

	ldr         w1,[sp]
	adrp        x8,shm_list
	ldr         x0,[x8,PageOffset(shm_list)]
	bl          list_get_at
	str         x0,[sp,#0x18]

; 162  : 			if (shm_ == shm)

	ldr         x9,[sp,#8]
	ldr         x8,[sp,#0x18]
	cmp         x8,x9
	bne         |$LN11@AuSHMDelet|

; 163  : 				list_remove(shm_list, j);

	ldr         w1,[sp]
	adrp        x8,shm_list
	ldr         x0,[x8,PageOffset(shm_list)]
	bl          list_remove
|$LN11@AuSHMDelet|

; 164  : 		}

	b           |$LN5@AuSHMDelet|
|$LN6@AuSHMDelet|

; 165  : 		kfree(shm->frames);

	ldr         x8,[sp,#8]
	add         x8,x8,#0x10
	ldr         x0,[x8]
	bl          kfree

; 166  : 		kfree(shm);

	ldr         x0,[sp,#8]
	bl          kfree
|$LN10@AuSHMDelet|
|$LN1@AuSHMDelet|
	add         sp,sp,#0x20
	ldr         lr,[sp],#0x10
	ret

	ENDP  ; |AuSHMDelete|

; Function compile flags: /Odtpy
; File C:\Users\paras\source\repos\grep-name\XenevaOS\KernelAA64\Mm\shm.c

	AREA	|.text$mn|, CODE, ARM64

|AuGetSHMSeg| PROC

; 71   : AuSHM* AuGetSHMSeg(uint16_t key) {

|$LN7|
	str         lr,[sp,#-0x10]!
	sub         sp,sp,#0x10
	uxth        w8,w0
	strh        w8,[sp]

; 72   : 	for (int i = 0; i < shm_list->pointer; i++) {

	mov         w8,#0
	str         w8,[sp,#4]
	b           |$LN4@AuGetSHMSe|
|$LN2@AuGetSHMSe|
	ldr         w8,[sp,#4]
	add         w8,w8,#1
	str         w8,[sp,#4]
|$LN4@AuGetSHMSe|
	adrp        x8,shm_list
	ldr         x8,[x8,PageOffset(shm_list)]
	ldr         w9,[x8]
	ldr         w8,[sp,#4]
	cmp         w8,w9
	bhs         |$LN3@AuGetSHMSe|

; 73   : 		AuSHM* shm = (AuSHM*)list_get_at(shm_list, i);

	ldr         w1,[sp,#4]
	adrp        x8,shm_list
	ldr         x0,[x8,PageOffset(shm_list)]
	bl          list_get_at
	str         x0,[sp,#8]

; 74   : 		if (shm->key == key)

	ldr         x8,[sp,#8]
	ldrh        w9,[x8]
	mov         w9,w9
	ldrh        w8,[sp]
	mov         w8,w8
	cmp         w9,w8
	bne         |$LN5@AuGetSHMSe|

; 75   : 			return shm;

	ldr         x0,[sp,#8]
	b           |$LN1@AuGetSHMSe|
|$LN5@AuGetSHMSe|

; 76   : 	}

	b           |$LN2@AuGetSHMSe|
|$LN3@AuGetSHMSe|

; 77   : 
; 78   : 	return NULL;

	mov         x0,#0
|$LN1@AuGetSHMSe|
	add         sp,sp,#0x10
	ldr         lr,[sp],#0x10
	ret

	ENDP  ; |AuGetSHMSeg|

; Function compile flags: /Odtpy
; File C:\Users\paras\source\repos\grep-name\XenevaOS\KernelAA64\Mm\shm.c

	AREA	|.text$mn|, CODE, ARM64

|AuSHMGetID| PROC

; 60   : uint16_t AuSHMGetID() {

|$LN3|
	sub         sp,sp,#0x10

; 61   : 	uint16_t _id = shm_id;

	adrp        x8,shm_id
	ldrh        w8,[x8,PageOffset(shm_id)]
	strh        w8,[sp]

; 62   : 	shm_id = shm_id + 1;

	adrp        x8,shm_id
	ldrh        w8,[x8,PageOffset(shm_id)]
	mov         w8,w8
	add         w8,w8,#1
	uxth        w9,w8
	adrp        x8,shm_id
	strh        w9,[x8,PageOffset(shm_id)]

; 63   : 	return  _id;

	ldrh        w0,[sp]
	add         sp,sp,#0x10
	ret

	ENDP  ; |AuSHMGetID|

; Function compile flags: /Odtpy
; File C:\Users\paras\source\repos\grep-name\XenevaOS\KernelAA64\Mm\shm.c

	AREA	|.text$mn|, CODE, ARM64

|AuSHMUnmapAll| PROC

; 394  : void AuSHMUnmapAll(AuProcess* proc) {

|$LN9|
	str         lr,[sp,#-0x10]!
	sub         sp,sp,#0x20
	str         x0,[sp,#0x18]

; 395  : 	//AuAcquireSpinlock(shmlock);
; 396  : 	for (int i = 0; i < proc->shmmaps->pointer; i++) {

	mov         w8,#0
	str         w8,[sp]
	b           |$LN4@AuSHMUnmap|
|$LN2@AuSHMUnmap|
	ldr         w8,[sp]
	add         w8,w8,#1
	str         w8,[sp]
|$LN4@AuSHMUnmap|
	ldr         x8,[sp,#0x18]
	add         x8,x8,#0x440
	ldr         x8,[x8]
	ldr         w9,[x8]
	ldr         w8,[sp]
	cmp         w8,w9
	bhs         |$LN3@AuSHMUnmap|

; 397  : 		AuSHMMappings* mapping = (AuSHMMappings*)list_remove(proc->shmmaps, i);

	ldr         x8,[sp,#0x18]
	add         x8,x8,#0x440
	ldr         w1,[sp]
	ldr         x0,[x8]
	bl          list_remove
	str         x0,[sp,#8]

; 398  : 		for (int j = 0; j < mapping->length / PAGE_SIZE; j++) {

	mov         w8,#0
	str         w8,[sp,#4]
	b           |$LN7@AuSHMUnmap|
|$LN5@AuSHMUnmap|
	ldr         w8,[sp,#4]
	add         w8,w8,#1
	str         w8,[sp,#4]
|$LN7@AuSHMUnmap|
	ldr         w8,[sp,#4]
	sxtw        x10,w8
	ldr         x8,[sp,#8]
	add         x8,x8,#8
	ldr         x9,[x8]
	mov         x8,#0x1000
	udiv        x8,x9,x8
	cmp         x10,x8
	bhs         |$LN6@AuSHMUnmap|

; 399  : 			AuVPage* vpage = AuVmmngrGetPage(mapping->start_addr +

	ldr         x10,[sp,#8]
	ldr         w8,[sp,#4]
	sxtw        x9,w8
	mov         x8,#0x1000
	mul         x9,x9,x8
	ldr         x8,[x10]
	add         x0,x8,x9
	mov         w2,#2
	mov         w1,#2
	bl          AuVmmngrGetPage
	str         x0,[sp,#0x10]

; 400  : 				j * PAGE_SIZE, VIRT_GETPAGE_ONLY_RET, VIRT_GETPAGE_ONLY_RET);
; 401  : 			vpage->bits.page = 0;

	ldr         x8,[sp,#0x10]
	ldr         x8,[x8]
	and         x9,x8,#-0xFFFFFFFFF001
	ldr         x8,[sp,#0x10]
	str         x9,[x8]

; 402  : 			isb_flush();

	bl          isb_flush

; 403  : 			vpage->bits.present = 0;

	ldr         x8,[sp,#0x10]
	ldr         x8,[x8]
	and         x9,x8,#-2
	ldr         x8,[sp,#0x10]
	str         x9,[x8]

; 404  : 			isb_flush();

	bl          isb_flush

; 405  : 			dsb_ish();

	bl          dsb_ish

; 406  : 			isb_flush();

	bl          isb_flush

; 407  : 		}

	b           |$LN5@AuSHMUnmap|
|$LN6@AuSHMUnmap|

; 408  : 		AuSHMDelete(mapping->shm);

	ldr         x8,[sp,#8]
	add         x8,x8,#0x10
	ldr         x0,[x8]
	bl          AuSHMDelete

; 409  : 		UARTDebugOut("Unmapping shm -> %x \r\n", mapping->start_addr);

	ldr         x8,[sp,#8]
	ldr         x1,[x8]
	adrp        x8,|$SG3654|
	add         x0,x8,PageOffset(|$SG3654|)
	bl          UARTDebugOut

; 410  : 		kfree(mapping);

	ldr         x0,[sp,#8]
	bl          kfree

; 411  : 	}

	b           |$LN2@AuSHMUnmap|
|$LN3@AuSHMUnmap|

; 412  : 	//tlb_flush_vmalle1is();
; 413  : 	kfree(proc->shmmaps);

	ldr         x8,[sp,#0x18]
	add         x8,x8,#0x440
	ldr         x0,[x8]
	bl          kfree
	add         sp,sp,#0x20
	ldr         lr,[sp],#0x10
	ret

	ENDP  ; |AuSHMUnmapAll|

; Function compile flags: /Odtpy
; File C:\Users\paras\source\repos\grep-name\XenevaOS\KernelAA64\Mm\shm.c

	AREA	|.text$mn|, CODE, ARM64

|AuSHMUnmap| PROC

; 349  : void AuSHMUnmap(uint16_t key, AuProcess* proc) {

|$LN12|
	str         lr,[sp,#-0x10]!
	sub         sp,sp,#0x40
	uxth        w8,w0
	strh        w8,[sp,#8]
	str         x1,[sp,#0x28]

; 350  : 	//AuAcquireSpinlock(shmlock);
; 351  : 	AuSHM* shm = AuGetSHMSeg(key);

	ldrh        w0,[sp,#8]
	bl          AuGetSHMSeg
	str         x0,[sp,#0x20]

; 352  : 
; 353  : 	if (!shm) {

	ldr         x8,[sp,#0x20]
	cmp         x8,#0
	bne         |$LN8@AuSHMUnmap|

; 354  : 		//AuReleaseSpinlock(shmlock);
; 355  : 		return;

	b           |$LN1@AuSHMUnmap|
|$LN8@AuSHMUnmap|

; 356  : 	}
; 357  : 
; 358  : 	AuSHMMappings* mapping = NULL;

	mov         x8,#0
	str         x8,[sp,#0x18]

; 359  : 	int index = 0;

	mov         w8,#0
	str         w8,[sp,#0x38]

; 360  : 	for (int i = 0; i < proc->shmmaps->pointer; i++) {

	mov         w8,#0
	str         w8,[sp]
	b           |$LN4@AuSHMUnmap|
|$LN2@AuSHMUnmap|
	ldr         w8,[sp]
	add         w8,w8,#1
	str         w8,[sp]
|$LN4@AuSHMUnmap|
	ldr         x8,[sp,#0x28]
	add         x8,x8,#0x440
	ldr         x8,[x8]
	ldr         w9,[x8]
	ldr         w8,[sp]
	cmp         w8,w9
	bhs         |$LN3@AuSHMUnmap|

; 361  : 		AuSHMMappings* maps = (AuSHMMappings*)list_get_at(proc->shmmaps, i);

	ldr         x8,[sp,#0x28]
	add         x8,x8,#0x440
	ldr         w1,[sp]
	ldr         x0,[x8]
	bl          list_get_at
	str         x0,[sp,#0x30]

; 362  : 		if (maps->shm == shm) {

	ldr         x8,[sp,#0x30]
	add         x8,x8,#0x10
	ldr         x9,[sp,#0x20]
	ldr         x8,[x8]
	cmp         x8,x9
	bne         |$LN9@AuSHMUnmap|

; 363  : 			mapping = maps;

	ldr         x8,[sp,#0x30]
	str         x8,[sp,#0x18]

; 364  : 			for (int i = 0; i < mapping->length / PAGE_SIZE; i++) {

	mov         w8,#0
	str         w8,[sp,#4]
	b           |$LN7@AuSHMUnmap|
|$LN5@AuSHMUnmap|
	ldr         w8,[sp,#4]
	add         w8,w8,#1
	str         w8,[sp,#4]
|$LN7@AuSHMUnmap|
	ldr         w8,[sp,#4]
	sxtw        x10,w8
	ldr         x8,[sp,#0x18]
	add         x8,x8,#8
	ldr         x9,[x8]
	mov         x8,#0x1000
	udiv        x8,x9,x8
	cmp         x10,x8
	bhs         |$LN6@AuSHMUnmap|

; 365  : 				AuVPage* vpage = AuVmmngrGetPage(mapping->start_addr + i * PAGE_SIZE, VIRT_GETPAGE_ONLY_RET, VIRT_GETPAGE_ONLY_RET);

	ldr         x10,[sp,#0x18]
	ldr         w8,[sp,#4]
	sxtw        x9,w8
	mov         x8,#0x1000
	mul         x9,x9,x8
	ldr         x8,[x10]
	add         x0,x8,x9
	mov         w2,#2
	mov         w1,#2
	bl          AuVmmngrGetPage
	str         x0,[sp,#0x10]

; 366  : 				if (vpage) {

	ldr         x8,[sp,#0x10]
	cmp         x8,#0
	beq         |$LN10@AuSHMUnmap|

; 367  : 					vpage->bits.page = 0;

	ldr         x8,[sp,#0x10]
	ldr         x8,[x8]
	and         x9,x8,#-0xFFFFFFFFF001
	ldr         x8,[sp,#0x10]
	str         x9,[x8]

; 368  : 					dsb_ish();

	bl          dsb_ish

; 369  : 					isb_flush();

	bl          isb_flush

; 370  : 					vpage->bits.present = 0;

	ldr         x8,[sp,#0x10]
	ldr         x8,[x8]
	and         x9,x8,#-2
	ldr         x8,[sp,#0x10]
	str         x9,[x8]

; 371  : 					dsb_ish();

	bl          dsb_ish

; 372  : 					isb_flush();

	bl          isb_flush
|$LN10@AuSHMUnmap|

; 373  : 					//tlb_flush((void*)(mapping->start_addr + i * PAGE_SIZE));
; 374  : 				}
; 375  : 			}

	b           |$LN5@AuSHMUnmap|
|$LN6@AuSHMUnmap|

; 376  : 			list_remove(proc->shmmaps, i);

	ldr         x8,[sp,#0x28]
	add         x8,x8,#0x440
	ldr         w1,[sp]
	ldr         x0,[x8]
	bl          list_remove

; 377  : 			kfree(mapping);

	ldr         x0,[sp,#0x18]
	bl          kfree

; 378  : 			break;

	b           |$LN3@AuSHMUnmap|
|$LN9@AuSHMUnmap|

; 379  : 		}
; 380  : 	}

	b           |$LN2@AuSHMUnmap|
|$LN3@AuSHMUnmap|

; 381  : 
; 382  : 
; 383  : 	AuSHMDelete(shm);

	ldr         x0,[sp,#0x20]
	bl          AuSHMDelete

; 384  : 	UARTDebugOut("%s Unmapping shm ->%d count \r\n", proc->name, shm->link_count);

	ldr         x8,[sp,#0x20]
	add         x8,x8,#0x18
	ldrh        w2,[x8]
	mov         w2,w2
	ldr         x1,[sp,#0x28]
	mov         w2,w2
	adrp        x8,|$SG3639|
	add         x0,x8,PageOffset(|$SG3639|)
	bl          UARTDebugOut
|$LN1@AuSHMUnmap|
	add         sp,sp,#0x40
	ldr         lr,[sp],#0x10
	ret

	ENDP  ; |AuSHMUnmap|

; Function compile flags: /Odtpy
; File C:\Users\paras\source\repos\grep-name\XenevaOS\KernelAA64\Mm\shm.c

	AREA	|.text$mn|, CODE, ARM64

|AuSHMObtainMem| PROC

; 226  : void* AuSHMObtainMem(AuProcess* proc, uint16_t id, void* shmaddr, int shmflg) {

|$LN23|
	str         lr,[sp,#-0x10]!
	sub         sp,sp,#0x90
	str         x0,[sp,#0x20]
	uxth        w8,w1
	strh        w8,[sp,#0x30]
	str         x2,[sp,#0x88]
	str         w3,[sp,#0x60]

; 227  : 	//AuAcquireSpinlock(shmlock);
; 228  : 	AuSHM* mem = NULL;

	mov         x8,#0
	str         x8,[sp,#8]

; 229  : 
; 230  : 	/* search for shm memory segment */
; 231  : 	mem = AuGetSHMByID(id);

	ldrh        w0,[sp,#0x30]
	bl          AuGetSHMByID
	str         x0,[sp,#8]

; 232  : 
; 233  : 	if (!mem)

	ldr         x8,[sp,#8]
	cmp         x8,#0
	bne         |$LN14@AuSHMObtai|

; 234  : 		return NULL;

	mov         x0,#0
	b           |$LN1@AuSHMObtai|
|$LN14@AuSHMObtai|

; 235  : 
; 236  : 
; 237  : 	AuSHMMappings* mappings = (AuSHMMappings*)kmalloc(sizeof(AuSHMMappings));

	mov         w0,#0x18
	bl          kmalloc
	str         x0,[sp,#0x10]

; 238  : 	memset(mappings, 0, sizeof(AuSHMMappings));

	mov         w2,#0x18
	mov         w1,#0
	ldr         x0,[sp,#0x10]
	bl          memset

; 239  : 
; 240  : 	mem->link_count++;

	ldr         x8,[sp,#8]
	add         x8,x8,#0x18
	ldrh        w8,[x8]
	add         w8,w8,#1
	uxth        w9,w8
	ldr         x8,[sp,#8]
	add         x8,x8,#0x18
	strh        w9,[x8]

; 241  : 
; 242  : 	envmdebug();

	bl          envmdebug

; 243  : 
; 244  : 	/* look for already available address space gap
; 245  : 	 * before increasing the process shm_break
; 246  : 	 */
; 247  : 	uint64_t last_addr = USER_SHARED_MEM_START;

	mov         x8,#0x80000000
	str         x8,[sp,#0x38]

; 248  : 	bool have_mappings = false;

	mov         w8,#0
	strb        w8,[sp]

; 249  : 	for (int i = 0; i < proc->shmmaps->pointer; i++) {

	mov         w8,#0
	str         w8,[sp,#0x28]
	b           |$LN4@AuSHMObtai|
|$LN2@AuSHMObtai|
	ldr         w8,[sp,#0x28]
	add         w8,w8,#1
	str         w8,[sp,#0x28]
|$LN4@AuSHMObtai|
	ldr         x8,[sp,#0x20]
	add         x8,x8,#0x440
	ldr         x8,[x8]
	ldr         w9,[x8]
	ldr         w8,[sp,#0x28]
	cmp         w8,w9
	bhs         |$LN3@AuSHMObtai|

; 250  : 		AuSHMMappings* maps = (AuSHMMappings*)list_get_at(proc->shmmaps, i);

	ldr         x8,[sp,#0x20]
	add         x8,x8,#0x440
	ldr         w1,[sp,#0x28]
	ldr         x0,[x8]
	bl          list_get_at
	str         x0,[sp,#0x40]

; 251  : 		if (!have_mappings)

	ldrb        w8,[sp]
	mov         w8,w8
	cmp         w8,#0
	bne         |$LN15@AuSHMObtai|

; 252  : 			have_mappings = true;

	mov         w8,#1
	strb        w8,[sp]
|$LN15@AuSHMObtai|

; 253  : 		if (maps->start_addr > last_addr) {

	ldr         x8,[sp,#0x40]
	ldr         x9,[sp,#0x38]
	ldr         x8,[x8]
	cmp         x8,x9
	bls         |$LN16@AuSHMObtai|

; 254  : 			size_t gap = maps->start_addr - last_addr;

	ldr         x8,[sp,#0x40]
	ldr         x9,[x8]
	ldr         x8,[sp,#0x38]
	sub         x8,x9,x8
	str         x8,[sp,#0x68]

; 255  : 			if (gap >= mem->num_frames * PAGE_SIZE) {

	ldr         x8,[sp,#8]
	add         x8,x8,#8
	ldr         x9,[x8]
	mov         x8,#0x1000
	mul         x9,x9,x8
	ldr         x8,[sp,#0x68]
	cmp         x8,x9
	blo         |$LN17@AuSHMObtai|

; 256  : 				for (int j = 0; j < mem->num_frames; j++) {

	mov         w8,#0
	str         w8,[sp,#0x18]
	b           |$LN7@AuSHMObtai|
|$LN5@AuSHMObtai|
	ldr         w8,[sp,#0x18]
	add         w8,w8,#1
	str         w8,[sp,#0x18]
|$LN7@AuSHMObtai|
	ldr         w8,[sp,#0x18]
	sxtw        x9,w8
	ldr         x8,[sp,#8]
	add         x8,x8,#8
	ldr         x8,[x8]
	cmp         x9,x8
	bhs         |$LN6@AuSHMObtai|

; 257  : 					size_t phys = mem->frames[j];

	ldr         x8,[sp,#8]
	add         x10,x8,#0x10
	ldr         w8,[sp,#0x18]
	sxtw        x9,w8
	mov         x8,#8
	mul         x9,x9,x8
	ldr         x8,[x10]
	add         x8,x8,x9
	ldr         x8,[x8]
	str         x8,[sp,#0x70]

; 258  : 					AuMapPage(phys, last_addr + j * PAGE_SIZE,PTE_NORMAL_MEM | PTE_AP_RW_USER);

	ldr         w8,[sp,#0x18]
	sxtw        x9,w8
	mov         x8,#0x1000
	mul         x9,x9,x8
	ldr         x8,[sp,#0x38]
	add         x1,x8,x9
	mov         w2,#0x44
	ldr         x0,[sp,#0x70]
	bl          AuMapPage

; 259  : 					isb_flush();

	bl          isb_flush

; 260  : 					dsb_ish();

	bl          dsb_ish

; 261  : 				}

	b           |$LN5@AuSHMObtai|
|$LN6@AuSHMObtai|

; 262  : 				mappings->start_addr = last_addr;

	ldr         x9,[sp,#0x10]
	ldr         x8,[sp,#0x38]
	str         x8,[x9]

; 263  : 				mappings->length = mem->num_frames * PAGE_SIZE;

	ldr         x8,[sp,#8]
	add         x8,x8,#8
	ldr         x9,[x8]
	mov         x8,#0x1000
	mul         x9,x9,x8
	ldr         x8,[sp,#0x10]
	add         x8,x8,#8
	str         x9,[x8]

; 264  : 				mappings->shm = mem;

	ldr         x8,[sp,#0x10]
	add         x9,x8,#0x10
	ldr         x8,[sp,#8]
	str         x8,[x9]

; 265  : 
; 266  : 				/* Here we need some sorting algorithm to sort
; 267  : 				 * out mappings in ascending order, like Bubble-sort
; 268  : 				 * algorithm between nodes of mappings
; 269  : 				 */
; 270  : 				list_add(proc->shmmaps, mappings);

	ldr         x8,[sp,#0x20]
	add         x8,x8,#0x440
	ldr         x1,[sp,#0x10]
	ldr         x0,[x8]
	bl          list_add

; 271  : 				//AuReleaseSpinlock(shmlock);
; 272  : 
; 273  : #if 0
; 274  : 				/* just for debugging purpose */
; 275  : 				for (int i = 0; i < proc->shmmaps->pointer; i++) {
; 276  : 					AuSHMMappings* map = (AuSHMMappings*)list_get_at(proc->shmmaps, i);
; 277  : 					SeTextOut("M -> %x \r\n", map->start_addr);
; 278  : 				}
; 279  : #endif
; 280  : 
; 281  : 				/* Now order the list, in ascending order */
; 282  : 				AuSHMProcOrderList(proc);

	ldr         x0,[sp,#0x20]
	bl          AuSHMProcOrderList

; 283  : 
; 284  : #if 0
; 285  : 				/* just for debugging purpose after sorting
; 286  : 				 * has been done
; 287  : 				 */
; 288  : 				SeTextOut("After ordering \r\n");
; 289  : 
; 290  : 				for (int i = 0; i < proc->shmmaps->pointer; i++) {
; 291  : 					AuSHMMappings* map = (AuSHMMappings*)list_get_at(proc->shmmaps, i);
; 292  : 					SeTextOut("M -> %x \r\n", map->start_addr);
; 293  : 				}
; 294  : #endif
; 295  : 
; 296  : 				return (void*)mappings->start_addr;

	ldr         x8,[sp,#0x10]
	ldr         x0,[x8]
	b           |$LN1@AuSHMObtai|
|$LN17@AuSHMObtai|
|$LN16@AuSHMObtai|

; 297  : 			}
; 298  : 		}
; 299  : 		last_addr = maps->start_addr + maps->length;

	ldr         x9,[sp,#0x40]
	ldr         x8,[sp,#0x40]
	add         x8,x8,#8
	ldr         x9,[x9]
	ldr         x8,[x8]
	add         x8,x9,x8
	str         x8,[sp,#0x38]

; 300  : 	}

	b           |$LN2@AuSHMObtai|
|$LN3@AuSHMObtai|

; 301  : 
; 302  : 	if (!have_mappings) {

	ldrb        w8,[sp]
	mov         w8,w8
	cmp         w8,#0
	bne         |$LN18@AuSHMObtai|

; 303  : 		size_t start_addr = USER_SHARED_MEM_START;

	mov         x8,#0x80000000
	str         x8,[sp,#0x48]

; 304  : 		if (proc->shm_break > start_addr) {

	ldr         x8,[sp,#0x20]
	add         x8,x8,#0x450
	ldr         x9,[sp,#0x48]
	ldr         x8,[x8]
	cmp         x8,x9
	bls         |$LN19@AuSHMObtai|

; 305  : 			size_t gap = proc->shm_break - start_addr;

	ldr         x8,[sp,#0x20]
	add         x8,x8,#0x450
	ldr         x9,[x8]
	ldr         x8,[sp,#0x48]
	sub         x8,x9,x8
	str         x8,[sp,#0x78]

; 306  : 			if (gap >= mem->num_frames * PAGE_SIZE) {

	ldr         x8,[sp,#8]
	add         x8,x8,#8
	ldr         x9,[x8]
	mov         x8,#0x1000
	mul         x9,x9,x8
	ldr         x8,[sp,#0x78]
	cmp         x8,x9
	blo         |$LN20@AuSHMObtai|

; 307  : 				for (int j = 0; j < mem->num_frames; j++) {

	mov         w8,#0
	str         w8,[sp,#0x1C]
	b           |$LN10@AuSHMObtai|
|$LN8@AuSHMObtai|
	ldr         w8,[sp,#0x1C]
	add         w8,w8,#1
	str         w8,[sp,#0x1C]
|$LN10@AuSHMObtai|
	ldr         w8,[sp,#0x1C]
	sxtw        x9,w8
	ldr         x8,[sp,#8]
	add         x8,x8,#8
	ldr         x8,[x8]
	cmp         x9,x8
	bhs         |$LN9@AuSHMObtai|

; 308  : 					size_t phys = mem->frames[j];

	ldr         x8,[sp,#8]
	add         x10,x8,#0x10
	ldr         w8,[sp,#0x1C]
	sxtw        x9,w8
	mov         x8,#8
	mul         x9,x9,x8
	ldr         x8,[x10]
	add         x8,x8,x9
	ldr         x8,[x8]
	str         x8,[sp,#0x50]

; 309  : 					AuPmmngrAddRefcount(phys, 1);

	mov         w1,#1
	ldr         x0,[sp,#0x50]
	bl          AuPmmngrAddRefcount

; 310  : 					AuMapPage(phys, last_addr + j * PAGE_SIZE, PTE_AP_RW_USER);

	ldr         w8,[sp,#0x1C]
	sxtw        x9,w8
	mov         x8,#0x1000
	mul         x9,x9,x8
	ldr         x8,[sp,#0x38]
	add         x1,x8,x9
	mov         w2,#0x40
	ldr         x0,[sp,#0x50]
	bl          AuMapPage

; 311  : 					isb_flush();

	bl          isb_flush

; 312  : 					dsb_ish();

	bl          dsb_ish

; 313  : 				}

	b           |$LN8@AuSHMObtai|
|$LN9@AuSHMObtai|

; 314  : 				mappings->start_addr = last_addr;

	ldr         x9,[sp,#0x10]
	ldr         x8,[sp,#0x38]
	str         x8,[x9]

; 315  : 				mappings->length = mem->num_frames * PAGE_SIZE;

	ldr         x8,[sp,#8]
	add         x8,x8,#8
	ldr         x9,[x8]
	mov         x8,#0x1000
	mul         x9,x9,x8
	ldr         x8,[sp,#0x10]
	add         x8,x8,#8
	str         x9,[x8]

; 316  : 				mappings->shm = mem;

	ldr         x8,[sp,#0x10]
	add         x9,x8,#0x10
	ldr         x8,[sp,#8]
	str         x8,[x9]

; 317  : 				list_add(proc->shmmaps, mappings);

	ldr         x8,[sp,#0x20]
	add         x8,x8,#0x440
	ldr         x1,[sp,#0x10]
	ldr         x0,[x8]
	bl          list_add

; 318  : 				/* Now order the list, in ascending order */
; 319  : 				AuSHMProcOrderList(proc);

	ldr         x0,[sp,#0x20]
	bl          AuSHMProcOrderList

; 320  : 				//AuReleaseSpinlock(shmlock);
; 321  : 				return (void*)mappings->start_addr;

	ldr         x8,[sp,#0x10]
	ldr         x0,[x8]
	b           |$LN1@AuSHMObtai|
|$LN20@AuSHMObtai|
|$LN19@AuSHMObtai|
|$LN18@AuSHMObtai|

; 322  : 			}
; 323  : 		}
; 324  : 	}
; 325  : 
; 326  : 	/* finally, we need to increase the shm break */
; 327  : 	for (int i = 0; i < mem->num_frames; i++) {

	mov         w8,#0
	str         w8,[sp,#0x2C]
	b           |$LN13@AuSHMObtai|
|$LN11@AuSHMObtai|
	ldr         w8,[sp,#0x2C]
	add         w8,w8,#1
	str         w8,[sp,#0x2C]
|$LN13@AuSHMObtai|
	ldr         w8,[sp,#0x2C]
	sxtw        x9,w8
	ldr         x8,[sp,#8]
	add         x8,x8,#8
	ldr         x8,[x8]
	cmp         x9,x8
	bhs         |$LN12@AuSHMObtai|

; 328  : 		uint64_t phys_addr = mem->frames[i];

	ldr         x8,[sp,#8]
	add         x10,x8,#0x10
	ldr         w8,[sp,#0x2C]
	sxtw        x9,w8
	mov         x8,#8
	mul         x9,x9,x8
	ldr         x8,[x10]
	add         x8,x8,x9
	ldr         x8,[x8]
	str         x8,[sp,#0x80]

; 329  : 		uint64_t current_virt = AuSHMProcBreak(proc, 1);

	mov         x1,#1
	ldr         x0,[sp,#0x20]
	bl          AuSHMProcBreak
	str         x0,[sp,#0x58]

; 330  : 		AuMapPage((uint64_t)phys_addr, current_virt,PTE_NORMAL_MEM | PTE_AP_RW_USER);

	mov         w2,#0x44
	ldr         x1,[sp,#0x58]
	ldr         x0,[sp,#0x80]
	bl          AuMapPage

; 331  : 		if (mappings->start_addr == 0)

	ldr         x8,[sp,#0x10]
	ldr         x8,[x8]
	cmp         x8,#0
	bne         |$LN21@AuSHMObtai|

; 332  : 			mappings->start_addr = current_virt;

	ldr         x9,[sp,#0x10]
	ldr         x8,[sp,#0x58]
	str         x8,[x9]
|$LN21@AuSHMObtai|

; 333  : 	}

	b           |$LN11@AuSHMObtai|
|$LN12@AuSHMObtai|

; 334  : 
; 335  : 	mappings->length = mem->num_frames * PAGE_SIZE;

	ldr         x8,[sp,#8]
	add         x8,x8,#8
	ldr         x9,[x8]
	mov         x8,#0x1000
	mul         x9,x9,x8
	ldr         x8,[sp,#0x10]
	add         x8,x8,#8
	str         x9,[x8]

; 336  : 	mappings->shm = mem;

	ldr         x8,[sp,#0x10]
	add         x9,x8,#0x10
	ldr         x8,[sp,#8]
	str         x8,[x9]

; 337  : 	list_add(proc->shmmaps, mappings);

	ldr         x8,[sp,#0x20]
	add         x8,x8,#0x440
	ldr         x1,[sp,#0x10]
	ldr         x0,[x8]
	bl          list_add

; 338  : 	/* Now order the list, in ascending order */
; 339  : 	AuSHMProcOrderList(proc);

	ldr         x0,[sp,#0x20]
	bl          AuSHMProcOrderList

; 340  : 	//AuReleaseSpinlock(shmlock);
; 341  : 	return (void*)mappings->start_addr;

	ldr         x8,[sp,#0x10]
	ldr         x0,[x8]
|$LN1@AuSHMObtai|
	add         sp,sp,#0x90
	ldr         lr,[sp],#0x10
	ret

	ENDP  ; |AuSHMObtainMem|

; Function compile flags: /Odtpy
; File C:\Users\paras\source\repos\grep-name\XenevaOS\KernelAA64\Mm\shm.c

	AREA	|.text$mn|, CODE, ARM64

|AuCreateSHM| PROC

; 105  : int AuCreateSHM(AuProcess* proc, uint16_t key, size_t sz, uint8_t flags) {

|$LN12|
	str         lr,[sp,#-0x10]!
	sub         sp,sp,#0x30
	str         x0,[sp,#0x18]
	uxth        w8,w1
	strh        w8,[sp,#2]
	str         x2,[sp,#0x20]
	uxtb        w8,w3
	strb        w8,[sp]

; 106  : 	AuSHM* shm = NULL;

	mov         x8,#0
	str         x8,[sp,#0x10]

; 107  : 	//AuAcquireSpinlock(shmlock);
; 108  : 	if (key > UINT16_MAX) {

	ldrh        w9,[sp,#2]
	mov         w9,w9
	mov         w8,#0xFFFF
	cmp         w9,w8
	ble         |$LN5@AuCreateSH|

; 109  : 		//AuReleaseSpinlock(shmlock);
; 110  : 		UARTDebugOut("[SHM] Creation failed, key exceeds limitation \r\n");

	adrp        x8,|$SG3503|
	add         x0,x8,PageOffset(|$SG3503|)
	bl          UARTDebugOut

; 111  : 		return -1;

	mov         w0,#-1
	b           |$LN1@AuCreateSH|
|$LN5@AuCreateSH|

; 112  : 	}
; 113  : 	/*  search if it's already created */
; 114  : 	shm = AuGetSHMSeg(key);

	ldrh        w0,[sp,#2]
	bl          AuGetSHMSeg
	str         x0,[sp,#0x10]

; 115  : 	/* create a new*/
; 116  : 	if (!shm) {

	ldr         x8,[sp,#0x10]
	cmp         x8,#0
	bne         |$LN6@AuCreateSH|

; 117  : 		if (proc) {

	ldr         x8,[sp,#0x18]
	cmp         x8,#0
	beq         |$LN7@AuCreateSH|

; 118  : 			UARTDebugOut("Creating shm for proc : %s \r\n", proc->name);

	ldr         x1,[sp,#0x18]
	adrp        x8,|$SG3506|
	add         x0,x8,PageOffset(|$SG3506|)
	bl          UARTDebugOut
|$LN7@AuCreateSH|

; 119  : 		}
; 120  : 		shm = (AuSHM*)kmalloc(sizeof(AuSHM));

	mov         w0,#0x20
	bl          kmalloc
	str         x0,[sp,#0x10]

; 121  : 		memset(shm, 0, sizeof(AuSHM));

	mov         w2,#0x20
	mov         w1,#0
	ldr         x0,[sp,#0x10]
	bl          memset

; 122  : 		shm->id = AuSHMGetID();

	bl          AuSHMGetID
	uxth        w9,w0
	ldr         x8,[sp,#0x10]
	add         x8,x8,#2
	strh        w9,[x8]

; 123  : 		shm->key = key;

	ldr         x9,[sp,#0x10]
	ldrh        w8,[sp,#2]
	strh        w8,[x9]

; 124  : 		shm->num_frames = (sz / 0x1000) + ((sz % 0x1000) ? 1 : 0);

	ldr         x10,[sp,#0x20]
	mov         x9,#0x1000
	udiv        x8,x10,x9
	mul         x8,x8,x9
	sub         x8,x10,x8
	cmp         x8,#0
	beq         |$LN10@AuCreateSH|
	mov         w8,#1
	str         w8,[sp,#8]
	b           |$LN11@AuCreateSH|
|$LN10@AuCreateSH|
	mov         w8,#0
	str         w8,[sp,#8]
|$LN11@AuCreateSH|
	ldr         x9,[sp,#0x20]
	mov         x8,#0x1000
	udiv        x9,x9,x8
	ldr         w8,[sp,#8]
	sxtw        x8,w8
	add         x9,x9,x8
	ldr         x8,[sp,#0x10]
	add         x8,x8,#8
	str         x9,[x8]

; 125  : 		shm->link_count = 0;

	ldr         x8,[sp,#0x10]
	add         x9,x8,#0x18
	mov         w8,#0
	strh        w8,[x9]

; 126  : 		shm->frames = (uint64_t*)kmalloc(sizeof(uint64_t) * shm->num_frames);

	ldr         x8,[sp,#0x10]
	add         x8,x8,#8
	ldr         x9,[x8]
	mov         x8,#8
	mul         x8,x9,x8
	mov         w0,w8
	mov         w0,w0
	bl          kmalloc
	ldr         x8,[sp,#0x10]
	add         x8,x8,#0x10
	str         x0,[x8]

; 127  : 		for (int i = 0; i < shm->num_frames; i++) 

	mov         w8,#0
	str         w8,[sp,#4]
	b           |$LN4@AuCreateSH|
|$LN2@AuCreateSH|
	ldr         w8,[sp,#4]
	add         w8,w8,#1
	str         w8,[sp,#4]
|$LN4@AuCreateSH|
	ldr         w8,[sp,#4]
	sxtw        x9,w8
	ldr         x8,[sp,#0x10]
	add         x8,x8,#8
	ldr         x8,[x8]
	cmp         x9,x8
	bhs         |$LN3@AuCreateSH|

; 128  : 			shm->frames[i] = (uint64_t)AuPmmngrAlloc();

	bl          AuPmmngrAlloc
	ldr         x8,[sp,#0x10]
	add         x10,x8,#0x10
	ldr         w8,[sp,#4]
	sxtw        x9,w8
	mov         x8,#8
	mul         x9,x9,x8
	ldr         x8,[x10]
	add         x8,x8,x9
	str         x0,[x8]
	b           |$LN2@AuCreateSH|
|$LN3@AuCreateSH|

; 129  : 	
; 130  : 		
; 131  : 		list_add(shm_list, shm);

	ldr         x1,[sp,#0x10]
	adrp        x8,shm_list
	ldr         x0,[x8,PageOffset(shm_list)]
	bl          list_add
|$LN6@AuCreateSH|

; 132  : 	}
; 133  : 
; 134  : 	if (!shm) {

	ldr         x8,[sp,#0x10]
	cmp         x8,#0
	bne         |$LN8@AuCreateSH|

; 135  : 		//AuReleaseSpinlock(shmlock);
; 136  : 		return -1;

	mov         w0,#-1
	b           |$LN1@AuCreateSH|
|$LN8@AuCreateSH|

; 137  : 	}
; 138  : 
; 139  : 	//AuReleaseSpinlock(shmlock);
; 140  : 	return shm->id;

	ldr         x8,[sp,#0x10]
	add         x8,x8,#2
	ldrh        w0,[x8]
	mov         w0,w0
	mov         w0,w0
|$LN1@AuCreateSH|
	add         sp,sp,#0x30
	ldr         lr,[sp],#0x10
	ret

	ENDP  ; |AuCreateSHM|

; Function compile flags: /Odtpy
; File C:\Users\paras\source\repos\grep-name\XenevaOS\KernelAA64\Mm\shm.c

	AREA	|.text$mn|, CODE, ARM64

|AuGetSHMByID| PROC

; 87   : AuSHM* AuGetSHMByID(uint16_t id) {

|$LN7|
	str         lr,[sp,#-0x10]!
	sub         sp,sp,#0x10
	uxth        w8,w0
	strh        w8,[sp]

; 88   : 	for (int i = 0; i < shm_list->pointer; i++) {

	mov         w8,#0
	str         w8,[sp,#4]
	b           |$LN4@AuGetSHMBy|
|$LN2@AuGetSHMBy|
	ldr         w8,[sp,#4]
	add         w8,w8,#1
	str         w8,[sp,#4]
|$LN4@AuGetSHMBy|
	adrp        x8,shm_list
	ldr         x8,[x8,PageOffset(shm_list)]
	ldr         w9,[x8]
	ldr         w8,[sp,#4]
	cmp         w8,w9
	bhs         |$LN3@AuGetSHMBy|

; 89   : 		AuSHM* shm = (AuSHM*)list_get_at(shm_list, i);

	ldr         w1,[sp,#4]
	adrp        x8,shm_list
	ldr         x0,[x8,PageOffset(shm_list)]
	bl          list_get_at
	str         x0,[sp,#8]

; 90   : 		if (shm->id == id)

	ldr         x8,[sp,#8]
	add         x8,x8,#2
	ldrh        w9,[x8]
	mov         w9,w9
	ldrh        w8,[sp]
	mov         w8,w8
	cmp         w9,w8
	bne         |$LN5@AuGetSHMBy|

; 91   : 			return shm;

	ldr         x0,[sp,#8]
	b           |$LN1@AuGetSHMBy|
|$LN5@AuGetSHMBy|

; 92   : 	}

	b           |$LN2@AuGetSHMBy|
|$LN3@AuGetSHMBy|

; 93   : 
; 94   : 	return NULL;

	mov         x0,#0
|$LN1@AuGetSHMBy|
	add         sp,sp,#0x10
	ldr         lr,[sp],#0x10
	ret

	ENDP  ; |AuGetSHMByID|

; Function compile flags: /Odtpy
; File C:\Users\paras\source\repos\grep-name\XenevaOS\KernelAA64\Mm\shm.c

	AREA	|.text$mn|, CODE, ARM64

|AuInitialiseSHMMan| PROC

; 50   : void AuInitialiseSHMMan() {

|$LN3|
	str         lr,[sp,#-0x10]!

; 51   : 	shm_list = initialize_list();

	bl          initialize_list
	adrp        x8,shm_list
	str         x0,[x8,PageOffset(shm_list)]

; 52   : 	shm_id = 1;

	adrp        x9,shm_id
	mov         w8,#1
	strh        w8,[x9,PageOffset(shm_id)]
	ldr         lr,[sp],#0x10
	ret

	ENDP  ; |AuInitialiseSHMMan|

	END
