; Listing generated by Microsoft (R) Optimizing Compiler Version 19.29.30159.0 

	TTL	C:\Users\paras\source\repos\grep-name\XenevaOS\KernelAA64\ARM64\Debug\sndcore.obj
	ARM64

	AREA	|.drectve|, DRECTVE


	AREA	|.data|, DATA
	 COMMON	|_cards|, 0x800


	AREA	|.bss|, NOINIT
|dsp_first| %	0x8
|dsp_last| %	0x8
|mixbuf| %	0x8
|_audio_started_| % 0x1
|_audio_stopped_| % 0x1
	EXPORT	|AuSoundInitialise|
	EXPORT	|AuSoundRemoveDSP|
	EXPORT	|AuSoundRegisterCard|
	EXPORT	|AuSoundAddDSP|
	EXPORT	|AuRemoveDSP|
	EXPORT	|AuSoundGetDSP|
	EXPORT	|AuSoundIOControl|
	EXPORT	|AuSoundRead|
	EXPORT	|AuSoundWrite|
	IMPORT	|AuCircBufInitialise|
	IMPORT	|AuCircBufFree|
	IMPORT	|AuCircBufPut|
	IMPORT	|CircBufFull|
	IMPORT	|AuGetCurrentThread|
	IMPORT	|kmalloc|
	IMPORT	|kfree|
	IMPORT	|AuVFSFind|
	IMPORT	|AuTextOut|
	IMPORT	|UARTDebugOut|
	IMPORT	|AuPmmngrAlloc|
	IMPORT	|AuPmmngrFree|
	IMPORT	|P2V|
	IMPORT	|V2P|
	IMPORT	|memset|
	IMPORT	|strcpy|
	IMPORT	|AuDevFSAddFile|

	AREA	|.pdata|, PDATA
|$pdata$AuSoundInitialise| DCD imagerel |$LN6|
	DCD	0x1a00169
	;Flags[SingleProEpi] functionLength[360] RegF[0] RegI[0] H[0] frameChainReturn[UnChainedSavedLR] frameSize[48]
|$pdata$AuSoundRemoveDSP| DCD imagerel |$LN4|
	DCD	0x1200065
	;Flags[SingleProEpi] functionLength[100] RegF[0] RegI[0] H[0] frameChainReturn[UnChainedSavedLR] frameSize[32]
|$pdata$AuSoundRegisterCard| DCD imagerel |$LN4|
	DCD	0x120006d
	;Flags[SingleProEpi] functionLength[108] RegF[0] RegI[0] H[0] frameChainReturn[UnChainedSavedLR] frameSize[32]
|$pdata$AuSoundAddDSP| DCD imagerel |$LN5|
	DCD	0x800091
	;Flags[SingleProEpi] functionLength[144] RegF[0] RegI[0] H[0] frameChainReturn[UnChained] frameSize[16]
|$pdata$AuRemoveDSP| DCD imagerel |$LN8|
	DCD	0x8000c1
	;Flags[SingleProEpi] functionLength[192] RegF[0] RegI[0] H[0] frameChainReturn[UnChained] frameSize[16]
|$pdata$AuSoundGetDSP| DCD imagerel |$LN7|
	DCD	0x800071
	;Flags[SingleProEpi] functionLength[112] RegF[0] RegI[0] H[0] frameChainReturn[UnChained] frameSize[16]
|$pdata$_AuSoundGetFreeID| DCD imagerel |_AuSoundGetFreeID|
	DCD	0x800069
	;Flags[SingleProEpi] functionLength[104] RegF[0] RegI[0] H[0] frameChainReturn[UnChained] frameSize[16]
|$pdata$AuSoundIOControl| DCD imagerel |$LN39|
	DCD	0x3a0033d
	;Flags[SingleProEpi] functionLength[828] RegF[0] RegI[0] H[0] frameChainReturn[UnChainedSavedLR] frameSize[112]
|$pdata$AuSoundRead| DCD imagerel |$LN3|
	DCD	0x1000021
	;Flags[SingleProEpi] functionLength[32] RegF[0] RegI[0] H[0] frameChainReturn[UnChained] frameSize[32]
|$pdata$AuSoundWrite| DCD imagerel |$LN10|
	DCD	0x2a0015d
	;Flags[SingleProEpi] functionLength[348] RegF[0] RegI[0] H[0] frameChainReturn[UnChainedSavedLR] frameSize[80]

	AREA	|.data|, DATA
|$SG3420| DCB	"Registering sound player ", 0xd, 0xa, 0x0
|$SG3481| DCB	"/", 0x0
	%	2
|$SG3421| DCB	"buffer : %x ", 0xd, 0xa, 0x0
	%	1
|$SG3422| DCB	"UINT_2 value : %d ", 0xd, 0xa, 0x0
	%	3
|$SG3425| DCB	"Sound registered successfully ", 0xd, 0xa, 0x0
	%	3
|$SG3479| DCB	"/dev", 0x0
	%	3
|$SG3480| DCB	"sound", 0x0
	%	6
|$SG3482| DCB	"[aurora]: sound initialized ", 0xd, 0xa, 0x0
	%	1
|$SG3495| DCB	"[aurora]: sound no free slot available for new card ", 0xd
	DCB	0xa, 0x0
; Function compile flags: /Odtpy
; File C:\Users\paras\source\repos\grep-name\XenevaOS\KernelAA64\Sound\sndcore.c

	AREA	|.text$mn|, CODE, ARM64

|AuSoundWrite| PROC

; 222  : size_t AuSoundWrite(AuVFSNode* fsys, AuVFSNode* file, uint64_t* buffer, uint32_t length) {

|$LN10|
	str         lr,[sp,#-0x10]!
	sub         sp,sp,#0x40
	str         x0,[sp,#0x30]
	str         x1,[sp,#0x38]
	str         x2,[sp,#0x18]
	str         w3,[sp,#4]

; 223  : 	AA64Thread* t = AuGetCurrentThread();

	bl          AuGetCurrentThread
	str         x0,[sp,#0x20]

; 224  : 	AuDSP* dsp = AuSoundGetDSP(t->thread_id);

	ldr         x8,[sp,#0x20]
	add         x8,x8,#0xF0
	ldr         x8,[x8]
	uxth        w0,w8
	mov         w0,w0
	bl          AuSoundGetDSP
	str         x0,[sp,#8]

; 225  : 	uint8_t* aligned_buf = (uint8_t*)buffer;

	ldr         x8,[sp,#0x18]
	str         x8,[sp,#0x28]

; 226  : 	/** see if dps has card attached to it, also
; 227  : 	 * verify if the card is in force write mode
; 228  : 	 */
; 229  : 	if (dsp->_cardID != -1) {

	ldr         x8,[sp,#8]
	add         x8,x8,#0xA
	ldrsh       w8,[x8]
	mov         w8,w8
	cmn         w8,#1
	beq         |$LN5@AuSoundWri|

; 230  : 		AuSound* card = _cards[dsp->_cardID];

	ldr         x8,[sp,#8]
	add         x8,x8,#0xA
	ldrsh       w8,[x8]
	sxtw        x9,w8
	mov         x8,#8
	mul         x9,x9,x8
	adrp        x8,_cards
	add         x8,x8,PageOffset(_cards)
	add         x8,x8,x9
	ldr         x8,[x8]
	str         x8,[sp,#0x10]

; 231  : 		if (card)

	ldr         x8,[sp,#0x10]
	cmp         x8,#0
	beq         |$LN6@AuSoundWri|

; 232  : 			if (card->_force_write) {

	ldr         x8,[sp,#0x10]
	add         x8,x8,#0x50
	ldrb        w8,[x8]
	mov         w8,w8
	cmp         w8,#0
	beq         |$LN7@AuSoundWri|

; 233  : 				card->write((uint8_t*)buffer, length);

	ldr         w8,[sp,#4]
	uxtw        x1,w8
	ldr         x8,[sp,#0x10]
	add         x8,x8,#0x20
	ldr         x0,[sp,#0x18]
	ldr         x8,[x8]
	blr         x8

; 234  : 				return length;

	ldr         w8,[sp,#4]
	uxtw        x0,w8
	b           |$LN1@AuSoundWri|
|$LN7@AuSoundWri|
|$LN6@AuSoundWri|
|$LN5@AuSoundWri|

; 235  : 			}
; 236  : 	}
; 237  : 
; 238  : 
; 239  : 	if (CircBufFull(dsp->buffer)) {

	ldr         x8,[sp,#8]
	ldr         x0,[x8]
	bl          CircBufFull
	uxtb        w8,w0
	mov         w8,w8
	cmp         w8,#0
	beq         |$LN8@AuSoundWri|

; 240  : 		/*AuBlockThread(dsp->SndThread);
; 241  : 		AuForceScheduler();*/
; 242  : 		return -1;

	mov         x0,#-1
	b           |$LN1@AuSoundWri|
|$LN8@AuSoundWri|

; 243  : 	}
; 244  : 	for (int i = 0; i < SND_BUFF_SZ; i++) { //

	mov         w8,#0
	str         w8,[sp]
	b           |$LN4@AuSoundWri|
|$LN2@AuSoundWri|
	ldr         w8,[sp]
	add         w8,w8,#1
	str         w8,[sp]
|$LN4@AuSoundWri|
	ldr         w8,[sp]
	sxtw        x8,w8
	cmp         x8,#1,lsl #0xC
	bhs         |$LN3@AuSoundWri|

; 245  : 		AuCircBufPut(dsp->buffer, aligned_buf[i]);

	ldr         w8,[sp]
	sxtw        x9,w8
	mov         x8,#1
	mul         x9,x9,x8
	ldr         x8,[sp,#0x28]
	add         x9,x8,x9
	ldr         x8,[sp,#8]
	ldrb        w1,[x9]
	ldr         x0,[x8]
	bl          AuCircBufPut

; 246  : 	}

	b           |$LN2@AuSoundWri|
|$LN3@AuSoundWri|

; 247  : 	return SND_BUFF_SZ;

	mov         x0,#0x1000
|$LN1@AuSoundWri|
	add         sp,sp,#0x40
	ldr         lr,[sp],#0x10
	ret

	ENDP  ; |AuSoundWrite|

; Function compile flags: /Odtpy
; File C:\Users\paras\source\repos\grep-name\XenevaOS\KernelAA64\Sound\sndcore.c

	AREA	|.text$mn|, CODE, ARM64

|AuSoundRead| PROC

; 217  : size_t AuSoundRead(AuVFSNode* fsys, AuVFSNode* file, uint64_t* buffer, uint32_t length) {

|$LN3|
	sub         sp,sp,#0x20
	str         x0,[sp,#8]
	str         x1,[sp,#0x10]
	str         x2,[sp,#0x18]
	str         w3,[sp]

; 218  : 	/** NOT implemented yet **/
; 219  : 	return 0;

	mov         x0,#0
	add         sp,sp,#0x20
	ret

	ENDP  ; |AuSoundRead|

; Function compile flags: /Odtpy
; File C:\Users\paras\source\repos\grep-name\XenevaOS\KernelAA64\Sound\sndcore.c

	AREA	|.text$mn|, CODE, ARM64

|AuSoundIOControl| PROC

; 147  : int AuSoundIOControl(AuVFSNode* node, int code, void* arg) {

|$LN39|
	str         lr,[sp,#-0x10]!
	sub         sp,sp,#0x60
	str         x0,[sp,#0x58]
	str         w1,[sp,#0x38]
	str         x2,[sp,#0x48]

; 148  : 	AuFileIOControl* _ioctl = (AuFileIOControl*)arg;

	ldr         x8,[sp,#0x48]
	str         x8,[sp,#0x18]

; 149  : 
; 150  : 	AA64Thread* thr = AuGetCurrentThread();

	bl          AuGetCurrentThread
	str         x0,[sp,#0x30]

; 151  : 	switch (code)

	ldr         w8,[sp,#0x38]
	str         w8,[sp,#4]
	ldr         w8,[sp,#4]
	sub         w8,w8,#0x64
	str         w8,[sp,#4]
	ldr         w8,[sp,#4]
	cmp         w8,#0xE
	bhi         |$LN20@AuSoundIOC|
	ldr         w10,[sp,#4]
	adr         x9,__swt
	ldrsw       x8,[x9,w10 uxtw #2]
	adr         x9,|$LN23@AuSoundIOC|
	add         x8,x9,x8,lsl #2
	br          x8
|$LN10@AuSoundIOC|

; 152  : 	{
; 153  : 	case SOUND_REGISTER_SNDPLR: {
; 154  : 		UARTDebugOut("Registering sound player \r\n");

	adrp        x8,|$SG3420|
	add         x0,x8,PageOffset(|$SG3420|)
	bl          UARTDebugOut

; 155  : 		AuDSP* dsp = (AuDSP*)kmalloc(sizeof(AuDSP));

	mov         w0,#0x38
	bl          kmalloc
	str         x0,[sp,#0x10]

; 156  : 		memset(dsp, 0, sizeof(AuDSP));

	mov         x2,#0x38
	mov         w1,#0
	ldr         x0,[sp,#0x10]
	bl          memset

; 157  : 		uint8_t* buffer = (uint8_t*)P2V((size_t)AuPmmngrAlloc());

	bl          AuPmmngrAlloc
	bl          P2V
	str         x0,[sp,#0x40]

; 158  : 		UARTDebugOut("buffer : %x \r\n", buffer);

	ldr         x1,[sp,#0x40]
	adrp        x8,|$SG3421|
	add         x0,x8,PageOffset(|$SG3421|)
	bl          UARTDebugOut

; 159  : 		memset(buffer, 0, PAGE_SIZE);

	mov         x2,#0x1000
	mov         w1,#0
	ldr         x0,[sp,#0x40]
	bl          memset

; 160  : 		dsp->buffer = AuCircBufInitialise(buffer, SND_BUFF_SZ);

	mov         x1,#0x1000
	ldr         x0,[sp,#0x40]
	bl          AuCircBufInitialise
	ldr         x8,[sp,#0x10]
	str         x0,[x8]

; 161  : 		dsp->_dsp_id = thr->thread_id;

	ldr         x8,[sp,#0x30]
	add         x10,x8,#0xF0
	ldr         x8,[sp,#0x10]
	add         x9,x8,#8
	ldr         x8,[x10]
	uxth        w8,w8
	strh        w8,[x9]

; 162  : 		dsp->SndThread = thr;

	ldr         x8,[sp,#0x10]
	add         x9,x8,#0x10
	ldr         x8,[sp,#0x30]
	str         x8,[x9]

; 163  : 		dsp->sleep_time = _ioctl->uint_1;

	ldr         x8,[sp,#0x18]
	add         x10,x8,#0xC
	ldr         x8,[sp,#0x10]
	add         x9,x8,#0x18
	ldr         w8,[x10]
	uxtw        x8,w8
	str         x8,[x9]

; 164  : 		dsp->available = true;

	ldr         x8,[sp,#0x10]
	add         x9,x8,#0x20
	mov         w8,#1
	strb        w8,[x9]

; 165  : 		UARTDebugOut("UINT_2 value : %d \r\n", _ioctl->uint_2);

	ldr         x8,[sp,#0x18]
	add         x8,x8,#0x10
	ldr         w1,[x8]
	adrp        x8,|$SG3422|
	add         x0,x8,PageOffset(|$SG3422|)
	bl          UARTDebugOut

; 166  : 		if (_ioctl->uint_2 != UINT32_MAX) 

	ldr         x8,[sp,#0x18]
	add         x8,x8,#0x10
	ldr         w8,[x8]
	cmn         w8,#1
	beq         |$LN11@AuSoundIOC|

; 167  : 			dsp->_cardID = _ioctl->uint_2;

	ldr         x8,[sp,#0x18]
	add         x10,x8,#0x10
	ldr         x8,[sp,#0x10]
	add         x9,x8,#0xA
	ldr         w8,[x10]
	sxth        w8,w8
	strh        w8,[x9]
	b           |$LN12@AuSoundIOC|
|$LN11@AuSoundIOC|

; 168  : 		else 
; 169  : 			dsp->_cardID = -1;

	ldr         x8,[sp,#0x10]
	add         x9,x8,#0xA
	mov         w8,#-1
	strh        w8,[x9]
|$LN12@AuSoundIOC|

; 170  : 		UARTDebugOut("Sound registered successfully \r\n");

	adrp        x8,|$SG3425|
	add         x0,x8,PageOffset(|$SG3425|)
	bl          UARTDebugOut

; 171  : 		AuSoundAddDSP(dsp);

	ldr         x0,[sp,#0x10]
	bl          AuSoundAddDSP

; 172  : 		break;

	b           |$LN2@AuSoundIOC|
|$LN13@AuSoundIOC|

; 173  : 	}
; 174  : 	case SOUND_READ_AVAIL: {
; 175  : 		AuDSP* dsp_ = AuSoundGetDSP(thr->thread_id);

	ldr         x8,[sp,#0x30]
	add         x8,x8,#0xF0
	ldr         x8,[x8]
	uxth        w0,w8
	mov         w0,w0
	bl          AuSoundGetDSP
	str         x0,[sp,#0x50]

; 176  : 		_ioctl->uchar_2 = dsp_->available;

	ldr         x8,[sp,#0x50]
	add         x10,x8,#0x20
	ldr         x8,[sp,#0x18]
	add         x9,x8,#5
	ldrb        w8,[x10]
	strb        w8,[x9]

; 177  : 		break;

	b           |$LN2@AuSoundIOC|

; 178  : 	}
; 179  : 	case SOUND_SET_VOLUME: {
; 180  : 		break;

	b           |$LN2@AuSoundIOC|
|$LN15@AuSoundIOC|
|$LN23@AuSoundIOC|

; 181  : 	}
; 182  : 	case SOUND_UNREGISTER_SNDPLR: {
; 183  : 		AuSoundRemoveDSP(thr->thread_id);

	ldr         x8,[sp,#0x30]
	add         x8,x8,#0xF0
	ldr         x8,[x8]
	uxth        w0,w8
	mov         w0,w0
	bl          AuSoundRemoveDSP

; 184  : 		break;

	b           |$LN2@AuSoundIOC|
|$LN16@AuSoundIOC|

; 185  : 	}
; 186  : 	case SOUND_GET_CARD_LIST: {
; 187  : 		if (_ioctl->ulong_1 == 0)

	ldr         x8,[sp,#0x18]
	add         x8,x8,#0x18
	ldr         x8,[x8]
	cmp         x8,#0
	bne         |$LN17@AuSoundIOC|

; 188  : 			return 1;

	mov         w0,#1
	b           |$LN1@AuSoundIOC|
|$LN17@AuSoundIOC|

; 189  : 		aurora_snd_card_list* list = (aurora_snd_card_list*)_ioctl->ulong_1;

	ldr         x8,[sp,#0x18]
	add         x8,x8,#0x18
	ldr         x8,[x8]
	str         x8,[sp,#0x28]

; 190  : 		int num_card_count = _ioctl->uint_1;

	ldr         x8,[sp,#0x18]
	add         x8,x8,#0xC
	ldr         w8,[x8]
	str         w8,[sp,#0x3C]

; 191  : 
; 192  : 		for (int i = 0; i < num_card_count; i++) {

	mov         w8,#0
	str         w8,[sp]
	b           |$LN6@AuSoundIOC|
|$LN4@AuSoundIOC|
	ldr         w8,[sp]
	add         w8,w8,#1
	str         w8,[sp]
|$LN6@AuSoundIOC|
	ldr         w9,[sp,#0x3C]
	ldr         w8,[sp]
	cmp         w8,w9
	bge         |$LN5@AuSoundIOC|

; 193  : 			strcpy(list->name, _cards[i]->name);

	ldr         w8,[sp]
	sxtw        x9,w8
	mov         x8,#8
	mul         x9,x9,x8
	adrp        x8,_cards
	add         x8,x8,PageOffset(_cards)
	add         x8,x8,x9
	ldr         x1,[x8]
	ldr         x0,[sp,#0x28]
	bl          strcpy

; 194  : 			list->cardID = i;

	ldr         x8,[sp,#0x28]
	add         x9,x8,#0x20
	ldr         w8,[sp]
	str         w8,[x9]

; 195  : 			list->next = (aurora_snd_card_list*)((size_t)list + sizeof(aurora_snd_card_list));

	ldr         x8,[sp,#0x28]
	add         x9,x8,#0x30
	ldr         x8,[sp,#0x28]
	add         x8,x8,#0x28
	str         x9,[x8]

; 196  : 			list = list->next;

	ldr         x8,[sp,#0x28]
	add         x8,x8,#0x28
	ldr         x8,[x8]
	str         x8,[sp,#0x28]

; 197  : 		}

	b           |$LN4@AuSoundIOC|
|$LN5@AuSoundIOC|

; 198  : 		list->next = NULL;

	ldr         x8,[sp,#0x28]
	add         x9,x8,#0x28
	mov         x8,#0
	str         x8,[x9]

; 199  : 		break;

	b           |$LN2@AuSoundIOC|
|$LN18@AuSoundIOC|

; 200  : 	}
; 201  : 
; 202  : 	case SOUND_GET_CARD_TOTALNUM: {
; 203  : 		int total_card_count = 0;

	mov         w8,#0
	str         w8,[sp,#0x20]

; 204  : 		for (int i = 0; i < AURORA_MAX_SOUND_CARDS; i++) {

	mov         w8,#0
	str         w8,[sp,#8]
	b           |$LN9@AuSoundIOC|
|$LN7@AuSoundIOC|
	ldr         w8,[sp,#8]
	add         w8,w8,#1
	str         w8,[sp,#8]
|$LN9@AuSoundIOC|
	ldr         w8,[sp,#8]
	cmp         w8,#0x100
	bge         |$LN8@AuSoundIOC|

; 205  : 			if (_cards[i])

	ldr         w8,[sp,#8]
	sxtw        x9,w8
	mov         x8,#8
	mul         x9,x9,x8
	adrp        x8,_cards
	add         x8,x8,PageOffset(_cards)
	add         x8,x8,x9
	ldr         x8,[x8]
	cmp         x8,#0
	beq         |$LN19@AuSoundIOC|

; 206  : 				total_card_count++;

	ldr         w8,[sp,#0x20]
	add         w8,w8,#1
	str         w8,[sp,#0x20]
|$LN19@AuSoundIOC|

; 207  : 		}

	b           |$LN7@AuSoundIOC|
|$LN8@AuSoundIOC|

; 208  : 		return total_card_count;

	ldr         w0,[sp,#0x20]
	b           |$LN1@AuSoundIOC|
|$LN20@AuSoundIOC|
|$LN2@AuSoundIOC|

; 209  : 	}
; 210  : 
; 211  : 	default:
; 212  : 		break;
; 213  : 	}
; 214  : 	return 0;

	mov         w0,#0
|$LN1@AuSoundIOC|
	add         sp,sp,#0x60
	ldr         lr,[sp],#0x10
	ret
|__swt|
|$LN24@AuSoundIOC|

; 151  : 	switch (code)

	DCD         0xffffffa4
|$LN25@AuSoundIOC|
	DCD         0x58
|$LN26@AuSoundIOC|
	DCD         0x58
|$LN27@AuSoundIOC|
	DCD         0x58
|$LN28@AuSoundIOC|
	DCD         0x58
|$LN29@AuSoundIOC|
	DCD         0x58
|$LN30@AuSoundIOC|
	DCD         0x58
|$LN31@AuSoundIOC|
	DCD         0x58
|$LN32@AuSoundIOC|
	DCD         0x58
|$LN33@AuSoundIOC|
	DCD         0x58
|$LN34@AuSoundIOC|
	DCD         0xfffffff1
|$LN35@AuSoundIOC|
	DCD         0x0
|$LN36@AuSoundIOC|
	DCD         0x58
|$LN37@AuSoundIOC|
	DCD         0x7
|$LN38@AuSoundIOC|
	DCD         0x3d

	ENDP  ; |AuSoundIOControl|

; Function compile flags: /Odtpy
; File C:\Users\paras\source\repos\grep-name\XenevaOS\KernelAA64\Sound\sndcore.c

	AREA	|.text$mn|, CODE, ARM64

|_AuSoundGetFreeID| PROC

; 136  : static int _AuSoundGetFreeID() {

	sub         sp,sp,#0x10

; 137  : 	for (int index = 0; index < AURORA_MAX_SOUND_CARDS; index++) {

	mov         w8,#0
	str         w8,[sp]
	b           |$LN4@AuSoundGet|
|$LN2@AuSoundGet|
	ldr         w8,[sp]
	add         w8,w8,#1
	str         w8,[sp]
|$LN4@AuSoundGet|
	ldr         w8,[sp]
	cmp         w8,#0x100
	bge         |$LN3@AuSoundGet|

; 138  : 		if (_cards[index] == 0)

	ldr         w8,[sp]
	sxtw        x9,w8
	mov         x8,#8
	mul         x9,x9,x8
	adrp        x8,_cards
	add         x8,x8,PageOffset(_cards)
	add         x8,x8,x9
	ldr         x8,[x8]
	cmp         x8,#0
	bne         |$LN5@AuSoundGet|

; 139  : 			return index;

	ldr         w0,[sp]
	b           |$LN1@AuSoundGet|
|$LN5@AuSoundGet|

; 140  : 	}

	b           |$LN2@AuSoundGet|
|$LN3@AuSoundGet|

; 141  : 	return -1;

	mov         w0,#-1
|$LN1@AuSoundGet|
	add         sp,sp,#0x10
	ret

	ENDP  ; |_AuSoundGetFreeID|

; Function compile flags: /Odtpy
; File C:\Users\paras\source\repos\grep-name\XenevaOS\KernelAA64\Sound\sndcore.c

	AREA	|.text$mn|, CODE, ARM64

|AuSoundGetDSP| PROC

; 122  : AuDSP* AuSoundGetDSP(uint16_t id) {

|$LN7|
	sub         sp,sp,#0x10
	uxth        w8,w0
	strh        w8,[sp]

; 123  : 	for (AuDSP* dsp = dsp_first; dsp != NULL; dsp = dsp->next) {

	adrp        x8,dsp_first
	ldr         x8,[x8,PageOffset(dsp_first)]
	str         x8,[sp,#8]
	b           |$LN4@AuSoundGet|
|$LN2@AuSoundGet|
	ldr         x8,[sp,#8]
	add         x8,x8,#0x28
	ldr         x8,[x8]
	str         x8,[sp,#8]
|$LN4@AuSoundGet|
	ldr         x8,[sp,#8]
	cmp         x8,#0
	beq         |$LN3@AuSoundGet|

; 124  : 		if (dsp->_dsp_id == id)

	ldr         x8,[sp,#8]
	add         x8,x8,#8
	ldrh        w9,[x8]
	mov         w9,w9
	ldrh        w8,[sp]
	mov         w8,w8
	cmp         w9,w8
	bne         |$LN5@AuSoundGet|

; 125  : 			return dsp;

	ldr         x0,[sp,#8]
	b           |$LN1@AuSoundGet|
|$LN5@AuSoundGet|

; 126  : 	}

	b           |$LN2@AuSoundGet|
|$LN3@AuSoundGet|

; 127  : 
; 128  : 	return NULL;

	mov         x0,#0
|$LN1@AuSoundGet|
	add         sp,sp,#0x10
	ret

	ENDP  ; |AuSoundGetDSP|

; Function compile flags: /Odtpy
; File C:\Users\paras\source\repos\grep-name\XenevaOS\KernelAA64\Sound\sndcore.c

	AREA	|.text$mn|, CODE, ARM64

|AuRemoveDSP| PROC

; 103  : void AuRemoveDSP(AuDSP* dsp) {

|$LN8|
	sub         sp,sp,#0x10
	str         x0,[sp]

; 104  : 	if (dsp_first == NULL)

	adrp        x8,dsp_first
	ldr         x8,[x8,PageOffset(dsp_first)]
	cmp         x8,#0
	bne         |$LN2@AuRemoveDS|

; 105  : 		return;

	b           |$LN1@AuRemoveDS|
|$LN2@AuRemoveDS|

; 106  : 
; 107  : 	if (dsp == dsp_first) {

	adrp        x8,dsp_first
	ldr         x9,[x8,PageOffset(dsp_first)]
	ldr         x8,[sp]
	cmp         x8,x9
	bne         |$LN3@AuRemoveDS|

; 108  : 		dsp_first = dsp_first->next;

	adrp        x8,dsp_first
	ldr         x8,[x8,PageOffset(dsp_first)]
	add         x8,x8,#0x28
	adrp        x9,dsp_first
	ldr         x8,[x8]
	str         x8,[x9,PageOffset(dsp_first)]

; 109  : 	}

	b           |$LN4@AuRemoveDS|
|$LN3@AuRemoveDS|

; 110  : 	else {
; 111  : 		dsp->prev->next = dsp->next;

	ldr         x8,[sp]
	add         x10,x8,#0x28
	ldr         x8,[sp]
	add         x8,x8,#0x30
	ldr         x8,[x8]
	add         x9,x8,#0x28
	ldr         x8,[x10]
	str         x8,[x9]
|$LN4@AuRemoveDS|

; 112  : 	}
; 113  : 
; 114  : 	if (dsp == dsp_last) {

	adrp        x8,dsp_last
	ldr         x9,[x8,PageOffset(dsp_last)]
	ldr         x8,[sp]
	cmp         x8,x9
	bne         |$LN5@AuRemoveDS|

; 115  : 		dsp_last = dsp->prev;

	ldr         x8,[sp]
	add         x8,x8,#0x30
	adrp        x9,dsp_last
	ldr         x8,[x8]
	str         x8,[x9,PageOffset(dsp_last)]

; 116  : 	}

	b           |$LN6@AuRemoveDS|
|$LN5@AuRemoveDS|

; 117  : 	else {
; 118  : 		dsp->next->prev = dsp->prev;

	ldr         x8,[sp]
	add         x10,x8,#0x30
	ldr         x8,[sp]
	add         x8,x8,#0x28
	ldr         x8,[x8]
	add         x9,x8,#0x30
	ldr         x8,[x10]
	str         x8,[x9]
|$LN6@AuRemoveDS|
|$LN1@AuRemoveDS|
	add         sp,sp,#0x10
	ret

	ENDP  ; |AuRemoveDSP|

; Function compile flags: /Odtpy
; File C:\Users\paras\source\repos\grep-name\XenevaOS\KernelAA64\Sound\sndcore.c

	AREA	|.text$mn|, CODE, ARM64

|AuSoundAddDSP| PROC

; 85   : void AuSoundAddDSP(AuDSP* dsp) {

|$LN5|
	sub         sp,sp,#0x10
	str         x0,[sp]

; 86   : 	dsp->next = NULL;

	ldr         x8,[sp]
	add         x9,x8,#0x28
	mov         x8,#0
	str         x8,[x9]

; 87   : 	dsp->prev = NULL;

	ldr         x8,[sp]
	add         x9,x8,#0x30
	mov         x8,#0
	str         x8,[x9]

; 88   : 	if (dsp_first == NULL) {

	adrp        x8,dsp_first
	ldr         x8,[x8,PageOffset(dsp_first)]
	cmp         x8,#0
	bne         |$LN2@AuSoundAdd|

; 89   : 		dsp_first = dsp;

	adrp        x9,dsp_first
	ldr         x8,[sp]
	str         x8,[x9,PageOffset(dsp_first)]

; 90   : 		dsp_last = dsp;

	adrp        x9,dsp_last
	ldr         x8,[sp]
	str         x8,[x9,PageOffset(dsp_last)]

; 91   : 	}

	b           |$LN3@AuSoundAdd|
|$LN2@AuSoundAdd|

; 92   : 	else {
; 93   : 		dsp_last->next = dsp;

	adrp        x8,dsp_last
	ldr         x8,[x8,PageOffset(dsp_last)]
	add         x9,x8,#0x28
	ldr         x8,[sp]
	str         x8,[x9]

; 94   : 		dsp->prev = dsp_last;

	ldr         x8,[sp]
	add         x9,x8,#0x30
	adrp        x8,dsp_last
	ldr         x8,[x8,PageOffset(dsp_last)]
	str         x8,[x9]

; 95   : 		dsp_last = dsp;

	adrp        x9,dsp_last
	ldr         x8,[sp]
	str         x8,[x9,PageOffset(dsp_last)]
|$LN3@AuSoundAdd|
	add         sp,sp,#0x10
	ret

	ENDP  ; |AuSoundAddDSP|

; Function compile flags: /Odtpy
; File C:\Users\paras\source\repos\grep-name\XenevaOS\KernelAA64\Sound\sndcore.c

	AREA	|.text$mn|, CODE, ARM64

|AuSoundRegisterCard| PROC

; 299  : int AuSoundRegisterCard(AuSound* snd) {

|$LN4|
	str         lr,[sp,#-0x10]!
	sub         sp,sp,#0x10
	str         x0,[sp,#8]

; 300  : 	int index = _AuSoundGetFreeID();

	bl          _AuSoundGetFreeID
	mov         w0,w0
	str         w0,[sp]

; 301  : 	if (index == -1) {

	ldr         w8,[sp]
	cmn         w8,#1
	bne         |$LN2@AuSoundReg|

; 302  : 		UARTDebugOut("[aurora]: sound no free slot available for new card \r\n");

	adrp        x8,|$SG3495|
	add         x0,x8,PageOffset(|$SG3495|)
	bl          UARTDebugOut

; 303  : 		return 1;

	mov         w0,#1
	b           |$LN1@AuSoundReg|
|$LN2@AuSoundReg|

; 304  : 	}
; 305  : 	_cards[index] = snd;

	ldr         w8,[sp]
	sxtw        x9,w8
	mov         x8,#8
	mul         x9,x9,x8
	adrp        x8,_cards
	add         x8,x8,PageOffset(_cards)
	add         x9,x8,x9
	ldr         x8,[sp,#8]
	str         x8,[x9]

; 306  : 	return 0;

	mov         w0,#0
|$LN1@AuSoundReg|
	add         sp,sp,#0x10
	ldr         lr,[sp],#0x10
	ret

	ENDP  ; |AuSoundRegisterCard|

; Function compile flags: /Odtpy
; File C:\Users\paras\source\repos\grep-name\XenevaOS\KernelAA64\Sound\sndcore.c

	AREA	|.text$mn|, CODE, ARM64

|AuSoundRemoveDSP| PROC

; 284  : void AuSoundRemoveDSP(uint16_t id) {

|$LN4|
	str         lr,[sp,#-0x10]!
	sub         sp,sp,#0x10
	uxth        w8,w0
	strh        w8,[sp]

; 285  : 	AuDSP* dsp_ = AuSoundGetDSP(id);

	ldrh        w0,[sp]
	bl          AuSoundGetDSP
	str         x0,[sp,#8]

; 286  : 	if (dsp_) {

	ldr         x8,[sp,#8]
	cmp         x8,#0
	beq         |$LN2@AuSoundRem|

; 287  : 		AuPmmngrFree((void*)V2P((size_t)dsp_->buffer->buffer));

	ldr         x8,[sp,#8]
	ldr         x8,[x8]
	ldr         x0,[x8]
	bl          V2P
	bl          AuPmmngrFree

; 288  : 		AuCircBufFree(dsp_->buffer);

	ldr         x8,[sp,#8]
	ldr         x0,[x8]
	bl          AuCircBufFree

; 289  : 		AuRemoveDSP(dsp_);

	ldr         x0,[sp,#8]
	bl          AuRemoveDSP

; 290  : 		kfree(dsp_);

	ldr         x0,[sp,#8]
	bl          kfree
|$LN2@AuSoundRem|
	add         sp,sp,#0x10
	ldr         lr,[sp],#0x10
	ret

	ENDP  ; |AuSoundRemoveDSP|

; Function compile flags: /Odtpy
; File C:\Users\paras\source\repos\grep-name\XenevaOS\KernelAA64\Sound\sndcore.c

	AREA	|.text$mn|, CODE, ARM64

|AuSoundInitialise| PROC

; 252  : void AuSoundInitialise() {

|$LN6|
	str         lr,[sp,#-0x10]!
	sub         sp,sp,#0x20

; 253  : 	AuVFSNode* fsys = AuVFSFind("/dev");

	adrp        x8,|$SG3479|
	add         x0,x8,PageOffset(|$SG3479|)
	bl          AuVFSFind
	str         x0,[sp,#0x10]

; 254  : 	AuVFSNode* dsp = (AuVFSNode*)kmalloc(sizeof(AuVFSNode));

	mov         w0,#0xD0
	bl          kmalloc
	str         x0,[sp,#8]

; 255  : 	memset(dsp, 0, sizeof(AuVFSNode));

	mov         x2,#0xD0
	mov         w1,#0
	ldr         x0,[sp,#8]
	bl          memset

; 256  : 	strcpy(dsp->filename, "sound");

	ldr         x0,[sp,#8]
	adrp        x8,|$SG3480|
	add         x1,x8,PageOffset(|$SG3480|)
	bl          strcpy

; 257  : 	dsp->flags = FS_FLAG_DEVICE;

	ldr         x8,[sp,#8]
	add         x9,x8,#0x40
	mov         w8,#8
	strh        w8,[x9]

; 258  : 	dsp->uid = 0;

	ldr         x8,[sp,#8]
	add         x9,x8,#0x44
	mov         w8,#0
	str         w8,[x9]

; 259  : 	dsp->gid = 0; 

	ldr         x8,[sp,#8]
	add         x9,x8,#0x48
	mov         w8,#0
	str         w8,[x9]

; 260  : 	dsp->device = fsys;

	ldr         x8,[sp,#8]
	add         x9,x8,#0x50
	ldr         x8,[sp,#0x10]
	str         x8,[x9]

; 261  : 	dsp->read = AuSoundRead;

	ldr         x8,[sp,#8]
	add         x9,x8,#0x70
	adrp        x8,AuSoundRead
	add         x8,x8,PageOffset(AuSoundRead)
	str         x8,[x9]

; 262  : 	dsp->write = AuSoundWrite;

	ldr         x8,[sp,#8]
	add         x9,x8,#0x78
	adrp        x8,AuSoundWrite
	add         x8,x8,PageOffset(AuSoundWrite)
	str         x8,[x9]

; 263  : 	dsp->iocontrol = AuSoundIOControl;

	ldr         x8,[sp,#8]
	add         x9,x8,#0xC8
	adrp        x8,AuSoundIOControl
	add         x8,x8,PageOffset(AuSoundIOControl)
	str         x8,[x9]

; 264  : 	AuDevFSAddFile(fsys, "/", dsp);

	ldr         x2,[sp,#8]
	adrp        x8,|$SG3481|
	add         x1,x8,PageOffset(|$SG3481|)
	ldr         x0,[sp,#0x10]
	bl          AuDevFSAddFile

; 265  : 
; 266  : 	/** clear up the card data structure */
; 267  : 	for (int i = 0; i < AURORA_MAX_SOUND_CARDS; i++)

	mov         w8,#0
	str         w8,[sp]
	b           |$LN4@AuSoundIni|
|$LN2@AuSoundIni|
	ldr         w8,[sp]
	add         w8,w8,#1
	str         w8,[sp]
|$LN4@AuSoundIni|
	ldr         w8,[sp]
	cmp         w8,#0x100
	bge         |$LN3@AuSoundIni|

; 268  : 		_cards[i] = 0;

	ldr         w8,[sp]
	sxtw        x9,w8
	mov         x8,#8
	mul         x9,x9,x8
	adrp        x8,_cards
	add         x8,x8,PageOffset(_cards)
	add         x9,x8,x9
	mov         x8,#0
	str         x8,[x9]
	b           |$LN2@AuSoundIni|
|$LN3@AuSoundIni|

; 269  : 
; 270  : 	dsp_first = NULL;

	adrp        x9,dsp_first
	mov         x8,#0
	str         x8,[x9,PageOffset(dsp_first)]

; 271  : 	dsp_last = NULL;

	adrp        x9,dsp_last
	mov         x8,#0
	str         x8,[x9,PageOffset(dsp_last)]

; 272  : 
; 273  : 	_audio_started_ = false;

	adrp        x9,_audio_started_
	mov         w8,#0
	strb        w8,[x9,PageOffset(_audio_started_)]

; 274  : 	_audio_stopped_ = false;

	adrp        x9,_audio_stopped_
	mov         w8,#0
	strb        w8,[x9,PageOffset(_audio_stopped_)]

; 275  : 
; 276  : 
; 277  : 	AuTextOut("[aurora]: sound initialized \r\n");

	adrp        x8,|$SG3482|
	add         x0,x8,PageOffset(|$SG3482|)
	bl          AuTextOut
	add         sp,sp,#0x20
	ldr         lr,[sp],#0x10
	ret

	ENDP  ; |AuSoundInitialise|

	END
