; Listing generated by Microsoft (R) Optimizing Compiler Version 19.29.30159.0 

	TTL	C:\Users\paras\source\repos\grep-name\XenevaOS\KernelAA64\ARM64\Debug\socket.obj
	ARM64

	AREA	|.drectve|, DRECTVE


	AREA	|.data|, DATA
	 COMMON	|raw_socket_list|, 0x8

	EXPORT	|AuNetCreateSocket|
	EXPORT	|AuSocketAdd|
	EXPORT	|AuSocketGet|
	EXPORT	|AuSocketInstall|
	EXPORT	|AuCreateSocket|
	EXPORT	|AuSocketSetOpt|
	EXPORT	|AuRawSocketGetList|
	EXPORT	|SocketIOControl|
	EXPORT	|AuRawSocketReceive|
	EXPORT	|AuRawSocketSend|
	EXPORT	|AuSocketSOSocket|
	EXPORT	|AuRawSocketClose|
	EXPORT	|AuCreateRawSocket|
	IMPORT	|initialize_list|
	IMPORT	|list_add|
	IMPORT	|list_remove|
	IMPORT	|list_get_at|
	IMPORT	|AuStackCreate|
	IMPORT	|AuStackPush|
	IMPORT	|AuStackPop|
	IMPORT	|CreateIPv4Socket|
	IMPORT	|kmalloc|
	IMPORT	|kfree|
	IMPORT	|strcpy|
	IMPORT	|strlen|
	IMPORT	|memset|
	IMPORT	|memcpy|
	IMPORT	|AuGetNetworkAdapter|
	IMPORT	|UARTDebugOut|
	IMPORT	|AuRouteTableCreateEntry|
	IMPORT	|AuRouteTableAdd|
	IMPORT	|AuRouteTableDelete|
	IMPORT	|AuRouteTableGetNumEntry|
	IMPORT	|AuRouteTablePopulate|
	IMPORT	|AuGetCurrentThread|
	IMPORT	|AuProcessFindThread|
	IMPORT	|AuProcessFindSubThread|
	IMPORT	|AuProcessGetFileDesc|

	AREA	|.pdata|, PDATA
|$pdata$AuNetCreateSocket| DCD imagerel |$LN3|
	DCD	0x1200045
	;Flags[SingleProEpi] functionLength[68] RegF[0] RegI[0] H[0] frameChainReturn[UnChainedSavedLR] frameSize[32]
|$pdata$AuSocketAdd| DCD imagerel |$LN3|
	DCD	0x1a000a1
	;Flags[SingleProEpi] functionLength[160] RegF[0] RegI[0] H[0] frameChainReturn[UnChainedSavedLR] frameSize[48]
|$pdata$AuSocketGet| DCD imagerel |$LN3|
	DCD	0x1200031
	;Flags[SingleProEpi] functionLength[48] RegF[0] RegI[0] H[0] frameChainReturn[UnChainedSavedLR] frameSize[32]
|$pdata$AuSocketInstall| DCD imagerel |$LN3|
	DCD	0xa00019
	;Flags[SingleProEpi] functionLength[24] RegF[0] RegI[0] H[0] frameChainReturn[UnChainedSavedLR] frameSize[16]
|$pdata$AuCreateSocket| DCD imagerel |$LN8|
	DCD	0x1200079
	;Flags[SingleProEpi] functionLength[120] RegF[0] RegI[0] H[0] frameChainReturn[UnChainedSavedLR] frameSize[32]
|$pdata$AuSocketSetOpt| DCD imagerel |$LN9|
	DCD	0x2a000e1
	;Flags[SingleProEpi] functionLength[224] RegF[0] RegI[0] H[0] frameChainReturn[UnChainedSavedLR] frameSize[80]
|$pdata$SocketIOControl| DCD imagerel |$LN44|
	DCD	0x5200511
	;Flags[SingleProEpi] functionLength[1296] RegF[0] RegI[0] H[0] frameChainReturn[UnChainedSavedLR] frameSize[160]
|$pdata$AuRawSocketReceive| DCD imagerel |$LN7|
	DCD	0x22000dd
	;Flags[SingleProEpi] functionLength[220] RegF[0] RegI[0] H[0] frameChainReturn[UnChainedSavedLR] frameSize[64]
|$pdata$AuRawSocketSend| DCD imagerel |$LN5|
	DCD	0x1a000cd
	;Flags[SingleProEpi] functionLength[204] RegF[0] RegI[0] H[0] frameChainReturn[UnChainedSavedLR] frameSize[48]
|$pdata$AuSocketSOSocket| DCD imagerel |$LN7|
	DCD	0x22000a1
	;Flags[SingleProEpi] functionLength[160] RegF[0] RegI[0] H[0] frameChainReturn[UnChainedSavedLR] frameSize[64]
|$pdata$AuRawSocketClose| DCD imagerel |$LN11|
	DCD	0x2200125
	;Flags[SingleProEpi] functionLength[292] RegF[0] RegI[0] H[0] frameChainReturn[UnChainedSavedLR] frameSize[64]
|$pdata$AuCreateRawSocket| DCD imagerel |$LN6|
	DCD	0x220016d
	;Flags[SingleProEpi] functionLength[364] RegF[0] RegI[0] H[0] frameChainReturn[UnChainedSavedLR] frameSize[64]

	AREA	|.data|, DATA
|$SG3506| DCB	"]aurora]: socket sock stack -> %x ", 0xd, 0xa, 0x0
	%	3
|$SG3539| DCB	"Socket sending : %x ", 0xd, 0xa, 0x0
	%	1
|$SG3542| DCB	"****/////******socket device name : %s ", 0xd, 0xa, 0x0
	%	6
|$SG3559| DCB	"Device binding ->%s ", 0xd, 0xa, 0x0
	%	1
|$SG3560| DCB	"NIC : %x ", 0xd, 0xa, 0x0
	%	4
|$SG3562| DCB	"Device binded ", 0xd, 0xa, 0x0
	%	7
|$SG3610| DCB	"Raw Socket Closed ", 0xd, 0xa, 0x0
	%	3
|$SG3652| DCB	"[aurora] net route entry added ", 0xd, 0xa, 0x0
	%	6
|$SG3657| DCB	"Populating route table ", 0xd, 0xa, 0x0
	%	6
|$SG3661| DCB	"[aurora]: route table populated ", 0xd, 0xa, 0x0
	%	5
|$SG3668| DCB	"[aurora]: net DNS Server added -> %d  %d", 0xd, 0xa, 0x0
	%	5
|$SG3670| DCB	"[aurora]: DNS Server 2 added -> %d ", 0xd, 0xa, 0x0
	%	2
|$SG3672| DCB	"DNS Server 3 added -> %d ", 0xd, 0xa, 0x0
	%	4
|$SG3674| DCB	"[aurora]: failed to add dns entry to index -> %d ", 0xd, 0xa
	DCB	0x0
	%	4
|$SG3676| DCB	"[aurora]: Getting dns entry of index -> %d ", 0xd, 0xa, 0x0
	%	2
|$SG3680| DCB	"[aurora] : netdev %d ", 0xd, 0xa, 0x0
|$SG3683| DCB	"[aurora]: dns entry address -> %d ", 0xd, 0xa, 0x0
	%	3
|$SG3687| DCB	"[aurora]: failed to get dns entry to index -> %d ", 0xd, 0xa
	DCB	0x0
	%	4
|$SG3705| DCB	"*****///Raw Socket created %x", 0xd, 0xa, 0x0
|$SG3706| DCB	"XERawSocket", 0x0
; Function compile flags: /Odtpy
; File C:\Users\paras\source\repos\grep-name\XenevaOS\KernelAA64\Net\socket.c

	AREA	|.text$mn|, CODE, ARM64

|AuCreateRawSocket| PROC

; 305  : int AuCreateRawSocket(int type, int protocol) {

|$LN6|
	str         lr,[sp,#-0x10]!
	sub         sp,sp,#0x30
	str         w0,[sp,#4]
	str         w1,[sp,#8]

; 306  : 	if (type != SOCK_RAW)return -1;

	ldr         w8,[sp,#4]
	cmp         w8,#3
	beq         |$LN2@AuCreateRa|
	mov         w0,#-1
	b           |$LN1@AuCreateRa|
|$LN2@AuCreateRa|

; 307  : 	AA64Thread* curr_thr = AuGetCurrentThread();

	bl          AuGetCurrentThread
	str         x0,[sp,#0x28]

; 308  : 	AuProcess* proc = AuProcessFindThread(curr_thr);

	ldr         x0,[sp,#0x28]
	bl          AuProcessFindThread
	str         x0,[sp,#0x20]

; 309  : 	if (!proc) {

	ldr         x8,[sp,#0x20]
	cmp         x8,#0
	bne         |$LN3@AuCreateRa|

; 310  : 		proc = AuProcessFindSubThread(curr_thr);

	ldr         x0,[sp,#0x28]
	bl          AuProcessFindSubThread
	str         x0,[sp,#0x20]

; 311  : 		if (!proc)

	ldr         x8,[sp,#0x20]
	cmp         x8,#0
	bne         |$LN4@AuCreateRa|

; 312  : 			return 1;

	mov         w0,#1
	b           |$LN1@AuCreateRa|
|$LN4@AuCreateRa|
|$LN3@AuCreateRa|

; 313  : 	}
; 314  : 	AuSocket* sock = AuNetCreateSocket();

	bl          AuNetCreateSocket
	str         x0,[sp,#0x18]

; 315  : 	sock->receive = AuRawSocketReceive;

	ldr         x8,[sp,#0x18]
	add         x9,x8,#0x20
	adrp        x8,AuRawSocketReceive
	add         x8,x8,PageOffset(AuRawSocketReceive)
	str         x8,[x9]

; 316  : 	sock->send = AuRawSocketSend;

	ldr         x8,[sp,#0x18]
	add         x9,x8,#0x28
	adrp        x8,AuRawSocketSend
	add         x8,x8,PageOffset(AuRawSocketSend)
	str         x8,[x9]

; 317  : 	UARTDebugOut("*****///Raw Socket created %x\r\n", sock);

	ldr         x1,[sp,#0x18]
	adrp        x8,|$SG3705|
	add         x0,x8,PageOffset(|$SG3705|)
	bl          UARTDebugOut

; 318  : 	int fd = AuProcessGetFileDesc(proc);

	ldr         x0,[sp,#0x20]
	bl          AuProcessGetFileDesc
	mov         w0,w0
	str         w0,[sp]

; 319  : 	list_add(raw_socket_list, sock);

	ldr         x1,[sp,#0x18]
	adrp        x8,raw_socket_list
	ldr         x0,[x8,PageOffset(raw_socket_list)]
	bl          list_add

; 320  : 	AuVFSNode* node = (AuVFSNode*)kmalloc(sizeof(AuVFSNode));

	mov         w0,#0xD0
	bl          kmalloc
	str         x0,[sp,#0x10]

; 321  : 	memset(node, 0, sizeof(AuVFSNode));

	mov         w2,#0xD0
	mov         w1,#0
	ldr         x0,[sp,#0x10]
	bl          memset

; 322  : 	strcpy(node->filename, "XERawSocket");

	ldr         x0,[sp,#0x10]
	adrp        x8,|$SG3706|
	add         x1,x8,PageOffset(|$SG3706|)
	bl          strcpy

; 323  : 	node->flags = FS_FLAG_SOCKET;

	ldr         x8,[sp,#0x10]
	add         x9,x8,#0x40
	mov         w8,#0x200
	strh        w8,[x9]

; 324  : 	node->device = sock;

	ldr         x8,[sp,#0x10]
	add         x9,x8,#0x50
	ldr         x8,[sp,#0x18]
	str         x8,[x9]

; 325  : 	node->close = AuRawSocketClose;

	ldr         x8,[sp,#0x10]
	add         x9,x8,#0xA0
	adrp        x8,AuRawSocketClose
	add         x8,x8,PageOffset(AuRawSocketClose)
	str         x8,[x9]

; 326  : 	node->iocontrol = SocketIOControl;

	ldr         x8,[sp,#0x10]
	add         x9,x8,#0xC8
	adrp        x8,SocketIOControl
	add         x8,x8,PageOffset(SocketIOControl)
	str         x8,[x9]

; 327  : 	proc->fds[fd] = node;

	ldr         x8,[sp,#0x20]
	add         x10,x8,#0x248
	ldr         w8,[sp]
	sxtw        x9,w8
	mov         x8,#8
	mul         x8,x9,x8
	add         x9,x10,x8
	ldr         x8,[sp,#0x10]
	str         x8,[x9]

; 328  : 	return fd;

	ldr         w0,[sp]
|$LN1@AuCreateRa|
	add         sp,sp,#0x30
	ldr         lr,[sp],#0x10
	ret

	ENDP  ; |AuCreateRawSocket|

; Function compile flags: /Odtpy
; File C:\Users\paras\source\repos\grep-name\XenevaOS\KernelAA64\Net\socket.c

	AREA	|.text$mn|, CODE, ARM64

|AuRawSocketClose| PROC

; 158  : int AuRawSocketClose(AuVFSNode* fs, AuVFSNode* file) {

|$LN11|
	str         lr,[sp,#-0x10]!
	sub         sp,sp,#0x30
	str         x0,[sp,#0x28]
	str         x1,[sp,#0x10]

; 159  : 	/* here both fs and file points to socket file , better
; 160  : 	 * would be using file pointer */
; 161  : 	AuSocket* sock = (AuSocket*)file->device;

	ldr         x8,[sp,#0x10]
	add         x8,x8,#0x50
	ldr         x8,[x8]
	str         x8,[sp,#8]

; 162  : 
; 163  : 	/* Remove it from raw socket list */
; 164  : 	for (int i = 0; i < raw_socket_list->pointer; i++) {

	mov         w8,#0
	str         w8,[sp]
	b           |$LN4@AuRawSocke|
|$LN2@AuRawSocke|
	ldr         w8,[sp]
	add         w8,w8,#1
	str         w8,[sp]
|$LN4@AuRawSocke|
	adrp        x8,raw_socket_list
	ldr         x8,[x8,PageOffset(raw_socket_list)]
	ldr         w9,[x8]
	ldr         w8,[sp]
	cmp         w8,w9
	bhs         |$LN3@AuRawSocke|

; 165  : 		AuSocket* socket = (AuSocket*)list_get_at(raw_socket_list, i);

	ldr         w1,[sp]
	adrp        x8,raw_socket_list
	ldr         x0,[x8,PageOffset(raw_socket_list)]
	bl          list_get_at
	str         x0,[sp,#0x18]

; 166  : 		if (socket == sock) {

	ldr         x9,[sp,#8]
	ldr         x8,[sp,#0x18]
	cmp         x8,x9
	bne         |$LN7@AuRawSocke|

; 167  : 			list_remove(raw_socket_list, i);

	ldr         w1,[sp]
	adrp        x8,raw_socket_list
	ldr         x0,[x8,PageOffset(raw_socket_list)]
	bl          list_remove

; 168  : 			break;

	b           |$LN3@AuRawSocke|
|$LN7@AuRawSocke|

; 169  : 		}
; 170  : 	}

	b           |$LN2@AuRawSocke|
|$LN3@AuRawSocke|

; 171  : 	if (sock) {

	ldr         x8,[sp,#8]
	cmp         x8,#0
	beq         |$LN8@AuRawSocke|

; 172  : 		if (sock->rxstack) {

	ldr         x8,[sp,#8]
	add         x8,x8,#8
	ldr         x8,[x8]
	cmp         x8,#0
	beq         |$LN9@AuRawSocke|
|$LN5@AuRawSocke|

; 173  : 			while (sock->rxstack->itemCount) {

	ldr         x8,[sp,#8]
	add         x8,x8,#8
	ldr         x8,[x8]
	add         x8,x8,#8
	ldr         w8,[x8]
	cmp         w8,#0
	beq         |$LN6@AuRawSocke|

; 174  : 				void* data = AuStackPop(sock->rxstack);

	ldr         x8,[sp,#8]
	add         x8,x8,#8
	ldr         x0,[x8]
	bl          AuStackPop
	str         x0,[sp,#0x20]

; 175  : 				kfree(data);

	ldr         x0,[sp,#0x20]
	bl          kfree

; 176  : 			}

	b           |$LN5@AuRawSocke|
|$LN6@AuRawSocke|

; 177  : 			kfree(sock->rxstack);

	ldr         x8,[sp,#8]
	add         x8,x8,#8
	ldr         x0,[x8]
	bl          kfree
|$LN9@AuRawSocke|

; 178  : 		}
; 179  : 		kfree(sock);

	ldr         x0,[sp,#8]
	bl          kfree
|$LN8@AuRawSocke|

; 180  : 	}
; 181  : 	kfree(file);

	ldr         x0,[sp,#0x10]
	bl          kfree

; 182  : 	UARTDebugOut("Raw Socket Closed \r\n");

	adrp        x8,|$SG3610|
	add         x0,x8,PageOffset(|$SG3610|)
	bl          UARTDebugOut

; 183  : 	return 0;

	mov         w0,#0
	add         sp,sp,#0x30
	ldr         lr,[sp],#0x10
	ret

	ENDP  ; |AuRawSocketClose|

; Function compile flags: /Odtpy
; File C:\Users\paras\source\repos\grep-name\XenevaOS\KernelAA64\Net\socket.c

	AREA	|.text$mn|, CODE, ARM64

|AuSocketSOSocket| PROC

; 116  : int AuSocketSOSocket(AuSocket* sock, int optname, const void* optval, socklen_t optlen) {

|$LN7|
	str         lr,[sp,#-0x10]!
	sub         sp,sp,#0x30
	str         x0,[sp,#0x18]
	str         w1,[sp]
	str         x2,[sp,#0x10]
	str         x3,[sp,#0x20]

; 117  : 	switch (optname) {

	ldr         w8,[sp]
	str         w8,[sp,#4]
	ldr         w8,[sp,#4]
	cmp         w8,#3
	beq         |$LN4@AuSocketSO|
	b           |$LN2@AuSocketSO|
|$LN4@AuSocketSO|

; 118  : 	case SO_BINDTODEVICE: {   UARTDebugOut("Device binding ->%s \r\n", ((char*)optval));

	ldr         x1,[sp,#0x10]
	adrp        x8,|$SG3559|
	add         x0,x8,PageOffset(|$SG3559|)
	bl          UARTDebugOut

; 119  : 		//if (optlen < 1 || optlen > 32 || ((const char*)optval)[optlen - 1] != 0) return -1;  
; 120  : 		AuVFSNode* nic = AuGetNetworkAdapter((char*)optval);

	ldr         x0,[sp,#0x10]
	bl          AuGetNetworkAdapter
	str         x0,[sp,#8]

; 121  : 		UARTDebugOut("NIC : %x \r\n", nic);

	ldr         x1,[sp,#8]
	adrp        x8,|$SG3560|
	add         x0,x8,PageOffset(|$SG3560|)
	bl          UARTDebugOut

; 122  : 		if (!nic) return -1;

	ldr         x8,[sp,#8]
	cmp         x8,#0
	bne         |$LN5@AuSocketSO|
	mov         w0,#-1
	b           |$LN1@AuSocketSO|
|$LN5@AuSocketSO|

; 123  : 		sock->binedDev = nic;

	ldr         x9,[sp,#0x18]
	ldr         x8,[sp,#8]
	str         x8,[x9]

; 124  : 		UARTDebugOut("Device binded \r\n");

	adrp        x8,|$SG3562|
	add         x0,x8,PageOffset(|$SG3562|)
	bl          UARTDebugOut

; 125  : 		return 0;

	mov         w0,#0
	b           |$LN1@AuSocketSO|
|$LN2@AuSocketSO|

; 126  : 	}
; 127  : 	}
; 128  : 	return 1;

	mov         w0,#1
|$LN1@AuSocketSO|
	add         sp,sp,#0x30
	ldr         lr,[sp],#0x10
	ret

	ENDP  ; |AuSocketSOSocket|

; Function compile flags: /Odtpy
; File C:\Users\paras\source\repos\grep-name\XenevaOS\KernelAA64\Net\socket.c

	AREA	|.text$mn|, CODE, ARM64

|AuRawSocketSend| PROC

; 100  : int AuRawSocketSend(AuSocket* sock, msghdr* msg, int flags) {

|$LN5|
	str         lr,[sp,#-0x10]!
	sub         sp,sp,#0x20
	str         x0,[sp,#0x10]
	str         x1,[sp,#0x18]
	str         w2,[sp]

; 101  : 	UARTDebugOut("Socket sending : %x \r\n", sock->binedDev);

	ldr         x8,[sp,#0x10]
	ldr         x1,[x8]
	adrp        x8,|$SG3539|
	add         x0,x8,PageOffset(|$SG3539|)
	bl          UARTDebugOut

; 102  : 	if (!sock->binedDev) return -1;

	ldr         x8,[sp,#0x10]
	ldr         x8,[x8]
	cmp         x8,#0
	bne         |$LN2@AuRawSocke|
	mov         w0,#-1
	b           |$LN1@AuRawSocke|
|$LN2@AuRawSocke|

; 103  : 	if (msg->msg_iovlen == 0) return 0;

	ldr         x8,[sp,#0x18]
	add         x8,x8,#0x18
	ldr         x8,[x8]
	cmp         x8,#0
	bne         |$LN3@AuRawSocke|
	mov         w0,#0
	b           |$LN1@AuRawSocke|
|$LN3@AuRawSocke|

; 104  : 	AuVFSNode* device = (AuVFSNode*)sock->binedDev;

	ldr         x8,[sp,#0x10]
	ldr         x8,[x8]
	str         x8,[sp,#8]

; 105  : 	UARTDebugOut("****/////******socket device name : %s \r\n", device->filename);

	ldr         x1,[sp,#8]
	adrp        x8,|$SG3542|
	add         x0,x8,PageOffset(|$SG3542|)
	bl          UARTDebugOut

; 106  : 	device->write(device, device, (uint64_t*)msg->msg_iov[0].iov_base, msg->msg_iov[0].iov_len);

	ldr         x8,[sp,#0x18]
	add         x8,x8,#0x10
	ldr         x8,[x8]
	add         x8,x8,#8
	ldr         x8,[x8]
	mov         w3,w8
	ldr         x8,[sp,#0x18]
	add         x8,x8,#0x10
	ldr         x9,[x8]
	ldr         x8,[sp,#8]
	add         x8,x8,#0x78
	mov         w3,w3
	ldr         x2,[x9]
	ldr         x1,[sp,#8]
	ldr         x0,[sp,#8]
	ldr         x8,[x8]
	blr         x8

; 107  : 	return 0;

	mov         w0,#0
|$LN1@AuRawSocke|
	add         sp,sp,#0x20
	ldr         lr,[sp],#0x10
	ret

	ENDP  ; |AuRawSocketSend|

; Function compile flags: /Odtpy
; File C:\Users\paras\source\repos\grep-name\XenevaOS\KernelAA64\Net\socket.c

	AREA	|.text$mn|, CODE, ARM64

|AuRawSocketReceive| PROC

; 87   : int AuRawSocketReceive(AuSocket* sock, msghdr* msg, int flags) {

|$LN7|
	str         lr,[sp,#-0x10]!
	sub         sp,sp,#0x30
	str         x0,[sp,#0x20]
	str         x1,[sp,#0x10]
	str         w2,[sp]

; 88   : 	if (!sock->binedDev)

	ldr         x8,[sp,#0x20]
	ldr         x8,[x8]
	cmp         x8,#0
	bne         |$LN2@AuRawSocke|

; 89   : 		return -1;

	mov         w0,#-1
	b           |$LN1@AuRawSocke|
|$LN2@AuRawSocke|

; 90   : 	if (msg->msg_iovlen == 0) return 0;

	ldr         x8,[sp,#0x10]
	add         x8,x8,#0x18
	ldr         x8,[x8]
	cmp         x8,#0
	bne         |$LN3@AuRawSocke|
	mov         w0,#0
	b           |$LN1@AuRawSocke|
|$LN3@AuRawSocke|

; 91   : 	char* data = (char*)AuSocketGet(sock);

	ldr         x0,[sp,#0x20]
	bl          AuSocketGet
	str         x0,[sp,#8]

; 92   : 	if (!data) return -1;

	ldr         x8,[sp,#8]
	cmp         x8,#0
	bne         |$LN4@AuRawSocke|
	mov         w0,#-1
	b           |$LN1@AuRawSocke|
|$LN4@AuRawSocke|

; 93   : 	size_t pack_sz = *(size_t*)data;

	ldr         x8,[sp,#8]
	ldr         x8,[x8]
	str         x8,[sp,#0x18]

; 94   : 	if (msg->msg_iov[0].iov_len < pack_sz) return -1;

	ldr         x8,[sp,#0x10]
	add         x8,x8,#0x10
	ldr         x8,[x8]
	add         x8,x8,#8
	ldr         x9,[sp,#0x18]
	ldr         x8,[x8]
	cmp         x8,x9
	bhs         |$LN5@AuRawSocke|
	mov         w0,#-1
	b           |$LN1@AuRawSocke|
|$LN5@AuRawSocke|

; 95   : 	memcpy(msg->msg_iov[0].iov_base, data + sizeof(size_t), pack_sz);

	ldr         x8,[sp,#8]
	add         x1,x8,#8
	ldr         x8,[sp,#0x10]
	add         x8,x8,#0x10
	ldr         x8,[x8]
	ldr         x2,[sp,#0x18]
	ldr         x0,[x8]
	bl          memcpy

; 96   : 	kfree(data);

	ldr         x0,[sp,#8]
	bl          kfree

; 97   : 	return pack_sz;

	ldr         x8,[sp,#0x18]
	mov         w0,w8
	mov         w0,w0
|$LN1@AuRawSocke|
	add         sp,sp,#0x30
	ldr         lr,[sp],#0x10
	ret

	ENDP  ; |AuRawSocketReceive|

; Function compile flags: /Odtpy
; File C:\Users\paras\source\repos\grep-name\XenevaOS\KernelAA64\Net\socket.c

	AREA	|.text$mn|, CODE, ARM64

|SocketIOControl| PROC

; 192  : int SocketIOControl(AuVFSNode* file, int code, void* arg) {

|$LN44|
	str         lr,[sp,#-0x10]!
	sub         sp,sp,#0x90
	str         x0,[sp,#0x68]
	str         w1,[sp,#0x50]
	str         x2,[sp,#0x10]

; 193  : 	switch (code) {

	ldr         w8,[sp,#0x50]
	str         w8,[sp]
	ldr         w8,[sp]
	sub         w8,w8,#0x120
	str         w8,[sp]
	ldr         w8,[sp]
	cmp         w8,#5
	bhi         |$LN2@SocketIOCo|
	ldr         w10,[sp]
	adr         x9,__swt
	ldrsw       x8,[x9,w10 uxtw #2]
	adr         x9,|$LN37@SocketIOCo|
	add         x8,x9,x8,lsl #2
	br          x8
|$LN8@SocketIOCo|

; 194  : 		/* Route Table controls */
; 195  : 	case SOCK_ROUTE_TABLE_ADD: {
; 196  : 		if (!arg)

	ldr         x8,[sp,#0x10]
	cmp         x8,#0
	bne         |$LN9@SocketIOCo|

; 197  : 			return 1;

	mov         w0,#1
	b           |$LN1@SocketIOCo|
|$LN9@SocketIOCo|

; 198  : 		AuRouteEntry* data = (AuRouteEntry*)arg;

	ldr         x8,[sp,#0x10]
	str         x8,[sp,#0x28]

; 199  : 		AuRouteEntry* entry = AuRouteTableCreateEntry();

	bl          AuRouteTableCreateEntry
	str         x0,[sp,#8]

; 200  : 		entry->ifname = (char*)kmalloc(strlen(data->ifname));

	ldr         x8,[sp,#0x28]
	ldr         x0,[x8]
	bl          strlen
	mov         w0,w0
	mov         w0,w0
	bl          kmalloc
	ldr         x8,[sp,#8]
	str         x0,[x8]

; 201  : 		strcpy(entry->ifname, data->ifname);

	ldr         x9,[sp,#0x28]
	ldr         x8,[sp,#8]
	ldr         x1,[x9]
	ldr         x0,[x8]
	bl          strcpy

; 202  : 		entry->flags = data->flags;

	ldr         x8,[sp,#0x28]
	add         x10,x8,#0x18
	ldr         x8,[sp,#8]
	add         x9,x8,#0x18
	ldrb        w8,[x10]
	strb        w8,[x9]

; 203  : 		entry->ifaddress = data->ifaddress;

	ldr         x8,[sp,#0x28]
	add         x10,x8,#0x10
	ldr         x8,[sp,#8]
	add         x9,x8,#0x10
	ldr         w8,[x10]
	str         w8,[x9]

; 204  : 		entry->netmask = data->netmask;

	ldr         x8,[sp,#0x28]
	add         x10,x8,#0xC
	ldr         x8,[sp,#8]
	add         x9,x8,#0xC
	ldr         w8,[x10]
	str         w8,[x9]

; 205  : 		entry->dest = data->dest;

	ldr         x8,[sp,#0x28]
	add         x10,x8,#8
	ldr         x8,[sp,#8]
	add         x9,x8,#8
	ldr         w8,[x10]
	str         w8,[x9]

; 206  : 		entry->gateway = data->gateway;

	ldr         x8,[sp,#0x28]
	add         x10,x8,#0x14
	ldr         x8,[sp,#8]
	add         x9,x8,#0x14
	ldr         w8,[x10]
	str         w8,[x9]

; 207  : 		AuRouteTableAdd(entry);

	ldr         x0,[sp,#8]
	bl          AuRouteTableAdd

; 208  : 		UARTDebugOut("[aurora] net route entry added \r\n");

	adrp        x8,|$SG3652|
	add         x0,x8,PageOffset(|$SG3652|)
	bl          UARTDebugOut

; 209  : 		return 0;

	mov         w0,#0
	b           |$LN1@SocketIOCo|
|$LN10@SocketIOCo|

; 210  : 	}
; 211  : 	case SOCK_ROUTE_TABLE_DELETE: {
; 212  : 		if (!arg)

	ldr         x8,[sp,#0x10]
	cmp         x8,#0
	bne         |$LN11@SocketIOCo|

; 213  : 			return 1;

	mov         w0,#1
	b           |$LN1@SocketIOCo|
|$LN11@SocketIOCo|

; 214  : 		AuRouteEntry* data = (AuRouteEntry*)arg;

	ldr         x8,[sp,#0x10]
	str         x8,[sp,#0x80]

; 215  : 		AuRouteTableDelete(data);

	ldr         x0,[sp,#0x80]
	bl          AuRouteTableDelete

; 216  : 		return 0;

	mov         w0,#0
	b           |$LN1@SocketIOCo|
|$LN12@SocketIOCo|

; 217  : 	}
; 218  : 	case SOCK_ROUTE_TABLE_GETNUMENTRY: {
; 219  : 		return AuRouteTableGetNumEntry();

	bl          AuRouteTableGetNumEntry
	mov         w0,w0
	mov         w0,w0
	b           |$LN1@SocketIOCo|
|$LN13@SocketIOCo|
|$LN37@SocketIOCo|

; 220  : 	}
; 221  : 	case SOCK_ROUTE_TABLE_GETENTRY: {
; 222  : 		UARTDebugOut("Populating route table \r\n");

	adrp        x8,|$SG3657|
	add         x0,x8,PageOffset(|$SG3657|)
	bl          UARTDebugOut

; 223  : 		if (!arg)

	ldr         x8,[sp,#0x10]
	cmp         x8,#0
	bne         |$LN14@SocketIOCo|

; 224  : 			return 1;

	mov         w0,#1
	b           |$LN1@SocketIOCo|
|$LN14@SocketIOCo|

; 225  : 		AuRouteEntryInfo* info = (AuRouteEntryInfo*)arg;

	ldr         x8,[sp,#0x10]
	str         x8,[sp,#0x48]

; 226  : 		if (info->index == -1)

	ldr         x8,[sp,#0x48]
	ldr         w8,[x8]
	cmn         w8,#1
	bne         |$LN15@SocketIOCo|

; 227  : 			return 1;

	mov         w0,#1
	b           |$LN1@SocketIOCo|
|$LN15@SocketIOCo|

; 228  : 		if (!info->route_entry)

	ldr         x8,[sp,#0x48]
	add         x8,x8,#8
	ldr         x8,[x8]
	cmp         x8,#0
	bne         |$LN16@SocketIOCo|

; 229  : 			return 1;

	mov         w0,#1
	b           |$LN1@SocketIOCo|
|$LN16@SocketIOCo|

; 230  : 		AuRouteEntry* entry = (AuRouteEntry*)info->route_entry;

	ldr         x8,[sp,#0x48]
	add         x8,x8,#8
	ldr         x8,[x8]
	str         x8,[sp,#0x88]

; 231  : 		AuRouteTablePopulate(entry, info->index);

	ldr         x8,[sp,#0x48]
	ldr         w1,[x8]
	ldr         x0,[sp,#0x88]
	bl          AuRouteTablePopulate

; 232  : 		UARTDebugOut("[aurora]: route table populated \r\n");

	adrp        x8,|$SG3661|
	add         x0,x8,PageOffset(|$SG3661|)
	bl          UARTDebugOut

; 233  : 		return 0;

	mov         w0,#0
	b           |$LN1@SocketIOCo|
|$LN17@SocketIOCo|

; 234  : 	}
; 235  : 	case SOCK_ADD_DNS_SERVER: {
; 236  : 		AuDNSEntry* dnsentry = (AuDNSEntry*)arg;

	ldr         x8,[sp,#0x10]
	str         x8,[sp,#0x38]

; 237  : 		if (!dnsentry)

	ldr         x8,[sp,#0x38]
	cmp         x8,#0
	bne         |$LN18@SocketIOCo|

; 238  : 			return 1;

	mov         w0,#1
	b           |$LN1@SocketIOCo|
|$LN18@SocketIOCo|

; 239  : 		AuSocket* sock = (AuSocket*)file->device;

	ldr         x8,[sp,#0x68]
	add         x8,x8,#0x50
	ldr         x8,[x8]
	str         x8,[sp,#0x58]

; 240  : 		if (!sock)

	ldr         x8,[sp,#0x58]
	cmp         x8,#0
	bne         |$LN19@SocketIOCo|

; 241  : 			return 1;

	mov         w0,#1
	b           |$LN1@SocketIOCo|
|$LN19@SocketIOCo|

; 242  : 		AuVFSNode* nic = (AuVFSNode*)sock->binedDev;

	ldr         x8,[sp,#0x58]
	ldr         x8,[x8]
	str         x8,[sp,#0x60]

; 243  : 		if (!nic)

	ldr         x8,[sp,#0x60]
	cmp         x8,#0
	bne         |$LN20@SocketIOCo|

; 244  : 			return 1;

	mov         w0,#1
	b           |$LN1@SocketIOCo|
|$LN20@SocketIOCo|

; 245  : 		AuNetworkDevice* netdev = (AuNetworkDevice*)nic->device;

	ldr         x8,[sp,#0x60]
	add         x8,x8,#0x50
	ldr         x8,[x8]
	str         x8,[sp,#0x30]

; 246  : 		if (!netdev)

	ldr         x8,[sp,#0x30]
	cmp         x8,#0
	bne         |$LN21@SocketIOCo|

; 247  : 			return 1;

	mov         w0,#1
	b           |$LN1@SocketIOCo|
|$LN21@SocketIOCo|

; 248  : 		switch (dnsentry->index) {

	ldr         x8,[sp,#0x38]
	ldr         w8,[x8]
	str         w8,[sp,#0x20]
	ldr         w8,[sp,#0x20]
	cmp         w8,#1
	beq         |$LN22@SocketIOCo|
	ldr         w8,[sp,#0x20]
	cmp         w8,#2
	beq         |$LN23@SocketIOCo|
	ldr         w8,[sp,#0x20]
	cmp         w8,#3
	beq         |$LN24@SocketIOCo|
	b           |$LN25@SocketIOCo|
|$LN22@SocketIOCo|

; 249  : 		case 1:
; 250  : 			netdev->dns_ipv4_1 = dnsentry->address;

	ldr         x8,[sp,#0x38]
	add         x10,x8,#4
	ldr         x8,[sp,#0x30]
	add         x9,x8,#0x1C
	ldr         w8,[x10]
	str         w8,[x9]

; 251  : 			UARTDebugOut("[aurora]: net DNS Server added -> %d  %d\r\n", netdev->dns_ipv4_1, dnsentry->address);

	ldr         x8,[sp,#0x38]
	add         x9,x8,#4
	ldr         x8,[sp,#0x30]
	add         x8,x8,#0x1C
	ldr         w2,[x9]
	ldr         w1,[x8]
	adrp        x8,|$SG3668|
	add         x0,x8,PageOffset(|$SG3668|)
	bl          UARTDebugOut

; 252  : 			return 0;

	mov         w0,#0
	b           |$LN1@SocketIOCo|
|$LN23@SocketIOCo|

; 253  : 		case 2:
; 254  : 			netdev->dns_ipv4_2 = dnsentry->address;

	ldr         x8,[sp,#0x38]
	add         x10,x8,#4
	ldr         x8,[sp,#0x30]
	add         x9,x8,#0x20
	ldr         w8,[x10]
	str         w8,[x9]

; 255  : 			UARTDebugOut("[aurora]: DNS Server 2 added -> %d \r\n", netdev->dns_ipv4_2);

	ldr         x8,[sp,#0x30]
	add         x8,x8,#0x20
	ldr         w1,[x8]
	adrp        x8,|$SG3670|
	add         x0,x8,PageOffset(|$SG3670|)
	bl          UARTDebugOut

; 256  : 			return 0;

	mov         w0,#0
	b           |$LN1@SocketIOCo|
|$LN24@SocketIOCo|

; 257  : 		case 3:
; 258  : 			netdev->dns_ipv4_3 = dnsentry->address;

	ldr         x8,[sp,#0x38]
	add         x10,x8,#4
	ldr         x8,[sp,#0x30]
	add         x9,x8,#0x24
	ldr         w8,[x10]
	str         w8,[x9]

; 259  : 			UARTDebugOut("DNS Server 3 added -> %d \r\n", netdev->dns_ipv4_3);

	ldr         x8,[sp,#0x30]
	add         x8,x8,#0x24
	ldr         w1,[x8]
	adrp        x8,|$SG3672|
	add         x0,x8,PageOffset(|$SG3672|)
	bl          UARTDebugOut

; 260  : 			return 0;

	mov         w0,#0
	b           |$LN1@SocketIOCo|
|$LN25@SocketIOCo|

; 261  : 		default:
; 262  : 		    UARTDebugOut("[aurora]: failed to add dns entry to index -> %d \r\n", dnsentry->index);

	ldr         x8,[sp,#0x38]
	ldr         w1,[x8]
	adrp        x8,|$SG3674|
	add         x0,x8,PageOffset(|$SG3674|)
	bl          UARTDebugOut
|$LN26@SocketIOCo|

; 263  : 			break;
; 264  : 		}
; 265  : 	}
; 266  : 	case SOCK_GET_DNS_SERVER: {
; 267  : 		AuDNSEntry* dnsentry = (AuDNSEntry*)arg;

	ldr         x8,[sp,#0x10]
	str         x8,[sp,#0x18]

; 268  : 		UARTDebugOut("[aurora]: Getting dns entry of index -> %d \r\n", dnsentry->index);

	ldr         x8,[sp,#0x18]
	ldr         w1,[x8]
	adrp        x8,|$SG3676|
	add         x0,x8,PageOffset(|$SG3676|)
	bl          UARTDebugOut

; 269  : 		if (!dnsentry)

	ldr         x8,[sp,#0x18]
	cmp         x8,#0
	bne         |$LN27@SocketIOCo|

; 270  : 			return 1;

	mov         w0,#1
	b           |$LN1@SocketIOCo|
|$LN27@SocketIOCo|

; 271  : 		AuSocket* sock = (AuSocket*)file->device;

	ldr         x8,[sp,#0x68]
	add         x8,x8,#0x50
	ldr         x8,[x8]
	str         x8,[sp,#0x70]

; 272  : 		if (!sock)

	ldr         x8,[sp,#0x70]
	cmp         x8,#0
	bne         |$LN28@SocketIOCo|

; 273  : 			return 1;

	mov         w0,#1
	b           |$LN1@SocketIOCo|
|$LN28@SocketIOCo|

; 274  : 		AuVFSNode* nic = (AuVFSNode*)sock->binedDev;

	ldr         x8,[sp,#0x70]
	ldr         x8,[x8]
	str         x8,[sp,#0x78]

; 275  : 		if (!nic)

	ldr         x8,[sp,#0x78]
	cmp         x8,#0
	bne         |$LN29@SocketIOCo|

; 276  : 			return 1;

	mov         w0,#1
	b           |$LN1@SocketIOCo|
|$LN29@SocketIOCo|

; 277  : 		AuNetworkDevice* netdev = (AuNetworkDevice*)nic->device;

	ldr         x8,[sp,#0x78]
	add         x8,x8,#0x50
	ldr         x8,[x8]
	str         x8,[sp,#0x40]

; 278  : 		UARTDebugOut("[aurora] : netdev %d \r\n", netdev->dns_ipv4_1);

	ldr         x8,[sp,#0x40]
	add         x8,x8,#0x1C
	ldr         w1,[x8]
	adrp        x8,|$SG3680|
	add         x0,x8,PageOffset(|$SG3680|)
	bl          UARTDebugOut

; 279  : 		if (!netdev)

	ldr         x8,[sp,#0x40]
	cmp         x8,#0
	bne         |$LN30@SocketIOCo|

; 280  : 			return 1;

	mov         w0,#1
	b           |$LN1@SocketIOCo|
|$LN30@SocketIOCo|

; 281  : 		switch (dnsentry->index) {

	ldr         x8,[sp,#0x18]
	ldr         w8,[x8]
	str         w8,[sp,#0x24]
	ldr         w8,[sp,#0x24]
	cmp         w8,#1
	beq         |$LN31@SocketIOCo|
	ldr         w8,[sp,#0x24]
	cmp         w8,#2
	beq         |$LN32@SocketIOCo|
	ldr         w8,[sp,#0x24]
	cmp         w8,#3
	beq         |$LN33@SocketIOCo|
	b           |$LN34@SocketIOCo|
|$LN31@SocketIOCo|

; 282  : 		case 1:
; 283  : 			dnsentry->address = netdev->dns_ipv4_1;

	ldr         x8,[sp,#0x40]
	add         x10,x8,#0x1C
	ldr         x8,[sp,#0x18]
	add         x9,x8,#4
	ldr         w8,[x10]
	str         w8,[x9]

; 284  : 			UARTDebugOut("[aurora]: dns entry address -> %d \r\n", dnsentry->address);

	ldr         x8,[sp,#0x18]
	add         x8,x8,#4
	ldr         w1,[x8]
	adrp        x8,|$SG3683|
	add         x0,x8,PageOffset(|$SG3683|)
	bl          UARTDebugOut

; 285  : 			return 0;

	mov         w0,#0
	b           |$LN1@SocketIOCo|
|$LN32@SocketIOCo|

; 286  : 		case 2:
; 287  : 			dnsentry->address = netdev->dns_ipv4_2;

	ldr         x8,[sp,#0x40]
	add         x10,x8,#0x20
	ldr         x8,[sp,#0x18]
	add         x9,x8,#4
	ldr         w8,[x10]
	str         w8,[x9]

; 288  : 			return netdev->dns_ipv4_2;

	ldr         x8,[sp,#0x40]
	add         x8,x8,#0x20
	ldr         w0,[x8]
	b           |$LN1@SocketIOCo|
|$LN33@SocketIOCo|

; 289  : 		case 3:
; 290  : 			dnsentry->address = netdev->dns_ipv4_3;

	ldr         x8,[sp,#0x40]
	add         x10,x8,#0x24
	ldr         x8,[sp,#0x18]
	add         x9,x8,#4
	ldr         w8,[x10]
	str         w8,[x9]

; 291  : 			return netdev->dns_ipv4_3;

	ldr         x8,[sp,#0x40]
	add         x8,x8,#0x24
	ldr         w0,[x8]
	b           |$LN1@SocketIOCo|
|$LN34@SocketIOCo|

; 292  : 		default:
; 293  : 			UARTDebugOut("[aurora]: failed to get dns entry to index -> %d \r\n", dnsentry->index);

	ldr         x8,[sp,#0x18]
	ldr         w1,[x8]
	adrp        x8,|$SG3687|
	add         x0,x8,PageOffset(|$SG3687|)
	bl          UARTDebugOut
|$LN2@SocketIOCo|
|$LN1@SocketIOCo|
	add         sp,sp,#0x90
	ldr         lr,[sp],#0x10
	ret
|__swt|
|$LN38@SocketIOCo|

; 193  : 	switch (code) {

	DCD         0xffffffb6
|$LN39@SocketIOCo|
	DCD         0xfffffff1
|$LN40@SocketIOCo|
	DCD         0xfffffffc
|$LN41@SocketIOCo|
	DCD         0x0
|$LN42@SocketIOCo|
	DCD         0x24
|$LN43@SocketIOCo|
	DCD         0x84

	ENDP  ; |SocketIOControl|

; Function compile flags: /Odtpy
; File C:\Users\paras\source\repos\grep-name\XenevaOS\KernelAA64\Net\socket.c

	AREA	|.text$mn|, CODE, ARM64

|AuRawSocketGetList| PROC

; 361  : 	return raw_socket_list;

	adrp        x8,raw_socket_list
	ldr         x0,[x8,PageOffset(raw_socket_list)]
	ret

	ENDP  ; |AuRawSocketGetList|

; Function compile flags: /Odtpy
; File C:\Users\paras\source\repos\grep-name\XenevaOS\KernelAA64\Net\socket.c

	AREA	|.text$mn|, CODE, ARM64

|AuSocketSetOpt| PROC

; 131  : int AuSocketSetOpt(int sockfd, int level, int optname, const void* optval, socklen_t optlen) {

|$LN9|
	str         lr,[sp,#-0x10]!
	sub         sp,sp,#0x40
	str         w0,[sp,#8]
	str         w1,[sp,#0xC]
	str         w2,[sp,#0x14]
	str         x3,[sp,#0x30]
	str         x4,[sp,#0x28]

; 132  : 	AA64Thread* curr = AuGetCurrentThread();

	bl          AuGetCurrentThread
	str         x0,[sp,#0x18]

; 133  : 	AuProcess* proc = AuProcessFindThread(curr);

	ldr         x0,[sp,#0x18]
	bl          AuProcessFindThread
	str         x0,[sp]

; 134  : 	if (!proc) {

	ldr         x8,[sp]
	cmp         x8,#0
	bne         |$LN4@AuSocketSe|

; 135  : 		proc = AuProcessFindSubThread(curr);

	ldr         x0,[sp,#0x18]
	bl          AuProcessFindSubThread
	str         x0,[sp]

; 136  : 		if (!proc)

	ldr         x8,[sp]
	cmp         x8,#0
	bne         |$LN5@AuSocketSe|

; 137  : 			return -1;

	mov         w0,#-1
	b           |$LN1@AuSocketSe|
|$LN5@AuSocketSe|
|$LN4@AuSocketSe|

; 138  : 	}
; 139  : 	AuVFSNode* node = proc->fds[sockfd];

	ldr         x8,[sp]
	add         x10,x8,#0x248
	ldr         w8,[sp,#8]
	sxtw        x9,w8
	mov         x8,#8
	mul         x8,x9,x8
	add         x8,x10,x8
	ldr         x8,[x8]
	str         x8,[sp,#0x20]

; 140  : 	AuSocket* sock = (AuSocket*)node->device;

	ldr         x8,[sp,#0x20]
	add         x8,x8,#0x50
	ldr         x8,[x8]
	str         x8,[sp,#0x38]

; 141  : 	switch (level)

	ldr         w8,[sp,#0xC]
	str         w8,[sp,#0x10]
	ldr         w8,[sp,#0x10]
	cmp         w8,#0
	beq         |$LN6@AuSocketSe|
	b           |$LN7@AuSocketSe|
|$LN6@AuSocketSe|

; 142  : 	{
; 143  : 	case SOL_SOCKET:
; 144  : 		return AuSocketSOSocket(sock, optname, optval, optlen);

	ldr         x3,[sp,#0x28]
	ldr         x2,[sp,#0x30]
	ldr         w1,[sp,#0x14]
	ldr         x0,[sp,#0x38]
	bl          AuSocketSOSocket
	mov         w0,w0
	mov         w0,w0
	b           |$LN1@AuSocketSe|
|$LN7@AuSocketSe|

; 145  : 	default:
; 146  : 		return -1;

	mov         w0,#-1
	b           |$LN1@AuSocketSe|

; 147  : 	}
; 148  : 	return -1;

	mov         w0,#-1
|$LN1@AuSocketSe|
	add         sp,sp,#0x40
	ldr         lr,[sp],#0x10
	ret

	ENDP  ; |AuSocketSetOpt|

; Function compile flags: /Odtpy
; File C:\Users\paras\source\repos\grep-name\XenevaOS\KernelAA64\Net\socket.c

	AREA	|.text$mn|, CODE, ARM64

|AuCreateSocket| PROC

; 338  : int AuCreateSocket(int domain, int type, int protocol) {

|$LN8|
	str         lr,[sp,#-0x10]!
	sub         sp,sp,#0x10
	str         w0,[sp,#0xC]
	str         w1,[sp,#8]
	str         w2,[sp,#4]

; 339  : 	switch (domain) {

	ldr         w8,[sp,#0xC]
	str         w8,[sp]
	ldr         w8,[sp]
	cmp         w8,#1
	beq         |$LN4@AuCreateSo|
	ldr         w8,[sp]
	cmp         w8,#2
	beq         |$LN5@AuCreateSo|
	b           |$LN6@AuCreateSo|
|$LN4@AuCreateSo|

; 340  : 	case AF_INET:
; 341  : 		return CreateIPv4Socket(type, protocol);

	ldr         w1,[sp,#4]
	ldr         w0,[sp,#8]
	bl          CreateIPv4Socket
	mov         w0,w0
	mov         w0,w0
	b           |$LN1@AuCreateSo|
|$LN5@AuCreateSo|

; 342  : 	case AF_RAW:
; 343  : 		return AuCreateRawSocket(type, protocol);

	ldr         w1,[sp,#4]
	ldr         w0,[sp,#8]
	bl          AuCreateRawSocket
	mov         w0,w0
	mov         w0,w0
	b           |$LN1@AuCreateSo|
|$LN6@AuCreateSo|

; 344  : 	default:
; 345  : 		return -1;

	mov         w0,#-1
|$LN1@AuCreateSo|
	add         sp,sp,#0x10
	ldr         lr,[sp],#0x10
	ret

	ENDP  ; |AuCreateSocket|

; Function compile flags: /Odtpy
; File C:\Users\paras\source\repos\grep-name\XenevaOS\KernelAA64\Net\socket.c

	AREA	|.text$mn|, CODE, ARM64

|AuSocketInstall| PROC

; 353  : void AuSocketInstall() {

|$LN3|
	str         lr,[sp,#-0x10]!

; 354  : 	raw_socket_list = initialize_list();

	bl          initialize_list
	adrp        x8,raw_socket_list
	str         x0,[x8,PageOffset(raw_socket_list)]
	ldr         lr,[sp],#0x10
	ret

	ENDP  ; |AuSocketInstall|

; Function compile flags: /Odtpy
; File C:\Users\paras\source\repos\grep-name\XenevaOS\KernelAA64\Net\socket.c

	AREA	|.text$mn|, CODE, ARM64

|AuSocketGet| PROC

; 75   : void* AuSocketGet(AuSocket* sock) {

|$LN3|
	str         lr,[sp,#-0x10]!
	sub         sp,sp,#0x10
	str         x0,[sp]

; 76   : 	void* data = AuStackPop(sock->rxstack);

	ldr         x8,[sp]
	add         x8,x8,#8
	ldr         x0,[x8]
	bl          AuStackPop
	str         x0,[sp,#8]

; 77   : 	return data;

	ldr         x0,[sp,#8]
	add         sp,sp,#0x10
	ldr         lr,[sp],#0x10
	ret

	ENDP  ; |AuSocketGet|

; Function compile flags: /Odtpy
; File C:\Users\paras\source\repos\grep-name\XenevaOS\KernelAA64\Net\socket.c

	AREA	|.text$mn|, CODE, ARM64

|AuSocketAdd| PROC

; 61   : void AuSocketAdd(AuSocket* sock, void* data, size_t sz) {

|$LN3|
	str         lr,[sp,#-0x10]!
	sub         sp,sp,#0x20
	str         x0,[sp,#0x10]
	str         x1,[sp,#0x18]
	str         x2,[sp]

; 62   : 	char* data_ = (char*)kmalloc(sizeof(size_t) + sz);

	ldr         x8,[sp]
	add         x8,x8,#8
	mov         w0,w8
	mov         w0,w0
	bl          kmalloc
	str         x0,[sp,#8]

; 63   : 	memset(data_, 0, sz + sizeof(size_t));

	ldr         x8,[sp]
	add         x8,x8,#8
	mov         w2,w8
	mov         w2,w2
	mov         w1,#0
	ldr         x0,[sp,#8]
	bl          memset

; 64   : 	*(size_t*)data_ = sz;

	ldr         x9,[sp,#8]
	ldr         x8,[sp]
	str         x8,[x9]

; 65   : 	memcpy(data_ + sizeof(size_t), data, sz);

	ldr         x8,[sp,#8]
	add         x0,x8,#8
	ldr         x2,[sp]
	ldr         x1,[sp,#0x18]
	bl          memcpy

; 66   : 	UARTDebugOut("]aurora]: socket sock stack -> %x \r\n", sock->rxstack);

	ldr         x8,[sp,#0x10]
	add         x8,x8,#8
	ldr         x1,[x8]
	adrp        x8,|$SG3506|
	add         x0,x8,PageOffset(|$SG3506|)
	bl          UARTDebugOut

; 67   : 	AuStackPush(sock->rxstack, data_);

	ldr         x8,[sp,#0x10]
	add         x8,x8,#8
	ldr         x1,[sp,#8]
	ldr         x0,[x8]
	bl          AuStackPush
	add         sp,sp,#0x20
	ldr         lr,[sp],#0x10
	ret

	ENDP  ; |AuSocketAdd|

; Function compile flags: /Odtpy
; File C:\Users\paras\source\repos\grep-name\XenevaOS\KernelAA64\Net\socket.c

	AREA	|.text$mn|, CODE, ARM64

|AuNetCreateSocket| PROC

; 150  : AuSocket* AuNetCreateSocket() {

|$LN3|
	str         lr,[sp,#-0x10]!
	sub         sp,sp,#0x10

; 151  : 	AuSocket* sock = (AuSocket*)kmalloc(sizeof(AuSocket));

	mov         w0,#0x48
	bl          kmalloc
	str         x0,[sp]

; 152  : 	memset(sock, 0, sizeof(AuSocket));

	mov         w2,#0x48
	mov         w1,#0
	ldr         x0,[sp]
	bl          memset

; 153  : 	sock->rxstack = AuStackCreate();

	bl          AuStackCreate
	ldr         x8,[sp]
	add         x8,x8,#8
	str         x0,[x8]

; 154  : 	return sock;

	ldr         x0,[sp]
	add         sp,sp,#0x10
	ldr         lr,[sp],#0x10
	ret

	ENDP  ; |AuNetCreateSocket|

	END
