; Listing generated by Microsoft (R) Optimizing Compiler Version 19.29.30159.0 

	TTL	C:\Users\paras\source\repos\grep-name\XenevaOS\KernelAA64\ARM64\Debug\stack.obj
	ARM64

	AREA	|.drectve|, DRECTVE

	EXPORT	|AuStackCreate|
	EXPORT	|AuStackPush|
	EXPORT	|AuStackPop|
	IMPORT	|kmalloc|
	IMPORT	|kfree|
	IMPORT	|memset|

	AREA	|.pdata|, PDATA
|$pdata$AuStackCreate| DCD imagerel |$LN3|
	DCD	0x1200035
	;Flags[SingleProEpi] functionLength[52] RegF[0] RegI[0] H[0] frameChainReturn[UnChainedSavedLR] frameSize[32]
|$pdata$AuStackPush| DCD imagerel |$LN3|
	DCD	0x1a00071
	;Flags[SingleProEpi] functionLength[112] RegF[0] RegI[0] H[0] frameChainReturn[UnChainedSavedLR] frameSize[48]
|$pdata$AuStackPop| DCD imagerel |$LN4|
	DCD	0x1a000a1
	;Flags[SingleProEpi] functionLength[160] RegF[0] RegI[0] H[0] frameChainReturn[UnChainedSavedLR] frameSize[48]
; Function compile flags: /Odtpy
; File C:\Users\paras\source\repos\grep-name\XenevaOS\KernelAA64\stack.c

	AREA	|.text$mn|, CODE, ARM64

|AuStackPop| PROC

; 63   : void* AuStackPop(AuStack* stack) {

|$LN4|
	str         lr,[sp,#-0x10]!
	sub         sp,sp,#0x20
	str         x0,[sp]

; 64   : 	void* data = NULL;

	mov         x8,#0
	str         x8,[sp,#0x10]

; 65   : 	if (!stack->top)

	ldr         x8,[sp]
	ldr         x8,[x8]
	cmp         x8,#0
	bne         |$LN2@AuStackPop|

; 66   : 		return NULL;

	mov         x0,#0
	b           |$LN1@AuStackPop|
|$LN2@AuStackPop|

; 67   : 	AuStackItem* si;
; 68   : 	si = stack->top;

	ldr         x8,[sp]
	ldr         x8,[x8]
	str         x8,[sp,#8]

; 69   : 	stack->top = stack->top->link;

	ldr         x8,[sp]
	ldr         x8,[x8]
	add         x8,x8,#8
	ldr         x9,[sp]
	ldr         x8,[x8]
	str         x8,[x9]

; 70   : 	si->link = NULL;

	ldr         x8,[sp,#8]
	add         x9,x8,#8
	mov         x8,#0
	str         x8,[x9]

; 71   : 	data = si->data;

	ldr         x8,[sp,#8]
	ldr         x8,[x8]
	str         x8,[sp,#0x10]

; 72   : 	kfree(si);

	ldr         x0,[sp,#8]
	bl          kfree

; 73   : 	stack->itemCount--;

	ldr         x8,[sp]
	add         x8,x8,#8
	ldr         w8,[x8]
	sub         w9,w8,#1
	ldr         x8,[sp]
	add         x8,x8,#8
	str         w9,[x8]

; 74   : 	return data;

	ldr         x0,[sp,#0x10]
|$LN1@AuStackPop|
	add         sp,sp,#0x20
	ldr         lr,[sp],#0x10
	ret

	ENDP  ; |AuStackPop|

; Function compile flags: /Odtpy
; File C:\Users\paras\source\repos\grep-name\XenevaOS\KernelAA64\stack.c

	AREA	|.text$mn|, CODE, ARM64

|AuStackPush| PROC

; 51   : void AuStackPush(AuStack* stack, void* data) {

|$LN3|
	str         lr,[sp,#-0x10]!
	sub         sp,sp,#0x20
	str         x0,[sp]
	str         x1,[sp,#0x10]

; 52   : 	AuStackItem* newItem = (AuStackItem*)kmalloc(sizeof(AuStackItem));

	mov         w0,#0x10
	bl          kmalloc
	str         x0,[sp,#8]

; 53   : 	newItem->data = data;

	ldr         x9,[sp,#8]
	ldr         x8,[sp,#0x10]
	str         x8,[x9]

; 54   : 	newItem->link = stack->top;

	ldr         x10,[sp]
	ldr         x8,[sp,#8]
	add         x9,x8,#8
	ldr         x8,[x10]
	str         x8,[x9]

; 55   : 	stack->top = newItem;

	ldr         x9,[sp]
	ldr         x8,[sp,#8]
	str         x8,[x9]

; 56   : 	stack->itemCount += 1;

	ldr         x8,[sp]
	add         x8,x8,#8
	ldr         w8,[x8]
	add         w9,w8,#1
	ldr         x8,[sp]
	add         x8,x8,#8
	str         w9,[x8]
	add         sp,sp,#0x20
	ldr         lr,[sp],#0x10
	ret

	ENDP  ; |AuStackPush|

; Function compile flags: /Odtpy
; File C:\Users\paras\source\repos\grep-name\XenevaOS\KernelAA64\stack.c

	AREA	|.text$mn|, CODE, ARM64

|AuStackCreate| PROC

; 40   : AuStack* AuStackCreate() {

|$LN3|
	str         lr,[sp,#-0x10]!
	sub         sp,sp,#0x10

; 41   : 	AuStack* stack = (AuStack*)kmalloc(sizeof(AuStack));

	mov         w0,#0x10
	bl          kmalloc
	str         x0,[sp]

; 42   : 	memset(stack, 0, sizeof(AuStack));

	mov         w2,#0x10
	mov         w1,#0
	ldr         x0,[sp]
	bl          memset

; 43   : 	return stack;

	ldr         x0,[sp]
	add         sp,sp,#0x10
	ldr         lr,[sp],#0x10
	ret

	ENDP  ; |AuStackCreate|

	END
