; Listing generated by Microsoft (R) Optimizing Compiler Version 19.29.30159.0 

	TTL	C:\Users\paras\source\repos\grep-name\XenevaOS\KernelAA64\ARM64\Debug\stdio.obj
	ARM64

	AREA	|.drectve|, DRECTVE


	AREA	|.data|, DATA
	 COMMON	|integer_buffer|, 0x20

	 COMMON	|float_to_string_output|, 0x20


	AREA	|.data|, DATA
|$SG2596| DCB	"0123456789ABCDEF", 0x0
	EXPORT	|atoi|
	EXPORT	|sztoa|
	EXPORT	|printf|
	EXPORT	|ftoa|
	EXPORT	|rand|
	EXPORT	|srand|
	EXPORT	|atow|
	EXPORT	|int_to_str|
	IMPORT	|AuTextOut|
	IMPORT	|isspace|
	IMPORT	|isdigit|
	IMPORT	|_fltused|

	AREA	|.pdata|, PDATA
|$pdata$atoi| DCD imagerel |$LN13|
	DCD	0x1a00115
	;Flags[SingleProEpi] functionLength[276] RegF[0] RegI[0] H[0] frameChainReturn[UnChainedSavedLR] frameSize[48]
|$pdata$sztoa| DCD imagerel |$LN13|
	DCD	0x1000189
	;Flags[SingleProEpi] functionLength[392] RegF[0] RegI[0] H[0] frameChainReturn[UnChained] frameSize[32]
|$pdata$printf| DCD imagerel |$LN3|
	DCD	0x1200021
	;Flags[SingleProEpi] functionLength[32] RegF[0] RegI[0] H[0] frameChainReturn[UnChainedSavedLR] frameSize[32]
|$pdata$ftoa| DCD imagerel |$LN9|
	DCD	0x1a00165
	;Flags[SingleProEpi] functionLength[356] RegF[0] RegI[0] H[0] frameChainReturn[UnChainedSavedLR] frameSize[48]
|$pdata$rand| DCD imagerel |$LN3|
	DCD	0x80009d
	;Flags[SingleProEpi] functionLength[156] RegF[0] RegI[0] H[0] frameChainReturn[UnChained] frameSize[16]
|$pdata$srand| DCD imagerel |$LN3|
	DCD	0x800029
	;Flags[SingleProEpi] functionLength[40] RegF[0] RegI[0] H[0] frameChainReturn[UnChained] frameSize[16]
|$pdata$atow| DCD imagerel |$LN5|
	DCD	0x800061
	;Flags[SingleProEpi] functionLength[96] RegF[0] RegI[0] H[0] frameChainReturn[UnChained] frameSize[16]
|$pdata$int_to_str| DCD imagerel |$LN7|
	DCD	0x1000195
	;Flags[SingleProEpi] functionLength[404] RegF[0] RegI[0] H[0] frameChainReturn[UnChained] frameSize[32]

	AREA	|.data|, DATA
	%	7
|chars|	DCQ	|$SG2596|, 0
|r_x|	DCD	0x75bcd15
|r_y|	DCD	0x159a55e5
|r_z|	DCD	0x1f123bb5
|r_w|	DCD	0x5491333
; Function compile flags: /Odtpy
; File C:\Users\paras\source\repos\grep-name\XenevaOS\KernelAA64\stdio.c

	AREA	|.text$mn|, CODE, ARM64

|int_to_str| PROC

; 70   : const char* int_to_str(int value) {

|$LN7|
	sub         sp,sp,#0x20
	str         w0,[sp,#4]

; 71   : 	uint8_t size = 0;

	mov         w8,#0
	strb        w8,[sp]

; 72   : 	uint64_t size_tester = (uint64_t)value;

	ldr         w8,[sp,#4]
	sxtw        x8,w8
	str         x8,[sp,#0x10]
|$LN2@int_to_str|

; 73   : 	while (size_tester / 10 > 0) {

	ldr         x9,[sp,#0x10]
	mov         x8,#0xA
	udiv        x8,x9,x8
	cmp         x8,#0
	bls         |$LN3@int_to_str|

; 74   : 		size_tester /= 10;

	ldr         x9,[sp,#0x10]
	mov         x8,#0xA
	udiv        x8,x9,x8
	str         x8,[sp,#0x10]

; 75   : 		size++;

	ldrb        w8,[sp]
	add         w8,w8,#1
	uxtb        w8,w8
	strb        w8,[sp]

; 76   : 	}

	b           |$LN2@int_to_str|
|$LN3@int_to_str|

; 77   : 
; 78   : 	uint8_t index = 0;

	mov         w8,#0
	strb        w8,[sp,#1]

; 79   : 	uint64_t new_value = (uint64_t)value;

	ldr         w8,[sp,#4]
	sxtw        x8,w8
	str         x8,[sp,#8]
|$LN4@int_to_str|

; 80   : 	while (new_value / 10 > 0) {

	ldr         x9,[sp,#8]
	mov         x8,#0xA
	udiv        x8,x9,x8
	cmp         x8,#0
	bls         |$LN5@int_to_str|

; 81   : 		uint8_t remainder = new_value % 10;

	ldr         x10,[sp,#8]
	mov         x9,#0xA
	udiv        x8,x10,x9
	mul         x8,x8,x9
	sub         x8,x10,x8
	uxtb        w8,w8
	strb        w8,[sp,#2]

; 82   : 		new_value /= 10;

	ldr         x9,[sp,#8]
	mov         x8,#0xA
	udiv        x8,x9,x8
	str         x8,[sp,#8]

; 83   : 		integer_buffer[size - index] = remainder + 48;

	ldrb        w8,[sp,#2]
	mov         w8,w8
	add         w10,w8,#0x30
	ldrb        w9,[sp]
	mov         w9,w9
	ldrb        w8,[sp,#1]
	mov         w8,w8
	sub         w8,w9,w8
	sxtw        x9,w8
	mov         x8,#1
	mul         x9,x9,x8
	adrp        x8,integer_buffer
	add         x8,x8,PageOffset(integer_buffer)
	add         x9,x8,x9
	sxtb        w8,w10
	strb        w8,[x9]

; 84   : 		index++;

	ldrb        w8,[sp,#1]
	add         w8,w8,#1
	uxtb        w8,w8
	strb        w8,[sp,#1]

; 85   : 	}

	b           |$LN4@int_to_str|
|$LN5@int_to_str|

; 86   : 
; 87   : 	uint8_t remainder = new_value % 10;

	ldr         x10,[sp,#8]
	mov         x9,#0xA
	udiv        x8,x10,x9
	mul         x8,x8,x9
	sub         x8,x10,x8
	uxtb        w8,w8
	strb        w8,[sp,#3]

; 88   : 	integer_buffer[size - index] = remainder + 48;

	ldrb        w8,[sp,#3]
	mov         w8,w8
	add         w10,w8,#0x30
	ldrb        w9,[sp]
	mov         w9,w9
	ldrb        w8,[sp,#1]
	mov         w8,w8
	sub         w8,w9,w8
	sxtw        x9,w8
	mov         x8,#1
	mul         x9,x9,x8
	adrp        x8,integer_buffer
	add         x8,x8,PageOffset(integer_buffer)
	add         x9,x8,x9
	sxtb        w8,w10
	strb        w8,[x9]

; 89   : 	integer_buffer[size + 1] = 0;

	ldrb        w8,[sp]
	mov         w8,w8
	add         w8,w8,#1
	sxtw        x9,w8
	mov         x8,#1
	mul         x9,x9,x8
	adrp        x8,integer_buffer
	add         x8,x8,PageOffset(integer_buffer)
	add         x9,x8,x9
	mov         w8,#0
	strb        w8,[x9]

; 90   : 	return integer_buffer;

	adrp        x8,integer_buffer
	add         x0,x8,PageOffset(integer_buffer)
	add         sp,sp,#0x20
	ret

	ENDP  ; |int_to_str|

; Function compile flags: /Odtpy
; File C:\Users\paras\source\repos\grep-name\XenevaOS\KernelAA64\stdio.c

	AREA	|.text$mn|, CODE, ARM64

|atow|	PROC

; 64   : void atow(char* buf, const char* source){

|$LN5|
	sub         sp,sp,#0x10
	str         x0,[sp,#8]
	str         x1,[sp]
|$LN2@atow|

; 65   : 	while (*source != 0)*buf++ = *source++;

	ldr         x8,[sp]
	ldrsb       w8,[x8]
	mov         w8,w8
	cmp         w8,#0
	beq         |$LN3@atow|
	ldr         x9,[sp,#8]
	ldr         x8,[sp]
	ldrsb       w8,[x8]
	strb        w8,[x9]
	ldr         x8,[sp,#8]
	add         x8,x8,#1
	str         x8,[sp,#8]
	ldr         x8,[sp]
	add         x8,x8,#1
	str         x8,[sp]
	b           |$LN2@atow|
|$LN3@atow|

; 66   : 	*buf = '\0';

	ldr         x9,[sp,#8]
	mov         w8,#0
	strb        w8,[x9]
	add         sp,sp,#0x10
	ret

	ENDP  ; |atow|

; Function compile flags: /Odtpy
; File C:\Users\paras\source\repos\grep-name\XenevaOS\KernelAA64\stdio.c

	AREA	|.text$mn|, CODE, ARM64

|srand|	PROC

; 162  : void srand(unsigned int seed) {

|$LN3|
	sub         sp,sp,#0x10
	str         w0,[sp]

; 163  : 	r_w ^= seed;

	adrp        x8,r_w
	ldr         w9,[x8,PageOffset(r_w)]
	ldr         w8,[sp]
	eor         w9,w9,w8
	adrp        x8,r_w
	str         w9,[x8,PageOffset(r_w)]
	add         sp,sp,#0x10
	ret

	ENDP  ; |srand|

; Function compile flags: /Odtpy
; File C:\Users\paras\source\repos\grep-name\XenevaOS\KernelAA64\stdio.c

	AREA	|.text$mn|, CODE, ARM64

|rand|	PROC

; 152  : int rand() {

|$LN3|
	sub         sp,sp,#0x10

; 153  : 	uint32_t t;
; 154  : 
; 155  : 	t = r_x ^ (r_x << 11);

	adrp        x8,r_x
	ldr         w8,[x8,PageOffset(r_x)]
	lsl         w9,w8,#0xB
	adrp        x8,r_x
	ldr         w8,[x8,PageOffset(r_x)]
	eor         w8,w8,w9
	str         w8,[sp]

; 156  : 	r_x = r_y; r_y = r_z; r_z = r_w;

	adrp        x9,r_x
	adrp        x8,r_y
	ldr         w8,[x8,PageOffset(r_y)]
	str         w8,[x9,PageOffset(r_x)]
	adrp        x9,r_y
	adrp        x8,r_z
	ldr         w8,[x8,PageOffset(r_z)]
	str         w8,[x9,PageOffset(r_y)]
	adrp        x9,r_z
	adrp        x8,r_w
	ldr         w8,[x8,PageOffset(r_w)]
	str         w8,[x9,PageOffset(r_z)]

; 157  : 	r_w = r_w ^ (r_w >> 19) ^ t ^ (t >> 8);

	adrp        x8,r_w
	ldr         w8,[x8,PageOffset(r_w)]
	lsr         w9,w8,#0x13
	adrp        x8,r_w
	ldr         w8,[x8,PageOffset(r_w)]
	eor         w9,w8,w9
	ldr         w8,[sp]
	eor         w9,w9,w8
	ldr         w8,[sp]
	lsr         w8,w8,#8
	eor         w9,w9,w8
	adrp        x8,r_w
	str         w9,[x8,PageOffset(r_w)]

; 158  : 
; 159  : 	return (r_w & RAND_MAX);

	adrp        x8,r_w
	ldr         w8,[x8,PageOffset(r_w)]
	and         w0,w8,#0x7FFFFFFF
	mov         w0,w0
	add         sp,sp,#0x10
	ret

	ENDP  ; |rand|

; Function compile flags: /Odtpy
; File C:\Users\paras\source\repos\grep-name\XenevaOS\KernelAA64\stdio.c

	AREA	|.text$mn|, CODE, ARM64

|ftoa|	PROC

; 94   : char* ftoa(float value, uint8_t decimal_places) {

|$LN9|
	str         lr,[sp,#-0x10]!
	sub         sp,sp,#0x20
	str         s0,[sp,#4]
	uxtb        w8,w0
	strb        w8,[sp,#1]

; 95   : 	char* int_ptr = (char*)int_to_str((int)value);

	ldr         s16,[sp,#4]
	fcvtzs      w0,s16
	mov         w0,w0
	bl          int_to_str
	str         x0,[sp,#0x18]

; 96   : 	char* float_ptr = float_to_string_output;

	adrp        x8,float_to_string_output
	add         x8,x8,PageOffset(float_to_string_output)
	str         x8,[sp,#0x10]

; 97   : 
; 98   : 	if (value < 0) {

	ldr         s16,[sp,#4]
	fcmpe       s16,#0
	bhs         |$LN7@ftoa|

; 99   : 		value *= -1;

	ldr         s17,[sp,#4]
	fmov        s16,#-1
	fmul        s16,s17,s16
	str         s16,[sp,#4]
|$LN7@ftoa|
|$LN2@ftoa|

; 100  : 	}
; 101  : 
; 102  : 
; 103  : 	while (*int_ptr != 0) {

	ldr         x8,[sp,#0x18]
	ldrsb       w8,[x8]
	mov         w8,w8
	cmp         w8,#0
	beq         |$LN3@ftoa|

; 104  : 		*float_ptr = *int_ptr;

	ldr         x9,[sp,#0x10]
	ldr         x8,[sp,#0x18]
	ldrsb       w8,[x8]
	strb        w8,[x9]

; 105  : 		int_ptr++;

	ldr         x8,[sp,#0x18]
	add         x8,x8,#1
	str         x8,[sp,#0x18]

; 106  : 		float_ptr++;

	ldr         x8,[sp,#0x10]
	add         x8,x8,#1
	str         x8,[sp,#0x10]

; 107  : 	}

	b           |$LN2@ftoa|
|$LN3@ftoa|

; 108  : 
; 109  : 	*float_ptr = '.';

	ldr         x9,[sp,#0x10]
	mov         w8,#0x2E
	strb        w8,[x9]

; 110  : 	float_ptr++;

	ldr         x8,[sp,#0x10]
	add         x8,x8,#1
	str         x8,[sp,#0x10]

; 111  : 
; 112  : 	float new_value = value - (int)value;

	ldr         s16,[sp,#4]
	fcvtzs      w8,s16
	scvtf       s17,w8
	ldr         s16,[sp,#4]
	fsub        s16,s16,s17
	str         s16,[sp,#8]

; 113  : 
; 114  : 	for (uint8_t i = 0; i < decimal_places; i++) {

	mov         w8,#0
	strb        w8,[sp]
	b           |$LN6@ftoa|
|$LN4@ftoa|
	ldrb        w8,[sp]
	add         w8,w8,#1
	uxtb        w8,w8
	strb        w8,[sp]
|$LN6@ftoa|
	ldrb        w9,[sp]
	mov         w9,w9
	ldrb        w8,[sp,#1]
	mov         w8,w8
	cmp         w9,w8
	bge         |$LN5@ftoa|

; 115  : 		new_value *= 10;

	ldr         s17,[sp,#8]
	fmov        s16,#10
	fmul        s16,s17,s16
	str         s16,[sp,#8]

; 116  : 		*float_ptr = (int)new_value + 48;

	ldr         s16,[sp,#8]
	fcvtzs      w8,s16
	add         w8,w8,#0x30
	sxtb        w9,w8
	ldr         x8,[sp,#0x10]
	strb        w9,[x8]

; 117  : 		new_value -= (int)new_value;

	ldr         s16,[sp,#8]
	fcvtzs      w8,s16
	scvtf       s17,w8
	ldr         s16,[sp,#8]
	fsub        s16,s16,s17
	str         s16,[sp,#8]

; 118  : 		float_ptr++;

	ldr         x8,[sp,#0x10]
	add         x8,x8,#1
	str         x8,[sp,#0x10]

; 119  : 	}

	b           |$LN4@ftoa|
|$LN5@ftoa|

; 120  : 
; 121  : 	*float_ptr = 0;

	ldr         x9,[sp,#0x10]
	mov         w8,#0
	strb        w8,[x9]

; 122  : 
; 123  : 	return float_to_string_output;

	adrp        x8,float_to_string_output
	add         x0,x8,PageOffset(float_to_string_output)
	add         sp,sp,#0x20
	ldr         lr,[sp],#0x10
	ret

	ENDP  ; |ftoa|

; Function compile flags: /Odtpy
; File C:\Users\paras\source\repos\grep-name\XenevaOS\KernelAA64\stdio.c

	AREA	|.text$mn|, CODE, ARM64

|printf| PROC

; 141  : void printf(const char* format, ...) {

|$LN3|
	str         lr,[sp,#-0x10]!
	sub         sp,sp,#0x10
	str         x0,[sp]

; 142  : 	AuTextOut(format);

	ldr         x0,[sp]
	bl          AuTextOut
	add         sp,sp,#0x10
	ldr         lr,[sp],#0x10
	ret

	ENDP  ; |printf|

; Function compile flags: /Odtpy
; File C:\Users\paras\source\repos\grep-name\XenevaOS\KernelAA64\stdio.c

	AREA	|.text$mn|, CODE, ARM64

|sztoa|	PROC

; 45   : {

|$LN13|
	sub         sp,sp,#0x20
	str         x0,[sp,#0x18]
	str         x1,[sp,#0x10]
	str         w2,[sp,#0xC]

; 46   : 	if (base < 2 || base > 16)

	ldr         w8,[sp,#0xC]
	cmp         w8,#2
	blt         |$LN9@sztoa|
	ldr         w8,[sp,#0xC]
	cmp         w8,#0x10
	ble         |$LN8@sztoa|
|$LN9@sztoa|

; 47   : 		return NULL;

	mov         x0,#0
	b           |$LN1@sztoa|
|$LN8@sztoa|

; 48   : 	unsigned int i = 0;

	mov         w8,#0
	str         w8,[sp,#4]
|$LN4@sztoa|

; 49   : 	do
; 50   : 	{
; 51   : 		str[++i] = chars[value % base];

	ldr         w8,[sp,#4]
	add         w8,w8,#1
	str         w8,[sp,#4]
	ldr         w8,[sp,#4]
	uxtw        x9,w8
	mov         x8,#1
	mul         x9,x9,x8
	ldr         x8,[sp,#0x10]
	add         x11,x8,x9
	ldr         w8,[sp,#0xC]
	sxtw        x10,w8
	ldr         x9,[sp,#0x18]
	cbnz        x10,|$LN11@sztoa|
	brk         #0xF004
|$LN11@sztoa|
	udiv        x8,x9,x10
	mul         x8,x8,x10
	sub         x9,x9,x8
	mov         x8,#1
	mul         x9,x9,x8
	adrp        x8,chars
	ldr         x8,[x8,PageOffset(chars)]
	add         x8,x8,x9
	ldrsb       w8,[x8]
	strb        w8,[x11]

; 52   : 		value /= base;

	ldr         w8,[sp,#0xC]
	sxtw        x9,w8
	ldr         x8,[sp,#0x18]
	cbnz        x9,|$LN12@sztoa|
	brk         #0xF004
|$LN12@sztoa|
	udiv        x8,x8,x9
	str         x8,[sp,#0x18]

; 53   : 	} while (value != 0);

	ldr         x8,[sp,#0x18]
	cmp         x8,#0
	bne         |$LN4@sztoa|

; 54   : 	str[0] = '\0';

	ldr         x9,[sp,#0x10]
	mov         w8,#0
	strb        w8,[x9]

; 55   : 	for (unsigned int z = 0; z < i; ++z, --i)

	mov         w8,#0
	str         w8,[sp,#8]
	b           |$LN7@sztoa|
|$LN5@sztoa|
	ldr         w8,[sp,#8]
	add         w8,w8,#1
	str         w8,[sp,#8]
	ldr         w8,[sp,#4]
	sub         w8,w8,#1
	str         w8,[sp,#4]
|$LN7@sztoa|
	ldr         w9,[sp,#4]
	ldr         w8,[sp,#8]
	cmp         w8,w9
	bhs         |$LN6@sztoa|

; 56   : 	{
; 57   : 		char tmp = str[z];

	ldr         w8,[sp,#8]
	uxtw        x9,w8
	mov         x8,#1
	mul         x9,x9,x8
	ldr         x8,[sp,#0x10]
	add         x8,x8,x9
	ldrsb       w8,[x8]
	strb        w8,[sp]

; 58   : 		str[z] = str[i];

	ldr         w8,[sp,#4]
	uxtw        x9,w8
	mov         x8,#1
	mul         x9,x9,x8
	ldr         x8,[sp,#0x10]
	add         x10,x8,x9
	ldr         w8,[sp,#8]
	uxtw        x9,w8
	mov         x8,#1
	mul         x9,x9,x8
	ldr         x8,[sp,#0x10]
	add         x9,x8,x9
	ldrsb       w8,[x10]
	strb        w8,[x9]

; 59   : 		str[i] = tmp;

	ldr         w8,[sp,#4]
	uxtw        x9,w8
	mov         x8,#1
	mul         x9,x9,x8
	ldr         x8,[sp,#0x10]
	add         x9,x8,x9
	ldrsb       w8,[sp]
	strb        w8,[x9]

; 60   : 	}

	b           |$LN5@sztoa|
|$LN6@sztoa|

; 61   : 	return str;

	ldr         x0,[sp,#0x10]
|$LN1@sztoa|
	add         sp,sp,#0x20
	ret

	ENDP  ; |sztoa|

; Function compile flags: /Odtpy
; File C:\Users\paras\source\repos\grep-name\XenevaOS\KernelAA64\stdio.c

	AREA	|.text$mn|, CODE, ARM64

|atoi|	PROC

; 127  : int atoi(const char* s) {

|$LN13|
	str         lr,[sp,#-0x10]!
	sub         sp,sp,#0x20
	str         x0,[sp,#0x10]

; 128  : 
; 129  : 	int n = 0, neg = 0;

	mov         w8,#0
	str         w8,[sp]
	mov         w8,#0
	str         w8,[sp,#8]
|$LN2@atoi|

; 130  : 	while (isspace(*s)) s++;

	ldr         x8,[sp,#0x10]
	ldrsb       w0,[x8]
	mov         w0,w0
	mov         w0,w0
	bl          isspace
	mov         w0,w0
	cmp         w0,#0
	beq         |$LN3@atoi|
	ldr         x8,[sp,#0x10]
	add         x8,x8,#1
	str         x8,[sp,#0x10]
	b           |$LN2@atoi|
|$LN3@atoi|

; 131  : 	switch (*s) {

	ldr         x8,[sp,#0x10]
	ldrsb       w8,[x8]
	mov         w8,w8
	str         w8,[sp,#4]
	ldr         w8,[sp,#4]
	cmp         w8,#0x2B
	beq         |$LN9@atoi|
	ldr         w8,[sp,#4]
	cmp         w8,#0x2D
	beq         |$LN8@atoi|
	b           |$LN4@atoi|
|$LN8@atoi|

; 132  : 	case '-': neg = 1;

	mov         w8,#1
	str         w8,[sp,#8]
|$LN9@atoi|

; 133  : 	case '+': s++;

	ldr         x8,[sp,#0x10]
	add         x8,x8,#1
	str         x8,[sp,#0x10]
|$LN4@atoi|
|$LN6@atoi|

; 134  : 	}
; 135  : 
; 136  : 	while (isdigit(*s))

	ldr         x8,[sp,#0x10]
	ldrsb       w0,[x8]
	mov         w0,w0
	mov         w0,w0
	bl          isdigit
	mov         w0,w0
	cmp         w0,#0
	beq         |$LN7@atoi|

; 137  : 		n = 10 * n - (*s++ - '0');

	ldr         w9,[sp]
	mov         w8,#0xA
	mul         w9,w9,w8
	ldr         x8,[sp,#0x10]
	ldrsb       w8,[x8]
	mov         w8,w8
	sub         w8,w8,#0x30
	sub         w8,w9,w8
	str         w8,[sp]
	ldr         x8,[sp,#0x10]
	add         x8,x8,#1
	str         x8,[sp,#0x10]
	b           |$LN6@atoi|
|$LN7@atoi|

; 138  : 	return neg ? n : -n;

	ldr         w8,[sp,#8]
	cmp         w8,#0
	beq         |$LN11@atoi|
	ldr         w8,[sp]
	str         w8,[sp,#0xC]
	b           |$LN12@atoi|
|$LN11@atoi|
	ldr         w8,[sp]
	neg         w8,w8
	str         w8,[sp,#0xC]
|$LN12@atoi|
	ldr         w0,[sp,#0xC]
	add         sp,sp,#0x20
	ldr         lr,[sp],#0x10
	ret

	ENDP  ; |atoi|

	END
