; Listing generated by Microsoft (R) Optimizing Compiler Version 19.29.30159.0 

	TTL	C:\Users\paras\source\repos\grep-name\XenevaOS\KernelAA64\ARM64\Debug\string.obj
	ARM64

	AREA	|.drectve|, DRECTVE

	EXPORT	|strcmp|
	EXPORT	|strcpy|
	EXPORT	|strlen|
	EXPORT	|strncmp|
	EXPORT	|strncpy|
	EXPORT	|strchr|
	EXPORT	|strcat|
	EXPORT	|strncat|
	EXPORT	|memset|
	EXPORT	|memcpy|
	EXPORT	|memcmp|
	EXPORT	|strdup|
	EXPORT	|strstr|
	IMPORT	|kmalloc|

	AREA	|.pdata|, PDATA
|$pdata$strcmp| DCD imagerel |$LN9|
	DCD	0x10000c5
	;Flags[SingleProEpi] functionLength[196] RegF[0] RegI[0] H[0] frameChainReturn[UnChained] frameSize[32]
|$pdata$strcpy| DCD imagerel |$LN8|
	DCD	0x1000085
	;Flags[SingleProEpi] functionLength[132] RegF[0] RegI[0] H[0] frameChainReturn[UnChained] frameSize[32]
|$pdata$strlen| DCD imagerel |$LN6|
	DCD	0x80004d
	;Flags[SingleProEpi] functionLength[76] RegF[0] RegI[0] H[0] frameChainReturn[UnChained] frameSize[16]
|$pdata$strncmp| DCD imagerel |$LN7|
	DCD	0x10000d1
	;Flags[SingleProEpi] functionLength[208] RegF[0] RegI[0] H[0] frameChainReturn[UnChained] frameSize[32]
|$pdata$strncpy| DCD imagerel |$LN11|
	DCD	0x1000109
	;Flags[SingleProEpi] functionLength[264] RegF[0] RegI[0] H[0] frameChainReturn[UnChained] frameSize[32]
|$pdata$strchr| DCD imagerel |$LN7|
	DCD	0x800061
	;Flags[SingleProEpi] functionLength[96] RegF[0] RegI[0] H[0] frameChainReturn[UnChained] frameSize[16]
|$pdata$strcat| DCD imagerel |$LN12|
	DCD	0x100011d
	;Flags[SingleProEpi] functionLength[284] RegF[0] RegI[0] H[0] frameChainReturn[UnChained] frameSize[32]
|$pdata$strncat| DCD imagerel |$LN15|
	DCD	0x1800175
	;Flags[SingleProEpi] functionLength[372] RegF[0] RegI[0] H[0] frameChainReturn[UnChained] frameSize[48]
|$pdata$memset| DCD imagerel |$LN5|
	DCD	0x1000061
	;Flags[SingleProEpi] functionLength[96] RegF[0] RegI[0] H[0] frameChainReturn[UnChained] frameSize[32]
|$pdata$memcpy| DCD imagerel |$LN10|
	DCD	0x2000121
	;Flags[SingleProEpi] functionLength[288] RegF[0] RegI[0] H[0] frameChainReturn[UnChained] frameSize[64]
|$pdata$memcmp| DCD imagerel |$LN9|
	DCD	0x10000dd
	;Flags[SingleProEpi] functionLength[220] RegF[0] RegI[0] H[0] frameChainReturn[UnChained] frameSize[32]
|$pdata$strdup| DCD imagerel |$LN3|
	DCD	0x1200051
	;Flags[SingleProEpi] functionLength[80] RegF[0] RegI[0] H[0] frameChainReturn[UnChainedSavedLR] frameSize[32]
|$pdata$strstr| DCD imagerel |$LN8|
	DCD	0x1a000a1
	;Flags[SingleProEpi] functionLength[160] RegF[0] RegI[0] H[0] frameChainReturn[UnChainedSavedLR] frameSize[48]
; Function compile flags: /Odtpy
; File C:\Users\paras\source\repos\grep-name\XenevaOS\KernelAA64\string.c

	AREA	|.text$mn|, CODE, ARM64

|strstr| PROC

; 233  : char* strstr(const char* s1, const char* s2) {

|$LN8|
	str         lr,[sp,#-0x10]!
	sub         sp,sp,#0x20
	str         x0,[sp,#8]
	str         x1,[sp,#0x10]

; 234  : 	int count = 0;

	mov         w8,#0
	str         w8,[sp]

; 235  : 	int s2Len = strlen(s2);

	ldr         x0,[sp,#0x10]
	bl          strlen
	mov         w8,w0
	str         w8,[sp,#4]

; 236  : 
; 237  : 	for (count = 0; s1[0]; count++) {

	mov         w8,#0
	str         w8,[sp]
	b           |$LN4@strstr|
|$LN2@strstr|
	ldr         w8,[sp]
	add         w8,w8,#1
	str         w8,[sp]
|$LN4@strstr|
	ldr         x8,[sp,#8]
	ldrsb       w8,[x8]
	mov         w8,w8
	cmp         w8,#0
	beq         |$LN3@strstr|

; 238  : 		if (!strncmp(s1, s2, s2Len))

	ldr         w8,[sp,#4]
	sxtw        x2,w8
	ldr         x1,[sp,#0x10]
	ldr         x0,[sp,#8]
	bl          strncmp
	mov         w0,w0
	cmp         w0,#0
	bne         |$LN5@strstr|

; 239  : 			return ((char*)s1);

	ldr         x0,[sp,#8]
	b           |$LN1@strstr|
	b           |$LN6@strstr|
|$LN5@strstr|

; 240  : 		else
; 241  : 			s1++;

	ldr         x8,[sp,#8]
	add         x8,x8,#1
	str         x8,[sp,#8]
|$LN6@strstr|

; 242  : 	}

	b           |$LN2@strstr|
|$LN3@strstr|

; 243  : 
; 244  : 	return NULL;

	mov         x0,#0
|$LN1@strstr|
	add         sp,sp,#0x20
	ldr         lr,[sp],#0x10
	ret

	ENDP  ; |strstr|

; Function compile flags: /Odtpy
; File C:\Users\paras\source\repos\grep-name\XenevaOS\KernelAA64\string.c

	AREA	|.text$mn|, CODE, ARM64

|strdup| PROC

; 226  : char* strdup(const char* c) {

|$LN3|
	str         lr,[sp,#-0x10]!
	sub         sp,sp,#0x10
	str         x0,[sp]

; 227  : 	char* out = (char*)kmalloc(strlen(c) + 1);

	ldr         x0,[sp]
	bl          strlen
	add         x8,x0,#1
	mov         w0,w8
	mov         w0,w0
	bl          kmalloc
	str         x0,[sp,#8]

; 228  : 	memcpy(out, (void*)c, strlen(c) + 1);

	ldr         x0,[sp]
	bl          strlen
	add         x2,x0,#1
	ldr         x1,[sp]
	ldr         x0,[sp,#8]
	bl          memcpy

; 229  : 	return out;

	ldr         x0,[sp,#8]
	add         sp,sp,#0x10
	ldr         lr,[sp],#0x10
	ret

	ENDP  ; |strdup|

; Function compile flags: /Odtpy
; File C:\Users\paras\source\repos\grep-name\XenevaOS\KernelAA64\string.c

	AREA	|.text$mn|, CODE, ARM64

|memcmp| PROC

; 21   : int memcmp(const void* first, const void* second, size_t length) {

|$LN9|
	sub         sp,sp,#0x20
	str         x0,[sp,#8]
	str         x1,[sp,#0x10]
	str         x2,[sp,#0x18]

; 22   : 	size_t count;
; 23   : 	for (count = 0; count < length; count++)

	mov         x8,#0
	str         x8,[sp]
	b           |$LN4@memcmp|
|$LN2@memcmp|
	ldr         x8,[sp]
	add         x8,x8,#1
	str         x8,[sp]
|$LN4@memcmp|
	ldr         x9,[sp,#0x18]
	ldr         x8,[sp]
	cmp         x8,x9
	bhs         |$LN3@memcmp|

; 24   : 	{
; 25   : 		if (((unsigned char*)first)[count] != ((unsigned char*)second)[count])

	ldr         x9,[sp]
	mov         x8,#1
	mul         x9,x9,x8
	ldr         x8,[sp,#8]
	add         x8,x8,x9
	ldrb        w10,[x8]
	mov         w10,w10
	ldr         x9,[sp]
	mov         x8,#1
	mul         x9,x9,x8
	ldr         x8,[sp,#0x10]
	add         x8,x8,x9
	ldrb        w8,[x8]
	mov         w8,w8
	cmp         w10,w8
	beq         |$LN5@memcmp|

; 26   : 		{
; 27   : 			if (((unsigned char*)first)[count] < ((unsigned char*)second)[count])

	ldr         x9,[sp]
	mov         x8,#1
	mul         x9,x9,x8
	ldr         x8,[sp,#8]
	add         x8,x8,x9
	ldrb        w10,[x8]
	mov         w10,w10
	ldr         x9,[sp]
	mov         x8,#1
	mul         x9,x9,x8
	ldr         x8,[sp,#0x10]
	add         x8,x8,x9
	ldrb        w8,[x8]
	mov         w8,w8
	cmp         w10,w8
	bge         |$LN6@memcmp|

; 28   : 			{
; 29   : 				return (-1);

	mov         w0,#-1
	b           |$LN1@memcmp|

; 30   : 			}

	b           |$LN7@memcmp|
|$LN6@memcmp|

; 31   : 			else
; 32   : 			{
; 33   : 				return (1);

	mov         w0,#1
	b           |$LN1@memcmp|
|$LN7@memcmp|
|$LN5@memcmp|

; 34   : 			}
; 35   : 		}
; 36   : 	}

	b           |$LN2@memcmp|
|$LN3@memcmp|

; 37   : 
; 38   : 	return (0); //return successful code

	mov         w0,#0
|$LN1@memcmp|
	add         sp,sp,#0x20
	ret

	ENDP  ; |memcmp|

; Function compile flags: /Odtpy
; File C:\Users\paras\source\repos\grep-name\XenevaOS\KernelAA64\string.c

	AREA	|.text$mn|, CODE, ARM64

|memcpy| PROC

; 42   : void memcpy(void* __restrict dest, void* __restrict src, size_t len) {

|$LN10|
	sub         sp,sp,#0x40
	str         x0,[sp,#0x18]
	str         x1,[sp,#0x20]
	str         x2,[sp]

; 43   : 	//_fastcpy(dest, src, count);
; 44   : 	uint8_t* t = (uint8_t*)dest;

	ldr         x8,[sp,#0x18]
	str         x8,[sp,#8]

; 45   : 	uint8_t* s = (uint8_t*)src;

	ldr         x8,[sp,#0x20]
	str         x8,[sp,#0x10]

; 46   : 	if (len > 0) {

	ldr         x8,[sp]
	cmp         x8,#0
	bls         |$LN6@memcpy|

; 47   : 		// check to see if target is in the range of src and if so, do a memmove() instead
; 48   : 		if ((t > s) && (t < (s + len))) {

	ldr         x9,[sp,#0x10]
	ldr         x8,[sp,#8]
	cmp         x8,x9
	bls         |$LN7@memcpy|
	ldr         x9,[sp,#0x10]
	ldr         x8,[sp]
	add         x9,x9,x8
	ldr         x8,[sp,#8]
	cmp         x8,x9
	bhs         |$LN7@memcpy|

; 49   : 			t += (len - 1);

	ldr         x8,[sp]
	sub         x9,x8,#1
	ldr         x8,[sp,#8]
	add         x8,x8,x9
	str         x8,[sp,#8]

; 50   : 			s += (len - 1);

	ldr         x8,[sp]
	sub         x9,x8,#1
	ldr         x8,[sp,#0x10]
	add         x8,x8,x9
	str         x8,[sp,#0x10]
|$LN2@memcpy|

; 51   : 			while (len--)

	ldr         x8,[sp]
	str         x8,[sp,#0x28]
	ldr         x8,[sp]
	sub         x8,x8,#1
	str         x8,[sp]
	ldr         x8,[sp,#0x28]
	cmp         x8,#0
	beq         |$LN3@memcpy|

; 52   : 				*t-- = *s++;

	ldr         x9,[sp,#8]
	ldr         x8,[sp,#0x10]
	ldrb        w8,[x8]
	strb        w8,[x9]
	ldr         x8,[sp,#8]
	sub         x8,x8,#1
	str         x8,[sp,#8]
	ldr         x8,[sp,#0x10]
	add         x8,x8,#1
	str         x8,[sp,#0x10]
	b           |$LN2@memcpy|
|$LN3@memcpy|

; 53   : 		}

	b           |$LN8@memcpy|
|$LN7@memcpy|
|$LN4@memcpy|

; 54   : 		else {
; 55   : 			while (len--)

	ldr         x8,[sp]
	str         x8,[sp,#0x30]
	ldr         x8,[sp]
	sub         x8,x8,#1
	str         x8,[sp]
	ldr         x8,[sp,#0x30]
	cmp         x8,#0
	beq         |$LN5@memcpy|

; 56   : 				*t++ = *s++;

	ldr         x9,[sp,#8]
	ldr         x8,[sp,#0x10]
	ldrb        w8,[x8]
	strb        w8,[x9]
	ldr         x8,[sp,#8]
	add         x8,x8,#1
	str         x8,[sp,#8]
	ldr         x8,[sp,#0x10]
	add         x8,x8,#1
	str         x8,[sp,#0x10]
	b           |$LN4@memcpy|
|$LN5@memcpy|
|$LN8@memcpy|
|$LN6@memcpy|
	add         sp,sp,#0x40
	ret

	ENDP  ; |memcpy|

; Function compile flags: /Odtpy
; File C:\Users\paras\source\repos\grep-name\XenevaOS\KernelAA64\string.c

	AREA	|.text$mn|, CODE, ARM64

|memset| PROC

; 15   : void memset(void* targ, int val, uint32_t len) {

|$LN5|
	sub         sp,sp,#0x20
	str         x0,[sp,#0x18]
	str         w1,[sp,#8]
	str         w2,[sp]

; 16   : 	uint8_t* t = (uint8_t*)targ;

	ldr         x8,[sp,#0x18]
	str         x8,[sp,#0x10]
|$LN2@memset|

; 17   : 	while (len--)

	ldr         w8,[sp]
	str         w8,[sp,#4]
	ldr         w8,[sp]
	sub         w8,w8,#1
	str         w8,[sp]
	ldr         w8,[sp,#4]
	cmp         w8,#0
	beq         |$LN3@memset|

; 18   : 		*t++ = (unsigned char*)val;

	ldr         w8,[sp,#8]
	uxtb        w9,w8
	ldr         x8,[sp,#0x10]
	strb        w9,[x8]
	ldr         x8,[sp,#0x10]
	add         x8,x8,#1
	str         x8,[sp,#0x10]
	b           |$LN2@memset|
|$LN3@memset|
	add         sp,sp,#0x20
	ret

	ENDP  ; |memset|

; Function compile flags: /Odtpy
; File C:\Users\paras\source\repos\grep-name\XenevaOS\KernelAA64\string.c

	AREA	|.text$mn|, CODE, ARM64

|strncat| PROC

; 178  : {

|$LN15|
	sub         sp,sp,#0x30
	str         x0,[sp,#0x10]
	str         x1,[sp,#0x18]
	str         x2,[sp,#0x20]

; 179  : 	unsigned count1, count2;
; 180  : 	int endFlag = 0;

	mov         w8,#0
	str         w8,[sp,#0xC]

; 181  : 	char sourceChar;
; 182  : 
; 183  : 	// Find the end of the first String
; 184  : 	for (count1 = 0; count1 < MAX_STRING_LENGTH;)

	mov         w8,#0
	str         w8,[sp,#4]
|$LN2@strncat|
	ldr         w8,[sp,#4]
	cmp         w8,#0xFFF
	bhs         |$LN3@strncat|

; 185  : 	{
; 186  : 		if (destString[count1] == '\0')

	ldr         w8,[sp,#4]
	uxtw        x9,w8
	mov         x8,#1
	mul         x9,x9,x8
	ldr         x8,[sp,#0x10]
	add         x8,x8,x9
	ldrsb       w8,[x8]
	mov         w8,w8
	cmp         w8,#0
	bne         |$LN8@strncat|

; 187  : 			break;

	b           |$LN3@strncat|
	b           |$LN9@strncat|
|$LN8@strncat|

; 188  : 		else
; 189  : 			count1++;

	ldr         w8,[sp,#4]
	add         w8,w8,#1
	str         w8,[sp,#4]
|$LN9@strncat|

; 190  : 	}

	b           |$LN2@strncat|
|$LN3@strncat|

; 191  : 
; 192  : 	// If this is true, then we probably have an unterminated string
; 193  : 	// constant.  Checking for a string that exceeds MAXSTRINGLENGTH will
; 194  : 	// help to prevent the function from running off too far into memory.
; 195  : 	if (count1 >= MAX_STRING_LENGTH)

	ldr         w8,[sp,#4]
	cmp         w8,#0xFFF
	blo         |$LN10@strncat|

; 196  : 	{
; 197  : 		//errno = ERR_BOUNDS;
; 198  : 		return (destString = NULL);

	mov         x8,#0
	str         x8,[sp,#0x10]
	ldr         x0,[sp,#0x10]
	b           |$LN1@strncat|
|$LN10@strncat|

; 199  : 	}
; 200  : 
; 201  : 	// Now copy the source string into the dest.  If source is shorter than
; 202  : 	// maxLength, pad dest with NULL characters.
; 203  : 	for (count2 = 0; count2 < maxLength;)

	mov         w8,#0
	str         w8,[sp,#8]
|$LN5@strncat|
	ldr         w8,[sp,#8]
	uxtw        x9,w8
	ldr         x8,[sp,#0x20]
	cmp         x9,x8
	bhs         |$LN6@strncat|

; 204  : 	{
; 205  : 		if ((sourceString[count2] == '\0') || (endFlag == 1))

	ldr         w8,[sp,#8]
	uxtw        x9,w8
	mov         x8,#1
	mul         x9,x9,x8
	ldr         x8,[sp,#0x18]
	add         x8,x8,x9
	ldrsb       w8,[x8]
	mov         w8,w8
	cmp         w8,#0
	beq         |$LN13@strncat|
	ldr         w8,[sp,#0xC]
	cmp         w8,#1
	bne         |$LN11@strncat|
|$LN13@strncat|

; 206  : 		{
; 207  : 			endFlag = 1;

	mov         w8,#1
	str         w8,[sp,#0xC]

; 208  : 			sourceChar = (char)NULL;

	mov         w8,#0
	strb        w8,[sp]

; 209  : 		}

	b           |$LN12@strncat|
|$LN11@strncat|

; 210  : 		else
; 211  : 		{
; 212  : 			sourceChar = sourceString[count2];

	ldr         w8,[sp,#8]
	uxtw        x9,w8
	mov         x8,#1
	mul         x9,x9,x8
	ldr         x8,[sp,#0x18]
	add         x8,x8,x9
	ldrsb       w8,[x8]
	strb        w8,[sp]
|$LN12@strncat|

; 213  : 		}
; 214  : 
; 215  : 		destString[count1] = sourceChar;

	ldr         w8,[sp,#4]
	uxtw        x9,w8
	mov         x8,#1
	mul         x9,x9,x8
	ldr         x8,[sp,#0x10]
	add         x9,x8,x9
	ldrsb       w8,[sp]
	strb        w8,[x9]

; 216  : 		count1++; count2++;

	ldr         w8,[sp,#4]
	add         w8,w8,#1
	str         w8,[sp,#4]
	ldr         w8,[sp,#8]
	add         w8,w8,#1
	str         w8,[sp,#8]

; 217  : 	}

	b           |$LN5@strncat|
|$LN6@strncat|

; 218  : 
; 219  : 	// Make sure there's a NULL at the end
; 220  : 	destString[count1] = NULL;

	ldr         w8,[sp,#4]
	uxtw        x9,w8
	mov         x8,#1
	mul         x9,x9,x8
	ldr         x8,[sp,#0x10]
	add         x9,x8,x9
	mov         w8,#0
	strb        w8,[x9]

; 221  : 
; 222  : 	// Return success
; 223  : 	return (destString);

	ldr         x0,[sp,#0x10]
|$LN1@strncat|
	add         sp,sp,#0x30
	ret

	ENDP  ; |strncat|

; Function compile flags: /Odtpy
; File C:\Users\paras\source\repos\grep-name\XenevaOS\KernelAA64\string.c

	AREA	|.text$mn|, CODE, ARM64

|strcat| PROC

; 143  : {

|$LN12|
	sub         sp,sp,#0x20
	str         x0,[sp,#8]
	str         x1,[sp,#0x10]

; 144  : 	int count1, count2;
; 145  : 
; 146  : 	// Find the end of the first String
; 147  : 	for (count1 = 0; count1 < MAX_STRING_LENGTH;)

	mov         w8,#0
	str         w8,[sp]
|$LN2@strcat|
	ldr         w8,[sp]
	cmp         w8,#0xFFF
	bge         |$LN3@strcat|

; 148  : 	{
; 149  : 		if (!destString[count1])

	ldr         w8,[sp]
	sxtw        x9,w8
	mov         x8,#1
	mul         x9,x9,x8
	ldr         x8,[sp,#8]
	add         x8,x8,x9
	ldrsb       w8,[x8]
	mov         w8,w8
	cmp         w8,#0
	bne         |$LN8@strcat|

; 150  : 			break;

	b           |$LN3@strcat|
|$LN8@strcat|

; 151  : 
; 152  : 		count1 += 1;

	ldr         w8,[sp]
	add         w8,w8,#1
	str         w8,[sp]

; 153  : 	}

	b           |$LN2@strcat|
|$LN3@strcat|

; 154  : 
; 155  : 	// If this is true, then we possibly have an unterminated string constant.
; 156  : 	// Checking for a string that exceeds MAXSTRINGLENGTH will help to prevent
; 157  : 	// the function from running off too far into memory.
; 158  : 	if (count1 >= MAX_STRING_LENGTH)

	ldr         w8,[sp]
	cmp         w8,#0xFFF
	blt         |$LN9@strcat|

; 159  : 	{
; 160  : 		//errno = ERR_BOUNDS;
; 161  : 		return (destString = NULL);

	mov         x8,#0
	str         x8,[sp,#8]
	ldr         x0,[sp,#8]
	b           |$LN1@strcat|
|$LN9@strcat|

; 162  : 	}
; 163  : 
; 164  : 	// Now copy the source string into the dest until the source is a NULL
; 165  : 	// character.
; 166  : 	for (count2 = 0; count1 < MAX_STRING_LENGTH; count1++, count2++)

	mov         w8,#0
	str         w8,[sp,#4]
	b           |$LN7@strcat|
|$LN5@strcat|
	ldr         w8,[sp]
	add         w8,w8,#1
	str         w8,[sp]
	ldr         w8,[sp,#4]
	add         w8,w8,#1
	str         w8,[sp,#4]
|$LN7@strcat|
	ldr         w8,[sp]
	cmp         w8,#0xFFF
	bge         |$LN6@strcat|

; 167  : 	{
; 168  : 		destString[count1] = sourceString[count2];

	ldr         w8,[sp,#4]
	sxtw        x9,w8
	mov         x8,#1
	mul         x9,x9,x8
	ldr         x8,[sp,#0x10]
	add         x10,x8,x9
	ldr         w8,[sp]
	sxtw        x9,w8
	mov         x8,#1
	mul         x9,x9,x8
	ldr         x8,[sp,#8]
	add         x9,x8,x9
	ldrsb       w8,[x10]
	strb        w8,[x9]

; 169  : 
; 170  : 		if (!sourceString[count2])

	ldr         w8,[sp,#4]
	sxtw        x9,w8
	mov         x8,#1
	mul         x9,x9,x8
	ldr         x8,[sp,#0x10]
	add         x8,x8,x9
	ldrsb       w8,[x8]
	mov         w8,w8
	cmp         w8,#0
	bne         |$LN10@strcat|

; 171  : 			break;

	b           |$LN6@strcat|
|$LN10@strcat|

; 172  : 	}

	b           |$LN5@strcat|
|$LN6@strcat|

; 173  : 
; 174  : 	return (destString);

	ldr         x0,[sp,#8]
|$LN1@strcat|
	add         sp,sp,#0x20
	ret

	ENDP  ; |strcat|

; Function compile flags: /Odtpy
; File C:\Users\paras\source\repos\grep-name\XenevaOS\KernelAA64\string.c

	AREA	|.text$mn|, CODE, ARM64

|strchr| PROC

; 132  : char* strchr(char* str, int character) {

|$LN7|
	sub         sp,sp,#0x10
	str         x0,[sp,#8]
	str         w1,[sp]
|$LN4@strchr|

; 133  : 
; 134  : 	do {
; 135  : 		if (*str == character)

	ldr         x8,[sp,#8]
	ldrsb       w9,[x8]
	mov         w9,w9
	ldr         w8,[sp]
	cmp         w9,w8
	bne         |$LN5@strchr|

; 136  : 			return (char*)str;

	ldr         x0,[sp,#8]
	b           |$LN1@strchr|
|$LN5@strchr|

; 137  : 	} while (*str++);

	ldr         x8,[sp,#8]
	ldrsb       w8,[x8]
	mov         w8,w8
	str         w8,[sp,#4]
	ldr         x8,[sp,#8]
	add         x8,x8,#1
	str         x8,[sp,#8]
	ldr         w8,[sp,#4]
	cmp         w8,#0
	bne         |$LN4@strchr|

; 138  : 
; 139  : 	return 0;

	mov         x0,#0
|$LN1@strchr|
	add         sp,sp,#0x10
	ret

	ENDP  ; |strchr|

; Function compile flags: /Odtpy
; File C:\Users\paras\source\repos\grep-name\XenevaOS\KernelAA64\string.c

	AREA	|.text$mn|, CODE, ARM64

|strncpy| PROC

; 104  : char* strncpy(char* destString, const char* sourceString, size_t maxLength) {

|$LN11|
	sub         sp,sp,#0x20
	str         x0,[sp,#8]
	str         x1,[sp,#0x18]
	str         x2,[sp,#0x10]

; 105  : 	unsigned count;
; 106  : 
; 107  : 	if ((destString == (char*)NULL) || (sourceString == (char*)NULL))

	ldr         x8,[sp,#8]
	cmp         x8,#0
	beq         |$LN6@strncpy|
	ldr         x8,[sp,#0x18]
	cmp         x8,#0
	bne         |$LN5@strncpy|
|$LN6@strncpy|

; 108  : 	{
; 109  : 		return (destString = NULL);

	mov         x8,#0
	str         x8,[sp,#8]
	ldr         x0,[sp,#8]
	b           |$LN1@strncpy|
|$LN5@strncpy|

; 110  : 	}
; 111  : 
; 112  : 	if (maxLength > MAX_STRING_LENGTH)

	ldr         x8,[sp,#0x10]
	cmp         x8,#0xFFF
	bls         |$LN7@strncpy|

; 113  : 		maxLength = MAX_STRING_LENGTH;

	mov         x8,#0xFFF
	str         x8,[sp,#0x10]
|$LN7@strncpy|

; 114  : 
; 115  : 	for (count = 0; count < maxLength; count++)

	mov         w8,#0
	str         w8,[sp]
	b           |$LN4@strncpy|
|$LN2@strncpy|
	ldr         w8,[sp]
	add         w8,w8,#1
	str         w8,[sp]
|$LN4@strncpy|
	ldr         w8,[sp]
	uxtw        x9,w8
	ldr         x8,[sp,#0x10]
	cmp         x9,x8
	bhs         |$LN3@strncpy|

; 116  : 	{
; 117  : 		destString[count] = sourceString[count];

	ldr         w8,[sp]
	uxtw        x9,w8
	mov         x8,#1
	mul         x9,x9,x8
	ldr         x8,[sp,#0x18]
	add         x10,x8,x9
	ldr         w8,[sp]
	uxtw        x9,w8
	mov         x8,#1
	mul         x9,x9,x8
	ldr         x8,[sp,#8]
	add         x9,x8,x9
	ldrsb       w8,[x10]
	strb        w8,[x9]

; 118  : 
; 119  : 		if (sourceString[count] == '\0')

	ldr         w8,[sp]
	uxtw        x9,w8
	mov         x8,#1
	mul         x9,x9,x8
	ldr         x8,[sp,#0x18]
	add         x8,x8,x9
	ldrsb       w8,[x8]
	mov         w8,w8
	cmp         w8,#0
	bne         |$LN8@strncpy|

; 120  : 			break;

	b           |$LN3@strncpy|
|$LN8@strncpy|

; 121  : 	}

	b           |$LN2@strncpy|
|$LN3@strncpy|

; 122  : 
; 123  : 	if (count >= MAX_STRING_LENGTH)

	ldr         w8,[sp]
	cmp         w8,#0xFFF
	blo         |$LN9@strncpy|

; 124  : 	{
; 125  : 		return (destString = NULL);

	mov         x8,#0
	str         x8,[sp,#8]
	ldr         x0,[sp,#8]
	b           |$LN1@strncpy|
|$LN9@strncpy|

; 126  : 	}
; 127  : 
; 128  : 	return (destString);

	ldr         x0,[sp,#8]
|$LN1@strncpy|
	add         sp,sp,#0x20
	ret

	ENDP  ; |strncpy|

; Function compile flags: /Odtpy
; File C:\Users\paras\source\repos\grep-name\XenevaOS\KernelAA64\string.c

	AREA	|.text$mn|, CODE, ARM64

|strncmp| PROC

; 96   : int strncmp(const char* s1, const char* s2, size_t n) {

|$LN7|
	sub         sp,sp,#0x20
	str         x0,[sp]
	str         x1,[sp,#0x10]
	str         x2,[sp,#8]
|$LN2@strncmp|

; 97   : 	while (n > 0 && *s1 != '\0' && *s1 == *s2) {

	ldr         x8,[sp,#8]
	cmp         x8,#0
	bls         |$LN3@strncmp|
	ldr         x8,[sp]
	ldrsb       w8,[x8]
	mov         w8,w8
	cmp         w8,#0
	beq         |$LN3@strncmp|
	ldr         x8,[sp]
	ldrsb       w9,[x8]
	mov         w9,w9
	ldr         x8,[sp,#0x10]
	ldrsb       w8,[x8]
	mov         w8,w8
	cmp         w9,w8
	bne         |$LN3@strncmp|

; 98   : 		n--, s1++, s2++;

	ldr         x8,[sp,#8]
	sub         x8,x8,#1
	str         x8,[sp,#8]
	ldr         x8,[sp]
	add         x8,x8,#1
	str         x8,[sp]
	ldr         x8,[sp,#0x10]
	add         x8,x8,#1
	str         x8,[sp,#0x10]

; 99   : 	}

	b           |$LN2@strncmp|
|$LN3@strncmp|

; 100  : 
; 101  : 	return (n == 0) ? 0 : (size_t)((unsigned char)*s1 - (unsigned char)*s2);

	ldr         x8,[sp,#8]
	cmp         x8,#0
	bne         |$LN5@strncmp|
	mov         x8,#0
	str         x8,[sp,#0x18]
	b           |$LN6@strncmp|
|$LN5@strncmp|
	ldr         x8,[sp]
	ldrsb       w8,[x8]
	uxtb        w9,w8
	mov         w9,w9
	ldr         x8,[sp,#0x10]
	ldrsb       w8,[x8]
	uxtb        w8,w8
	mov         w8,w8
	sub         w8,w9,w8
	sxtw        x8,w8
	str         x8,[sp,#0x18]
|$LN6@strncmp|
	ldr         x8,[sp,#0x18]
	mov         w0,w8
	mov         w0,w0
	add         sp,sp,#0x20
	ret

	ENDP  ; |strncmp|

; Function compile flags: /Odtpy
; File C:\Users\paras\source\repos\grep-name\XenevaOS\KernelAA64\string.c

	AREA	|.text$mn|, CODE, ARM64

|strlen| PROC

; 89   : size_t strlen(const char* s) {

|$LN6|
	sub         sp,sp,#0x10
	str         x0,[sp]

; 90   : 	const char* a = s;

	ldr         x8,[sp]
	str         x8,[sp,#8]
	b           |$LN4@strlen|
|$LN2@strlen|

; 91   : 	for (; *s; s++);

	ldr         x8,[sp]
	add         x8,x8,#1
	str         x8,[sp]
|$LN4@strlen|
	ldr         x8,[sp]
	ldrsb       w8,[x8]
	mov         w8,w8
	cmp         w8,#0
	beq         |$LN3@strlen|
	b           |$LN2@strlen|
|$LN3@strlen|

; 92   : 	return s - a;

	ldr         x9,[sp]
	ldr         x8,[sp,#8]
	sub         x0,x9,x8
	add         sp,sp,#0x10
	ret

	ENDP  ; |strlen|

; Function compile flags: /Odtpy
; File C:\Users\paras\source\repos\grep-name\XenevaOS\KernelAA64\string.c

	AREA	|.text$mn|, CODE, ARM64

|strcpy| PROC

; 79   : {

|$LN8|
	sub         sp,sp,#0x20
	str         x0,[sp]
	str         x1,[sp,#8]

; 80   : 	if (s1 == NULL || s2 == NULL)

	ldr         x8,[sp]
	cmp         x8,#0
	beq         |$LN6@strcpy|
	ldr         x8,[sp,#8]
	cmp         x8,#0
	bne         |$LN5@strcpy|
|$LN6@strcpy|

; 81   : 		return NULL;

	mov         x0,#0
	b           |$LN1@strcpy|
|$LN5@strcpy|

; 82   : 
; 83   : 	char* s1_p = s1;

	ldr         x8,[sp]
	str         x8,[sp,#0x10]
	b           |$LN4@strcpy|
|$LN2@strcpy|

; 84   : 	for (; (*s1 = *s2); s2++, s1++);

	ldr         x8,[sp,#8]
	add         x8,x8,#1
	str         x8,[sp,#8]
	ldr         x8,[sp]
	add         x8,x8,#1
	str         x8,[sp]
|$LN4@strcpy|
	ldr         x9,[sp]
	ldr         x8,[sp,#8]
	ldrsb       w8,[x8]
	strb        w8,[x9]
	ldr         x8,[sp]
	ldrsb       w8,[x8]
	mov         w8,w8
	cmp         w8,#0
	beq         |$LN3@strcpy|
	b           |$LN2@strcpy|
|$LN3@strcpy|

; 85   : 	return s1_p;

	ldr         x0,[sp,#0x10]
|$LN1@strcpy|
	add         sp,sp,#0x20
	ret

	ENDP  ; |strcpy|

; Function compile flags: /Odtpy
; File C:\Users\paras\source\repos\grep-name\XenevaOS\KernelAA64\string.c

	AREA	|.text$mn|, CODE, ARM64

|strcmp| PROC

; 62   : int strcmp(const char* str1, const char* str2) {

|$LN9|
	sub         sp,sp,#0x20
	str         x0,[sp,#0x10]
	str         x1,[sp,#8]

; 63   : 	if (str1 == NULL || str2 == NULL)

	ldr         x8,[sp,#0x10]
	cmp         x8,#0
	beq         |$LN5@strcmp|
	ldr         x8,[sp,#8]
	cmp         x8,#0
	bne         |$LN4@strcmp|
|$LN5@strcmp|

; 64   : 		return -1;

	mov         w0,#-1
	b           |$LN1@strcmp|
|$LN4@strcmp|

; 65   : 
; 66   : 	int res = 0;

	mov         w8,#0
	str         w8,[sp]
|$LN2@strcmp|

; 67   : 	while (!(res = *(unsigned char*)str1 - *(unsigned char*)str2) && *str2)

	ldr         x8,[sp,#0x10]
	ldrb        w9,[x8]
	mov         w9,w9
	ldr         x8,[sp,#8]
	ldrb        w8,[x8]
	mov         w8,w8
	sub         w8,w9,w8
	str         w8,[sp]
	ldr         w8,[sp]
	cmp         w8,#0
	bne         |$LN3@strcmp|
	ldr         x8,[sp,#8]
	ldrsb       w8,[x8]
	mov         w8,w8
	cmp         w8,#0
	beq         |$LN3@strcmp|

; 68   : 		++str1, ++str2;

	ldr         x8,[sp,#0x10]
	add         x8,x8,#1
	str         x8,[sp,#0x10]
	ldr         x8,[sp,#8]
	add         x8,x8,#1
	str         x8,[sp,#8]
	b           |$LN2@strcmp|
|$LN3@strcmp|

; 69   : 
; 70   : 	if (res < 0)

	ldr         w8,[sp]
	cmp         w8,#0
	bge         |$LN6@strcmp|

; 71   : 		res = -1;

	mov         w8,#-1
	str         w8,[sp]
|$LN6@strcmp|

; 72   : 	if (res > 0)

	ldr         w8,[sp]
	cmp         w8,#0
	ble         |$LN7@strcmp|

; 73   : 		res = 1;

	mov         w8,#1
	str         w8,[sp]
|$LN7@strcmp|

; 74   : 
; 75   : 	return res;

	ldr         w0,[sp]
|$LN1@strcmp|
	add         sp,sp,#0x20
	ret

	ENDP  ; |strcmp|

	END
