; Listing generated by Microsoft (R) Optimizing Compiler Version 19.29.30159.0 

	TTL	C:\Users\paras\source\repos\grep-name\XenevaOS\KernelAA64\ARM64\Debug\systable.obj
	ARM64

	AREA	|.drectve|, DRECTVE

	EXPORT	|null_call|
	IMPORT	|UARTDebugOut|
	IMPORT	|AuGetSystemTimerTick|
	IMPORT	|AuCredGetGroupID|
	IMPORT	|AuCreateSocket|
	IMPORT	|AuSocketSetOpt|
	IMPORT	|PauseThread|
	IMPORT	|GetThreadID|
	IMPORT	|GetProcessID|
	IMPORT	|ProcessExit|
	IMPORT	|ProcessWaitForTermination|
	IMPORT	|CreateProcess|
	IMPORT	|ProcessLoadExec|
	IMPORT	|ProcessSleep|
	IMPORT	|CreateSharedMem|
	IMPORT	|ObtainSharedMem|
	IMPORT	|UnmapSharedMem|
	IMPORT	|GetProcessHeapMem|
	IMPORT	|OpenFile|
	IMPORT	|ReadFile|
	IMPORT	|WriteFile|
	IMPORT	|CloseFile|
	IMPORT	|FileIoControl|
	IMPORT	|FileStat|
	IMPORT	|CreateUserThread|
	IMPORT	|SetFileToProcess|
	IMPORT	|ProcessHeapUnmap|
	IMPORT	|OpenDir|
	IMPORT	|ReadDir|
	IMPORT	|ProcessGetFileDesc|
	IMPORT	|FileSetOffset|
	IMPORT	|NetSend|
	IMPORT	|NetReceive|
	IMPORT	|NetConnect|
	IMPORT	|NetBind|
	IMPORT	|NetAccept|
	IMPORT	|NetListen|
	IMPORT	|GetEnvironmenBlock|
	IMPORT	|CreateMemMapping|
	IMPORT	|MemMapDirty|
	IMPORT	|UnmapMemMapping|
	IMPORT	|AuFTMngrGetFontID|
	IMPORT	|AuFTMngrGetNumFonts|
	IMPORT	|AuFTMngrGetFontSize|
	IMPORT	|AuTTYCreate|
	IMPORT	|AuGetVDiskInfo|
	IMPORT	|AuGetVDiskPartitionInfo|
	IMPORT	|AuCredChangeID|
	IMPORT	|AuCredAddSGroup|
	IMPORT	|AuCredSetCap|
	IMPORT	|AuCredGetCap|
	IMPORT	|AuSetUID|
	IMPORT	|AuSetGID|
	IMPORT	|AuProcessTokenAddSelf|
	IMPORT	|AuProcessTokenGetThreadID|
	IMPORT	|AuProcessTokenRemoveSelf|
	IMPORT	|AuCreatePipe|
	IMPORT	|AuPowerDown|
	IMPORT	|AuPowerReset|
	IMPORT	|AuGetCurrentMS|
	IMPORT	|AuGetCurrentUS|

	AREA	|.data|, DATA
	 COMMON	|svcCurrentRegs|, 0x8

	EXPORT	|AuAA64SyscallHandler|
	EXPORT	|AA64GetCurrentRegCtx|
	EXPORT	|test_call|
	IMPORT	|mask_irqs|
	IMPORT	|AuGetCurrentThread|

	AREA	|.pdata|, PDATA
|$pdata$AuAA64SyscallHandler| DCD imagerel |$LN6|
	DCD	0x2200175
	;Flags[SingleProEpi] functionLength[372] RegF[0] RegI[0] H[0] frameChainReturn[UnChainedSavedLR] frameSize[64]
|$pdata$null_call| DCD imagerel |$LN3|
	DCD	0x220003d
	;Flags[SingleProEpi] functionLength[60] RegF[0] RegI[0] H[0] frameChainReturn[UnChainedSavedLR] frameSize[64]
|$pdata$test_call| DCD imagerel |$LN3|
	DCD	0xa0001d
	;Flags[SingleProEpi] functionLength[28] RegF[0] RegI[0] H[0] frameChainReturn[UnChainedSavedLR] frameSize[16]

	AREA	|.data|, DATA
|$SG4191| DCB	"Null call initiated ", 0xd, 0xa, 0x0
	%	1
|$SG4195| DCB	"Test call initiated ", 0xd, 0xa, 0x0
	%	1
|syscalls| DCQ	|null_call|, 0
	DCQ	|UARTDebugOut|, 0
	DCQ	|PauseThread|, 0
	DCQ	|GetThreadID|, 0
	DCQ	|GetProcessID|, 0
	DCQ	|ProcessExit|, 0
	DCQ	|ProcessWaitForTermination|, 0
	DCQ	|CreateProcess|, 0
	DCQ	|ProcessLoadExec|, 0
	DCQ	|CreateSharedMem|, 0
	DCQ	|ObtainSharedMem|, 0
	DCQ	|UnmapSharedMem|, 0
	DCQ	|OpenFile|, 0
	DCQ	|CreateMemMapping|, 0
	DCQ	|UnmapMemMapping|, 0
	DCQ	|GetProcessHeapMem|, 0
	DCQ	|ReadFile|, 0
	DCQ	|WriteFile|, 0
	DCQ	0x0, 0x0				;  = 0x0000000000000000
	DCQ	0x0, 0x0				;  = 0x0000000000000000
	DCQ	|CloseFile|, 0
	DCQ	|FileIoControl|, 0
	DCQ	|FileStat|, 0
	DCQ	|ProcessSleep|, 0
	DCQ	0x0, 0x0				;  = 0x0000000000000000
	DCQ	0x0, 0x0				;  = 0x0000000000000000
	DCQ	|AuGetSystemTimerTick|, 0
	DCQ	|AuFTMngrGetFontID|, 0
	DCQ	|AuFTMngrGetNumFonts|, 0
	DCQ	|AuFTMngrGetFontSize|, 0
	DCQ	|MemMapDirty|, 0
	DCQ	|AuTTYCreate|, 0
	DCQ	|CreateUserThread|, 0
	DCQ	|SetFileToProcess|, 0
	DCQ	|ProcessHeapUnmap|, 0
	DCQ	0x0, 0x0				;  = 0x0000000000000000
	DCQ	0x0, 0x0				;  = 0x0000000000000000
	DCQ	|OpenDir|, 0
	DCQ	|ReadDir|, 0
	DCQ	0x0, 0x0				;  = 0x0000000000000000
	DCQ	0x0, 0x0				;  = 0x0000000000000000
	DCQ	0x0, 0x0				;  = 0x0000000000000000
	DCQ	0x0, 0x0				;  = 0x0000000000000000
	DCQ	|ProcessGetFileDesc|, 0
	DCQ	|FileSetOffset|, 0
	DCQ	0x0, 0x0				;  = 0x0000000000000000
	DCQ	|AuCreateSocket|, 0
	DCQ	|NetConnect|, 0
	DCQ	|NetSend|, 0
	DCQ	|NetReceive|, 0
	DCQ	|AuSocketSetOpt|, 0
	DCQ	|NetBind|, 0
	DCQ	|NetAccept|, 0
	DCQ	|NetListen|, 0
	DCQ	|AuCreatePipe|, 0
	DCQ	|AuGetVDiskInfo|, 0
	DCQ	|AuGetVDiskPartitionInfo|, 0
	DCQ	|GetEnvironmenBlock|, 0
	DCQ	|AuCredChangeID|, 0
	DCQ	|AuCredAddSGroup|, 0
	DCQ	|AuCredSetCap|, 0
	DCQ	|AuCredGetCap|, 0
	DCQ	|AuSetUID|, 0
	DCQ	|AuSetGID|, 0
	DCQ	|AuCredGetGroupID|, 0
	DCQ	|AuProcessTokenAddSelf|, 0
	DCQ	|AuProcessTokenGetThreadID|, 0
	DCQ	|AuProcessTokenRemoveSelf|, 0
	DCQ	|AuPowerDown|, 0
	DCQ	|AuPowerReset|, 0
	DCQ	|AuGetCurrentUS|, 0
	DCQ	|AuGetCurrentMS|, 0
; Function compile flags: /Odtpy
; File C:\Users\paras\source\repos\grep-name\XenevaOS\KernelAA64\Hal\systable.c

	AREA	|.text$mn|, CODE, ARM64

|test_call| PROC

; 73   : uint64_t test_call() {

|$LN3|
	str         lr,[sp,#-0x10]!

; 74   : 	UARTDebugOut("Test call initiated \r\n");

	adrp        x8,|$SG4195|
	add         x0,x8,PageOffset(|$SG4195|)
	bl          UARTDebugOut

; 75   : 	return 100;

	mov         x0,#0x64
	ldr         lr,[sp],#0x10
	ret

	ENDP  ; |test_call|

; Function compile flags: /Odtpy
; File C:\Users\paras\source\repos\grep-name\XenevaOS\KernelAA64\Hal\systable.c

	AREA	|.text$mn|, CODE, ARM64

|null_call| PROC

; 64   : 	param4, int64_t param5, int64_t param6) {

|$LN3|
	str         lr,[sp,#-0x10]!
	sub         sp,sp,#0x30
	str         x0,[sp]
	str         x1,[sp,#8]
	str         x2,[sp,#0x10]
	str         x3,[sp,#0x18]
	str         x4,[sp,#0x20]
	str         x5,[sp,#0x28]

; 65   : 	UARTDebugOut("Null call initiated \r\n");

	adrp        x8,|$SG4191|
	add         x0,x8,PageOffset(|$SG4191|)
	bl          UARTDebugOut

; 66   : 	return 1;

	mov         x0,#1
	add         sp,sp,#0x30
	ldr         lr,[sp],#0x10
	ret

	ENDP  ; |null_call|

; Function compile flags: /Odtpy
; File C:\Users\paras\source\repos\grep-name\XenevaOS\KernelAA64\Hal\systable.c

	AREA	|.text$mn|, CODE, ARM64

|AA64GetCurrentRegCtx| PROC

; 79   : 	return svcCurrentRegs;

	adrp        x8,svcCurrentRegs
	ldr         x0,[x8,PageOffset(svcCurrentRegs)]
	ret

	ENDP  ; |AA64GetCurrentRegCtx|

; Function compile flags: /Odtpy
; File C:\Users\paras\source\repos\grep-name\XenevaOS\KernelAA64\Hal\systable.c

	AREA	|.text$mn|, CODE, ARM64

|AuAA64SyscallHandler| PROC

; 241  : void AuAA64SyscallHandler(AA64Registers* regs) {

|$LN6|
	str         lr,[sp,#-0x10]!
	sub         sp,sp,#0x30
	str         x0,[sp]

; 242  : 	mask_irqs();

	bl          mask_irqs

; 243  : 	uint64_t vector = regs->x16;

	ldr         x8,[sp]
	add         x8,x8,#0x70
	ldr         x8,[x8]
	str         x8,[sp,#8]

; 244  : 	uint64_t retcode = 0;

	mov         x8,#0
	str         x8,[sp,#0x10]

; 245  : 
; 246  : #ifdef __KERNEL_PROFILER_ON__
; 247  : 	if (syscall_name[vector] == 0)
; 248  : 		goto skip_1;
; 249  : 	PROFILE_START(syscall_name[vector]);
; 250  : skip_1:
; 251  : #endif
; 252  : 	if ((vector > AURORA_MAX_SYSCALL) || (vector < 0)) {

	ldr         x8,[sp,#8]
	cmp         x8,#0x48
	bhi         |$LN3@AuAA64Sysc|
	ldr         x8,[sp,#8]
	cmp         x8,#0
	bhs         |$LN2@AuAA64Sysc|
|$LN3@AuAA64Sysc|

; 253  : 		regs->x0 = retcode;

	ldr         x8,[sp]
	add         x9,x8,#0xF0
	ldr         x8,[sp,#0x10]
	str         x8,[x9]

; 254  : 		return;

	b           |$LN1@AuAA64Sysc|
|$LN2@AuAA64Sysc|

; 255  : 	}
; 256  : 
; 257  : 	AA64Thread* currThr = AuGetCurrentThread();

	bl          AuGetCurrentThread
	str         x0,[sp,#0x18]

; 258  : 	currThr->returnFromSyscall = 1;

	ldr         x8,[sp,#0x18]
	add         x9,x8,#0x108
	mov         w8,#1
	strb        w8,[x9]

; 259  : 	currThr->syscallNum = vector;

	ldr         x8,[sp,#0x18]
	add         x9,x8,#0x330
	ldr         x8,[sp,#8]
	mov         w8,w8
	str         w8,[x9]

; 260  : 	svcCurrentRegs = regs;

	adrp        x9,svcCurrentRegs
	ldr         x8,[sp]
	str         x8,[x9,PageOffset(svcCurrentRegs)]

; 261  : 
; 262  : 	syscall_func func = (syscall_func)syscalls[vector];

	ldr         x9,[sp,#8]
	mov         x8,#8
	mul         x9,x9,x8
	adrp        x8,syscalls
	add         x8,x8,PageOffset(syscalls)
	add         x8,x8,x9
	ldr         x8,[x8]
	str         x8,[sp,#0x20]

; 263  : 	if (!func) {

	ldr         x8,[sp,#0x20]
	cmp         x8,#0
	bne         |$LN4@AuAA64Sysc|

; 264  : 		currThr->returnFromSyscall = 0;

	ldr         x8,[sp,#0x18]
	add         x9,x8,#0x108
	mov         w8,#0
	strb        w8,[x9]

; 265  : 		regs->x0 = 0;

	ldr         x8,[sp]
	add         x9,x8,#0xF0
	mov         x8,#0
	str         x8,[x9]

; 266  : 
; 267  : #ifdef __KERNEL_PROFILER_ON__
; 268  : 		if (syscall_name[vector] == 0)
; 269  : 			goto skip_2;
; 270  : 		PROFILE_END(syscall_name[vector]);
; 271  : 	skip_2:
; 272  : #endif
; 273  : 		return 0;

	mov         w0,#0
	b           |$LN1@AuAA64Sysc|
|$LN4@AuAA64Sysc|

; 274  : 	}
; 275  : 
; 276  : 	retcode = func(regs->x0, regs->x1, regs->x2, regs->x3, regs->x4, regs->x5);

	ldr         x8,[sp]
	add         x13,x8,#0xD8
	ldr         x8,[sp]
	add         x12,x8,#0xD0
	ldr         x8,[sp]
	add         x11,x8,#0xE8
	ldr         x8,[sp]
	add         x10,x8,#0xE0
	ldr         x8,[sp]
	add         x9,x8,#0xF8
	ldr         x8,[sp]
	add         x8,x8,#0xF0
	ldr         x5,[x13]
	ldr         x4,[x12]
	ldr         x3,[x11]
	ldr         x2,[x10]
	ldr         x1,[x9]
	ldr         x0,[x8]
	ldr         x8,[sp,#0x20]
	blr         x8
	str         x0,[sp,#0x10]

; 277  : 	regs->x0 = retcode;

	ldr         x8,[sp]
	add         x9,x8,#0xF0
	ldr         x8,[sp,#0x10]
	str         x8,[x9]

; 278  : 	regs->x6 = retcode;

	ldr         x8,[sp]
	add         x9,x8,#0xC0
	ldr         x8,[sp,#0x10]
	str         x8,[x9]

; 279  : 	currThr->returnFromSyscall = 0;

	ldr         x8,[sp,#0x18]
	add         x9,x8,#0x108
	mov         w8,#0
	strb        w8,[x9]

; 280  : 
; 281  : #ifdef __KERNEL_PROFILER_ON__
; 282  : 	if (syscall_name[vector] == 0)
; 283  : 		goto skip_3;
; 284  : 	PROFILE_END(syscall_name[vector]);
; 285  : skip_3:
; 286  : #endif
; 287  : 	return 0;

	mov         w0,#0
|$LN1@AuAA64Sysc|
	add         sp,sp,#0x30
	ldr         lr,[sp],#0x10
	ret

	ENDP  ; |AuAA64SyscallHandler|

	END
