; Listing generated by Microsoft (R) Optimizing Compiler Version 19.29.30159.0 

	TTL	C:\Users\paras\source\repos\grep-name\XenevaOS\KernelAA64\ARM64\Debug\thrserv.obj
	ARM64

	AREA	|.drectve|, DRECTVE


	AREA	|.rdata|, DATA, READONLY
|MAGIC_NATIVE| DCD 0x10b
|MACHINE_NATIVE| DCD 0x14c
	EXPORT	|PauseThread|
	EXPORT	|GetThreadID|
	EXPORT	|GetProcessID|
	EXPORT	|ProcessExit|
	EXPORT	|ProcessWaitForTermination|
	EXPORT	|CreateProcess|
	EXPORT	|ProcessLoadExec|
	EXPORT	|ProcessSleep|
	EXPORT	|CreateUserThread|
	EXPORT	|SetFileToProcess|
	EXPORT	|GetEnvironmenBlock|
	IMPORT	|AA64GetCurrentRegCtx|
	IMPORT	|AuScheduleThread|
	IMPORT	|AuGetCurrentThread|
	IMPORT	|AuBlockThread|
	IMPORT	|AuSleepThread|
	IMPORT	|AuThreadMoveToTrash|
	IMPORT	|AuProcessFindPID|
	IMPORT	|AuProcessFindThread|
	IMPORT	|AuProcessFindSubThread|
	IMPORT	|AuCreateProcessSlot|
	IMPORT	|AuProcessExit|
	IMPORT	|AuProcessWaitForTermination|
	IMPORT	|AuCreateUserthread|
	IMPORT	|AuLoadExecToProcess|
	IMPORT	|UARTDebugOut|
	IMPORT	|strlen|
	IMPORT	|memset|
	IMPORT	|kmalloc|
	IMPORT	|kfree|

	AREA	|.pdata|, PDATA
|$pdata$PauseThread| DCD imagerel |$LN3|
	DCD	0x1200039
	;Flags[SingleProEpi] functionLength[56] RegF[0] RegI[0] H[0] frameChainReturn[UnChainedSavedLR] frameSize[32]
|$pdata$GetThreadID| DCD imagerel |$LN4|
	DCD	0x120003d
	;Flags[SingleProEpi] functionLength[60] RegF[0] RegI[0] H[0] frameChainReturn[UnChainedSavedLR] frameSize[32]
|$pdata$GetProcessID| DCD imagerel |$LN6|
	DCD	0x1200075
	;Flags[SingleProEpi] functionLength[116] RegF[0] RegI[0] H[0] frameChainReturn[UnChainedSavedLR] frameSize[32]
|$pdata$ProcessExit| DCD imagerel |$LN7|
	DCD	0x1a00091
	;Flags[SingleProEpi] functionLength[144] RegF[0] RegI[0] H[0] frameChainReturn[UnChainedSavedLR] frameSize[48]
|$pdata$ProcessWaitForTermination| DCD imagerel |$LN3|
	DCD	0x1a0004d
	;Flags[SingleProEpi] functionLength[76] RegF[0] RegI[0] H[0] frameChainReturn[UnChainedSavedLR] frameSize[48]
|$pdata$CreateProcess| DCD imagerel |$LN6|
	DCD	0x220008d
	;Flags[SingleProEpi] functionLength[140] RegF[0] RegI[0] H[0] frameChainReturn[UnChainedSavedLR] frameSize[64]
|$pdata$ProcessLoadExec| DCD imagerel |$LN13|
	DCD	0x2a001d1
	;Flags[SingleProEpi] functionLength[464] RegF[0] RegI[0] H[0] frameChainReturn[UnChainedSavedLR] frameSize[80]
|$pdata$ProcessSleep| DCD imagerel |$LN5|
	DCD	0x1a00069
	;Flags[SingleProEpi] functionLength[104] RegF[0] RegI[0] H[0] frameChainReturn[UnChainedSavedLR] frameSize[48]
|$pdata$CreateUserThread| DCD imagerel |$LN6|
	DCD	0x220009d
	;Flags[SingleProEpi] functionLength[156] RegF[0] RegI[0] H[0] frameChainReturn[UnChainedSavedLR] frameSize[64]
|$pdata$SetFileToProcess| DCD imagerel |$LN10|
	DCD	0x2a00151
	;Flags[SingleProEpi] functionLength[336] RegF[0] RegI[0] H[0] frameChainReturn[UnChainedSavedLR] frameSize[80]
|$pdata$GetEnvironmenBlock| DCD imagerel |$LN5|
	DCD	0x1200061
	;Flags[SingleProEpi] functionLength[96] RegF[0] RegI[0] H[0] frameChainReturn[UnChainedSavedLR] frameSize[32]

	AREA	|.data|, DATA
|$SG4081| DCB	"Exiting process called ", 0xd, 0xa, 0x0
	%	6
|$SG4082| DCB	"Proc : %x - %s", 0xd, 0xa, 0x0
	%	7
|$SG4084| DCB	"Process exit not found ", 0xd, 0xa, 0x0
	%	6
|$SG4139| DCB	"No process found for proc_id : %d", 0xa, 0x0
	%	5
|$SG4143| DCB	"Process launched failed %s", 0xd, 0xa, 0x0
; Function compile flags: /Odtpy
; File C:\Users\paras\source\repos\grep-name\XenevaOS\KernelAA64\Serv\thrserv.c

	AREA	|.text$mn|, CODE, ARM64

|GetEnvironmenBlock| PROC

; 293  : size_t GetEnvironmenBlock() {

|$LN5|
	str         lr,[sp,#-0x10]!
	sub         sp,sp,#0x10

; 294  : 	AA64Thread* curr_thr = AuGetCurrentThread();

	bl          AuGetCurrentThread
	str         x0,[sp,#8]

; 295  : 	AuProcess* proc = AuProcessFindThread(curr_thr);

	ldr         x0,[sp,#8]
	bl          AuProcessFindThread
	str         x0,[sp]

; 296  : 	if (!proc) {

	ldr         x8,[sp]
	cmp         x8,#0
	bne         |$LN2@GetEnviron|

; 297  : 		proc = AuProcessFindSubThread(curr_thr);

	ldr         x0,[sp,#8]
	bl          AuProcessFindSubThread
	str         x0,[sp]

; 298  : 		if (!proc)

	ldr         x8,[sp]
	cmp         x8,#0
	bne         |$LN3@GetEnviron|

; 299  : 			return NULL;

	mov         x0,#0
	b           |$LN1@GetEnviron|
|$LN3@GetEnviron|
|$LN2@GetEnviron|

; 300  : 	}
; 301  : 	return proc->_envp_block_;

	ldr         x8,[sp]
	add         x8,x8,#0x48
	ldr         x0,[x8]
|$LN1@GetEnviron|
	add         sp,sp,#0x10
	ldr         lr,[sp],#0x10
	ret

	ENDP  ; |GetEnvironmenBlock|

; Function compile flags: /Odtpy
; File C:\Users\paras\source\repos\grep-name\XenevaOS\KernelAA64\Serv\thrserv.c

	AREA	|.text$mn|, CODE, ARM64

|SetFileToProcess| PROC

; 220  : int SetFileToProcess(int fileno, int dest_fdidx, int proc_id) {

|$LN10|
	str         lr,[sp,#-0x10]!
	sub         sp,sp,#0x40
	str         w0,[sp,#8]
	str         w1,[sp]
	str         w2,[sp,#4]

; 221  : 	AA64Thread* thr = AuGetCurrentThread();

	bl          AuGetCurrentThread
	str         x0,[sp,#0x20]

; 222  : 	if (!thr)

	ldr         x8,[sp,#0x20]
	cmp         x8,#0
	bne         |$LN2@SetFileToP|

; 223  : 		return 0;

	mov         w0,#0
	b           |$LN1@SetFileToP|
|$LN2@SetFileToP|

; 224  : 	/* file check if current thread's process is
; 225  : 	 * found by checking twice, first by
; 226  : 	 * main thread checkup second by sub thread
; 227  : 	 * checkup
; 228  : 	 */
; 229  : 	AuProcess* proc = AuProcessFindThread(thr);

	ldr         x0,[sp,#0x20]
	bl          AuProcessFindThread
	str         x0,[sp,#0x10]

; 230  : 	if (!proc) {

	ldr         x8,[sp,#0x10]
	cmp         x8,#0
	bne         |$LN3@SetFileToP|

; 231  : 		proc = AuProcessFindSubThread(thr);

	ldr         x0,[sp,#0x20]
	bl          AuProcessFindSubThread
	str         x0,[sp,#0x10]

; 232  : 		if (!proc)

	ldr         x8,[sp,#0x10]
	cmp         x8,#0
	bne         |$LN4@SetFileToP|

; 233  : 			return -1;

	mov         w0,#-1
	b           |$LN1@SetFileToP|
|$LN4@SetFileToP|
|$LN3@SetFileToP|

; 234  : 	}
; 235  : 
; 236  : 
; 237  : 	/* now try getting the destination process by its
; 238  : 	* process id
; 239  : 	*/
; 240  : 	AuProcess* destproc = AuProcessFindPID(proc_id);

	ldr         w0,[sp,#4]
	bl          AuProcessFindPID
	str         x0,[sp,#0x28]

; 241  : 	if (!destproc)

	ldr         x8,[sp,#0x28]
	cmp         x8,#0
	bne         |$LN5@SetFileToP|

; 242  : 		return -1;

	mov         w0,#-1
	b           |$LN1@SetFileToP|
|$LN5@SetFileToP|

; 243  : 
; 244  : 	/* now try getting the file from current process
; 245  : 	 * file entry
; 246  : 	 */
; 247  : 	AuVFSNode* file = proc->fds[fileno];

	ldr         x8,[sp,#0x10]
	add         x10,x8,#0x248
	ldr         w8,[sp,#8]
	sxtw        x9,w8
	mov         x8,#8
	mul         x8,x9,x8
	add         x8,x10,x8
	ldr         x8,[x8]
	str         x8,[sp,#0x18]

; 248  : 	if (!file)

	ldr         x8,[sp,#0x18]
	cmp         x8,#0
	bne         |$LN6@SetFileToP|

; 249  : 		return -1;

	mov         w0,#-1
	b           |$LN1@SetFileToP|
|$LN6@SetFileToP|

; 250  : 
; 251  : 	AuVFSNode* destfile = destproc->fds[dest_fdidx];

	ldr         x8,[sp,#0x28]
	add         x10,x8,#0x248
	ldr         w8,[sp]
	sxtw        x9,w8
	mov         x8,#8
	mul         x8,x9,x8
	add         x8,x10,x8
	ldr         x8,[x8]
	str         x8,[sp,#0x30]

; 252  : 	if (destfile)

	ldr         x8,[sp,#0x30]
	cmp         x8,#0
	beq         |$LN7@SetFileToP|

; 253  : 		return -1;

	mov         w0,#-1
	b           |$LN1@SetFileToP|
	b           |$LN8@SetFileToP|
|$LN7@SetFileToP|

; 254  : 	else {
; 255  : 		/* now we have no file entry in destination
; 256  : 		 * process's file index, so make entry
; 257  : 		 * of current process's file targeted by
; 258  : 		 * fileno to destination processes file
; 259  : 		 * entry
; 260  : 		 */
; 261  : 		destproc->fds[dest_fdidx] = file;

	ldr         x8,[sp,#0x28]
	add         x10,x8,#0x248
	ldr         w8,[sp]
	sxtw        x9,w8
	mov         x8,#8
	mul         x8,x9,x8
	add         x9,x10,x8
	ldr         x8,[sp,#0x18]
	str         x8,[x9]

; 262  : 		file->fileCopyCount += 1;

	ldr         x8,[sp,#0x18]
	add         x8,x8,#0x58
	ldrh        w8,[x8]
	mov         w8,w8
	add         w10,w8,#1
	ldr         x8,[sp,#0x18]
	add         x9,x8,#0x58
	uxth        w8,w10
	strh        w8,[x9]
|$LN8@SetFileToP|
|$LN1@SetFileToP|
	add         sp,sp,#0x40
	ldr         lr,[sp],#0x10
	ret

	ENDP  ; |SetFileToProcess|

; Function compile flags: /Odtpy
; File C:\Users\paras\source\repos\grep-name\XenevaOS\KernelAA64\Serv\thrserv.c

	AREA	|.text$mn|, CODE, ARM64

|CreateUserThread| PROC

; 271  : int CreateUserThread(void(*entry) (), char* name) {

|$LN6|
	str         lr,[sp,#-0x10]!
	sub         sp,sp,#0x30
	str         x0,[sp,#0x20]
	str         x1,[sp,#0x18]

; 272  : 	AA64Thread* thr = AuGetCurrentThread();

	bl          AuGetCurrentThread
	str         x0,[sp,#0x10]

; 273  : 	if (!thr)

	ldr         x8,[sp,#0x10]
	cmp         x8,#0
	bne         |$LN2@CreateUser|

; 274  : 		return 0;

	mov         w0,#0
	b           |$LN1@CreateUser|
|$LN2@CreateUser|

; 275  : 	AuProcess* proc = AuProcessFindThread(thr);

	ldr         x0,[sp,#0x10]
	bl          AuProcessFindThread
	str         x0,[sp,#8]

; 276  : 	if (!proc) {

	ldr         x8,[sp,#8]
	cmp         x8,#0
	bne         |$LN3@CreateUser|

; 277  : 		proc = AuProcessFindSubThread(thr);

	ldr         x0,[sp,#0x10]
	bl          AuProcessFindSubThread
	str         x0,[sp,#8]

; 278  : 		if (!proc)

	ldr         x8,[sp,#8]
	cmp         x8,#0
	bne         |$LN4@CreateUser|

; 279  : 			return 0;

	mov         w0,#0
	b           |$LN1@CreateUser|
|$LN4@CreateUser|
|$LN3@CreateUser|

; 280  : 	}
; 281  : 	int idx = AuCreateUserthread(proc, entry, name);

	ldr         x2,[sp,#0x18]
	ldr         x1,[sp,#0x20]
	ldr         x0,[sp,#8]
	bl          AuCreateUserthread
	mov         w0,w0
	str         w0,[sp]

; 282  : 	AA64Registers* regs = AA64GetCurrentRegCtx();

	bl          AA64GetCurrentRegCtx
	str         x0,[sp,#0x28]

; 283  : 	//current_thr->sp = (uint64_t)regs;
; 284  : 	AuScheduleThread(regs);

	ldr         x0,[sp,#0x28]
	bl          AuScheduleThread

; 285  : 	return idx;

	ldr         w0,[sp]
|$LN1@CreateUser|
	add         sp,sp,#0x30
	ldr         lr,[sp],#0x10
	ret

	ENDP  ; |CreateUserThread|

; Function compile flags: /Odtpy
; File C:\Users\paras\source\repos\grep-name\XenevaOS\KernelAA64\Serv\thrserv.c

	AREA	|.text$mn|, CODE, ARM64

|ProcessSleep| PROC

; 133  : int ProcessSleep(uint64_t ms) {

|$LN5|
	str         lr,[sp,#-0x10]!
	sub         sp,sp,#0x20
	str         x0,[sp]

; 134  : 	if (ms <= 0)

	ldr         x8,[sp]
	cmp         x8,#0
	bhi         |$LN2@ProcessSle|

; 135  : 		return -1;

	mov         w0,#-1
	b           |$LN1@ProcessSle|
|$LN2@ProcessSle|

; 136  : 	AA64Thread* current_thr = AuGetCurrentThread();

	bl          AuGetCurrentThread
	str         x0,[sp,#8]

; 137  : 	if (!current_thr)

	ldr         x8,[sp,#8]
	cmp         x8,#0
	bne         |$LN3@ProcessSle|

; 138  : 		return 0;

	mov         w0,#0
	b           |$LN1@ProcessSle|
|$LN3@ProcessSle|

; 139  : 	/*if (current_thr->pendingSigCount > 0)
; 140  : 		return 0;*/
; 141  : 	AA64Registers* regs = AA64GetCurrentRegCtx();

	bl          AA64GetCurrentRegCtx
	str         x0,[sp,#0x10]

; 142  : 	//current_thr->sp = (uint64_t)regs;
; 143  : 	AuSleepThread(current_thr, ms);

	ldr         x1,[sp]
	ldr         x0,[sp,#8]
	bl          AuSleepThread

; 144  : 	AuScheduleThread(regs);

	ldr         x0,[sp,#0x10]
	bl          AuScheduleThread

; 145  : 	return 1;

	mov         w0,#1
|$LN1@ProcessSle|
	add         sp,sp,#0x20
	ldr         lr,[sp],#0x10
	ret

	ENDP  ; |ProcessSleep|

; Function compile flags: /Odtpy
; File C:\Users\paras\source\repos\grep-name\XenevaOS\KernelAA64\Serv\thrserv.c

	AREA	|.text$mn|, CODE, ARM64

|ProcessLoadExec| PROC

; 167  : int ProcessLoadExec(int proc_id, char* filename, int argc, char** argv) {

|$LN13|
	str         lr,[sp,#-0x10]!
	sub         sp,sp,#0x40
	str         w0,[sp,#0x18]
	str         x1,[sp,#0x30]
	str         w2,[sp,#4]
	str         x3,[sp,#0x20]

; 168  : 	AuProcess* proc = AuProcessFindPID(proc_id);

	ldr         w0,[sp,#0x18]
	bl          AuProcessFindPID
	str         x0,[sp,#0x28]

; 169  : 
; 170  : 	if (!proc) {

	ldr         x8,[sp,#0x28]
	cmp         x8,#0
	bne         |$LN8@ProcessLoa|

; 171  : 		UARTDebugOut("No process found for proc_id : %d\n", proc_id);

	ldr         w1,[sp,#0x18]
	adrp        x8,|$SG4139|
	add         x0,x8,PageOffset(|$SG4139|)
	bl          UARTDebugOut

; 172  : 		return -1;

	mov         w0,#-1
	b           |$LN1@ProcessLoa|
|$LN8@ProcessLoa|

; 173  : 	}
; 174  : 
; 175  : 	/* prepare stuffs for passing arguments */
; 176  : 	int char_cnt = 0;

	mov         w8,#0
	str         w8,[sp,#0xC]

; 177  : 	for (int i = 0; i < argc; i++) {

	mov         w8,#0
	str         w8,[sp,#8]
	b           |$LN4@ProcessLoa|
|$LN2@ProcessLoa|
	ldr         w8,[sp,#8]
	add         w8,w8,#1
	str         w8,[sp,#8]
|$LN4@ProcessLoa|
	ldr         w9,[sp,#4]
	ldr         w8,[sp,#8]
	cmp         w8,w9
	bge         |$LN3@ProcessLoa|

; 178  : 		size_t l = strlen(argv[i]);

	ldr         w8,[sp,#8]
	sxtw        x9,w8
	mov         x8,#8
	mul         x9,x9,x8
	ldr         x8,[sp,#0x20]
	add         x8,x8,x9
	ldr         x0,[x8]
	bl          strlen
	str         x0,[sp,#0x38]

; 179  : 		char_cnt += l;

	ldr         w8,[sp,#0xC]
	sxtw        x9,w8
	ldr         x8,[sp,#0x38]
	add         x8,x9,x8
	mov         w8,w8
	str         w8,[sp,#0xC]

; 180  : 	}

	b           |$LN2@ProcessLoa|
|$LN3@ProcessLoa|

; 181  : 
; 182  : 	char** allocated_argv = 0;

	mov         x8,#0
	str         x8,[sp,#0x10]

; 183  : 	if (char_cnt > 0) {

	ldr         w8,[sp,#0xC]
	cmp         w8,#0
	ble         |$LN9@ProcessLoa|

; 184  : 		/*
; 185  : 		 BUGG:kmalloc: mentioned in loader.cpp inside AuLoadExecToProcess
; 186  : 		 */
; 187  : 		allocated_argv = (char**)kmalloc(argc * sizeof(char*));

	ldr         w8,[sp,#4]
	sxtw        x9,w8
	mov         x8,#8
	mul         x8,x9,x8
	mov         w0,w8
	mov         w0,w0
	bl          kmalloc
	str         x0,[sp,#0x10]

; 188  : 		memset(allocated_argv, 0, argc * sizeof(char*));

	ldr         w8,[sp,#4]
	sxtw        x9,w8
	mov         x8,#8
	mul         x8,x9,x8
	mov         w2,w8
	mov         w2,w2
	mov         w1,#0
	ldr         x0,[sp,#0x10]
	bl          memset

; 189  : 		for (int i = 0; i < argc; i++) {

	mov         w8,#0
	str         w8,[sp]
	b           |$LN7@ProcessLoa|
|$LN5@ProcessLoa|
	ldr         w8,[sp]
	add         w8,w8,#1
	str         w8,[sp]
|$LN7@ProcessLoa|
	ldr         w9,[sp,#4]
	ldr         w8,[sp]
	cmp         w8,w9
	bge         |$LN6@ProcessLoa|

; 190  : 			/*
; 191  : 			 * TRICKY: char pointers from argv[i] is already allocated
; 192  : 			 * in XEShell while spawning the process in order to pass
; 193  : 			 * argument, so we use those allocated user memory areas
; 194  : 			 * directly inside the argument array and only this argument
; 195  : 			 * array will get freed while loading the process, pointer
; 196  : 			 * memory will get freed in XEShell itself
; 197  : 			 */
; 198  : 			allocated_argv[i] = argv[i];

	ldr         w8,[sp]
	sxtw        x9,w8
	mov         x8,#8
	mul         x9,x9,x8
	ldr         x8,[sp,#0x20]
	add         x10,x8,x9
	ldr         w8,[sp]
	sxtw        x9,w8
	mov         x8,#8
	mul         x9,x9,x8
	ldr         x8,[sp,#0x10]
	add         x9,x8,x9
	ldr         x8,[x10]
	str         x8,[x9]

; 199  : 		}

	b           |$LN5@ProcessLoa|
|$LN6@ProcessLoa|
|$LN9@ProcessLoa|

; 200  : 	}
; 201  : 
; 202  : 	int status = AuLoadExecToProcess(proc, filename, argc, allocated_argv);

	ldr         x3,[sp,#0x10]
	ldr         w2,[sp,#4]
	ldr         x1,[sp,#0x30]
	ldr         x0,[sp,#0x28]
	bl          AuLoadExecToProcess
	mov         w0,w0
	str         w0,[sp,#0x1C]

; 203  : 	if (status == -1) {

	ldr         w8,[sp,#0x1C]
	cmn         w8,#1
	bne         |$LN10@ProcessLoa|

; 204  : 		if (allocated_argv)

	ldr         x8,[sp,#0x10]
	cmp         x8,#0
	beq         |$LN11@ProcessLoa|

; 205  : 			kfree(allocated_argv);

	ldr         x0,[sp,#0x10]
	bl          kfree
|$LN11@ProcessLoa|

; 206  : 		UARTDebugOut("Process launched failed %s\r\n", filename);

	ldr         x1,[sp,#0x30]
	adrp        x8,|$SG4143|
	add         x0,x8,PageOffset(|$SG4143|)
	bl          UARTDebugOut

; 207  : 		//exit the process
; 208  : 		//AuProcessExit(proc, true);
; 209  : 		return -1;

	mov         w0,#-1
|$LN10@ProcessLoa|
|$LN1@ProcessLoa|
	add         sp,sp,#0x40
	ldr         lr,[sp],#0x10
	ret

	ENDP  ; |ProcessLoadExec|

; Function compile flags: /Odtpy
; File C:\Users\paras\source\repos\grep-name\XenevaOS\KernelAA64\Serv\thrserv.c

	AREA	|.text$mn|, CODE, ARM64

|CreateProcess| PROC

; 114  : int CreateProcess(int parent_id, char* name) {

|$LN6|
	str         lr,[sp,#-0x10]!
	sub         sp,sp,#0x30
	str         w0,[sp]
	str         x1,[sp,#0x20]

; 115  : 	AA64Thread* current_thr = AuGetCurrentThread();

	bl          AuGetCurrentThread
	str         x0,[sp,#0x10]

; 116  : 	AuProcess* parent = AuProcessFindThread(current_thr);

	ldr         x0,[sp,#0x10]
	bl          AuProcessFindThread
	str         x0,[sp,#8]

; 117  : 	if (!parent) {

	ldr         x8,[sp,#8]
	cmp         x8,#0
	bne         |$LN2@CreateProc|

; 118  : 		parent = AuProcessFindSubThread(current_thr);

	ldr         x0,[sp,#0x10]
	bl          AuProcessFindSubThread
	str         x0,[sp,#8]

; 119  : 		if (!parent)

	ldr         x8,[sp,#8]
	cmp         x8,#0
	bne         |$LN3@CreateProc|

; 120  : 			return -1;

	mov         w0,#-1
	b           |$LN1@CreateProc|
|$LN3@CreateProc|
|$LN2@CreateProc|

; 121  : 	}
; 122  : 	AuProcess* slot = AuCreateProcessSlot(parent, name);

	ldr         x1,[sp,#0x20]
	ldr         x0,[sp,#8]
	bl          AuCreateProcessSlot
	str         x0,[sp,#0x18]

; 123  : 	if (!slot)

	ldr         x8,[sp,#0x18]
	cmp         x8,#0
	bne         |$LN4@CreateProc|

; 124  : 		return -1;

	mov         w0,#-1
	b           |$LN1@CreateProc|
|$LN4@CreateProc|

; 125  : 	return slot->proc_id;

	ldr         x8,[sp,#0x18]
	add         x8,x8,#0x10
	ldr         w0,[x8]
|$LN1@CreateProc|
	add         sp,sp,#0x30
	ldr         lr,[sp],#0x10
	ret

	ENDP  ; |CreateProcess|

; Function compile flags: /Odtpy
; File C:\Users\paras\source\repos\grep-name\XenevaOS\KernelAA64\Serv\thrserv.c

	AREA	|.text$mn|, CODE, ARM64

|ProcessWaitForTermination| PROC

; 99   : int ProcessWaitForTermination(int pid) {

|$LN3|
	str         lr,[sp,#-0x10]!
	sub         sp,sp,#0x20
	str         w0,[sp]

; 100  : 	//NOT IMPLEMENTED
; 101  : 	AA64Thread* current_thr = AuGetCurrentThread();

	bl          AuGetCurrentThread
	str         x0,[sp,#8]

; 102  : 	AuProcess* proc = AuProcessFindThread(current_thr);

	ldr         x0,[sp,#8]
	bl          AuProcessFindThread
	str         x0,[sp,#0x10]

; 103  : 	AuProcessWaitForTermination(proc, pid);

	ldr         w1,[sp]
	ldr         x0,[sp,#0x10]
	bl          AuProcessWaitForTermination

; 104  : 	AA64Registers* regs = AA64GetCurrentRegCtx();

	bl          AA64GetCurrentRegCtx
	str         x0,[sp,#0x18]

; 105  : 	AuScheduleThread(regs);

	ldr         x0,[sp,#0x18]
	bl          AuScheduleThread

; 106  : 	return 0;

	mov         w0,#0
	add         sp,sp,#0x20
	ldr         lr,[sp],#0x10
	ret

	ENDP  ; |ProcessWaitForTermination|

; Function compile flags: /Odtpy
; File C:\Users\paras\source\repos\grep-name\XenevaOS\KernelAA64\Serv\thrserv.c

	AREA	|.text$mn|, CODE, ARM64

|ProcessExit| PROC

; 76   : int ProcessExit() {

|$LN7|
	str         lr,[sp,#-0x10]!
	sub         sp,sp,#0x20

; 77   : 	UARTDebugOut("Exiting process called \r\n");

	adrp        x8,|$SG4081|
	add         x0,x8,PageOffset(|$SG4081|)
	bl          UARTDebugOut

; 78   : 	AA64Thread* current_thr = AuGetCurrentThread();

	bl          AuGetCurrentThread
	str         x0,[sp,#8]

; 79   : 	AuProcess* proc = AuProcessFindThread(current_thr);

	ldr         x0,[sp,#8]
	bl          AuProcessFindThread
	str         x0,[sp]

; 80   : 	UARTDebugOut("Proc : %x - %s\r\n", proc, current_thr->name);

	ldr         x8,[sp,#8]
	add         x2,x8,#0xD0
	ldr         x1,[sp]
	adrp        x8,|$SG4082|
	add         x0,x8,PageOffset(|$SG4082|)
	bl          UARTDebugOut

; 81   : 	if (!proc) {

	ldr         x8,[sp]
	cmp         x8,#0
	bne         |$LN5@ProcessExi|

; 82   : 		UARTDebugOut("Process exit not found \r\n");

	adrp        x8,|$SG4084|
	add         x0,x8,PageOffset(|$SG4084|)
	bl          UARTDebugOut
|$LN2@ProcessExi|

; 83   : 		for (;;);

	b           |$LN2@ProcessExi|
|$LN5@ProcessExi|

; 84   : 	}
; 85   : 
; 86   : 	AuProcessExit(proc, false);

	mov         w1,#0
	ldr         x0,[sp]
	bl          AuProcessExit

; 87   : 
; 88   : 	AuThreadMoveToTrash(current_thr);

	ldr         x0,[sp,#8]
	bl          AuThreadMoveToTrash

; 89   : 	AA64Registers* regs = AA64GetCurrentRegCtx();

	bl          AA64GetCurrentRegCtx
	str         x0,[sp,#0x10]

; 90   : 	AuScheduleThread(regs);

	ldr         x0,[sp,#0x10]
	bl          AuScheduleThread

; 91   : 	return 0;

	mov         w0,#0
	add         sp,sp,#0x20
	ldr         lr,[sp],#0x10
	ret

	ENDP  ; |ProcessExit|

; Function compile flags: /Odtpy
; File C:\Users\paras\source\repos\grep-name\XenevaOS\KernelAA64\Serv\thrserv.c

	AREA	|.text$mn|, CODE, ARM64

|GetProcessID| PROC

; 58   : int GetProcessID() {

|$LN6|
	str         lr,[sp,#-0x10]!
	sub         sp,sp,#0x10

; 59   : 	AA64Thread* current_thr = AuGetCurrentThread();

	bl          AuGetCurrentThread
	str         x0,[sp,#8]

; 60   : 	if (!current_thr)

	ldr         x8,[sp,#8]
	cmp         x8,#0
	bne         |$LN2@GetProcess|

; 61   : 		return -1;

	mov         w0,#-1
	b           |$LN1@GetProcess|
|$LN2@GetProcess|

; 62   : 	AuProcess* proc = AuProcessFindThread(current_thr);

	ldr         x0,[sp,#8]
	bl          AuProcessFindThread
	str         x0,[sp]

; 63   : 	if (!proc) {

	ldr         x8,[sp]
	cmp         x8,#0
	bne         |$LN3@GetProcess|

; 64   : 		proc = AuProcessFindSubThread(current_thr);

	ldr         x0,[sp,#8]
	bl          AuProcessFindSubThread
	str         x0,[sp]

; 65   : 		if (!proc) {

	ldr         x8,[sp]
	cmp         x8,#0
	bne         |$LN4@GetProcess|

; 66   : 			return -1;

	mov         w0,#-1
	b           |$LN1@GetProcess|
|$LN4@GetProcess|
|$LN3@GetProcess|

; 67   : 		}
; 68   : 	}
; 69   : 	return proc->proc_id;

	ldr         x8,[sp]
	add         x8,x8,#0x10
	ldr         w0,[x8]
|$LN1@GetProcess|
	add         sp,sp,#0x10
	ldr         lr,[sp],#0x10
	ret

	ENDP  ; |GetProcessID|

; Function compile flags: /Odtpy
; File C:\Users\paras\source\repos\grep-name\XenevaOS\KernelAA64\Serv\thrserv.c

	AREA	|.text$mn|, CODE, ARM64

|GetThreadID| PROC

; 47   : uint64_t GetThreadID() {

|$LN4|
	str         lr,[sp,#-0x10]!
	sub         sp,sp,#0x10

; 48   : 	AA64Thread* thr = AuGetCurrentThread();

	bl          AuGetCurrentThread
	str         x0,[sp]

; 49   : 	if (!thr)

	ldr         x8,[sp]
	cmp         x8,#0
	bne         |$LN2@GetThreadI|

; 50   : 		return UINT64_MAX;

	mov         x0,#-1
	b           |$LN1@GetThreadI|
|$LN2@GetThreadI|

; 51   : 	return thr->thread_id;

	ldr         x8,[sp]
	add         x8,x8,#0xF0
	ldr         x0,[x8]
|$LN1@GetThreadI|
	add         sp,sp,#0x10
	ldr         lr,[sp],#0x10
	ret

	ENDP  ; |GetThreadID|

; Function compile flags: /Odtpy
; File C:\Users\paras\source\repos\grep-name\XenevaOS\KernelAA64\Serv\thrserv.c

	AREA	|.text$mn|, CODE, ARM64

|PauseThread| PROC

; 153  : int PauseThread() {

|$LN3|
	str         lr,[sp,#-0x10]!
	sub         sp,sp,#0x10

; 154  : 	AA64Thread* current_thr = AuGetCurrentThread();

	bl          AuGetCurrentThread
	str         x0,[sp]

; 155  : 	AA64Registers* regs = AA64GetCurrentRegCtx();

	bl          AA64GetCurrentRegCtx
	str         x0,[sp,#8]

; 156  : 	//current_thr->sp = (uint64_t)regs;
; 157  : 	AuBlockThread(current_thr);

	ldr         x0,[sp]
	bl          AuBlockThread

; 158  : 	AuScheduleThread(regs);

	ldr         x0,[sp,#8]
	bl          AuScheduleThread

; 159  : 	return 1;

	mov         w0,#1
	add         sp,sp,#0x10
	ldr         lr,[sp],#0x10
	ret

	ENDP  ; |PauseThread|

	END
