; Listing generated by Microsoft (R) Optimizing Compiler Version 19.29.30159.0 

	TTL	C:\Users\paras\source\repos\grep-name\XenevaOS\KernelAA64\ARM64\Debug\timer.obj
	ARM64

	AREA	|.drectve|, DRECTVE


	AREA	|.bss|, NOINIT
|_timers| %	0x500
|_system_current_us| % 0x8
|_system_current_ms| % 0x8
	EXPORT	|AuroraTimerInitialize|
	EXPORT	|AuroraTimerStart|
	EXPORT	|AuroraTimerStartPeriodic|
	EXPORT	|AuroraTimerIsActive|
	EXPORT	|AuroraTimerCancel|
	EXPORT	|AuroraTimerTick|
	EXPORT	|AuGetCurrentMS|
	EXPORT	|AuGetCurrentUS|
	IMPORT	|get_cntpct_el0|
	IMPORT	|get_cntfrq_el0|
	IMPORT	|memset|
	IMPORT	|UARTDebugOut|

	AREA	|.pdata|, PDATA
|$pdata$AuroraTimerInitialize| DCD imagerel |$LN6|
	DCD	0x120007d
	;Flags[SingleProEpi] functionLength[124] RegF[0] RegI[0] H[0] frameChainReturn[UnChainedSavedLR] frameSize[32]
|$pdata$AuroraTimerStart| DCD imagerel |$LN10|
	DCD	0x1a0028d
	;Flags[SingleProEpi] functionLength[652] RegF[0] RegI[0] H[0] frameChainReturn[UnChainedSavedLR] frameSize[48]
|$pdata$AuroraTimerStartPeriodic| DCD imagerel |$LN7|
	DCD	0x1a0016d
	;Flags[SingleProEpi] functionLength[364] RegF[0] RegI[0] H[0] frameChainReturn[UnChainedSavedLR] frameSize[48]
|$pdata$AuroraTimerIsActive| DCD imagerel |$LN4|
	DCD	0x80004d
	;Flags[SingleProEpi] functionLength[76] RegF[0] RegI[0] H[0] frameChainReturn[UnChained] frameSize[16]
|$pdata$AuroraTimerCancel| DCD imagerel |$LN4|
	DCD	0x800051
	;Flags[SingleProEpi] functionLength[80] RegF[0] RegI[0] H[0] frameChainReturn[UnChained] frameSize[16]
|$pdata$AuroraTimerTick| DCD imagerel |$LN11|
	DCD	0x1a001dd
	;Flags[SingleProEpi] functionLength[476] RegF[0] RegI[0] H[0] frameChainReturn[UnChainedSavedLR] frameSize[48]

	AREA	|.pdata|, PDATA
|$pdata$_get_current_us| DCD imagerel |_get_current_us|
	DCD	0x1200041
	;Flags[SingleProEpi] functionLength[64] RegF[0] RegI[0] H[0] frameChainReturn[UnChainedSavedLR] frameSize[32]

	AREA	|.pdata|, PDATA
|$pdata$_get_current_ms| DCD imagerel |_get_current_ms|
	DCD	0xa00019
	;Flags[SingleProEpi] functionLength[24] RegF[0] RegI[0] H[0] frameChainReturn[UnChainedSavedLR] frameSize[16]

	AREA	|.data|, DATA
|$SG2780| DCB	"Timer fired : %d ", 0xd, 0xa, 0x0
; Function compile flags: /Odtpy
; File C:\Users\paras\source\repos\grep-name\XenevaOS\KernelAA64\timer.c

	AREA	|.text$mn|, CODE, ARM64

|_get_current_ms| PROC

; 48   : static inline uint64_t _get_current_ms() {

	str         lr,[sp,#-0x10]!

; 49   : 	return _get_current_us() / 1000;

	bl          _get_current_us
	mov         x8,#0x3E8
	udiv        x0,x0,x8
	ldr         lr,[sp],#0x10
	ret

	ENDP  ; |_get_current_ms|

; Function compile flags: /Odtpy
; File C:\Users\paras\source\repos\grep-name\XenevaOS\KernelAA64\timer.c

	AREA	|.text$mn|, CODE, ARM64

|_get_current_us| PROC

; 42   : static inline uint64_t _get_current_us() {

	str         lr,[sp,#-0x10]!
	sub         sp,sp,#0x10

; 43   : 	uint64_t cnt = get_cntpct_el0();

	bl          get_cntpct_el0
	str         x0,[sp]

; 44   : 	uint64_t freq = get_cntfrq_el0();

	bl          get_cntfrq_el0
	str         x0,[sp,#8]

; 45   : 	return (cnt * 1000000ULL) / freq;

	ldr         x9,[sp]
	ldr         x8,|$LN4@get_curren|
	mul         x9,x9,x8
	ldr         x8,[sp,#8]
	cbnz        x8,|$LN3@get_curren|
	brk         #0xF004
|$LN3@get_curren|
	udiv        x0,x9,x8
	add         sp,sp,#0x10
	ldr         lr,[sp],#0x10
	ret
|$LN4@get_curren|
	DCQ         0xf4240

	ENDP  ; |_get_current_us|

; Function compile flags: /Odtpy
; File C:\Users\paras\source\repos\grep-name\XenevaOS\KernelAA64\timer.c

	AREA	|.text$mn|, CODE, ARM64

|AuGetCurrentUS| PROC

; 167  : 	return _system_current_us;

	adrp        x8,_system_current_us
	ldr         x0,[x8,PageOffset(_system_current_us)]
	ret

	ENDP  ; |AuGetCurrentUS|

; Function compile flags: /Odtpy
; File C:\Users\paras\source\repos\grep-name\XenevaOS\KernelAA64\timer.c

	AREA	|.text$mn|, CODE, ARM64

|AuGetCurrentMS| PROC

; 163  : 	return _system_current_ms;

	adrp        x8,_system_current_ms
	ldr         x0,[x8,PageOffset(_system_current_ms)]
	ret

	ENDP  ; |AuGetCurrentMS|

; Function compile flags: /Odtpy
; File C:\Users\paras\source\repos\grep-name\XenevaOS\KernelAA64\timer.c

	AREA	|.text$mn|, CODE, ARM64

|AuroraTimerTick| PROC

; 140  : void AuroraTimerTick() {

|$LN11|
	str         lr,[sp,#-0x10]!
	sub         sp,sp,#0x20

; 141  : 	uint64_t now = _get_current_us();

	bl          _get_current_us
	str         x0,[sp,#8]

; 142  : 	_system_current_us = now;

	adrp        x9,_system_current_us
	ldr         x8,[sp,#8]
	str         x8,[x9,PageOffset(_system_current_us)]

; 143  : 	_system_current_ms = _get_current_ms();

	bl          _get_current_ms
	adrp        x8,_system_current_ms
	str         x0,[x8,PageOffset(_system_current_ms)]

; 144  : 
; 145  : 	for (int i = 0; i < AURORA_MAX_TIMER; i++) {

	mov         w8,#0
	str         w8,[sp]
	b           |$LN4@AuroraTime|
|$LN2@AuroraTime|
	ldr         w8,[sp]
	add         w8,w8,#1
	str         w8,[sp]
|$LN4@AuroraTime|
	ldr         w8,[sp]
	cmp         w8,#0x20
	bge         |$LN3@AuroraTime|

; 146  : 		if (!_timers[i].active) continue;

	ldr         w8,[sp]
	sxtw        x9,w8
	mov         x8,#0x28
	mul         x9,x9,x8
	adrp        x8,_timers
	add         x8,x8,PageOffset(_timers)
	add         x8,x8,x9
	add         x8,x8,#0x20
	ldrb        w8,[x8]
	mov         w8,w8
	cmp         w8,#0
	bne         |$LN5@AuroraTime|
	b           |$LN2@AuroraTime|
|$LN5@AuroraTime|

; 147  : 		if (now < _timers[i].expireUS)  continue;

	ldr         w8,[sp]
	sxtw        x9,w8
	mov         x8,#0x28
	mul         x9,x9,x8
	adrp        x8,_timers
	add         x8,x8,PageOffset(_timers)
	add         x8,x8,x9
	ldr         x9,[x8]
	ldr         x8,[sp,#8]
	cmp         x8,x9
	bhs         |$LN6@AuroraTime|
	b           |$LN2@AuroraTime|
|$LN6@AuroraTime|

; 148  : 		AuroraTimerCallback handler = _timers[i].handler;

	ldr         w8,[sp]
	sxtw        x9,w8
	mov         x8,#0x28
	mul         x9,x9,x8
	adrp        x8,_timers
	add         x8,x8,PageOffset(_timers)
	add         x8,x8,x9
	add         x8,x8,#0x10
	ldr         x8,[x8]
	str         x8,[sp,#0x10]

; 149  : 		void* param = _timers[i].param;

	ldr         w8,[sp]
	sxtw        x9,w8
	mov         x8,#0x28
	mul         x9,x9,x8
	adrp        x8,_timers
	add         x8,x8,PageOffset(_timers)
	add         x8,x8,x9
	add         x8,x8,#0x18
	ldr         x8,[x8]
	str         x8,[sp,#0x18]

; 150  : 		UARTDebugOut("Timer fired : %d \r\n", i);

	ldr         w1,[sp]
	adrp        x8,|$SG2780|
	add         x0,x8,PageOffset(|$SG2780|)
	bl          UARTDebugOut

; 151  : 		if (_timers[i].intervalUS > 0) {

	ldr         w8,[sp]
	sxtw        x9,w8
	mov         x8,#0x28
	mul         x9,x9,x8
	adrp        x8,_timers
	add         x8,x8,PageOffset(_timers)
	add         x8,x8,x9
	add         x8,x8,#8
	ldr         x8,[x8]
	cmp         x8,#0
	bls         |$LN7@AuroraTime|

; 152  : 			_timers[i].expireUS = now + _timers[i].intervalUS;

	ldr         w8,[sp]
	sxtw        x9,w8
	mov         x8,#0x28
	mul         x9,x9,x8
	adrp        x8,_timers
	add         x8,x8,PageOffset(_timers)
	add         x8,x8,x9
	add         x8,x8,#8
	ldr         x9,[sp,#8]
	ldr         x8,[x8]
	add         x10,x9,x8
	ldr         w8,[sp]
	sxtw        x9,w8
	mov         x8,#0x28
	mul         x9,x9,x8
	adrp        x8,_timers
	add         x8,x8,PageOffset(_timers)
	add         x8,x8,x9
	str         x10,[x8]

; 153  : 		}

	b           |$LN8@AuroraTime|
|$LN7@AuroraTime|

; 154  : 		else
; 155  : 			_timers[i].active = 0;

	ldr         w8,[sp]
	sxtw        x9,w8
	mov         x8,#0x28
	mul         x9,x9,x8
	adrp        x8,_timers
	add         x8,x8,PageOffset(_timers)
	add         x8,x8,x9
	add         x9,x8,#0x20
	mov         w8,#0
	strb        w8,[x9]
|$LN8@AuroraTime|

; 156  : 
; 157  : 		if (handler)

	ldr         x8,[sp,#0x10]
	cmp         x8,#0
	beq         |$LN9@AuroraTime|

; 158  : 			handler(param);

	ldr         x0,[sp,#0x18]
	ldr         x8,[sp,#0x10]
	blr         x8
|$LN9@AuroraTime|

; 159  : 	}

	b           |$LN2@AuroraTime|
|$LN3@AuroraTime|
	add         sp,sp,#0x20
	ldr         lr,[sp],#0x10
	ret

	ENDP  ; |AuroraTimerTick|

; Function compile flags: /Odtpy
; File C:\Users\paras\source\repos\grep-name\XenevaOS\KernelAA64\timer.c

	AREA	|.text$mn|, CODE, ARM64

|AuroraTimerCancel| PROC

; 120  : void AuroraTimerCancel(int tNum) {

|$LN4|
	sub         sp,sp,#0x10
	str         w0,[sp]

; 121  : 	if (tNum >= 0 && tNum < AURORA_MAX_TIMER) {

	ldr         w8,[sp]
	cmp         w8,#0
	blt         |$LN2@AuroraTime|
	ldr         w8,[sp]
	cmp         w8,#0x20
	bge         |$LN2@AuroraTime|

; 122  : 		_timers[tNum].active = 0;

	ldr         w8,[sp]
	sxtw        x9,w8
	mov         x8,#0x28
	mul         x9,x9,x8
	adrp        x8,_timers
	add         x8,x8,PageOffset(_timers)
	add         x8,x8,x9
	add         x9,x8,#0x20
	mov         w8,#0
	strb        w8,[x9]
|$LN2@AuroraTime|
	add         sp,sp,#0x10
	ret

	ENDP  ; |AuroraTimerCancel|

; Function compile flags: /Odtpy
; File C:\Users\paras\source\repos\grep-name\XenevaOS\KernelAA64\timer.c

	AREA	|.text$mn|, CODE, ARM64

|AuroraTimerIsActive| PROC

; 130  : bool AuroraTimerIsActive(int tNum) {

|$LN4|
	sub         sp,sp,#0x10
	str         w0,[sp]

; 131  : 	if (tNum >= 0 && tNum < AURORA_MAX_TIMER) {

	ldr         w8,[sp]
	cmp         w8,#0
	blt         |$LN2@AuroraTime|
	ldr         w8,[sp]
	cmp         w8,#0x20
	bge         |$LN2@AuroraTime|

; 132  : 		return _timers[tNum].active;

	ldr         w8,[sp]
	sxtw        x9,w8
	mov         x8,#0x28
	mul         x9,x9,x8
	adrp        x8,_timers
	add         x8,x8,PageOffset(_timers)
	add         x8,x8,x9
	add         x8,x8,#0x20
	ldrb        w0,[x8]
|$LN2@AuroraTime|
	add         sp,sp,#0x10
	ret

	ENDP  ; |AuroraTimerIsActive|

; Function compile flags: /Odtpy
; File C:\Users\paras\source\repos\grep-name\XenevaOS\KernelAA64\timer.c

	AREA	|.text$mn|, CODE, ARM64

|AuroraTimerStartPeriodic| PROC

; 101  : int AuroraTimerStartPeriodic(uint32_t interval_ms, AuroraTimerCallback handler, void* param) {

|$LN7|
	str         lr,[sp,#-0x10]!
	sub         sp,sp,#0x20
	str         w0,[sp,#4]
	str         x1,[sp,#8]
	str         x2,[sp,#0x10]

; 102  : 	for (int i = 0; i < AURORA_MAX_TIMER; i++) {

	mov         w8,#0
	str         w8,[sp]
	b           |$LN4@AuroraTime|
|$LN2@AuroraTime|
	ldr         w8,[sp]
	add         w8,w8,#1
	str         w8,[sp]
|$LN4@AuroraTime|
	ldr         w8,[sp]
	cmp         w8,#0x20
	bge         |$LN3@AuroraTime|

; 103  : 		if (_timers[i].active) continue;

	ldr         w8,[sp]
	sxtw        x9,w8
	mov         x8,#0x28
	mul         x9,x9,x8
	adrp        x8,_timers
	add         x8,x8,PageOffset(_timers)
	add         x8,x8,x9
	add         x8,x8,#0x20
	ldrb        w8,[x8]
	mov         w8,w8
	cmp         w8,#0
	beq         |$LN5@AuroraTime|
	b           |$LN2@AuroraTime|
|$LN5@AuroraTime|

; 104  : 		
; 105  : 		_timers[i].expireUS = _get_current_us() + (interval_ms * 1000ULL);

	bl          _get_current_us
	ldr         w8,[sp,#4]
	uxtw        x9,w8
	mov         x8,#0x3E8
	mul         x8,x9,x8
	add         x10,x0,x8
	ldr         w8,[sp]
	sxtw        x9,w8
	mov         x8,#0x28
	mul         x9,x9,x8
	adrp        x8,_timers
	add         x8,x8,PageOffset(_timers)
	add         x8,x8,x9
	str         x10,[x8]

; 106  : 		_timers[i].intervalUS = interval_ms * 1000ULL;

	ldr         w8,[sp,#4]
	uxtw        x9,w8
	mov         x8,#0x3E8
	mul         x10,x9,x8
	ldr         w8,[sp]
	sxtw        x9,w8
	mov         x8,#0x28
	mul         x9,x9,x8
	adrp        x8,_timers
	add         x8,x8,PageOffset(_timers)
	add         x8,x8,x9
	add         x8,x8,#8
	str         x10,[x8]

; 107  : 		_timers[i].handler = handler;

	ldr         w8,[sp]
	sxtw        x9,w8
	mov         x8,#0x28
	mul         x9,x9,x8
	adrp        x8,_timers
	add         x8,x8,PageOffset(_timers)
	add         x8,x8,x9
	add         x9,x8,#0x10
	ldr         x8,[sp,#8]
	str         x8,[x9]

; 108  : 		_timers[i].param = param;

	ldr         w8,[sp]
	sxtw        x9,w8
	mov         x8,#0x28
	mul         x9,x9,x8
	adrp        x8,_timers
	add         x8,x8,PageOffset(_timers)
	add         x8,x8,x9
	add         x9,x8,#0x18
	ldr         x8,[sp,#0x10]
	str         x8,[x9]

; 109  : 		_timers[i].active = 1;

	ldr         w8,[sp]
	sxtw        x9,w8
	mov         x8,#0x28
	mul         x9,x9,x8
	adrp        x8,_timers
	add         x8,x8,PageOffset(_timers)
	add         x8,x8,x9
	add         x9,x8,#0x20
	mov         w8,#1
	strb        w8,[x9]

; 110  : 
; 111  : 		return i;

	ldr         w0,[sp]
	b           |$LN1@AuroraTime|

; 112  : 	}

	b           |$LN2@AuroraTime|
|$LN3@AuroraTime|

; 113  : 	return -1;

	mov         w0,#-1
|$LN1@AuroraTime|
	add         sp,sp,#0x20
	ldr         lr,[sp],#0x10
	ret

	ENDP  ; |AuroraTimerStartPeriodic|

; Function compile flags: /Odtpy
; File C:\Users\paras\source\repos\grep-name\XenevaOS\KernelAA64\timer.c

	AREA	|.text$mn|, CODE, ARM64

|AuroraTimerStart| PROC

; 69   : int AuroraTimerStart(uint32_t delay_ms, AuroraTimerCallback handler, void* param, int idx) {

|$LN10|
	str         lr,[sp,#-0x10]!
	sub         sp,sp,#0x20
	str         w0,[sp,#8]
	str         x1,[sp,#0x10]
	str         x2,[sp,#0x18]
	str         w3,[sp,#4]

; 70   : 	if (idx != -1) {

	ldr         w8,[sp,#4]
	cmn         w8,#1
	beq         |$LN5@AuroraTime|

; 71   : 		if (_timers[idx].active)

	ldr         w8,[sp,#4]
	sxtw        x9,w8
	mov         x8,#0x28
	mul         x9,x9,x8
	adrp        x8,_timers
	add         x8,x8,PageOffset(_timers)
	add         x8,x8,x9
	add         x8,x8,#0x20
	ldrb        w8,[x8]
	mov         w8,w8
	cmp         w8,#0
	beq         |$LN7@AuroraTime|

; 72   : 			return -1;

	mov         w0,#-1
	b           |$LN1@AuroraTime|
|$LN7@AuroraTime|

; 73   : 		_timers[idx].expireUS = _get_current_us() + (delay_ms * 1000ULL);

	bl          _get_current_us
	ldr         w8,[sp,#8]
	uxtw        x9,w8
	mov         x8,#0x3E8
	mul         x8,x9,x8
	add         x10,x0,x8
	ldr         w8,[sp,#4]
	sxtw        x9,w8
	mov         x8,#0x28
	mul         x9,x9,x8
	adrp        x8,_timers
	add         x8,x8,PageOffset(_timers)
	add         x8,x8,x9
	str         x10,[x8]

; 74   : 		_timers[idx].intervalUS = 0;

	ldr         w8,[sp,#4]
	sxtw        x9,w8
	mov         x8,#0x28
	mul         x9,x9,x8
	adrp        x8,_timers
	add         x8,x8,PageOffset(_timers)
	add         x8,x8,x9
	add         x9,x8,#8
	mov         x8,#0
	str         x8,[x9]

; 75   : 		_timers[idx].handler = handler;

	ldr         w8,[sp,#4]
	sxtw        x9,w8
	mov         x8,#0x28
	mul         x9,x9,x8
	adrp        x8,_timers
	add         x8,x8,PageOffset(_timers)
	add         x8,x8,x9
	add         x9,x8,#0x10
	ldr         x8,[sp,#0x10]
	str         x8,[x9]

; 76   : 		_timers[idx].param = param;

	ldr         w8,[sp,#4]
	sxtw        x9,w8
	mov         x8,#0x28
	mul         x9,x9,x8
	adrp        x8,_timers
	add         x8,x8,PageOffset(_timers)
	add         x8,x8,x9
	add         x9,x8,#0x18
	ldr         x8,[sp,#0x18]
	str         x8,[x9]

; 77   : 		_timers[idx].active = 1;

	ldr         w8,[sp,#4]
	sxtw        x9,w8
	mov         x8,#0x28
	mul         x9,x9,x8
	adrp        x8,_timers
	add         x8,x8,PageOffset(_timers)
	add         x8,x8,x9
	add         x9,x8,#0x20
	mov         w8,#1
	strb        w8,[x9]

; 78   : 		return idx;

	ldr         w0,[sp,#4]
	b           |$LN1@AuroraTime|

; 79   : 	}

	b           |$LN6@AuroraTime|
|$LN5@AuroraTime|

; 80   : 	else {
; 81   : 		for (int i = 0; i < AURORA_MAX_TIMER; i++) {

	mov         w8,#0
	str         w8,[sp]
	b           |$LN4@AuroraTime|
|$LN2@AuroraTime|
	ldr         w8,[sp]
	add         w8,w8,#1
	str         w8,[sp]
|$LN4@AuroraTime|
	ldr         w8,[sp]
	cmp         w8,#0x20
	bge         |$LN3@AuroraTime|

; 82   : 			if (_timers[i].active) continue;

	ldr         w8,[sp]
	sxtw        x9,w8
	mov         x8,#0x28
	mul         x9,x9,x8
	adrp        x8,_timers
	add         x8,x8,PageOffset(_timers)
	add         x8,x8,x9
	add         x8,x8,#0x20
	ldrb        w8,[x8]
	mov         w8,w8
	cmp         w8,#0
	beq         |$LN8@AuroraTime|
	b           |$LN2@AuroraTime|
|$LN8@AuroraTime|

; 83   : 
; 84   : 			_timers[i].expireUS = _get_current_us() + (delay_ms * 1000ULL);

	bl          _get_current_us
	ldr         w8,[sp,#8]
	uxtw        x9,w8
	mov         x8,#0x3E8
	mul         x8,x9,x8
	add         x10,x0,x8
	ldr         w8,[sp]
	sxtw        x9,w8
	mov         x8,#0x28
	mul         x9,x9,x8
	adrp        x8,_timers
	add         x8,x8,PageOffset(_timers)
	add         x8,x8,x9
	str         x10,[x8]

; 85   : 			_timers[i].intervalUS = 0;

	ldr         w8,[sp]
	sxtw        x9,w8
	mov         x8,#0x28
	mul         x9,x9,x8
	adrp        x8,_timers
	add         x8,x8,PageOffset(_timers)
	add         x8,x8,x9
	add         x9,x8,#8
	mov         x8,#0
	str         x8,[x9]

; 86   : 			_timers[i].handler = handler;

	ldr         w8,[sp]
	sxtw        x9,w8
	mov         x8,#0x28
	mul         x9,x9,x8
	adrp        x8,_timers
	add         x8,x8,PageOffset(_timers)
	add         x8,x8,x9
	add         x9,x8,#0x10
	ldr         x8,[sp,#0x10]
	str         x8,[x9]

; 87   : 			_timers[i].param = param;

	ldr         w8,[sp]
	sxtw        x9,w8
	mov         x8,#0x28
	mul         x9,x9,x8
	adrp        x8,_timers
	add         x8,x8,PageOffset(_timers)
	add         x8,x8,x9
	add         x9,x8,#0x18
	ldr         x8,[sp,#0x18]
	str         x8,[x9]

; 88   : 			_timers[i].active = 1;

	ldr         w8,[sp]
	sxtw        x9,w8
	mov         x8,#0x28
	mul         x9,x9,x8
	adrp        x8,_timers
	add         x8,x8,PageOffset(_timers)
	add         x8,x8,x9
	add         x9,x8,#0x20
	mov         w8,#1
	strb        w8,[x9]

; 89   : 			return i;

	ldr         w0,[sp]
	b           |$LN1@AuroraTime|

; 90   : 		}

	b           |$LN2@AuroraTime|
|$LN3@AuroraTime|
|$LN6@AuroraTime|

; 91   : 	}
; 92   : 	return -1;

	mov         w0,#-1
|$LN1@AuroraTime|
	add         sp,sp,#0x20
	ldr         lr,[sp],#0x10
	ret

	ENDP  ; |AuroraTimerStart|

; Function compile flags: /Odtpy
; File C:\Users\paras\source\repos\grep-name\XenevaOS\KernelAA64\timer.c

	AREA	|.text$mn|, CODE, ARM64

|AuroraTimerInitialize| PROC

; 56   : void AuroraTimerInitialize() {

|$LN6|
	str         lr,[sp,#-0x10]!
	sub         sp,sp,#0x10

; 57   : 	for (int i = 0; i < AURORA_MAX_TIMER; i++) 

	mov         w8,#0
	str         w8,[sp]
	b           |$LN4@AuroraTime|
|$LN2@AuroraTime|
	ldr         w8,[sp]
	add         w8,w8,#1
	str         w8,[sp]
|$LN4@AuroraTime|
	ldr         w8,[sp]
	cmp         w8,#0x20
	bge         |$LN3@AuroraTime|

; 58   : 		memset(&_timers[i], 0, sizeof(AuKernelTimer));

	ldr         w8,[sp]
	sxtw        x9,w8
	mov         x8,#0x28
	mul         x9,x9,x8
	adrp        x8,_timers
	add         x8,x8,PageOffset(_timers)
	add         x0,x8,x9
	mov         w2,#0x28
	mov         w1,#0
	bl          memset
	b           |$LN2@AuroraTime|
|$LN3@AuroraTime|

; 59   : 	_system_current_us = 0;

	adrp        x9,_system_current_us
	mov         x8,#0
	str         x8,[x9,PageOffset(_system_current_us)]

; 60   : 	_system_current_ms = 0;

	adrp        x9,_system_current_ms
	mov         x8,#0
	str         x8,[x9,PageOffset(_system_current_ms)]
	add         sp,sp,#0x10
	ldr         lr,[sp],#0x10
	ret

	ENDP  ; |AuroraTimerInitialize|

	END
