; Listing generated by Microsoft (R) Optimizing Compiler Version 19.29.30159.0 

	TTL	C:\Users\paras\source\repos\grep-name\XenevaOS\KernelAA64\ARM64\Debug\tty.obj
	ARM64

	AREA	|.drectve|, DRECTVE

	EXPORT	|master_count| [ DATA ]
	EXPORT	|slave_count| [ DATA ]
	EXPORT	|root| [ DATA ]
	EXPORT	|last| [ DATA ]

	AREA	|.bss|, NOINIT
|master_count| % 0x8
|slave_count| %	0x8
|root|	%	0x8
|last|	%	0x8
	EXPORT	|AuTTYCreate|
	EXPORT	|AuTTYInitialise|
	EXPORT	|AuTTYInsert|
	EXPORT	|AuTTYDelete|
	EXPORT	|AuTTYWriteSlave|
	EXPORT	|AuTTYWriteMaster|
	EXPORT	|AuTTYProcessLine|
	EXPORT	|AuTTYMasterRead|
	EXPORT	|AuTTYMasterWrite|
	EXPORT	|AuTTYSlaveRead|
	EXPORT	|AuTTYSlaveWrite|
	EXPORT	|AuTTYSlaveClose|
	EXPORT	|AuTTYMasterClose|
	EXPORT	|AuTTYIoControl|
	EXPORT	|AuTTYCreateMaster|
	EXPORT	|AuTTYCreateSlave|
	IMPORT	|AuCircBufInitialise|
	IMPORT	|AuCircBufPut|
	IMPORT	|AuCircBufGet|
	IMPORT	|CircBufEmpty|
	IMPORT	|CircBufFull|
	IMPORT	|AuVFSFind|
	IMPORT	|AuDevFSCreateFile|
	IMPORT	|AuDevFSAddFile|
	IMPORT	|kmalloc|
	IMPORT	|kfree|
	IMPORT	|strcpy|
	IMPORT	|memset|
	IMPORT	|sztoa|
	IMPORT	|AuScheduleThread|
	IMPORT	|AuGetCurrentThread|
	IMPORT	|AuProcessFindThread|
	IMPORT	|AuProcessGetFileDesc|
	IMPORT	|AA64GetCurrentRegCtx|

	AREA	|.pdata|, PDATA
|$pdata$AuTTYCreate| DCD imagerel |$LN6|
	DCD	0x32002b1
	;Flags[SingleProEpi] functionLength[688] RegF[0] RegI[0] H[0] frameChainReturn[UnChainedSavedLR] frameSize[96]
|$pdata$AuTTYInitialise| DCD imagerel |$LN3|
	DCD	0x1200069
	;Flags[SingleProEpi] functionLength[104] RegF[0] RegI[0] H[0] frameChainReturn[UnChainedSavedLR] frameSize[32]
|$pdata$AuTTYInsert| DCD imagerel |$LN5|
	DCD	0x800091
	;Flags[SingleProEpi] functionLength[144] RegF[0] RegI[0] H[0] frameChainReturn[UnChained] frameSize[16]
|$pdata$AuTTYDelete| DCD imagerel |$LN8|
	DCD	0x12000d1
	;Flags[SingleProEpi] functionLength[208] RegF[0] RegI[0] H[0] frameChainReturn[UnChainedSavedLR] frameSize[32]
|$pdata$AuTTYWriteSlave| DCD imagerel |$LN3|
	DCD	0x1200035
	;Flags[SingleProEpi] functionLength[52] RegF[0] RegI[0] H[0] frameChainReturn[UnChainedSavedLR] frameSize[32]
|$pdata$AuTTYWriteMaster| DCD imagerel |$LN3|
	DCD	0x1200035
	;Flags[SingleProEpi] functionLength[52] RegF[0] RegI[0] H[0] frameChainReturn[UnChainedSavedLR] frameSize[32]
|$pdata$AuTTYProcessLine| DCD imagerel |$LN18|
	DCD	0x12001b9
	;Flags[SingleProEpi] functionLength[440] RegF[0] RegI[0] H[0] frameChainReturn[UnChainedSavedLR] frameSize[32]
|$pdata$AuTTYMasterRead| DCD imagerel |$LN8|
	DCD	0x2a000fd
	;Flags[SingleProEpi] functionLength[252] RegF[0] RegI[0] H[0] frameChainReturn[UnChainedSavedLR] frameSize[80]
|$pdata$AuTTYMasterWrite| DCD imagerel |$LN7|
	DCD	0x22000a9
	;Flags[SingleProEpi] functionLength[168] RegF[0] RegI[0] H[0] frameChainReturn[UnChainedSavedLR] frameSize[64]
|$pdata$AuTTYSlaveRead| DCD imagerel |$LN7|
	DCD	0x22000a9
	;Flags[SingleProEpi] functionLength[168] RegF[0] RegI[0] H[0] frameChainReturn[UnChainedSavedLR] frameSize[64]
|$pdata$AuTTYSlaveWrite| DCD imagerel |$LN9|
	DCD	0x2a00119
	;Flags[SingleProEpi] functionLength[280] RegF[0] RegI[0] H[0] frameChainReturn[UnChainedSavedLR] frameSize[80]
|$pdata$AuTTYSlaveClose| DCD imagerel |$LN4|
	DCD	0x1a0003d
	;Flags[SingleProEpi] functionLength[60] RegF[0] RegI[0] H[0] frameChainReturn[UnChainedSavedLR] frameSize[48]
|$pdata$AuTTYMasterClose| DCD imagerel |$LN3|
	DCD	0x800019
	;Flags[SingleProEpi] functionLength[24] RegF[0] RegI[0] H[0] frameChainReturn[UnChained] frameSize[16]
|$pdata$AuTTYIoControl| DCD imagerel |$LN11|
	DCD	0x32001ad
	;Flags[SingleProEpi] functionLength[428] RegF[0] RegI[0] H[0] frameChainReturn[UnChainedSavedLR] frameSize[96]
|$pdata$AuTTYCreateMaster| DCD imagerel |$LN3|
	DCD	0x1a00169
	;Flags[SingleProEpi] functionLength[360] RegF[0] RegI[0] H[0] frameChainReturn[UnChainedSavedLR] frameSize[48]
|$pdata$AuTTYCreateSlave| DCD imagerel |$LN3|
	DCD	0x1a00169
	;Flags[SingleProEpi] functionLength[360] RegF[0] RegI[0] H[0] frameChainReturn[UnChainedSavedLR] frameSize[48]

	AREA	|.data|, DATA
|$SG3766| DCB	"/dev", 0x0
	%	3
|$SG3808| DCB	"/dev", 0x0
	%	3
|$SG3809| DCB	"ttym", 0x0
	%	3
|$SG3810| DCB	"/dev/tty", 0x0
	%	3
|$SG3821| DCB	"/dev", 0x0
	%	3
|$SG3822| DCB	"ttys", 0x0
	%	7
|$SG3823| DCB	"/dev/tty", 0x0
	%	3
|$SG3847| DCB	"/dev", 0x0
	%	7
|$SG3848| DCB	"/dev/tty", 0x0
; Function compile flags: /Odtpy
; File C:\Users\paras\source\repos\grep-name\XenevaOS\KernelAA64\Fs\tty.c

	AREA	|.text$mn|, CODE, ARM64

|AuTTYCreateSlave| PROC

; 357  : AuVFSNode* AuTTYCreateSlave(TTY* tty) {

|$LN3|
	str         lr,[sp,#-0x10]!
	sub         sp,sp,#0x20
	str         x0,[sp,#0x10]

; 358  : 	AuVFSNode* fs = AuVFSFind("/dev");

	adrp        x8,|$SG3821|
	add         x0,x8,PageOffset(|$SG3821|)
	bl          AuVFSFind
	str         x0,[sp,#0x18]

; 359  : 
; 360  : 	AuVFSNode* node = (AuVFSNode*)kmalloc(sizeof(AuVFSNode));

	mov         w0,#0xD0
	bl          kmalloc
	str         x0,[sp,#8]

; 361  : 	memset(node, 0, sizeof(AuVFSNode));

	mov         w2,#0xD0
	mov         w1,#0
	ldr         x0,[sp,#8]
	bl          memset

; 362  : 	char name[5];
; 363  : 	strcpy(name, "ttys");

	adrp        x8,|$SG3822|
	add         x1,x8,PageOffset(|$SG3822|)
	mov         x0,sp
	bl          strcpy

; 364  : 	sztoa(slave_count, name + 4, 10);

	mov         x8,sp
	add         x1,x8,#4
	mov         w2,#0xA
	adrp        x8,slave_count
	ldr         x0,[x8,PageOffset(slave_count)]
	bl          sztoa

; 365  : 	strcpy(node->filename, name);

	ldr         x0,[sp,#8]
	mov         x1,sp
	bl          strcpy

; 366  : 
; 367  : 	node->size = 512;

	ldr         x8,[sp,#8]
	add         x9,x8,#0x20
	mov         w8,#0x200
	str         w8,[x9]

; 368  : 	node->flags |= FS_FLAG_TTY;

	ldr         x8,[sp,#8]
	add         x8,x8,#0x40
	ldrh        w8,[x8]
	mov         w8,w8
	orr         w10,w8,#0x100
	ldr         x8,[sp,#8]
	add         x9,x8,#0x40
	uxth        w8,w10
	strh        w8,[x9]

; 369  : 	node->device = tty;

	ldr         x8,[sp,#8]
	add         x9,x8,#0x50
	ldr         x8,[sp,#0x10]
	str         x8,[x9]

; 370  : 	node->read = AuTTYSlaveRead;

	ldr         x8,[sp,#8]
	add         x9,x8,#0x70
	adrp        x8,AuTTYSlaveRead
	add         x8,x8,PageOffset(AuTTYSlaveRead)
	str         x8,[x9]

; 371  : 	node->write = AuTTYSlaveWrite;

	ldr         x8,[sp,#8]
	add         x9,x8,#0x78
	adrp        x8,AuTTYSlaveWrite
	add         x8,x8,PageOffset(AuTTYSlaveWrite)
	str         x8,[x9]

; 372  : 	node->close = AuTTYSlaveClose;

	ldr         x8,[sp,#8]
	add         x9,x8,#0xA0
	adrp        x8,AuTTYSlaveClose
	add         x8,x8,PageOffset(AuTTYSlaveClose)
	str         x8,[x9]

; 373  : 	node->iocontrol = AuTTYIoControl;

	ldr         x8,[sp,#8]
	add         x9,x8,#0xC8
	adrp        x8,AuTTYIoControl
	add         x8,x8,PageOffset(AuTTYIoControl)
	str         x8,[x9]

; 374  : 	node->uid = 0;

	ldr         x8,[sp,#8]
	add         x9,x8,#0x44
	mov         w8,#0
	str         w8,[x9]

; 375  : 	node->gid = 0;

	ldr         x8,[sp,#8]
	add         x9,x8,#0x48
	mov         w8,#0
	str         w8,[x9]

; 376  : 	node->fileCopyCount = 0;

	ldr         x8,[sp,#8]
	add         x9,x8,#0x58
	mov         w8,#0
	strh        w8,[x9]

; 377  : 
; 378  : 	AuDevFSAddFile(fs, "/dev/tty", node);

	ldr         x2,[sp,#8]
	adrp        x8,|$SG3823|
	add         x1,x8,PageOffset(|$SG3823|)
	ldr         x0,[sp,#0x18]
	bl          AuDevFSAddFile

; 379  : 	slave_count++;

	adrp        x8,slave_count
	ldr         x8,[x8,PageOffset(slave_count)]
	add         x9,x8,#1
	adrp        x8,slave_count
	str         x9,[x8,PageOffset(slave_count)]

; 380  : 	return node;

	ldr         x0,[sp,#8]
	add         sp,sp,#0x20
	ldr         lr,[sp],#0x10
	ret

	ENDP  ; |AuTTYCreateSlave|

; Function compile flags: /Odtpy
; File C:\Users\paras\source\repos\grep-name\XenevaOS\KernelAA64\Fs\tty.c

	AREA	|.text$mn|, CODE, ARM64

|AuTTYCreateMaster| PROC

; 325  : AuVFSNode* AuTTYCreateMaster(TTY* tty) {

|$LN3|
	str         lr,[sp,#-0x10]!
	sub         sp,sp,#0x20
	str         x0,[sp,#0x10]

; 326  : 	AuVFSNode* fs = AuVFSFind("/dev");

	adrp        x8,|$SG3808|
	add         x0,x8,PageOffset(|$SG3808|)
	bl          AuVFSFind
	str         x0,[sp,#0x18]

; 327  : 
; 328  : 	AuVFSNode* node = (AuVFSNode*)kmalloc(sizeof(AuVFSNode));

	mov         w0,#0xD0
	bl          kmalloc
	str         x0,[sp,#8]

; 329  : 	memset(node, 0, sizeof(AuVFSNode));

	mov         w2,#0xD0
	mov         w1,#0
	ldr         x0,[sp,#8]
	bl          memset

; 330  : 	char name[5];
; 331  : 	strcpy(name, "ttym");

	adrp        x8,|$SG3809|
	add         x1,x8,PageOffset(|$SG3809|)
	mov         x0,sp
	bl          strcpy

; 332  : 	sztoa(master_count, name + 4, 10);

	mov         x8,sp
	add         x1,x8,#4
	mov         w2,#0xA
	adrp        x8,master_count
	ldr         x0,[x8,PageOffset(master_count)]
	bl          sztoa

; 333  : 	strcpy(node->filename, name);

	ldr         x0,[sp,#8]
	mov         x1,sp
	bl          strcpy

; 334  : 
; 335  : 	node->size = 512;

	ldr         x8,[sp,#8]
	add         x9,x8,#0x20
	mov         w8,#0x200
	str         w8,[x9]

; 336  : 	node->flags |= FS_FLAG_TTY;

	ldr         x8,[sp,#8]
	add         x8,x8,#0x40
	ldrh        w8,[x8]
	mov         w8,w8
	orr         w10,w8,#0x100
	ldr         x8,[sp,#8]
	add         x9,x8,#0x40
	uxth        w8,w10
	strh        w8,[x9]

; 337  : 	node->device = tty;

	ldr         x8,[sp,#8]
	add         x9,x8,#0x50
	ldr         x8,[sp,#0x10]
	str         x8,[x9]

; 338  : 	node->uid = 0;

	ldr         x8,[sp,#8]
	add         x9,x8,#0x44
	mov         w8,#0
	str         w8,[x9]

; 339  : 	node->gid = 0;

	ldr         x8,[sp,#8]
	add         x9,x8,#0x48
	mov         w8,#0
	str         w8,[x9]

; 340  : 	node->read = AuTTYMasterRead;

	ldr         x8,[sp,#8]
	add         x9,x8,#0x70
	adrp        x8,AuTTYMasterRead
	add         x8,x8,PageOffset(AuTTYMasterRead)
	str         x8,[x9]

; 341  : 	node->write = AuTTYMasterWrite;

	ldr         x8,[sp,#8]
	add         x9,x8,#0x78
	adrp        x8,AuTTYMasterWrite
	add         x8,x8,PageOffset(AuTTYMasterWrite)
	str         x8,[x9]

; 342  : 	node->close = AuTTYMasterClose;

	ldr         x8,[sp,#8]
	add         x9,x8,#0xA0
	adrp        x8,AuTTYMasterClose
	add         x8,x8,PageOffset(AuTTYMasterClose)
	str         x8,[x9]

; 343  : 	node->iocontrol = AuTTYIoControl;

	ldr         x8,[sp,#8]
	add         x9,x8,#0xC8
	adrp        x8,AuTTYIoControl
	add         x8,x8,PageOffset(AuTTYIoControl)
	str         x8,[x9]

; 344  : 	node->fileCopyCount = 0;

	ldr         x8,[sp,#8]
	add         x9,x8,#0x58
	mov         w8,#0
	strh        w8,[x9]

; 345  : 
; 346  : 	AuDevFSAddFile(fs, "/dev/tty", node);

	ldr         x2,[sp,#8]
	adrp        x8,|$SG3810|
	add         x1,x8,PageOffset(|$SG3810|)
	ldr         x0,[sp,#0x18]
	bl          AuDevFSAddFile

; 347  : 	master_count++;

	adrp        x8,master_count
	ldr         x8,[x8,PageOffset(master_count)]
	add         x9,x8,#1
	adrp        x8,master_count
	str         x9,[x8,PageOffset(master_count)]

; 348  : 	return node;

	ldr         x0,[sp,#8]
	add         sp,sp,#0x20
	ldr         lr,[sp],#0x10
	ret

	ENDP  ; |AuTTYCreateMaster|

; Function compile flags: /Odtpy
; File C:\Users\paras\source\repos\grep-name\XenevaOS\KernelAA64\Fs\tty.c

	AREA	|.text$mn|, CODE, ARM64

|AuTTYIoControl| PROC

; 281  : int AuTTYIoControl(AuVFSNode* file, int code, void* arg) {

|$LN11|
	str         lr,[sp,#-0x10]!
	sub         sp,sp,#0x50
	str         x0,[sp,#0x40]
	str         w1,[sp,#0x20]
	str         x2,[sp,#0x28]

; 282  : 	TTY* tty = (TTY*)file->device;

	ldr         x8,[sp,#0x40]
	add         x8,x8,#0x50
	ldr         x8,[x8]
	str         x8,[sp]

; 283  : 	if (!tty)

	ldr         x8,[sp]
	cmp         x8,#0
	bne         |$LN4@AuTTYIoCon|

; 284  : 		return 0;

	mov         w0,#0
	b           |$LN1@AuTTYIoCon|
|$LN4@AuTTYIoCon|

; 285  : 
; 286  : 	switch (code) {

	ldr         w8,[sp,#0x20]
	str         w8,[sp,#8]
	mov         w9,#0x5401
	ldr         w8,[sp,#8]
	cmp         w8,w9
	beq         |$LN6@AuTTYIoCon|
	mov         w9,#0x5402
	ldr         w8,[sp,#8]
	cmp         w8,w9
	beq         |$LN5@AuTTYIoCon|
	mov         w9,#0x5405
	ldr         w8,[sp,#8]
	cmp         w8,w9
	beq         |$LN7@AuTTYIoCon|
	b           |$LN2@AuTTYIoCon|
|$LN5@AuTTYIoCon|

; 287  : 	case TIOCSWINSZ: {
; 288  : 		WinSize* sz = (WinSize*)arg;

	ldr         x8,[sp,#0x28]
	str         x8,[sp,#0x10]

; 289  : 		tty->size.ws_col = sz->ws_col;

	ldr         x8,[sp,#0x10]
	add         x10,x8,#2
	ldr         x8,[sp]
	add         x9,x8,#4
	ldrh        w8,[x10]
	strh        w8,[x9]

; 290  : 		tty->size.ws_row = sz->ws_row;

	ldr         x10,[sp,#0x10]
	ldr         x8,[sp]
	add         x9,x8,#2
	ldrh        w8,[x10]
	strh        w8,[x9]

; 291  : 		tty->size.ws_xpixel = sz->ws_xpixel;

	ldr         x8,[sp,#0x10]
	add         x10,x8,#4
	ldr         x8,[sp]
	add         x9,x8,#6
	ldrh        w8,[x10]
	strh        w8,[x9]

; 292  : 		tty->size.ws_ypixel = sz->ws_ypixel;

	ldr         x8,[sp,#0x10]
	add         x10,x8,#6
	ldr         x8,[sp]
	add         x9,x8,#8
	ldrh        w8,[x10]
	strh        w8,[x9]

; 293  : 		break;

	b           |$LN2@AuTTYIoCon|
|$LN6@AuTTYIoCon|

; 294  : 	}
; 295  : 	case TIOCGWINSZ: {
; 296  : 		WinSize* sz = (WinSize*)arg;

	ldr         x8,[sp,#0x28]
	str         x8,[sp,#0x18]

; 297  : 		sz->ws_col = tty->size.ws_col;

	ldr         x8,[sp]
	add         x10,x8,#4
	ldr         x8,[sp,#0x18]
	add         x9,x8,#2
	ldrh        w8,[x10]
	strh        w8,[x9]

; 298  : 		sz->ws_row = tty->size.ws_row;

	ldr         x8,[sp]
	add         x8,x8,#2
	ldr         x9,[sp,#0x18]
	ldrh        w8,[x8]
	strh        w8,[x9]

; 299  : 		sz->ws_xpixel = tty->size.ws_xpixel;

	ldr         x8,[sp]
	add         x10,x8,#6
	ldr         x8,[sp,#0x18]
	add         x9,x8,#4
	ldrh        w8,[x10]
	strh        w8,[x9]

; 300  : 		sz->ws_ypixel = tty->size.ws_ypixel;

	ldr         x8,[sp]
	add         x10,x8,#8
	ldr         x8,[sp,#0x18]
	add         x9,x8,#6
	ldrh        w8,[x10]
	strh        w8,[x9]

; 301  : 		break;

	b           |$LN2@AuTTYIoCon|
|$LN7@AuTTYIoCon|

; 302  : 	}
; 303  : 
; 304  : 	case TIOSPGRP: {
; 305  : 		AA64Thread* currthr = AuGetCurrentThread();

	bl          AuGetCurrentThread
	str         x0,[sp,#0x30]

; 306  : 		if (!currthr)

	ldr         x8,[sp,#0x30]
	cmp         x8,#0
	bne         |$LN8@AuTTYIoCon|

; 307  : 			return 0;

	mov         w0,#0
	b           |$LN1@AuTTYIoCon|
|$LN8@AuTTYIoCon|

; 308  : 		AuProcess* proc = AuProcessFindThread(currthr);

	ldr         x0,[sp,#0x30]
	bl          AuProcessFindThread
	str         x0,[sp,#0x38]

; 309  : 		if (!proc)

	ldr         x8,[sp,#0x38]
	cmp         x8,#0
	bne         |$LN9@AuTTYIoCon|

; 310  : 			return 0;

	mov         w0,#0
	b           |$LN1@AuTTYIoCon|
|$LN9@AuTTYIoCon|

; 311  : 		tty->slave_pid = proc->proc_id;

	ldr         x8,[sp,#0x38]
	add         x10,x8,#0x10
	ldr         x8,[sp]
	add         x9,x8,#0x72
	ldr         w8,[x10]
	uxth        w8,w8
	strh        w8,[x9]
|$LN2@AuTTYIoCon|

; 312  : 		break;
; 313  : 	}
; 314  : 	}
; 315  : 
; 316  : 	return 1;

	mov         w0,#1
|$LN1@AuTTYIoCon|
	add         sp,sp,#0x50
	ldr         lr,[sp],#0x10
	ret

	ENDP  ; |AuTTYIoControl|

; Function compile flags: /Odtpy
; File C:\Users\paras\source\repos\grep-name\XenevaOS\KernelAA64\Fs\tty.c

	AREA	|.text$mn|, CODE, ARM64

|AuTTYMasterClose| PROC

; 269  : int AuTTYMasterClose(AuVFSNode* fs, AuVFSNode* file) {

|$LN3|
	sub         sp,sp,#0x10
	str         x0,[sp]
	str         x1,[sp,#8]

; 270  : 
; 271  : 	return 0;

	mov         w0,#0
	add         sp,sp,#0x10
	ret

	ENDP  ; |AuTTYMasterClose|

; Function compile flags: /Odtpy
; File C:\Users\paras\source\repos\grep-name\XenevaOS\KernelAA64\Fs\tty.c

	AREA	|.text$mn|, CODE, ARM64

|AuTTYSlaveClose| PROC

; 263  : int AuTTYSlaveClose(AuVFSNode* fs, AuVFSNode* file) {

|$LN4|
	str         lr,[sp,#-0x10]!
	sub         sp,sp,#0x20
	str         x0,[sp,#8]
	str         x1,[sp,#0x10]

; 264  : 	AuVFSNode* _fs = AuVFSFind("/dev");

	adrp        x8,|$SG3766|
	add         x0,x8,PageOffset(|$SG3766|)
	bl          AuVFSFind
	str         x0,[sp]

; 265  : 	if (!_fs)

	ldr         x8,[sp]
	cmp         x8,#0
	bne         |$LN2@AuTTYSlave|

; 266  : 		return 0;

	mov         w0,#0
|$LN2@AuTTYSlave|
	add         sp,sp,#0x20
	ldr         lr,[sp],#0x10
	ret

	ENDP  ; |AuTTYSlaveClose|

; Function compile flags: /Odtpy
; File C:\Users\paras\source\repos\grep-name\XenevaOS\KernelAA64\Fs\tty.c

	AREA	|.text$mn|, CODE, ARM64

|AuTTYSlaveWrite| PROC

; 234  : size_t AuTTYSlaveWrite(AuVFSNode* fsys, AuVFSNode* file, uint64_t* buffer, uint32_t len) {

|$LN9|
	str         lr,[sp,#-0x10]!
	sub         sp,sp,#0x40
	str         x0,[sp,#0x30]
	str         x1,[sp,#0x18]
	str         x2,[sp,#0x10]
	str         w3,[sp,#4]

; 235  : 	//char* data = (char*)buffer;
; 236  : 	AA64Thread* curr_th = AuGetCurrentThread();

	bl          AuGetCurrentThread
	str         x0,[sp,#0x38]

; 237  : 	uint8_t* aligned_buf = (uint8_t*)buffer;

	ldr         x8,[sp,#0x10]
	str         x8,[sp,#0x28]

; 238  : 	TTY* tty = (TTY*)file->device;

	ldr         x8,[sp,#0x18]
	add         x8,x8,#0x50
	ldr         x8,[x8]
	str         x8,[sp,#8]

; 239  : 	if (!tty)

	ldr         x8,[sp,#8]
	cmp         x8,#0
	bne         |$LN5@AuTTYSlave|

; 240  : 		return 0;

	mov         x0,#0
	b           |$LN1@AuTTYSlave|
|$LN5@AuTTYSlave|

; 241  : 	if (len > 512)

	ldr         w8,[sp,#4]
	cmp         w8,#0x200
	bls         |$LN6@AuTTYSlave|

; 242  : 		len = 512;

	mov         w8,#0x200
	str         w8,[sp,#4]
|$LN6@AuTTYSlave|

; 243  : 
; 244  : 
; 245  : 	if (CircBufFull(tty->masterbuf)) {

	ldr         x8,[sp,#8]
	add         x8,x8,#0x48
	ldr         x0,[x8]
	bl          CircBufFull
	uxtb        w8,w0
	mov         w8,w8
	cmp         w8,#0
	beq         |$LN7@AuTTYSlave|

; 246  : 		AA64Registers* regs = AA64GetCurrentRegCtx();

	bl          AA64GetCurrentRegCtx
	str         x0,[sp,#0x20]

; 247  : 		AuScheduleThread(regs);

	ldr         x0,[sp,#0x20]
	bl          AuScheduleThread

; 248  : 		return 0;

	mov         x0,#0
	b           |$LN1@AuTTYSlave|
|$LN7@AuTTYSlave|

; 249  : 	}
; 250  : 
; 251  : 	for (int i = 0; i < len; i++) {

	mov         w8,#0
	str         w8,[sp]
	b           |$LN4@AuTTYSlave|
|$LN2@AuTTYSlave|
	ldr         w8,[sp]
	add         w8,w8,#1
	str         w8,[sp]
|$LN4@AuTTYSlave|
	ldr         w9,[sp,#4]
	ldr         w8,[sp]
	cmp         w8,w9
	bhs         |$LN3@AuTTYSlave|

; 252  : 		AuCircBufPut(tty->masterbuf, aligned_buf[i]);

	ldr         w8,[sp]
	sxtw        x9,w8
	mov         x8,#1
	mul         x9,x9,x8
	ldr         x8,[sp,#0x28]
	add         x9,x8,x9
	ldr         x8,[sp,#8]
	add         x8,x8,#0x48
	ldrb        w1,[x9]
	ldr         x0,[x8]
	bl          AuCircBufPut

; 253  : 		tty->master_written++;

	ldr         x8,[sp,#8]
	add         x8,x8,#0x68
	ldr         w8,[x8]
	add         w9,w8,#1
	ldr         x8,[sp,#8]
	add         x8,x8,#0x68
	str         w9,[x8]

; 254  : 	}

	b           |$LN2@AuTTYSlave|
|$LN3@AuTTYSlave|
|$LN1@AuTTYSlave|
	add         sp,sp,#0x40
	ldr         lr,[sp],#0x10
	ret

	ENDP  ; |AuTTYSlaveWrite|

; Function compile flags: /Odtpy
; File C:\Users\paras\source\repos\grep-name\XenevaOS\KernelAA64\Fs\tty.c

	AREA	|.text$mn|, CODE, ARM64

|AuTTYSlaveRead| PROC

; 214  : size_t AuTTYSlaveRead(AuVFSNode* fsys, AuVFSNode* file, uint64_t* buffer, uint32_t len) {

|$LN7|
	str         lr,[sp,#-0x10]!
	sub         sp,sp,#0x30
	str         x0,[sp,#0x28]
	str         x1,[sp,#0x18]
	str         x2,[sp,#0x10]
	str         w3,[sp,#4]

; 215  : 	uint8_t* aligned_buf = (uint8_t*)buffer;

	ldr         x8,[sp,#0x10]
	str         x8,[sp,#0x20]

; 216  : 	TTY* tty = (TTY*)file->device;

	ldr         x8,[sp,#0x18]
	add         x8,x8,#0x50
	ldr         x8,[x8]
	str         x8,[sp,#8]

; 217  : 	if (!tty)

	ldr         x8,[sp,#8]
	cmp         x8,#0
	bne         |$LN5@AuTTYSlave|

; 218  : 		return 0;

	mov         x0,#0
	b           |$LN1@AuTTYSlave|
|$LN5@AuTTYSlave|

; 219  : 	for (int i = 0; i < len; i++) {

	mov         w8,#0
	str         w8,[sp]
	b           |$LN4@AuTTYSlave|
|$LN2@AuTTYSlave|
	ldr         w8,[sp]
	add         w8,w8,#1
	str         w8,[sp]
|$LN4@AuTTYSlave|
	ldr         w9,[sp,#4]
	ldr         w8,[sp]
	cmp         w8,w9
	bhs         |$LN3@AuTTYSlave|

; 220  : 		AuCircBufGet(tty->slavebuf, &aligned_buf[i]);

	ldr         w8,[sp]
	sxtw        x9,w8
	mov         x8,#1
	mul         x9,x9,x8
	ldr         x8,[sp,#0x20]
	add         x1,x8,x9
	ldr         x8,[sp,#8]
	add         x8,x8,#0x50
	ldr         x0,[x8]
	bl          AuCircBufGet

; 221  : 	}

	b           |$LN2@AuTTYSlave|
|$LN3@AuTTYSlave|

; 222  : 
; 223  : 	return 1;

	mov         x0,#1
|$LN1@AuTTYSlave|
	add         sp,sp,#0x30
	ldr         lr,[sp],#0x10
	ret

	ENDP  ; |AuTTYSlaveRead|

; Function compile flags: /Odtpy
; File C:\Users\paras\source\repos\grep-name\XenevaOS\KernelAA64\Fs\tty.c

	AREA	|.text$mn|, CODE, ARM64

|AuTTYMasterWrite| PROC

; 204  : size_t AuTTYMasterWrite(AuVFSNode* fs, AuVFSNode* file, uint64_t* buffer, uint32_t len) {

|$LN7|
	str         lr,[sp,#-0x10]!
	sub         sp,sp,#0x30
	str         x0,[sp,#0x28]
	str         x1,[sp,#0x18]
	str         x2,[sp,#0x10]
	str         w3,[sp,#4]

; 205  : 	uint8_t* aligned_buf = (uint8_t*)buffer;

	ldr         x8,[sp,#0x10]
	str         x8,[sp,#0x20]

; 206  : 	TTY* type = (TTY*)file->device;

	ldr         x8,[sp,#0x18]
	add         x8,x8,#0x50
	ldr         x8,[x8]
	str         x8,[sp,#8]

; 207  : 	if (!type)

	ldr         x8,[sp,#8]
	cmp         x8,#0
	bne         |$LN5@AuTTYMaste|

; 208  : 		return 0;

	mov         x0,#0
	b           |$LN1@AuTTYMaste|
|$LN5@AuTTYMaste|

; 209  : 	for (int i = 0; i < len; i++) {

	mov         w8,#0
	str         w8,[sp]
	b           |$LN4@AuTTYMaste|
|$LN2@AuTTYMaste|
	ldr         w8,[sp]
	add         w8,w8,#1
	str         w8,[sp]
|$LN4@AuTTYMaste|
	ldr         w9,[sp,#4]
	ldr         w8,[sp]
	cmp         w8,w9
	bhs         |$LN3@AuTTYMaste|

; 210  : 		AuCircBufPut(type->slavebuf, aligned_buf[i]);

	ldr         w8,[sp]
	sxtw        x9,w8
	mov         x8,#1
	mul         x9,x9,x8
	ldr         x8,[sp,#0x20]
	add         x9,x8,x9
	ldr         x8,[sp,#8]
	add         x8,x8,#0x50
	ldrb        w1,[x9]
	ldr         x0,[x8]
	bl          AuCircBufPut

; 211  : 	}

	b           |$LN2@AuTTYMaste|
|$LN3@AuTTYMaste|
|$LN1@AuTTYMaste|
	add         sp,sp,#0x30
	ldr         lr,[sp],#0x10
	ret

	ENDP  ; |AuTTYMasterWrite|

; Function compile flags: /Odtpy
; File C:\Users\paras\source\repos\grep-name\XenevaOS\KernelAA64\Fs\tty.c

	AREA	|.text$mn|, CODE, ARM64

|AuTTYMasterRead| PROC

; 175  : size_t AuTTYMasterRead(AuVFSNode* fs, AuVFSNode* file, uint64_t* buffer, uint32_t len) {

|$LN8|
	str         lr,[sp,#-0x10]!
	sub         sp,sp,#0x40
	str         x0,[sp,#0x30]
	str         x1,[sp,#0x18]
	str         x2,[sp,#0x20]
	str         w3,[sp,#4]

; 176  : 	TTY* type = (TTY*)file->device;

	ldr         x8,[sp,#0x18]
	add         x8,x8,#0x50
	ldr         x8,[x8]
	str         x8,[sp,#8]

; 177  : 	if (!type)

	ldr         x8,[sp,#8]
	cmp         x8,#0
	bne         |$LN5@AuTTYMaste|

; 178  : 		return 0;

	mov         x0,#0
	b           |$LN1@AuTTYMaste|
|$LN5@AuTTYMaste|

; 179  : 
; 180  : 	size_t bytes_to_ret = 0;

	mov         x8,#0
	str         x8,[sp,#0x10]

; 181  : 	uint8_t* aligned_buf = (uint8_t*)buffer;

	ldr         x8,[sp,#0x20]
	str         x8,[sp,#0x28]

; 182  : 
; 183  : 	if (CircBufEmpty(type->masterbuf)) {

	ldr         x8,[sp,#8]
	add         x8,x8,#0x48
	ldr         x0,[x8]
	bl          CircBufEmpty
	uxtb        w8,w0
	mov         w8,w8
	cmp         w8,#0
	beq         |$LN6@AuTTYMaste|

; 184  : 		return bytes_to_ret;

	ldr         x0,[sp,#0x10]
	b           |$LN1@AuTTYMaste|
|$LN6@AuTTYMaste|

; 185  : 	}
; 186  : 
; 187  : 	for (int i = 0; i < type->master_written; i++) {

	mov         w8,#0
	str         w8,[sp]
	b           |$LN4@AuTTYMaste|
|$LN2@AuTTYMaste|
	ldr         w8,[sp]
	add         w8,w8,#1
	str         w8,[sp]
|$LN4@AuTTYMaste|
	ldr         x8,[sp,#8]
	add         x8,x8,#0x68
	ldr         w9,[x8]
	ldr         w8,[sp]
	cmp         w8,w9
	bge         |$LN3@AuTTYMaste|

; 188  : 		AuCircBufGet(type->masterbuf, &aligned_buf[i]);

	ldr         w8,[sp]
	sxtw        x9,w8
	mov         x8,#1
	mul         x9,x9,x8
	ldr         x8,[sp,#0x28]
	add         x1,x8,x9
	ldr         x8,[sp,#8]
	add         x8,x8,#0x48
	ldr         x0,[x8]
	bl          AuCircBufGet

; 189  : 		bytes_to_ret++;

	ldr         x8,[sp,#0x10]
	add         x8,x8,#1
	str         x8,[sp,#0x10]

; 190  : 	}

	b           |$LN2@AuTTYMaste|
|$LN3@AuTTYMaste|

; 191  : 
; 192  : 	type->master_written = 0;

	ldr         x8,[sp,#8]
	add         x9,x8,#0x68
	mov         w8,#0
	str         w8,[x9]

; 193  : 	return bytes_to_ret;

	ldr         x0,[sp,#0x10]
|$LN1@AuTTYMaste|
	add         sp,sp,#0x40
	ldr         lr,[sp],#0x10
	ret

	ENDP  ; |AuTTYMasterRead|

; Function compile flags: /Odtpy
; File C:\Users\paras\source\repos\grep-name\XenevaOS\KernelAA64\Fs\tty.c

	AREA	|.text$mn|, CODE, ARM64

|AuTTYProcessLine| PROC

; 120  : void AuTTYProcessLine(TTY* tty, uint8_t c) {

|$LN18|
	str         lr,[sp,#-0x10]!
	sub         sp,sp,#0x10
	str         x0,[sp,#8]
	uxtb        w8,w1
	strb        w8,[sp]

; 121  : 	if (tty->term.c_lflag & ISIG) {

	ldr         x8,[sp,#8]
	add         x8,x8,#0x18
	ldr         w8,[x8]
	tbz         x8,#0,|$LN2@AuTTYProce|

; 122  : 		int sig = -1;

	mov         w8,#-1
	str         w8,[sp,#4]

; 123  : 		/* Xeneva will have its own event based system
; 124  : 		 * so need to emulate signals values to Xeneva
; 125  : 		 * event system
; 126  : 		 */
; 127  : 		if (c == tty->term.c_cc[VINTR])

	ldrb        w9,[sp]
	mov         w9,w9
	ldr         x8,[sp,#8]
	add         x8,x8,#0x1D
	ldrb        w8,[x8]
	mov         w8,w8
	cmp         w9,w8
	bne         |$LN3@AuTTYProce|

; 128  : 			sig = -1; // SIGINT;

	mov         w8,#-1
	str         w8,[sp,#4]
	b           |$LN4@AuTTYProce|
|$LN3@AuTTYProce|

; 129  : 		else if (c == tty->term.c_cc[VQUIT])

	ldrb        w9,[sp]
	mov         w9,w9
	ldr         x8,[sp,#8]
	add         x8,x8,#0x1E
	ldrb        w8,[x8]
	mov         w8,w8
	cmp         w9,w8
	bne         |$LN5@AuTTYProce|

; 130  : 			sig = -1; // SIGQUIT;

	mov         w8,#-1
	str         w8,[sp,#4]
	b           |$LN6@AuTTYProce|
|$LN5@AuTTYProce|

; 131  : 		else if (c == tty->term.c_cc[VSUSP])

	ldrb        w9,[sp]
	mov         w9,w9
	ldr         x8,[sp,#8]
	add         x8,x8,#0x27
	ldrb        w8,[x8]
	mov         w8,w8
	cmp         w9,w8
	bne         |$LN7@AuTTYProce|

; 132  : 			sig = -1; // SIGTSTP;

	mov         w8,#-1
	str         w8,[sp,#4]
|$LN7@AuTTYProce|
|$LN6@AuTTYProce|
|$LN4@AuTTYProce|

; 133  : 
; 134  : 		if (sig != -1) {

	ldr         w8,[sp,#4]
	cmn         w8,#1
	beq         |$LN8@AuTTYProce|

; 135  : 			if (tty->term.c_lflag & ECHO) {

	ldr         x8,[sp,#8]
	add         x8,x8,#0x18
	ldr         w8,[x8]
	tbz         x8,#3,|$LN9@AuTTYProce|

; 136  : 				AuTTYWriteMaster(tty, '^');

	mov         w1,#0x5E
	ldr         x0,[sp,#8]
	bl          AuTTYWriteMaster

; 137  : 				AuTTYWriteMaster(tty, ('@' + c) % 128);

	ldrb        w8,[sp]
	mov         w8,w8
	add         w10,w8,#0x40
	mov         w9,#0x80
	sdiv        w8,w10,w9
	mul         w8,w8,w9
	sub         w8,w10,w8
	uxtb        w1,w8
	mov         w1,w1
	ldr         x0,[sp,#8]
	bl          AuTTYWriteMaster

; 138  : 				AuTTYWriteMaster(tty, '\n');

	mov         w1,#0xA
	ldr         x0,[sp,#8]
	bl          AuTTYWriteMaster
|$LN9@AuTTYProce|

; 139  : 			}
; 140  : 			//clear_input_buf
; 141  : 			//if foreground process group or process exist
; 142  : 				//send signal to foreground process, the sig number
; 143  : 			return;

	b           |$LN1@AuTTYProce|
|$LN8@AuTTYProce|
|$LN2@AuTTYProce|

; 144  : 		}
; 145  : 	}
; 146  : 
; 147  : 	if (tty->term.c_iflag & ISTRIP)

	ldr         x8,[sp,#8]
	add         x8,x8,#0xC
	ldr         w8,[x8]
	tbz         x8,#5,|$LN10@AuTTYProce|

; 148  : 		c &= 0x7f;

	ldrb        w8,[sp]
	mov         w8,w8
	and         w8,w8,#0x7F
	uxtb        w8,w8
	strb        w8,[sp]
|$LN10@AuTTYProce|

; 149  : 
; 150  : 	/* ignore CR*/
; 151  : 	if ((tty->term.c_iflag & IGNCR) && c == '\r')

	ldr         x8,[sp,#8]
	add         x8,x8,#0xC
	ldr         w8,[x8]
	tbz         x8,#7,|$LN11@AuTTYProce|
	ldrb        w8,[sp]
	mov         w8,w8
	cmp         w8,#0xD
	bne         |$LN11@AuTTYProce|

; 152  : 		return;

	b           |$LN1@AuTTYProce|
|$LN11@AuTTYProce|

; 153  : 
; 154  : 	if ((tty->term.c_iflag & INLCR) && c == '\n')

	ldr         x8,[sp,#8]
	add         x8,x8,#0xC
	ldr         w8,[x8]
	tbz         x8,#6,|$LN12@AuTTYProce|
	ldrb        w8,[sp]
	mov         w8,w8
	cmp         w8,#0xA
	bne         |$LN12@AuTTYProce|

; 155  : 		c = '\r';

	mov         w8,#0xD
	strb        w8,[sp]
	b           |$LN13@AuTTYProce|
|$LN12@AuTTYProce|

; 156  : 	else if ((tty->term.c_iflag & ICRNL) && c == '\r')

	ldr         x8,[sp,#8]
	add         x8,x8,#0xC
	ldr         w8,[x8]
	tbz         x8,#8,|$LN14@AuTTYProce|
	ldrb        w8,[sp]
	mov         w8,w8
	cmp         w8,#0xD
	bne         |$LN14@AuTTYProce|

; 157  : 		c = '\n';

	mov         w8,#0xA
	strb        w8,[sp]
|$LN14@AuTTYProce|
|$LN13@AuTTYProce|
|$LN1@AuTTYProce|
	add         sp,sp,#0x10
	ldr         lr,[sp],#0x10
	ret

	ENDP  ; |AuTTYProcessLine|

; Function compile flags: /Odtpy
; File C:\Users\paras\source\repos\grep-name\XenevaOS\KernelAA64\Fs\tty.c

	AREA	|.text$mn|, CODE, ARM64

|AuTTYWriteMaster| PROC

; 111  : void AuTTYWriteMaster(TTY* tty, uint8_t c) {

|$LN3|
	str         lr,[sp,#-0x10]!
	sub         sp,sp,#0x10
	str         x0,[sp,#8]
	uxtb        w8,w1
	strb        w8,[sp]

; 112  : 	AuCircBufPut(tty->masterbuf, c);

	ldr         x8,[sp,#8]
	add         x8,x8,#0x48
	ldrb        w1,[sp]
	ldr         x0,[x8]
	bl          AuCircBufPut
	add         sp,sp,#0x10
	ldr         lr,[sp],#0x10
	ret

	ENDP  ; |AuTTYWriteMaster|

; Function compile flags: /Odtpy
; File C:\Users\paras\source\repos\grep-name\XenevaOS\KernelAA64\Fs\tty.c

	AREA	|.text$mn|, CODE, ARM64

|AuTTYWriteSlave| PROC

; 101  : void AuTTYWriteSlave(TTY* tty, uint8_t c) {

|$LN3|
	str         lr,[sp,#-0x10]!
	sub         sp,sp,#0x10
	str         x0,[sp,#8]
	uxtb        w8,w1
	strb        w8,[sp]

; 102  : 	AuCircBufPut(tty->slavebuf, c);

	ldr         x8,[sp,#8]
	add         x8,x8,#0x50
	ldrb        w1,[sp]
	ldr         x0,[x8]
	bl          AuCircBufPut
	add         sp,sp,#0x10
	ldr         lr,[sp],#0x10
	ret

	ENDP  ; |AuTTYWriteSlave|

; Function compile flags: /Odtpy
; File C:\Users\paras\source\repos\grep-name\XenevaOS\KernelAA64\Fs\tty.c

	AREA	|.text$mn|, CODE, ARM64

|AuTTYDelete| PROC

; 79   : void AuTTYDelete(TTY* tty) {

|$LN8|
	str         lr,[sp,#-0x10]!
	sub         sp,sp,#0x10
	str         x0,[sp]

; 80   : 	if (root == NULL)

	adrp        x8,root
	ldr         x8,[x8,PageOffset(root)]
	cmp         x8,#0
	bne         |$LN2@AuTTYDelet|

; 81   : 		return;

	b           |$LN1@AuTTYDelet|
|$LN2@AuTTYDelet|

; 82   : 	if (tty == root)

	adrp        x8,root
	ldr         x9,[x8,PageOffset(root)]
	ldr         x8,[sp]
	cmp         x8,x9
	bne         |$LN3@AuTTYDelet|

; 83   : 		root = root->next;

	adrp        x8,root
	ldr         x8,[x8,PageOffset(root)]
	add         x8,x8,#0x78
	adrp        x9,root
	ldr         x8,[x8]
	str         x8,[x9,PageOffset(root)]
	b           |$LN4@AuTTYDelet|
|$LN3@AuTTYDelet|

; 84   : 	else
; 85   : 		tty->prev->next = tty->next;

	ldr         x8,[sp]
	add         x10,x8,#0x78
	ldr         x8,[sp]
	add         x8,x8,#0x80
	ldr         x8,[x8]
	add         x9,x8,#0x78
	ldr         x8,[x10]
	str         x8,[x9]
|$LN4@AuTTYDelet|

; 86   : 
; 87   : 	if (tty == last)

	adrp        x8,last
	ldr         x9,[x8,PageOffset(last)]
	ldr         x8,[sp]
	cmp         x8,x9
	bne         |$LN5@AuTTYDelet|

; 88   : 		last = tty->prev;

	ldr         x8,[sp]
	add         x8,x8,#0x80
	adrp        x9,last
	ldr         x8,[x8]
	str         x8,[x9,PageOffset(last)]
	b           |$LN6@AuTTYDelet|
|$LN5@AuTTYDelet|

; 89   : 	else
; 90   : 		tty->next->prev = tty->prev;

	ldr         x8,[sp]
	add         x10,x8,#0x80
	ldr         x8,[sp]
	add         x8,x8,#0x78
	ldr         x8,[x8]
	add         x9,x8,#0x80
	ldr         x8,[x10]
	str         x8,[x9]
|$LN6@AuTTYDelet|

; 91   : 
; 92   : 	kfree(tty);

	ldr         x0,[sp]
	bl          kfree
|$LN1@AuTTYDelet|
	add         sp,sp,#0x10
	ldr         lr,[sp],#0x10
	ret

	ENDP  ; |AuTTYDelete|

; Function compile flags: /Odtpy
; File C:\Users\paras\source\repos\grep-name\XenevaOS\KernelAA64\Fs\tty.c

	AREA	|.text$mn|, CODE, ARM64

|AuTTYInsert| PROC

; 60   : void AuTTYInsert(TTY* tty) {

|$LN5|
	sub         sp,sp,#0x10
	str         x0,[sp]

; 61   : 	tty->next = NULL;

	ldr         x8,[sp]
	add         x9,x8,#0x78
	mov         x8,#0
	str         x8,[x9]

; 62   : 	tty->prev = NULL;

	ldr         x8,[sp]
	add         x9,x8,#0x80
	mov         x8,#0
	str         x8,[x9]

; 63   : 
; 64   : 	if (root == NULL) {

	adrp        x8,root
	ldr         x8,[x8,PageOffset(root)]
	cmp         x8,#0
	bne         |$LN2@AuTTYInser|

; 65   : 		last = tty;

	adrp        x9,last
	ldr         x8,[sp]
	str         x8,[x9,PageOffset(last)]

; 66   : 		root = tty;

	adrp        x9,root
	ldr         x8,[sp]
	str         x8,[x9,PageOffset(root)]

; 67   : 	}

	b           |$LN3@AuTTYInser|
|$LN2@AuTTYInser|

; 68   : 	else {
; 69   : 		last->next = tty;

	adrp        x8,last
	ldr         x8,[x8,PageOffset(last)]
	add         x9,x8,#0x78
	ldr         x8,[sp]
	str         x8,[x9]

; 70   : 		tty->prev = last;

	ldr         x8,[sp]
	add         x9,x8,#0x80
	adrp        x8,last
	ldr         x8,[x8,PageOffset(last)]
	str         x8,[x9]
|$LN3@AuTTYInser|

; 71   : 	}
; 72   : 	last = tty;

	adrp        x9,last
	ldr         x8,[sp]
	str         x8,[x9,PageOffset(last)]
	add         sp,sp,#0x10
	ret

	ENDP  ; |AuTTYInsert|

; Function compile flags: /Odtpy
; File C:\Users\paras\source\repos\grep-name\XenevaOS\KernelAA64\Fs\tty.c

	AREA	|.text$mn|, CODE, ARM64

|AuTTYInitialise| PROC

; 451  : void AuTTYInitialise() {

|$LN3|
	str         lr,[sp,#-0x10]!
	sub         sp,sp,#0x10

; 452  : 	root = NULL;

	adrp        x9,root
	mov         x8,#0
	str         x8,[x9,PageOffset(root)]

; 453  : 	last = NULL;

	adrp        x9,last
	mov         x8,#0
	str         x8,[x9,PageOffset(last)]

; 454  : 	master_count = 0;

	adrp        x9,master_count
	mov         x8,#0
	str         x8,[x9,PageOffset(master_count)]

; 455  : 	slave_count = 0;

	adrp        x9,slave_count
	mov         x8,#0
	str         x8,[x9,PageOffset(slave_count)]

; 456  : 	/* create a directory for tty's */
; 457  : 	AuVFSNode* fs = AuVFSFind("/dev");

	adrp        x8,|$SG3847|
	add         x0,x8,PageOffset(|$SG3847|)
	bl          AuVFSFind
	str         x0,[sp]

; 458  : 	AuDevFSCreateFile(fs, "/dev/tty", FS_FLAG_DIRECTORY);

	mov         w2,#2
	adrp        x8,|$SG3848|
	add         x1,x8,PageOffset(|$SG3848|)
	ldr         x0,[sp]
	bl          AuDevFSCreateFile
	add         sp,sp,#0x10
	ldr         lr,[sp],#0x10
	ret

	ENDP  ; |AuTTYInitialise|

; Function compile flags: /Odtpy
; File C:\Users\paras\source\repos\grep-name\XenevaOS\KernelAA64\Fs\tty.c

	AREA	|.text$mn|, CODE, ARM64

|AuTTYCreate| PROC

; 391  : int AuTTYCreate(int* master_fd, int* slave_fd) {

|$LN6|
	str         lr,[sp,#-0x10]!
	sub         sp,sp,#0x50
	str         x0,[sp,#0x40]
	str         x1,[sp,#0x48]

; 392  : 
; 393  : 	AA64Thread* thr = AuGetCurrentThread();

	bl          AuGetCurrentThread
	str         x0,[sp,#0x38]

; 394  : 	AuProcess* proc = AuProcessFindThread(thr);

	ldr         x0,[sp,#0x38]
	bl          AuProcessFindThread
	str         x0,[sp,#0x10]

; 395  : 	if (!proc)

	ldr         x8,[sp,#0x10]
	cmp         x8,#0
	bne         |$LN2@AuTTYCreat|

; 396  : 		return -1;

	mov         w0,#-1
	b           |$LN1@AuTTYCreat|
|$LN2@AuTTYCreat|

; 397  : 
; 398  : 	TTY* tty = (TTY*)kmalloc(sizeof(TTY));

	mov         w0,#0x88
	bl          kmalloc
	str         x0,[sp]

; 399  : 	memset(tty, 0, sizeof(TTY));

	mov         w2,#0x88
	mov         w1,#0
	ldr         x0,[sp]
	bl          memset

; 400  : 
; 401  : 	void* inbuffer = kmalloc(512);

	mov         w0,#0x200
	bl          kmalloc
	str         x0,[sp,#0x18]

; 402  : 	memset(inbuffer, 0, 512);

	mov         w2,#0x200
	mov         w1,#0
	ldr         x0,[sp,#0x18]
	bl          memset

; 403  : 	void* outbuffer = kmalloc(512);

	mov         w0,#0x200
	bl          kmalloc
	str         x0,[sp,#0x20]

; 404  : 	memset(outbuffer, 0, 512);

	mov         w2,#0x200
	mov         w1,#0
	ldr         x0,[sp,#0x20]
	bl          memset

; 405  : 
; 406  : 	tty->masterbuf = AuCircBufInitialise((uint8_t*)inbuffer, 512);

	mov         x1,#0x200
	ldr         x0,[sp,#0x18]
	bl          AuCircBufInitialise
	ldr         x8,[sp]
	add         x8,x8,#0x48
	str         x0,[x8]

; 407  : 	tty->slavebuf = AuCircBufInitialise((uint8_t*)outbuffer, 512);

	mov         x1,#0x200
	ldr         x0,[sp,#0x20]
	bl          AuCircBufInitialise
	ldr         x8,[sp]
	add         x8,x8,#0x50
	str         x0,[x8]

; 408  : 
; 409  : 	tty->id = slave_count;

	ldr         x9,[sp]
	adrp        x8,slave_count
	ldr         x8,[x8,PageOffset(slave_count)]
	uxtb        w8,w8
	strb        w8,[x9]

; 410  : 	tty->master_written = 0;

	ldr         x8,[sp]
	add         x9,x8,#0x68
	mov         w8,#0
	str         w8,[x9]

; 411  : 	tty->slave_written = 0;

	ldr         x8,[sp]
	add         x9,x8,#0x6C
	mov         w8,#0
	str         w8,[x9]

; 412  : 
; 413  : 	tty->masterbuf_ptr = inbuffer;

	ldr         x8,[sp]
	add         x9,x8,#0x58
	ldr         x8,[sp,#0x18]
	str         x8,[x9]

; 414  : 	tty->slavebuf_ptr = outbuffer;

	ldr         x8,[sp]
	add         x9,x8,#0x60
	ldr         x8,[sp,#0x20]
	str         x8,[x9]

; 415  : 
; 416  : 	tty->term.c_iflag = ICRNL | BRKINT;

	ldr         x8,[sp]
	add         x9,x8,#0xC
	mov         w8,#0x102
	str         w8,[x9]

; 417  : 	tty->term.c_oflag = ONLCR | OPOST;

	ldr         x8,[sp]
	add         x9,x8,#0x10
	mov         w8,#5
	str         w8,[x9]

; 418  : 	tty->term.c_iflag = ECHO | ECHOE | ECHOK | ICANON | ISIG | IEXTEN;

	ldr         x8,[sp]
	add         x9,x8,#0xC
	mov         w8,#0x803B
	str         w8,[x9]

; 419  : 	tty->term.c_cflag = CREAD | CS8;

	ldr         x8,[sp]
	add         x9,x8,#0x14
	mov         w8,#0xB0
	str         w8,[x9]

; 420  : 	tty->term.c_cc[VEOF] = 4;

	ldr         x8,[sp]
	add         x9,x8,#0x21
	mov         w8,#4
	strb        w8,[x9]

; 421  : 	tty->term.c_cc[VEOL] = 0;

	ldr         x8,[sp]
	add         x9,x8,#0x28
	mov         w8,#0
	strb        w8,[x9]

; 422  : 	tty->term.c_cc[VERASE] = 0x7f;

	ldr         x8,[sp]
	add         x9,x8,#0x1F
	mov         w8,#0x7F
	strb        w8,[x9]

; 423  : 
; 424  : 	AuVFSNode* master = AuTTYCreateMaster(tty);

	ldr         x0,[sp]
	bl          AuTTYCreateMaster
	str         x0,[sp,#0x28]

; 425  : 	AuVFSNode* slave = AuTTYCreateSlave(tty);

	ldr         x0,[sp]
	bl          AuTTYCreateSlave
	str         x0,[sp,#0x30]

; 426  : 
; 427  : 	/** now current process owns the both file **/
; 428  : 	master->uid = proc->creds.uid;

	ldr         x8,[sp,#0x10]
	add         x10,x8,#0x474
	ldr         x8,[sp,#0x28]
	add         x9,x8,#0x44
	ldr         w8,[x10]
	str         w8,[x9]

; 429  : 	master->gid = proc->creds.gid;

	ldr         x8,[sp,#0x10]
	add         x10,x8,#0x478
	ldr         x8,[sp,#0x28]
	add         x9,x8,#0x48
	ldr         w8,[x10]
	str         w8,[x9]

; 430  : 	slave->uid = proc->creds.uid;

	ldr         x8,[sp,#0x10]
	add         x10,x8,#0x474
	ldr         x8,[sp,#0x30]
	add         x9,x8,#0x44
	ldr         w8,[x10]
	str         w8,[x9]

; 431  : 	slave->gid = proc->creds.gid;

	ldr         x8,[sp,#0x10]
	add         x10,x8,#0x478
	ldr         x8,[sp,#0x30]
	add         x9,x8,#0x48
	ldr         w8,[x10]
	str         w8,[x9]

; 432  : 
; 433  : 	int fd = AuProcessGetFileDesc(proc);

	ldr         x0,[sp,#0x10]
	bl          AuProcessGetFileDesc
	mov         w0,w0
	str         w0,[sp,#8]

; 434  : 	if (fd == -1)

	ldr         w8,[sp,#8]
	cmn         w8,#1
	bne         |$LN3@AuTTYCreat|

; 435  : 		return 0;

	mov         w0,#0
	b           |$LN1@AuTTYCreat|
|$LN3@AuTTYCreat|

; 436  : 	proc->fds[fd] = master;

	ldr         x8,[sp,#0x10]
	add         x10,x8,#0x248
	ldr         w8,[sp,#8]
	sxtw        x9,w8
	mov         x8,#8
	mul         x8,x9,x8
	add         x9,x10,x8
	ldr         x8,[sp,#0x28]
	str         x8,[x9]

; 437  : 	*master_fd = fd;

	ldr         x9,[sp,#0x40]
	ldr         w8,[sp,#8]
	str         w8,[x9]

; 438  : 
; 439  : 	fd = AuProcessGetFileDesc(proc);

	ldr         x0,[sp,#0x10]
	bl          AuProcessGetFileDesc
	mov         w0,w0
	str         w0,[sp,#8]

; 440  : 	if (fd == -1)

	ldr         w8,[sp,#8]
	cmn         w8,#1
	bne         |$LN4@AuTTYCreat|

; 441  : 		return 0;

	mov         w0,#0
	b           |$LN1@AuTTYCreat|
|$LN4@AuTTYCreat|

; 442  : 	proc->fds[fd] = slave;

	ldr         x8,[sp,#0x10]
	add         x10,x8,#0x248
	ldr         w8,[sp,#8]
	sxtw        x9,w8
	mov         x8,#8
	mul         x8,x9,x8
	add         x9,x10,x8
	ldr         x8,[sp,#0x30]
	str         x8,[x9]

; 443  : 	*slave_fd = fd;

	ldr         x9,[sp,#0x48]
	ldr         w8,[sp,#8]
	str         w8,[x9]

; 444  : 
; 445  : 	return 1;

	mov         w0,#1
|$LN1@AuTTYCreat|
	add         sp,sp,#0x50
	ldr         lr,[sp],#0x10
	ret

	ENDP  ; |AuTTYCreate|

	END
