; Listing generated by Microsoft (R) Optimizing Compiler Version 19.29.30159.0 

	TTL	C:\Users\paras\source\repos\grep-name\XenevaOS\KernelAA64\ARM64\Debug\uart.obj
	ARM64

	AREA	|.drectve|, DRECTVE

	EXPORT	|_uart_mapped| [ DATA ]

	AREA	|.data|, DATA
	 COMMON	|uartMMIO|, 0x8


	AREA	|.bss|, NOINIT
|_uart_mapped| % 0x1
	EXPORT	|UARTInitialize|
	EXPORT	|uartPutc|
	EXPORT	|uartPuts|
	EXPORT	|is_uart_initialized|
	EXPORT	|UARTDebugOut_Call|
	IMPORT	|AuMapMMIO|
	IMPORT	|AuTextOut|
	IMPORT	|strlen|
	IMPORT	|sztoa|
	IMPORT	|ftoa|
	IMPORT	|_fltused|

	AREA	|.pdata|, PDATA
|$pdata$UARTInitialize| DCD imagerel |$LN3|
	DCD	0xa00095
	;Flags[SingleProEpi] functionLength[148] RegF[0] RegI[0] H[0] frameChainReturn[UnChainedSavedLR] frameSize[16]
|$pdata$uartPutc| DCD imagerel |$LN7|
	DCD	0x1000075
	;Flags[SingleProEpi] functionLength[116] RegF[0] RegI[0] H[0] frameChainReturn[UnChained] frameSize[32]
|$pdata$uartPuts| DCD imagerel |$LN5|
	DCD	0x1200051
	;Flags[SingleProEpi] functionLength[80] RegF[0] RegI[0] H[0] frameChainReturn[UnChainedSavedLR] frameSize[32]

	AREA	|.pdata|, PDATA
|$pdata$uart_write_reg| DCD imagerel |uart_write_reg|
	DCD	0x800031
	;Flags[SingleProEpi] functionLength[48] RegF[0] RegI[0] H[0] frameChainReturn[UnChained] frameSize[16]

	AREA	|.pdata|, PDATA
|$pdata$UARTDebugOut_Call| DCD imagerel |$LN25|
	DCD	0x8a00349
	;Flags[SingleProEpi] functionLength[840] RegF[0] RegI[0] H[0] frameChainReturn[UnChainedSavedLR] frameSize[272]

	AREA	|.data|, DATA
|$SG2703| DCB	"UART MMIO -> %x ", 0xa, 0x0
	%	2
|$SG2796| DCB	"-", 0x0
	%	2
|$SG2807| DCB	".", 0x0
; Function compile flags: /Odtpy
; File C:\Users\paras\source\repos\grep-name\XenevaOS\KernelAA64\Drivers\uart.c

	AREA	|.text$mn|, CODE, ARM64

|UARTDebugOut_Call| PROC

; 119  : void UARTDebugOut_Call(const char* format, void* reg_save_area, void* entry_sp) {

|$LN25|
	str         lr,[sp,#-0x10]!
	sub         sp,sp,#0x100
	str         x0,[sp]
	str         x1,[sp,#0x38]
	str         x2,[sp,#0x58]

; 120  : 	va_list args = ((va_list)reg_save_area + 8);

	ldr         x8,[sp,#0x38]
	add         x8,x8,#8
	str         x8,[sp,#0x10]
|$LN2@UARTDebugO|

; 121  : 	while (*format)

	ldr         x8,[sp]
	ldrsb       w8,[x8]
	mov         w8,w8
	cmp         w8,#0
	beq         |$LN3@UARTDebugO|

; 122  : 	{
; 123  : 		if (*format == '%')

	ldr         x8,[sp]
	ldrsb       w8,[x8]
	mov         w8,w8
	cmp         w8,#0x25
	bne         |$LN7@UARTDebugO|

; 124  : 		{
; 125  : 			++format;

	ldr         x8,[sp]
	add         x8,x8,#1
	str         x8,[sp]

; 126  : 			if (*format == 'd')

	ldr         x8,[sp]
	ldrsb       w8,[x8]
	mov         w8,w8
	cmp         w8,#0x64
	bne         |$LN9@UARTDebugO|

; 127  : 			{
; 128  : 				size_t width = 0;

	mov         x8,#0
	str         x8,[sp,#0x30]

; 129  : 				if (format[1] == '.')

	ldr         x8,[sp]
	add         x8,x8,#1
	ldrsb       w8,[x8]
	mov         w8,w8
	cmp         w8,#0x2E
	bne         |$LN11@UARTDebugO|

; 130  : 				{
; 131  : 					for (size_t i = 2; format[i] >= '0' && format[i] <= '9'; ++i)

	mov         x8,#2
	str         x8,[sp,#0x20]
	b           |$LN6@UARTDebugO|
|$LN4@UARTDebugO|
	ldr         x8,[sp,#0x20]
	add         x8,x8,#1
	str         x8,[sp,#0x20]
|$LN6@UARTDebugO|
	ldr         x9,[sp,#0x20]
	mov         x8,#1
	mul         x9,x9,x8
	ldr         x8,[sp]
	add         x8,x8,x9
	ldrsb       w8,[x8]
	mov         w8,w8
	cmp         w8,#0x30
	blt         |$LN5@UARTDebugO|
	ldr         x9,[sp,#0x20]
	mov         x8,#1
	mul         x9,x9,x8
	ldr         x8,[sp]
	add         x8,x8,x9
	ldrsb       w8,[x8]
	mov         w8,w8
	cmp         w8,#0x39
	bgt         |$LN5@UARTDebugO|

; 132  : 					{
; 133  : 						width *= 10;

	ldr         x9,[sp,#0x30]
	mov         x8,#0xA
	mul         x8,x9,x8
	str         x8,[sp,#0x30]

; 134  : 						width += format[i] - '0';

	ldr         x9,[sp,#0x20]
	mov         x8,#1
	mul         x9,x9,x8
	ldr         x8,[sp]
	add         x8,x8,x9
	ldrsb       w8,[x8]
	mov         w8,w8
	sub         w8,w8,#0x30
	sxtw        x9,w8
	ldr         x8,[sp,#0x30]
	add         x8,x8,x9
	str         x8,[sp,#0x30]

; 135  : 					}

	b           |$LN4@UARTDebugO|
|$LN5@UARTDebugO|
|$LN11@UARTDebugO|

; 136  : 				}
; 137  : 				size_t i = va_arg(args, size_t);

	ldr         x8,[sp,#0x10]
	add         x8,x8,#8
	str         x8,[sp,#0x10]
	ldr         x8,[sp,#0x10]
	sub         x8,x8,#8
	ldr         x8,[x8]
	str         x8,[sp,#0x28]

; 138  : 				char buffer[sizeof(size_t) * 8 + 1];
; 139  : 				//	size_t len
; 140  : 				if ((int)i < 0) {

	ldr         x8,[sp,#0x28]
	mov         w8,w8
	cmp         w8,#0
	bge         |$LN12@UARTDebugO|

; 141  : 					uartPuts("-");

	adrp        x8,|$SG2796|
	add         x0,x8,PageOffset(|$SG2796|)
	bl          uartPuts

; 142  : 					i = ((int)i * -1);

	ldr         x8,[sp,#0x28]
	mov         w9,w8
	mov         w8,#-1
	mul         w8,w9,w8
	sxtw        x8,w8
	str         x8,[sp,#0x28]

; 143  : 					sztoa(i, buffer, 10);

	mov         w2,#0xA
	add         x1,sp,#0x68
	ldr         x0,[sp,#0x28]
	bl          sztoa

; 144  : 				}

	b           |$LN13@UARTDebugO|
|$LN12@UARTDebugO|

; 145  : 				else {
; 146  : 					sztoa(i, buffer, 10);

	mov         w2,#0xA
	add         x1,sp,#0x68
	ldr         x0,[sp,#0x28]
	bl          sztoa

; 147  : 					size_t len = strlen(buffer);

	add         x0,sp,#0x68
	bl          strlen
	str         x0,[sp,#0x60]
|$LN13@UARTDebugO|

; 148  : 				}
; 149  : 				/*	while (len++ < width)
; 150  : 				puts("0");*/
; 151  : 				uartPuts(buffer);

	add         x0,sp,#0x68
	bl          uartPuts

; 152  : 			}

	b           |$LN10@UARTDebugO|
|$LN9@UARTDebugO|

; 153  : 			else if (*format == 'c')

	ldr         x8,[sp]
	ldrsb       w8,[x8]
	mov         w8,w8
	cmp         w8,#0x63
	bne         |$LN14@UARTDebugO|

; 154  : 			{
; 155  : 				char c = va_arg(args, char);

	ldr         x8,[sp,#0x10]
	add         x8,x8,#8
	str         x8,[sp,#0x10]
	ldr         x8,[sp,#0x10]
	sub         x8,x8,#8
	ldrsb       w8,[x8]
	strb        w8,[sp,#8]

; 156  : 				//char buffer[sizeof(size_t) * 8 + 1];
; 157  : 				//sztoa(c, buffer, 10);
; 158  : 				//puts(buffer);
; 159  : 				uartPutc(c);

	ldrsb       w0,[sp,#8]
	bl          uartPutc

; 160  : 			}

	b           |$LN15@UARTDebugO|
|$LN14@UARTDebugO|

; 161  : 			else if (*format == 'x')

	ldr         x8,[sp]
	ldrsb       w8,[x8]
	mov         w8,w8
	cmp         w8,#0x78
	bne         |$LN16@UARTDebugO|

; 162  : 			{
; 163  : 				size_t x = va_arg(args, size_t);

	ldr         x8,[sp,#0x10]
	add         x8,x8,#8
	str         x8,[sp,#0x10]
	ldr         x8,[sp,#0x10]
	sub         x8,x8,#8
	ldr         x8,[x8]
	str         x8,[sp,#0x40]

; 164  : 				char buffer[sizeof(size_t) * 8 + 1];
; 165  : 				sztoa(x, buffer, 16);

	mov         w2,#0x10
	add         x1,sp,#0xB0
	ldr         x0,[sp,#0x40]
	bl          sztoa

; 166  : 				//puts("0x");
; 167  : 				uartPuts(buffer);

	add         x0,sp,#0xB0
	bl          uartPuts

; 168  : 			}

	b           |$LN17@UARTDebugO|
|$LN16@UARTDebugO|

; 169  : 			else if (*format == 's')

	ldr         x8,[sp]
	ldrsb       w8,[x8]
	mov         w8,w8
	cmp         w8,#0x73
	bne         |$LN18@UARTDebugO|

; 170  : 			{
; 171  : 				char* x = va_arg(args, char*);

	ldr         x8,[sp,#0x10]
	add         x8,x8,#8
	str         x8,[sp,#0x10]
	ldr         x8,[sp,#0x10]
	sub         x8,x8,#8
	ldr         x8,[x8]
	str         x8,[sp,#0x48]

; 172  : 				uartPuts(x);

	ldr         x0,[sp,#0x48]
	bl          uartPuts

; 173  : 			}

	b           |$LN19@UARTDebugO|
|$LN18@UARTDebugO|

; 174  : 			else if (*format == 'f')

	ldr         x8,[sp]
	ldrsb       w8,[x8]
	mov         w8,w8
	cmp         w8,#0x66
	bne         |$LN20@UARTDebugO|

; 175  : 			{
; 176  : 				double x = va_arg(args, double);

	ldr         x8,[sp,#0x10]
	add         x8,x8,#8
	str         x8,[sp,#0x10]
	ldr         x8,[sp,#0x10]
	sub         x8,x8,#8
	ldr         d16,[x8]
	str         d16,[sp,#0x50]

; 177  : 				uartPuts(ftoa(x, 2));

	ldr         d16,[sp,#0x50]
	fcvt        s0,d16
	mov         w0,#2
	bl          ftoa
	bl          uartPuts

; 178  : 			}

	b           |$LN21@UARTDebugO|
|$LN20@UARTDebugO|

; 179  : 			else if (*format == '%')

	ldr         x8,[sp]
	ldrsb       w8,[x8]
	mov         w8,w8
	cmp         w8,#0x25
	bne         |$LN22@UARTDebugO|

; 180  : 			{
; 181  : 				uartPuts(".");

	adrp        x8,|$SG2807|
	add         x0,x8,PageOffset(|$SG2807|)
	bl          uartPuts

; 182  : 			}

	b           |$LN23@UARTDebugO|
|$LN22@UARTDebugO|

; 183  : 			else
; 184  : 			{
; 185  : 				char buf[3];
; 186  : 				buf[0] = '%'; buf[1] = *format; buf[2] = '\0';

	mov         w8,#0x25
	strb        w8,[sp,#0x1C]
	ldr         x8,[sp]
	ldrsb       w8,[x8]
	strb        w8,[sp,#0x1D]
	mov         w8,#0
	strb        w8,[sp,#0x1E]

; 187  : 				uartPuts(buf);

	add         x0,sp,#0x1C
	bl          uartPuts
|$LN23@UARTDebugO|
|$LN21@UARTDebugO|
|$LN19@UARTDebugO|
|$LN17@UARTDebugO|
|$LN15@UARTDebugO|
|$LN10@UARTDebugO|

; 188  : 			}
; 189  : 		}

	b           |$LN8@UARTDebugO|
|$LN7@UARTDebugO|

; 190  : 		else
; 191  : 		{
; 192  : 			char buf[2];
; 193  : 			buf[0] = *format; buf[1] = '\0';

	ldr         x8,[sp]
	ldrsb       w8,[x8]
	strb        w8,[sp,#0x18]
	mov         w8,#0
	strb        w8,[sp,#0x19]

; 194  : 			uartPuts(buf);

	add         x0,sp,#0x18
	bl          uartPuts
|$LN8@UARTDebugO|

; 195  : 		}
; 196  : 		++format;

	ldr         x8,[sp]
	add         x8,x8,#1
	str         x8,[sp]

; 197  : 	}

	b           |$LN2@UARTDebugO|
|$LN3@UARTDebugO|
	add         sp,sp,#0x100
	ldr         lr,[sp],#0x10
	ret

	ENDP  ; |UARTDebugOut_Call|

; Function compile flags: /Odtpy
; File C:\Users\paras\source\repos\grep-name\XenevaOS\KernelAA64\Drivers\uart.c

	AREA	|.text$mn|, CODE, ARM64

|uart_write_reg| PROC

; 48   : static inline void uart_write_reg(uint32_t reg_offset, uint32_t value) {

	sub         sp,sp,#0x10
	str         w0,[sp]
	str         w1,[sp,#4]

; 49   : 	*(volatile uint32_t*)((uint64_t)uartMMIO + reg_offset) = value;

	ldr         w8,[sp]
	uxtw        x9,w8
	adrp        x8,uartMMIO
	ldr         x8,[x8,PageOffset(uartMMIO)]
	add         x9,x8,x9
	ldr         w8,[sp,#4]
	str         w8,[x9]
	add         sp,sp,#0x10
	ret

	ENDP  ; |uart_write_reg|

; Function compile flags: /Odtpy
; File C:\Users\paras\source\repos\grep-name\XenevaOS\KernelAA64\Drivers\uart.c

	AREA	|.text$mn|, CODE, ARM64

|is_uart_initialized| PROC

; 81   : 	return _uart_mapped;

	adrp        x8,_uart_mapped
	ldrb        w0,[x8,PageOffset(_uart_mapped)]
	ret

	ENDP  ; |is_uart_initialized|

; Function compile flags: /Odtpy
; File C:\Users\paras\source\repos\grep-name\XenevaOS\KernelAA64\Drivers\uart.c

	AREA	|.text$mn|, CODE, ARM64

|uartPuts| PROC

; 108  : void uartPuts(const char* s) {

|$LN5|
	str         lr,[sp,#-0x10]!
	sub         sp,sp,#0x10
	str         x0,[sp,#8]
|$LN2@uartPuts|

; 109  : 	while (*s)

	ldr         x8,[sp,#8]
	ldrsb       w8,[x8]
	mov         w8,w8
	cmp         w8,#0
	beq         |$LN3@uartPuts|

; 110  : 		uartPutc(*s++);

	ldr         x8,[sp,#8]
	ldrsb       w8,[x8]
	strb        w8,[sp]
	ldrsb       w0,[sp]
	bl          uartPutc
	ldr         x8,[sp,#8]
	add         x8,x8,#1
	str         x8,[sp,#8]
	b           |$LN2@uartPuts|
|$LN3@uartPuts|
	add         sp,sp,#0x10
	ldr         lr,[sp],#0x10
	ret

	ENDP  ; |uartPuts|

; Function compile flags: /Odtpy
; File C:\Users\paras\source\repos\grep-name\XenevaOS\KernelAA64\Drivers\uart.c

	AREA	|.text$mn|, CODE, ARM64

|uartPutc| PROC

; 88   : void uartPutc(char c) {

|$LN7|
	sub         sp,sp,#0x20
	sxtb        w8,w0
	strb        w8,[sp]

; 89   : #ifdef __TARGET_BOARD_IMX8MP_VERDIN_DAHLIA__ || (__TARGET_BOARD_IMX8MP_SOC__)
; 90   : 	au_imx8mp_uart_putc(c);
; 91   : #else
; 92   : 
; 93   : 	uint64_t* mmioBase = 0;

	mov         x8,#0
	str         x8,[sp,#8]

; 94   : 	if (_uart_mapped)

	adrp        x8,_uart_mapped
	ldrb        w8,[x8,PageOffset(_uart_mapped)]
	mov         w8,w8
	cmp         w8,#0
	beq         |$LN4@uartPutc|

; 95   : 		mmioBase = uartMMIO;

	adrp        x8,uartMMIO
	ldr         x8,[x8,PageOffset(uartMMIO)]
	str         x8,[sp,#8]
	b           |$LN5@uartPutc|
|$LN4@uartPutc|

; 96   : 	else
; 97   : 		mmioBase = UART0_BASE;

	mov         x8,#0x9000000
	str         x8,[sp,#8]
|$LN5@uartPutc|

; 98   : 	char* uart0 = (char*)mmioBase;

	ldr         x8,[sp,#8]
	str         x8,[sp,#0x10]
|$LN2@uartPutc|

; 99   : 	while ((*(uart0 + 0x18) & (1 << 5)));

	ldr         x8,[sp,#0x10]
	add         x8,x8,#0x18
	ldrsb       w8,[x8]
	mov         w8,w8
	tbz         x8,#5,|$LN3@uartPutc|
	b           |$LN2@uartPutc|
|$LN3@uartPutc|

; 100  : 	*uart0 = c;

	ldr         x9,[sp,#0x10]
	ldrsb       w8,[sp]
	strb        w8,[x9]
	add         sp,sp,#0x20
	ret

	ENDP  ; |uartPutc|

; Function compile flags: /Odtpy
; File C:\Users\paras\source\repos\grep-name\XenevaOS\KernelAA64\Drivers\uart.c

	AREA	|.text$mn|, CODE, ARM64

|UARTInitialize| PROC

; 55   : void UARTInitialize() {

|$LN3|
	str         lr,[sp,#-0x10]!

; 56   : 	uartMMIO = (uint64_t*)AuMapMMIO(UART0_BASE, 1);

	mov         x1,#1
	mov         x0,#0x9000000
	bl          AuMapMMIO
	adrp        x8,uartMMIO
	str         x0,[x8,PageOffset(uartMMIO)]

; 57   : 	AuTextOut("UART MMIO -> %x \n", uartMMIO);

	adrp        x8,uartMMIO
	ldr         x1,[x8,PageOffset(uartMMIO)]
	adrp        x8,|$SG2703|
	add         x0,x8,PageOffset(|$SG2703|)
	bl          AuTextOut

; 58   : 
; 59   : #ifdef __TARGET_BOARD_QEMU_VIRT__
; 60   : 	uart_write_reg(UART_CR, 0);

	mov         w1,#0
	mov         w0,#0x30
	bl          uart_write_reg

; 61   : 	uart_write_reg(UART_IBRD, 13);

	mov         w1,#0xD
	mov         w0,#0x24
	bl          uart_write_reg

; 62   : 	uart_write_reg(UART_FBRD, 1);

	mov         w1,#1
	mov         w0,#0x28
	bl          uart_write_reg

; 63   : 
; 64   : 	uart_write_reg(UART_LCR_H, UART_LCR_H_WLEN_8BIT | UART_LCR_H_FEN);

	mov         w1,#0x70
	mov         w0,#0x2C
	bl          uart_write_reg

; 65   : 
; 66   : 	uart_write_reg(UART_CR, UART_CR_UARTEN | UART_CR_TXE | UART_CR_RXE);

	mov         w1,#0x301
	mov         w0,#0x30
	bl          uart_write_reg

; 67   : 
; 68   : 	uart_write_reg(UART_ICR, 0xffff);

	mov         w1,#0xFFFF
	mov         w0,#0x44
	bl          uart_write_reg

; 69   : 
; 70   : 	//enable irq
; 71   : 	uart_write_reg(UART_IMSC, UART_IMSC_RXIM | UART_IMSC_RTIM);

	mov         w1,#0x50
	mov         w0,#0x38
	bl          uart_write_reg

; 72   : #elif __TARGET_BOARD_IMX8MP_VERDIN_DAHLIA__ || (__TARGET_BOARD_IMX8MP_SOC__)
; 73   : 	au_imx8np_uart_initialize((uint64_t*)uartMMIO);
; 74   : #endif
; 75   : 
; 76   : 	_uart_mapped = true;

	adrp        x9,_uart_mapped
	mov         w8,#1
	strb        w8,[x9,PageOffset(_uart_mapped)]
	ldr         lr,[sp],#0x10
	ret

	ENDP  ; |UARTInitialize|

	END
