; Listing generated by Microsoft (R) Optimizing Compiler Version 19.29.30159.0 

	TTL	C:\Users\paras\source\repos\grep-name\XenevaOS\KernelAA64\ARM64\Debug\udp.obj
	ARM64

	AREA	|.drectve|, DRECTVE


	AREA	|.data|, DATA
	 COMMON	|udp_socket_list|, 0x8

	EXPORT	|CreateUDPSocket|
	EXPORT	|UDPProtocolInstall|
	EXPORT	|UDPProtocolGetSockList|
	EXPORT	|UDPGetPort|
	EXPORT	|AuUDPReceive|
	EXPORT	|AuUDPSend|
	EXPORT	|AuUDPClose|
	EXPORT	|AuUDPBind|
	EXPORT	|AuUDPRead|
	EXPORT	|AuUDPWrite|
	EXPORT	|AuUDPFileClose|
	IMPORT	|initialize_list|
	IMPORT	|list_add|
	IMPORT	|list_remove|
	IMPORT	|list_get_at|
	IMPORT	|AuStackPop|
	IMPORT	|AuNetCreateSocket|
	IMPORT	|AuSocketGet|
	IMPORT	|SocketIOControl|
	IMPORT	|AuGetCurrentThread|
	IMPORT	|AuProcessFindThread|
	IMPORT	|AuProcessFindSubThread|
	IMPORT	|AuProcessGetFileDesc|
	IMPORT	|kmalloc|
	IMPORT	|kfree|
	IMPORT	|AuNetworkRoute|
	IMPORT	|strcpy|
	IMPORT	|memset|
	IMPORT	|memcpy|
	IMPORT	|IPv4CalculateChecksum|
	IMPORT	|IPV4SendPacket|
	IMPORT	|UARTDebugOut|

	AREA	|.pdata|, PDATA
|$pdata$CreateUDPSocket| DCD imagerel |$LN6|
	DCD	0x22001a5
	;Flags[SingleProEpi] functionLength[420] RegF[0] RegI[0] H[0] frameChainReturn[UnChainedSavedLR] frameSize[64]
|$pdata$UDPProtocolInstall| DCD imagerel |$LN3|
	DCD	0xa00019
	;Flags[SingleProEpi] functionLength[24] RegF[0] RegI[0] H[0] frameChainReturn[UnChainedSavedLR] frameSize[16]
|$pdata$UDPGetPort| DCD imagerel |$LN3|
	DCD	0x1200065
	;Flags[SingleProEpi] functionLength[100] RegF[0] RegI[0] H[0] frameChainReturn[UnChainedSavedLR] frameSize[32]
|$pdata$AuUDPReceive| DCD imagerel |$LN9|
	DCD	0x2200221
	;Flags[SingleProEpi] functionLength[544] RegF[0] RegI[0] H[0] frameChainReturn[UnChainedSavedLR] frameSize[64]
|$pdata$AuUDPSend| DCD imagerel |$LN9|
	DCD	0x32103d1
	;Flags[SingleProEpi] functionLength[976] RegF[0] RegI[1] H[0] frameChainReturn[UnChainedSavedLR] frameSize[96]
|$pdata$AuUDPClose| DCD imagerel |$LN3|
	DCD	0x800011
	;Flags[SingleProEpi] functionLength[16] RegF[0] RegI[0] H[0] frameChainReturn[UnChained] frameSize[16]
|$pdata$AuUDPBind| DCD imagerel |$LN8|
	DCD	0x2200151
	;Flags[SingleProEpi] functionLength[336] RegF[0] RegI[0] H[0] frameChainReturn[UnChainedSavedLR] frameSize[64]
|$pdata$AuUDPRead| DCD imagerel |$LN3|
	DCD	0x1000021
	;Flags[SingleProEpi] functionLength[32] RegF[0] RegI[0] H[0] frameChainReturn[UnChained] frameSize[32]
|$pdata$AuUDPWrite| DCD imagerel |$LN3|
	DCD	0x1000021
	;Flags[SingleProEpi] functionLength[32] RegF[0] RegI[0] H[0] frameChainReturn[UnChained] frameSize[32]
|$pdata$AuUDPFileClose| DCD imagerel |$LN11|
	DCD	0x2200125
	;Flags[SingleProEpi] functionLength[292] RegF[0] RegI[0] H[0] frameChainReturn[UnChainedSavedLR] frameSize[64]

	AREA	|.data|, DATA
|_udp_port| DCD	0x3039
|$SG3473| DCB	"udp", 0x0
|$SG3351| DCB	"[aurora]: UDP-net: Multiple iov is not supported ", 0xd, 0xa
	DCB	0x0
	%	4
|$SG3354| DCB	"[aurora]: UDP: Got Response %d ", 0xd, 0xa, 0x0
	%	6
|$SG3381| DCB	"[aurora]: UDP: Send -> %d ", 0xd, 0xa, 0x0
	%	3
|$SG3383| DCB	"UDP: Multiple IOV is not supported ", 0xd, 0xa, 0x0
	%	2
|$SG3386| DCB	"UDP: invalid destination address size ", 0xd, 0xa, 0x0
	%	7
|$SG3388| DCB	"[aurora]:UDP: assigning port %d to socket ", 0xd, 0xa, 0x0
	%	3
|$SG3390| DCB	"[aurora]:UDP: Failed to route address ", 0xd, 0xa, 0x0
	%	7
|$SG3392| DCB	"[aurora]: UDP: No network device found ", 0xd, 0xa, 0x0
	%	6
|$SG3415| DCB	"[aurora]: binding udp  ", 0xd, 0xa, 0x0
	%	6
|$SG3416| DCB	"[aurora]: port -> %d ", 0xd, 0xa, 0x0
|$SG3417| DCB	"UDP Protocol List -> %x ", 0xd, 0xa, 0x0
	%	5
|$SG3419| DCB	"UDP Socket added ", 0xd, 0xa, 0x0
	%	4
|$SG3460| DCB	"[aurora]: UDP: Socket Closed ", 0xd, 0xa, 0x0
|$SG3474| DCB	"[aurora]: UDP Socket created ", 0xd, 0xa, 0x0
; Function compile flags: /Odtpy
; File C:\Users\paras\source\repos\grep-name\XenevaOS\KernelAA64\Net\udp.c

	AREA	|.text$mn|, CODE, ARM64

|AuUDPFileClose| PROC

; 205  : int AuUDPFileClose(AuVFSNode* fsys, AuVFSNode* file) {

|$LN11|
	str         lr,[sp,#-0x10]!
	sub         sp,sp,#0x30
	str         x0,[sp,#0x28]
	str         x1,[sp,#0x10]

; 206  : 	/* here both fs and file points to socket file , better
; 207  : 	 * would be using file pointer */
; 208  : 	AuSocket* sock = (AuSocket*)file->device;

	ldr         x8,[sp,#0x10]
	add         x8,x8,#0x50
	ldr         x8,[x8]
	str         x8,[sp,#8]

; 209  : 
; 210  : 	/* Remove it from raw socket list */
; 211  : 	for (int i = 0; i < udp_socket_list->pointer; i++) {

	mov         w8,#0
	str         w8,[sp]
	b           |$LN4@AuUDPFileC|
|$LN2@AuUDPFileC|
	ldr         w8,[sp]
	add         w8,w8,#1
	str         w8,[sp]
|$LN4@AuUDPFileC|
	adrp        x8,udp_socket_list
	ldr         x8,[x8,PageOffset(udp_socket_list)]
	ldr         w9,[x8]
	ldr         w8,[sp]
	cmp         w8,w9
	bhs         |$LN3@AuUDPFileC|

; 212  : 		AuSocket* socket = (AuSocket*)list_get_at(udp_socket_list, i);

	ldr         w1,[sp]
	adrp        x8,udp_socket_list
	ldr         x0,[x8,PageOffset(udp_socket_list)]
	bl          list_get_at
	str         x0,[sp,#0x18]

; 213  : 		if (socket == sock) {

	ldr         x9,[sp,#8]
	ldr         x8,[sp,#0x18]
	cmp         x8,x9
	bne         |$LN7@AuUDPFileC|

; 214  : 			list_remove(udp_socket_list, i);

	ldr         w1,[sp]
	adrp        x8,udp_socket_list
	ldr         x0,[x8,PageOffset(udp_socket_list)]
	bl          list_remove

; 215  : 			break;

	b           |$LN3@AuUDPFileC|
|$LN7@AuUDPFileC|

; 216  : 		}
; 217  : 	}

	b           |$LN2@AuUDPFileC|
|$LN3@AuUDPFileC|

; 218  : 	if (sock) {

	ldr         x8,[sp,#8]
	cmp         x8,#0
	beq         |$LN8@AuUDPFileC|

; 219  : 		if (sock->rxstack) {

	ldr         x8,[sp,#8]
	add         x8,x8,#8
	ldr         x8,[x8]
	cmp         x8,#0
	beq         |$LN9@AuUDPFileC|
|$LN5@AuUDPFileC|

; 220  : 			while (sock->rxstack->itemCount) {

	ldr         x8,[sp,#8]
	add         x8,x8,#8
	ldr         x8,[x8]
	add         x8,x8,#8
	ldr         w8,[x8]
	cmp         w8,#0
	beq         |$LN6@AuUDPFileC|

; 221  : 				void* data = AuStackPop(sock->rxstack);

	ldr         x8,[sp,#8]
	add         x8,x8,#8
	ldr         x0,[x8]
	bl          AuStackPop
	str         x0,[sp,#0x20]

; 222  : 				kfree(data);

	ldr         x0,[sp,#0x20]
	bl          kfree

; 223  : 			}

	b           |$LN5@AuUDPFileC|
|$LN6@AuUDPFileC|

; 224  : 			kfree(sock->rxstack);

	ldr         x8,[sp,#8]
	add         x8,x8,#8
	ldr         x0,[x8]
	bl          kfree
|$LN9@AuUDPFileC|

; 225  : 		}
; 226  : 		kfree(sock);

	ldr         x0,[sp,#8]
	bl          kfree
|$LN8@AuUDPFileC|

; 227  : 	}
; 228  : 	kfree(file);

	ldr         x0,[sp,#0x10]
	bl          kfree

; 229  : 	UARTDebugOut("[aurora]: UDP: Socket Closed \r\n");

	adrp        x8,|$SG3460|
	add         x0,x8,PageOffset(|$SG3460|)
	bl          UARTDebugOut

; 230  : 	return 0;

	mov         w0,#0
	add         sp,sp,#0x30
	ldr         lr,[sp],#0x10
	ret

	ENDP  ; |AuUDPFileClose|

; Function compile flags: /Odtpy
; File C:\Users\paras\source\repos\grep-name\XenevaOS\KernelAA64\Net\udp.c

	AREA	|.text$mn|, CODE, ARM64

|AuUDPWrite| PROC

; 201  : uint64_t AuUDPWrite(AuVFSNode* node, AuVFSNode* file, uint64_t* buffer, uint32_t len) {

|$LN3|
	sub         sp,sp,#0x20
	str         x0,[sp,#8]
	str         x1,[sp,#0x10]
	str         x2,[sp,#0x18]
	str         w3,[sp]

; 202  : 	return 0;

	mov         x0,#0
	add         sp,sp,#0x20
	ret

	ENDP  ; |AuUDPWrite|

; Function compile flags: /Odtpy
; File C:\Users\paras\source\repos\grep-name\XenevaOS\KernelAA64\Net\udp.c

	AREA	|.text$mn|, CODE, ARM64

|AuUDPRead| PROC

; 197  : uint64_t AuUDPRead(AuVFSNode* node, AuVFSNode* file, uint64_t* buffer, uint32_t len) {

|$LN3|
	sub         sp,sp,#0x20
	str         x0,[sp,#8]
	str         x1,[sp,#0x10]
	str         x2,[sp,#0x18]
	str         w3,[sp]

; 198  : 	return 0;

	mov         x0,#0
	add         sp,sp,#0x20
	ret

	ENDP  ; |AuUDPRead|

; Function compile flags: /Odtpy
; File C:\Users\paras\source\repos\grep-name\XenevaOS\KernelAA64\Net\udp.c

	AREA	|.text$mn|, CODE, ARM64

|AuUDPBind| PROC

; 175  : int AuUDPBind(AuSocket* sock, sockaddr* addr, socklen_t addrlen) {

|$LN8|
	str         lr,[sp,#-0x10]!
	sub         sp,sp,#0x30
	str         x0,[sp,#8]
	str         x1,[sp,#0x18]
	str         x2,[sp,#0x28]

; 176  : 	if (sock->sessionPort != 0)

	ldr         x8,[sp,#8]
	add         x8,x8,#0x10
	ldrh        w8,[x8]
	mov         w8,w8
	cmp         w8,#0
	beq         |$LN5@AuUDPBind|

; 177  : 		return -1;

	mov         w0,#-1
	b           |$LN1@AuUDPBind|
|$LN5@AuUDPBind|

; 178  : 
; 179  : 	UARTDebugOut("[aurora]: binding udp  \r\n");

	adrp        x8,|$SG3415|
	add         x0,x8,PageOffset(|$SG3415|)
	bl          UARTDebugOut

; 180  : 	sockaddr_in* addr_in = (sockaddr_in*)addr;

	ldr         x8,[sp,#0x18]
	str         x8,[sp,#0x10]

; 181  : 	int port = ntohs(addr_in->sin_port);

	ldr         x8,[sp,#0x10]
	add         x8,x8,#2
	ldrh        w8,[x8]
	mov         w8,w8
	and         w8,w8,#0xFF
	lsl         w9,w8,#8
	ldr         x8,[sp,#0x10]
	add         x8,x8,#2
	ldrh        w8,[x8]
	mov         w8,w8
	and         w8,w8,#0xFF00
	asr         w8,w8,#8
	orr         w8,w9,w8
	str         w8,[sp,#4]

; 182  : 	UARTDebugOut("[aurora]: port -> %d \r\n", port);

	ldr         w1,[sp,#4]
	adrp        x8,|$SG3416|
	add         x0,x8,PageOffset(|$SG3416|)
	bl          UARTDebugOut

; 183  : 	UARTDebugOut("UDP Protocol List -> %x \r\n", udp_socket_list);

	adrp        x8,udp_socket_list
	ldr         x1,[x8,PageOffset(udp_socket_list)]
	adrp        x8,|$SG3417|
	add         x0,x8,PageOffset(|$SG3417|)
	bl          UARTDebugOut

; 184  : 
; 185  : 	for (int i = 0; i < udp_socket_list->pointer; i++) {

	mov         w8,#0
	str         w8,[sp]
	b           |$LN4@AuUDPBind|
|$LN2@AuUDPBind|
	ldr         w8,[sp]
	add         w8,w8,#1
	str         w8,[sp]
|$LN4@AuUDPBind|
	adrp        x8,udp_socket_list
	ldr         x8,[x8,PageOffset(udp_socket_list)]
	ldr         w9,[x8]
	ldr         w8,[sp]
	cmp         w8,w9
	bhs         |$LN3@AuUDPBind|

; 186  : 		AuSocket* sock = (AuSocket*)list_get_at(udp_socket_list, i);

	ldr         w1,[sp]
	adrp        x8,udp_socket_list
	ldr         x0,[x8,PageOffset(udp_socket_list)]
	bl          list_get_at
	str         x0,[sp,#0x20]

; 187  : 		if (sock->sessionPort == port)

	ldr         x8,[sp,#0x20]
	add         x8,x8,#0x10
	ldrh        w9,[x8]
	mov         w9,w9
	ldr         w8,[sp,#4]
	cmp         w9,w8
	bne         |$LN6@AuUDPBind|

; 188  : 			return -1;

	mov         w0,#-1
	b           |$LN1@AuUDPBind|
|$LN6@AuUDPBind|

; 189  : 	}

	b           |$LN2@AuUDPBind|
|$LN3@AuUDPBind|

; 190  : 	sock->sessionPort = port;

	ldr         x8,[sp,#8]
	add         x9,x8,#0x10
	ldr         w8,[sp,#4]
	uxth        w8,w8
	strh        w8,[x9]

; 191  : 	list_add(udp_socket_list, sock);

	ldr         x1,[sp,#8]
	adrp        x8,udp_socket_list
	ldr         x0,[x8,PageOffset(udp_socket_list)]
	bl          list_add

; 192  : 	UARTDebugOut("UDP Socket added \r\n");

	adrp        x8,|$SG3419|
	add         x0,x8,PageOffset(|$SG3419|)
	bl          UARTDebugOut

; 193  : 	return 0;

	mov         w0,#0
|$LN1@AuUDPBind|
	add         sp,sp,#0x30
	ldr         lr,[sp],#0x10
	ret

	ENDP  ; |AuUDPBind|

; Function compile flags: /Odtpy
; File C:\Users\paras\source\repos\grep-name\XenevaOS\KernelAA64\Net\udp.c

	AREA	|.text$mn|, CODE, ARM64

|AuUDPClose| PROC

; 163  : void AuUDPClose(AuSocket* sock) {

|$LN3|
	sub         sp,sp,#0x10
	str         x0,[sp]
	add         sp,sp,#0x10
	ret

	ENDP  ; |AuUDPClose|

; Function compile flags: /Odtpy
; File C:\Users\paras\source\repos\grep-name\XenevaOS\KernelAA64\Net\udp.c

	AREA	|.text$mn|, CODE, ARM64

|AuUDPSend| PROC

; 99   : int AuUDPSend(AuSocket* sock, msghdr* msg, int flags) {

|$LN9|
	sub         sp,sp,#0x10
	stp         x19,lr,[sp]
	sub         sp,sp,#0x50
	str         x0,[sp,#0x10]
	str         x1,[sp,#8]
	str         w2,[sp,#0x40]

; 100  : 	UARTDebugOut("[aurora]: UDP: Send -> %d \r\n", sizeof(UDPHeader));

	mov         x1,#8
	adrp        x8,|$SG3381|
	add         x0,x8,PageOffset(|$SG3381|)
	bl          UARTDebugOut

; 101  : 	if (msg->msg_iovlen > 1) {

	ldr         x8,[sp,#8]
	add         x8,x8,#0x18
	ldr         x8,[x8]
	cmp         x8,#1
	bls         |$LN2@AuUDPSend|

; 102  : 		UARTDebugOut("UDP: Multiple IOV is not supported \r\n");

	adrp        x8,|$SG3383|
	add         x0,x8,PageOffset(|$SG3383|)
	bl          UARTDebugOut

; 103  : 		return 1;

	mov         w0,#1
	b           |$LN1@AuUDPSend|
|$LN2@AuUDPSend|

; 104  : 	}
; 105  : 	if (msg->msg_iovlen == 0)

	ldr         x8,[sp,#8]
	add         x8,x8,#0x18
	ldr         x8,[x8]
	cmp         x8,#0
	bne         |$LN3@AuUDPSend|

; 106  : 		return 0;

	mov         w0,#0
	b           |$LN1@AuUDPSend|
|$LN3@AuUDPSend|

; 107  : 	if (msg->msg_namelen != sizeof(sockaddr_in)) {

	ldr         x8,[sp,#8]
	add         x8,x8,#8
	ldr         x8,[x8]
	cmp         x8,#0x10
	beq         |$LN4@AuUDPSend|

; 108  : 		UARTDebugOut("UDP: invalid destination address size \r\n");

	adrp        x8,|$SG3386|
	add         x0,x8,PageOffset(|$SG3386|)
	bl          UARTDebugOut

; 109  : 		return 0;

	mov         w0,#0
	b           |$LN1@AuUDPSend|
|$LN4@AuUDPSend|

; 110  : 	}
; 111  : 
; 112  : 	if (sock->sessionPort == 0) {

	ldr         x8,[sp,#0x10]
	add         x8,x8,#0x10
	ldrh        w8,[x8]
	mov         w8,w8
	cmp         w8,#0
	bne         |$LN5@AuUDPSend|

; 113  : 		UDPGetPort(sock);

	ldr         x0,[sp,#0x10]
	bl          UDPGetPort

; 114  : 		UARTDebugOut("[aurora]:UDP: assigning port %d to socket \r\n", sock->sessionPort);

	ldr         x8,[sp,#0x10]
	add         x8,x8,#0x10
	ldrh        w1,[x8]
	mov         w1,w1
	mov         w1,w1
	adrp        x8,|$SG3388|
	add         x0,x8,PageOffset(|$SG3388|)
	bl          UARTDebugOut
|$LN5@AuUDPSend|

; 115  : 	}
; 116  : 
; 117  : 	sockaddr_in* sockin = (sockaddr_in*)msg->msg_name;

	ldr         x8,[sp,#8]
	ldr         x8,[x8]
	str         x8,[sp,#0x28]

; 118  : 
; 119  : 	AuVFSNode* nic = AuNetworkRoute(sockin->sin_addr.s_addr);

	ldr         x8,[sp,#0x28]
	add         x8,x8,#4
	ldr         w0,[x8]
	bl          AuNetworkRoute
	str         x0,[sp,#0x30]

; 120  : 	if (!nic) {

	ldr         x8,[sp,#0x30]
	cmp         x8,#0
	bne         |$LN6@AuUDPSend|

; 121  : 		UARTDebugOut("[aurora]:UDP: Failed to route address \r\n");

	adrp        x8,|$SG3390|
	add         x0,x8,PageOffset(|$SG3390|)
	bl          UARTDebugOut

; 122  : 		return 0;

	mov         w0,#0
	b           |$LN1@AuUDPSend|
|$LN6@AuUDPSend|

; 123  : 	}
; 124  : 	AuNetworkDevice* netdev = (AuNetworkDevice*)nic->device;

	ldr         x8,[sp,#0x30]
	add         x8,x8,#0x50
	ldr         x8,[x8]
	str         x8,[sp,#0x38]

; 125  : 	if (!netdev) {

	ldr         x8,[sp,#0x38]
	cmp         x8,#0
	bne         |$LN7@AuUDPSend|

; 126  : 		UARTDebugOut("[aurora]: UDP: No network device found \r\n");

	adrp        x8,|$SG3392|
	add         x0,x8,PageOffset(|$SG3392|)
	bl          UARTDebugOut

; 127  : 		return 0;

	mov         w0,#0
	b           |$LN1@AuUDPSend|
|$LN7@AuUDPSend|

; 128  : 	}
; 129  : 
; 130  : 	size_t total_len = sizeof(IPv4Header) + msg->msg_iov[0].iov_len + sizeof(UDPHeader);

	ldr         x8,[sp,#8]
	add         x8,x8,#0x10
	ldr         x8,[x8]
	add         x8,x8,#8
	ldr         x8,[x8]
	add         x8,x8,#0x1C
	str         x8,[sp,#0x20]

; 131  : 
; 132  : 	IPv4Header* ipv4 = (IPv4Header*)kmalloc(total_len);

	ldr         x8,[sp,#0x20]
	mov         w0,w8
	mov         w0,w0
	bl          kmalloc
	str         x0,[sp]

; 133  : 	memset(ipv4, 0, total_len);

	ldr         x8,[sp,#0x20]
	mov         w2,w8
	mov         w2,w2
	mov         w1,#0
	ldr         x0,[sp]
	bl          memset

; 134  : 	ipv4->totalLength = htons(total_len);

	ldr         x8,[sp,#0x20]
	and         x8,x8,#0xFF
	lsl         x9,x8,#8
	ldr         x8,[sp,#0x20]
	and         x8,x8,#0xFF00
	lsr         x8,x8,#8
	orr         x10,x9,x8
	ldr         x8,[sp]
	add         x9,x8,#2
	uxth        w8,w10
	strh        w8,[x9]

; 135  : 	ipv4->destAddress = sockin->sin_addr.s_addr;

	ldr         x8,[sp,#0x28]
	add         x10,x8,#4
	ldr         x8,[sp]
	add         x9,x8,#0x10
	ldr         w8,[x10]
	str         w8,[x9]

; 136  : 	ipv4->srcAddress = netdev->ipv4addr;

	ldr         x8,[sp,#0x38]
	add         x10,x8,#0x10
	ldr         x8,[sp]
	add         x9,x8,#0xC
	ldr         w8,[x10]
	str         w8,[x9]

; 137  : 	ipv4->timeToLive = 64;

	ldr         x8,[sp]
	add         x9,x8,#8
	mov         w8,#0x40
	strb        w8,[x9]

; 138  : 	ipv4->protocol = IPV4_PROTOCOL_UDP;

	ldr         x8,[sp]
	add         x9,x8,#9
	mov         w8,#0x11
	strb        w8,[x9]

; 139  : 	ipv4->identification = 0;

	ldr         x8,[sp]
	add         x9,x8,#4
	mov         w8,#0
	strh        w8,[x9]

; 140  : 	ipv4->flagsFragOffset = htons(0x4000);

	ldr         x8,[sp]
	add         x9,x8,#6
	mov         w8,#0x40
	strh        w8,[x9]

; 141  : 	ipv4->versionHeaderLen = 0x45;

	ldr         x9,[sp]
	mov         w8,#0x45
	strb        w8,[x9]

; 142  : 	ipv4->typeOfService = 0;

	ldr         x8,[sp]
	add         x9,x8,#1
	mov         w8,#0
	strb        w8,[x9]

; 143  : 	ipv4->headerChecksum = 0;

	ldr         x8,[sp]
	add         x9,x8,#0xA
	mov         w8,#0
	strh        w8,[x9]

; 144  : 	ipv4->headerChecksum = htons(IPv4CalculateChecksum(ipv4));

	ldr         x0,[sp]
	bl          IPv4CalculateChecksum
	uxth        w8,w0
	mov         w8,w8
	and         w8,w8,#0xFF
	lsl         w19,w8,#8
	ldr         x0,[sp]
	bl          IPv4CalculateChecksum
	uxth        w8,w0
	mov         w8,w8
	and         w8,w8,#0xFF00
	asr         w8,w8,#8
	orr         w10,w19,w8
	ldr         x8,[sp]
	add         x9,x8,#0xA
	uxth        w8,w10
	strh        w8,[x9]

; 145  : 
; 146  : 	UDPHeader* udp = (UDPHeader*)&ipv4->payload;

	ldr         x8,[sp]
	add         x8,x8,#0x14
	str         x8,[sp,#0x18]

; 147  : 	udp->srcPort = htons(sock->sessionPort);

	ldr         x8,[sp,#0x10]
	add         x8,x8,#0x10
	ldrh        w8,[x8]
	mov         w8,w8
	and         w8,w8,#0xFF
	lsl         w9,w8,#8
	ldr         x8,[sp,#0x10]
	add         x8,x8,#0x10
	ldrh        w8,[x8]
	mov         w8,w8
	and         w8,w8,#0xFF00
	asr         w8,w8,#8
	orr         w8,w9,w8
	ldr         x9,[sp,#0x18]
	uxth        w8,w8
	strh        w8,[x9]

; 148  : 	udp->destPort = sockin->sin_port;

	ldr         x8,[sp,#0x28]
	add         x10,x8,#2
	ldr         x8,[sp,#0x18]
	add         x9,x8,#2
	ldrh        w8,[x10]
	strh        w8,[x9]

; 149  : 	udp->length = htons(sizeof(UDPHeader) + msg->msg_iov[0].iov_len);

	ldr         x8,[sp,#8]
	add         x8,x8,#0x10
	ldr         x8,[x8]
	add         x8,x8,#8
	ldr         x8,[x8]
	add         x8,x8,#8
	and         x8,x8,#0xFF
	lsl         x9,x8,#8
	ldr         x8,[sp,#8]
	add         x8,x8,#0x10
	ldr         x8,[x8]
	add         x8,x8,#8
	ldr         x8,[x8]
	add         x8,x8,#8
	and         x8,x8,#0xFF00
	lsr         x8,x8,#8
	orr         x10,x9,x8
	ldr         x8,[sp,#0x18]
	add         x9,x8,#4
	uxth        w8,w10
	strh        w8,[x9]

; 150  : 	udp->checksum = 0;

	ldr         x8,[sp,#0x18]
	add         x9,x8,#6
	mov         w8,#0
	strh        w8,[x9]

; 151  : 
; 152  : 	memcpy(&udp->payload, msg->msg_iov[0].iov_base, msg->msg_iov[0].iov_len);

	ldr         x8,[sp,#8]
	add         x8,x8,#0x10
	ldr         x8,[x8]
	add         x10,x8,#8
	ldr         x8,[sp,#8]
	add         x8,x8,#0x10
	ldr         x9,[x8]
	ldr         x8,[sp,#0x18]
	add         x0,x8,#8
	ldr         x2,[x10]
	ldr         x1,[x9]
	bl          memcpy

; 153  : 
; 154  : 	IPV4SendPacket(ipv4, nic);

	ldr         x1,[sp,#0x30]
	ldr         x0,[sp]
	bl          IPV4SendPacket

; 155  : 	kfree(ipv4);

	ldr         x0,[sp]
	bl          kfree

; 156  : 	return msg->msg_iov[0].iov_len;

	ldr         x8,[sp,#8]
	add         x8,x8,#0x10
	ldr         x8,[x8]
	add         x8,x8,#8
	ldr         x8,[x8]
	mov         w0,w8
	mov         w0,w0
|$LN1@AuUDPSend|
	add         sp,sp,#0x50
	ldp         x19,lr,[sp]
	add         sp,sp,#0x10
	ret

	ENDP  ; |AuUDPSend|

; Function compile flags: /Odtpy
; File C:\Users\paras\source\repos\grep-name\XenevaOS\KernelAA64\Net\udp.c

	AREA	|.text$mn|, CODE, ARM64

|AuUDPReceive| PROC

; 57   : int AuUDPReceive(AuSocket* sock, msghdr* msg, int flags) {

|$LN9|
	str         lr,[sp,#-0x10]!
	sub         sp,sp,#0x30
	str         x0,[sp,#0x20]
	str         x1,[sp,#8]
	str         w2,[sp,#4]

; 58   : 	if (sock->sessionPort == 0)

	ldr         x8,[sp,#0x20]
	add         x8,x8,#0x10
	ldrh        w8,[x8]
	mov         w8,w8
	cmp         w8,#0
	bne         |$LN2@AuUDPRecei|

; 59   : 		return -1;

	mov         w0,#-1
	b           |$LN1@AuUDPRecei|
|$LN2@AuUDPRecei|

; 60   : 
; 61   : 	if (msg->msg_iovlen > 1) {

	ldr         x8,[sp,#8]
	add         x8,x8,#0x18
	ldr         x8,[x8]
	cmp         x8,#1
	bls         |$LN3@AuUDPRecei|

; 62   : 		UARTDebugOut("[aurora]: UDP-net: Multiple iov is not supported \r\n");

	adrp        x8,|$SG3351|
	add         x0,x8,PageOffset(|$SG3351|)
	bl          UARTDebugOut

; 63   : 		return -1;

	mov         w0,#-1
	b           |$LN1@AuUDPRecei|
|$LN3@AuUDPRecei|

; 64   : 	}
; 65   : 
; 66   : 	if (msg->msg_iovlen == 0)

	ldr         x8,[sp,#8]
	add         x8,x8,#0x18
	ldr         x8,[x8]
	cmp         x8,#0
	bne         |$LN4@AuUDPRecei|

; 67   : 		return 0;

	mov         w0,#0
	b           |$LN1@AuUDPRecei|
|$LN4@AuUDPRecei|

; 68   : 
; 69   : 	char* packet = (char*)AuSocketGet(sock);

	ldr         x0,[sp,#0x20]
	bl          AuSocketGet
	str         x0,[sp,#0x18]

; 70   : 	if (!packet) return -1;

	ldr         x8,[sp,#0x18]
	cmp         x8,#0
	bne         |$LN5@AuUDPRecei|
	mov         w0,#-1
	b           |$LN1@AuUDPRecei|
|$LN5@AuUDPRecei|

; 71   : 	IPv4Header* ipv4 = (IPv4Header*)(packet + sizeof(size_t));

	ldr         x8,[sp,#0x18]
	add         x8,x8,#8
	str         x8,[sp,#0x10]

; 72   : 	UDPHeader* udp = (UDPHeader*)&ipv4->payload;

	ldr         x8,[sp,#0x10]
	add         x8,x8,#0x14
	str         x8,[sp,#0x28]

; 73   : 
; 74   : 	UARTDebugOut("[aurora]: UDP: Got Response %d \r\n", ntohs(ipv4->totalLength));

	ldr         x8,[sp,#0x10]
	add         x8,x8,#2
	ldrh        w8,[x8]
	mov         w8,w8
	and         w8,w8,#0xFF
	lsl         w9,w8,#8
	ldr         x8,[sp,#0x10]
	add         x8,x8,#2
	ldrh        w8,[x8]
	mov         w8,w8
	and         w8,w8,#0xFF00
	asr         w8,w8,#8
	orr         w1,w9,w8
	mov         w1,w1
	adrp        x8,|$SG3354|
	add         x0,x8,PageOffset(|$SG3354|)
	bl          UARTDebugOut

; 75   : 	memcpy(msg->msg_iov[0].iov_base, udp->payload, ntohs(ipv4->totalLength) - sizeof(IPv4Header) -

	ldr         x8,[sp,#0x10]
	add         x8,x8,#2
	ldrh        w8,[x8]
	mov         w8,w8
	and         w8,w8,#0xFF
	lsl         w9,w8,#8
	ldr         x8,[sp,#0x10]
	add         x8,x8,#2
	ldrh        w8,[x8]
	mov         w8,w8
	and         w8,w8,#0xFF00
	asr         w8,w8,#8
	orr         w8,w9,w8
	sxtw        x8,w8
	sub         x8,x8,#0x14
	sub         x2,x8,#8
	ldr         x8,[sp,#0x28]
	add         x1,x8,#8
	ldr         x8,[sp,#8]
	add         x8,x8,#0x10
	ldr         x8,[x8]
	ldr         x0,[x8]
	bl          memcpy

; 76   : 		sizeof(UDPHeader));
; 77   : 
; 78   : 	if (msg->msg_namelen == sizeof(sockaddr_in)) {

	ldr         x8,[sp,#8]
	add         x8,x8,#8
	ldr         x8,[x8]
	cmp         x8,#0x10
	bne         |$LN6@AuUDPRecei|

; 79   : 		if (msg->msg_name) {

	ldr         x8,[sp,#8]
	ldr         x8,[x8]
	cmp         x8,#0
	beq         |$LN7@AuUDPRecei|

; 80   : 			((sockaddr_in*)msg->msg_name)->sin_family = AF_INET;

	ldr         x8,[sp,#8]
	ldr         x9,[x8]
	mov         w8,#1
	strh        w8,[x9]

; 81   : 			((sockaddr_in*)msg->msg_name)->sin_port = udp->srcPort;

	ldr         x10,[sp,#0x28]
	ldr         x8,[sp,#8]
	ldr         x8,[x8]
	add         x9,x8,#2
	ldrh        w8,[x10]
	strh        w8,[x9]

; 82   : 			((sockaddr_in*)msg->msg_name)->sin_addr.s_addr = ipv4->srcAddress;

	ldr         x8,[sp,#0x10]
	add         x10,x8,#0xC
	ldr         x8,[sp,#8]
	ldr         x8,[x8]
	add         x9,x8,#4
	ldr         w8,[x10]
	str         w8,[x9]
|$LN7@AuUDPRecei|
|$LN6@AuUDPRecei|

; 83   : 		}
; 84   : 	}
; 85   : 
; 86   : 	long len = ntohs(ipv4->totalLength) - sizeof(IPv4Header) - sizeof(UDPHeader);

	ldr         x8,[sp,#0x10]
	add         x8,x8,#2
	ldrh        w8,[x8]
	mov         w8,w8
	and         w8,w8,#0xFF
	lsl         w9,w8,#8
	ldr         x8,[sp,#0x10]
	add         x8,x8,#2
	ldrh        w8,[x8]
	mov         w8,w8
	and         w8,w8,#0xFF00
	asr         w8,w8,#8
	orr         w8,w9,w8
	sxtw        x8,w8
	sub         x8,x8,#0x14
	sub         x8,x8,#8
	mov         w8,w8
	str         w8,[sp]

; 87   : 	kfree(packet);

	ldr         x0,[sp,#0x18]
	bl          kfree

; 88   : 	return len;

	ldr         w0,[sp]
	b           |$LN1@AuUDPRecei|

; 89   : 	return 0;

	mov         w0,#0
|$LN1@AuUDPRecei|
	add         sp,sp,#0x30
	ldr         lr,[sp],#0x10
	ret

	ENDP  ; |AuUDPReceive|

; Function compile flags: /Odtpy
; File C:\Users\paras\source\repos\grep-name\XenevaOS\KernelAA64\Net\udp.c

	AREA	|.text$mn|, CODE, ARM64

|UDPGetPort| PROC

; 45   : int UDPGetPort(AuSocket* sock) {

|$LN3|
	str         lr,[sp,#-0x10]!
	sub         sp,sp,#0x10
	str         x0,[sp,#8]

; 46   : 	int out = _udp_port++;

	adrp        x8,_udp_port
	ldr         w8,[x8,PageOffset(_udp_port)]
	str         w8,[sp]
	adrp        x8,_udp_port
	ldr         w8,[x8,PageOffset(_udp_port)]
	add         w9,w8,#1
	adrp        x8,_udp_port
	str         w9,[x8,PageOffset(_udp_port)]

; 47   : 	sock->sessionPort = _udp_port;

	ldr         x8,[sp,#8]
	add         x9,x8,#0x10
	adrp        x8,_udp_port
	ldr         w8,[x8,PageOffset(_udp_port)]
	uxth        w8,w8
	strh        w8,[x9]

; 48   : 	list_add(udp_socket_list, sock);

	ldr         x1,[sp,#8]
	adrp        x8,udp_socket_list
	ldr         x0,[x8,PageOffset(udp_socket_list)]
	bl          list_add

; 49   : 	return out;

	ldr         w0,[sp]
	add         sp,sp,#0x10
	ldr         lr,[sp],#0x10
	ret

	ENDP  ; |UDPGetPort|

; Function compile flags: /Odtpy
; File C:\Users\paras\source\repos\grep-name\XenevaOS\KernelAA64\Net\udp.c

	AREA	|.text$mn|, CODE, ARM64

|UDPProtocolGetSockList| PROC

; 277  : 	return udp_socket_list;

	adrp        x8,udp_socket_list
	ldr         x0,[x8,PageOffset(udp_socket_list)]
	ret

	ENDP  ; |UDPProtocolGetSockList|

; Function compile flags: /Odtpy
; File C:\Users\paras\source\repos\grep-name\XenevaOS\KernelAA64\Net\udp.c

	AREA	|.text$mn|, CODE, ARM64

|UDPProtocolInstall| PROC

; 268  : void UDPProtocolInstall() {

|$LN3|
	str         lr,[sp,#-0x10]!

; 269  : 	udp_socket_list = initialize_list();

	bl          initialize_list
	adrp        x8,udp_socket_list
	str         x0,[x8,PageOffset(udp_socket_list)]
	ldr         lr,[sp],#0x10
	ret

	ENDP  ; |UDPProtocolInstall|

; Function compile flags: /Odtpy
; File C:\Users\paras\source\repos\grep-name\XenevaOS\KernelAA64\Net\udp.c

	AREA	|.text$mn|, CODE, ARM64

|CreateUDPSocket| PROC

; 236  : int CreateUDPSocket() {

|$LN6|
	str         lr,[sp,#-0x10]!
	sub         sp,sp,#0x30

; 237  : 	int fd = -1;

	mov         w8,#-1
	str         w8,[sp]

; 238  : 	AA64Thread* thread = AuGetCurrentThread();

	bl          AuGetCurrentThread
	str         x0,[sp,#0x20]

; 239  : 	if (!thread)

	ldr         x8,[sp,#0x20]
	cmp         x8,#0
	bne         |$LN2@CreateUDPS|

; 240  : 		return -1;

	mov         w0,#-1
	b           |$LN1@CreateUDPS|
|$LN2@CreateUDPS|

; 241  : 	AuProcess* proc = AuProcessFindThread(thread);

	ldr         x0,[sp,#0x20]
	bl          AuProcessFindThread
	str         x0,[sp,#0x18]

; 242  : 	if (!proc)

	ldr         x8,[sp,#0x18]
	cmp         x8,#0
	bne         |$LN3@CreateUDPS|

; 243  : 		proc = AuProcessFindSubThread(thread);

	ldr         x0,[sp,#0x20]
	bl          AuProcessFindSubThread
	str         x0,[sp,#0x18]
|$LN3@CreateUDPS|

; 244  : 	if (!proc)

	ldr         x8,[sp,#0x18]
	cmp         x8,#0
	bne         |$LN4@CreateUDPS|

; 245  : 		return -1;

	mov         w0,#-1
	b           |$LN1@CreateUDPS|
|$LN4@CreateUDPS|

; 246  : 	AuSocket* sock = AuNetCreateSocket();

	bl          AuNetCreateSocket
	str         x0,[sp,#0x10]

; 247  : 	fd = AuProcessGetFileDesc(proc);

	ldr         x0,[sp,#0x18]
	bl          AuProcessGetFileDesc
	mov         w0,w0
	str         w0,[sp]

; 248  : 	sock->bind = AuUDPBind;

	ldr         x8,[sp,#0x10]
	add         x9,x8,#0x40
	adrp        x8,AuUDPBind
	add         x8,x8,PageOffset(AuUDPBind)
	str         x8,[x9]

; 249  : 	sock->close = AuUDPClose;

	ldr         x8,[sp,#0x10]
	add         x9,x8,#0x30
	adrp        x8,AuUDPClose
	add         x8,x8,PageOffset(AuUDPClose)
	str         x8,[x9]

; 250  : 	sock->connect = 0;

	ldr         x8,[sp,#0x10]
	add         x9,x8,#0x38
	mov         x8,#0
	str         x8,[x9]

; 251  : 	sock->receive = AuUDPReceive;

	ldr         x8,[sp,#0x10]
	add         x9,x8,#0x20
	adrp        x8,AuUDPReceive
	add         x8,x8,PageOffset(AuUDPReceive)
	str         x8,[x9]

; 252  : 	sock->send = AuUDPSend;

	ldr         x8,[sp,#0x10]
	add         x9,x8,#0x28
	adrp        x8,AuUDPSend
	add         x8,x8,PageOffset(AuUDPSend)
	str         x8,[x9]

; 253  : 	AuVFSNode* node = (AuVFSNode*)kmalloc(sizeof(AuVFSNode));

	mov         w0,#0xD0
	bl          kmalloc
	str         x0,[sp,#8]

; 254  : 	memset(node, 0, sizeof(AuVFSNode));

	mov         w2,#0xD0
	mov         w1,#0
	ldr         x0,[sp,#8]
	bl          memset

; 255  : 	strcpy(node->filename, "udp");

	ldr         x0,[sp,#8]
	adrp        x8,|$SG3473|
	add         x1,x8,PageOffset(|$SG3473|)
	bl          strcpy

; 256  : 	node->flags |= FS_FLAG_SOCKET;

	ldr         x8,[sp,#8]
	add         x8,x8,#0x40
	ldrh        w8,[x8]
	mov         w8,w8
	orr         w10,w8,#0x200
	ldr         x8,[sp,#8]
	add         x9,x8,#0x40
	uxth        w8,w10
	strh        w8,[x9]

; 257  : 	node->device = sock;

	ldr         x8,[sp,#8]
	add         x9,x8,#0x50
	ldr         x8,[sp,#0x10]
	str         x8,[x9]

; 258  : 	node->close = AuUDPFileClose;

	ldr         x8,[sp,#8]
	add         x9,x8,#0xA0
	adrp        x8,AuUDPFileClose
	add         x8,x8,PageOffset(AuUDPFileClose)
	str         x8,[x9]

; 259  : 	node->iocontrol = SocketIOControl;

	ldr         x8,[sp,#8]
	add         x9,x8,#0xC8
	adrp        x8,SocketIOControl
	add         x8,x8,PageOffset(SocketIOControl)
	str         x8,[x9]

; 260  : 	proc->fds[fd] = node;

	ldr         x8,[sp,#0x18]
	add         x10,x8,#0x248
	ldr         w8,[sp]
	sxtw        x9,w8
	mov         x8,#8
	mul         x8,x9,x8
	add         x9,x10,x8
	ldr         x8,[sp,#8]
	str         x8,[x9]

; 261  : 	UARTDebugOut("[aurora]: UDP Socket created \r\n");

	adrp        x8,|$SG3474|
	add         x0,x8,PageOffset(|$SG3474|)
	bl          UARTDebugOut

; 262  : 	return fd;

	ldr         w0,[sp]
|$LN1@CreateUDPS|
	add         sp,sp,#0x30
	ldr         lr,[sp],#0x10
	ret

	ENDP  ; |CreateUDPSocket|

	END
