; Listing generated by Microsoft (R) Optimizing Compiler Version 19.29.30159.0 

	TTL	C:\Users\paras\source\repos\grep-name\XenevaOS\KernelAA64\ARM64\Debug\vdisk.obj
	ARM64

	AREA	|.drectve|, DRECTVE


	AREA	|.data|, DATA
	 COMMON	|VdiskArray|, 0xd0

	 COMMON	|_vdisk_num_|, 0x4

	EXPORT	|AuVDiskInitialise|
	EXPORT	|AuVDiskGetIndex|
	EXPORT	|AuVDiskRegister|
	EXPORT	|AuCreateVDisk|
	EXPORT	|AuVDiskRead|
	EXPORT	|AuVDiskWrite|
	EXPORT	|AuVDiskDestroy|
	EXPORT	|AuGetVDiskInfo|
	EXPORT	|AuGetVDiskPartitionInfo|
	EXPORT	|AuVDiskCreateStorageFile|
	EXPORT	|AuGetVDisk|
	EXPORT	|AuVDiskRegisterPartition|
	IMPORT	|AuVFSReserveMountPointLetter|
	IMPORT	|AuVFSFind|
	IMPORT	|kmalloc|
	IMPORT	|kfree|
	IMPORT	|AuTextOut|
	IMPORT	|AuPmmngrAlloc|
	IMPORT	|AuPmmngrFree|
	IMPORT	|strcmp|
	IMPORT	|strcpy|
	IMPORT	|strlen|
	IMPORT	|memset|
	IMPORT	|sztoa|
	IMPORT	|AuDevFSCreateFile|
	IMPORT	|UARTDebugOut|
	IMPORT	|AuProbeFileSystem|
	IMPORT	|FatInitialise|

	AREA	|.pdata|, PDATA
|$pdata$AuVDiskInitialise| DCD imagerel |$LN6|
	DCD	0x1200079
	;Flags[SingleProEpi] functionLength[120] RegF[0] RegI[0] H[0] frameChainReturn[UnChainedSavedLR] frameSize[32]
|$pdata$AuVDiskGetIndex| DCD imagerel |$LN7|
	DCD	0x80006d
	;Flags[SingleProEpi] functionLength[108] RegF[0] RegI[0] H[0] frameChainReturn[UnChained] frameSize[16]
|$pdata$AuVDiskRegister| DCD imagerel |$LN17|
	DCD	0x1a00189
	;Flags[SingleProEpi] functionLength[392] RegF[0] RegI[0] H[0] frameChainReturn[UnChainedSavedLR] frameSize[48]
|$pdata$AuCreateVDisk| DCD imagerel |$LN3|
	DCD	0x1200035
	;Flags[SingleProEpi] functionLength[52] RegF[0] RegI[0] H[0] frameChainReturn[UnChainedSavedLR] frameSize[32]
|$pdata$AuVDiskRead| DCD imagerel |$LN4|
	DCD	0x1a00079
	;Flags[SingleProEpi] functionLength[120] RegF[0] RegI[0] H[0] frameChainReturn[UnChainedSavedLR] frameSize[48]
|$pdata$AuVDiskWrite| DCD imagerel |$LN4|
	DCD	0x1a00079
	;Flags[SingleProEpi] functionLength[120] RegF[0] RegI[0] H[0] frameChainReturn[UnChainedSavedLR] frameSize[48]
|$pdata$AuVDiskDestroy| DCD imagerel |$LN7|
	DCD	0x1a000bd
	;Flags[SingleProEpi] functionLength[188] RegF[0] RegI[0] H[0] frameChainReturn[UnChainedSavedLR] frameSize[48]
|$pdata$AuGetVDiskInfo| DCD imagerel |$LN5|
	DCD	0x1a000f5
	;Flags[SingleProEpi] functionLength[244] RegF[0] RegI[0] H[0] frameChainReturn[UnChainedSavedLR] frameSize[48]
|$pdata$AuGetVDiskPartitionInfo| DCD imagerel |$LN12|
	DCD	0x2200229
	;Flags[SingleProEpi] functionLength[552] RegF[0] RegI[0] H[0] frameChainReturn[UnChainedSavedLR] frameSize[64]
|$pdata$AuVDiskCreateStorageFile| DCD imagerel |$LN3|
	DCD	0x3a00179
	;Flags[SingleProEpi] functionLength[376] RegF[0] RegI[0] H[0] frameChainReturn[UnChainedSavedLR] frameSize[112]
|$pdata$AuGetVDisk| DCD imagerel |$LN3|
	DCD	0x800031
	;Flags[SingleProEpi] functionLength[48] RegF[0] RegI[0] H[0] frameChainReturn[UnChained] frameSize[16]
|$pdata$AuVDiskRegisterPartition| DCD imagerel |$LN24|
	DCD	0x32004a5
	;Flags[SingleProEpi] functionLength[1188] RegF[0] RegI[0] H[0] frameChainReturn[UnChainedSavedLR] frameSize[96]

	AREA	|.data|, DATA
|$SG3283| DCB	"[aurora]: virtual disk system initialized ", 0xd, 0xa, 0x0
	%	3
|$SG3294| DCB	"disk", 0x0
	%	3
|$SG3295| DCB	"/dev/", 0x0
	%	2
|$SG3296| DCB	"/dev", 0x0
	%	3
|$SG3368| DCB	"EFI PART", 0x0
	%	3
|$SG3370| DCB	"%c", 0x0
	%	1
|$SG3369| DCB	"[aurora]: vdisk %s doesn't have valid GPT partition ", 0xd
	DCB	0xa, 0x0
	%	1
|$SG3372| DCB	"%c", 0x0
	%	1
|$SG3373| DCB	0xd, 0xa, 0x0
	%	1
|$SG3374| DCB	"VDisk partition created startLBA -> %d ", 0xd, 0xa, 0x0
	%	2
|$SG3377| DCB	"%x", 0x0
	%	1
|$SG3375| DCB	"vDisk partition guid : ", 0x0
|$SG3376| DCB	"0x%x-0x%x-0x%x-0x", 0x0
	%	2
|$SG3378| DCB	0xd, 0xa, 0x0
	%	1
|$SG3379| DCB	0xd, 0xa, 0x0
	%	1
|$SG3397| DCB	"/a", 0x0
	%	1
|$SG3389| DCB	"[aurora]: vdisk registered name : %s, serial : %s ", 0xd
	DCB	0xa, 0x0
	%	3
|$SG3390| DCB	"type : %d ", 0xd, 0xa, 0x0
	%	3
|$SG3392| DCB	"[aurora]: vdisk : %s, has NTFS file system ", 0xd, 0xa, 0x0
	%	2
|$SG3394| DCB	"[aurora]: vdisk : %s, has FAT32 file system ", 0xd, 0xa, 0x0
	%	1
|$SG3398| DCB	"/", 0x0
	%	6
|$SG3400| DCB	"[aurora]: vdisk : %s has FAT16 file system ", 0xd, 0xa, 0x0
	%	2
|$SG3402| DCB	"[aurora]: vdisk : %s has Ext2 file system ", 0xd, 0xa, 0x0
; Function compile flags: /Odtpy
; File C:\Users\paras\source\repos\grep-name\XenevaOS\KernelAA64\Fs\vdisk.c

	AREA	|.text$mn|, CODE, ARM64

|AuVDiskRegisterPartition| PROC

; 153  : void AuVDiskRegisterPartition(AuVDisk* vdisk) {

|$LN24|
	str         lr,[sp,#-0x10]!
	sub         sp,sp,#0x50
	str         x0,[sp]

; 154  : 	uint64_t* buffer = (uint64_t*)AuPmmngrAlloc();

	bl          AuPmmngrAlloc
	str         x0,[sp,#0x28]

; 155  : 	memset(buffer, 0, 4096);

	mov         w2,#0x1000
	mov         w1,#0
	ldr         x0,[sp,#0x28]
	bl          memset

; 156  : 	if (!vdisk->Read)

	ldr         x8,[sp]
	add         x8,x8,#0xB8
	ldr         x8,[x8]
	cmp         x8,#0
	bne         |$LN20@AuVDiskReg|

; 157  : 		return;

	b           |$LN1@AuVDiskReg|
|$LN20@AuVDiskReg|

; 158  : 	vdisk->Read(vdisk, 1, 1, buffer);

	ldr         x8,[sp]
	add         x8,x8,#0xB8
	ldr         x3,[sp,#0x28]
	mov         w2,#1
	mov         x1,#1
	ldr         x0,[sp]
	ldr         x8,[x8]
	blr         x8

; 159  : 	uint8_t* aligned_buf = (uint8_t*)buffer;

	ldr         x8,[sp,#0x28]
	str         x8,[sp,#0x38]

; 160  : 
; 161  : 	GPTHeader* header = (GPTHeader*)aligned_buf;

	ldr         x8,[sp,#0x38]
	str         x8,[sp,#0x30]

; 162  : 
; 163  : 	/* check if it's Efi partition */
; 164  : 	if (strcmp(header->sig, "EFI PART") != 0) {

	ldr         x0,[sp,#0x30]
	adrp        x8,|$SG3368|
	add         x1,x8,PageOffset(|$SG3368|)
	bl          strcmp
	mov         w0,w0
	cmp         w0,#0
	beq         |$LN21@AuVDiskReg|

; 165  : 		AuTextOut("[aurora]: vdisk %s doesn't have valid GPT partition \r\n", vdisk->diskname);

	ldr         x1,[sp]
	adrp        x8,|$SG3369|
	add         x0,x8,PageOffset(|$SG3369|)
	bl          AuTextOut

; 166  : 		return;

	b           |$LN1@AuVDiskReg|
|$LN21@AuVDiskReg|

; 167  : 	}
; 168  : 	for (int i = 0; i < 8; i++)

	mov         w8,#0
	str         w8,[sp,#0x18]
	b           |$LN4@AuVDiskReg|
|$LN2@AuVDiskReg|
	ldr         w8,[sp,#0x18]
	add         w8,w8,#1
	str         w8,[sp,#0x18]
|$LN4@AuVDiskReg|
	ldr         w8,[sp,#0x18]
	cmp         w8,#8
	bge         |$LN3@AuVDiskReg|

; 169  : 		UARTDebugOut("%c", aligned_buf[i]);

	ldr         w8,[sp,#0x18]
	sxtw        x9,w8
	mov         x8,#1
	mul         x9,x9,x8
	ldr         x8,[sp,#0x38]
	add         x8,x8,x9
	ldrb        w1,[x8]
	mov         w1,w1
	mov         w1,w1
	adrp        x8,|$SG3370|
	add         x0,x8,PageOffset(|$SG3370|)
	bl          UARTDebugOut
	b           |$LN2@AuVDiskReg|
|$LN3@AuVDiskReg|

; 170  : 
; 171  : 	uint64_t part_lba = header->part_table_lba;

	ldr         x8,[sp,#0x30]
	add         x8,x8,#0x48
	ldr         x8,[x8]
	str         x8,[sp,#0x40]

; 172  : 	vdisk->num_partition = header->num_part_entries;

	ldr         x8,[sp,#0x30]
	add         x10,x8,#0x50
	ldr         x8,[sp]
	add         x9,x8,#0x79
	ldr         w8,[x10]
	uxtb        w8,w8
	strb        w8,[x9]

; 173  : 	for (int i = 0; i < header->num_part_entries; i++) {

	mov         w8,#0
	str         w8,[sp,#0x24]
	b           |$LN7@AuVDiskReg|
|$LN5@AuVDiskReg|
	ldr         w8,[sp,#0x24]
	add         w8,w8,#1
	str         w8,[sp,#0x24]
|$LN7@AuVDiskReg|
	ldr         x8,[sp,#0x30]
	add         x8,x8,#0x50
	ldr         w9,[x8]
	ldr         w8,[sp,#0x24]
	cmp         w8,w9
	bhs         |$LN6@AuVDiskReg|

; 174  : 		memset(buffer, 0, 4096);

	mov         w2,#0x1000
	mov         w1,#0
	ldr         x0,[sp,#0x28]
	bl          memset

; 175  : 		vdisk->Read(vdisk, part_lba, 1, buffer);

	ldr         x8,[sp]
	add         x8,x8,#0xB8
	ldr         x3,[sp,#0x28]
	mov         w2,#1
	ldr         x1,[sp,#0x40]
	ldr         x0,[sp]
	ldr         x8,[x8]
	blr         x8

; 176  : 		aligned_buf = (uint8_t*)buffer;

	ldr         x8,[sp,#0x28]
	str         x8,[sp,#0x38]

; 177  : 		GPTPartition* part = (GPTPartition*)aligned_buf;

	ldr         x8,[sp,#0x38]
	str         x8,[sp,#0x10]

; 178  : 		if (part->first_lba != 0) {

	ldr         x8,[sp,#0x10]
	add         x8,x8,#0x20
	ldr         x8,[x8]
	cmp         x8,#0
	beq         |$LN22@AuVDiskReg|

; 179  : 			vdisk->startingLBA = part->first_lba;

	ldr         x8,[sp,#0x10]
	add         x10,x8,#0x20
	ldr         x8,[sp]
	add         x9,x8,#0x80
	ldr         x8,[x10]
	str         x8,[x9]

; 180  : 			vdisk->currentLBA = vdisk->startingLBA;

	ldr         x8,[sp]
	add         x10,x8,#0x80
	ldr         x8,[sp]
	add         x9,x8,#0x88
	ldr         x8,[x10]
	str         x8,[x9]

; 181  : 			vdisk->num_partition = 1;

	ldr         x8,[sp]
	add         x9,x8,#0x79
	mov         w8,#1
	strb        w8,[x9]

; 182  : 			vdisk->part_guid.Data1 = part->part_guid.Data1;

	ldr         x10,[sp,#0x10]
	ldr         x8,[sp]
	add         x9,x8,#0x90
	ldr         w8,[x10]
	str         w8,[x9]

; 183  : 			vdisk->part_guid.Data2 = part->part_guid.Data2;

	ldr         x8,[sp,#0x10]
	add         x10,x8,#4
	ldr         x8,[sp]
	add         x9,x8,#0x94
	ldrh        w8,[x10]
	strh        w8,[x9]

; 184  : 			vdisk->part_guid.Data3 = part->part_guid.Data3;

	ldr         x8,[sp,#0x10]
	add         x10,x8,#6
	ldr         x8,[sp]
	add         x9,x8,#0x96
	ldrh        w8,[x10]
	strh        w8,[x9]

; 185  : 			for (int m = 0; m < 8; m++)

	mov         w8,#0
	str         w8,[sp,#8]
	b           |$LN10@AuVDiskReg|
|$LN8@AuVDiskReg|
	ldr         w8,[sp,#8]
	add         w8,w8,#1
	str         w8,[sp,#8]
|$LN10@AuVDiskReg|
	ldr         w8,[sp,#8]
	cmp         w8,#8
	bge         |$LN9@AuVDiskReg|

; 186  : 				vdisk->part_guid.Data4[m] = part->part_guid.Data4[m];

	ldr         x8,[sp,#0x10]
	add         x10,x8,#8
	ldr         w8,[sp,#8]
	sxtw        x9,w8
	mov         x8,#1
	mul         x8,x9,x8
	add         x11,x10,x8
	ldr         x8,[sp]
	add         x10,x8,#0x98
	ldr         w8,[sp,#8]
	sxtw        x9,w8
	mov         x8,#1
	mul         x8,x9,x8
	add         x9,x10,x8
	ldrb        w8,[x11]
	strb        w8,[x9]
	b           |$LN8@AuVDiskReg|
|$LN9@AuVDiskReg|

; 187  : 
; 188  : 			vdisk->part_unique_guid.Data1 = part->part_unique_guid.Data1;

	ldr         x8,[sp,#0x10]
	add         x10,x8,#0x10
	ldr         x8,[sp]
	add         x9,x8,#0xA0
	ldr         w8,[x10]
	str         w8,[x9]

; 189  : 			vdisk->part_unique_guid.Data2 = part->part_unique_guid.Data2;

	ldr         x8,[sp,#0x10]
	add         x10,x8,#0x14
	ldr         x8,[sp]
	add         x9,x8,#0xA4
	ldrh        w8,[x10]
	strh        w8,[x9]

; 190  : 			vdisk->part_unique_guid.Data3 = part->part_unique_guid.Data3;

	ldr         x8,[sp,#0x10]
	add         x10,x8,#0x16
	ldr         x8,[sp]
	add         x9,x8,#0xA6
	ldrh        w8,[x10]
	strh        w8,[x9]

; 191  : 			for (int m = 0; m < 8; m++)

	mov         w8,#0
	str         w8,[sp,#0xC]
	b           |$LN13@AuVDiskReg|
|$LN11@AuVDiskReg|
	ldr         w8,[sp,#0xC]
	add         w8,w8,#1
	str         w8,[sp,#0xC]
|$LN13@AuVDiskReg|
	ldr         w8,[sp,#0xC]
	cmp         w8,#8
	bge         |$LN12@AuVDiskReg|

; 192  : 				vdisk->part_unique_guid.Data4[m] = part->part_guid.Data4[m];

	ldr         x8,[sp,#0x10]
	add         x10,x8,#8
	ldr         w8,[sp,#0xC]
	sxtw        x9,w8
	mov         x8,#1
	mul         x8,x9,x8
	add         x11,x10,x8
	ldr         x8,[sp]
	add         x10,x8,#0xA8
	ldr         w8,[sp,#0xC]
	sxtw        x9,w8
	mov         x8,#1
	mul         x8,x9,x8
	add         x9,x10,x8
	ldrb        w8,[x11]
	strb        w8,[x9]
	b           |$LN11@AuVDiskReg|
|$LN12@AuVDiskReg|

; 193  : 
; 194  : 			for (int j = 0; j < 70; j++)

	mov         w8,#0
	str         w8,[sp,#0x1C]
	b           |$LN16@AuVDiskReg|
|$LN14@AuVDiskReg|
	ldr         w8,[sp,#0x1C]
	add         w8,w8,#1
	str         w8,[sp,#0x1C]
|$LN16@AuVDiskReg|
	ldr         w8,[sp,#0x1C]
	cmp         w8,#0x46
	bge         |$LN15@AuVDiskReg|

; 195  : 				AuTextOut("%c", part->part_name[j]);

	ldr         x8,[sp,#0x10]
	add         x10,x8,#0x38
	ldr         w8,[sp,#0x1C]
	sxtw        x9,w8
	mov         x8,#1
	mul         x8,x9,x8
	add         x8,x10,x8
	ldrsb       w1,[x8]
	mov         w1,w1
	mov         w1,w1
	adrp        x8,|$SG3372|
	add         x0,x8,PageOffset(|$SG3372|)
	bl          AuTextOut
	b           |$LN14@AuVDiskReg|
|$LN15@AuVDiskReg|
|$LN22@AuVDiskReg|

; 196  : 		}
; 197  : 		part_lba++;

	ldr         x8,[sp,#0x40]
	add         x8,x8,#1
	str         x8,[sp,#0x40]

; 198  : 	}

	b           |$LN5@AuVDiskReg|
|$LN6@AuVDiskReg|

; 199  : 	AuTextOut("\r\n");

	adrp        x8,|$SG3373|
	add         x0,x8,PageOffset(|$SG3373|)
	bl          AuTextOut

; 200  : 	AuTextOut("VDisk partition created startLBA -> %d \r\n", vdisk->startingLBA);

	ldr         x8,[sp]
	add         x8,x8,#0x80
	ldr         x1,[x8]
	adrp        x8,|$SG3374|
	add         x0,x8,PageOffset(|$SG3374|)
	bl          AuTextOut

; 201  : 	AuTextOut("vDisk partition guid : ");

	adrp        x8,|$SG3375|
	add         x0,x8,PageOffset(|$SG3375|)
	bl          AuTextOut

; 202  : 	AuTextOut("0x%x-0x%x-0x%x-0x", vdisk->part_guid.Data1, vdisk->part_guid.Data2, vdisk->part_guid.Data3);

	ldr         x8,[sp]
	add         x8,x8,#0x96
	ldrh        w3,[x8]
	mov         w3,w3
	ldr         x8,[sp]
	add         x8,x8,#0x94
	ldrh        w2,[x8]
	mov         w2,w2
	ldr         x8,[sp]
	add         x8,x8,#0x90
	mov         w3,w3
	mov         w2,w2
	ldr         w1,[x8]
	adrp        x8,|$SG3376|
	add         x0,x8,PageOffset(|$SG3376|)
	bl          AuTextOut

; 203  : 	for (int k = 0; k < 8; k++)

	mov         w8,#0
	str         w8,[sp,#0x20]
	b           |$LN19@AuVDiskReg|
|$LN17@AuVDiskReg|
	ldr         w8,[sp,#0x20]
	add         w8,w8,#1
	str         w8,[sp,#0x20]
|$LN19@AuVDiskReg|
	ldr         w8,[sp,#0x20]
	cmp         w8,#8
	bge         |$LN18@AuVDiskReg|

; 204  : 		AuTextOut("%x", vdisk->part_guid.Data4[k]);

	ldr         x8,[sp]
	add         x10,x8,#0x98
	ldr         w8,[sp,#0x20]
	sxtw        x9,w8
	mov         x8,#1
	mul         x8,x9,x8
	add         x8,x10,x8
	ldrb        w1,[x8]
	mov         w1,w1
	mov         w1,w1
	adrp        x8,|$SG3377|
	add         x0,x8,PageOffset(|$SG3377|)
	bl          AuTextOut
	b           |$LN17@AuVDiskReg|
|$LN18@AuVDiskReg|

; 205  : 
; 206  : 	AuTextOut("\r\n");

	adrp        x8,|$SG3378|
	add         x0,x8,PageOffset(|$SG3378|)
	bl          AuTextOut

; 207  : 	/* call gpt file system verifier to load
; 208  : 	 * the desired file system
; 209  : 	 */
; 210  : 	//AuGPTInitialise_FileSystem(vdisk);
; 211  : 
; 212  : 	AuTextOut("\r\n");

	adrp        x8,|$SG3379|
	add         x0,x8,PageOffset(|$SG3379|)
	bl          AuTextOut

; 213  : 	AuPmmngrFree(buffer);

	ldr         x0,[sp,#0x28]
	bl          AuPmmngrFree
|$LN1@AuVDiskReg|
	add         sp,sp,#0x50
	ldr         lr,[sp],#0x10
	ret

	ENDP  ; |AuVDiskRegisterPartition|

; Function compile flags: /Odtpy
; File C:\Users\paras\source\repos\grep-name\XenevaOS\KernelAA64\Fs\vdisk.c

	AREA	|.text$mn|, CODE, ARM64

|AuGetVDisk| PROC

; 352  : AuVDisk* AuGetVDisk(int vdisk_idx) {

|$LN3|
	sub         sp,sp,#0x10
	str         w0,[sp]

; 353  : 	return VdiskArray[vdisk_idx];

	ldr         w8,[sp]
	sxtw        x9,w8
	mov         x8,#8
	mul         x9,x9,x8
	adrp        x8,VdiskArray
	add         x8,x8,PageOffset(VdiskArray)
	add         x8,x8,x9
	ldr         x0,[x8]
	add         sp,sp,#0x10
	ret

	ENDP  ; |AuGetVDisk|

; Function compile flags: /Odtpy
; File C:\Users\paras\source\repos\grep-name\XenevaOS\KernelAA64\Fs\vdisk.c

	AREA	|.text$mn|, CODE, ARM64

|AuVDiskCreateStorageFile| PROC

; 67   : AU_EXTERN AU_EXPORT int AuVDiskCreateStorageFile(char* output) {

|$LN3|
	str         lr,[sp,#-0x10]!
	sub         sp,sp,#0x60
	str         x0,[sp,#0x28]

; 68   : 	int value = _vdisk_num_;

	adrp        x8,_vdisk_num_
	ldr         w8,[x8,PageOffset(_vdisk_num_)]
	str         w8,[sp,#8]

; 69   : 	char dirname[10];
; 70   : 	memset(dirname, 0, 10);

	mov         w2,#0xA
	mov         w1,#0
	add         x0,sp,#0x10
	bl          memset

; 71   : 	strcpy(dirname, "disk");

	adrp        x8,|$SG3294|
	add         x1,x8,PageOffset(|$SG3294|)
	add         x0,sp,#0x10
	bl          strcpy

; 72   : 	dirname[strlen(dirname)+1] = '\0';

	add         x0,sp,#0x10
	bl          strlen
	add         x9,x0,#1
	mov         x8,#1
	mul         x9,x9,x8
	add         x8,sp,#0x10
	add         x9,x8,x9
	mov         w8,#0
	strb        w8,[x9]

; 73   : 	int offset = strlen(dirname);

	add         x0,sp,#0x10
	bl          strlen
	mov         w8,w0
	str         w8,[sp,#0x20]

; 74   : 	char value_[5];
; 75   : 	sztoa(value, value_, 10);

	ldr         w8,[sp,#8]
	sxtw        x0,w8
	mov         w2,#0xA
	mov         x1,sp
	bl          sztoa

; 76   : 	strcpy(dirname + offset, value_);

	ldr         w8,[sp,#0x20]
	sxtw        x9,w8
	add         x8,sp,#0x10
	add         x0,x8,x9
	mov         x1,sp
	bl          strcpy

; 77   : 	value_[strlen(value_) + 1] = '\0';

	mov         x0,sp
	bl          strlen
	add         x9,x0,#1
	mov         x8,#1
	mul         x9,x9,x8
	mov         x8,sp
	add         x9,x8,x9
	mov         w8,#0
	strb        w8,[x9]

; 78   : 	char path[32];
; 79   : 	memset(path, 0, 32);

	mov         w2,#0x20
	mov         w1,#0
	add         x0,sp,#0x38
	bl          memset

; 80   : 	strcpy(path, "/dev/");

	adrp        x8,|$SG3295|
	add         x1,x8,PageOffset(|$SG3295|)
	add         x0,sp,#0x38
	bl          strcpy

; 81   : 	path[strlen(path) + 1] = '\0';

	add         x0,sp,#0x38
	bl          strlen
	add         x9,x0,#1
	mov         x8,#1
	mul         x9,x9,x8
	add         x8,sp,#0x38
	add         x9,x8,x9
	mov         w8,#0
	strb        w8,[x9]

; 82   : 	int path_offset = strlen(path);

	add         x0,sp,#0x38
	bl          strlen
	mov         w8,w0
	str         w8,[sp,#0x24]

; 83   : 	strcpy(path + path_offset, dirname);

	ldr         w8,[sp,#0x24]
	sxtw        x9,w8
	add         x8,sp,#0x38
	add         x0,x8,x9
	add         x1,sp,#0x10
	bl          strcpy

; 84   : 
; 85   : 	/* Now copy the entire path to output */
; 86   : 	strcpy(output, path);

	add         x1,sp,#0x38
	ldr         x0,[sp,#0x28]
	bl          strcpy

; 87   : 
; 88   : 	/* Create a directory for this disk */
; 89   : 	AuVFSNode* fs = AuVFSFind("/dev");

	adrp        x8,|$SG3296|
	add         x0,x8,PageOffset(|$SG3296|)
	bl          AuVFSFind
	str         x0,[sp,#0x30]

; 90   : 	AuDevFSCreateFile(fs, path, FS_FLAG_DIRECTORY);

	mov         w2,#2
	add         x1,sp,#0x38
	ldr         x0,[sp,#0x30]
	bl          AuDevFSCreateFile

; 91   : 	_vdisk_num_++;

	adrp        x8,_vdisk_num_
	ldr         w8,[x8,PageOffset(_vdisk_num_)]
	add         w9,w8,#1
	adrp        x8,_vdisk_num_
	str         w9,[x8,PageOffset(_vdisk_num_)]

; 92   : 	return value;

	ldr         w0,[sp,#8]
	add         sp,sp,#0x60
	ldr         lr,[sp],#0x10
	ret

	ENDP  ; |AuVDiskCreateStorageFile|

; Function compile flags: /Odtpy
; File C:\Users\paras\source\repos\grep-name\XenevaOS\KernelAA64\Fs\vdisk.c

	AREA	|.text$mn|, CODE, ARM64

|AuGetVDiskPartitionInfo| PROC

; 312  : int AuGetVDiskPartitionInfo(uint8_t vdiskID, uint8_t partition_ID, void* buffer) {

|$LN12|
	str         lr,[sp,#-0x10]!
	sub         sp,sp,#0x30
	uxtb        w8,w0
	strb        w8,[sp]
	uxtb        w8,w1
	strb        w8,[sp,#1]
	str         x2,[sp,#0x20]

; 313  : 	/*
; 314  : 	 *FUTURE WORK:
; 315  : 	 * VDisk *disk = VdiskArray[vdiskID];
; 316  : 	 * AuVDiskPartitionInfo* pinfo = (AuVDiskPartitionInfo*)buffer;
; 317  : 	 * strcpy(pinfo->mountedName, disk->partitions[partition_ID].mountedName);
; 318  : 	 * pinfo->startingLBA = disk->partition[partition_ID].startingLBA;
; 319  : 	 */
; 320  : 	if (!buffer)

	ldr         x8,[sp,#0x20]
	cmp         x8,#0
	bne         |$LN8@AuGetVDisk|

; 321  : 		return -1;

	mov         w0,#-1
	b           |$LN1@AuGetVDisk|
|$LN8@AuGetVDisk|

; 322  : 	AuVDisk* vdisk = VdiskArray[vdiskID];

	ldrb        w8,[sp]
	mov         w9,w8
	mov         x8,#8
	mul         x9,x9,x8
	adrp        x8,VdiskArray
	add         x8,x8,PageOffset(VdiskArray)
	add         x8,x8,x9
	ldr         x8,[x8]
	str         x8,[sp,#0x10]

; 323  : 	if (!vdisk)

	ldr         x8,[sp,#0x10]
	cmp         x8,#0
	bne         |$LN9@AuGetVDisk|

; 324  : 		return -1;

	mov         w0,#-1
	b           |$LN1@AuGetVDisk|
|$LN9@AuGetVDisk|

; 325  : 	if (!vdisk->fsys)

	ldr         x8,[sp,#0x10]
	add         x8,x8,#0xB0
	ldr         x8,[x8]
	cmp         x8,#0
	bne         |$LN10@AuGetVDisk|

; 326  : 		return 1;

	mov         w0,#1
	b           |$LN1@AuGetVDisk|
|$LN10@AuGetVDisk|

; 327  : 	AuVDiskPartitionInfo* pinfo = (AuVDiskPartitionInfo*)buffer;

	ldr         x8,[sp,#0x20]
	str         x8,[sp,#0x18]

; 328  : 	strcpy(pinfo->mountedName, vdisk->fsys->filename);

	ldr         x8,[sp,#0x10]
	add         x8,x8,#0xB0
	ldr         x1,[x8]
	ldr         x0,[sp,#0x18]
	bl          strcpy

; 329  : 	//SeTextOut("FILE SYSTEM NAME -> %s \r\n", vdisk->fsys->filename);
; 330  : 	pinfo->partitionGUID.Data1 = vdisk->part_guid.Data1;

	ldr         x8,[sp,#0x10]
	add         x10,x8,#0x90
	ldr         x8,[sp,#0x18]
	add         x9,x8,#0x20
	ldr         w8,[x10]
	str         w8,[x9]

; 331  : 	pinfo->partitionGUID.Data2 = vdisk->part_guid.Data2;

	ldr         x8,[sp,#0x10]
	add         x10,x8,#0x94
	ldr         x8,[sp,#0x18]
	add         x9,x8,#0x24
	ldrh        w8,[x10]
	strh        w8,[x9]

; 332  : 	pinfo->partitionGUID.Data3 = vdisk->part_guid.Data3;

	ldr         x8,[sp,#0x10]
	add         x10,x8,#0x96
	ldr         x8,[sp,#0x18]
	add         x9,x8,#0x26
	ldrh        w8,[x10]
	strh        w8,[x9]

; 333  : 	for (int i = 0; i < 8; i++)

	mov         w8,#0
	str         w8,[sp,#4]
	b           |$LN4@AuGetVDisk|
|$LN2@AuGetVDisk|
	ldr         w8,[sp,#4]
	add         w8,w8,#1
	str         w8,[sp,#4]
|$LN4@AuGetVDisk|
	ldr         w8,[sp,#4]
	cmp         w8,#8
	bge         |$LN3@AuGetVDisk|

; 334  : 		pinfo->partitionGUID.Data4[i] = vdisk->part_guid.Data4[i];

	ldr         x8,[sp,#0x10]
	add         x10,x8,#0x98
	ldr         w8,[sp,#4]
	sxtw        x9,w8
	mov         x8,#1
	mul         x8,x9,x8
	add         x11,x10,x8
	ldr         x8,[sp,#0x18]
	add         x10,x8,#0x28
	ldr         w8,[sp,#4]
	sxtw        x9,w8
	mov         x8,#1
	mul         x8,x9,x8
	add         x9,x10,x8
	ldrb        w8,[x11]
	strb        w8,[x9]
	b           |$LN2@AuGetVDisk|
|$LN3@AuGetVDisk|

; 335  : 
; 336  : 	pinfo->uniqueGUID.Data1 = vdisk->part_unique_guid.Data1;

	ldr         x8,[sp,#0x10]
	add         x10,x8,#0xA0
	ldr         x8,[sp,#0x18]
	add         x9,x8,#0x30
	ldr         w8,[x10]
	str         w8,[x9]

; 337  : 	pinfo->uniqueGUID.Data2 = vdisk->part_unique_guid.Data2;

	ldr         x8,[sp,#0x10]
	add         x10,x8,#0xA4
	ldr         x8,[sp,#0x18]
	add         x9,x8,#0x34
	ldrh        w8,[x10]
	strh        w8,[x9]

; 338  : 	pinfo->uniqueGUID.Data3 = vdisk->part_unique_guid.Data3;

	ldr         x8,[sp,#0x10]
	add         x10,x8,#0xA6
	ldr         x8,[sp,#0x18]
	add         x9,x8,#0x36
	ldrh        w8,[x10]
	strh        w8,[x9]

; 339  : 	for (int i = 0; i < 8; i++)

	mov         w8,#0
	str         w8,[sp,#8]
	b           |$LN7@AuGetVDisk|
|$LN5@AuGetVDisk|
	ldr         w8,[sp,#8]
	add         w8,w8,#1
	str         w8,[sp,#8]
|$LN7@AuGetVDisk|
	ldr         w8,[sp,#8]
	cmp         w8,#8
	bge         |$LN6@AuGetVDisk|

; 340  : 		pinfo->uniqueGUID.Data4[i] = vdisk->part_unique_guid.Data4[i];

	ldr         x8,[sp,#0x10]
	add         x10,x8,#0xA8
	ldr         w8,[sp,#8]
	sxtw        x9,w8
	mov         x8,#1
	mul         x8,x9,x8
	add         x11,x10,x8
	ldr         x8,[sp,#0x18]
	add         x10,x8,#0x38
	ldr         w8,[sp,#8]
	sxtw        x9,w8
	mov         x8,#1
	mul         x8,x9,x8
	add         x9,x10,x8
	ldrb        w8,[x11]
	strb        w8,[x9]
	b           |$LN5@AuGetVDisk|
|$LN6@AuGetVDisk|

; 341  : 	pinfo->startingLBA = vdisk->startingLBA;

	ldr         x8,[sp,#0x10]
	add         x10,x8,#0x80
	ldr         x8,[sp,#0x18]
	add         x9,x8,#0x40
	ldr         x8,[x10]
	str         x8,[x9]

; 342  : 	return 0;

	mov         w0,#0
|$LN1@AuGetVDisk|
	add         sp,sp,#0x30
	ldr         lr,[sp],#0x10
	ret

	ENDP  ; |AuGetVDiskPartitionInfo|

; Function compile flags: /Odtpy
; File C:\Users\paras\source\repos\grep-name\XenevaOS\KernelAA64\Fs\vdisk.c

	AREA	|.text$mn|, CODE, ARM64

|AuGetVDiskInfo| PROC

; 288  : int AuGetVDiskInfo(uint8_t vdiskID, void* buffer) {

|$LN5|
	str         lr,[sp,#-0x10]!
	sub         sp,sp,#0x20
	uxtb        w8,w0
	strb        w8,[sp]
	str         x1,[sp,#0x18]

; 289  : 	if (!buffer)

	ldr         x8,[sp,#0x18]
	cmp         x8,#0
	bne         |$LN2@AuGetVDisk|

; 290  : 		return -1;

	mov         w0,#-1
	b           |$LN1@AuGetVDisk|
|$LN2@AuGetVDisk|

; 291  : 	AuVDisk* vdisk = VdiskArray[vdiskID];

	ldrb        w8,[sp]
	mov         w9,w8
	mov         x8,#8
	mul         x9,x9,x8
	adrp        x8,VdiskArray
	add         x8,x8,PageOffset(VdiskArray)
	add         x8,x8,x9
	ldr         x8,[x8]
	str         x8,[sp,#8]

; 292  : 	if (!vdisk)

	ldr         x8,[sp,#8]
	cmp         x8,#0
	bne         |$LN3@AuGetVDisk|

; 293  : 		return -1;

	mov         w0,#-1
	b           |$LN1@AuGetVDisk|
|$LN3@AuGetVDisk|

; 294  : 	AuVDiskInfo* info = (AuVDiskInfo*)buffer;

	ldr         x8,[sp,#0x18]
	str         x8,[sp,#0x10]

; 295  : 	strcpy(info->diskname, vdisk->diskname);

	ldr         x1,[sp,#8]
	ldr         x0,[sp,#0x10]
	bl          strcpy

; 296  : 	strcpy(info->serialNumber, vdisk->serialNumber);

	ldr         x8,[sp,#8]
	add         x1,x8,#0x28
	ldr         x8,[sp,#0x10]
	add         x0,x8,#0x28
	bl          strcpy

; 297  : 	info->vDiskID = vdiskID;

	ldr         x8,[sp,#0x10]
	add         x9,x8,#0x3C
	ldrb        w8,[sp]
	strb        w8,[x9]

; 298  : 	info->maxBlocks = vdisk->max_blocks;

	ldr         x8,[sp,#8]
	add         x10,x8,#0x68
	ldr         x8,[sp,#0x10]
	add         x9,x8,#0x48
	ldr         x8,[x10]
	str         x8,[x9]

; 299  : 	info->blocksSize = vdisk->blockSize;

	ldr         x8,[sp,#8]
	add         x10,x8,#0x70
	ldr         x8,[sp,#0x10]
	add         x9,x8,#0x50
	ldr         x8,[x10]
	str         x8,[x9]

; 300  : 	info->num_partition = vdisk->num_partition;

	ldr         x8,[sp,#8]
	add         x10,x8,#0x79
	ldr         x8,[sp,#0x10]
	add         x9,x8,#0x40
	ldrb        w8,[x10]
	mov         w8,w8
	str         w8,[x9]

; 301  : 	return 0;

	mov         w0,#0
|$LN1@AuGetVDisk|
	add         sp,sp,#0x20
	ldr         lr,[sp],#0x10
	ret

	ENDP  ; |AuGetVDiskInfo|

; Function compile flags: /Odtpy
; File C:\Users\paras\source\repos\grep-name\XenevaOS\KernelAA64\Fs\vdisk.c

	AREA	|.text$mn|, CODE, ARM64

|AuVDiskDestroy| PROC

; 265  : void AuVDiskDestroy(AuVDisk* vdisk) {

|$LN7|
	str         lr,[sp,#-0x10]!
	sub         sp,sp,#0x20
	str         x0,[sp,#8]

; 266  : 	uint8_t _index = 0;

	mov         w8,#0
	strb        w8,[sp,#1]

; 267  : 	for (uint8_t i = 0; i < MAX_VDISK_DEVICES; i++) {

	mov         w8,#0
	strb        w8,[sp]
	b           |$LN4@AuVDiskDes|
|$LN2@AuVDiskDes|
	ldrb        w8,[sp]
	add         w8,w8,#1
	uxtb        w8,w8
	strb        w8,[sp]
|$LN4@AuVDiskDes|
	ldrb        w8,[sp]
	mov         w8,w8
	cmp         w8,#0x1A
	bge         |$LN3@AuVDiskDes|

; 268  : 		AuVDisk* disk = VdiskArray[i];

	ldrb        w8,[sp]
	mov         w9,w8
	mov         x8,#8
	mul         x9,x9,x8
	adrp        x8,VdiskArray
	add         x8,x8,PageOffset(VdiskArray)
	add         x8,x8,x9
	ldr         x8,[x8]
	str         x8,[sp,#0x10]

; 269  : 		if (disk == vdisk) {

	ldr         x9,[sp,#8]
	ldr         x8,[sp,#0x10]
	cmp         x8,x9
	bne         |$LN5@AuVDiskDes|

; 270  : 			_index = i;

	ldrb        w8,[sp]
	strb        w8,[sp,#1]

; 271  : 			break;

	b           |$LN3@AuVDiskDes|
|$LN5@AuVDiskDes|

; 272  : 		}
; 273  : 	}

	b           |$LN2@AuVDiskDes|
|$LN3@AuVDiskDes|

; 274  : 
; 275  : 	VdiskArray[_index] = NULL;

	ldrb        w8,[sp,#1]
	mov         w9,w8
	mov         x8,#8
	mul         x9,x9,x8
	adrp        x8,VdiskArray
	add         x8,x8,PageOffset(VdiskArray)
	add         x9,x8,x9
	mov         x8,#0
	str         x8,[x9]

; 276  : 	kfree(vdisk);

	ldr         x0,[sp,#8]
	bl          kfree
	add         sp,sp,#0x20
	ldr         lr,[sp],#0x10
	ret

	ENDP  ; |AuVDiskDestroy|

; Function compile flags: /Odtpy
; File C:\Users\paras\source\repos\grep-name\XenevaOS\KernelAA64\Fs\vdisk.c

	AREA	|.text$mn|, CODE, ARM64

|AuVDiskWrite| PROC

; 141  : size_t AuVDiskWrite(AuVDisk* disk, uint64_t lba, uint32_t count, uint64_t* buffer) {

|$LN4|
	str         lr,[sp,#-0x10]!
	sub         sp,sp,#0x20
	str         x0,[sp,#8]
	str         x1,[sp,#0x10]
	str         w2,[sp]
	str         x3,[sp,#0x18]

; 142  : 	if (disk->Write)

	ldr         x8,[sp,#8]
	add         x8,x8,#0xC0
	ldr         x8,[x8]
	cmp         x8,#0
	beq         |$LN2@AuVDiskWri|

; 143  : 		return disk->Write(disk, disk->startingLBA + lba, count, buffer);

	ldr         x8,[sp,#8]
	add         x8,x8,#0x80
	ldr         x9,[x8]
	ldr         x8,[sp,#0x10]
	add         x1,x9,x8
	ldr         x8,[sp,#8]
	add         x8,x8,#0xC0
	ldr         x3,[sp,#0x18]
	ldr         w2,[sp]
	ldr         x0,[sp,#8]
	ldr         x8,[x8]
	blr         x8
	mov         w0,w0
	sxtw        x0,w0
	b           |$LN1@AuVDiskWri|
|$LN2@AuVDiskWri|

; 144  : 	return 0;

	mov         x0,#0
|$LN1@AuVDiskWri|
	add         sp,sp,#0x20
	ldr         lr,[sp],#0x10
	ret

	ENDP  ; |AuVDiskWrite|

; Function compile flags: /Odtpy
; File C:\Users\paras\source\repos\grep-name\XenevaOS\KernelAA64\Fs\vdisk.c

	AREA	|.text$mn|, CODE, ARM64

|AuVDiskRead| PROC

; 126  : size_t AuVDiskRead(AuVDisk* disk, uint64_t lba, uint32_t count, uint64_t* buffer) {

|$LN4|
	str         lr,[sp,#-0x10]!
	sub         sp,sp,#0x20
	str         x0,[sp,#8]
	str         x1,[sp,#0x10]
	str         w2,[sp]
	str         x3,[sp,#0x18]

; 127  : 	if (disk->Read)

	ldr         x8,[sp,#8]
	add         x8,x8,#0xB8
	ldr         x8,[x8]
	cmp         x8,#0
	beq         |$LN2@AuVDiskRea|

; 128  : 		return disk->Read(disk, disk->startingLBA + lba, count, buffer);

	ldr         x8,[sp,#8]
	add         x8,x8,#0x80
	ldr         x9,[x8]
	ldr         x8,[sp,#0x10]
	add         x1,x9,x8
	ldr         x8,[sp,#8]
	add         x8,x8,#0xB8
	ldr         x3,[sp,#0x18]
	ldr         w2,[sp]
	ldr         x0,[sp,#8]
	ldr         x8,[x8]
	blr         x8
	mov         w0,w0
	sxtw        x0,w0
	b           |$LN1@AuVDiskRea|
|$LN2@AuVDiskRea|

; 129  : 	return 0;

	mov         x0,#0
|$LN1@AuVDiskRea|
	add         sp,sp,#0x20
	ldr         lr,[sp],#0x10
	ret

	ENDP  ; |AuVDiskRead|

; Function compile flags: /Odtpy
; File C:\Users\paras\source\repos\grep-name\XenevaOS\KernelAA64\Fs\vdisk.c

	AREA	|.text$mn|, CODE, ARM64

|AuCreateVDisk| PROC

; 112  : AuVDisk* AuCreateVDisk() {

|$LN3|
	str         lr,[sp,#-0x10]!
	sub         sp,sp,#0x10

; 113  : 	AuVDisk* vdisk = (AuVDisk*)kmalloc(sizeof(AuVDisk));

	mov         w0,#0xC8
	bl          kmalloc
	str         x0,[sp]

; 114  : 	memset(vdisk, 0, sizeof(AuVDisk));

	mov         w2,#0xC8
	mov         w1,#0
	ldr         x0,[sp]
	bl          memset

; 115  : 	return vdisk;

	ldr         x0,[sp]
	add         sp,sp,#0x10
	ldr         lr,[sp],#0x10
	ret

	ENDP  ; |AuCreateVDisk|

; Function compile flags: /Odtpy
; File C:\Users\paras\source\repos\grep-name\XenevaOS\KernelAA64\Fs\vdisk.c

	AREA	|.text$mn|, CODE, ARM64

|AuVDiskRegister| PROC

; 221  : void AuVDiskRegister(AuVDisk* disk) {

|$LN17|
	str         lr,[sp,#-0x10]!
	sub         sp,sp,#0x20
	str         x0,[sp,#0x10]

; 222  : 	uint8_t _index = AuVDiskGetIndex();

	bl          AuVDiskGetIndex
	uxtb        w8,w0
	strb        w8,[sp]

; 223  : 	/* check for last time, for any errors */
; 224  : 	if (VdiskArray[_index])

	ldrb        w8,[sp]
	mov         w9,w8
	mov         x8,#8
	mul         x9,x9,x8
	adrp        x8,VdiskArray
	add         x8,x8,PageOffset(VdiskArray)
	add         x8,x8,x9
	ldr         x8,[x8]
	cmp         x8,#0
	beq         |$LN4@AuVDiskReg|

; 225  : 		return;

	b           |$LN1@AuVDiskReg|
|$LN4@AuVDiskReg|

; 226  : 
; 227  : 	VdiskArray[_index] = disk;

	ldrb        w8,[sp]
	mov         w9,w8
	mov         x8,#8
	mul         x9,x9,x8
	adrp        x8,VdiskArray
	add         x8,x8,PageOffset(VdiskArray)
	add         x9,x8,x9
	ldr         x8,[sp,#0x10]
	str         x8,[x9]

; 228  : 	AuTextOut("[aurora]: vdisk registered name : %s, serial : %s \r\n", disk->diskname,

	ldr         x8,[sp,#0x10]
	add         x2,x8,#0x28
	ldr         x1,[sp,#0x10]
	adrp        x8,|$SG3389|
	add         x0,x8,PageOffset(|$SG3389|)
	bl          AuTextOut

; 229  : 		disk->serialNumber);
; 230  : 
; 231  : 	disk->__VDiskID = _index;

	ldr         x8,[sp,#0x10]
	add         x9,x8,#0x78
	ldrb        w8,[sp]
	strb        w8,[x9]

; 232  : 	/* Register a partition and initialise the file system*/
; 233  : 	AuVDiskRegisterPartition(disk);

	ldr         x0,[sp,#0x10]
	bl          AuVDiskRegisterPartition

; 234  : 
; 235  : 	aurora_fs_type type = AuProbeFileSystem(disk);

	ldr         x0,[sp,#0x10]
	bl          AuProbeFileSystem
	mov         w0,w0
	str         w0,[sp,#8]

; 236  : 	AuTextOut("type : %d \r\n", type);

	ldr         w1,[sp,#8]
	adrp        x8,|$SG3390|
	add         x0,x8,PageOffset(|$SG3390|)
	bl          AuTextOut

; 237  : 
; 238  : 	switch (type) {

	ldr         w8,[sp,#8]
	str         w8,[sp,#4]
	ldr         w8,[sp,#4]
	sub         w8,w8,#1
	str         w8,[sp,#4]
	ldr         w8,[sp,#4]
	cmp         w8,#3
	bhi         |$LN2@AuVDiskReg|
	ldr         w10,[sp,#4]
	adr         x9,__swt
	ldrsb       x8,[x9,w10 uxtw #0]
	add         x8,x9,x8,lsl #2
	br          x8
|$LN5@AuVDiskReg|

; 239  : 	case AURORA_FS_NTFS:
; 240  : 		AuTextOut("[aurora]: vdisk : %s, has NTFS file system \r\n", disk->diskname);

	ldr         x1,[sp,#0x10]
	adrp        x8,|$SG3392|
	add         x0,x8,PageOffset(|$SG3392|)
	bl          AuTextOut

; 241  : 		break;

	b           |$LN2@AuVDiskReg|
|$LN6@AuVDiskReg|

; 242  : 	case AURORA_FS_FAT32:
; 243  : 		AuTextOut("[aurora]: vdisk : %s, has FAT32 file system \r\n", disk->diskname);

	ldr         x1,[sp,#0x10]
	adrp        x8,|$SG3394|
	add         x0,x8,PageOffset(|$SG3394|)
	bl          AuTextOut

; 244  : 		char* mpt = AuVFSReserveMountPointLetter();

	bl          AuVFSReserveMountPointLetter
	str         x0,[sp,#0x18]

; 245  : 		
; 246  : 		/** make letter /a reserved for root '/' **/
; 247  : 		if (strcmp(mpt, "/a") == 0)

	adrp        x8,|$SG3397|
	add         x1,x8,PageOffset(|$SG3397|)
	ldr         x0,[sp,#0x18]
	bl          strcmp
	mov         w0,w0
	cmp         w0,#0
	bne         |$LN7@AuVDiskReg|

; 248  : 			FatInitialise(disk, "/");

	adrp        x8,|$SG3398|
	add         x1,x8,PageOffset(|$SG3398|)
	ldr         x0,[sp,#0x10]
	bl          FatInitialise
	b           |$LN8@AuVDiskReg|
|$LN7@AuVDiskReg|

; 249  : 		else
; 250  : 			FatInitialise(disk, mpt);

	ldr         x1,[sp,#0x18]
	ldr         x0,[sp,#0x10]
	bl          FatInitialise
|$LN8@AuVDiskReg|

; 251  : 		break;

	b           |$LN2@AuVDiskReg|
|$LN9@AuVDiskReg|

; 252  : 	case AURORA_FS_FAT16:
; 253  : 		AuTextOut("[aurora]: vdisk : %s has FAT16 file system \r\n", disk->diskname);

	ldr         x1,[sp,#0x10]
	adrp        x8,|$SG3400|
	add         x0,x8,PageOffset(|$SG3400|)
	bl          AuTextOut

; 254  : 		break;

	b           |$LN2@AuVDiskReg|
|$LN10@AuVDiskReg|

; 255  : 	case AURORA_FS_EXT2:
; 256  : 		AuTextOut("[aurora]: vdisk : %s has Ext2 file system \r\n", disk->diskname);

	ldr         x1,[sp,#0x10]
	adrp        x8,|$SG3402|
	add         x0,x8,PageOffset(|$SG3402|)
	bl          AuTextOut
|$LN2@AuVDiskReg|
|$LN1@AuVDiskReg|
	add         sp,sp,#0x20
	ldr         lr,[sp],#0x10
	ret
|__swt|
|$LN13@AuVDiskReg|

; 237  : 
; 238  : 	switch (type) {

	DCB         0xf4
|$LN14@AuVDiskReg|
	DCB         0xde
|$LN15@AuVDiskReg|
	DCB         0xf9
|$LN16@AuVDiskReg|
	DCB         0xd9

	ENDP  ; |AuVDiskRegister|

; Function compile flags: /Odtpy
; File C:\Users\paras\source\repos\grep-name\XenevaOS\KernelAA64\Fs\vdisk.c

	AREA	|.text$mn|, CODE, ARM64

|AuVDiskGetIndex| PROC

; 98   : uint8_t AuVDiskGetIndex() {

|$LN7|
	sub         sp,sp,#0x10

; 99   : 	for (uint8_t i = 0; i < MAX_VDISK_DEVICES; i++) {

	mov         w8,#0
	strb        w8,[sp]
	b           |$LN4@AuVDiskGet|
|$LN2@AuVDiskGet|
	ldrb        w8,[sp]
	add         w8,w8,#1
	uxtb        w8,w8
	strb        w8,[sp]
|$LN4@AuVDiskGet|
	ldrb        w8,[sp]
	mov         w8,w8
	cmp         w8,#0x1A
	bge         |$LN3@AuVDiskGet|

; 100  : 		if (!VdiskArray[i])

	ldrb        w8,[sp]
	mov         w9,w8
	mov         x8,#8
	mul         x9,x9,x8
	adrp        x8,VdiskArray
	add         x8,x8,PageOffset(VdiskArray)
	add         x8,x8,x9
	ldr         x8,[x8]
	cmp         x8,#0
	bne         |$LN5@AuVDiskGet|

; 101  : 			return i;

	ldrb        w0,[sp]
	b           |$LN1@AuVDiskGet|
|$LN5@AuVDiskGet|

; 102  : 	}

	b           |$LN2@AuVDiskGet|
|$LN3@AuVDiskGet|
|$LN1@AuVDiskGet|
	add         sp,sp,#0x10
	ret

	ENDP  ; |AuVDiskGetIndex|

; Function compile flags: /Odtpy
; File C:\Users\paras\source\repos\grep-name\XenevaOS\KernelAA64\Fs\vdisk.c

	AREA	|.text$mn|, CODE, ARM64

|AuVDiskInitialise| PROC

; 52   : void AuVDiskInitialise() {

|$LN6|
	str         lr,[sp,#-0x10]!
	sub         sp,sp,#0x10

; 53   : 	for (int i = 0; i < MAX_VDISK_DEVICES; i++)

	mov         w8,#0
	str         w8,[sp]
	b           |$LN4@AuVDiskIni|
|$LN2@AuVDiskIni|
	ldr         w8,[sp]
	add         w8,w8,#1
	str         w8,[sp]
|$LN4@AuVDiskIni|
	ldr         w8,[sp]
	cmp         w8,#0x1A
	bge         |$LN3@AuVDiskIni|

; 54   : 		VdiskArray[i] = NULL;

	ldr         w8,[sp]
	sxtw        x9,w8
	mov         x8,#8
	mul         x9,x9,x8
	adrp        x8,VdiskArray
	add         x8,x8,PageOffset(VdiskArray)
	add         x9,x8,x9
	mov         x8,#0
	str         x8,[x9]
	b           |$LN2@AuVDiskIni|
|$LN3@AuVDiskIni|

; 55   : 
; 56   : 	_vdisk_num_ = 0;

	adrp        x9,_vdisk_num_
	mov         w8,#0
	str         w8,[x9,PageOffset(_vdisk_num_)]

; 57   : 	AuTextOut("[aurora]: virtual disk system initialized \r\n");

	adrp        x8,|$SG3283|
	add         x0,x8,PageOffset(|$SG3283|)
	bl          AuTextOut
	add         sp,sp,#0x10
	ldr         lr,[sp],#0x10
	ret

	ENDP  ; |AuVDiskInitialise|

	END
