; Listing generated by Microsoft (R) Optimizing Compiler Version 19.29.30159.0 

	TTL	C:\Users\paras\source\repos\grep-name\XenevaOS\KernelAA64\ARM64\Debug\vector.obj
	ARM64

	AREA	|.drectve|, DRECTVE

	EXPORT	|_userprint| [ DATA ]

	AREA	|.bss|, NOINIT
|_userprint| %	0x1
	EXPORT	|AuDumpRegisters|
	EXPORT	|sync_el1_handler|
	EXPORT	|setuprint|
	EXPORT	|irq_el1_handler|
	EXPORT	|fault_el1_handler|
	EXPORT	|sync_el0_handler|
	EXPORT	|AA64InitializeVectorTable|
	IMPORT	|set_vbar_el1|
	IMPORT	|read_esr_el1|
	IMPORT	|read_far_el1|
	IMPORT	|read_elr_el1|
	IMPORT	|setupTimerIRQ|
	IMPORT	|suspendTimer|
	IMPORT	|read_spsel|
	IMPORT	|AuAA64SyscallHandler|
	IMPORT	|AuTextOut|
	IMPORT	|GICReadIAR|
	IMPORT	|GICCheckPending|
	IMPORT	|GICSendEOI|
	IMPORT	|GICCallSPIHandler|
	IMPORT	|UARTDebugOut|
	IMPORT	|AuPL031RTCIRQHandle|
	IMPORT	|AuScheduleThread|
	IMPORT	|AuGetCurrentThread|
	IMPORT	|AuProcessFindThread|
	IMPORT	|AuProcessFindSubThread|
	IMPORT	|AuPmmngrGetFreeMem|
	IMPORT	|AuPmmngrGetUsedMem|
	IMPORT	|AuPmmngrGetTotalMem|
	IMPORT	|AuVMAreaGet|
	IMPORT	|AuDrvManagerCheckFault|
	IMPORT	|AuDrvCatchFault|
	IMPORT	|AuroraTimerTick|
	IMPORT	|vectors|

	AREA	|.pdata|, PDATA
|$pdata$AuDumpRegisters| DCD imagerel |$LN4|
	DCD	0x1200265
	;Flags[SingleProEpi] functionLength[612] RegF[0] RegI[0] H[0] frameChainReturn[UnChainedSavedLR] frameSize[32]
|$pdata$sync_el1_handler| DCD imagerel |$LN82|
	DCD	0x4210509
	;Flags[SingleProEpi] functionLength[1288] RegF[0] RegI[1] H[0] frameChainReturn[UnChainedSavedLR] frameSize[128]
|$pdata$irq_el1_handler| DCD imagerel |$LN13|
	DCD	0x1200149
	;Flags[SingleProEpi] functionLength[328] RegF[0] RegI[0] H[0] frameChainReturn[UnChainedSavedLR] frameSize[32]
|$pdata$fault_el1_handler| DCD imagerel |$LN39|
	DCD	0x1a00189
	;Flags[SingleProEpi] functionLength[392] RegF[0] RegI[0] H[0] frameChainReturn[UnChainedSavedLR] frameSize[48]
|$pdata$sync_el0_handler| DCD imagerel |$LN4|
	DCD	0x1200065
	;Flags[SingleProEpi] functionLength[100] RegF[0] RegI[0] H[0] frameChainReturn[UnChainedSavedLR] frameSize[32]
|$pdata$AA64InitializeVectorTable| DCD imagerel |$LN3|
	DCD	0xa00019
	;Flags[SingleProEpi] functionLength[24] RegF[0] RegI[0] H[0] frameChainReturn[UnChainedSavedLR] frameSize[16]

	AREA	|.data|, DATA
|$SG3643| DCB	"===REGISTER DUMP===", 0xd, 0xa, 0x0
	%	2
|$SG3644| DCB	"x0: %x x1: %x ", 0xd, 0xa, 0x0
	%	7
|$SG3645| DCB	"x2: %x x3: %x ", 0xd, 0xa, 0x0
	%	7
|$SG3646| DCB	"x4: %x x5: %x ", 0xd, 0xa, 0x0
	%	7
|$SG3647| DCB	"x6: %x x7: %x ", 0xd, 0xa, 0x0
	%	7
|$SG3648| DCB	"x8: %x x9: %x ", 0xd, 0xa, 0x0
	%	7
|$SG3649| DCB	"x10: %x x11: %x ", 0xd, 0xa, 0x0
	%	5
|$SG3650| DCB	"x12: %x x13: %x ", 0xd, 0xa, 0x0
	%	5
|$SG3651| DCB	"x14: %x x15: %x ", 0xd, 0xa, 0x0
	%	5
|$SG3652| DCB	"x16: %x x17: %x ", 0xd, 0xa, 0x0
	%	5
|$SG3653| DCB	"x18: %x ", 0xd, 0xa, 0x0
	%	5
|$SG3655| DCB	"x19: %x x20: %x ", 0xd, 0xa, 0x0
	%	5
|$SG3656| DCB	"x21: %x X22: %x ", 0xd, 0xa, 0x0
	%	5
|$SG3657| DCB	"x23: %x x24: %x ", 0xd, 0xa, 0x0
	%	5
|$SG3658| DCB	"x25: %x x26: %x ", 0xd, 0xa, 0x0
	%	5
|$SG3659| DCB	"x27: %x x28: %x ", 0xd, 0xa, 0x0
	%	5
|$SG3660| DCB	"x29: %x x30: %x ", 0xd, 0xa, 0x0
	%	5
|$SG3684| DCB	"======Synch exception=======", 0xd, 0xa, 0x0
	%	1
|$SG3685| DCB	"FAR: %x, PC: %x ", 0xd, 0xa, 0x0
	%	5
|$SG3687| DCB	"Address size, fault level 0 ", 0xd, 0xa, 0x0
	%	1
|$SG3689| DCB	"Address Size, fault level 1 ", 0xd, 0xa, 0x0
	%	1
|$SG3691| DCB	"Address size, fault level 2 ", 0xd, 0xa, 0x0
	%	1
|$SG3693| DCB	"Address size, fault level 3 ", 0xd, 0xa, 0x0
	%	1
|$SG3695| DCB	"translation, fault level 0 ", 0xd, 0xa, 0x0
	%	2
|$SG3697| DCB	"translation, fault level 1 ", 0xd, 0xa, 0x0
	%	2
|$SG3699| DCB	"translation, fault level 2 ", 0xd, 0xa, 0x0
	%	2
|$SG3701| DCB	"translation, fault level 3 ", 0xd, 0xa, 0x0
	%	2
|$SG3703| DCB	"access flag, fault level 1 ", 0xd, 0xa, 0x0
	%	2
|$SG3705| DCB	"access flag, fault level 2 ", 0xd, 0xa, 0x0
	%	2
|$SG3707| DCB	"access flag, fault level 3 ", 0xd, 0xa, 0x0
	%	2
|$SG3709| DCB	"permission fault, level 1 ", 0xd, 0xa, 0x0
	%	3
|$SG3711| DCB	"permission fault, level 2 ", 0xd, 0xa, 0x0
	%	3
|$SG3713| DCB	"permission fault, level 3 ", 0xd, 0xa, 0x0
	%	3
|$SG3715| DCB	"Unknown fault code ", 0xd, 0xa, 0x0
	%	2
|$SG3716| DCB	"=======Synchronous Exception occured========= ", 0xd, 0xa
	DCB	0x0
	%	7
|$SG3717| DCB	"Fault Address (FAR_EL1): %x ", 0xd, 0xa, 0x0
	%	1
|$SG3718| DCB	"Fault Instruction (ELR_EL1): %x ", 0xd, 0xa, 0x0
	%	5
|$SG3719| DCB	"Current SPSel : %d ", 0xd, 0xa, 0x0
	%	2
|$SG3720| DCB	"EC class : %x ", 0xd, 0xa, 0x0
	%	7
|$SG3722| DCB	"======CRASH in Kernel Driver====== ", 0xd, 0xa, 0x0
	%	2
|$SG3724| DCB	"Current Thread: %s ", 0xd, 0xa, 0x0
	%	2
|$SG3725| DCB	"Current Thread: %s ", 0xd, 0xa, 0x0
	%	2
|$SG3727| DCB	"Stack alignment fault ", 0xd, 0xa, 0x0
	%	7
|$SG3728| DCB	"Total RAM : %d MiB, Used RAM : %d MiB , Free RAM : %d Mi"
	DCB	"B", 0xd, 0xa, 0x0
	%	4
|$SG3733| DCB	"VMA Start -> %x ", 0xd, 0xa, 0x0
	%	5
|$SG3734| DCB	"original address of the process -> %x  %x", 0xd, 0xa, 0x0
	%	4
|$SG3736| DCB	"Address size, fault level 0 ", 0xd, 0xa, 0x0
	%	1
|$SG3738| DCB	"Address Size, fault level 1 ", 0xd, 0xa, 0x0
	%	1
|$SG3740| DCB	"Address size, fault level 2 ", 0xd, 0xa, 0x0
	%	1
|$SG3742| DCB	"Address size, fault level 3 ", 0xd, 0xa, 0x0
	%	1
|$SG3744| DCB	"translation, fault level 0 ", 0xd, 0xa, 0x0
	%	2
|$SG3746| DCB	"translation, fault level 1 ", 0xd, 0xa, 0x0
	%	2
|$SG3748| DCB	"translation, fault level 2 ", 0xd, 0xa, 0x0
	%	2
|$SG3750| DCB	"translation, fault level 3 ", 0xd, 0xa, 0x0
	%	2
|$SG3752| DCB	"access flag, fault level 1 ", 0xd, 0xa, 0x0
	%	2
|$SG3754| DCB	"access flag, fault level 2 ", 0xd, 0xa, 0x0
	%	2
|$SG3756| DCB	"access flag, fault level 3 ", 0xd, 0xa, 0x0
	%	2
|$SG3758| DCB	"permission fault, level 1 ", 0xd, 0xa, 0x0
	%	3
|$SG3760| DCB	"permission fault, level 2 ", 0xd, 0xa, 0x0
	%	3
|$SG3762| DCB	"permission fault, level 3 ", 0xd, 0xa, 0x0
	%	3
|$SG3764| DCB	"Unknown fault code ", 0xd, 0xa, 0x0
	%	2
|$SG3782| DCB	"PS/2 Keyboard irq fired %d", 0xa, 0x0
	%	4
|$SG3785| DCB	"UART0 IRQ fired %d ", 0xa, 0x0
	%	3
|$SG3787| DCB	"PL031 RTC IRQ %d ", 0xa, 0x0
	%	5
|$SG3789| DCB	"Spurious irq %d", 0xa, 0x0
	%	7
|$SG3801| DCB	"=======Fault Exception occured=========", 0xa, 0x0
	%	7
|$SG3802| DCB	"Fault Address (FAR_EL1): %x ", 0xa, 0x0
	%	2
|$SG3803| DCB	"Fault Instruction (ELR_EL1): %x ", 0xa, 0x0
	%	6
|$SG3805| DCB	"Address size, fault level 0", 0xa, 0x0
	%	3
|$SG3807| DCB	"Address Size, fault level 1", 0xa, 0x0
	%	3
|$SG3809| DCB	"Address size, fault level 2", 0xa, 0x0
	%	3
|$SG3811| DCB	"Address size, fault level 3 ", 0xa, 0x0
	%	2
|$SG3813| DCB	"translation, fault level 0", 0xa, 0x0
	%	4
|$SG3815| DCB	"translation, fault level 1", 0xa, 0x0
	%	4
|$SG3817| DCB	"translation, fault level 2", 0xa, 0x0
	%	4
|$SG3819| DCB	"translation, fault level 3", 0xa, 0x0
	%	4
|$SG3821| DCB	"access flag, fault level 1", 0xa, 0x0
	%	4
|$SG3823| DCB	"access flag, fault level 2", 0xa, 0x0
	%	4
|$SG3825| DCB	"access flag, fault level 3", 0xa, 0x0
	%	4
|$SG3827| DCB	"permission fault, level 1", 0xa, 0x0
	%	5
|$SG3829| DCB	"permission fault, level 2", 0xa, 0x0
	%	5
|$SG3831| DCB	"permission fault, level 3", 0xa, 0x0
	%	5
|$SG3833| DCB	"Unknown fault code ", 0xa, 0x0
	%	3
|$SG3839| DCB	"SYNC EL0 Hnalder ", 0xd, 0xa, 0x0
	%	4
|$SG3841| DCB	"System call trapped %d x30: %x", 0xa, 0x0
; Function compile flags: /Odtpy
; File C:\Users\paras\source\repos\grep-name\XenevaOS\KernelAA64\Hal\vector.c

	AREA	|.text$mn|, CODE, ARM64

|AA64InitializeVectorTable| PROC

; 286  : void AA64InitializeVectorTable() {

|$LN3|
	str         lr,[sp,#-0x10]!

; 287  : 	set_vbar_el1(&vectors);

	adrp        x8,vectors
	add         x0,x8,PageOffset(vectors)
	bl          set_vbar_el1
	ldr         lr,[sp],#0x10
	ret

	ENDP  ; |AA64InitializeVectorTable|

; Function compile flags: /Odtpy
; File C:\Users\paras\source\repos\grep-name\XenevaOS\KernelAA64\Hal\vector.c

	AREA	|.text$mn|, CODE, ARM64

|sync_el0_handler| PROC

; 274  : void sync_el0_handler(AA64Registers* regs) {

|$LN4|
	str         lr,[sp,#-0x10]!
	sub         sp,sp,#0x10
	str         x0,[sp]

; 275  :     uint64_t esr = read_esr_el1();

	bl          read_esr_el1
	str         x0,[sp,#8]

; 276  :     UARTDebugOut("SYNC EL0 Hnalder \r\n");

	adrp        x8,|$SG3839|
	add         x0,x8,PageOffset(|$SG3839|)
	bl          UARTDebugOut

; 277  :     if ((esr >> 26) == 0x15) {

	ldr         x8,[sp,#8]
	lsr         x8,x8,#0x1A
	cmp         x8,#0x15
	bne         |$LN2@sync_el0_h|

; 278  :         AuTextOut("System call trapped %d x30: %x\n", regs->x8,

	ldr         x9,[sp]
	ldr         x8,[sp]
	add         x8,x8,#0xB0
	ldr         x2,[x9]
	ldr         x1,[x8]
	adrp        x8,|$SG3841|
	add         x0,x8,PageOffset(|$SG3841|)
	bl          AuTextOut

; 279  :             regs->x30);
; 280  :         AuAA64SyscallHandler(regs);

	ldr         x0,[sp]
	bl          AuAA64SyscallHandler
|$LN2@sync_el0_h|
	add         sp,sp,#0x10
	ldr         lr,[sp],#0x10
	ret

	ENDP  ; |sync_el0_handler|

; Function compile flags: /Odtpy
; File C:\Users\paras\source\repos\grep-name\XenevaOS\KernelAA64\Hal\vector.c

	AREA	|.text$mn|, CODE, ARM64

|fault_el1_handler| PROC

; 246  : void fault_el1_handler(AA64Registers* regs) {

|$LN39|
	str         lr,[sp,#-0x10]!
	sub         sp,sp,#0x20
	str         x0,[sp,#0x10]

; 247  :     UARTDebugOut("=======Fault Exception occured=========\n");

	adrp        x8,|$SG3801|
	add         x0,x8,PageOffset(|$SG3801|)
	bl          UARTDebugOut

; 248  :     UARTDebugOut("Fault Address (FAR_EL1): %x \n", read_far_el1());

	bl          read_far_el1
	mov         x1,x0
	adrp        x8,|$SG3802|
	add         x0,x8,PageOffset(|$SG3802|)
	bl          UARTDebugOut

; 249  :     UARTDebugOut("Fault Instruction (ELR_EL1): %x \n", read_elr_el1());

	bl          read_elr_el1
	mov         x1,x0
	adrp        x8,|$SG3803|
	add         x0,x8,PageOffset(|$SG3803|)
	bl          UARTDebugOut

; 250  : 	uint64_t esr = read_esr_el1();

	bl          read_esr_el1
	str         x0,[sp,#8]

; 251  : 
; 252  :     uint32_t dfsc = esr & 0x3F;

	ldr         x8,[sp,#8]
	and         x8,x8,#0x3F
	mov         w8,w8
	str         w8,[sp,#4]

; 253  : 
; 254  :     switch (dfsc) {

	ldr         w8,[sp,#4]
	str         w8,[sp]
	ldr         w8,[sp]
	cmp         w8,#0xF
	bhi         |$LN20@fault_el1_|
	ldr         w10,[sp]
	adr         x9,__swt
	ldrsb       x8,[x9,w10 uxtw #0]
	add         x8,x9,x8,lsl #2
	br          x8
|$LN6@fault_el1_|

; 255  :     case 0b000000: AuTextOut("Address size, fault level 0\n"); break;

	adrp        x8,|$SG3805|
	add         x0,x8,PageOffset(|$SG3805|)
	bl          AuTextOut
	b           |$LN2@fault_el1_|
|$LN7@fault_el1_|

; 256  :     case 0b000001: AuTextOut("Address Size, fault level 1\n"); break;

	adrp        x8,|$SG3807|
	add         x0,x8,PageOffset(|$SG3807|)
	bl          AuTextOut
	b           |$LN2@fault_el1_|
|$LN8@fault_el1_|

; 257  :     case 0b000010: AuTextOut("Address size, fault level 2\n"); break;

	adrp        x8,|$SG3809|
	add         x0,x8,PageOffset(|$SG3809|)
	bl          AuTextOut
	b           |$LN2@fault_el1_|
|$LN9@fault_el1_|

; 258  :     case 0b000011: AuTextOut("Address size, fault level 3 \n"); break;

	adrp        x8,|$SG3811|
	add         x0,x8,PageOffset(|$SG3811|)
	bl          AuTextOut
	b           |$LN2@fault_el1_|
|$LN10@fault_el1_|

; 259  :     case 0b000100: AuTextOut("translation, fault level 0\n"); break;

	adrp        x8,|$SG3813|
	add         x0,x8,PageOffset(|$SG3813|)
	bl          AuTextOut
	b           |$LN2@fault_el1_|
|$LN11@fault_el1_|

; 260  :     case 0b000101: AuTextOut("translation, fault level 1\n"); break;

	adrp        x8,|$SG3815|
	add         x0,x8,PageOffset(|$SG3815|)
	bl          AuTextOut
	b           |$LN2@fault_el1_|
|$LN12@fault_el1_|

; 261  :     case 0b000110: AuTextOut("translation, fault level 2\n"); break;

	adrp        x8,|$SG3817|
	add         x0,x8,PageOffset(|$SG3817|)
	bl          AuTextOut
	b           |$LN2@fault_el1_|
|$LN13@fault_el1_|

; 262  :     case 0b000111: AuTextOut("translation, fault level 3\n"); break;

	adrp        x8,|$SG3819|
	add         x0,x8,PageOffset(|$SG3819|)
	bl          AuTextOut
	b           |$LN2@fault_el1_|
|$LN14@fault_el1_|

; 263  :     case 0b001001: AuTextOut("access flag, fault level 1\n"); break;

	adrp        x8,|$SG3821|
	add         x0,x8,PageOffset(|$SG3821|)
	bl          AuTextOut
	b           |$LN2@fault_el1_|
|$LN15@fault_el1_|

; 264  :     case 0b001010: AuTextOut("access flag, fault level 2\n"); break;

	adrp        x8,|$SG3823|
	add         x0,x8,PageOffset(|$SG3823|)
	bl          AuTextOut
	b           |$LN2@fault_el1_|
|$LN16@fault_el1_|

; 265  :     case 0b001011: AuTextOut("access flag, fault level 3\n"); break;

	adrp        x8,|$SG3825|
	add         x0,x8,PageOffset(|$SG3825|)
	bl          AuTextOut
	b           |$LN2@fault_el1_|
|$LN17@fault_el1_|

; 266  :     case 0b001101: AuTextOut("permission fault, level 1\n"); break;

	adrp        x8,|$SG3827|
	add         x0,x8,PageOffset(|$SG3827|)
	bl          AuTextOut
	b           |$LN2@fault_el1_|
|$LN18@fault_el1_|

; 267  :     case 0b001110: AuTextOut("permission fault, level 2\n"); break;

	adrp        x8,|$SG3829|
	add         x0,x8,PageOffset(|$SG3829|)
	bl          AuTextOut
	b           |$LN2@fault_el1_|
|$LN19@fault_el1_|

; 268  :     case 0b001111: AuTextOut("permission fault, level 3\n"); break;

	adrp        x8,|$SG3831|
	add         x0,x8,PageOffset(|$SG3831|)
	bl          AuTextOut
	b           |$LN2@fault_el1_|
|$LN20@fault_el1_|

; 269  :     default: AuTextOut("Unknown fault code \n"); break;

	adrp        x8,|$SG3833|
	add         x0,x8,PageOffset(|$SG3833|)
	bl          AuTextOut
|$LN2@fault_el1_|
|$LN4@fault_el1_|

; 270  :     }
; 271  : 	while (1) {}

	mov         w8,#1
	cmp         w8,#0
	beq         |$LN5@fault_el1_|
	b           |$LN4@fault_el1_|
|$LN5@fault_el1_|
	add         sp,sp,#0x20
	ldr         lr,[sp],#0x10
	ret
|__swt|
|$LN23@fault_el1_|

; 253  : 
; 254  :     switch (dfsc) {

	DCB         0xbe
|$LN24@fault_el1_|
	DCB         0xc2
|$LN25@fault_el1_|
	DCB         0xc6
|$LN26@fault_el1_|
	DCB         0xca
|$LN27@fault_el1_|
	DCB         0xce
|$LN28@fault_el1_|
	DCB         0xd2
|$LN29@fault_el1_|
	DCB         0xd6
|$LN30@fault_el1_|
	DCB         0xda
|$LN31@fault_el1_|
	DCB         0xf6
|$LN32@fault_el1_|
	DCB         0xde
|$LN33@fault_el1_|
	DCB         0xe2
|$LN34@fault_el1_|
	DCB         0xe6
|$LN35@fault_el1_|
	DCB         0xf6
|$LN36@fault_el1_|
	DCB         0xea
|$LN37@fault_el1_|
	DCB         0xee
|$LN38@fault_el1_|
	DCB         0xf2

	ENDP  ; |fault_el1_handler|

; Function compile flags: /Odtpy
; File C:\Users\paras\source\repos\grep-name\XenevaOS\KernelAA64\Hal\vector.c

	AREA	|.text$mn|, CODE, ARM64

|irq_el1_handler| PROC

; 193  : void irq_el1_handler(AA64Registers* regs) {

|$LN13|
	str         lr,[sp,#-0x10]!
	sub         sp,sp,#0x10
	str         x0,[sp,#8]

; 194  : 
; 195  : #ifdef __TARGET_BOARD_RPI3__
; 196  :     RPI3_IRQ_handler(regs);
; 197  : #else
; 198  :     uint32_t iar = GICReadIAR();

	bl          GICReadIAR
	mov         w0,w0
	str         w0,[sp,#4]

; 199  :     uint32_t irq = iar & 0x3FF;

	ldr         w8,[sp,#4]
	and         w8,w8,#0x3FF
	str         w8,[sp]

; 200  :     if (irq < 1020) {

	ldr         w8,[sp]
	cmp         w8,#0x3FC
	bhs         |$LN2@irq_el1_ha|

; 201  :         if (irq == 27) {

	ldr         w8,[sp]
	cmp         w8,#0x1B
	bne         |$LN3@irq_el1_ha|

; 202  :             suspendTimer(); //<--- suspecting this line 

	bl          suspendTimer

; 203  :             setupTimerIRQ();

	bl          setupTimerIRQ

; 204  :             GICSendEOI(iar);

	ldr         w0,[sp,#4]
	bl          GICSendEOI

; 205  :             GICCheckPending(irq);

	ldr         w0,[sp]
	bl          GICCheckPending

; 206  : 
; 207  :             /** handle expired timers **/
; 208  :             AuroraTimerTick();

	bl          AuroraTimerTick

; 209  : 
; 210  :             AuScheduleThread(regs);

	ldr         x0,[sp,#8]
	bl          AuScheduleThread

; 211  :         }

	b           |$LN4@irq_el1_ha|
|$LN3@irq_el1_ha|

; 212  :         /*else if (irq == 27) {
; 213  :             AuTextOut("Virtual Timer IRQ fired %d \n", irq);
; 214  :         }*/
; 215  :         else if (irq == 33) {

	ldr         w8,[sp]
	cmp         w8,#0x21
	bne         |$LN5@irq_el1_ha|

; 216  :             AuTextOut("PS/2 Keyboard irq fired %d\n", irq);

	ldr         w1,[sp]
	adrp        x8,|$SG3782|
	add         x0,x8,PageOffset(|$SG3782|)
	bl          AuTextOut

; 217  :             GICSendEOI(iar);

	ldr         w0,[sp,#4]
	bl          GICSendEOI

; 218  :             GICCheckPending(irq);

	ldr         w0,[sp]
	bl          GICCheckPending

; 219  :         }

	b           |$LN6@irq_el1_ha|
|$LN5@irq_el1_ha|

; 220  :         else if (irq == UART0_IRQ) {

	ldr         w8,[sp]
	cmp         w8,#1
	bne         |$LN7@irq_el1_ha|

; 221  :             AuTextOut("UART0 IRQ fired %d \n", irq);

	ldr         w1,[sp]
	adrp        x8,|$SG3785|
	add         x0,x8,PageOffset(|$SG3785|)
	bl          AuTextOut

; 222  :             GICSendEOI(iar);

	ldr         w0,[sp,#4]
	bl          GICSendEOI

; 223  :             GICCheckPending(irq);

	ldr         w0,[sp]
	bl          GICCheckPending

; 224  :         }

	b           |$LN8@irq_el1_ha|
|$LN7@irq_el1_ha|

; 225  :         else if (irq == 2) {

	ldr         w8,[sp]
	cmp         w8,#2
	bne         |$LN9@irq_el1_ha|

; 226  :             AuTextOut("PL031 RTC IRQ %d \n", irq);

	ldr         w1,[sp]
	adrp        x8,|$SG3787|
	add         x0,x8,PageOffset(|$SG3787|)
	bl          AuTextOut

; 227  :             AuPL031RTCIRQHandle();

	bl          AuPL031RTCIRQHandle

; 228  :             GICSendEOI(iar);

	ldr         w0,[sp,#4]
	bl          GICSendEOI

; 229  :             GICCheckPending(irq);

	ldr         w0,[sp]
	bl          GICCheckPending
|$LN9@irq_el1_ha|
|$LN8@irq_el1_ha|
|$LN6@irq_el1_ha|
|$LN4@irq_el1_ha|
|$LN2@irq_el1_ha|

; 230  :         }
; 231  :     }
; 232  :     // GICClearPendingIRQ(irq);
; 233  :     if (irq >= 1020) {

	ldr         w8,[sp]
	cmp         w8,#0x3FC
	blo         |$LN10@irq_el1_ha|

; 234  :         UARTDebugOut("Spurious irq %d\n", irq);

	ldr         w1,[sp]
	adrp        x8,|$SG3789|
	add         x0,x8,PageOffset(|$SG3789|)
	bl          UARTDebugOut

; 235  :         return;

	b           |$LN1@irq_el1_ha|
|$LN10@irq_el1_ha|

; 236  :     }
; 237  :   
; 238  :     if (irq >= 32 && irq < 1022) {

	ldr         w8,[sp]
	cmp         w8,#0x20
	blo         |$LN11@irq_el1_ha|
	ldr         w8,[sp]
	cmp         w8,#0x3FE
	bhs         |$LN11@irq_el1_ha|

; 239  :         GICCallSPIHandler(irq);

	ldr         w0,[sp]
	bl          GICCallSPIHandler

; 240  :         GICSendEOI(iar);

	ldr         w0,[sp,#4]
	bl          GICSendEOI
|$LN11@irq_el1_ha|
|$LN1@irq_el1_ha|
	add         sp,sp,#0x10
	ldr         lr,[sp],#0x10
	ret

	ENDP  ; |irq_el1_handler|

; Function compile flags: /Odtpy
; File C:\Users\paras\source\repos\grep-name\XenevaOS\KernelAA64\Hal\vector.c

	AREA	|.text$mn|, CODE, ARM64

|setuprint| PROC

; 190  :     _userprint = 1;

	adrp        x9,_userprint
	mov         w8,#1
	strb        w8,[x9,PageOffset(_userprint)]
	ret

	ENDP  ; |setuprint|

; Function compile flags: /Odtpy
; File C:\Users\paras\source\repos\grep-name\XenevaOS\KernelAA64\Hal\vector.c

	AREA	|.text$mn|, CODE, ARM64

|sync_el1_handler| PROC

; 73   : void sync_el1_handler(AA64Registers *regs) {

|$LN82|
	sub         sp,sp,#0x10
	stp         x19,lr,[sp]
	sub         sp,sp,#0x70
	str         x0,[sp,#0x30]

; 74   : 
; 75   :     uint64_t esr = read_esr_el1();

	bl          read_esr_el1
	str         x0,[sp,#0x28]

; 76   : 
; 77   :     if ((esr >> 26) == 0x15) {

	ldr         x8,[sp,#0x28]
	lsr         x8,x8,#0x1A
	cmp         x8,#0x15
	bne         |$LN8@sync_el1_h|

; 78   :         AuAA64SyscallHandler(regs);

	ldr         x0,[sp,#0x30]
	bl          AuAA64SyscallHandler

; 79   :        // enable_irqs();
; 80   :         return;

	b           |$LN1@sync_el1_h|
|$LN8@sync_el1_h|

; 81   :     }
; 82   : 
; 83   :     uint32_t ec = (esr >> 26) & 0x3F;

	ldr         x8,[sp,#0x28]
	ubfx        x8,x8,#0x1A,#6
	mov         w8,w8
	str         w8,[sp,#0x10]

; 84   : 
; 85   :     AuTextOut("======Synch exception=======\r\n");

	adrp        x8,|$SG3684|
	add         x0,x8,PageOffset(|$SG3684|)
	bl          AuTextOut

; 86   :     AuTextOut("FAR: %x, PC: %x \r\n", read_far_el1(), read_elr_el1());

	bl          read_elr_el1
	mov         x19,x0
	bl          read_far_el1
	mov         x2,x19
	mov         x1,x0
	adrp        x8,|$SG3685|
	add         x0,x8,PageOffset(|$SG3685|)
	bl          AuTextOut

; 87   : 
; 88   : 
; 89   : 
; 90   :     uint32_t dfsc = esr & 0x3F;

	ldr         x8,[sp,#0x28]
	and         x8,x8,#0x3F
	mov         w8,w8
	str         w8,[sp,#8]

; 91   : 
; 92   :     switch (dfsc) {

	ldr         w8,[sp,#8]
	str         w8,[sp,#0xC]
	ldr         w8,[sp,#0xC]
	cmp         w8,#0xF
	bhi         |$LN23@sync_el1_h|
	ldr         w10,[sp,#0xC]
	adr         x9,__swt
	ldrsw       x8,[x9,w10 uxtw #2]
	adr         x9,|$LN48@sync_el1_h|
	add         x8,x9,x8,lsl #2
	br          x8
|$LN9@sync_el1_h|

; 93   :     case 0b000000: AuTextOut("Address size, fault level 0 \r\n"); break;

	adrp        x8,|$SG3687|
	add         x0,x8,PageOffset(|$SG3687|)
	bl          AuTextOut
	b           |$LN2@sync_el1_h|
|$LN10@sync_el1_h|

; 94   :     case 0b000001: AuTextOut("Address Size, fault level 1 \r\n"); break;

	adrp        x8,|$SG3689|
	add         x0,x8,PageOffset(|$SG3689|)
	bl          AuTextOut
	b           |$LN2@sync_el1_h|
|$LN11@sync_el1_h|

; 95   :     case 0b000010: AuTextOut("Address size, fault level 2 \r\n"); break;

	adrp        x8,|$SG3691|
	add         x0,x8,PageOffset(|$SG3691|)
	bl          AuTextOut
	b           |$LN2@sync_el1_h|
|$LN12@sync_el1_h|

; 96   :     case 0b000011: AuTextOut("Address size, fault level 3 \r\n"); break;

	adrp        x8,|$SG3693|
	add         x0,x8,PageOffset(|$SG3693|)
	bl          AuTextOut
	b           |$LN2@sync_el1_h|
|$LN13@sync_el1_h|

; 97   :     case 0b000100: AuTextOut("translation, fault level 0 \r\n"); break;

	adrp        x8,|$SG3695|
	add         x0,x8,PageOffset(|$SG3695|)
	bl          AuTextOut
	b           |$LN2@sync_el1_h|
|$LN14@sync_el1_h|

; 98   :     case 0b000101: AuTextOut("translation, fault level 1 \r\n"); break;

	adrp        x8,|$SG3697|
	add         x0,x8,PageOffset(|$SG3697|)
	bl          AuTextOut
	b           |$LN2@sync_el1_h|
|$LN15@sync_el1_h|

; 99   :     case 0b000110: AuTextOut("translation, fault level 2 \r\n"); break;

	adrp        x8,|$SG3699|
	add         x0,x8,PageOffset(|$SG3699|)
	bl          AuTextOut
	b           |$LN2@sync_el1_h|
|$LN16@sync_el1_h|
|$LN48@sync_el1_h|

; 100  :     case 0b000111: AuTextOut("translation, fault level 3 \r\n"); break;

	adrp        x8,|$SG3701|
	add         x0,x8,PageOffset(|$SG3701|)
	bl          AuTextOut
	b           |$LN2@sync_el1_h|
|$LN17@sync_el1_h|

; 101  :     case 0b001001: AuTextOut("access flag, fault level 1 \r\n"); break;

	adrp        x8,|$SG3703|
	add         x0,x8,PageOffset(|$SG3703|)
	bl          AuTextOut
	b           |$LN2@sync_el1_h|
|$LN18@sync_el1_h|

; 102  :     case 0b001010: AuTextOut("access flag, fault level 2 \r\n"); break;

	adrp        x8,|$SG3705|
	add         x0,x8,PageOffset(|$SG3705|)
	bl          AuTextOut
	b           |$LN2@sync_el1_h|
|$LN19@sync_el1_h|

; 103  :     case 0b001011: AuTextOut("access flag, fault level 3 \r\n"); break;

	adrp        x8,|$SG3707|
	add         x0,x8,PageOffset(|$SG3707|)
	bl          AuTextOut
	b           |$LN2@sync_el1_h|
|$LN20@sync_el1_h|

; 104  :     case 0b001101: AuTextOut("permission fault, level 1 \r\n"); break;

	adrp        x8,|$SG3709|
	add         x0,x8,PageOffset(|$SG3709|)
	bl          AuTextOut
	b           |$LN2@sync_el1_h|
|$LN21@sync_el1_h|

; 105  :     case 0b001110: AuTextOut("permission fault, level 2 \r\n"); break;

	adrp        x8,|$SG3711|
	add         x0,x8,PageOffset(|$SG3711|)
	bl          AuTextOut
	b           |$LN2@sync_el1_h|
|$LN22@sync_el1_h|

; 106  :     case 0b001111: AuTextOut("permission fault, level 3 \r\n"); break;

	adrp        x8,|$SG3713|
	add         x0,x8,PageOffset(|$SG3713|)
	bl          AuTextOut
	b           |$LN2@sync_el1_h|
|$LN23@sync_el1_h|

; 107  :     default: AuTextOut("Unknown fault code \r\n"); break;

	adrp        x8,|$SG3715|
	add         x0,x8,PageOffset(|$SG3715|)
	bl          AuTextOut
|$LN2@sync_el1_h|

; 108  :     }
; 109  :     UARTDebugOut("=======Synchronous Exception occured========= \r\n");

	adrp        x8,|$SG3716|
	add         x0,x8,PageOffset(|$SG3716|)
	bl          UARTDebugOut

; 110  :     //AuTextOut("Fault Address (FAR_EL1): %x \r\n", read_far_el1());
; 111  :     UARTDebugOut("Fault Address (FAR_EL1): %x \r\n", read_far_el1());

	bl          read_far_el1
	mov         x1,x0
	adrp        x8,|$SG3717|
	add         x0,x8,PageOffset(|$SG3717|)
	bl          UARTDebugOut

; 112  :     //UARTDebugOut("Fault Address String (FAR_EL1): %s \n", read_far_el1());
; 113  :     //AuTextOut("Fault Instruction (ELR_EL1): %x \r\n", read_elr_el1());
; 114  :     UARTDebugOut("Fault Instruction (ELR_EL1): %x \r\n", read_elr_el1());

	bl          read_elr_el1
	mov         x1,x0
	adrp        x8,|$SG3718|
	add         x0,x8,PageOffset(|$SG3718|)
	bl          UARTDebugOut

; 115  :    // AuTextOut("SP_EL1: %x  \r\n", read_sp());
; 116  :    // AuTextOut("SP_EL0 : %x \r\n", regs->EL0SP);
; 117  :     UARTDebugOut("Current SPSel : %d \r\n", read_spsel());

	bl          read_spsel
	mov         x1,x0
	adrp        x8,|$SG3719|
	add         x0,x8,PageOffset(|$SG3719|)
	bl          UARTDebugOut

; 118  :     UARTDebugOut("EC class : %x \r\n", ec);

	ldr         w1,[sp,#0x10]
	adrp        x8,|$SG3720|
	add         x0,x8,PageOffset(|$SG3720|)
	bl          UARTDebugOut

; 119  : 
; 120  :     /** check if the fault occured on drivers **/
; 121  :     AuDriver* drv = AuDrvManagerCheckFault(read_elr_el1());

	bl          read_elr_el1
	bl          AuDrvManagerCheckFault
	str         x0,[sp,#0x38]

; 122  :     if (drv) {

	ldr         x8,[sp,#0x38]
	cmp         x8,#0
	beq         |$LN24@sync_el1_h|

; 123  :         UARTDebugOut("======CRASH in Kernel Driver====== \r\n");

	adrp        x8,|$SG3722|
	add         x0,x8,PageOffset(|$SG3722|)
	bl          UARTDebugOut

; 124  :         AuDrvCatchFault(drv, read_elr_el1());

	bl          read_elr_el1
	mov         x1,x0
	ldr         x0,[sp,#0x38]
	bl          AuDrvCatchFault
|$LN24@sync_el1_h|

; 125  :     }
; 126  :     
; 127  : 
; 128  :     AA64Thread* currthr = AuGetCurrentThread();

	bl          AuGetCurrentThread
	str         x0,[sp]

; 129  :     if (currthr) {

	ldr         x8,[sp]
	cmp         x8,#0
	beq         |$LN25@sync_el1_h|

; 130  :         UARTDebugOut("Current Thread: %s \r\n", currthr->name);

	ldr         x8,[sp]
	add         x1,x8,#0xD0
	adrp        x8,|$SG3724|
	add         x0,x8,PageOffset(|$SG3724|)
	bl          UARTDebugOut

; 131  :         AuTextOut("Current Thread: %s \r\n", currthr->name);

	ldr         x8,[sp]
	add         x1,x8,#0xD0
	adrp        x8,|$SG3725|
	add         x0,x8,PageOffset(|$SG3725|)
	bl          AuTextOut

; 132  :         AuDumpRegisters(currthr, regs);

	ldr         x1,[sp,#0x30]
	ldr         x0,[sp]
	bl          AuDumpRegisters
|$LN25@sync_el1_h|

; 133  :     }
; 134  : 
; 135  :     if (ec == 0x25) {

	ldr         w8,[sp,#0x10]
	cmp         w8,#0x25
	bne         |$LN26@sync_el1_h|

; 136  :         AuTextOut("Stack alignment fault \r\n");

	adrp        x8,|$SG3727|
	add         x0,x8,PageOffset(|$SG3727|)
	bl          AuTextOut

; 137  :         AuDumpRegisters(currthr, regs);

	ldr         x1,[sp,#0x30]
	ldr         x0,[sp]
	bl          AuDumpRegisters
|$LN26@sync_el1_h|

; 138  :     }
; 139  : 
; 140  :     size_t totalRam = (AuPmmngrGetTotalMem()*0x1000) / 1024 / 1024;

	bl          AuPmmngrGetTotalMem
	mov         x8,#0x1000
	mul         x9,x0,x8
	mov         x8,#0x400
	udiv        x9,x9,x8
	mov         x8,#0x400
	udiv        x8,x9,x8
	str         x8,[sp,#0x50]

; 141  :     size_t usedRam = (AuPmmngrGetUsedMem()*0x1000) / 1024 / 1024;

	bl          AuPmmngrGetUsedMem
	mov         x8,#0x1000
	mul         x9,x0,x8
	mov         x8,#0x400
	udiv        x9,x9,x8
	mov         x8,#0x400
	udiv        x8,x9,x8
	str         x8,[sp,#0x48]

; 142  :     size_t freeRam = (AuPmmngrGetFreeMem()*0x1000) / 1024 / 1024;

	bl          AuPmmngrGetFreeMem
	mov         x8,#0x1000
	mul         x9,x0,x8
	mov         x8,#0x400
	udiv        x9,x9,x8
	mov         x8,#0x400
	udiv        x8,x9,x8
	str         x8,[sp,#0x40]

; 143  :     AuTextOut("Total RAM : %d MiB, Used RAM : %d MiB , Free RAM : %d MiB\r\n", totalRam, usedRam, freeRam);

	ldr         x3,[sp,#0x40]
	ldr         x2,[sp,#0x48]
	ldr         x1,[sp,#0x50]
	adrp        x8,|$SG3728|
	add         x0,x8,PageOffset(|$SG3728|)
	bl          AuTextOut

; 144  : 
; 145  :     AuProcess* proc = NULL;

	mov         x8,#0
	str         x8,[sp,#0x18]

; 146  :     if (currthr) {

	ldr         x8,[sp]
	cmp         x8,#0
	beq         |$LN27@sync_el1_h|

; 147  :         proc = AuProcessFindThread(currthr);

	ldr         x0,[sp]
	bl          AuProcessFindThread
	str         x0,[sp,#0x18]

; 148  :         if (!proc)

	ldr         x8,[sp,#0x18]
	cmp         x8,#0
	bne         |$LN28@sync_el1_h|

; 149  :             proc = AuProcessFindSubThread(currthr);

	ldr         x0,[sp]
	bl          AuProcessFindSubThread
	str         x0,[sp,#0x18]
|$LN28@sync_el1_h|
|$LN27@sync_el1_h|

; 150  :     }
; 151  : 
; 152  :     AuVMArea* vma = NULL;

	mov         x8,#0
	str         x8,[sp,#0x20]

; 153  :     if (proc)

	ldr         x8,[sp,#0x18]
	cmp         x8,#0
	beq         |$LN29@sync_el1_h|

; 154  :         vma = AuVMAreaGet(proc, read_elr_el1());

	bl          read_elr_el1
	mov         x1,x0
	ldr         x0,[sp,#0x18]
	bl          AuVMAreaGet
	str         x0,[sp,#0x20]
|$LN29@sync_el1_h|

; 155  :     if (vma) {

	ldr         x8,[sp,#0x20]
	cmp         x8,#0
	beq         |$LN30@sync_el1_h|

; 156  :         UARTDebugOut("VMA Start -> %x \r\n", vma->start);

	ldr         x8,[sp,#0x20]
	ldr         x1,[x8]
	adrp        x8,|$SG3733|
	add         x0,x8,PageOffset(|$SG3733|)
	bl          UARTDebugOut

; 157  :         uint64_t offset = (read_elr_el1() - vma->start);

	bl          read_elr_el1
	ldr         x8,[sp,#0x20]
	ldr         x8,[x8]
	sub         x8,x0,x8
	str         x8,[sp,#0x58]

; 158  :         uint64_t realAddress = 0x600000000 + offset;

	ldr         x9,[sp,#0x58]
	mov         x8,#0x600000000
	add         x8,x9,x8
	str         x8,[sp,#0x60]

; 159  :         UARTDebugOut("original address of the process -> %x  %x\r\n", read_elr_el1(), realAddress);

	bl          read_elr_el1
	ldr         x2,[sp,#0x60]
	mov         x1,x0
	adrp        x8,|$SG3734|
	add         x0,x8,PageOffset(|$SG3734|)
	bl          UARTDebugOut
|$LN30@sync_el1_h|

; 160  :     }
; 161  : 
; 162  :     dfsc = esr & 0x3F;

	ldr         x8,[sp,#0x28]
	and         x8,x8,#0x3F
	mov         w8,w8
	str         w8,[sp,#8]

; 163  : 
; 164  :     switch (dfsc) {

	ldr         w8,[sp,#8]
	str         w8,[sp,#0x14]
	ldr         w8,[sp,#0x14]
	cmp         w8,#0xF
	bhi         |$LN45@sync_el1_h|
	ldr         w10,[sp,#0x14]
	adr         x9,__swt
	ldrsb       x8,[x9,w10 uxtw #0]
	add         x8,x9,x8,lsl #2
	br          x8
|$LN31@sync_el1_h|

; 165  :     case 0b000000: AuTextOut("Address size, fault level 0 \r\n"); break;

	adrp        x8,|$SG3736|
	add         x0,x8,PageOffset(|$SG3736|)
	bl          AuTextOut
	b           |$LN4@sync_el1_h|
|$LN32@sync_el1_h|

; 166  :     case 0b000001: AuTextOut("Address Size, fault level 1 \r\n"); break;

	adrp        x8,|$SG3738|
	add         x0,x8,PageOffset(|$SG3738|)
	bl          AuTextOut
	b           |$LN4@sync_el1_h|
|$LN33@sync_el1_h|

; 167  :     case 0b000010: AuTextOut("Address size, fault level 2 \r\n"); break;

	adrp        x8,|$SG3740|
	add         x0,x8,PageOffset(|$SG3740|)
	bl          AuTextOut
	b           |$LN4@sync_el1_h|
|$LN34@sync_el1_h|

; 168  :     case 0b000011: AuTextOut("Address size, fault level 3 \r\n"); break;

	adrp        x8,|$SG3742|
	add         x0,x8,PageOffset(|$SG3742|)
	bl          AuTextOut
	b           |$LN4@sync_el1_h|
|$LN35@sync_el1_h|

; 169  :     case 0b000100: AuTextOut("translation, fault level 0 \r\n"); break;

	adrp        x8,|$SG3744|
	add         x0,x8,PageOffset(|$SG3744|)
	bl          AuTextOut
	b           |$LN4@sync_el1_h|
|$LN36@sync_el1_h|

; 170  :     case 0b000101: AuTextOut("translation, fault level 1 \r\n"); break;

	adrp        x8,|$SG3746|
	add         x0,x8,PageOffset(|$SG3746|)
	bl          AuTextOut
	b           |$LN4@sync_el1_h|
|$LN37@sync_el1_h|

; 171  :     case 0b000110: AuTextOut("translation, fault level 2 \r\n"); break;

	adrp        x8,|$SG3748|
	add         x0,x8,PageOffset(|$SG3748|)
	bl          AuTextOut
	b           |$LN4@sync_el1_h|
|$LN38@sync_el1_h|

; 172  :     case 0b000111: AuTextOut("translation, fault level 3 \r\n"); break;

	adrp        x8,|$SG3750|
	add         x0,x8,PageOffset(|$SG3750|)
	bl          AuTextOut
	b           |$LN4@sync_el1_h|
|$LN39@sync_el1_h|

; 173  :     case 0b001001: AuTextOut("access flag, fault level 1 \r\n"); break;

	adrp        x8,|$SG3752|
	add         x0,x8,PageOffset(|$SG3752|)
	bl          AuTextOut
	b           |$LN4@sync_el1_h|
|$LN40@sync_el1_h|

; 174  :     case 0b001010: AuTextOut("access flag, fault level 2 \r\n"); break;

	adrp        x8,|$SG3754|
	add         x0,x8,PageOffset(|$SG3754|)
	bl          AuTextOut
	b           |$LN4@sync_el1_h|
|$LN41@sync_el1_h|

; 175  :     case 0b001011: AuTextOut("access flag, fault level 3 \r\n"); break;

	adrp        x8,|$SG3756|
	add         x0,x8,PageOffset(|$SG3756|)
	bl          AuTextOut
	b           |$LN4@sync_el1_h|
|$LN42@sync_el1_h|

; 176  :     case 0b001101: AuTextOut("permission fault, level 1 \r\n"); break;

	adrp        x8,|$SG3758|
	add         x0,x8,PageOffset(|$SG3758|)
	bl          AuTextOut
	b           |$LN4@sync_el1_h|
|$LN43@sync_el1_h|

; 177  :     case 0b001110: AuTextOut("permission fault, level 2 \r\n"); break;

	adrp        x8,|$SG3760|
	add         x0,x8,PageOffset(|$SG3760|)
	bl          AuTextOut
	b           |$LN4@sync_el1_h|
|$LN44@sync_el1_h|

; 178  :     case 0b001111: AuTextOut("permission fault, level 3 \r\n"); break;

	adrp        x8,|$SG3762|
	add         x0,x8,PageOffset(|$SG3762|)
	bl          AuTextOut
	b           |$LN4@sync_el1_h|
|$LN45@sync_el1_h|

; 179  :     default: AuTextOut("Unknown fault code \r\n"); break;

	adrp        x8,|$SG3764|
	add         x0,x8,PageOffset(|$SG3764|)
	bl          AuTextOut
|$LN4@sync_el1_h|
|$LN6@sync_el1_h|

; 180  :     }
; 181  : 	while (1) {}

	mov         w8,#1
	cmp         w8,#0
	beq         |$LN7@sync_el1_h|
	b           |$LN6@sync_el1_h|
|$LN7@sync_el1_h|
|$LN1@sync_el1_h|
	add         sp,sp,#0x70
	ldp         x19,lr,[sp]
	add         sp,sp,#0x10
	ret
|__swt|
|$LN49@sync_el1_h|

; 91   : 
; 92   :     switch (dfsc) {

	DCD         0xffffffe4
|$LN50@sync_el1_h|
	DCD         0xffffffe8
|$LN51@sync_el1_h|
	DCD         0xffffffec
|$LN52@sync_el1_h|
	DCD         0xfffffff0
|$LN53@sync_el1_h|
	DCD         0xfffffff4
|$LN54@sync_el1_h|
	DCD         0xfffffff8
|$LN55@sync_el1_h|
	DCD         0xfffffffc
|$LN56@sync_el1_h|
	DCD         0x0
|$LN57@sync_el1_h|
	DCD         0x1c
|$LN58@sync_el1_h|
	DCD         0x4
|$LN59@sync_el1_h|
	DCD         0x8
|$LN60@sync_el1_h|
	DCD         0xc
|$LN61@sync_el1_h|
	DCD         0x1c
|$LN62@sync_el1_h|
	DCD         0x10
|$LN63@sync_el1_h|
	DCD         0x14
|$LN64@sync_el1_h|
	DCD         0x18
|__swt|
|$LN66@sync_el1_h|

; 163  : 
; 164  :     switch (dfsc) {

	DCB         0xad
|$LN67@sync_el1_h|
	DCB         0xb1
|$LN68@sync_el1_h|
	DCB         0xb5
|$LN69@sync_el1_h|
	DCB         0xb9
|$LN70@sync_el1_h|
	DCB         0xbd
|$LN71@sync_el1_h|
	DCB         0xc1
|$LN72@sync_el1_h|
	DCB         0xc5
|$LN73@sync_el1_h|
	DCB         0xc9
|$LN74@sync_el1_h|
	DCB         0xe5
|$LN75@sync_el1_h|
	DCB         0xcd
|$LN76@sync_el1_h|
	DCB         0xd1
|$LN77@sync_el1_h|
	DCB         0xd5
|$LN78@sync_el1_h|
	DCB         0xe5
|$LN79@sync_el1_h|
	DCB         0xd9
|$LN80@sync_el1_h|
	DCB         0xdd
|$LN81@sync_el1_h|
	DCB         0xe1

	ENDP  ; |sync_el1_handler|

; Function compile flags: /Odtpy
; File C:\Users\paras\source\repos\grep-name\XenevaOS\KernelAA64\Hal\vector.c

	AREA	|.text$mn|, CODE, ARM64

|AuDumpRegisters| PROC

; 51   : void AuDumpRegisters(AA64Thread* thr, AA64Registers* regs) {

|$LN4|
	str         lr,[sp,#-0x10]!
	sub         sp,sp,#0x10
	str         x0,[sp,#8]
	str         x1,[sp]

; 52   :     UARTDebugOut("===REGISTER DUMP===\r\n");

	adrp        x8,|$SG3643|
	add         x0,x8,PageOffset(|$SG3643|)
	bl          UARTDebugOut

; 53   :     UARTDebugOut("x0: %x x1: %x \r\n", regs->x0, regs->x1);

	ldr         x8,[sp]
	add         x9,x8,#0xF8
	ldr         x8,[sp]
	add         x8,x8,#0xF0
	ldr         x2,[x9]
	ldr         x1,[x8]
	adrp        x8,|$SG3644|
	add         x0,x8,PageOffset(|$SG3644|)
	bl          UARTDebugOut

; 54   :     UARTDebugOut("x2: %x x3: %x \r\n", regs->x2, regs->x3);

	ldr         x8,[sp]
	add         x9,x8,#0xE8
	ldr         x8,[sp]
	add         x8,x8,#0xE0
	ldr         x2,[x9]
	ldr         x1,[x8]
	adrp        x8,|$SG3645|
	add         x0,x8,PageOffset(|$SG3645|)
	bl          UARTDebugOut

; 55   :     UARTDebugOut("x4: %x x5: %x \r\n", regs->x4, regs->x5);

	ldr         x8,[sp]
	add         x9,x8,#0xD8
	ldr         x8,[sp]
	add         x8,x8,#0xD0
	ldr         x2,[x9]
	ldr         x1,[x8]
	adrp        x8,|$SG3646|
	add         x0,x8,PageOffset(|$SG3646|)
	bl          UARTDebugOut

; 56   :     UARTDebugOut("x6: %x x7: %x \r\n", regs->x6, regs->x7);

	ldr         x8,[sp]
	add         x9,x8,#0xC8
	ldr         x8,[sp]
	add         x8,x8,#0xC0
	ldr         x2,[x9]
	ldr         x1,[x8]
	adrp        x8,|$SG3647|
	add         x0,x8,PageOffset(|$SG3647|)
	bl          UARTDebugOut

; 57   :     UARTDebugOut("x8: %x x9: %x \r\n", regs->x8, regs->x9);

	ldr         x8,[sp]
	add         x9,x8,#0xB8
	ldr         x8,[sp]
	add         x8,x8,#0xB0
	ldr         x2,[x9]
	ldr         x1,[x8]
	adrp        x8,|$SG3648|
	add         x0,x8,PageOffset(|$SG3648|)
	bl          UARTDebugOut

; 58   :     UARTDebugOut("x10: %x x11: %x \r\n", regs->x10, regs->x11);

	ldr         x8,[sp]
	add         x9,x8,#0xA8
	ldr         x8,[sp]
	add         x8,x8,#0xA0
	ldr         x2,[x9]
	ldr         x1,[x8]
	adrp        x8,|$SG3649|
	add         x0,x8,PageOffset(|$SG3649|)
	bl          UARTDebugOut

; 59   :     UARTDebugOut("x12: %x x13: %x \r\n", regs->x12, regs->x13);

	ldr         x8,[sp]
	add         x9,x8,#0x98
	ldr         x8,[sp]
	add         x8,x8,#0x90
	ldr         x2,[x9]
	ldr         x1,[x8]
	adrp        x8,|$SG3650|
	add         x0,x8,PageOffset(|$SG3650|)
	bl          UARTDebugOut

; 60   :     UARTDebugOut("x14: %x x15: %x \r\n", regs->x14, regs->x15);

	ldr         x8,[sp]
	add         x9,x8,#0x88
	ldr         x8,[sp]
	add         x8,x8,#0x80
	ldr         x2,[x9]
	ldr         x1,[x8]
	adrp        x8,|$SG3651|
	add         x0,x8,PageOffset(|$SG3651|)
	bl          UARTDebugOut

; 61   :     UARTDebugOut("x16: %x x17: %x \r\n", regs->x16, regs->x17);

	ldr         x8,[sp]
	add         x9,x8,#0x78
	ldr         x8,[sp]
	add         x8,x8,#0x70
	ldr         x2,[x9]
	ldr         x1,[x8]
	adrp        x8,|$SG3652|
	add         x0,x8,PageOffset(|$SG3652|)
	bl          UARTDebugOut

; 62   :     UARTDebugOut("x18: %x \r\n", regs->x18);

	ldr         x8,[sp]
	add         x8,x8,#0x60
	ldr         x1,[x8]
	adrp        x8,|$SG3653|
	add         x0,x8,PageOffset(|$SG3653|)
	bl          UARTDebugOut

; 63   :     if (thr) {

	ldr         x8,[sp,#8]
	cmp         x8,#0
	beq         |$LN2@AuDumpRegi|

; 64   :         UARTDebugOut("x19: %x x20: %x \r\n", thr->x19, thr->x20);

	ldr         x8,[sp,#8]
	add         x9,x8,#8
	ldr         x8,[sp,#8]
	ldr         x2,[x9]
	ldr         x1,[x8]
	adrp        x8,|$SG3655|
	add         x0,x8,PageOffset(|$SG3655|)
	bl          UARTDebugOut

; 65   :         UARTDebugOut("x21: %x X22: %x \r\n", thr->x21, thr->x22);

	ldr         x8,[sp,#8]
	add         x9,x8,#0x18
	ldr         x8,[sp,#8]
	add         x8,x8,#0x10
	ldr         x2,[x9]
	ldr         x1,[x8]
	adrp        x8,|$SG3656|
	add         x0,x8,PageOffset(|$SG3656|)
	bl          UARTDebugOut

; 66   :         UARTDebugOut("x23: %x x24: %x \r\n", thr->x23, thr->x24);

	ldr         x8,[sp,#8]
	add         x9,x8,#0x28
	ldr         x8,[sp,#8]
	add         x8,x8,#0x20
	ldr         x2,[x9]
	ldr         x1,[x8]
	adrp        x8,|$SG3657|
	add         x0,x8,PageOffset(|$SG3657|)
	bl          UARTDebugOut

; 67   :         UARTDebugOut("x25: %x x26: %x \r\n", thr->x25, thr->x26);

	ldr         x8,[sp,#8]
	add         x9,x8,#0x38
	ldr         x8,[sp,#8]
	add         x8,x8,#0x30
	ldr         x2,[x9]
	ldr         x1,[x8]
	adrp        x8,|$SG3658|
	add         x0,x8,PageOffset(|$SG3658|)
	bl          UARTDebugOut

; 68   :         UARTDebugOut("x27: %x x28: %x \r\n", thr->x27, thr->x28);

	ldr         x8,[sp,#8]
	add         x9,x8,#0x48
	ldr         x8,[sp,#8]
	add         x8,x8,#0x40
	ldr         x2,[x9]
	ldr         x1,[x8]
	adrp        x8,|$SG3659|
	add         x0,x8,PageOffset(|$SG3659|)
	bl          UARTDebugOut

; 69   :         UARTDebugOut("x29: %x x30: %x \r\n", thr->x29, thr->x30);

	ldr         x8,[sp,#8]
	add         x9,x8,#0x58
	ldr         x8,[sp,#8]
	add         x8,x8,#0x50
	ldr         x2,[x9]
	ldr         x1,[x8]
	adrp        x8,|$SG3660|
	add         x0,x8,PageOffset(|$SG3660|)
	bl          UARTDebugOut
|$LN2@AuDumpRegi|
	add         sp,sp,#0x10
	ldr         lr,[sp],#0x10
	ret

	ENDP  ; |AuDumpRegisters|

	END
