; Listing generated by Microsoft (R) Optimizing Compiler Version 19.29.30159.0 

	TTL	C:\Users\paras\source\repos\grep-name\XenevaOS\KernelAA64\ARM64\Debug\vfs.obj
	ARM64

	AREA	|.drectve|, DRECTVE


	AREA	|.data|, DATA
	 COMMON	|__RootContainer|, 0x8

	 COMMON	|__RootFS|, 0x8


	AREA	|.bss|, NOINIT
|_mount_letters| % 0x1a
|?path@?1??AuVFSReserveMountPointLetter@@9@9| % 0x2	; `AuVFSReserveMountPointLetter'::`2'::path
	EXPORT	|AuVFSInitialise|
	EXPORT	|AuVFSReserveMountPointLetter|
	EXPORT	|AuVFSOpen|
	EXPORT	|AuVFSNodeIOControl|
	EXPORT	|AuVFSAddFileSystem|
	EXPORT	|AuVFSRegisterRoot|
	EXPORT	|AuVFSFind|
	EXPORT	|AuVFSNodeRead|
	EXPORT	|AuVFSNodeReadBlock|
	EXPORT	|AuVFSCreateDir|
	EXPORT	|AuVFSCreateFile|
	EXPORT	|AuVFSRemoveFile|
	EXPORT	|AuVFSRemoveDir|
	EXPORT	|AuVFSNodeWrite|
	EXPORT	|AuVFSNodeClose|
	EXPORT	|AuVFSGetBlockFor|
	EXPORT	|AuVFSSetCred|
	EXPORT	|AuVFSRemoveFileSystem|
	IMPORT	|initialize_list|
	IMPORT	|list_add|
	IMPORT	|list_remove|
	IMPORT	|list_get_at|
	IMPORT	|AuDeviceFsInitialize|
	IMPORT	|kmalloc|
	IMPORT	|kfree|
	IMPORT	|AuVDiskInitialise|
	IMPORT	|strcmp|
	IMPORT	|strchr|
	IMPORT	|AuPipeFSInitialise|
	IMPORT	|dsb_ish|
	IMPORT	|dmb_sy|
	IMPORT	|dsb_sy_barrier|
	IMPORT	|isb_flush|
	IMPORT	|data_cache_flush|
	IMPORT	|aa64_data_cache_clean_range|
	IMPORT	|AuMmngrFileCacheLookup|
	IMPORT	|AuTextOut|

	AREA	|.pdata|, PDATA
|$pdata$AuVFSInitialise| DCD imagerel |$LN6|
	DCD	0x120009d
	;Flags[SingleProEpi] functionLength[156] RegF[0] RegI[0] H[0] frameChainReturn[UnChainedSavedLR] frameSize[32]
|$pdata$AuVFSReserveMountPointLetter| DCD imagerel |$LN7|
	DCD	0x8000b9
	;Flags[SingleProEpi] functionLength[184] RegF[0] RegI[0] H[0] frameChainReturn[UnChained] frameSize[16]
|$pdata$AuVFSOpen| DCD imagerel |$LN19|
	DCD	0x32002f1
	;Flags[SingleProEpi] functionLength[752] RegF[0] RegI[0] H[0] frameChainReturn[UnChainedSavedLR] frameSize[96]
|$pdata$AuVFSNodeIOControl| DCD imagerel |$LN4|
	DCD	0x1a00065
	;Flags[SingleProEpi] functionLength[100] RegF[0] RegI[0] H[0] frameChainReturn[UnChainedSavedLR] frameSize[48]
|$pdata$AuVFSAddFileSystem| DCD imagerel |$LN7|
	DCD	0x1a00091
	;Flags[SingleProEpi] functionLength[144] RegF[0] RegI[0] H[0] frameChainReturn[UnChainedSavedLR] frameSize[48]
|$pdata$AuVFSRegisterRoot| DCD imagerel |$LN4|
	DCD	0x800031
	;Flags[SingleProEpi] functionLength[48] RegF[0] RegI[0] H[0] frameChainReturn[UnChained] frameSize[16]
|$pdata$AuVFSFind| DCD imagerel |$LN14|
	DCD	0x2a001cd
	;Flags[SingleProEpi] functionLength[460] RegF[0] RegI[0] H[0] frameChainReturn[UnChainedSavedLR] frameSize[80]
|$pdata$AuVFSNodeRead| DCD imagerel |$LN5|
	DCD	0x1a0006d
	;Flags[SingleProEpi] functionLength[108] RegF[0] RegI[0] H[0] frameChainReturn[UnChainedSavedLR] frameSize[48]
|$pdata$AuVFSNodeReadBlock| DCD imagerel |$LN5|
	DCD	0x1a00075
	;Flags[SingleProEpi] functionLength[116] RegF[0] RegI[0] H[0] frameChainReturn[UnChainedSavedLR] frameSize[48]
|$pdata$AuVFSCreateDir| DCD imagerel |$LN5|
	DCD	0x1a0006d
	;Flags[SingleProEpi] functionLength[108] RegF[0] RegI[0] H[0] frameChainReturn[UnChainedSavedLR] frameSize[48]
|$pdata$AuVFSCreateFile| DCD imagerel |$LN5|
	DCD	0x1a0006d
	;Flags[SingleProEpi] functionLength[108] RegF[0] RegI[0] H[0] frameChainReturn[UnChainedSavedLR] frameSize[48]
|$pdata$AuVFSRemoveFile| DCD imagerel |$LN9|
	DCD	0x1a000cd
	;Flags[SingleProEpi] functionLength[204] RegF[0] RegI[0] H[0] frameChainReturn[UnChainedSavedLR] frameSize[48]
|$pdata$AuVFSRemoveDir| DCD imagerel |$LN8|
	DCD	0x12000bd
	;Flags[SingleProEpi] functionLength[188] RegF[0] RegI[0] H[0] frameChainReturn[UnChainedSavedLR] frameSize[32]
|$pdata$AuVFSNodeWrite| DCD imagerel |$LN5|
	DCD	0x1a00069
	;Flags[SingleProEpi] functionLength[104] RegF[0] RegI[0] H[0] frameChainReturn[UnChainedSavedLR] frameSize[48]
|$pdata$AuVFSNodeClose| DCD imagerel |$LN4|
	DCD	0x1200049
	;Flags[SingleProEpi] functionLength[72] RegF[0] RegI[0] H[0] frameChainReturn[UnChainedSavedLR] frameSize[32]
|$pdata$AuVFSGetBlockFor| DCD imagerel |$LN5|
	DCD	0x1a00065
	;Flags[SingleProEpi] functionLength[100] RegF[0] RegI[0] H[0] frameChainReturn[UnChainedSavedLR] frameSize[48]
|$pdata$AuVFSSetCred| DCD imagerel |$LN4|
	DCD	0x800051
	;Flags[SingleProEpi] functionLength[80] RegF[0] RegI[0] H[0] frameChainReturn[UnChained] frameSize[16]
|$pdata$AuVFSRemoveFileSystem| DCD imagerel |$LN9|
	DCD	0x1a000e9
	;Flags[SingleProEpi] functionLength[232] RegF[0] RegI[0] H[0] frameChainReturn[UnChainedSavedLR] frameSize[48]

	AREA	|.data|, DATA
|$SG3444| DCB	"[aurora-vfs]: failed to find filesystem assigned to path"
	DCB	" -> %s ", 0xd, 0xa, 0x0
; Function compile flags: /Odtpy
; File C:\Users\paras\source\repos\grep-name\XenevaOS\KernelAA64\Fs\vfs.c

	AREA	|.text$mn|, CODE, ARM64

|AuVFSRemoveFileSystem| PROC

; 379  : AU_EXTERN AU_EXPORT int AuVFSRemoveFileSystem(AuVFSNode* node) {

|$LN9|
	str         lr,[sp,#-0x10]!
	sub         sp,sp,#0x20
	str         x0,[sp,#8]

; 380  : 	int index = 0;

	mov         w8,#0
	str         w8,[sp,#4]

; 381  : 	for (int i = 0; i < __RootContainer->childs->pointer; i++) {

	mov         w8,#0
	str         w8,[sp]
	b           |$LN4@AuVFSRemov|
|$LN2@AuVFSRemov|
	ldr         w8,[sp]
	add         w8,w8,#1
	str         w8,[sp]
|$LN4@AuVFSRemov|
	adrp        x8,__RootContainer
	ldr         x8,[x8,PageOffset(__RootContainer)]
	ldr         x8,[x8]
	ldr         w9,[x8]
	ldr         w8,[sp]
	cmp         w8,w9
	bhs         |$LN3@AuVFSRemov|

; 382  : 		AuVFSNode* _node = (AuVFSNode*)list_get_at(__RootContainer->childs, i);

	adrp        x8,__RootContainer
	ldr         x8,[x8,PageOffset(__RootContainer)]
	ldr         w1,[sp]
	ldr         x0,[x8]
	bl          list_get_at
	str         x0,[sp,#0x10]

; 383  : 		if (_node == node) {

	ldr         x9,[sp,#8]
	ldr         x8,[sp,#0x10]
	cmp         x8,x9
	bne         |$LN5@AuVFSRemov|

; 384  : 			index = i;

	ldr         w8,[sp]
	str         w8,[sp,#4]

; 385  : 			break;

	b           |$LN3@AuVFSRemov|
|$LN5@AuVFSRemov|

; 386  : 		}
; 387  : 	}

	b           |$LN2@AuVFSRemov|
|$LN3@AuVFSRemov|

; 388  : 	list_remove(__RootContainer->childs, index);

	adrp        x8,__RootContainer
	ldr         x8,[x8,PageOffset(__RootContainer)]
	ldr         w1,[sp,#4]
	ldr         x0,[x8]
	bl          list_remove

; 389  : 	if (node->close)

	ldr         x8,[sp,#8]
	add         x8,x8,#0xA0
	ldr         x8,[x8]
	cmp         x8,#0
	beq         |$LN6@AuVFSRemov|

; 390  : 		return node->close(node, NULL);

	ldr         x8,[sp,#8]
	add         x8,x8,#0xA0
	mov         x1,#0
	ldr         x0,[sp,#8]
	ldr         x8,[x8]
	blr         x8
	mov         w0,w0
	mov         w0,w0
	b           |$LN1@AuVFSRemov|
	b           |$LN7@AuVFSRemov|
|$LN6@AuVFSRemov|

; 391  : 	else {
; 392  : 		kfree(node);

	ldr         x0,[sp,#8]
	bl          kfree

; 393  : 		return 0;

	mov         w0,#0
|$LN7@AuVFSRemov|
|$LN1@AuVFSRemov|
	add         sp,sp,#0x20
	ldr         lr,[sp],#0x10
	ret

	ENDP  ; |AuVFSRemoveFileSystem|

; Function compile flags: /Odtpy
; File C:\Users\paras\source\repos\grep-name\XenevaOS\KernelAA64\Fs\vfs.c

	AREA	|.text$mn|, CODE, ARM64

|AuVFSSetCred| PROC

; 422  : AU_EXTERN AU_EXPORT int AuVFSSetCred(AuVFSNode* node,UID_NUM uid, GID_NUM gid) {

|$LN4|
	sub         sp,sp,#0x10
	str         x0,[sp,#8]
	str         w1,[sp]
	str         w2,[sp,#4]

; 423  : 	if (!node)

	ldr         x8,[sp,#8]
	cmp         x8,#0
	bne         |$LN2@AuVFSSetCr|

; 424  : 		return 1;

	mov         w0,#1
	b           |$LN1@AuVFSSetCr|
|$LN2@AuVFSSetCr|

; 425  : 	node->uid = uid;

	ldr         x8,[sp,#8]
	add         x9,x8,#0x44
	ldr         w8,[sp]
	str         w8,[x9]

; 426  : 	node->gid = gid;

	ldr         x8,[sp,#8]
	add         x9,x8,#0x48
	ldr         w8,[sp,#4]
	str         w8,[x9]

; 427  : 	return 0;

	mov         w0,#0
|$LN1@AuVFSSetCr|
	add         sp,sp,#0x10
	ret

	ENDP  ; |AuVFSSetCred|

; Function compile flags: /Odtpy
; File C:\Users\paras\source\repos\grep-name\XenevaOS\KernelAA64\Fs\vfs.c

	AREA	|.text$mn|, CODE, ARM64

|AuVFSGetBlockFor| PROC

; 406  : AU_EXTERN AU_EXPORT size_t AuVFSGetBlockFor(AuVFSNode* node, AuVFSNode* file, uint64_t offset) {

|$LN5|
	str         lr,[sp,#-0x10]!
	sub         sp,sp,#0x20
	str         x0,[sp]
	str         x1,[sp,#0x10]
	str         x2,[sp,#8]

; 407  : 	if (node) {

	ldr         x8,[sp]
	cmp         x8,#0
	beq         |$LN2@AuVFSGetBl|

; 408  : 		if (node->get_blockfor)

	ldr         x8,[sp]
	add         x8,x8,#0xC0
	ldr         x8,[x8]
	cmp         x8,#0
	beq         |$LN3@AuVFSGetBl|

; 409  : 			return node->get_blockfor(node, file, offset);

	ldr         x8,[sp]
	add         x8,x8,#0xC0
	ldr         x2,[sp,#8]
	ldr         x1,[sp,#0x10]
	ldr         x0,[sp]
	ldr         x8,[x8]
	blr         x8
	b           |$LN1@AuVFSGetBl|
|$LN3@AuVFSGetBl|
|$LN2@AuVFSGetBl|

; 410  : 	}
; 411  : 	return -1;

	mov         x0,#-1
|$LN1@AuVFSGetBl|
	add         sp,sp,#0x20
	ldr         lr,[sp],#0x10
	ret

	ENDP  ; |AuVFSGetBlockFor|

; Function compile flags: /Odtpy
; File C:\Users\paras\source\repos\grep-name\XenevaOS\KernelAA64\Fs\vfs.c

	AREA	|.text$mn|, CODE, ARM64

|AuVFSNodeClose| PROC

; 370  : AU_EXTERN AU_EXPORT void AuVFSNodeClose(AuVFSNode* node, AuVFSNode* file) {

|$LN4|
	str         lr,[sp,#-0x10]!
	sub         sp,sp,#0x10
	str         x0,[sp]
	str         x1,[sp,#8]

; 371  : 	if (node->close)

	ldr         x8,[sp]
	add         x8,x8,#0xA0
	ldr         x8,[x8]
	cmp         x8,#0
	beq         |$LN2@AuVFSNodeC|

; 372  : 		node->close(node, file);

	ldr         x8,[sp]
	add         x8,x8,#0xA0
	ldr         x1,[sp,#8]
	ldr         x0,[sp]
	ldr         x8,[x8]
	blr         x8
|$LN2@AuVFSNodeC|
	add         sp,sp,#0x10
	ldr         lr,[sp],#0x10
	ret

	ENDP  ; |AuVFSNodeClose|

; Function compile flags: /Odtpy
; File C:\Users\paras\source\repos\grep-name\XenevaOS\KernelAA64\Fs\vfs.c

	AREA	|.text$mn|, CODE, ARM64

|AuVFSNodeWrite| PROC

; 273  : AU_EXTERN AU_EXPORT void AuVFSNodeWrite(AuVFSNode* node, AuVFSNode* file, uint64_t* buffer, uint32_t length) {

|$LN5|
	str         lr,[sp,#-0x10]!
	sub         sp,sp,#0x20
	str         x0,[sp,#8]
	str         x1,[sp,#0x18]
	str         x2,[sp,#0x10]
	str         w3,[sp]

; 274  : 	if (!node)

	ldr         x8,[sp,#8]
	cmp         x8,#0
	bne         |$LN2@AuVFSNodeW|

; 275  : 		return;

	b           |$LN1@AuVFSNodeW|
|$LN2@AuVFSNodeW|

; 276  : 	if (node->write)

	ldr         x8,[sp,#8]
	add         x8,x8,#0x78
	ldr         x8,[x8]
	cmp         x8,#0
	beq         |$LN3@AuVFSNodeW|

; 277  : 		node->write(node, file, buffer, length);

	ldr         x8,[sp,#8]
	add         x8,x8,#0x78
	ldr         w3,[sp]
	ldr         x2,[sp,#0x10]
	ldr         x1,[sp,#0x18]
	ldr         x0,[sp,#8]
	ldr         x8,[x8]
	blr         x8
|$LN3@AuVFSNodeW|
|$LN1@AuVFSNodeW|
	add         sp,sp,#0x20
	ldr         lr,[sp],#0x10
	ret

	ENDP  ; |AuVFSNodeWrite|

; Function compile flags: /Odtpy
; File C:\Users\paras\source\repos\grep-name\XenevaOS\KernelAA64\Fs\vfs.c

	AREA	|.text$mn|, CODE, ARM64

|AuVFSRemoveDir| PROC

; 353  : int AuVFSRemoveDir(AuVFSNode* fsys, AuVFSNode* file) {

|$LN8|
	str         lr,[sp,#-0x10]!
	sub         sp,sp,#0x10
	str         x0,[sp,#8]
	str         x1,[sp]

; 354  : 	if (!fsys)

	ldr         x8,[sp,#8]
	cmp         x8,#0
	bne         |$LN2@AuVFSRemov|

; 355  : 		return -1;

	mov         w0,#-1
	b           |$LN1@AuVFSRemov|
|$LN2@AuVFSRemov|

; 356  : 	if (!file)

	ldr         x8,[sp]
	cmp         x8,#0
	bne         |$LN3@AuVFSRemov|

; 357  : 		return -1;

	mov         w0,#-1
	b           |$LN1@AuVFSRemov|
|$LN3@AuVFSRemov|

; 358  : 	if ((file->flags & FS_FLAG_DEVICE) || (file->flags & FS_FLAG_FILE_SYSTEM))

	ldr         x8,[sp]
	add         x8,x8,#0x40
	ldrh        w8,[x8]
	mov         w8,w8
	tbnz        x8,#3,|$LN5@AuVFSRemov|
	ldr         x8,[sp]
	add         x8,x8,#0x40
	ldrh        w8,[x8]
	mov         w8,w8
	tbz         x8,#6,|$LN4@AuVFSRemov|
|$LN5@AuVFSRemov|

; 359  : 		return -1;

	mov         w0,#-1
	b           |$LN1@AuVFSRemov|
|$LN4@AuVFSRemov|

; 360  : 	if (fsys->remove_dir && (file->flags & FS_FLAG_DIRECTORY))

	ldr         x8,[sp,#8]
	add         x8,x8,#0x90
	ldr         x8,[x8]
	cmp         x8,#0
	beq         |$LN6@AuVFSRemov|
	ldr         x8,[sp]
	add         x8,x8,#0x40
	ldrh        w8,[x8]
	mov         w8,w8
	tbz         x8,#1,|$LN6@AuVFSRemov|

; 361  : 		return fsys->remove_dir(fsys, file);

	ldr         x8,[sp,#8]
	add         x8,x8,#0x90
	ldr         x1,[sp]
	ldr         x0,[sp,#8]
	ldr         x8,[x8]
	blr         x8
	mov         w0,w0
	mov         w0,w0
|$LN6@AuVFSRemov|
|$LN1@AuVFSRemov|
	add         sp,sp,#0x10
	ldr         lr,[sp],#0x10
	ret

	ENDP  ; |AuVFSRemoveDir|

; Function compile flags: /Odtpy
; File C:\Users\paras\source\repos\grep-name\XenevaOS\KernelAA64\Fs\vfs.c

	AREA	|.text$mn|, CODE, ARM64

|AuVFSRemoveFile| PROC

; 332  : int AuVFSRemoveFile(AuVFSNode* fsys, AuVFSNode* file) {

|$LN9|
	str         lr,[sp,#-0x10]!
	sub         sp,sp,#0x20
	str         x0,[sp,#0x10]
	str         x1,[sp,#8]

; 333  : 	if (!fsys)

	ldr         x8,[sp,#0x10]
	cmp         x8,#0
	bne         |$LN2@AuVFSRemov|

; 334  : 		return -1;

	mov         w0,#-1
	b           |$LN1@AuVFSRemov|
|$LN2@AuVFSRemov|

; 335  : 	if (!file)

	ldr         x8,[sp,#8]
	cmp         x8,#0
	bne         |$LN3@AuVFSRemov|

; 336  : 		return -1;

	mov         w0,#-1
	b           |$LN1@AuVFSRemov|
|$LN3@AuVFSRemov|

; 337  : 	if (!(file->flags & FS_FLAG_GENERAL))

	ldr         x8,[sp,#8]
	add         x8,x8,#0x40
	ldrh        w8,[x8]
	mov         w8,w8
	tbnz        x8,#2,|$LN4@AuVFSRemov|

; 338  : 		return -1;

	mov         w0,#-1
	b           |$LN1@AuVFSRemov|
|$LN4@AuVFSRemov|

; 339  : 	if ((file->flags & FS_FLAG_DEVICE) || (file->flags & FS_FLAG_FILE_SYSTEM))

	ldr         x8,[sp,#8]
	add         x8,x8,#0x40
	ldrh        w8,[x8]
	mov         w8,w8
	tbnz        x8,#3,|$LN6@AuVFSRemov|
	ldr         x8,[sp,#8]
	add         x8,x8,#0x40
	ldrh        w8,[x8]
	mov         w8,w8
	tbz         x8,#6,|$LN5@AuVFSRemov|
|$LN6@AuVFSRemov|

; 340  : 		return -1;

	mov         w0,#-1
	b           |$LN1@AuVFSRemov|
|$LN5@AuVFSRemov|

; 341  : 	int ret = -1;

	mov         w8,#-1
	str         w8,[sp]

; 342  : 	if (fsys->remove_file)

	ldr         x8,[sp,#0x10]
	add         x8,x8,#0x98
	ldr         x8,[x8]
	cmp         x8,#0
	beq         |$LN7@AuVFSRemov|

; 343  : 		ret = fsys->remove_file(fsys, file);

	ldr         x8,[sp,#0x10]
	add         x8,x8,#0x98
	ldr         x1,[sp,#8]
	ldr         x0,[sp,#0x10]
	ldr         x8,[x8]
	blr         x8
	mov         w0,w0
	str         w0,[sp]
|$LN7@AuVFSRemov|
|$LN1@AuVFSRemov|
	add         sp,sp,#0x20
	ldr         lr,[sp],#0x10
	ret

	ENDP  ; |AuVFSRemoveFile|

; Function compile flags: /Odtpy
; File C:\Users\paras\source\repos\grep-name\XenevaOS\KernelAA64\Fs\vfs.c

	AREA	|.text$mn|, CODE, ARM64

|AuVFSCreateFile| PROC

; 317  : AU_EXTERN AU_EXPORT AuVFSNode* AuVFSCreateFile(AuVFSNode* fsys, char* filename) {

|$LN5|
	str         lr,[sp,#-0x10]!
	sub         sp,sp,#0x20
	str         x0,[sp]
	str         x1,[sp,#0x10]

; 318  : 	if (!fsys)

	ldr         x8,[sp]
	cmp         x8,#0
	bne         |$LN2@AuVFSCreat|

; 319  : 		return NULL;

	mov         x0,#0
	b           |$LN1@AuVFSCreat|
|$LN2@AuVFSCreat|

; 320  : 	AuVFSNode* ret = NULL;

	mov         x8,#0
	str         x8,[sp,#8]

; 321  : 	if (fsys->create_file)

	ldr         x8,[sp]
	add         x8,x8,#0x88
	ldr         x8,[x8]
	cmp         x8,#0
	beq         |$LN3@AuVFSCreat|

; 322  : 		ret = fsys->create_file(fsys, filename);

	ldr         x8,[sp]
	add         x8,x8,#0x88
	ldr         x1,[sp,#0x10]
	ldr         x0,[sp]
	ldr         x8,[x8]
	blr         x8
	str         x0,[sp,#8]
|$LN3@AuVFSCreat|

; 323  : 	return ret;

	ldr         x0,[sp,#8]
|$LN1@AuVFSCreat|
	add         sp,sp,#0x20
	ldr         lr,[sp],#0x10
	ret

	ENDP  ; |AuVFSCreateFile|

; Function compile flags: /Odtpy
; File C:\Users\paras\source\repos\grep-name\XenevaOS\KernelAA64\Fs\vfs.c

	AREA	|.text$mn|, CODE, ARM64

|AuVFSCreateDir| PROC

; 302  : AU_EXTERN AU_EXPORT AuVFSNode* AuVFSCreateDir(AuVFSNode* fsys, char* dirname) {

|$LN5|
	str         lr,[sp,#-0x10]!
	sub         sp,sp,#0x20
	str         x0,[sp]
	str         x1,[sp,#0x10]

; 303  : 	if (!fsys)

	ldr         x8,[sp]
	cmp         x8,#0
	bne         |$LN2@AuVFSCreat|

; 304  : 		return NULL;

	mov         x0,#0
	b           |$LN1@AuVFSCreat|
|$LN2@AuVFSCreat|

; 305  : 	AuVFSNode* ret = NULL;

	mov         x8,#0
	str         x8,[sp,#8]

; 306  : 	if (fsys->create_dir)

	ldr         x8,[sp]
	add         x8,x8,#0x80
	ldr         x8,[x8]
	cmp         x8,#0
	beq         |$LN3@AuVFSCreat|

; 307  : 		ret = fsys->create_dir(fsys, dirname);

	ldr         x8,[sp]
	add         x8,x8,#0x80
	ldr         x1,[sp,#0x10]
	ldr         x0,[sp]
	ldr         x8,[x8]
	blr         x8
	str         x0,[sp,#8]
|$LN3@AuVFSCreat|

; 308  : 	return ret;

	ldr         x0,[sp,#8]
|$LN1@AuVFSCreat|
	add         sp,sp,#0x20
	ldr         lr,[sp],#0x10
	ret

	ENDP  ; |AuVFSCreateDir|

; Function compile flags: /Odtpy
; File C:\Users\paras\source\repos\grep-name\XenevaOS\KernelAA64\Fs\vfs.c

	AREA	|.text$mn|, CODE, ARM64

|AuVFSNodeReadBlock| PROC

; 287  : AU_EXTERN AU_EXPORT size_t AuVFSNodeReadBlock(AuVFSNode* node, AuVFSNode* file, uint64_t* buffer) {

|$LN5|
	str         lr,[sp,#-0x10]!
	sub         sp,sp,#0x20
	str         x0,[sp]
	str         x1,[sp,#0x18]
	str         x2,[sp,#0x10]

; 288  : 	size_t read_bytes = 0;

	mov         x8,#0
	str         x8,[sp,#8]

; 289  : 	if (!node)

	ldr         x8,[sp]
	cmp         x8,#0
	bne         |$LN2@AuVFSNodeR|

; 290  : 		return read_bytes;

	ldr         x0,[sp,#8]
	b           |$LN1@AuVFSNodeR|
|$LN2@AuVFSNodeR|

; 291  : 	if (node->read_block)

	ldr         x8,[sp]
	add         x8,x8,#0xA8
	ldr         x8,[x8]
	cmp         x8,#0
	beq         |$LN3@AuVFSNodeR|

; 292  : 		read_bytes = node->read_block(node, file, buffer);

	ldr         x8,[sp]
	add         x8,x8,#0xA8
	ldr         x2,[sp,#0x10]
	ldr         x1,[sp,#0x18]
	ldr         x0,[sp]
	ldr         x8,[x8]
	blr         x8
	str         x0,[sp,#8]
|$LN3@AuVFSNodeR|

; 293  : 	return read_bytes;

	ldr         x0,[sp,#8]
|$LN1@AuVFSNodeR|
	add         sp,sp,#0x20
	ldr         lr,[sp],#0x10
	ret

	ENDP  ; |AuVFSNodeReadBlock|

; Function compile flags: /Odtpy
; File C:\Users\paras\source\repos\grep-name\XenevaOS\KernelAA64\Fs\vfs.c

	AREA	|.text$mn|, CODE, ARM64

|AuVFSNodeRead| PROC

; 258  : AU_EXTERN AU_EXPORT size_t AuVFSNodeRead(AuVFSNode* node, AuVFSNode* file, uint64_t* buffer, uint32_t length) {

|$LN5|
	str         lr,[sp,#-0x10]!
	sub         sp,sp,#0x20
	str         x0,[sp,#8]
	str         x1,[sp,#0x18]
	str         x2,[sp,#0x10]
	str         w3,[sp]

; 259  : 	if (node) {

	ldr         x8,[sp,#8]
	cmp         x8,#0
	beq         |$LN2@AuVFSNodeR|

; 260  : 		if (node->read)

	ldr         x8,[sp,#8]
	add         x8,x8,#0x70
	ldr         x8,[x8]
	cmp         x8,#0
	beq         |$LN3@AuVFSNodeR|

; 261  : 			return node->read(node, file, buffer, length);

	ldr         x8,[sp,#8]
	add         x8,x8,#0x70
	ldr         w3,[sp]
	ldr         x2,[sp,#0x10]
	ldr         x1,[sp,#0x18]
	ldr         x0,[sp,#8]
	ldr         x8,[x8]
	blr         x8
	b           |$LN1@AuVFSNodeR|
|$LN3@AuVFSNodeR|
|$LN2@AuVFSNodeR|

; 262  : 	}
; 263  : 	return -1;

	mov         x0,#-1
|$LN1@AuVFSNodeR|
	add         sp,sp,#0x20
	ldr         lr,[sp],#0x10
	ret

	ENDP  ; |AuVFSNodeRead|

; Function compile flags: /Odtpy
; File C:\Users\paras\source\repos\grep-name\XenevaOS\KernelAA64\Fs\vfs.c

	AREA	|.text$mn|, CODE, ARM64

|AuVFSFind| PROC

; 88   : AuVFSNode* AuVFSFind(char* path) {

|$LN14|
	str         lr,[sp,#-0x10]!
	sub         sp,sp,#0x40
	str         x0,[sp,#0x20]

; 89   : 
; 90   : 	AuVFSNode* Returnable = NULL;

	mov         x8,#0
	str         x8,[sp,#0x10]

; 91   : 	/* first of all search all file system
; 92   : 	 * skipping '/' of the path
; 93   : 	 */
; 94   : 	char* next = strchr(path, '/');

	mov         w1,#0x2F
	ldr         x0,[sp,#0x20]
	bl          strchr
	str         x0,[sp,#8]

; 95   : 	if (next)

	ldr         x8,[sp,#8]
	cmp         x8,#0
	beq         |$LN8@AuVFSFind|

; 96   : 		next++;

	ldr         x8,[sp,#8]
	add         x8,x8,#1
	str         x8,[sp,#8]
|$LN8@AuVFSFind|

; 97   : 
; 98   : 	char pathname[16];
; 99   : 	int i;
; 100  : 	for (i = 0; i < 16; i++) {

	mov         w8,#0
	str         w8,[sp]
	b           |$LN4@AuVFSFind|
|$LN2@AuVFSFind|
	ldr         w8,[sp]
	add         w8,w8,#1
	str         w8,[sp]
|$LN4@AuVFSFind|
	ldr         w8,[sp]
	cmp         w8,#0x10
	bge         |$LN3@AuVFSFind|

; 101  : 		if (next[i] == '/' || next[i] == '\0')

	ldr         w8,[sp]
	sxtw        x9,w8
	mov         x8,#1
	mul         x9,x9,x8
	ldr         x8,[sp,#8]
	add         x8,x8,x9
	ldrsb       w8,[x8]
	mov         w8,w8
	cmp         w8,#0x2F
	beq         |$LN10@AuVFSFind|
	ldr         w8,[sp]
	sxtw        x9,w8
	mov         x8,#1
	mul         x9,x9,x8
	ldr         x8,[sp,#8]
	add         x8,x8,x9
	ldrsb       w8,[x8]
	mov         w8,w8
	cmp         w8,#0
	bne         |$LN9@AuVFSFind|
|$LN10@AuVFSFind|

; 102  : 			break;

	b           |$LN3@AuVFSFind|
|$LN9@AuVFSFind|

; 103  : 		pathname[i] = next[i];

	ldr         w8,[sp]
	sxtw        x9,w8
	mov         x8,#1
	mul         x9,x9,x8
	ldr         x8,[sp,#8]
	add         x10,x8,x9
	ldr         w8,[sp]
	sxtw        x9,w8
	mov         x8,#1
	mul         x9,x9,x8
	add         x8,sp,#0x28
	add         x9,x8,x9
	ldrsb       w8,[x10]
	strb        w8,[x9]

; 104  : 	}

	b           |$LN2@AuVFSFind|
|$LN3@AuVFSFind|

; 105  : 	pathname[i] = 0;

	ldr         w8,[sp]
	sxtw        x9,w8
	mov         x8,#1
	mul         x9,x9,x8
	add         x8,sp,#0x28
	add         x9,x8,x9
	mov         w8,#0
	strb        w8,[x9]

; 106  : 	aa64_data_cache_clean_range(&pathname, 16);

	mov         x1,#0x10
	add         x0,sp,#0x28
	bl          aa64_data_cache_clean_range

; 107  : 	
; 108  : 	for (int j = 0; j < __RootContainer->childs->pointer; j++) {

	mov         w8,#0
	str         w8,[sp,#4]
	b           |$LN7@AuVFSFind|
|$LN5@AuVFSFind|
	ldr         w8,[sp,#4]
	add         w8,w8,#1
	str         w8,[sp,#4]
|$LN7@AuVFSFind|
	adrp        x8,__RootContainer
	ldr         x8,[x8,PageOffset(__RootContainer)]
	ldr         x8,[x8]
	ldr         w9,[x8]
	ldr         w8,[sp,#4]
	cmp         w8,w9
	bhs         |$LN6@AuVFSFind|

; 109  : 		AuVFSNode* node = (AuVFSNode*)list_get_at(__RootContainer->childs, j);

	adrp        x8,__RootContainer
	ldr         x8,[x8,PageOffset(__RootContainer)]
	ldr         w1,[sp,#4]
	ldr         x0,[x8]
	bl          list_get_at
	str         x0,[sp,#0x18]

; 110  : 		if ((strcmp(node->filename, pathname) == 0) && (node->flags & FS_FLAG_FILE_SYSTEM)) {

	ldr         x0,[sp,#0x18]
	add         x1,sp,#0x28
	bl          strcmp
	mov         w0,w0
	cmp         w0,#0
	bne         |$LN11@AuVFSFind|
	ldr         x8,[sp,#0x18]
	add         x8,x8,#0x40
	ldrh        w8,[x8]
	mov         w8,w8
	tbz         x8,#6,|$LN11@AuVFSFind|

; 111  : 			Returnable = node;

	ldr         x8,[sp,#0x18]
	str         x8,[sp,#0x10]

; 112  : 			break;

	b           |$LN6@AuVFSFind|
|$LN11@AuVFSFind|

; 113  : 		}
; 114  : 	}

	b           |$LN5@AuVFSFind|
|$LN6@AuVFSFind|

; 115  : 
; 116  : 	if (!Returnable)

	ldr         x8,[sp,#0x10]
	cmp         x8,#0
	bne         |$LN12@AuVFSFind|

; 117  : 		Returnable = __RootFS;

	adrp        x8,__RootFS
	ldr         x8,[x8,PageOffset(__RootFS)]
	str         x8,[sp,#0x10]
|$LN12@AuVFSFind|

; 118  : 
; 119  : 	return Returnable;

	ldr         x0,[sp,#0x10]
	add         sp,sp,#0x40
	ldr         lr,[sp],#0x10
	ret

	ENDP  ; |AuVFSFind|

; Function compile flags: /Odtpy
; File C:\Users\paras\source\repos\grep-name\XenevaOS\KernelAA64\Fs\vfs.c

	AREA	|.text$mn|, CODE, ARM64

|AuVFSRegisterRoot| PROC

; 143  : void AuVFSRegisterRoot(AuVFSNode* fs) {

|$LN4|
	sub         sp,sp,#0x10
	str         x0,[sp]

; 144  : 	if (__RootFS)

	adrp        x8,__RootFS
	ldr         x8,[x8,PageOffset(__RootFS)]
	cmp         x8,#0
	beq         |$LN2@AuVFSRegis|

; 145  : 		return;

	b           |$LN1@AuVFSRegis|
|$LN2@AuVFSRegis|

; 146  : 	__RootFS = fs;

	adrp        x9,__RootFS
	ldr         x8,[sp]
	str         x8,[x9,PageOffset(__RootFS)]
|$LN1@AuVFSRegis|
	add         sp,sp,#0x10
	ret

	ENDP  ; |AuVFSRegisterRoot|

; Function compile flags: /Odtpy
; File C:\Users\paras\source\repos\grep-name\XenevaOS\KernelAA64\Fs\vfs.c

	AREA	|.text$mn|, CODE, ARM64

|AuVFSAddFileSystem| PROC

; 128  : AU_EXTERN AU_EXPORT void AuVFSAddFileSystem(AuVFSNode* node) {

|$LN7|
	str         lr,[sp,#-0x10]!
	sub         sp,sp,#0x20
	str         x0,[sp,#8]

; 129  : 	for (int i = 0; i < __RootContainer->childs->pointer; i++) {

	mov         w8,#0
	str         w8,[sp]
	b           |$LN4@AuVFSAddFi|
|$LN2@AuVFSAddFi|
	ldr         w8,[sp]
	add         w8,w8,#1
	str         w8,[sp]
|$LN4@AuVFSAddFi|
	adrp        x8,__RootContainer
	ldr         x8,[x8,PageOffset(__RootContainer)]
	ldr         x8,[x8]
	ldr         w9,[x8]
	ldr         w8,[sp]
	cmp         w8,w9
	bhs         |$LN3@AuVFSAddFi|

; 130  : 		AuVFSNode* node_ = (AuVFSNode*)list_get_at(__RootContainer->childs, i);

	adrp        x8,__RootContainer
	ldr         x8,[x8,PageOffset(__RootContainer)]
	ldr         w1,[sp]
	ldr         x0,[x8]
	bl          list_get_at
	str         x0,[sp,#0x10]

; 131  : 		if (node_ == node)

	ldr         x9,[sp,#8]
	ldr         x8,[sp,#0x10]
	cmp         x8,x9
	bne         |$LN5@AuVFSAddFi|

; 132  : 			return;

	b           |$LN1@AuVFSAddFi|
|$LN5@AuVFSAddFi|

; 133  : 	}

	b           |$LN2@AuVFSAddFi|
|$LN3@AuVFSAddFi|

; 134  : 	list_add(__RootContainer->childs, node);

	adrp        x8,__RootContainer
	ldr         x8,[x8,PageOffset(__RootContainer)]
	ldr         x1,[sp,#8]
	ldr         x0,[x8]
	bl          list_add
|$LN1@AuVFSAddFi|
	add         sp,sp,#0x20
	ldr         lr,[sp],#0x10
	ret

	ENDP  ; |AuVFSAddFileSystem|

; Function compile flags: /Odtpy
; File C:\Users\paras\source\repos\grep-name\XenevaOS\KernelAA64\Fs\vfs.c

	AREA	|.text$mn|, CODE, ARM64

|AuVFSNodeIOControl| PROC

; 242  : AU_EXTERN AU_EXPORT int AuVFSNodeIOControl(AuVFSNode* node, int code, void* arg) {

|$LN4|
	str         lr,[sp,#-0x10]!
	sub         sp,sp,#0x20
	str         x0,[sp,#8]
	str         w1,[sp]
	str         x2,[sp,#0x10]

; 243  : 	if (node->iocontrol) {

	ldr         x8,[sp,#8]
	add         x8,x8,#0xC8
	ldr         x8,[x8]
	cmp         x8,#0
	beq         |$LN2@AuVFSNodeI|

; 244  : 		int val = node->iocontrol(node, code, arg);

	ldr         x8,[sp,#8]
	add         x8,x8,#0xC8
	ldr         x2,[sp,#0x10]
	ldr         w1,[sp]
	ldr         x0,[sp,#8]
	ldr         x8,[x8]
	blr         x8
	mov         w0,w0
	str         w0,[sp,#4]

; 245  : 		return val;

	ldr         w0,[sp,#4]
	b           |$LN1@AuVFSNodeI|
|$LN2@AuVFSNodeI|

; 246  : 	}
; 247  : 	return 0;

	mov         w0,#0
|$LN1@AuVFSNodeI|
	add         sp,sp,#0x20
	ldr         lr,[sp],#0x10
	ret

	ENDP  ; |AuVFSNodeIOControl|

; Function compile flags: /Odtpy
; File C:\Users\paras\source\repos\grep-name\XenevaOS\KernelAA64\Fs\vfs.c

	AREA	|.text$mn|, CODE, ARM64

|AuVFSOpen| PROC

; 155  : AU_EXTERN AU_EXPORT AuVFSNode* AuVFSOpen(char* path) {

|$LN19|
	str         lr,[sp,#-0x10]!
	sub         sp,sp,#0x50
	str         x0,[sp,#0x20]

; 156  : 	AuVFSNode* Returnable = NULL;

	mov         x8,#0
	str         x8,[sp,#8]

; 157  : 	dmb_sy();

	bl          dmb_sy

; 158  : 	isb_flush();

	bl          isb_flush

; 159  : 
; 160  : 	AuVFSNode* fs = AuVFSFind(path);

	ldr         x0,[sp,#0x20]
	bl          AuVFSFind
	str         x0,[sp,#0x10]

; 161  : 	//AA64SleepUS(200);
; 162  : 	if (!fs) {

	ldr         x8,[sp,#0x10]
	cmp         x8,#0
	bne         |$LN5@AuVFSOpen|

; 163  : 		AuTextOut("[aurora-vfs]: failed to find filesystem assigned to path -> %s \r\n", path);

	ldr         x1,[sp,#0x20]
	adrp        x8,|$SG3444|
	add         x0,x8,PageOffset(|$SG3444|)
	bl          AuTextOut

; 164  : 		return NULL;

	mov         x0,#0
	b           |$LN1@AuVFSOpen|
|$LN5@AuVFSOpen|

; 165  : 	}
; 166  : 
; 167  : 	/* first go through file cache layer */
; 168  : 	if (fs->flags & FS_FLAG_FILE_SYSTEM_GENERAL) {

	ldr         x8,[sp,#0x10]
	add         x8,x8,#0x40
	ldrh        w8,[x8]
	mov         w8,w8
	tbz         x8,#0xA,|$LN6@AuVFSOpen|

; 169  : 		AuMMFileBack *fileb = AuMmngrFileCacheLookup(path);

	ldr         x0,[sp,#0x20]
	bl          AuMmngrFileCacheLookup
	str         x0,[sp,#0x30]

; 170  : 		
; 171  : 		/** Here check the eof bit, if EOF bit is not marked 1
; 172  : 		 * this file is on used, we need to create a 
; 173  : 		 * new file on memory, if eof is marked, already file 
; 174  : 		 * is free on cache, we can reuse it, 
; 175  : 		 * memory bachane ka clever technique broo/babe 
; 176  : 		 */
; 177  : 		if (fileb) {

	ldr         x8,[sp,#0x30]
	cmp         x8,#0
	beq         |$LN7@AuVFSOpen|

; 178  : 			Returnable = fileb->file;

	ldr         x8,[sp,#0x30]
	ldr         x8,[x8]
	str         x8,[sp,#8]

; 179  : 			if (Returnable->eof) {

	ldr         x8,[sp,#8]
	add         x8,x8,#0x24
	ldrb        w8,[x8]
	mov         w8,w8
	cmp         w8,#0
	beq         |$LN8@AuVFSOpen|

; 180  : 				Returnable->eof = 0;

	ldr         x8,[sp,#8]
	add         x9,x8,#0x24
	mov         w8,#0
	strb        w8,[x9]

; 181  : 				Returnable->current = Returnable->first_block;

	ldr         x8,[sp,#8]
	add         x10,x8,#0x30
	ldr         x8,[sp,#8]
	add         x9,x8,#0x38
	ldr         x8,[x10]
	str         x8,[x9]

; 182  : 				Returnable->fileCopyCount += 1;

	ldr         x8,[sp,#8]
	add         x8,x8,#0x58
	ldrh        w8,[x8]
	mov         w8,w8
	add         w10,w8,#1
	ldr         x8,[sp,#8]
	add         x9,x8,#0x58
	uxth        w8,w10
	strh        w8,[x9]

; 183  : 				return Returnable;

	ldr         x0,[sp,#8]
	b           |$LN1@AuVFSOpen|
|$LN8@AuVFSOpen|
|$LN7@AuVFSOpen|
|$LN6@AuVFSOpen|

; 184  : 			}
; 185  : 		} 
; 186  : 		//else executing rest of the code
; 187  : 	}
; 188  : 	if (fs == __RootFS) {

	adrp        x8,__RootFS
	ldr         x9,[x8,PageOffset(__RootFS)]
	ldr         x8,[sp,#0x10]
	cmp         x8,x9
	bne         |$LN9@AuVFSOpen|

; 189  : 		/* just skip the '/' from the path */
; 190  : 		char* next = strchr(path, '/');

	mov         w1,#0x2F
	ldr         x0,[sp,#0x20]
	bl          strchr
	str         x0,[sp,#0x28]

; 191  : 		if (next)

	ldr         x8,[sp,#0x28]
	cmp         x8,#0
	beq         |$LN11@AuVFSOpen|

; 192  : 			next++;

	ldr         x8,[sp,#0x28]
	add         x8,x8,#1
	str         x8,[sp,#0x28]
|$LN11@AuVFSOpen|

; 193  : 
; 194  : 		if (fs->open)

	ldr         x8,[sp,#0x10]
	add         x8,x8,#0x60
	ldr         x8,[x8]
	cmp         x8,#0
	beq         |$LN12@AuVFSOpen|

; 195  : 			Returnable = fs->open(fs, path);

	ldr         x8,[sp,#0x10]
	add         x8,x8,#0x60
	ldr         x1,[sp,#0x20]
	ldr         x0,[sp,#0x10]
	ldr         x8,[x8]
	blr         x8
	str         x0,[sp,#8]
|$LN12@AuVFSOpen|

; 196  : 	}

	b           |$LN10@AuVFSOpen|
|$LN9@AuVFSOpen|

; 197  : 	else {
; 198  : 		char* next = strchr(path, '/');

	mov         w1,#0x2F
	ldr         x0,[sp,#0x20]
	bl          strchr
	str         x0,[sp,#0x18]

; 199  : 		if (next)

	ldr         x8,[sp,#0x18]
	cmp         x8,#0
	beq         |$LN13@AuVFSOpen|

; 200  : 			next++;

	ldr         x8,[sp,#0x18]
	add         x8,x8,#1
	str         x8,[sp,#0x18]
|$LN13@AuVFSOpen|

; 201  : 
; 202  : 
; 203  : 		char pathname[16] ;
; 204  : 		//UARTDebugOut("[aurora]: vfs pathname : %s \r\n", path);
; 205  : 		int i = 0;

	mov         w8,#0
	str         w8,[sp]

; 206  : 		for (i = 0; i < 16; i++) {

	mov         w8,#0
	str         w8,[sp]
	b           |$LN4@AuVFSOpen|
|$LN2@AuVFSOpen|
	ldr         w8,[sp]
	add         w8,w8,#1
	str         w8,[sp]
|$LN4@AuVFSOpen|
	ldr         w8,[sp]
	cmp         w8,#0x10
	bge         |$LN3@AuVFSOpen|

; 207  : 			if ((next[i] == '/') || (next[i] == '\0'))

	ldr         w8,[sp]
	sxtw        x9,w8
	mov         x8,#1
	mul         x9,x9,x8
	ldr         x8,[sp,#0x18]
	add         x8,x8,x9
	ldrsb       w8,[x8]
	mov         w8,w8
	cmp         w8,#0x2F
	beq         |$LN15@AuVFSOpen|
	ldr         w8,[sp]
	sxtw        x9,w8
	mov         x8,#1
	mul         x9,x9,x8
	ldr         x8,[sp,#0x18]
	add         x8,x8,x9
	ldrsb       w8,[x8]
	mov         w8,w8
	cmp         w8,#0
	bne         |$LN14@AuVFSOpen|
|$LN15@AuVFSOpen|

; 208  : 				break;

	b           |$LN3@AuVFSOpen|
|$LN14@AuVFSOpen|

; 209  : 			pathname[i] = next[i];

	ldr         w8,[sp]
	sxtw        x9,w8
	mov         x8,#1
	mul         x9,x9,x8
	ldr         x8,[sp,#0x18]
	add         x10,x8,x9
	ldr         w8,[sp]
	sxtw        x9,w8
	mov         x8,#1
	mul         x9,x9,x8
	add         x8,sp,#0x38
	add         x9,x8,x9
	ldrsb       w8,[x10]
	strb        w8,[x9]

; 210  : 			dsb_ish();

	bl          dsb_ish

; 211  : 		}

	b           |$LN2@AuVFSOpen|
|$LN3@AuVFSOpen|

; 212  : 		pathname[i] = 0;

	ldr         w8,[sp]
	sxtw        x9,w8
	mov         x8,#1
	mul         x9,x9,x8
	add         x8,sp,#0x38
	add         x9,x8,x9
	mov         w8,#0
	strb        w8,[x9]

; 213  : 		aa64_data_cache_clean_range(&pathname, 16);

	mov         x1,#0x10
	add         x0,sp,#0x38
	bl          aa64_data_cache_clean_range

; 214  : 		
; 215  : 		/* skip the fs filename, from the path
; 216  : 		 * and just pass the required path */
; 217  : 		if (strcmp(fs->filename, pathname) == 0)

	ldr         x0,[sp,#0x10]
	add         x1,sp,#0x38
	bl          strcmp
	mov         w0,w0
	cmp         w0,#0
	bne         |$LN16@AuVFSOpen|

; 218  : 			next += i;

	ldr         w8,[sp]
	sxtw        x9,w8
	ldr         x8,[sp,#0x18]
	add         x8,x8,x9
	str         x8,[sp,#0x18]
|$LN16@AuVFSOpen|

; 219  : 		dsb_ish();

	bl          dsb_ish

; 220  : 		dsb_sy_barrier();

	bl          dsb_sy_barrier

; 221  : 
; 222  : 		if (fs->open) {

	ldr         x8,[sp,#0x10]
	add         x8,x8,#0x60
	ldr         x8,[x8]
	cmp         x8,#0
	beq         |$LN17@AuVFSOpen|

; 223  : 			//AA64SleepUS(600);
; 224  : 			Returnable = fs->open(fs, next);

	ldr         x8,[sp,#0x10]
	add         x8,x8,#0x60
	ldr         x1,[sp,#0x18]
	ldr         x0,[sp,#0x10]
	ldr         x8,[x8]
	blr         x8
	str         x0,[sp,#8]
|$LN17@AuVFSOpen|
|$LN10@AuVFSOpen|

; 225  : 			/* wait for sometimes, let the cache things get completed
; 226  : 			 * let it fetch the data from main memory  */
; 227  : 			//AA64SleepUS(600);
; 228  : 		}
; 229  : 	}
; 230  : 	data_cache_flush(Returnable);

	ldr         x0,[sp,#8]
	bl          data_cache_flush

; 231  : 	return Returnable;

	ldr         x0,[sp,#8]
|$LN1@AuVFSOpen|
	add         sp,sp,#0x50
	ldr         lr,[sp],#0x10
	ret

	ENDP  ; |AuVFSOpen|

; Function compile flags: /Odtpy
; File C:\Users\paras\source\repos\grep-name\XenevaOS\KernelAA64\Fs\vfs.c

	AREA	|.text$mn|, CODE, ARM64

|AuVFSReserveMountPointLetter| PROC

; 68   : char* AuVFSReserveMountPointLetter() {

|$LN7|
	sub         sp,sp,#0x10

; 69   : 	static char path[2];
; 70   : 	for (int i = 0; i < 26; i++) {

	mov         w8,#0
	str         w8,[sp]
	b           |$LN4@AuVFSReser|
|$LN2@AuVFSReser|
	ldr         w8,[sp]
	add         w8,w8,#1
	str         w8,[sp]
|$LN4@AuVFSReser|
	ldr         w8,[sp]
	cmp         w8,#0x1A
	bge         |$LN3@AuVFSReser|

; 71   : 		if (_mount_letters[i] == 1)

	ldr         w8,[sp]
	sxtw        x9,w8
	mov         x8,#1
	mul         x9,x9,x8
	adrp        x8,_mount_letters
	add         x8,x8,PageOffset(_mount_letters)
	add         x8,x8,x9
	ldrsb       w8,[x8]
	mov         w8,w8
	cmp         w8,#1
	bne         |$LN5@AuVFSReser|

; 72   : 			continue;

	b           |$LN2@AuVFSReser|
|$LN5@AuVFSReser|

; 73   : 		_mount_letters[i] = 1;

	ldr         w8,[sp]
	sxtw        x9,w8
	mov         x8,#1
	mul         x9,x9,x8
	adrp        x8,_mount_letters
	add         x8,x8,PageOffset(_mount_letters)
	add         x9,x8,x9
	mov         w8,#1
	strb        w8,[x9]

; 74   : 		path[0] = 'a' + i;

	ldr         w8,[sp]
	add         w8,w8,#0x61
	sxtb        w9,w8
	adrp        x8,|?path@?1??AuVFSReserveMountPointLetter@@9@9|
	strb        w9,[x8,PageOffset(|?path@?1??AuVFSReserveMountPointLetter@@9@9|)]

; 75   : 		path[1] = '\0';

	adrp        x9,|?path@?1??AuVFSReserveMountPointLetter@@9@9|+#1
	mov         w8,#0
	strb        w8,[x9,PageOffset(|?path@?1??AuVFSReserveMountPointLetter@@9@9|)+#1]

; 76   : 		return path;

	adrp        x8,|?path@?1??AuVFSReserveMountPointLetter@@9@9|
	add         x0,x8,PageOffset(|?path@?1??AuVFSReserveMountPointLetter@@9@9|)
	b           |$LN1@AuVFSReser|

; 77   : 	}

	b           |$LN2@AuVFSReser|
|$LN3@AuVFSReser|

; 78   : 	return NULL;

	mov         x0,#0
|$LN1@AuVFSReser|
	add         sp,sp,#0x10
	ret

	ENDP  ; |AuVFSReserveMountPointLetter|

; Function compile flags: /Odtpy
; File C:\Users\paras\source\repos\grep-name\XenevaOS\KernelAA64\Fs\vfs.c

	AREA	|.text$mn|, CODE, ARM64

|AuVFSInitialise| PROC

; 50   : void AuVFSInitialise() {

|$LN6|
	str         lr,[sp,#-0x10]!
	sub         sp,sp,#0x10

; 51   : 	AuVFSContainer* _root = (AuVFSContainer*)kmalloc(sizeof(AuVFSContainer));

	mov         w0,#8
	bl          kmalloc
	str         x0,[sp,#8]

; 52   : 	_root->childs = initialize_list();

	bl          initialize_list
	ldr         x8,[sp,#8]
	str         x0,[x8]

; 53   : 	__RootContainer = _root;

	adrp        x9,__RootContainer
	ldr         x8,[sp,#8]
	str         x8,[x9,PageOffset(__RootContainer)]

; 54   : 	__RootFS = NULL;

	adrp        x9,__RootFS
	mov         x8,#0
	str         x8,[x9,PageOffset(__RootFS)]

; 55   : 	AuDeviceFsInitialize();

	bl          AuDeviceFsInitialize

; 56   : 	AuVDiskInitialise();

	bl          AuVDiskInitialise

; 57   : 	AuPipeFSInitialise();

	bl          AuPipeFSInitialise

; 58   : 
; 59   : 	for (int i = 0; i < 26; i++)

	mov         w8,#0
	str         w8,[sp]
	b           |$LN4@AuVFSIniti|
|$LN2@AuVFSIniti|
	ldr         w8,[sp]
	add         w8,w8,#1
	str         w8,[sp]
|$LN4@AuVFSIniti|
	ldr         w8,[sp]
	cmp         w8,#0x1A
	bge         |$LN3@AuVFSIniti|

; 60   : 		_mount_letters[i] = 0;

	ldr         w8,[sp]
	sxtw        x9,w8
	mov         x8,#1
	mul         x9,x9,x8
	adrp        x8,_mount_letters
	add         x8,x8,PageOffset(_mount_letters)
	add         x9,x8,x9
	mov         w8,#0
	strb        w8,[x9]
	b           |$LN2@AuVFSIniti|
|$LN3@AuVFSIniti|
	add         sp,sp,#0x10
	ldr         lr,[sp],#0x10
	ret

	ENDP  ; |AuVFSInitialise|

	END
