; Listing generated by Microsoft (R) Optimizing Compiler Version 19.29.30159.0 

	TTL	C:\Users\paras\source\repos\grep-name\XenevaOS\KernelAA64\ARM64\Debug\virtiotablet.obj
	ARM64

	AREA	|.drectve|, DRECTVE


	AREA	|.data|, DATA
	 COMMON	|TabletQueue|, 0x8

	 COMMON	|tabletIndex|, 0x2

	 COMMON	|tabletQueueSz|, 0x4

	 COMMON	|mouseX|, 0x4

	 COMMON	|mouseY|, 0x4

	 COMMON	|resX|, 0x4

	 COMMON	|resY|, 0x4

	 COMMON	|maxX|, 0x4

	 COMMON	|maxY|, 0x4

	 COMMON	|buttonLeft|, 0x4

	 COMMON	|buttonMiddle|, 0x4

	 COMMON	|buttonRight|, 0x4

	 COMMON	|buttonScrollUp|, 0x4

	 COMMON	|buttonScrollDown|, 0x4

	 COMMON	|TabletInput|, 0x8

	EXPORT	|AuVirtioTabletInitialize|
	EXPORT	|AuVirtioTabletHandler|
	IMPORT	|AuPCIEAllocMSI|
	IMPORT	|AuPCIEWrite|
	IMPORT	|AuPCIERead|
	IMPORT	|dsb_ish|
	IMPORT	|dsb_sy_barrier|
	IMPORT	|isb_flush|
	IMPORT	|dc_ivac|
	IMPORT	|GICEnableSPIIRQ|
	IMPORT	|AuGICAllocateSPI|
	IMPORT	|GICRegisterSPIHandler|
	IMPORT	|AuDevWriteMice|
	IMPORT	|UARTDebugOut|
	IMPORT	|AuPmmngrAlloc|
	IMPORT	|AuConsoleGetScreenWidth|
	IMPORT	|AuConsoleGetScreenHeight|
	IMPORT	|AuMapMMIO|
	IMPORT	|memset|

	AREA	|.pdata|, PDATA
|$pdata$AuVirtioTabletInitialize| DCD imagerel |$LN8|
	DCD	0x4a005a5
	;Flags[SingleProEpi] functionLength[1444] RegF[0] RegI[0] H[0] frameChainReturn[UnChainedSavedLR] frameSize[144]
|$pdata$AuVirtioTabletHandler| DCD imagerel |$LN41|
	DCD	0x3a00495
	;Flags[SingleProEpi] functionLength[1172] RegF[0] RegI[0] H[0] frameChainReturn[UnChainedSavedLR] frameSize[112]

	AREA	|.data|, DATA
|$SG3504| DCB	"VirtioInput: bad packet : %d (them=%d)", 0xa, 0x0
|$SG3562| DCB	"VIRTIO Tablet Name : %s ", 0xa, 0x0
	%	6
|$SG3563| DCB	"VIRTIO Tablet SPI ID: %d ", 0xa, 0x0
	%	5
|$SG3565| DCB	"VIRTIO Tablet MSI allocated ", 0xa, 0x0
; Function compile flags: /Odtpy
; File C:\Users\paras\source\repos\grep-name\XenevaOS\KernelAA64\Drivers\virtiotablet.c

	AREA	|.text$mn|, CODE, ARM64

|AuVirtioTabletHandler| PROC

; 71   : void AuVirtioTabletHandler(int spiNum) {

|$LN41|
	str         lr,[sp,#-0x10]!
	sub         sp,sp,#0x60
	str         w0,[sp,#0x20]

; 72   : 	uint16_t them = TabletQueue->used.index;

	adrp        x8,TabletQueue
	ldr         x8,[x8,PageOffset(TabletQueue)]
	add         x8,x8,#0x48A
	ldrh        w8,[x8]
	strh        w8,[sp,#8]

; 73   : 
; 74   : 	for (; tabletIndex < them; tabletIndex++) {

	b           |$LN4@AuVirtioTa|
|$LN2@AuVirtioTa|
	adrp        x8,tabletIndex
	ldrh        w8,[x8,PageOffset(tabletIndex)]
	add         w8,w8,#1
	uxth        w9,w8
	adrp        x8,tabletIndex
	strh        w9,[x8,PageOffset(tabletIndex)]
|$LN4@AuVirtioTa|
	adrp        x8,tabletIndex
	ldrh        w9,[x8,PageOffset(tabletIndex)]
	mov         w9,w9
	ldrh        w8,[sp,#8]
	mov         w8,w8
	cmp         w9,w8
	bge         |$LN3@AuVirtioTa|

; 75   : 		dc_ivac(&TabletInput[tabletIndex % tabletQueueSz]);

	adrp        x8,tabletIndex
	ldrh        w10,[x8,PageOffset(tabletIndex)]
	mov         w10,w10
	adrp        x8,tabletQueueSz
	ldr         w9,[x8,PageOffset(tabletQueueSz)]
	cbnz        w9,|$LN35@AuVirtioTa|
	brk         #0xF004
|$LN35@AuVirtioTa|
	sdiv        w8,w10,w9
	mul         w8,w8,w9
	sub         w8,w10,w8
	sxtw        x9,w8
	mov         x8,#8
	mul         x9,x9,x8
	adrp        x8,TabletInput
	ldr         x8,[x8,PageOffset(TabletInput)]
	add         x0,x8,x9
	bl          dc_ivac

; 76   : 		dsb_sy_barrier();

	bl          dsb_sy_barrier

; 77   : 		struct VirtioInputEvent evt = TabletInput[tabletIndex % tabletQueueSz];

	adrp        x8,tabletIndex
	ldrh        w10,[x8,PageOffset(tabletIndex)]
	mov         w10,w10
	adrp        x8,tabletQueueSz
	ldr         w9,[x8,PageOffset(tabletQueueSz)]
	cbnz        w9,|$LN36@AuVirtioTa|
	brk         #0xF004
|$LN36@AuVirtioTa|
	sdiv        w8,w10,w9
	mul         w8,w8,w9
	sub         w8,w10,w8
	sxtw        x9,w8
	mov         x8,#8
	mul         x9,x9,x8
	adrp        x8,TabletInput
	ldr         x8,[x8,PageOffset(TabletInput)]
	add         x8,x8,x9
	add         x9,sp,#0x28
	ldr         x8,[x8]
	str         x8,[x9]
	mov         x9,sp
	add         x8,sp,#0x28
	ldr         x8,[x8]
	str         x8,[x9]
|$LN5@AuVirtioTa|

; 78   : 		while (evt.type == 0xFF) {

	ldrh        w8,[sp]
	mov         w8,w8
	cmp         w8,#0xFF
	bne         |$LN6@AuVirtioTa|

; 79   : 			evt = TabletInput[tabletIndex % tabletQueueSz];

	adrp        x8,tabletIndex
	ldrh        w10,[x8,PageOffset(tabletIndex)]
	mov         w10,w10
	adrp        x8,tabletQueueSz
	ldr         w9,[x8,PageOffset(tabletQueueSz)]
	cbnz        w9,|$LN37@AuVirtioTa|
	brk         #0xF004
|$LN37@AuVirtioTa|
	sdiv        w8,w10,w9
	mul         w8,w8,w9
	sub         w8,w10,w8
	sxtw        x9,w8
	mov         x8,#8
	mul         x9,x9,x8
	adrp        x8,TabletInput
	ldr         x8,[x8,PageOffset(TabletInput)]
	add         x8,x8,x9
	add         x9,sp,#0x30
	ldr         x8,[x8]
	str         x8,[x9]
	mov         x9,sp
	add         x8,sp,#0x30
	ldr         x8,[x8]
	str         x8,[x9]

; 80   : 			UARTDebugOut("VirtioInput: bad packet : %d (them=%d)\n", tabletIndex, them);

	ldrh        w2,[sp,#8]
	mov         w2,w2
	adrp        x8,tabletIndex
	ldrh        w1,[x8,PageOffset(tabletIndex)]
	mov         w1,w1
	mov         w2,w2
	mov         w1,w1
	adrp        x8,|$SG3504|
	add         x0,x8,PageOffset(|$SG3504|)
	bl          UARTDebugOut

; 81   : 		}

	b           |$LN5@AuVirtioTa|
|$LN6@AuVirtioTa|

; 82   : 		TabletInput[tabletIndex % tabletQueueSz].type = 0xFF;

	adrp        x8,tabletIndex
	ldrh        w10,[x8,PageOffset(tabletIndex)]
	mov         w10,w10
	adrp        x8,tabletQueueSz
	ldr         w9,[x8,PageOffset(tabletQueueSz)]
	cbnz        w9,|$LN38@AuVirtioTa|
	brk         #0xF004
|$LN38@AuVirtioTa|
	sdiv        w8,w10,w9
	mul         w8,w8,w9
	sub         w8,w10,w8
	sxtw        x9,w8
	mov         x8,#8
	mul         x9,x9,x8
	adrp        x8,TabletInput
	ldr         x8,[x8,PageOffset(TabletInput)]
	add         x9,x8,x9
	mov         w8,#0xFF
	strh        w8,[x9]

; 83   : 		isb_flush();

	bl          isb_flush

; 84   : 		dsb_sy_barrier();

	bl          dsb_sy_barrier

; 85   : 		if (evt.type == 3) {

	ldrh        w8,[sp]
	mov         w8,w8
	cmp         w8,#3
	bne         |$LN7@AuVirtioTa|

; 86   : 			if (evt.code == 0) {

	ldrh        w8,[sp,#2]
	mov         w8,w8
	cmp         w8,#0
	bne         |$LN9@AuVirtioTa|

; 87   : 				mouseX = (evt.value * resX) / maxX;

	ldr         w9,[sp,#4]
	adrp        x8,resX
	ldr         w8,[x8,PageOffset(resX)]
	mul         w9,w9,w8
	adrp        x8,maxX
	ldr         w8,[x8,PageOffset(maxX)]
	cbnz        w8,|$LN39@AuVirtioTa|
	brk         #0xF004
|$LN39@AuVirtioTa|
	udiv        w9,w9,w8
	adrp        x8,mouseX
	str         w9,[x8,PageOffset(mouseX)]

; 88   : 			}

	b           |$LN10@AuVirtioTa|
|$LN9@AuVirtioTa|

; 89   : 			else if (evt.code == 1) {

	ldrh        w8,[sp,#2]
	mov         w8,w8
	cmp         w8,#1
	bne         |$LN11@AuVirtioTa|

; 90   : 				mouseY = (evt.value * resY) / maxY;

	ldr         w9,[sp,#4]
	adrp        x8,resY
	ldr         w8,[x8,PageOffset(resY)]
	mul         w9,w9,w8
	adrp        x8,maxY
	ldr         w8,[x8,PageOffset(maxY)]
	cbnz        w8,|$LN40@AuVirtioTa|
	brk         #0xF004
|$LN40@AuVirtioTa|
	udiv        w9,w9,w8
	adrp        x8,mouseY
	str         w9,[x8,PageOffset(mouseY)]
|$LN11@AuVirtioTa|
|$LN10@AuVirtioTa|

; 91   : 			}
; 92   : 		}

	b           |$LN8@AuVirtioTa|
|$LN7@AuVirtioTa|

; 93   : 		else if (evt.type == 1) {

	ldrh        w8,[sp]
	mov         w8,w8
	cmp         w8,#1
	bne         |$LN12@AuVirtioTa|

; 94   : 			if (evt.code == 0x110) {

	ldrh        w8,[sp,#2]
	mov         w8,w8
	cmp         w8,#0x110
	bne         |$LN14@AuVirtioTa|

; 95   : 				buttonLeft = evt.value;

	adrp        x9,buttonLeft
	ldr         w8,[sp,#4]
	str         w8,[x9,PageOffset(buttonLeft)]

; 96   : 			}

	b           |$LN15@AuVirtioTa|
|$LN14@AuVirtioTa|

; 97   : 			else if (evt.code == 0x111) {

	ldrh        w8,[sp,#2]
	mov         w8,w8
	cmp         w8,#0x111
	bne         |$LN16@AuVirtioTa|

; 98   : 				buttonRight = evt.value;

	adrp        x9,buttonRight
	ldr         w8,[sp,#4]
	str         w8,[x9,PageOffset(buttonRight)]

; 99   : 			}

	b           |$LN17@AuVirtioTa|
|$LN16@AuVirtioTa|

; 100  : 			else if (evt.code == 0x112) {

	ldrh        w8,[sp,#2]
	mov         w8,w8
	cmp         w8,#0x112
	bne         |$LN18@AuVirtioTa|

; 101  : 				buttonMiddle = evt.value;

	adrp        x9,buttonMiddle
	ldr         w8,[sp,#4]
	str         w8,[x9,PageOffset(buttonMiddle)]

; 102  : 			}

	b           |$LN19@AuVirtioTa|
|$LN18@AuVirtioTa|

; 103  : 			else if (evt.code == 0x150) {

	ldrh        w8,[sp,#2]
	mov         w8,w8
	cmp         w8,#0x150
	bne         |$LN20@AuVirtioTa|

; 104  : 				buttonScrollDown = 1;

	adrp        x9,buttonScrollDown
	mov         w8,#1
	str         w8,[x9,PageOffset(buttonScrollDown)]

; 105  : 			}

	b           |$LN21@AuVirtioTa|
|$LN20@AuVirtioTa|

; 106  : 			else if (evt.code == 0x151) {

	ldrh        w8,[sp,#2]
	mov         w8,w8
	cmp         w8,#0x151
	bne         |$LN22@AuVirtioTa|

; 107  : 				buttonScrollUp = 1;

	adrp        x9,buttonScrollUp
	mov         w8,#1
	str         w8,[x9,PageOffset(buttonScrollUp)]
|$LN22@AuVirtioTa|
|$LN21@AuVirtioTa|
|$LN19@AuVirtioTa|
|$LN17@AuVirtioTa|
|$LN15@AuVirtioTa|

; 108  : 			}
; 109  : 		}

	b           |$LN13@AuVirtioTa|
|$LN12@AuVirtioTa|

; 110  : 		else if (evt.type == 0) {

	ldrh        w8,[sp]
	mov         w8,w8
	cmp         w8,#0
	bne         |$LN23@AuVirtioTa|

; 111  : 			AuInputMessage newmsg;
; 112  : 			memset(&newmsg, 0, sizeof(AuInputMessage));

	mov         x2,#0x20
	mov         w1,#0
	add         x0,sp,#0x38
	bl          memset

; 113  : 			newmsg.type = AU_INPUT_MOUSE;

	mov         w8,#1
	strb        w8,[sp,#0x38]

; 114  : 			newmsg.xpos = mouseX;

	adrp        x8,mouseX
	ldr         w8,[x8,PageOffset(mouseX)]
	str         w8,[sp,#0x3C]

; 115  : 			newmsg.ypos = mouseY;

	adrp        x8,mouseY
	ldr         w8,[x8,PageOffset(mouseY)]
	str         w8,[sp,#0x40]

; 116  : 			newmsg.button_state |= (buttonLeft ? MOUSE_LEFT_CLICK : 0) |

	adrp        x8,buttonLeft
	ldr         w8,[x8,PageOffset(buttonLeft)]
	cmp         w8,#0
	beq         |$LN25@AuVirtioTa|
	mov         w8,#1
	str         w8,[sp,#0xC]
	b           |$LN26@AuVirtioTa|
|$LN25@AuVirtioTa|
	mov         w8,#0
	str         w8,[sp,#0xC]
|$LN26@AuVirtioTa|
	adrp        x8,buttonRight
	ldr         w8,[x8,PageOffset(buttonRight)]
	cmp         w8,#0
	beq         |$LN27@AuVirtioTa|
	mov         w8,#2
	str         w8,[sp,#0x10]
	b           |$LN28@AuVirtioTa|
|$LN27@AuVirtioTa|
	mov         w8,#0
	str         w8,[sp,#0x10]
|$LN28@AuVirtioTa|
	adrp        x8,buttonMiddle
	ldr         w8,[x8,PageOffset(buttonMiddle)]
	cmp         w8,#0
	beq         |$LN29@AuVirtioTa|
	mov         w8,#4
	str         w8,[sp,#0x14]
	b           |$LN30@AuVirtioTa|
|$LN29@AuVirtioTa|
	mov         w8,#0
	str         w8,[sp,#0x14]
|$LN30@AuVirtioTa|
	adrp        x8,buttonScrollDown
	ldr         w8,[x8,PageOffset(buttonScrollDown)]
	cmp         w8,#0
	beq         |$LN31@AuVirtioTa|
	mov         w8,#6
	str         w8,[sp,#0x18]
	b           |$LN32@AuVirtioTa|
|$LN31@AuVirtioTa|
	mov         w8,#0
	str         w8,[sp,#0x18]
|$LN32@AuVirtioTa|
	adrp        x8,buttonScrollUp
	ldr         w8,[x8,PageOffset(buttonScrollUp)]
	cmp         w8,#0
	beq         |$LN33@AuVirtioTa|
	mov         w8,#5
	str         w8,[sp,#0x1C]
	b           |$LN34@AuVirtioTa|
|$LN33@AuVirtioTa|
	mov         w8,#0
	str         w8,[sp,#0x1C]
|$LN34@AuVirtioTa|
	ldr         w9,[sp,#0xC]
	ldr         w8,[sp,#0x10]
	orr         w9,w9,w8
	ldr         w8,[sp,#0x14]
	orr         w9,w9,w8
	ldr         w8,[sp,#0x18]
	orr         w9,w9,w8
	ldr         w8,[sp,#0x1C]
	orr         w9,w9,w8
	ldrb        w8,[sp,#0x44]
	mov         w8,w8
	orr         w8,w8,w9
	uxtb        w8,w8
	strb        w8,[sp,#0x44]

; 117  : 				(buttonRight ? MOUSE_RIGHT_CLICK : 0) |
; 118  : 				(buttonMiddle ? MOUSE_MIDDLE_CLICK : 0) |
; 119  : 				(buttonScrollDown ? MOUSE_SCROLL_DOWN : 0) |
; 120  : 				(buttonScrollUp ? MOUSE_SCROLL_UP : 0);
; 121  : 
; 122  : 			AuDevWriteMice(&newmsg);

	add         x0,sp,#0x38
	bl          AuDevWriteMice
|$LN23@AuVirtioTa|
|$LN13@AuVirtioTa|
|$LN8@AuVirtioTa|

; 123  : 		}
; 124  : 		isb_flush();

	bl          isb_flush

; 125  : 		TabletQueue->available.index++;

	adrp        x8,TabletQueue
	ldr         x8,[x8,PageOffset(TabletQueue)]
	add         x8,x8,#0x402
	ldrh        w8,[x8]
	add         w8,w8,#1
	uxth        w9,w8
	adrp        x8,TabletQueue
	ldr         x8,[x8,PageOffset(TabletQueue)]
	add         x8,x8,#0x402
	strh        w9,[x8]

; 126  : 	}

	b           |$LN2@AuVirtioTa|
|$LN3@AuVirtioTa|
	add         sp,sp,#0x60
	ldr         lr,[sp],#0x10
	ret

	ENDP  ; |AuVirtioTabletHandler|

; Function compile flags: /Odtpy
; File C:\Users\paras\source\repos\grep-name\XenevaOS\KernelAA64\Drivers\virtiotablet.c

	AREA	|.text$mn|, CODE, ARM64

|AuVirtioTabletInitialize| PROC

; 131  : void AuVirtioTabletInitialize(uint64_t device) {

|$LN8|
	str         lr,[sp,#-0x10]!
	sub         sp,sp,#0x80
	str         x0,[sp,#0x30]

; 132  : 	int bus = 0;

	mov         w8,#0
	str         w8,[sp,#0x10]

; 133  : 	int func = 0;

	mov         w8,#0
	str         w8,[sp,#8]

; 134  : 	int dev = 0;

	mov         w8,#0
	str         w8,[sp,#0xC]

; 135  : 	if (device == 0xFFFFFFFF)

	mov         x9,#0xFFFFFFFF
	ldr         x8,[sp,#0x30]
	cmp         x8,x9
	bne         |$LN5@AuVirtioTa|

; 136  : 		return 1;

	mov         w0,#1
	b           |$LN1@AuVirtioTa|
|$LN5@AuVirtioTa|

; 137  : 
; 138  : 	uint16_t command = AuPCIERead(device, PCI_COMMAND, bus, dev, func);

	ldr         w4,[sp,#8]
	ldr         w3,[sp,#0xC]
	ldr         w2,[sp,#0x10]
	mov         w1,#4
	ldr         x0,[sp,#0x30]
	bl          AuPCIERead
	mov         w0,w0
	uxth        w8,w0
	strh        w8,[sp]

; 139  : 	command |= 4;

	ldrh        w8,[sp]
	mov         w8,w8
	orr         w8,w8,#4
	uxth        w8,w8
	strh        w8,[sp]

; 140  : 	command |= 2;

	ldrh        w8,[sp]
	mov         w8,w8
	orr         w8,w8,#2
	uxth        w8,w8
	strh        w8,[sp]

; 141  : 	command |= 1;

	ldrh        w8,[sp]
	mov         w8,w8
	orr         w8,w8,#1
	uxth        w8,w8
	strh        w8,[sp]

; 142  : 	AuPCIEWrite(device, PCI_COMMAND, command, bus, dev, func);

	ldrh        w2,[sp]
	mov         w2,w2
	ldr         w5,[sp,#8]
	ldr         w4,[sp,#0xC]
	ldr         w3,[sp,#0x10]
	mov         w2,w2
	mov         w1,#4
	ldr         x0,[sp,#0x30]
	bl          AuPCIEWrite

; 143  : 	isb_flush();

	bl          isb_flush

; 144  : 	dsb_ish();

	bl          dsb_ish

; 145  : 
; 146  : 	uint64_t barLo = AuPCIERead(device, PCI_BAR4, bus, dev, func);

	ldr         w4,[sp,#8]
	ldr         w3,[sp,#0xC]
	ldr         w2,[sp,#0x10]
	mov         w1,#0x20
	ldr         x0,[sp,#0x30]
	bl          AuPCIERead
	mov         w0,w0
	uxtw        x8,w0
	str         x8,[sp,#0x60]

; 147  : 	uint64_t barHi = AuPCIERead(device, PCI_BAR5, bus, dev, func);

	ldr         w4,[sp,#8]
	ldr         w3,[sp,#0xC]
	ldr         w2,[sp,#0x10]
	mov         w1,#0x24
	ldr         x0,[sp,#0x30]
	bl          AuPCIERead
	mov         w0,w0
	uxtw        x8,w0
	str         x8,[sp,#0x58]

; 148  : 	uint64_t bar = ((uint64_t)barHi << 32) | (barLo & ~0xFULL);

	ldr         x8,[sp,#0x58]
	lsl         x9,x8,#0x20
	ldr         x8,[sp,#0x60]
	and         x8,x8,#-0x10
	orr         x8,x9,x8
	str         x8,[sp,#0x48]

; 149  : 	uint64_t finalAddr = (uint64_t)AuMapMMIO(bar, 2);

	mov         x1,#2
	ldr         x0,[sp,#0x48]
	bl          AuMapMMIO
	str         x0,[sp,#0x68]

; 150  : 	struct VirtioDeviceConfig* cfg = (struct VirtioDeviceConfig*)(bar + 0x2000);

	ldr         x8,[sp,#0x48]
	add         x8,x8,#2,lsl #0xC
	str         x8,[sp,#0x18]

; 151  : 	cfg->select = 1;

	ldr         x9,[sp,#0x18]
	mov         w8,#1
	strb        w8,[x9]

; 152  : 	cfg->subsel = 0;

	ldr         x8,[sp,#0x18]
	add         x9,x8,#1
	mov         w8,#0
	strb        w8,[x9]

; 153  : 	isb_flush();

	bl          isb_flush

; 154  : 	dsb_ish();

	bl          dsb_ish

; 155  : 	UARTDebugOut("VIRTIO Tablet Name : %s \n", cfg->data.str);

	ldr         x8,[sp,#0x18]
	add         x1,x8,#8
	adrp        x8,|$SG3562|
	add         x0,x8,PageOffset(|$SG3562|)
	bl          UARTDebugOut

; 156  : 
; 157  : 	cfg->select = 0x12;

	ldr         x9,[sp,#0x18]
	mov         w8,#0x12
	strb        w8,[x9]

; 158  : 	cfg->subsel = 0;

	ldr         x8,[sp,#0x18]
	add         x9,x8,#1
	mov         w8,#0
	strb        w8,[x9]

; 159  : 	isb_flush();

	bl          isb_flush

; 160  : 	dsb_ish();

	bl          dsb_ish

; 161  : 	uint32_t max_x = cfg->data.tablet_data.max;

	ldr         x8,[sp,#0x18]
	add         x8,x8,#0xC
	ldr         w8,[x8]
	str         w8,[sp,#0x40]

; 162  : 	cfg->select = 0x12;

	ldr         x9,[sp,#0x18]
	mov         w8,#0x12
	strb        w8,[x9]

; 163  : 	cfg->subsel = 1;

	ldr         x8,[sp,#0x18]
	add         x9,x8,#1
	mov         w8,#1
	strb        w8,[x9]

; 164  : 	isb_flush();

	bl          isb_flush

; 165  : 	dsb_ish();

	bl          dsb_ish

; 166  : 	uint32_t max_y = cfg->data.tablet_data.max;

	ldr         x8,[sp,#0x18]
	add         x8,x8,#0xC
	ldr         w8,[x8]
	str         w8,[sp,#0x44]

; 167  : 
; 168  : 	maxX = max_x;

	adrp        x9,maxX
	ldr         w8,[sp,#0x40]
	str         w8,[x9,PageOffset(maxX)]

; 169  : 	maxY = max_y;

	adrp        x9,maxY
	ldr         w8,[sp,#0x44]
	str         w8,[x9,PageOffset(maxY)]

; 170  : 
; 171  : 
; 172  : 	cfg->select = 0;

	ldr         x9,[sp,#0x18]
	mov         w8,#0
	strb        w8,[x9]

; 173  : 	cfg->subsel = 0;

	ldr         x8,[sp,#0x18]
	add         x9,x8,#1
	mov         w8,#0
	strb        w8,[x9]

; 174  : 	isb_flush();

	bl          isb_flush

; 175  : 	dsb_ish();

	bl          dsb_ish

; 176  : 
; 177  : 	int spiID = AuGICAllocateSPI();

	bl          AuGICAllocateSPI
	mov         w0,w0
	str         w0,[sp,#0x28]

; 178  : 	UARTDebugOut("VIRTIO Tablet SPI ID: %d \n", spiID);

	ldr         w1,[sp,#0x28]
	adrp        x8,|$SG3563|
	add         x0,x8,PageOffset(|$SG3563|)
	bl          UARTDebugOut

; 179  : 	if (AuPCIEAllocMSI(device, spiID, bus, dev, func)) {

	ldr         w8,[sp,#0x28]
	sxtw        x1,w8
	ldr         w4,[sp,#8]
	ldr         w3,[sp,#0xC]
	ldr         w2,[sp,#0x10]
	ldr         x0,[sp,#0x30]
	bl          AuPCIEAllocMSI
	uxtb        w8,w0
	mov         w8,w8
	cmp         w8,#0
	beq         |$LN6@AuVirtioTa|

; 180  : 		UARTDebugOut("VIRTIO Tablet MSI allocated \n");

	adrp        x8,|$SG3565|
	add         x0,x8,PageOffset(|$SG3565|)
	bl          UARTDebugOut
|$LN6@AuVirtioTa|

; 181  : 	}
; 182  : 	GICEnableSPIIRQ(spiID);

	ldr         w0,[sp,#0x28]
	bl          GICEnableSPIIRQ

; 183  : 	//GICSetTargetCPU(spiID);
; 184  : 	isb_flush();

	bl          isb_flush

; 185  : 	dsb_ish();

	bl          dsb_ish

; 186  : 
; 187  : 	GICRegisterSPIHandler(&AuVirtioTabletHandler, spiID);

	ldr         w1,[sp,#0x28]
	adrp        x8,AuVirtioTabletHandler
	add         x0,x8,PageOffset(AuVirtioTabletHandler)
	bl          GICRegisterSPIHandler

; 188  : 
; 189  : 	struct VirtioCommonCfg* common = (struct VirtioCommonCfg*)bar;

	ldr         x8,[sp,#0x48]
	str         x8,[sp,#0x20]

; 190  : 	common->DeviceStatus = 0;

	ldr         x8,[sp,#0x20]
	add         x9,x8,#0x14
	mov         w8,#0
	strb        w8,[x9]

; 191  : 	isb_flush();

	bl          isb_flush

; 192  : 
; 193  : 	int queueSz = common->QueueSize;

	ldr         x8,[sp,#0x20]
	add         x8,x8,#0x18
	ldrh        w8,[x8]
	mov         w8,w8
	str         w8,[sp,#0x2C]

; 194  : 	tabletQueueSz = queueSz;

	adrp        x9,tabletQueueSz
	ldr         w8,[sp,#0x2C]
	str         w8,[x9,PageOffset(tabletQueueSz)]

; 195  : 	uint64_t queuePhys = (uint64_t)AuPmmngrAlloc();//AuPmmngrAllocBlocks(((sizeof(struct VirtioQueue) * queueSz)) / 0x1000);

	bl          AuPmmngrAlloc
	str         x0,[sp,#0x38]

; 196  : 	TabletQueue = (struct VirtioQueue*)AuMapMMIO(queuePhys, 1/*((sizeof(struct VirtioQueue) * queueSz)) / 0x1000*/);

	mov         x1,#1
	ldr         x0,[sp,#0x38]
	bl          AuMapMMIO
	adrp        x8,TabletQueue
	str         x0,[x8,PageOffset(TabletQueue)]

; 197  : 	size_t desc_size = queueSz * sizeof(struct VirtioQueue);

	ldr         w8,[sp,#0x2C]
	sxtw        x9,w8
	mov         x8,#0x690
	mul         x8,x9,x8
	str         x8,[sp,#0x70]

; 198  : 	common->QueueSelect = 0;

	ldr         x8,[sp,#0x20]
	add         x9,x8,#0x16
	mov         w8,#0
	strh        w8,[x9]

; 199  : 	common->QueueDesc = queuePhys;

	ldr         x8,[sp,#0x20]
	add         x9,x8,#0x20
	ldr         x8,[sp,#0x38]
	str         x8,[x9]

; 200  : 	common->QueueAvail = (queuePhys)+OFFSETOF(struct VirtioQueue, available);

	ldr         x8,[sp,#0x38]
	add         x9,x8,#0x400
	ldr         x8,[sp,#0x20]
	add         x8,x8,#0x28
	str         x9,[x8]

; 201  : 	common->QueueUsed = (queuePhys)+OFFSETOF(struct VirtioQueue, used);

	ldr         x8,[sp,#0x38]
	add         x9,x8,#0x488
	ldr         x8,[sp,#0x20]
	add         x8,x8,#0x30
	str         x9,[x8]

; 202  : 	common->MSix = 0;

	ldr         x8,[sp,#0x20]
	add         x9,x8,#0x10
	mov         w8,#0
	strh        w8,[x9]

; 203  : 	common->QueueMSixVector = 0;

	ldr         x8,[sp,#0x20]
	add         x9,x8,#0x1A
	mov         w8,#0
	strh        w8,[x9]

; 204  : 	isb_flush();

	bl          isb_flush

; 205  : 	dsb_ish();

	bl          dsb_ish

; 206  : 
; 207  : 	uint64_t bufferBase = (uint64_t)AuPmmngrAlloc();

	bl          AuPmmngrAlloc
	str         x0,[sp,#0x50]

; 208  : 	TabletInput = (struct VirtioInputEvent*)AuMapMMIO(bufferBase, 1);

	mov         x1,#1
	ldr         x0,[sp,#0x50]
	bl          AuMapMMIO
	adrp        x8,TabletInput
	str         x0,[x8,PageOffset(TabletInput)]

; 209  : 
; 210  : 
; 211  : 	for (int i = 0; i < queueSz; ++i) {

	mov         w8,#0
	str         w8,[sp,#4]
	b           |$LN4@AuVirtioTa|
|$LN2@AuVirtioTa|
	ldr         w8,[sp,#4]
	add         w8,w8,#1
	str         w8,[sp,#4]
|$LN4@AuVirtioTa|
	ldr         w9,[sp,#0x2C]
	ldr         w8,[sp,#4]
	cmp         w8,w9
	bge         |$LN3@AuVirtioTa|

; 212  : 		TabletQueue->buffers[i].Addr = bufferBase + i * sizeof(struct VirtioInputEvent);

	ldr         w8,[sp,#4]
	sxtw        x9,w8
	mov         x8,#8
	mul         x9,x9,x8
	ldr         x8,[sp,#0x50]
	add         x11,x8,x9
	adrp        x8,TabletQueue
	ldr         x10,[x8,PageOffset(TabletQueue)]
	ldr         w8,[sp,#4]
	sxtw        x9,w8
	mov         x8,#0x10
	mul         x8,x9,x8
	add         x8,x10,x8
	str         x11,[x8]

; 213  : 		TabletQueue->buffers[i].Length = sizeof(struct VirtioInputEvent);

	adrp        x8,TabletQueue
	ldr         x10,[x8,PageOffset(TabletQueue)]
	ldr         w8,[sp,#4]
	sxtw        x9,w8
	mov         x8,#0x10
	mul         x8,x9,x8
	add         x8,x10,x8
	add         x9,x8,#8
	mov         w8,#8
	str         w8,[x9]

; 214  : 		TabletQueue->buffers[i].Flags = 2;

	adrp        x8,TabletQueue
	ldr         x10,[x8,PageOffset(TabletQueue)]
	ldr         w8,[sp,#4]
	sxtw        x9,w8
	mov         x8,#0x10
	mul         x8,x9,x8
	add         x8,x10,x8
	add         x9,x8,#0xC
	mov         w8,#2
	strh        w8,[x9]

; 215  : 		TabletQueue->buffers[i].Next = 0;

	adrp        x8,TabletQueue
	ldr         x10,[x8,PageOffset(TabletQueue)]
	ldr         w8,[sp,#4]
	sxtw        x9,w8
	mov         x8,#0x10
	mul         x8,x9,x8
	add         x8,x10,x8
	add         x9,x8,#0xE
	mov         w8,#0
	strh        w8,[x9]

; 216  : 		TabletQueue->available.ring[i] = i;

	adrp        x8,TabletQueue
	ldr         x8,[x8,PageOffset(TabletQueue)]
	add         x10,x8,#0x404
	ldr         w8,[sp,#4]
	sxtw        x9,w8
	mov         x8,#2
	mul         x8,x9,x8
	add         x9,x10,x8
	ldr         w8,[sp,#4]
	uxth        w8,w8
	strh        w8,[x9]

; 217  : 	}

	b           |$LN2@AuVirtioTa|
|$LN3@AuVirtioTa|

; 218  : 
; 219  : 	TabletQueue->available.index = 0;

	adrp        x8,TabletQueue
	ldr         x8,[x8,PageOffset(TabletQueue)]
	add         x9,x8,#0x402
	mov         w8,#0
	strh        w8,[x9]

; 220  : 	isb_flush();

	bl          isb_flush

; 221  : 	dsb_ish();

	bl          dsb_ish

; 222  : 	common->QueueEnable = 1;

	ldr         x8,[sp,#0x20]
	add         x9,x8,#0x1C
	mov         w8,#1
	strh        w8,[x9]

; 223  : 	isb_flush();

	bl          isb_flush

; 224  : 	dsb_ish();

	bl          dsb_ish

; 225  : 	common->DeviceStatus = 4;

	ldr         x8,[sp,#0x20]
	add         x9,x8,#0x14
	mov         w8,#4
	strb        w8,[x9]

; 226  : 	isb_flush();

	bl          isb_flush

; 227  : 	dsb_ish();

	bl          dsb_ish

; 228  : 
; 229  : 	tabletIndex = 0;

	adrp        x9,tabletIndex
	mov         w8,#0
	strh        w8,[x9,PageOffset(tabletIndex)]

; 230  : 	TabletQueue->available.index = queueSz - 1;

	ldr         w8,[sp,#0x2C]
	sub         w10,w8,#1
	adrp        x8,TabletQueue
	ldr         x8,[x8,PageOffset(TabletQueue)]
	add         x9,x8,#0x402
	uxth        w8,w10
	strh        w8,[x9]

; 231  : 	isb_flush();

	bl          isb_flush

; 232  : 	dsb_ish();

	bl          dsb_ish

; 233  : 
; 234  : 	resX = AuConsoleGetScreenWidth();

	bl          AuConsoleGetScreenWidth
	mov         w0,w0
	adrp        x8,resX
	str         w0,[x8,PageOffset(resX)]

; 235  : 	resY = AuConsoleGetScreenHeight();

	bl          AuConsoleGetScreenHeight
	mov         w0,w0
	adrp        x8,resY
	str         w0,[x8,PageOffset(resY)]

; 236  : 	buttonLeft = buttonMiddle = buttonRight = buttonScrollDown = buttonScrollUp = 0;

	adrp        x9,buttonScrollUp
	mov         w8,#0
	str         w8,[x9,PageOffset(buttonScrollUp)]
	adrp        x9,buttonScrollDown
	adrp        x8,buttonScrollUp
	ldr         w8,[x8,PageOffset(buttonScrollUp)]
	str         w8,[x9,PageOffset(buttonScrollDown)]
	adrp        x9,buttonRight
	adrp        x8,buttonScrollDown
	ldr         w8,[x8,PageOffset(buttonScrollDown)]
	str         w8,[x9,PageOffset(buttonRight)]
	adrp        x9,buttonMiddle
	adrp        x8,buttonRight
	ldr         w8,[x8,PageOffset(buttonRight)]
	str         w8,[x9,PageOffset(buttonMiddle)]
	adrp        x9,buttonLeft
	adrp        x8,buttonMiddle
	ldr         w8,[x8,PageOffset(buttonMiddle)]
	str         w8,[x9,PageOffset(buttonLeft)]

; 237  : 	mouseX = mouseY = 0;

	adrp        x9,mouseY
	mov         w8,#0
	str         w8,[x9,PageOffset(mouseY)]
	adrp        x9,mouseX
	adrp        x8,mouseY
	ldr         w8,[x8,PageOffset(mouseY)]
	str         w8,[x9,PageOffset(mouseX)]
|$LN1@AuVirtioTa|
	add         sp,sp,#0x80
	ldr         lr,[sp],#0x10
	ret

	ENDP  ; |AuVirtioTabletInitialize|

	END
