; Listing generated by Microsoft (R) Optimizing Compiler Version 19.29.30159.0 

	TTL	C:\Users\paras\source\repos\grep-name\XenevaOS\KernelAA64\ARM64\Debug\virtiokbd.obj
	ARM64

	AREA	|.drectve|, DRECTVE


	AREA	|.data|, DATA
	 COMMON	|queue|, 0x8

	 COMMON	|input|, 0x8


	AREA	|.bss|, NOINIT
|index|	%	0x2
|queueSize| %	0x4

	AREA	|.rdata|, DATA, READONLY
|ext_key_map| DCB 0x0
	DCB	0x0
	DCB	0x0
	DCB	0x0
	DCB	0x0
	DCB	0x0
	DCB	0x0
	DCB	0x0
	DCB	0x0
	DCB	0x0
	DCB	0x0
	DCB	0x0
	DCB	0x0
	DCB	0x0
	DCB	0x0
	DCB	0x0
	DCB	0x0
	DCB	0x0
	DCB	0x0
	DCB	0x0
	DCB	0x0
	DCB	0x0
	DCB	0x0
	DCB	0x0
	DCB	0x0
	DCB	0x0
	DCB	0x0
	DCB	0x0
	DCB	0x0
	DCB	0x0
	DCB	0x0
	DCB	0x0
	DCB	0x0
	DCB	0x0
	DCB	0x0
	DCB	0x0
	DCB	0x0
	DCB	0x0
	DCB	0x0
	DCB	0x0
	DCB	0x0
	DCB	0x0
	DCB	0x0
	DCB	0x0
	DCB	0x0
	DCB	0x0
	DCB	0x0
	DCB	0x0
	DCB	0x0
	DCB	0x0
	DCB	0x0
	DCB	0x0
	DCB	0x0
	DCB	0x0
	DCB	0x0
	DCB	0x0
	DCB	0x0
	DCB	0x0
	DCB	0x0
	DCB	0x0
	DCB	0x0
	DCB	0x0
	DCB	0x0
	DCB	0x0
	DCB	0x0
	DCB	0x0
	DCB	0x0
	DCB	0x0
	DCB	0x0
	DCB	0x0
	DCB	0x0
	DCB	0x0
	DCB	0x0
	DCB	0x0
	DCB	0x0
	DCB	0x0
	DCB	0x0
	DCB	0x0
	DCB	0x0
	DCB	0x0
	DCB	0x0
	DCB	0x0
	DCB	0x0
	DCB	0x0
	DCB	0x0
	DCB	0x0
	DCB	0x0
	DCB	0x0
	DCB	0x0
	DCB	0x0
	DCB	0x0
	DCB	0x0
	DCB	0x0
	DCB	0x0
	DCB	0x0
	DCB	0x0
	DCB	0x0
	DCB	0x0
	DCB	0x0
	DCB	0x37
	DCB	0x0
	DCB	0x0
	DCB	0x47
	DCB	0x48
	DCB	0x49
	DCB	0x4b
	DCB	0x4d
	DCB	0x4f
	DCB	0x50
	DCB	0x51
	DCB	0x0
	DCB	0x0
	DCB	0x0
	DCB	0x0
	DCB	0x0
	DCB	0x0
	DCB	0x0
	DCB	0x0
	DCB	0x0
	DCB	0x0
	DCB	0x0
	DCB	0x0
	DCB	0x0
	DCB	0x0
	DCB	0x0
	DCB	0x5b
	%	130
	EXPORT	|AuVirtioKbdInitialize|
	EXPORT	|AuVirtioKbdHandler|
	IMPORT	|AuPCIEAllocMSI|
	IMPORT	|AuPCIEWrite|
	IMPORT	|AuPCIERead|
	IMPORT	|dsb_ish|
	IMPORT	|dsb_sy_barrier|
	IMPORT	|isb_flush|
	IMPORT	|dc_ivac|
	IMPORT	|GICEnableSPIIRQ|
	IMPORT	|AuGICAllocateSPI|
	IMPORT	|GICRegisterSPIHandler|
	IMPORT	|AuDevWriteKybrd|
	IMPORT	|UARTDebugOut|
	IMPORT	|AuPmmngrAlloc|
	IMPORT	|AuMapMMIO|
	IMPORT	|memset|

	AREA	|.pdata|, PDATA
|$pdata$AuVirtioKbdInitialize| DCD imagerel |$LN9|
	DCD	0x4a004cd
	;Flags[SingleProEpi] functionLength[1228] RegF[0] RegI[0] H[0] frameChainReturn[UnChainedSavedLR] frameSize[144]
|$pdata$AuVirtioKbdHandler| DCD imagerel |$LN20|
	DCD	0x420037d
	;Flags[SingleProEpi] functionLength[892] RegF[0] RegI[0] H[0] frameChainReturn[UnChainedSavedLR] frameSize[128]

	AREA	|.data|, DATA
|$SG3498| DCB	"VirtioInput: bad packet : %d (them=%d)", 0xa, 0x0
|$SG3505| DCB	"Extended key press ", 0xa, 0x0
	%	3
|$SG3506| DCB	"virtio-kybrd: unmapped key code : %d ", 0xa, 0x0
	%	1
|$SG3546| DCB	"[aurora]: Virtio Keyboard device found ", 0xa, 0x0
	%	7
|$SG3547| DCB	"VIRTIO Keyboard Name : %s ", 0xa, 0x0
	%	4
|$SG3548| DCB	"VIRTIO Keyboard SPI ID: %d ", 0xa, 0x0
	%	3
|$SG3550| DCB	"VIRTIO Keyboard MSI allocated ", 0xa, 0x0
|$SG3551| DCB	"virtio: queue sz : %d ", 0xa, 0x0
; Function compile flags: /Odtpy
; File C:\Users\paras\source\repos\grep-name\XenevaOS\KernelAA64\Drivers\virtiokbd.c

	AREA	|.text$mn|, CODE, ARM64

|AuVirtioKbdHandler| PROC

; 65   : void AuVirtioKbdHandler(int spinum) {

|$LN20|
	str         lr,[sp,#-0x10]!
	sub         sp,sp,#0x70
	str         w0,[sp,#0x18]

; 66   : 	uint16_t them = queue->used.index;

	adrp        x8,queue
	ldr         x8,[x8,PageOffset(queue)]
	add         x8,x8,#0x48A
	ldrh        w8,[x8]
	strh        w8,[sp,#2]

; 67   : 	for (; index < them; index++) {

	b           |$LN4@AuVirtioKb|
|$LN2@AuVirtioKb|
	adrp        x8,index
	ldrh        w8,[x8,PageOffset(index)]
	add         w8,w8,#1
	uxth        w9,w8
	adrp        x8,index
	strh        w9,[x8,PageOffset(index)]
|$LN4@AuVirtioKb|
	adrp        x8,index
	ldrh        w9,[x8,PageOffset(index)]
	mov         w9,w9
	ldrh        w8,[sp,#2]
	mov         w8,w8
	cmp         w9,w8
	bge         |$LN3@AuVirtioKb|

; 68   : 		dc_ivac(&input[index % queueSize]);

	adrp        x8,index
	ldrh        w10,[x8,PageOffset(index)]
	mov         w10,w10
	adrp        x8,queueSize
	ldr         w9,[x8,PageOffset(queueSize)]
	cbnz        w9,|$LN16@AuVirtioKb|
	brk         #0xF004
|$LN16@AuVirtioKb|
	sdiv        w8,w10,w9
	mul         w8,w8,w9
	sub         w8,w10,w8
	sxtw        x9,w8
	mov         x8,#8
	mul         x9,x9,x8
	adrp        x8,input
	ldr         x8,[x8,PageOffset(input)]
	add         x0,x8,x9
	bl          dc_ivac

; 69   : 		dsb_sy_barrier();

	bl          dsb_sy_barrier

; 70   : 		struct VirtioInputEvent evt = input[index % queueSize];

	adrp        x8,index
	ldrh        w10,[x8,PageOffset(index)]
	mov         w10,w10
	adrp        x8,queueSize
	ldr         w9,[x8,PageOffset(queueSize)]
	cbnz        w9,|$LN17@AuVirtioKb|
	brk         #0xF004
|$LN17@AuVirtioKb|
	sdiv        w8,w10,w9
	mul         w8,w8,w9
	sub         w8,w10,w8
	sxtw        x9,w8
	mov         x8,#8
	mul         x9,x9,x8
	adrp        x8,input
	ldr         x8,[x8,PageOffset(input)]
	add         x8,x8,x9
	add         x9,sp,#0x20
	ldr         x8,[x8]
	str         x8,[x9]
	add         x9,sp,#8
	add         x8,sp,#0x20
	ldr         x8,[x8]
	str         x8,[x9]
|$LN5@AuVirtioKb|

; 71   : 		while (evt.type == 0xFF) {

	ldrh        w8,[sp,#8]
	mov         w8,w8
	cmp         w8,#0xFF
	bne         |$LN6@AuVirtioKb|

; 72   : 			evt = input[index % queueSize];

	adrp        x8,index
	ldrh        w10,[x8,PageOffset(index)]
	mov         w10,w10
	adrp        x8,queueSize
	ldr         w9,[x8,PageOffset(queueSize)]
	cbnz        w9,|$LN18@AuVirtioKb|
	brk         #0xF004
|$LN18@AuVirtioKb|
	sdiv        w8,w10,w9
	mul         w8,w8,w9
	sub         w8,w10,w8
	sxtw        x9,w8
	mov         x8,#8
	mul         x9,x9,x8
	adrp        x8,input
	ldr         x8,[x8,PageOffset(input)]
	add         x8,x8,x9
	add         x9,sp,#0x28
	ldr         x8,[x8]
	str         x8,[x9]
	add         x9,sp,#8
	add         x8,sp,#0x28
	ldr         x8,[x8]
	str         x8,[x9]

; 73   : 			UARTDebugOut("VirtioInput: bad packet : %d (them=%d)\n", index, them);

	ldrh        w2,[sp,#2]
	mov         w2,w2
	adrp        x8,index
	ldrh        w1,[x8,PageOffset(index)]
	mov         w1,w1
	mov         w2,w2
	mov         w1,w1
	adrp        x8,|$SG3498|
	add         x0,x8,PageOffset(|$SG3498|)
	bl          UARTDebugOut

; 74   : 		}

	b           |$LN5@AuVirtioKb|
|$LN6@AuVirtioKb|

; 75   : 		input[index % queueSize].type = 0xFF;

	adrp        x8,index
	ldrh        w10,[x8,PageOffset(index)]
	mov         w10,w10
	adrp        x8,queueSize
	ldr         w9,[x8,PageOffset(queueSize)]
	cbnz        w9,|$LN19@AuVirtioKb|
	brk         #0xF004
|$LN19@AuVirtioKb|
	sdiv        w8,w10,w9
	mul         w8,w8,w9
	sub         w8,w10,w8
	sxtw        x9,w8
	mov         x8,#8
	mul         x9,x9,x8
	adrp        x8,input
	ldr         x8,[x8,PageOffset(input)]
	add         x9,x8,x9
	mov         w8,#0xFF
	strh        w8,[x9]

; 76   : 		isb_flush();

	bl          isb_flush

; 77   : 		dsb_sy_barrier();

	bl          dsb_sy_barrier

; 78   : 		if (evt.type == 1) {

	ldrh        w8,[sp,#8]
	mov         w8,w8
	cmp         w8,#1
	bne         |$LN7@AuVirtioKb|

; 79   : 			if (evt.code < 0x49) {

	ldrh        w8,[sp,#0xA]
	mov         w8,w8
	cmp         w8,#0x49
	bge         |$LN8@AuVirtioKb|

; 80   : 				uint8_t scancode = evt.code;

	ldrh        w8,[sp,#0xA]
	uxtb        w8,w8
	strb        w8,[sp]

; 81   : 				// Key Release: value |= 0x80;
; 82   : 				// Key Release: value = code
; 83   : 				if (evt.value == 0) {

	ldr         w8,[sp,#0xC]
	cmp         w8,#0
	bne         |$LN10@AuVirtioKb|

; 84   : 					scancode |= 0x80;

	ldrb        w8,[sp]
	mov         w8,w8
	orr         w8,w8,#0x80
	uxtb        w8,w8
	strb        w8,[sp]
|$LN10@AuVirtioKb|

; 85   : 				}
; 86   : 				/* write to xeneva key input msg box */
; 87   : 				AuInputMessage msg;
; 88   : 				memset(&msg, 0, sizeof(AuInputMessage));

	mov         x2,#0x20
	mov         w1,#0
	add         x0,sp,#0x30
	bl          memset

; 89   : 				msg.type = AU_INPUT_KEYBOARD;

	mov         w8,#2
	strb        w8,[sp,#0x30]

; 90   : 				msg.code = scancode & 0xFF;

	ldrb        w8,[sp]
	mov         w8,w8
	and         w8,w8,#0xFF
	str         w8,[sp,#0x40]

; 91   : 				AuDevWriteKybrd(&msg);

	add         x0,sp,#0x30
	bl          AuDevWriteKybrd

; 92   : 			}

	b           |$LN9@AuVirtioKb|
|$LN8@AuVirtioKb|

; 93   : 			else if (ext_key_map[evt.code]) {

	ldrh        w8,[sp,#0xA]
	mov         w9,w8
	mov         x8,#1
	mul         x9,x9,x8
	adrp        x8,ext_key_map
	add         x8,x8,PageOffset(ext_key_map)
	add         x8,x8,x9
	ldrb        w8,[x8]
	mov         w8,w8
	cmp         w8,#0
	beq         |$LN11@AuVirtioKb|

; 94   : 				uint32_t scancode = (0xE0 & 0xFF) << 16 | (ext_key_map[evt.code] & 0xFF) << 8 | (((evt.value == 0) ? 0x80 : 0) & 0xFF);

	ldr         w8,[sp,#0xC]
	cmp         w8,#0
	bne         |$LN14@AuVirtioKb|
	mov         w8,#0x80
	str         w8,[sp,#0x10]
	b           |$LN15@AuVirtioKb|
|$LN14@AuVirtioKb|
	mov         w8,#0
	str         w8,[sp,#0x10]
|$LN15@AuVirtioKb|
	ldrh        w8,[sp,#0xA]
	mov         w9,w8
	mov         x8,#1
	mul         x9,x9,x8
	adrp        x8,ext_key_map
	add         x8,x8,PageOffset(ext_key_map)
	add         x8,x8,x9
	ldrb        w8,[x8]
	mov         w8,w8
	and         w8,w8,#0xFF
	lsl         w8,w8,#8
	orr         w9,w8,#0xE00000
	ldr         w8,[sp,#0x10]
	and         w8,w8,#0xFF
	orr         w8,w9,w8
	str         w8,[sp,#0x14]

; 95   : 				// 0xE0 (extended code)  upper 16 bits | key code middle 8 bits | value: 0x80 for release, 0 press
; 96   : 				/* write to xeneva key input msg box */
; 97   : 				AuInputMessage msg;
; 98   : 				memset(&msg, 0, sizeof(AuInputMessage));

	mov         x2,#0x20
	mov         w1,#0
	add         x0,sp,#0x50
	bl          memset

; 99   : 				msg.type = AU_INPUT_KEYBOARD;

	mov         w8,#2
	strb        w8,[sp,#0x50]

; 100  : 				msg.code = scancode;

	ldr         w8,[sp,#0x14]
	str         w8,[sp,#0x60]

; 101  : 				AuDevWriteKybrd(&msg);

	add         x0,sp,#0x50
	bl          AuDevWriteKybrd

; 102  : 				UARTDebugOut("Extended key press \n");

	adrp        x8,|$SG3505|
	add         x0,x8,PageOffset(|$SG3505|)
	bl          UARTDebugOut

; 103  : 			}

	b           |$LN12@AuVirtioKb|
|$LN11@AuVirtioKb|

; 104  : 			else {
; 105  : 				UARTDebugOut("virtio-kybrd: unmapped key code : %d \n", evt.code);

	ldrh        w1,[sp,#0xA]
	mov         w1,w1
	mov         w1,w1
	adrp        x8,|$SG3506|
	add         x0,x8,PageOffset(|$SG3506|)
	bl          UARTDebugOut
|$LN12@AuVirtioKb|
|$LN9@AuVirtioKb|
|$LN7@AuVirtioKb|

; 106  : 			}
; 107  : 		}
; 108  : 		isb_flush();

	bl          isb_flush

; 109  : 		queue->available.index++;

	adrp        x8,queue
	ldr         x8,[x8,PageOffset(queue)]
	add         x8,x8,#0x402
	ldrh        w8,[x8]
	add         w8,w8,#1
	uxth        w9,w8
	adrp        x8,queue
	ldr         x8,[x8,PageOffset(queue)]
	add         x8,x8,#0x402
	strh        w9,[x8]

; 110  : 	}

	b           |$LN2@AuVirtioKb|
|$LN3@AuVirtioKb|
	add         sp,sp,#0x70
	ldr         lr,[sp],#0x10
	ret

	ENDP  ; |AuVirtioKbdHandler|

; Function compile flags: /Odtpy
; File C:\Users\paras\source\repos\grep-name\XenevaOS\KernelAA64\Drivers\virtiokbd.c

	AREA	|.text$mn|, CODE, ARM64

|AuVirtioKbdInitialize| PROC

; 116  : void AuVirtioKbdInitialize(uint64_t device) {

|$LN9|
	str         lr,[sp,#-0x10]!
	sub         sp,sp,#0x80
	str         x0,[sp,#0x28]

; 117  : 	device = 0x4010008000;

	ldr         x8,|$LN8@AuVirtioKb|
	str         x8,[sp,#0x28]

; 118  : 	int bus = 0;

	mov         w8,#0
	str         w8,[sp,#0x10]

; 119  : 	int func = 0;

	mov         w8,#0
	str         w8,[sp,#8]

; 120  : 	int dev = 0;

	mov         w8,#0
	str         w8,[sp,#0xC]

; 121  : 	index = 0;

	adrp        x9,index
	mov         w8,#0
	strh        w8,[x9,PageOffset(index)]

; 122  : 	if (device == 0xFFFFFFFF)

	mov         x9,#0xFFFFFFFF
	ldr         x8,[sp,#0x28]
	cmp         x8,x9
	bne         |$LN5@AuVirtioKb|

; 123  : 		return 1;

	mov         w0,#1
	b           |$LN1@AuVirtioKb|
|$LN5@AuVirtioKb|

; 124  : 	UARTDebugOut("[aurora]: Virtio Keyboard device found \n");

	adrp        x8,|$SG3546|
	add         x0,x8,PageOffset(|$SG3546|)
	bl          UARTDebugOut

; 125  : 	uint16_t command = AuPCIERead(device, PCI_COMMAND, bus, dev, func);

	ldr         w4,[sp,#8]
	ldr         w3,[sp,#0xC]
	ldr         w2,[sp,#0x10]
	mov         w1,#4
	ldr         x0,[sp,#0x28]
	bl          AuPCIERead
	mov         w0,w0
	uxth        w8,w0
	strh        w8,[sp]

; 126  : 	command |= 4;

	ldrh        w8,[sp]
	mov         w8,w8
	orr         w8,w8,#4
	uxth        w8,w8
	strh        w8,[sp]

; 127  : 	command |= 2;

	ldrh        w8,[sp]
	mov         w8,w8
	orr         w8,w8,#2
	uxth        w8,w8
	strh        w8,[sp]

; 128  : 	command |= 1;

	ldrh        w8,[sp]
	mov         w8,w8
	orr         w8,w8,#1
	uxth        w8,w8
	strh        w8,[sp]

; 129  : 	AuPCIEWrite(device, PCI_COMMAND, command, bus, dev, func);

	ldrh        w2,[sp]
	mov         w2,w2
	ldr         w5,[sp,#8]
	ldr         w4,[sp,#0xC]
	ldr         w3,[sp,#0x10]
	mov         w2,w2
	mov         w1,#4
	ldr         x0,[sp,#0x28]
	bl          AuPCIEWrite

; 130  : 	isb_flush();

	bl          isb_flush

; 131  : 	dsb_ish();

	bl          dsb_ish

; 132  : 
; 133  : 	uint64_t barLo = AuPCIERead(device, PCI_BAR4, bus, dev, func);

	ldr         w4,[sp,#8]
	ldr         w3,[sp,#0xC]
	ldr         w2,[sp,#0x10]
	mov         w1,#0x20
	ldr         x0,[sp,#0x28]
	bl          AuPCIERead
	mov         w0,w0
	uxtw        x8,w0
	str         x8,[sp,#0x60]

; 134  : 	uint64_t barHi = AuPCIERead(device, PCI_BAR5, bus, dev, func);

	ldr         w4,[sp,#8]
	ldr         w3,[sp,#0xC]
	ldr         w2,[sp,#0x10]
	mov         w1,#0x24
	ldr         x0,[sp,#0x28]
	bl          AuPCIERead
	mov         w0,w0
	uxtw        x8,w0
	str         x8,[sp,#0x58]

; 135  : 	uint64_t bar = ((uint64_t)barHi << 32) | (barLo & ~0xFULL);

	ldr         x8,[sp,#0x58]
	lsl         x9,x8,#0x20
	ldr         x8,[sp,#0x60]
	and         x8,x8,#-0x10
	orr         x8,x9,x8
	str         x8,[sp,#0x48]

; 136  : 	uint64_t finalAddr = (uint64_t)AuMapMMIO(bar, 2);

	mov         x1,#2
	ldr         x0,[sp,#0x48]
	bl          AuMapMMIO
	str         x0,[sp,#0x68]

; 137  : 	struct VirtioDeviceConfig* cfg = (struct VirtioDeviceConfig*)(bar + 0x2000);

	ldr         x8,[sp,#0x48]
	add         x8,x8,#2,lsl #0xC
	str         x8,[sp,#0x30]

; 138  : 	cfg->select = 1;

	ldr         x9,[sp,#0x30]
	mov         w8,#1
	strb        w8,[x9]

; 139  : 	cfg->subsel = 0;

	ldr         x8,[sp,#0x30]
	add         x9,x8,#1
	mov         w8,#0
	strb        w8,[x9]

; 140  : 	isb_flush();

	bl          isb_flush

; 141  : 	dsb_ish();

	bl          dsb_ish

; 142  : 	UARTDebugOut("VIRTIO Keyboard Name : %s \n", cfg->data.str);

	ldr         x8,[sp,#0x30]
	add         x1,x8,#8
	adrp        x8,|$SG3547|
	add         x0,x8,PageOffset(|$SG3547|)
	bl          UARTDebugOut

; 143  : 
; 144  : 	int spiID = AuGICAllocateSPI();

	bl          AuGICAllocateSPI
	mov         w0,w0
	str         w0,[sp,#0x20]

; 145  : 	UARTDebugOut("VIRTIO Keyboard SPI ID: %d \n", spiID);

	ldr         w1,[sp,#0x20]
	adrp        x8,|$SG3548|
	add         x0,x8,PageOffset(|$SG3548|)
	bl          UARTDebugOut

; 146  : 	if (AuPCIEAllocMSI(device, spiID, bus, dev, func)) {

	ldr         w8,[sp,#0x20]
	sxtw        x1,w8
	ldr         w4,[sp,#8]
	ldr         w3,[sp,#0xC]
	ldr         w2,[sp,#0x10]
	ldr         x0,[sp,#0x28]
	bl          AuPCIEAllocMSI
	uxtb        w8,w0
	mov         w8,w8
	cmp         w8,#0
	beq         |$LN6@AuVirtioKb|

; 147  : 		UARTDebugOut("VIRTIO Keyboard MSI allocated \n");

	adrp        x8,|$SG3550|
	add         x0,x8,PageOffset(|$SG3550|)
	bl          UARTDebugOut
|$LN6@AuVirtioKb|

; 148  : 	}
; 149  : 
; 150  : 	GICEnableSPIIRQ(spiID);

	ldr         w0,[sp,#0x20]
	bl          GICEnableSPIIRQ

; 151  : 	//GICSetTargetCPU(spiID);
; 152  : 	isb_flush();

	bl          isb_flush

; 153  : 	dsb_ish();

	bl          dsb_ish

; 154  : 
; 155  : 	GICRegisterSPIHandler(&AuVirtioKbdHandler, spiID);

	ldr         w1,[sp,#0x20]
	adrp        x8,AuVirtioKbdHandler
	add         x0,x8,PageOffset(AuVirtioKbdHandler)
	bl          GICRegisterSPIHandler

; 156  : 
; 157  : 	cfg->select = 0;

	ldr         x9,[sp,#0x30]
	mov         w8,#0
	strb        w8,[x9]

; 158  : 	cfg->subsel = 0;

	ldr         x8,[sp,#0x30]
	add         x9,x8,#1
	mov         w8,#0
	strb        w8,[x9]

; 159  : 	isb_flush();

	bl          isb_flush

; 160  : 	dsb_ish();

	bl          dsb_ish

; 161  : 
; 162  : 	struct VirtioCommonCfg* common = (struct VirtioCommonCfg*)bar;

	ldr         x8,[sp,#0x48]
	str         x8,[sp,#0x18]

; 163  : 	common->DeviceStatus = 0;

	ldr         x8,[sp,#0x18]
	add         x9,x8,#0x14
	mov         w8,#0
	strb        w8,[x9]

; 164  : 	
; 165  : 	isb_flush();

	bl          isb_flush

; 166  : 	dsb_ish();

	bl          dsb_ish

; 167  : 
; 168  : 	int queueSz = common->QueueSize;

	ldr         x8,[sp,#0x18]
	add         x8,x8,#0x18
	ldrh        w8,[x8]
	mov         w8,w8
	str         w8,[sp,#0x14]

; 169  : 	queueSize = queueSz;

	adrp        x9,queueSize
	ldr         w8,[sp,#0x14]
	str         w8,[x9,PageOffset(queueSize)]

; 170  : 	UARTDebugOut("virtio: queue sz : %d \n", queueSz);

	ldr         w1,[sp,#0x14]
	adrp        x8,|$SG3551|
	add         x0,x8,PageOffset(|$SG3551|)
	bl          UARTDebugOut

; 171  : 
; 172  : 
; 173  : 	uint64_t queuePhys = (uint64_t)AuPmmngrAlloc();//AuPmmngrAllocBlocks(((sizeof(struct VirtioQueue) * queueSz))/0x1000);

	bl          AuPmmngrAlloc
	str         x0,[sp,#0x38]

; 174  : 	queue = (struct VirtioQueue*)AuMapMMIO(queuePhys,1 /*((sizeof(struct VirtioQueue)*queueSz))/0x1000*/);

	mov         x1,#1
	ldr         x0,[sp,#0x38]
	bl          AuMapMMIO
	adrp        x8,queue
	str         x0,[x8,PageOffset(queue)]

; 175  : 
; 176  : 	size_t desc_size = queueSz * sizeof(struct VirtioQueue);

	ldr         w8,[sp,#0x14]
	sxtw        x9,w8
	mov         x8,#0x690
	mul         x8,x9,x8
	str         x8,[sp,#0x70]

; 177  : 	common->QueueSelect = 0;

	ldr         x8,[sp,#0x18]
	add         x9,x8,#0x16
	mov         w8,#0
	strh        w8,[x9]

; 178  : 	common->QueueDesc = queuePhys;

	ldr         x8,[sp,#0x18]
	add         x9,x8,#0x20
	ldr         x8,[sp,#0x38]
	str         x8,[x9]

; 179  : 	common->QueueAvail = (queuePhys)+OFFSETOF(struct VirtioQueue, available);

	ldr         x8,[sp,#0x38]
	add         x9,x8,#0x400
	ldr         x8,[sp,#0x18]
	add         x8,x8,#0x28
	str         x9,[x8]

; 180  : 	common->QueueUsed = (queuePhys)+OFFSETOF(struct VirtioQueue, used);

	ldr         x8,[sp,#0x38]
	add         x9,x8,#0x488
	ldr         x8,[sp,#0x18]
	add         x8,x8,#0x30
	str         x9,[x8]

; 181  : 	common->MSix = 0;

	ldr         x8,[sp,#0x18]
	add         x9,x8,#0x10
	mov         w8,#0
	strh        w8,[x9]

; 182  : 	common->QueueMSixVector = 0;

	ldr         x8,[sp,#0x18]
	add         x9,x8,#0x1A
	mov         w8,#0
	strh        w8,[x9]

; 183  : 	isb_flush();

	bl          isb_flush

; 184  : 	dsb_ish();

	bl          dsb_ish

; 185  : 
; 186  : 	uint64_t bufferBase = (uint64_t)AuPmmngrAlloc();

	bl          AuPmmngrAlloc
	str         x0,[sp,#0x50]

; 187  : 	input = (struct VirtioInputEvent*)AuMapMMIO(bufferBase, 1);

	mov         x1,#1
	ldr         x0,[sp,#0x50]
	bl          AuMapMMIO
	adrp        x8,input
	str         x0,[x8,PageOffset(input)]

; 188  : 
; 189  : 
; 190  : 	for (int i = 0; i < queueSz; ++i) {

	mov         w8,#0
	str         w8,[sp,#4]
	b           |$LN4@AuVirtioKb|
|$LN2@AuVirtioKb|
	ldr         w8,[sp,#4]
	add         w8,w8,#1
	str         w8,[sp,#4]
|$LN4@AuVirtioKb|
	ldr         w9,[sp,#0x14]
	ldr         w8,[sp,#4]
	cmp         w8,w9
	bge         |$LN3@AuVirtioKb|

; 191  : 		queue->buffers[i].Addr = bufferBase + i * sizeof(struct VirtioInputEvent);

	ldr         w8,[sp,#4]
	sxtw        x9,w8
	mov         x8,#8
	mul         x9,x9,x8
	ldr         x8,[sp,#0x50]
	add         x11,x8,x9
	adrp        x8,queue
	ldr         x10,[x8,PageOffset(queue)]
	ldr         w8,[sp,#4]
	sxtw        x9,w8
	mov         x8,#0x10
	mul         x8,x9,x8
	add         x8,x10,x8
	str         x11,[x8]

; 192  : 		queue->buffers[i].Length = sizeof(struct VirtioInputEvent);

	adrp        x8,queue
	ldr         x10,[x8,PageOffset(queue)]
	ldr         w8,[sp,#4]
	sxtw        x9,w8
	mov         x8,#0x10
	mul         x8,x9,x8
	add         x8,x10,x8
	add         x9,x8,#8
	mov         w8,#8
	str         w8,[x9]

; 193  : 		queue->buffers[i].Flags = 2;

	adrp        x8,queue
	ldr         x10,[x8,PageOffset(queue)]
	ldr         w8,[sp,#4]
	sxtw        x9,w8
	mov         x8,#0x10
	mul         x8,x9,x8
	add         x8,x10,x8
	add         x9,x8,#0xC
	mov         w8,#2
	strh        w8,[x9]

; 194  : 		queue->buffers[i].Next = 0;

	adrp        x8,queue
	ldr         x10,[x8,PageOffset(queue)]
	ldr         w8,[sp,#4]
	sxtw        x9,w8
	mov         x8,#0x10
	mul         x8,x9,x8
	add         x8,x10,x8
	add         x9,x8,#0xE
	mov         w8,#0
	strh        w8,[x9]

; 195  : 		queue->available.ring[i] = i;

	adrp        x8,queue
	ldr         x8,[x8,PageOffset(queue)]
	add         x10,x8,#0x404
	ldr         w8,[sp,#4]
	sxtw        x9,w8
	mov         x8,#2
	mul         x8,x9,x8
	add         x9,x10,x8
	ldr         w8,[sp,#4]
	uxth        w8,w8
	strh        w8,[x9]

; 196  : 	}

	b           |$LN2@AuVirtioKb|
|$LN3@AuVirtioKb|

; 197  : 
; 198  : 	queue->available.index = 0;

	adrp        x8,queue
	ldr         x8,[x8,PageOffset(queue)]
	add         x9,x8,#0x402
	mov         w8,#0
	strh        w8,[x9]

; 199  : 	isb_flush();

	bl          isb_flush

; 200  : 	dsb_ish();

	bl          dsb_ish

; 201  : 	common->QueueEnable = 1;

	ldr         x8,[sp,#0x18]
	add         x9,x8,#0x1C
	mov         w8,#1
	strh        w8,[x9]

; 202  : 	isb_flush();

	bl          isb_flush

; 203  : 	dsb_ish();

	bl          dsb_ish

; 204  : 	common->DeviceStatus = 4;

	ldr         x8,[sp,#0x18]
	add         x9,x8,#0x14
	mov         w8,#4
	strb        w8,[x9]

; 205  : 	isb_flush();

	bl          isb_flush

; 206  : 	dsb_ish();

	bl          dsb_ish

; 207  : 
; 208  : 	uint16_t index = 0;

	mov         w8,#0
	strh        w8,[sp,#0x40]

; 209  : 	queue->available.index = queueSz - 1;

	ldr         w8,[sp,#0x14]
	sub         w10,w8,#1
	adrp        x8,queue
	ldr         x8,[x8,PageOffset(queue)]
	add         x9,x8,#0x402
	uxth        w8,w10
	strh        w8,[x9]

; 210  : 	isb_flush();

	bl          isb_flush

; 211  : 	dsb_ish();

	bl          dsb_ish
|$LN1@AuVirtioKb|
	add         sp,sp,#0x80
	ldr         lr,[sp],#0x10
	ret
	nop
|$LN8@AuVirtioKb|
	DCQ         0x4010008000

	ENDP  ; |AuVirtioKbdInitialize|

	END
