; Listing generated by Microsoft (R) Optimizing Compiler Version 19.29.30159.0 

	TTL	C:\Users\paras\source\repos\grep-name\XenevaOS\KernelAA64\ARM64\Debug\virtionet.obj
	ARM64

	AREA	|.drectve|, DRECTVE


	AREA	|.data|, DATA
	 COMMON	|rxqueue|, 0x8

	 COMMON	|txqueue|, 0x8

	 COMMON	|notifyBase|, 0x8

	 COMMON	|notifyOffMultiplier|, 0x4

	EXPORT	|AuVirtioNetInitialize|
	EXPORT	|AuVirtioNetHandler|
	EXPORT	|AuVirtioNetNotifyQueue|
	EXPORT	|AuVirtioNetRxinitialize|
	EXPORT	|AuVirtioNetTxinitialize|
	IMPORT	|AuPCIEAllocMSI|
	IMPORT	|AuPCIEWrite|
	IMPORT	|AuPCIERead|
	IMPORT	|dsb_ish|
	IMPORT	|isb_flush|
	IMPORT	|GICEnableSPIIRQ|
	IMPORT	|AuGICAllocateSPI|
	IMPORT	|GICRegisterSPIHandler|
	IMPORT	|UARTDebugOut|
	IMPORT	|AuPmmngrAlloc|
	IMPORT	|AuPmmngrAllocBlocks|
	IMPORT	|AuTextOut|
	IMPORT	|AuMapMMIO|

	AREA	|.pdata|, PDATA
|$pdata$AuVirtioNetInitialize| DCD imagerel |$LN13|
	DCD	0x4200475
	;Flags[SingleProEpi] functionLength[1140] RegF[0] RegI[0] H[0] frameChainReturn[UnChainedSavedLR] frameSize[128]
|$pdata$AuVirtioNetHandler| DCD imagerel |$LN3|
	DCD	0x1200025
	;Flags[SingleProEpi] functionLength[36] RegF[0] RegI[0] H[0] frameChainReturn[UnChainedSavedLR] frameSize[32]
|$pdata$AuVirtioNetReset| DCD imagerel |AuVirtioNetReset|
	DCD	0x120003d
	;Flags[SingleProEpi] functionLength[60] RegF[0] RegI[0] H[0] frameChainReturn[UnChainedSavedLR] frameSize[32]
|$pdata$AuVirtioNetNotifyQueue| DCD imagerel |$LN3|
	DCD	0x1a0007d
	;Flags[SingleProEpi] functionLength[124] RegF[0] RegI[0] H[0] frameChainReturn[UnChainedSavedLR] frameSize[48]
|$pdata$AuVirtioNetFeatureNegotiate| DCD imagerel |AuVirtioNetFeatureNegotiate|
	DCD	0x1a00135
	;Flags[SingleProEpi] functionLength[308] RegF[0] RegI[0] H[0] frameChainReturn[UnChainedSavedLR] frameSize[48]
|$pdata$AuVirtioNetRxinitialize| DCD imagerel |$LN6|
	DCD	0x1a00229
	;Flags[SingleProEpi] functionLength[552] RegF[0] RegI[0] H[0] frameChainReturn[UnChainedSavedLR] frameSize[48]
|$pdata$AuVirtioNetTxinitialize| DCD imagerel |$LN3|
	DCD	0x1a000f1
	;Flags[SingleProEpi] functionLength[240] RegF[0] RegI[0] H[0] frameChainReturn[UnChainedSavedLR] frameSize[48]

	AREA	|.data|, DATA
|$SG3494| DCB	"[aurora]: virtio-net interrupt occured++ ", 0xd, 0xa, 0x0
|$SG3602| DCB	0xd, 0xa, 0x0
	%	1
|$SG3499| DCB	"[aurora]: virtio net device reset successfull ", 0xd, 0xa
	DCB	0x0
	%	7
|$SG3519| DCB	"[aurora]: virtio net device feature lo val : %x ", 0xd, 0xa
	DCB	0x0
	%	5
|$SG3521| DCB	"[aurora]: warning: virtio-net device is not modern VirtI"
	DCB	"O! ", 0xd, 0xa, 0x0
	%	2
|$SG3522| DCB	"[aurora]: virtio net device feature hi val : %x ", 0xd, 0xa
	DCB	0x0
	%	5
|$SG3541| DCB	"[aurora]: rx queue size : %d ", 0xd, 0xa, 0x0
|$SG3542| DCB	"[aurora]: virtio rx queue initialized ", 0xd, 0xa, 0x0
	%	7
|$SG3555| DCB	"[aurora]: tx queue size : %d ", 0xd, 0xa, 0x0
|$SG3556| DCB	"[aurora]: virtio tx queue initialized ", 0xd, 0xa, 0x0
	%	7
|$SG3588| DCB	"[aurora]: virtio network device found ", 0xd, 0xa, 0x0
	%	7
|$SG3592| DCB	"[virtio-net]: device configuration offset : %x ", 0xa, 0x0
	%	7
|$SG3594| DCB	"[virtio-net]: notify base : %x , off : %x", 0xa, 0x0
	%	5
|$SG3595| DCB	"notify_mult : %x, cap : %x ", 0xa, 0x0
	%	3
|$SG3596| DCB	"[aurora]: virtio-net-dev spi id: %d ", 0xd, 0xa, 0x0
	%	1
|$SG3598| DCB	"[aurora]: virtio-net-dev msi allocated ", 0xd, 0xa, 0x0
	%	6
|$SG3599| DCB	"[aurora]: virtio-net-dev initialized successfully ", 0xd
	DCB	0xa, 0x0
	%	3
|$SG3600| DCB	"[aurora]: virtio-net-dev mac : ", 0x0
|$SG3601| DCB	"%x::", 0x0
; Function compile flags: /Odtpy
; File C:\Users\paras\source\repos\grep-name\XenevaOS\KernelAA64\Drivers\virtionet.c

	AREA	|.text$mn|, CODE, ARM64

|AuVirtioNetTxinitialize| PROC

; 188  : void AuVirtioNetTxinitialize(struct VirtioCommonCfg* common) {

|$LN3|
	str         lr,[sp,#-0x10]!
	sub         sp,sp,#0x20
	str         x0,[sp,#8]

; 189  : 	common->QueueSelect = 1;

	ldr         x8,[sp,#8]
	add         x9,x8,#0x16
	mov         w8,#1
	strh        w8,[x9]

; 190  : 	isb_flush();

	bl          isb_flush

; 191  : 	dsb_ish();

	bl          dsb_ish

; 192  : 	uint16_t qsize = common->QueueSize;

	ldr         x8,[sp,#8]
	add         x8,x8,#0x18
	ldrh        w8,[x8]
	strh        w8,[sp]

; 193  : 	UARTDebugOut("[aurora]: tx queue size : %d \r\n", qsize);

	ldrh        w1,[sp]
	mov         w1,w1
	mov         w1,w1
	adrp        x8,|$SG3555|
	add         x0,x8,PageOffset(|$SG3555|)
	bl          UARTDebugOut

; 194  : 	uint64_t queuePhys = (uint64_t)AuPmmngrAlloc();//AuPmmngrAllocBlocks(((sizeof(struct VirtioQueue) * queueSz)) / 0x1000);

	bl          AuPmmngrAlloc
	str         x0,[sp,#0x10]

; 195  : 	txqueue = (struct VirtioQueue*)AuMapMMIO(queuePhys, 1);

	mov         x1,#1
	ldr         x0,[sp,#0x10]
	bl          AuMapMMIO
	adrp        x8,txqueue
	str         x0,[x8,PageOffset(txqueue)]

; 196  : 	common->QueueDesc = queuePhys;

	ldr         x8,[sp,#8]
	add         x9,x8,#0x20
	ldr         x8,[sp,#0x10]
	str         x8,[x9]

; 197  : 	common->QueueAvail = (queuePhys)+OFFSETOF(struct VirtioQueue, available);

	ldr         x8,[sp,#0x10]
	add         x9,x8,#0x400
	ldr         x8,[sp,#8]
	add         x8,x8,#0x28
	str         x9,[x8]

; 198  : 	common->QueueUsed = (queuePhys)+OFFSETOF(struct VirtioQueue, used);

	ldr         x8,[sp,#0x10]
	add         x9,x8,#0x488
	ldr         x8,[sp,#8]
	add         x8,x8,#0x30
	str         x9,[x8]

; 199  : 	common->MSix = 0;

	ldr         x8,[sp,#8]
	add         x9,x8,#0x10
	mov         w8,#0
	strh        w8,[x9]

; 200  : 	common->QueueMSixVector = 0;

	ldr         x8,[sp,#8]
	add         x9,x8,#0x1A
	mov         w8,#0
	strh        w8,[x9]

; 201  : 	common->QueueEnable = 1;

	ldr         x8,[sp,#8]
	add         x9,x8,#0x1C
	mov         w8,#1
	strh        w8,[x9]

; 202  : 	isb_flush();

	bl          isb_flush

; 203  : 	dsb_ish();

	bl          dsb_ish

; 204  : 	UARTDebugOut("[aurora]: virtio tx queue initialized \r\n");

	adrp        x8,|$SG3556|
	add         x0,x8,PageOffset(|$SG3556|)
	bl          UARTDebugOut
	add         sp,sp,#0x20
	ldr         lr,[sp],#0x10
	ret

	ENDP  ; |AuVirtioNetTxinitialize|

; Function compile flags: /Odtpy
; File C:\Users\paras\source\repos\grep-name\XenevaOS\KernelAA64\Drivers\virtionet.c

	AREA	|.text$mn|, CODE, ARM64

|AuVirtioNetRxinitialize| PROC

; 151  : void AuVirtioNetRxinitialize(struct VirtioCommonCfg* common) {

|$LN6|
	str         lr,[sp,#-0x10]!
	sub         sp,sp,#0x20
	str         x0,[sp,#8]

; 152  : 	common->QueueSelect = 0;

	ldr         x8,[sp,#8]
	add         x9,x8,#0x16
	mov         w8,#0
	strh        w8,[x9]

; 153  : 	isb_flush();

	bl          isb_flush

; 154  : 	dsb_ish();

	bl          dsb_ish

; 155  : 	uint16_t qsize = common->QueueSize;

	ldr         x8,[sp,#8]
	add         x8,x8,#0x18
	ldrh        w8,[x8]
	strh        w8,[sp]

; 156  : 	UARTDebugOut("[aurora]: rx queue size : %d \r\n", qsize);

	ldrh        w1,[sp]
	mov         w1,w1
	mov         w1,w1
	adrp        x8,|$SG3541|
	add         x0,x8,PageOffset(|$SG3541|)
	bl          UARTDebugOut

; 157  : 	uint64_t queuePhys = (uint64_t)AuPmmngrAlloc();//AuPmmngrAllocBlocks(((sizeof(struct VirtioQueue) * queueSz)) / 0x1000);

	bl          AuPmmngrAlloc
	str         x0,[sp,#0x10]

; 158  : 	rxqueue = (struct VirtioQueue*)AuMapMMIO(queuePhys, 1);

	mov         x1,#1
	ldr         x0,[sp,#0x10]
	bl          AuMapMMIO
	adrp        x8,rxqueue
	str         x0,[x8,PageOffset(rxqueue)]

; 159  : 
; 160  : 	common->QueueDesc = queuePhys;

	ldr         x8,[sp,#8]
	add         x9,x8,#0x20
	ldr         x8,[sp,#0x10]
	str         x8,[x9]

; 161  : 	common->QueueAvail = (queuePhys)+OFFSETOF(struct VirtioQueue, available);

	ldr         x8,[sp,#0x10]
	add         x9,x8,#0x400
	ldr         x8,[sp,#8]
	add         x8,x8,#0x28
	str         x9,[x8]

; 162  : 	common->QueueUsed = (queuePhys)+OFFSETOF(struct VirtioQueue, used);

	ldr         x8,[sp,#0x10]
	add         x9,x8,#0x488
	ldr         x8,[sp,#8]
	add         x8,x8,#0x30
	str         x9,[x8]

; 163  : 	common->MSix = 0;

	ldr         x8,[sp,#8]
	add         x9,x8,#0x10
	mov         w8,#0
	strh        w8,[x9]

; 164  : 	common->QueueMSixVector = 0;

	ldr         x8,[sp,#8]
	add         x9,x8,#0x1A
	mov         w8,#0
	strh        w8,[x9]

; 165  : 	common->QueueEnable = 1;

	ldr         x8,[sp,#8]
	add         x9,x8,#0x1C
	mov         w8,#1
	strh        w8,[x9]

; 166  : 	isb_flush();

	bl          isb_flush

; 167  : 	dsb_ish();

	bl          dsb_ish

; 168  : 
; 169  : 	uint64_t rxbuff = (uint64_t)AuPmmngrAllocBlocks(4);

	mov         w0,#4
	bl          AuPmmngrAllocBlocks
	str         x0,[sp,#0x18]

; 170  : 	for (int i = 0; i < RX_BUFFER_COUNT; i++) {

	mov         w8,#0
	str         w8,[sp,#4]
	b           |$LN4@AuVirtioNe|
|$LN2@AuVirtioNe|
	ldr         w8,[sp,#4]
	add         w8,w8,#1
	str         w8,[sp,#4]
|$LN4@AuVirtioNe|
	ldr         w8,[sp,#4]
	cmp         w8,#8
	bge         |$LN3@AuVirtioNe|

; 171  : 		rxqueue->buffers[i].Addr = rxbuff + (i * 2048);

	ldr         w9,[sp,#4]
	mov         w8,#0x800
	mul         w8,w9,w8
	sxtw        x9,w8
	ldr         x8,[sp,#0x18]
	add         x11,x8,x9
	adrp        x8,rxqueue
	ldr         x10,[x8,PageOffset(rxqueue)]
	ldr         w8,[sp,#4]
	sxtw        x9,w8
	mov         x8,#0x10
	mul         x8,x9,x8
	add         x8,x10,x8
	str         x11,[x8]

; 172  : 		rxqueue->buffers[i].Length = RX_BUFFER_SIZE;

	adrp        x8,rxqueue
	ldr         x10,[x8,PageOffset(rxqueue)]
	ldr         w8,[sp,#4]
	sxtw        x9,w8
	mov         x8,#0x10
	mul         x8,x9,x8
	add         x8,x10,x8
	add         x9,x8,#8
	mov         w8,#0x800
	str         w8,[x9]

; 173  : 		rxqueue->buffers[i].Flags = 2;

	adrp        x8,rxqueue
	ldr         x10,[x8,PageOffset(rxqueue)]
	ldr         w8,[sp,#4]
	sxtw        x9,w8
	mov         x8,#0x10
	mul         x8,x9,x8
	add         x8,x10,x8
	add         x9,x8,#0xC
	mov         w8,#2
	strh        w8,[x9]

; 174  : 		rxqueue->buffers[i].Next = 0;

	adrp        x8,rxqueue
	ldr         x10,[x8,PageOffset(rxqueue)]
	ldr         w8,[sp,#4]
	sxtw        x9,w8
	mov         x8,#0x10
	mul         x8,x9,x8
	add         x8,x10,x8
	add         x9,x8,#0xE
	mov         w8,#0
	strh        w8,[x9]

; 175  : 		rxqueue->available.ring[i] = i;

	adrp        x8,rxqueue
	ldr         x8,[x8,PageOffset(rxqueue)]
	add         x10,x8,#0x404
	ldr         w8,[sp,#4]
	sxtw        x9,w8
	mov         x8,#2
	mul         x8,x9,x8
	add         x9,x10,x8
	ldr         w8,[sp,#4]
	uxth        w8,w8
	strh        w8,[x9]

; 176  : 	}

	b           |$LN2@AuVirtioNe|
|$LN3@AuVirtioNe|

; 177  : 	rxqueue->available.index = RX_BUFFER_COUNT;

	adrp        x8,rxqueue
	ldr         x8,[x8,PageOffset(rxqueue)]
	add         x9,x8,#0x402
	mov         w8,#8
	strh        w8,[x9]

; 178  : 	dsb_ish();

	bl          dsb_ish

; 179  : 	isb_flush();

	bl          isb_flush

; 180  : 	AuVirtioNetNotifyQueue(common, 0);

	mov         w1,#0
	ldr         x0,[sp,#8]
	bl          AuVirtioNetNotifyQueue

; 181  : 	UARTDebugOut("[aurora]: virtio rx queue initialized \r\n");

	adrp        x8,|$SG3542|
	add         x0,x8,PageOffset(|$SG3542|)
	bl          UARTDebugOut
	add         sp,sp,#0x20
	ldr         lr,[sp],#0x10
	ret

	ENDP  ; |AuVirtioNetRxinitialize|

; Function compile flags: /Odtpy
; File C:\Users\paras\source\repos\grep-name\XenevaOS\KernelAA64\Drivers\virtionet.c

	AREA	|.text$mn|, CODE, ARM64

|AuVirtioNetFeatureNegotiate| PROC

; 115  : static void AuVirtioNetFeatureNegotiate(struct VirtioCommonCfg* common) {

	str         lr,[sp,#-0x10]!
	sub         sp,sp,#0x20
	str         x0,[sp,#8]

; 116  : 	common->DevFeatureSelect = 0;

	ldr         x9,[sp,#8]
	mov         w8,#0
	str         w8,[x9]

; 117  : 	isb_flush();

	bl          isb_flush

; 118  : 	dsb_ish();

	bl          dsb_ish

; 119  : 	uint32_t features_lo = common->DevFeature;

	ldr         x8,[sp,#8]
	add         x8,x8,#4
	ldr         w8,[x8]
	str         w8,[sp]

; 120  : 	UARTDebugOut("[aurora]: virtio net device feature lo val : %x \r\n", features_lo);

	ldr         w1,[sp]
	adrp        x8,|$SG3519|
	add         x0,x8,PageOffset(|$SG3519|)
	bl          UARTDebugOut

; 121  : 	common->DevFeatureSelect = 1;

	ldr         x9,[sp,#8]
	mov         w8,#1
	str         w8,[x9]

; 122  : 	isb_flush();

	bl          isb_flush

; 123  : 	dsb_ish();

	bl          dsb_ish

; 124  : 	uint32_t feature_hi = common->DevFeature;

	ldr         x8,[sp,#8]
	add         x8,x8,#4
	ldr         w8,[x8]
	str         w8,[sp,#4]

; 125  : 	uint64_t features = ((uint64_t)feature_hi << 32) | features_lo;

	ldr         w8,[sp,#4]
	uxtw        x8,w8
	lsl         x9,x8,#0x20
	ldr         w8,[sp]
	uxtw        x8,w8
	orr         x8,x9,x8
	str         x8,[sp,#0x18]

; 126  : 
; 127  : 	if (!(features & VIRTIO_F_VERSION_1))

	ldr         x8,[sp,#0x18]
	tbnz        x8,#0x20,|$LN2@AuVirtioNe|

; 128  : 		UARTDebugOut("[aurora]: warning: virtio-net device is not modern VirtIO! \r\n");

	adrp        x8,|$SG3521|
	add         x0,x8,PageOffset(|$SG3521|)
	bl          UARTDebugOut
|$LN2@AuVirtioNe|

; 129  : 
; 130  : 	UARTDebugOut("[aurora]: virtio net device feature hi val : %x \r\n", feature_hi);

	ldr         w1,[sp,#4]
	adrp        x8,|$SG3522|
	add         x0,x8,PageOffset(|$SG3522|)
	bl          UARTDebugOut

; 131  : 
; 132  : 	uint64_t guestfeatures = 0;

	mov         x8,#0
	str         x8,[sp,#0x10]

; 133  : 	guestfeatures |= VIRTIO_F_VERSION_1;

	ldr         x8,[sp,#0x10]
	orr         x8,x8,#0x100000000
	str         x8,[sp,#0x10]

; 134  : 	guestfeatures &= features;

	ldr         x9,[sp,#0x10]
	ldr         x8,[sp,#0x18]
	and         x8,x9,x8
	str         x8,[sp,#0x10]

; 135  : 
; 136  : 	common->GuestFeatureSelect = 0;

	ldr         x8,[sp,#8]
	add         x9,x8,#8
	mov         w8,#0
	str         w8,[x9]

; 137  : 	common->GuestFeature = guestfeatures & UINT32_MAX;

	ldr         x8,[sp,#0x10]
	and         x10,x8,#0xFFFFFFFF
	ldr         x8,[sp,#8]
	add         x9,x8,#0xC
	mov         w8,w10
	str         w8,[x9]

; 138  : 	isb_flush();

	bl          isb_flush

; 139  : 	dsb_ish();

	bl          dsb_ish

; 140  : 
; 141  : 	common->GuestFeatureSelect = 1;

	ldr         x8,[sp,#8]
	add         x9,x8,#8
	mov         w8,#1
	str         w8,[x9]

; 142  : 	common->GuestFeature = (guestfeatures >> 32) & UINT32_MAX;

	ldr         x8,[sp,#0x10]
	lsr         x10,x8,#0x20
	ldr         x8,[sp,#8]
	add         x9,x8,#0xC
	mov         w8,w10
	str         w8,[x9]

; 143  : 	isb_flush();

	bl          isb_flush

; 144  : 	dsb_ish();

	bl          dsb_ish
	add         sp,sp,#0x20
	ldr         lr,[sp],#0x10
	ret

	ENDP  ; |AuVirtioNetFeatureNegotiate|

; Function compile flags: /Odtpy
; File C:\Users\paras\source\repos\grep-name\XenevaOS\KernelAA64\Drivers\virtionet.c

	AREA	|.text$mn|, CODE, ARM64

|AuVirtioNetNotifyQueue| PROC

; 99   : void AuVirtioNetNotifyQueue(struct VirtioCommonCfg* cfg, uint16_t queueIdx) {

|$LN3|
	str         lr,[sp,#-0x10]!
	sub         sp,sp,#0x20
	str         x0,[sp,#8]
	uxth        w8,w1
	strh        w8,[sp]

; 100  : 	cfg->QueueSelect = queueIdx;

	ldr         x8,[sp,#8]
	add         x9,x8,#0x16
	ldrh        w8,[sp]
	strh        w8,[x9]

; 101  : 	uint16_t notify_off = cfg->QueueNotifyOff;

	ldr         x8,[sp,#8]
	add         x8,x8,#0x1E
	ldrh        w8,[x8]
	strh        w8,[sp,#2]

; 102  : 
; 103  : 	volatile uint16_t* notifyAddr = (volatile uint16_t*)((uint64_t)notifyBase + notify_off * notifyOffMultiplier);

	ldrh        w9,[sp,#2]
	mov         w9,w9
	adrp        x8,notifyOffMultiplier
	ldr         w8,[x8,PageOffset(notifyOffMultiplier)]
	mul         w8,w9,w8
	uxtw        x9,w8
	adrp        x8,notifyBase
	ldr         x8,[x8,PageOffset(notifyBase)]
	add         x8,x8,x9
	str         x8,[sp,#0x10]

; 104  : 	*notifyAddr = queueIdx;

	ldr         x9,[sp,#0x10]
	ldrh        w8,[sp]
	strh        w8,[x9]

; 105  : 
; 106  : 	isb_flush();

	bl          isb_flush

; 107  : 	dsb_ish();

	bl          dsb_ish
	add         sp,sp,#0x20
	ldr         lr,[sp],#0x10
	ret

	ENDP  ; |AuVirtioNetNotifyQueue|

; Function compile flags: /Odtpy
; File C:\Users\paras\source\repos\grep-name\XenevaOS\KernelAA64\Drivers\virtionet.c

	AREA	|.text$mn|, CODE, ARM64

|AuVirtioNetReset| PROC

; 87   : static void AuVirtioNetReset(struct VirtioCommonCfg* common) {

	str         lr,[sp,#-0x10]!
	sub         sp,sp,#0x10
	str         x0,[sp]

; 88   : 	common->DeviceStatus = 0;

	ldr         x8,[sp]
	add         x9,x8,#0x14
	mov         w8,#0
	strb        w8,[x9]

; 89   : 	isb_flush();

	bl          isb_flush

; 90   : 	dsb_ish();

	bl          dsb_ish

; 91   : 	UARTDebugOut("[aurora]: virtio net device reset successfull \r\n");

	adrp        x8,|$SG3499|
	add         x0,x8,PageOffset(|$SG3499|)
	bl          UARTDebugOut
	add         sp,sp,#0x10
	ldr         lr,[sp],#0x10
	ret

	ENDP  ; |AuVirtioNetReset|

; Function compile flags: /Odtpy
; File C:\Users\paras\source\repos\grep-name\XenevaOS\KernelAA64\Drivers\virtionet.c

	AREA	|.text$mn|, CODE, ARM64

|AuVirtioNetHandler| PROC

; 80   : void AuVirtioNetHandler(int spiNum) {

|$LN3|
	str         lr,[sp,#-0x10]!
	sub         sp,sp,#0x10
	str         w0,[sp]

; 81   : 	UARTDebugOut("[aurora]: virtio-net interrupt occured++ \r\n");

	adrp        x8,|$SG3494|
	add         x0,x8,PageOffset(|$SG3494|)
	bl          UARTDebugOut
	add         sp,sp,#0x10
	ldr         lr,[sp],#0x10
	ret

	ENDP  ; |AuVirtioNetHandler|

; Function compile flags: /Odtpy
; File C:\Users\paras\source\repos\grep-name\XenevaOS\KernelAA64\Drivers\virtionet.c

	AREA	|.text$mn|, CODE, ARM64

|AuVirtioNetInitialize| PROC

; 211  : void AuVirtioNetInitialize(uint64_t device) {

|$LN13|
	str         lr,[sp,#-0x10]!
	sub         sp,sp,#0x70
	str         x0,[sp,#0x28]

; 212  : 	UARTDebugOut("[aurora]: virtio network device found \r\n");

	adrp        x8,|$SG3588|
	add         x0,x8,PageOffset(|$SG3588|)
	bl          UARTDebugOut

; 213  : 	int bus = 0;

	mov         w8,#0
	str         w8,[sp,#0xC]

; 214  : 	int func = 0;

	mov         w8,#0
	str         w8,[sp,#4]

; 215  : 	int dev = 0;

	mov         w8,#0
	str         w8,[sp,#8]

; 216  : 	if (device == 0xFFFFFFFF)

	mov         x9,#0xFFFFFFFF
	ldr         x8,[sp,#0x28]
	cmp         x8,x9
	bne         |$LN7@AuVirtioNe|

; 217  : 		return 1;

	mov         w0,#1
	b           |$LN1@AuVirtioNe|
|$LN7@AuVirtioNe|

; 218  : 
; 219  : 	uint16_t command = AuPCIERead(device, PCI_COMMAND, bus, dev, func);

	ldr         w4,[sp,#4]
	ldr         w3,[sp,#8]
	ldr         w2,[sp,#0xC]
	mov         w1,#4
	ldr         x0,[sp,#0x28]
	bl          AuPCIERead
	mov         w0,w0
	uxth        w8,w0
	strh        w8,[sp,#2]

; 220  : 	command |= 4;

	ldrh        w8,[sp,#2]
	mov         w8,w8
	orr         w8,w8,#4
	uxth        w8,w8
	strh        w8,[sp,#2]

; 221  : 	command |= 2;

	ldrh        w8,[sp,#2]
	mov         w8,w8
	orr         w8,w8,#2
	uxth        w8,w8
	strh        w8,[sp,#2]

; 222  : 	command |= 1;

	ldrh        w8,[sp,#2]
	mov         w8,w8
	orr         w8,w8,#1
	uxth        w8,w8
	strh        w8,[sp,#2]

; 223  : 	AuPCIEWrite(device, PCI_COMMAND, command, bus, dev, func);

	ldrh        w2,[sp,#2]
	mov         w2,w2
	ldr         w5,[sp,#4]
	ldr         w4,[sp,#8]
	ldr         w3,[sp,#0xC]
	mov         w2,w2
	mov         w1,#4
	ldr         x0,[sp,#0x28]
	bl          AuPCIEWrite

; 224  : 	isb_flush();

	bl          isb_flush

; 225  : 	dsb_ish();

	bl          dsb_ish

; 226  : 
; 227  : 	uint64_t barLo = AuPCIERead(device, PCI_BAR4, bus, dev, func);

	ldr         w4,[sp,#4]
	ldr         w3,[sp,#8]
	ldr         w2,[sp,#0xC]
	mov         w1,#0x20
	ldr         x0,[sp,#0x28]
	bl          AuPCIERead
	mov         w0,w0
	uxtw        x8,w0
	str         x8,[sp,#0x48]

; 228  : 	uint64_t barHi = AuPCIERead(device, PCI_BAR5, bus, dev, func);

	ldr         w4,[sp,#4]
	ldr         w3,[sp,#8]
	ldr         w2,[sp,#0xC]
	mov         w1,#0x24
	ldr         x0,[sp,#0x28]
	bl          AuPCIERead
	mov         w0,w0
	uxtw        x8,w0
	str         x8,[sp,#0x40]

; 229  : 	uint64_t bar = ((uint64_t)barHi << 32) | (barLo & ~0xFULL);

	ldr         x8,[sp,#0x40]
	lsl         x9,x8,#0x20
	ldr         x8,[sp,#0x48]
	and         x8,x8,#-0x10
	orr         x8,x9,x8
	str         x8,[sp,#0x38]

; 230  : 	uint64_t finalAddr = (uint64_t)AuMapMMIO(bar, 2);

	mov         x1,#2
	ldr         x0,[sp,#0x38]
	bl          AuMapMMIO
	str         x0,[sp,#0x60]

; 231  : 
; 232  : 
; 233  : 	uint8_t cap_ptr = AuPCIERead(device, PCI_CAPABILITIES_PTR, bus, dev, func);

	ldr         w4,[sp,#4]
	ldr         w3,[sp,#8]
	ldr         w2,[sp,#0xC]
	mov         w1,#0x34
	ldr         x0,[sp,#0x28]
	bl          AuPCIERead
	mov         w0,w0
	uxtb        w8,w0
	strb        w8,[sp]

; 234  : 	uint32_t devcfg_offset = 0;

	mov         w8,#0
	str         w8,[sp,#0x30]
|$LN2@AuVirtioNe|

; 235  : 	while (cap_ptr != 0) {

	ldrb        w8,[sp]
	mov         w8,w8
	cmp         w8,#0
	beq         |$LN3@AuVirtioNe|

; 236  : 		volatile virtio_pci_cap* cap = (volatile virtio_pci_cap*)(device + cap_ptr);

	ldrb        w8,[sp]
	mov         w8,w8
	sxtw        x9,w8
	ldr         x8,[sp,#0x28]
	add         x8,x8,x9
	str         x8,[sp,#0x18]

; 237  : 		if (cap->cap_vndr == VIRTIO_PCI_CAP_ID) {

	ldr         x8,[sp,#0x18]
	ldrb        w8,[x8]
	mov         w8,w8
	cmp         w8,#9
	bne         |$LN8@AuVirtioNe|

; 238  : 			if (cap->cfg_type == VIRTIO_PCI_CAP_DEVICE_CFG) {

	ldr         x8,[sp,#0x18]
	add         x8,x8,#3
	ldrb        w8,[x8]
	mov         w8,w8
	cmp         w8,#4
	bne         |$LN9@AuVirtioNe|

; 239  : 				UARTDebugOut("[virtio-net]: device configuration offset : %x \n", cap->offset);

	ldr         x8,[sp,#0x18]
	add         x8,x8,#8
	ldr         w1,[x8]
	adrp        x8,|$SG3592|
	add         x0,x8,PageOffset(|$SG3592|)
	bl          UARTDebugOut

; 240  : 				devcfg_offset = cap->offset;

	ldr         x8,[sp,#0x18]
	add         x8,x8,#8
	ldr         w8,[x8]
	str         w8,[sp,#0x30]
|$LN9@AuVirtioNe|

; 241  : 				//break;
; 242  : 			}
; 243  : 			if (cap->cfg_type == 2) { //NOTIFY_CFG

	ldr         x8,[sp,#0x18]
	add         x8,x8,#3
	ldrb        w8,[x8]
	mov         w8,w8
	cmp         w8,#2
	bne         |$LN10@AuVirtioNe|

; 244  : 				notifyBase = (volatile uint8_t*)(bar + cap->offset);

	ldr         x8,[sp,#0x18]
	add         x8,x8,#8
	ldr         w8,[x8]
	uxtw        x9,w8
	ldr         x8,[sp,#0x38]
	add         x9,x8,x9
	adrp        x8,notifyBase
	str         x9,[x8,PageOffset(notifyBase)]

; 245  : 				struct virtio_notifier_cap* notify = (struct virtio_notifier_cap*)cap;

	ldr         x8,[sp,#0x18]
	str         x8,[sp,#0x50]

; 246  : 				notifyOffMultiplier = notify->notifer_mult_base;

	ldr         x8,[sp,#0x50]
	add         x8,x8,#0x10
	adrp        x9,notifyOffMultiplier
	ldr         w8,[x8]
	str         w8,[x9,PageOffset(notifyOffMultiplier)]

; 247  : 				UARTDebugOut("[virtio-net]: notify base : %x , off : %x\n", notifyBase, cap->offset);

	ldr         x8,[sp,#0x18]
	add         x8,x8,#8
	ldr         w2,[x8]
	adrp        x8,notifyBase
	ldr         x1,[x8,PageOffset(notifyBase)]
	adrp        x8,|$SG3594|
	add         x0,x8,PageOffset(|$SG3594|)
	bl          UARTDebugOut

; 248  : 				UARTDebugOut("notify_mult : %x, cap : %x \n", notifyOffMultiplier, cap);

	ldr         x2,[sp,#0x18]
	adrp        x8,notifyOffMultiplier
	ldr         w1,[x8,PageOffset(notifyOffMultiplier)]
	adrp        x8,|$SG3595|
	add         x0,x8,PageOffset(|$SG3595|)
	bl          UARTDebugOut
|$LN10@AuVirtioNe|
|$LN8@AuVirtioNe|

; 249  : 			}
; 250  : 		}
; 251  : 		cap_ptr = cap->cap_next;

	ldr         x8,[sp,#0x18]
	add         x8,x8,#1
	ldrb        w8,[x8]
	strb        w8,[sp]

; 252  : 	}

	b           |$LN2@AuVirtioNe|
|$LN3@AuVirtioNe|

; 253  : 
; 254  : 	struct VirtioCommonCfg* common = (struct VirtioCommonCfg*)bar;

	ldr         x8,[sp,#0x38]
	str         x8,[sp,#0x10]

; 255  : 	AuVirtioNetReset(common);

	ldr         x0,[sp,#0x10]
	bl          AuVirtioNetReset

; 256  : 
; 257  : 	struct VirtioNetCfg* netcfg = (struct VirtioNetCfg*)(bar + devcfg_offset);

	ldr         w8,[sp,#0x30]
	uxtw        x9,w8
	ldr         x8,[sp,#0x38]
	add         x8,x8,x9
	str         x8,[sp,#0x58]

; 258  : 	
; 259  : 
; 260  : 	/* acknowledge */
; 261  : 	common->DeviceStatus |= 0x01;

	ldr         x8,[sp,#0x10]
	add         x8,x8,#0x14
	ldrb        w8,[x8]
	mov         w8,w8
	orr         w10,w8,#1
	ldr         x8,[sp,#0x10]
	add         x9,x8,#0x14
	uxtb        w8,w10
	strb        w8,[x9]

; 262  : 	isb_flush();

	bl          isb_flush

; 263  : 	dsb_ish();

	bl          dsb_ish

; 264  : 
; 265  : 	/* driver status */
; 266  : 	common->DeviceStatus |= 0x02;

	ldr         x8,[sp,#0x10]
	add         x8,x8,#0x14
	ldrb        w8,[x8]
	mov         w8,w8
	orr         w10,w8,#2
	ldr         x8,[sp,#0x10]
	add         x9,x8,#0x14
	uxtb        w8,w10
	strb        w8,[x9]

; 267  : 	isb_flush();

	bl          isb_flush

; 268  : 	dsb_ish();

	bl          dsb_ish

; 269  : 
; 270  : 	/** feature negotiation **/
; 271  : 	AuVirtioNetFeatureNegotiate(common);

	ldr         x0,[sp,#0x10]
	bl          AuVirtioNetFeatureNegotiate

; 272  : 	
; 273  : 	common->DeviceStatus |= 0x08;

	ldr         x8,[sp,#0x10]
	add         x8,x8,#0x14
	ldrb        w8,[x8]
	mov         w8,w8
	orr         w10,w8,#8
	ldr         x8,[sp,#0x10]
	add         x9,x8,#0x14
	uxtb        w8,w10
	strb        w8,[x9]

; 274  : 	isb_flush();

	bl          isb_flush

; 275  : 	dsb_ish();

	bl          dsb_ish

; 276  : 
; 277  : 	int spiID = AuGICAllocateSPI();

	bl          AuGICAllocateSPI
	mov         w0,w0
	str         w0,[sp,#0x20]

; 278  : 	UARTDebugOut("[aurora]: virtio-net-dev spi id: %d \r\n", spiID);

	ldr         w1,[sp,#0x20]
	adrp        x8,|$SG3596|
	add         x0,x8,PageOffset(|$SG3596|)
	bl          UARTDebugOut

; 279  : 	if (AuPCIEAllocMSI(device, spiID, bus, dev, func)) {

	ldr         w8,[sp,#0x20]
	sxtw        x1,w8
	ldr         w4,[sp,#4]
	ldr         w3,[sp,#8]
	ldr         w2,[sp,#0xC]
	ldr         x0,[sp,#0x28]
	bl          AuPCIEAllocMSI
	uxtb        w8,w0
	mov         w8,w8
	cmp         w8,#0
	beq         |$LN11@AuVirtioNe|

; 280  : 		UARTDebugOut("[aurora]: virtio-net-dev msi allocated \r\n");

	adrp        x8,|$SG3598|
	add         x0,x8,PageOffset(|$SG3598|)
	bl          UARTDebugOut
|$LN11@AuVirtioNe|

; 281  : 	}
; 282  : 	GICEnableSPIIRQ(spiID);

	ldr         w0,[sp,#0x20]
	bl          GICEnableSPIIRQ

; 283  : 	//GICSetTargetCPU(spiID);
; 284  : 	isb_flush();

	bl          isb_flush

; 285  : 	dsb_ish();

	bl          dsb_ish

; 286  : 
; 287  : 	GICRegisterSPIHandler(&AuVirtioNetHandler, spiID);

	ldr         w1,[sp,#0x20]
	adrp        x8,AuVirtioNetHandler
	add         x0,x8,PageOffset(AuVirtioNetHandler)
	bl          GICRegisterSPIHandler

; 288  : 
; 289  : 	/** enable RX+TX queue */
; 290  : 	AuVirtioNetRxinitialize(common);

	ldr         x0,[sp,#0x10]
	bl          AuVirtioNetRxinitialize

; 291  : 	AuVirtioNetTxinitialize(common);

	ldr         x0,[sp,#0x10]
	bl          AuVirtioNetTxinitialize

; 292  : 	common->DeviceStatus |= 0x08;

	ldr         x8,[sp,#0x10]
	add         x8,x8,#0x14
	ldrb        w8,[x8]
	mov         w8,w8
	orr         w10,w8,#8
	ldr         x8,[sp,#0x10]
	add         x9,x8,#0x14
	uxtb        w8,w10
	strb        w8,[x9]

; 293  : 	isb_flush();

	bl          isb_flush

; 294  : 	dsb_ish();

	bl          dsb_ish

; 295  : 
; 296  : 	UARTDebugOut("[aurora]: virtio-net-dev initialized successfully \r\n");

	adrp        x8,|$SG3599|
	add         x0,x8,PageOffset(|$SG3599|)
	bl          UARTDebugOut

; 297  : 	AuTextOut("[aurora]: virtio-net-dev mac : ");

	adrp        x8,|$SG3600|
	add         x0,x8,PageOffset(|$SG3600|)
	bl          AuTextOut

; 298  : 	for (int i = 0; i < 6; i++)

	mov         w8,#0
	str         w8,[sp,#0x24]
	b           |$LN6@AuVirtioNe|
|$LN4@AuVirtioNe|
	ldr         w8,[sp,#0x24]
	add         w8,w8,#1
	str         w8,[sp,#0x24]
|$LN6@AuVirtioNe|
	ldr         w8,[sp,#0x24]
	cmp         w8,#6
	bge         |$LN5@AuVirtioNe|

; 299  : 		AuTextOut("%x::", netcfg->mac[i]);

	ldr         x10,[sp,#0x58]
	ldr         w8,[sp,#0x24]
	sxtw        x9,w8
	mov         x8,#1
	mul         x8,x9,x8
	add         x8,x10,x8
	ldrb        w1,[x8]
	mov         w1,w1
	mov         w1,w1
	adrp        x8,|$SG3601|
	add         x0,x8,PageOffset(|$SG3601|)
	bl          AuTextOut
	b           |$LN4@AuVirtioNe|
|$LN5@AuVirtioNe|

; 300  : 	AuTextOut("\r\n");

	adrp        x8,|$SG3602|
	add         x0,x8,PageOffset(|$SG3602|)
	bl          AuTextOut
|$LN1@AuVirtioNe|
	add         sp,sp,#0x70
	ldr         lr,[sp],#0x10
	ret

	ENDP  ; |AuVirtioNetInitialize|

	END
