; Listing generated by Microsoft (R) Optimizing Compiler Version 19.29.30159.0 

	TTL	C:\Users\paras\source\repos\grep-name\XenevaOS\KernelAA64\ARM64\Debug\virt.obj
	ARM64

	AREA	|.drectve|, DRECTVE

	EXPORT	|AuVirtIOInputInitialize|
	EXPORT	|AuVirtIOInputCheck|
	IMPORT	|AuPCIEGetDevice|
	IMPORT	|AuPCIERead|
	IMPORT	|AuVirtioKbdInitialize|
	IMPORT	|AuVirtioTabletInitialize|
	IMPORT	|strstr|
	IMPORT	|AuMapMMIO|
	IMPORT	|isb_flush|
	IMPORT	|dsb_ish|

	AREA	|.pdata|, PDATA
|$pdata$AuVirtIOInputInitialize| DCD imagerel |$LN20|
	DCD	0x2200235
	;Flags[SingleProEpi] functionLength[564] RegF[0] RegI[0] H[0] frameChainReturn[UnChainedSavedLR] frameSize[64]
|$pdata$AuVirtIOInputCheck| DCD imagerel |$LN6|
	DCD	0x2a00115
	;Flags[SingleProEpi] functionLength[276] RegF[0] RegI[0] H[0] frameChainReturn[UnChainedSavedLR] frameSize[80]

	AREA	|.data|, DATA
|$SG3027| DCB	"Keyboard", 0x0
	%	3
|$SG3029| DCB	"Tablet", 0x0
; Function compile flags: /Odtpy
; File C:\Users\paras\source\repos\grep-name\XenevaOS\KernelAA64\Board\Virt\virt.c

	AREA	|.text$mn|, CODE, ARM64

|AuVirtIOInputCheck| PROC

; 41   : uint8_t AuVirtIOInputCheck(uint64_t device, int bus,int dev,int func) {

|$LN6|
	str         lr,[sp,#-0x10]!
	sub         sp,sp,#0x40
	str         x0,[sp,#0x18]
	str         w1,[sp,#8]
	str         w2,[sp,#4]
	str         w3,[sp]

; 42   : 	uint64_t barLo = AuPCIERead(device, PCI_BAR4, bus, dev, func);

	ldr         w4,[sp]
	ldr         w3,[sp,#4]
	ldr         w2,[sp,#8]
	mov         w1,#0x20
	ldr         x0,[sp,#0x18]
	bl          AuPCIERead
	mov         w0,w0
	uxtw        x8,w0
	str         x8,[sp,#0x30]

; 43   : 	uint64_t barHi = AuPCIERead(device, PCI_BAR5, bus, dev, func);

	ldr         w4,[sp]
	ldr         w3,[sp,#4]
	ldr         w2,[sp,#8]
	mov         w1,#0x24
	ldr         x0,[sp,#0x18]
	bl          AuPCIERead
	mov         w0,w0
	uxtw        x8,w0
	str         x8,[sp,#0x28]

; 44   : 	uint64_t bar = ((uint64_t)barHi << 32) | (barLo & ~0xFULL);

	ldr         x8,[sp,#0x28]
	lsl         x9,x8,#0x20
	ldr         x8,[sp,#0x30]
	and         x8,x8,#-0x10
	orr         x8,x9,x8
	str         x8,[sp,#0x20]

; 45   : 	uint64_t finalAddr = (uint64_t)AuMapMMIO(bar, 2);

	mov         w1,#2
	ldr         x0,[sp,#0x20]
	bl          AuMapMMIO
	mov         w0,w0
	sxtw        x8,w0
	str         x8,[sp,#0x38]

; 46   : 	struct VirtioDeviceConfig* cfg = (struct VirtioDeviceConfig*)(bar + 0x2000);

	ldr         x8,[sp,#0x20]
	add         x8,x8,#2,lsl #0xC
	str         x8,[sp,#0x10]

; 47   : 	cfg->select = 1;

	ldr         x9,[sp,#0x10]
	mov         w8,#1
	strb        w8,[x9]

; 48   : 	cfg->subsel = 0;

	ldr         x8,[sp,#0x10]
	add         x9,x8,#1
	mov         w8,#0
	strb        w8,[x9]

; 49   : 	isb_flush();

	bl          isb_flush

; 50   : 	dsb_ish();

	bl          dsb_ish

; 51   : 	if (strstr(cfg->data.str, "Keyboard"))

	ldr         x8,[sp,#0x10]
	add         x0,x8,#8
	adrp        x8,|$SG3027|
	add         x1,x8,PageOffset(|$SG3027|)
	bl          strstr
	cmp         x0,#0
	beq         |$LN2@AuVirtIOIn|

; 52   : 		return VIRTIO_INPUT_KEYBOARD;

	mov         w0,#1
	b           |$LN1@AuVirtIOIn|
	b           |$LN3@AuVirtIOIn|
|$LN2@AuVirtIOIn|

; 53   : 	else if (strstr(cfg->data.str, "Tablet"))

	ldr         x8,[sp,#0x10]
	add         x0,x8,#8
	adrp        x8,|$SG3029|
	add         x1,x8,PageOffset(|$SG3029|)
	bl          strstr
	cmp         x0,#0
	beq         |$LN4@AuVirtIOIn|

; 54   : 		return VIRTIO_INPUT_TABLET;

	mov         w0,#2
|$LN4@AuVirtIOIn|
|$LN3@AuVirtIOIn|
|$LN1@AuVirtIOIn|
	add         sp,sp,#0x40
	ldr         lr,[sp],#0x10
	ret

	ENDP  ; |AuVirtIOInputCheck|

; Function compile flags: /Odtpy
; File C:\Users\paras\source\repos\grep-name\XenevaOS\KernelAA64\Board\Virt\virt.c

	AREA	|.text$mn|, CODE, ARM64

|AuVirtIOInputInitialize| PROC

; 60   : void AuVirtIOInputInitialize() {

|$LN20|
	str         lr,[sp,#-0x10]!
	sub         sp,sp,#0x30

; 61   : 	int numVirtIODevice = 0;

	mov         w8,#0
	str         w8,[sp,#0x10]

; 62   : 	for (int bus = 0; bus < 255; bus++) {

	mov         w8,#0
	str         w8,[sp,#0xC]
	b           |$LN4@AuVirtIOIn|
|$LN2@AuVirtIOIn|
	ldr         w8,[sp,#0xC]
	add         w8,w8,#1
	str         w8,[sp,#0xC]
|$LN4@AuVirtIOIn|
	ldr         w8,[sp,#0xC]
	cmp         w8,#0xFF
	bge         |$LN3@AuVirtIOIn|

; 63   : 		for (int dev = 0; dev < PCI_DEVICE_PER_BUS; dev++) {

	mov         w8,#0
	str         w8,[sp,#8]
	b           |$LN7@AuVirtIOIn|
|$LN5@AuVirtIOIn|
	ldr         w8,[sp,#8]
	add         w8,w8,#1
	str         w8,[sp,#8]
|$LN7@AuVirtIOIn|
	ldr         w8,[sp,#8]
	cmp         w8,#0x20
	bge         |$LN6@AuVirtIOIn|

; 64   : 			for (int func = 0; func < PCI_FUNCTION_PER_DEVICE; func++) {

	mov         w8,#0
	str         w8,[sp,#4]
	b           |$LN10@AuVirtIOIn|
|$LN8@AuVirtIOIn|
	ldr         w8,[sp,#4]
	add         w8,w8,#1
	str         w8,[sp,#4]
|$LN10@AuVirtIOIn|
	ldr         w8,[sp,#4]
	cmp         w8,#8
	bge         |$LN9@AuVirtIOIn|

; 65   : 				if (numVirtIODevice == 3)

	ldr         w8,[sp,#0x10]
	cmp         w8,#3
	bne         |$LN11@AuVirtIOIn|

; 66   : 					break;

	b           |$LN9@AuVirtIOIn|
|$LN11@AuVirtIOIn|

; 67   : 				uint64_t address = AuPCIEGetDevice(0, bus, dev, func);

	ldr         w3,[sp,#4]
	ldr         w2,[sp,#8]
	ldr         w1,[sp,#0xC]
	mov         w0,#0
	bl          AuPCIEGetDevice
	str         x0,[sp,#0x18]

; 68   : 				if (address == 0)

	ldr         x8,[sp,#0x18]
	cmp         x8,#0
	bne         |$LN12@AuVirtIOIn|

; 69   : 					continue;

	b           |$LN8@AuVirtIOIn|
|$LN12@AuVirtIOIn|

; 70   : 				if (address == 0xFFFFFFFF)

	mov         x9,#0xFFFFFFFF
	ldr         x8,[sp,#0x18]
	cmp         x8,x9
	bne         |$LN13@AuVirtIOIn|

; 71   : 					continue;

	b           |$LN8@AuVirtIOIn|
|$LN13@AuVirtIOIn|

; 72   : 				uint8_t class_code = AuPCIERead(address, PCI_CLASS, bus, dev, func);

	ldr         w4,[sp,#4]
	ldr         w3,[sp,#8]
	ldr         w2,[sp,#0xC]
	mov         w1,#0xB
	ldr         x0,[sp,#0x18]
	bl          AuPCIERead
	mov         w0,w0
	uxtb        w8,w0
	strb        w8,[sp,#0x20]

; 73   : 				uint8_t sub_ClassCode = AuPCIERead(address, PCI_SUBCLASS, bus, dev, func);

	ldr         w4,[sp,#4]
	ldr         w3,[sp,#8]
	ldr         w2,[sp,#0xC]
	mov         w1,#0xA
	ldr         x0,[sp,#0x18]
	bl          AuPCIERead
	mov         w0,w0
	uxtb        w8,w0
	strb        w8,[sp,#0x21]

; 74   : 				uint16_t vendID = AuPCIERead(address, PCI_VENDOR_ID, bus, dev, func);

	ldr         w4,[sp,#4]
	ldr         w3,[sp,#8]
	ldr         w2,[sp,#0xC]
	mov         w1,#0
	ldr         x0,[sp,#0x18]
	bl          AuPCIERead
	mov         w0,w0
	uxth        w8,w0
	strh        w8,[sp,#0x14]

; 75   : 				uint16_t devID = AuPCIERead(address, PCI_DEVICE_ID, bus, dev, func);

	ldr         w4,[sp,#4]
	ldr         w3,[sp,#8]
	ldr         w2,[sp,#0xC]
	mov         w1,#2
	ldr         x0,[sp,#0x18]
	bl          AuPCIERead
	mov         w0,w0
	uxth        w8,w0
	strh        w8,[sp,#0x16]

; 76   : 				//UARTDebugOut("Vendor ID attached : %x devID : %x \r\n", vendID, devID);
; 77   : 				if (vendID == 0x1AF4 && devID == 0x1052) {

	ldrh        w9,[sp,#0x14]
	mov         w9,w9
	mov         w8,#0x1AF4
	cmp         w9,w8
	bne         |$LN14@AuVirtIOIn|
	ldrh        w9,[sp,#0x16]
	mov         w9,w9
	mov         w8,#0x1052
	cmp         w9,w8
	bne         |$LN14@AuVirtIOIn|

; 78   : 					uint8_t devType = AuVirtIOInputCheck(address, bus, dev, func);

	ldr         w3,[sp,#4]
	ldr         w2,[sp,#8]
	ldr         w1,[sp,#0xC]
	ldr         x0,[sp,#0x18]
	bl          AuVirtIOInputCheck
	uxtb        w8,w0
	strb        w8,[sp]

; 79   : 					if (devType == VIRTIO_INPUT_KEYBOARD) {

	ldrb        w8,[sp]
	mov         w8,w8
	cmp         w8,#1
	bne         |$LN15@AuVirtIOIn|

; 80   : 						numVirtIODevice++;

	ldr         w8,[sp,#0x10]
	add         w8,w8,#1
	str         w8,[sp,#0x10]

; 81   : 						AuVirtioKbdInitialize(address);

	ldr         x0,[sp,#0x18]
	bl          AuVirtioKbdInitialize

; 82   : 					}

	b           |$LN16@AuVirtIOIn|
|$LN15@AuVirtIOIn|

; 83   : 					else if (devType == VIRTIO_INPUT_TABLET) {

	ldrb        w8,[sp]
	mov         w8,w8
	cmp         w8,#2
	bne         |$LN17@AuVirtIOIn|

; 84   : 						numVirtIODevice++;

	ldr         w8,[sp,#0x10]
	add         w8,w8,#1
	str         w8,[sp,#0x10]

; 85   : 						AuVirtioTabletInitialize(address);

	ldr         x0,[sp,#0x18]
	bl          AuVirtioTabletInitialize
|$LN17@AuVirtIOIn|
|$LN16@AuVirtIOIn|
|$LN14@AuVirtIOIn|

; 86   : 					}
; 87   : 				}
; 88   : 				if (vendID == 0x1AF4 && devID == 0x1041) {

	ldrh        w9,[sp,#0x14]
	mov         w9,w9
	mov         w8,#0x1AF4
	cmp         w9,w8
	bne         |$LN18@AuVirtIOIn|
	ldrh        w9,[sp,#0x16]
	mov         w9,w9
	mov         w8,#0x1041
	cmp         w9,w8
	bne         |$LN18@AuVirtIOIn|

; 89   : 					/* initialize network device */
; 90   : 					numVirtIODevice++;

	ldr         w8,[sp,#0x10]
	add         w8,w8,#1
	str         w8,[sp,#0x10]
|$LN18@AuVirtIOIn|

; 91   : 					//AuVirtioNetInitialize(address);
; 92   : 				}
; 93   : 			}

	b           |$LN8@AuVirtIOIn|
|$LN9@AuVirtIOIn|

; 94   : 		}

	b           |$LN5@AuVirtIOIn|
|$LN6@AuVirtIOIn|

; 95   : 	}

	b           |$LN2@AuVirtIOIn|
|$LN3@AuVirtIOIn|
	add         sp,sp,#0x30
	ldr         lr,[sp],#0x10
	ret

	ENDP  ; |AuVirtIOInputInitialize|

	END
