; Listing generated by Microsoft (R) Optimizing Compiler Version 19.29.30159.0 

	TTL	C:\Users\paras\source\repos\grep-name\XenevaOS\KernelAA64\ARM64\Debug\vma.obj
	ARM64

	AREA	|.drectve|, DRECTVE

	EXPORT	|AuInsertVMArea|
	EXPORT	|AuRemoveVMArea|
	EXPORT	|AuVMAreaCreate|
	EXPORT	|AuVMAreaGet|
	IMPORT	|memset|
	IMPORT	|list_add|
	IMPORT	|list_remove|
	IMPORT	|list_get_at|
	IMPORT	|kmalloc|
	IMPORT	|kfree|

	AREA	|.pdata|, PDATA
|$pdata$AuInsertVMArea| DCD imagerel |$LN3|
	DCD	0x1200031
	;Flags[SingleProEpi] functionLength[48] RegF[0] RegI[0] H[0] frameChainReturn[UnChainedSavedLR] frameSize[32]
|$pdata$AuRemoveVMArea| DCD imagerel |$LN7|
	DCD	0x1a00099
	;Flags[SingleProEpi] functionLength[152] RegF[0] RegI[0] H[0] frameChainReturn[UnChainedSavedLR] frameSize[48]
|$pdata$AuVMAreaCreate| DCD imagerel |$LN3|
	DCD	0x22000ad
	;Flags[SingleProEpi] functionLength[172] RegF[0] RegI[0] H[0] frameChainReturn[UnChainedSavedLR] frameSize[64]
|$pdata$AuVMAreaGet| DCD imagerel |$LN7|
	DCD	0x1a000a5
	;Flags[SingleProEpi] functionLength[164] RegF[0] RegI[0] H[0] frameChainReturn[UnChainedSavedLR] frameSize[48]
; Function compile flags: /Odtpy
; File C:\Users\paras\source\repos\grep-name\XenevaOS\KernelAA64\Mm\vma.c

	AREA	|.text$mn|, CODE, ARM64

|AuVMAreaGet| PROC

; 85   : AuVMArea* AuVMAreaGet(AuProcess* proc, size_t address) {

|$LN7|
	str         lr,[sp,#-0x10]!
	sub         sp,sp,#0x20
	str         x0,[sp,#0x10]
	str         x1,[sp,#0x18]

; 86   : 	for (int i = 0; i < proc->vmareas->pointer; i++) {

	mov         w8,#0
	str         w8,[sp]
	b           |$LN4@AuVMAreaGe|
|$LN2@AuVMAreaGe|
	ldr         w8,[sp]
	add         w8,w8,#1
	str         w8,[sp]
|$LN4@AuVMAreaGe|
	ldr         x8,[sp,#0x10]
	add         x8,x8,#0x438
	ldr         x8,[x8]
	ldr         w9,[x8]
	ldr         w8,[sp]
	cmp         w8,w9
	bhs         |$LN3@AuVMAreaGe|

; 87   : 		AuVMArea* area_ = (AuVMArea*)list_get_at(proc->vmareas, i);

	ldr         x8,[sp,#0x10]
	add         x8,x8,#0x438
	ldr         w1,[sp]
	ldr         x0,[x8]
	bl          list_get_at
	str         x0,[sp,#8]

; 88   : 		if (address > area_->start && address < area_->end)

	ldr         x8,[sp,#8]
	ldr         x9,[x8]
	ldr         x8,[sp,#0x18]
	cmp         x8,x9
	bls         |$LN5@AuVMAreaGe|
	ldr         x8,[sp,#8]
	add         x8,x8,#8
	ldr         x9,[x8]
	ldr         x8,[sp,#0x18]
	cmp         x8,x9
	bhs         |$LN5@AuVMAreaGe|

; 89   : 			return area_;

	ldr         x0,[sp,#8]
	b           |$LN1@AuVMAreaGe|
|$LN5@AuVMAreaGe|

; 90   : 	}

	b           |$LN2@AuVMAreaGe|
|$LN3@AuVMAreaGe|

; 91   : 	return NULL;

	mov         x0,#0
|$LN1@AuVMAreaGe|
	add         sp,sp,#0x20
	ldr         lr,[sp],#0x10
	ret

	ENDP  ; |AuVMAreaGet|

; Function compile flags: /Odtpy
; File C:\Users\paras\source\repos\grep-name\XenevaOS\KernelAA64\Mm\vma.c

	AREA	|.text$mn|, CODE, ARM64

|AuVMAreaCreate| PROC

; 67   : AuVMArea* AuVMAreaCreate(size_t start, size_t end, uint8_t prot, size_t len, uint8_t type) {

|$LN3|
	str         lr,[sp,#-0x10]!
	sub         sp,sp,#0x30
	str         x0,[sp,#0x10]
	str         x1,[sp,#0x18]
	uxtb        w8,w2
	strb        w8,[sp]
	str         x3,[sp,#0x20]
	uxtb        w8,w4
	strb        w8,[sp,#1]

; 68   : 	AuVMArea* area = (AuVMArea*)kmalloc(sizeof(AuVMArea));

	mov         w0,#0x28
	bl          kmalloc
	str         x0,[sp,#8]

; 69   : 	memset(area, 0, sizeof(AuVMArea));

	mov         w2,#0x28
	mov         w1,#0
	ldr         x0,[sp,#8]
	bl          memset

; 70   : 	area->start = start;

	ldr         x9,[sp,#8]
	ldr         x8,[sp,#0x10]
	str         x8,[x9]

; 71   : 	area->end = end;

	ldr         x8,[sp,#8]
	add         x9,x8,#8
	ldr         x8,[sp,#0x18]
	str         x8,[x9]

; 72   : 	area->prot_flags = prot;

	ldr         x8,[sp,#8]
	add         x9,x8,#0x18
	ldrb        w8,[sp]
	strb        w8,[x9]

; 73   : 	area->len = len;

	ldr         x8,[sp,#8]
	add         x9,x8,#0x10
	ldr         x8,[sp,#0x20]
	str         x8,[x9]

; 74   : 	area->type = type;

	ldr         x8,[sp,#8]
	add         x9,x8,#0x19
	ldrb        w8,[sp,#1]
	strb        w8,[x9]

; 75   : 	area->file = NULL;

	ldr         x8,[sp,#8]
	add         x9,x8,#0x20
	mov         x8,#0
	str         x8,[x9]

; 76   : 	return area;

	ldr         x0,[sp,#8]
	add         sp,sp,#0x30
	ldr         lr,[sp],#0x10
	ret

	ENDP  ; |AuVMAreaCreate|

; Function compile flags: /Odtpy
; File C:\Users\paras\source\repos\grep-name\XenevaOS\KernelAA64\Mm\vma.c

	AREA	|.text$mn|, CODE, ARM64

|AuRemoveVMArea| PROC

; 49   : void AuRemoveVMArea(AuProcess* proc, AuVMArea* area) {

|$LN7|
	str         lr,[sp,#-0x10]!
	sub         sp,sp,#0x20
	str         x0,[sp,#8]
	str         x1,[sp,#0x10]

; 50   : 	for (int i = 0; i < proc->vmareas->pointer; i++) {

	mov         w8,#0
	str         w8,[sp]
	b           |$LN4@AuRemoveVM|
|$LN2@AuRemoveVM|
	ldr         w8,[sp]
	add         w8,w8,#1
	str         w8,[sp]
|$LN4@AuRemoveVM|
	ldr         x8,[sp,#8]
	add         x8,x8,#0x438
	ldr         x8,[x8]
	ldr         w9,[x8]
	ldr         w8,[sp]
	cmp         w8,w9
	bhs         |$LN3@AuRemoveVM|

; 51   : 		AuVMArea* area_ = (AuVMArea*)list_get_at(proc->vmareas, i);

	ldr         x8,[sp,#8]
	add         x8,x8,#0x438
	ldr         w1,[sp]
	ldr         x0,[x8]
	bl          list_get_at
	str         x0,[sp,#0x18]

; 52   : 		if (area_ == area)

	ldr         x9,[sp,#0x10]
	ldr         x8,[sp,#0x18]
	cmp         x8,x9
	bne         |$LN5@AuRemoveVM|

; 53   : 			list_remove(proc->vmareas, i);

	ldr         x8,[sp,#8]
	add         x8,x8,#0x438
	ldr         w1,[sp]
	ldr         x0,[x8]
	bl          list_remove
|$LN5@AuRemoveVM|

; 54   : 	}

	b           |$LN2@AuRemoveVM|
|$LN3@AuRemoveVM|

; 55   : 	kfree(area);

	ldr         x0,[sp,#0x10]
	bl          kfree
	add         sp,sp,#0x20
	ldr         lr,[sp],#0x10
	ret

	ENDP  ; |AuRemoveVMArea|

; Function compile flags: /Odtpy
; File C:\Users\paras\source\repos\grep-name\XenevaOS\KernelAA64\Mm\vma.c

	AREA	|.text$mn|, CODE, ARM64

|AuInsertVMArea| PROC

; 39   : void AuInsertVMArea(AuProcess* proc, AuVMArea* area) {

|$LN3|
	str         lr,[sp,#-0x10]!
	sub         sp,sp,#0x10
	str         x0,[sp]
	str         x1,[sp,#8]

; 40   : 	list_add(proc->vmareas, area);

	ldr         x8,[sp]
	add         x8,x8,#0x438
	ldr         x1,[sp,#8]
	ldr         x0,[x8]
	bl          list_add
	add         sp,sp,#0x10
	ldr         lr,[sp],#0x10
	ret

	ENDP  ; |AuInsertVMArea|

	END
