; Listing generated by Microsoft (R) Optimizing Compiler Version 19.29.30159.0 

	TTL	C:\Users\paras\source\repos\grep-name\XenevaOS\KernelAA64\ARM64\Debug\vmmngr.obj
	ARM64

	AREA	|.drectve|, DRECTVE

	EXPORT	|_vmdebug| [ DATA ]

	AREA	|.data|, DATA
	 COMMON	|_RootPaging|, 0x8

	 COMMON	|_RootPagingKe|, 0x8

	 COMMON	|_MMIOBase|, 0x8


	AREA	|.bss|, NOINIT
|_vmdebug| %	0x1
	EXPORT	|AuVmmngrInitialize|
	EXPORT	|AuVmmngrGetPage|
	EXPORT	|AuMapPage|
	EXPORT	|AuMapPageEx|
	EXPORT	|AuMapMMIO|
	EXPORT	|AuGetFreePage|
	EXPORT	|AuFreePages|
	EXPORT	|AuUpdatePageFlags|
	EXPORT	|AuGetPhysicalAddress|
	EXPORT	|AuGetPhysicalAddressEx|
	EXPORT	|AuCreateVirtualAddressSpace|
	EXPORT	|AuGetRootPageTable|
	EXPORT	|AuVmmngrBootFree|
	EXPORT	|envmdebug|
	IMPORT	|AuTextOut|
	IMPORT	|AuPmmngrAlloc|
	IMPORT	|AuPmmngrFree|
	IMPORT	|P2V|
	IMPORT	|V2P|
	IMPORT	|AuPmmngrMoveHigher|
	IMPORT	|read_ttbr0_el1|
	IMPORT	|write_ttbr0_el1|
	IMPORT	|read_ttbr1_el1|
	IMPORT	|write_ttbr1_el1|
	IMPORT	|dsb_ish|
	IMPORT	|dsb_sy_barrier|
	IMPORT	|isb_flush|
	IMPORT	|tlb_flush|
	IMPORT	|tlb_flush_vmalle1is|
	IMPORT	|data_cache_flush|
	IMPORT	|aa64_data_cache_clean_range|
	IMPORT	|memset|
	IMPORT	|AuLittleBootUsed|
	IMPORT	|UARTDebugOut|

	AREA	|.pdata|, PDATA
|$pdata$AuVmmngrInitialize| DCD imagerel |$LN14|
	DCD	0x2a10249
	;Flags[SingleProEpi] functionLength[584] RegF[0] RegI[1] H[0] frameChainReturn[UnChainedSavedLR] frameSize[80]
|$pdata$AuVmmngrGetPage| DCD imagerel |$LN12|
	DCD	0x4a003e5
	;Flags[SingleProEpi] functionLength[996] RegF[0] RegI[0] H[0] frameChainReturn[UnChainedSavedLR] frameSize[144]
|$pdata$AuMapPage| DCD imagerel |$LN12|
	DCD	0x5200411
	;Flags[SingleProEpi] functionLength[1040] RegF[0] RegI[0] H[0] frameChainReturn[UnChainedSavedLR] frameSize[160]
|$pdata$AuMapPageEx| DCD imagerel |$LN8|
	DCD	0x42002e9
	;Flags[SingleProEpi] functionLength[744] RegF[0] RegI[0] H[0] frameChainReturn[UnChainedSavedLR] frameSize[128]
|$pdata$AuMapMMIO| DCD imagerel |$LN6|
	DCD	0x22000ad
	;Flags[SingleProEpi] functionLength[172] RegF[0] RegI[0] H[0] frameChainReturn[UnChainedSavedLR] frameSize[64]
|$pdata$AuGetFreePage| DCD imagerel |$LN20|
	DCD	0x320021d
	;Flags[SingleProEpi] functionLength[540] RegF[0] RegI[0] H[0] frameChainReturn[UnChainedSavedLR] frameSize[96]
|$pdata$AuFreePages| DCD imagerel |$LN13|
	DCD	0x3200269
	;Flags[SingleProEpi] functionLength[616] RegF[0] RegI[0] H[0] frameChainReturn[UnChainedSavedLR] frameSize[96]
|$pdata$AuUpdatePageFlags| DCD imagerel |$LN4|
	DCD	0x2a10139
	;Flags[SingleProEpi] functionLength[312] RegF[0] RegI[1] H[0] frameChainReturn[UnChainedSavedLR] frameSize[80]
|$pdata$AuGetPhysicalAddress| DCD imagerel |$LN9|
	DCD	0x22001a1
	;Flags[SingleProEpi] functionLength[416] RegF[0] RegI[0] H[0] frameChainReturn[UnChainedSavedLR] frameSize[64]
|$pdata$AuGetPhysicalAddressEx| DCD imagerel |$LN8|
	DCD	0x2200179
	;Flags[SingleProEpi] functionLength[376] RegF[0] RegI[0] H[0] frameChainReturn[UnChainedSavedLR] frameSize[64]
|$pdata$AuCreateVirtualAddressSpace| DCD imagerel |$LN9|
	DCD	0x1a000f9
	;Flags[SingleProEpi] functionLength[248] RegF[0] RegI[0] H[0] frameChainReturn[UnChainedSavedLR] frameSize[48]
|$pdata$AuGetRootPageTable| DCD imagerel |$LN3|
	DCD	0xa00019
	;Flags[SingleProEpi] functionLength[24] RegF[0] RegI[0] H[0] frameChainReturn[UnChainedSavedLR] frameSize[16]
|$pdata$AuVmmngrBootFree| DCD imagerel |$LN6|
	DCD	0x1200091
	;Flags[SingleProEpi] functionLength[144] RegF[0] RegI[0] H[0] frameChainReturn[UnChainedSavedLR] frameSize[32]

	AREA	|.pdata|, PDATA
|$pdata$pml4_index| DCD imagerel |pml4_index|
	DCD	0x800021
	;Flags[SingleProEpi] functionLength[32] RegF[0] RegI[0] H[0] frameChainReturn[UnChained] frameSize[16]

	AREA	|.pdata|, PDATA
|$pdata$pdpt_index| DCD imagerel |pdpt_index|
	DCD	0x800021
	;Flags[SingleProEpi] functionLength[32] RegF[0] RegI[0] H[0] frameChainReturn[UnChained] frameSize[16]
|$pdata$pd_index| DCD imagerel |pd_index|
	DCD	0x800021
	;Flags[SingleProEpi] functionLength[32] RegF[0] RegI[0] H[0] frameChainReturn[UnChained] frameSize[16]
|$pdata$pt_index| DCD imagerel |pt_index|
	DCD	0x800021
	;Flags[SingleProEpi] functionLength[32] RegF[0] RegI[0] H[0] frameChainReturn[UnChained] frameSize[16]
|$pdata$isRangeInsideKernel| DCD imagerel |isRangeInsideKernel|
	DCD	0x800039
	;Flags[SingleProEpi] functionLength[56] RegF[0] RegI[0] H[0] frameChainReturn[UnChained] frameSize[16]

	AREA	|.data|, DATA
|$SG2885| DCB	"[aurora]: initializing virtual memory manager ", 0xd, 0xa
	DCB	0x0
	%	7
|$SG2886| DCB	"[aurora]: new l0 allocated %x", 0xd, 0xa, 0x0
|$SG2926| DCB	"Creating pm4 entry : %x ", 0xd, 0xa, 0x0
	%	5
|$SG2929| DCB	"Creating PML3 Entry : %x ", 0xd, 0xa, 0x0
	%	4
|$SG2932| DCB	"Creating PML2 Entry %x", 0xd, 0xa, 0x0
	%	7
|$SG2934| DCB	"[aurora]: vmmngr page already present : %x ", 0xd, 0xa, 0x0
	%	2
|$SG2969| DCB	"[aurora]: vmmngr page already present : %x ", 0xa, 0x0
	%	3
|$SG3015| DCB	"Creating vpage ", 0xd, 0xa, 0x0
	%	6
|$SG3107| DCB	"AuFreePages: Free physical : %x ", 0xd, 0xa, 0x0
; Function compile flags: /Odtpy
; File C:\Users\paras\source\repos\grep-name\XenevaOS\KernelAA64\Mm\vmmngr.c

	AREA	|.text$mn|, CODE, ARM64

|envmdebug| PROC

; 75   : 	_vmdebug = 0;

	adrp        x9,_vmdebug
	mov         w8,#0
	strb        w8,[x9,PageOffset(_vmdebug)]
	ret

	ENDP  ; |envmdebug|

; Function compile flags: /Odtpy
; File C:\Users\paras\source\repos\grep-name\XenevaOS\KernelAA64\Mm\vmmngr.c

	AREA	|.text$mn|, CODE, ARM64

|isRangeInsideKernel| PROC

; 68   : static int isRangeInsideKernel(uint64_t va) {

	sub         sp,sp,#0x10
	str         x0,[sp,#8]

; 69   : 	return va >= 0xFFFF000000000000ULL;

	mov         x9,#-0x1000000000000
	ldr         x8,[sp,#8]
	cmp         x8,x9
	blo         |$LN3@isRangeIns|
	mov         w8,#1
	str         w8,[sp]
	b           |$LN4@isRangeIns|
|$LN3@isRangeIns|
	mov         w8,#0
	str         w8,[sp]
|$LN4@isRangeIns|
	ldr         w0,[sp]
	add         sp,sp,#0x10
	ret

	ENDP  ; |isRangeInsideKernel|

; Function compile flags: /Odtpy
; File C:\Users\paras\source\repos\grep-name\XenevaOS\KernelAA64\Mm\vmmngr.c

	AREA	|.text$mn|, CODE, ARM64

|pt_index| PROC

; 63   : static size_t pt_index(uint64_t virt) {

	sub         sp,sp,#0x10
	str         x0,[sp]

; 64   : 	uint64_t l3_index = (virt >> 12) & 0x1FF;

	ldr         x8,[sp]
	ubfx        x8,x8,#0xC,#9
	str         x8,[sp,#8]

; 65   : 	return l3_index;

	ldr         x0,[sp,#8]
	add         sp,sp,#0x10
	ret

	ENDP  ; |pt_index|

; Function compile flags: /Odtpy
; File C:\Users\paras\source\repos\grep-name\XenevaOS\KernelAA64\Mm\vmmngr.c

	AREA	|.text$mn|, CODE, ARM64

|pd_index| PROC

; 58   : static size_t pd_index(uint64_t virt) {

	sub         sp,sp,#0x10
	str         x0,[sp]

; 59   : 	uint64_t l2_index = (virt >> 21) & 0x1FF;

	ldr         x8,[sp]
	ubfx        x8,x8,#0x15,#9
	str         x8,[sp,#8]

; 60   : 	return l2_index;

	ldr         x0,[sp,#8]
	add         sp,sp,#0x10
	ret

	ENDP  ; |pd_index|

; Function compile flags: /Odtpy
; File C:\Users\paras\source\repos\grep-name\XenevaOS\KernelAA64\Mm\vmmngr.c

	AREA	|.text$mn|, CODE, ARM64

|pdpt_index| PROC

; 53   : static size_t pdpt_index(uint64_t virt) {

	sub         sp,sp,#0x10
	str         x0,[sp]

; 54   : 	uint64_t l1_index = (virt >> 30) & 0x1FF;

	ldr         x8,[sp]
	ubfx        x8,x8,#0x1E,#9
	str         x8,[sp,#8]

; 55   : 	return l1_index;

	ldr         x0,[sp,#8]
	add         sp,sp,#0x10
	ret

	ENDP  ; |pdpt_index|

; Function compile flags: /Odtpy
; File C:\Users\paras\source\repos\grep-name\XenevaOS\KernelAA64\Mm\vmmngr.c

	AREA	|.text$mn|, CODE, ARM64

|pml4_index| PROC

; 48   : static size_t pml4_index(uint64_t virt) {

	sub         sp,sp,#0x10
	str         x0,[sp]

; 49   : 	uint64_t l0_index = (virt >> 39) & 0x1FF;

	ldr         x8,[sp]
	ubfx        x8,x8,#0x27,#9
	str         x8,[sp,#8]

; 50   : 	return l0_index;

	ldr         x0,[sp,#8]
	add         sp,sp,#0x10
	ret

	ENDP  ; |pml4_index|

; Function compile flags: /Odtpy
; File C:\Users\paras\source\repos\grep-name\XenevaOS\KernelAA64\Mm\vmmngr.c

	AREA	|.text$mn|, CODE, ARM64

|AuVmmngrBootFree| PROC

; 628  : void AuVmmngrBootFree() {

|$LN6|
	str         lr,[sp,#-0x10]!
	sub         sp,sp,#0x10

; 629  : 	uint64_t* cr3 = (uint64_t*)_RootPaging;

	adrp        x8,_RootPaging
	ldr         x8,[x8,PageOffset(_RootPaging)]
	str         x8,[sp,#8]

; 630  : 	dsb_ish();

	bl          dsb_ish

; 631  : 	isb_flush();

	bl          isb_flush

; 632  : 
; 633  : 	for (int i = 0; i < 256; i++)

	mov         w8,#0
	str         w8,[sp]
	b           |$LN4@AuVmmngrBo|
|$LN2@AuVmmngrBo|
	ldr         w8,[sp]
	add         w8,w8,#1
	str         w8,[sp]
|$LN4@AuVmmngrBo|
	ldr         w8,[sp]
	cmp         w8,#0x100
	bge         |$LN3@AuVmmngrBo|

; 634  : 		cr3[i] = 0;

	ldr         w8,[sp]
	sxtw        x9,w8
	mov         x8,#8
	mul         x9,x9,x8
	ldr         x8,[sp,#8]
	add         x9,x8,x9
	mov         x8,#0
	str         x8,[x9]
	b           |$LN2@AuVmmngrBo|
|$LN3@AuVmmngrBo|

; 635  : 	aa64_data_cache_clean_range(cr3, 256 * sizeof(uint64_t));

	mov         x1,#0x800
	ldr         x0,[sp,#8]
	bl          aa64_data_cache_clean_range

; 636  : 	dsb_ish();

	bl          dsb_ish

; 637  : 
; 638  : 	/*AuConsoleFlushFramebuffer();
; 639  : 	dsb_ish();
; 640  : 	isb_flush();*/
; 641  : 	write_ttbr0_el1((uint64_t)_RootPaging);

	adrp        x8,_RootPaging
	ldr         x0,[x8,PageOffset(_RootPaging)]
	bl          write_ttbr0_el1

; 642  : 	tlb_flush_vmalle1is();

	bl          tlb_flush_vmalle1is
	add         sp,sp,#0x10
	ldr         lr,[sp],#0x10
	ret

	ENDP  ; |AuVmmngrBootFree|

; Function compile flags: /Odtpy
; File C:\Users\paras\source\repos\grep-name\XenevaOS\KernelAA64\Mm\vmmngr.c

	AREA	|.text$mn|, CODE, ARM64

|AuGetRootPageTable| PROC

; 619  : uint64_t* AuGetRootPageTable(){

|$LN3|
	str         lr,[sp,#-0x10]!

; 620  : 	return P2V((uint64_t)_RootPaging);

	adrp        x8,_RootPaging
	ldr         x0,[x8,PageOffset(_RootPaging)]
	bl          P2V
	ldr         lr,[sp],#0x10
	ret

	ENDP  ; |AuGetRootPageTable|

; Function compile flags: /Odtpy
; File C:\Users\paras\source\repos\grep-name\XenevaOS\KernelAA64\Mm\vmmngr.c

	AREA	|.text$mn|, CODE, ARM64

|AuCreateVirtualAddressSpace| PROC

; 602  : uint64_t* AuCreateVirtualAddressSpace() {

|$LN9|
	str         lr,[sp,#-0x10]!
	sub         sp,sp,#0x20

; 603  : 	uint64_t* root_pml = (uint64_t*)P2V((size_t)_RootPagingKe);

	adrp        x8,_RootPagingKe
	ldr         x0,[x8,PageOffset(_RootPagingKe)]
	bl          P2V
	str         x0,[sp,#0x10]

; 604  : 	uint64_t* new_pml = (uint64_t*)P2V((size_t)AuPmmngrAlloc());

	bl          AuPmmngrAlloc
	bl          P2V
	str         x0,[sp,#8]

; 605  : 	memset(new_pml, 0, PAGE_SIZE);

	mov         w2,#0x1000
	mov         w1,#0
	ldr         x0,[sp,#8]
	bl          memset

; 606  : 
; 607  : 	for (int i = 0; i < 512; i++) {

	mov         w8,#0
	str         w8,[sp]
	b           |$LN4@AuCreateVi|
|$LN2@AuCreateVi|
	ldr         w8,[sp]
	add         w8,w8,#1
	str         w8,[sp]
|$LN4@AuCreateVi|
	ldr         w8,[sp]
	cmp         w8,#0x200
	bge         |$LN3@AuCreateVi|

; 608  : 		if (i < 256)

	ldr         w8,[sp]
	cmp         w8,#0x100
	bge         |$LN5@AuCreateVi|

; 609  : 			continue;

	b           |$LN2@AuCreateVi|
|$LN5@AuCreateVi|

; 610  : 		if (root_pml[i] & 1)

	ldr         w8,[sp]
	sxtw        x9,w8
	mov         x8,#8
	mul         x9,x9,x8
	ldr         x8,[sp,#0x10]
	add         x8,x8,x9
	ldr         x8,[x8]
	tbz         x8,#0,|$LN6@AuCreateVi|

; 611  : 			new_pml[i] = root_pml[i];

	ldr         w8,[sp]
	sxtw        x9,w8
	mov         x8,#8
	mul         x9,x9,x8
	ldr         x8,[sp,#0x10]
	add         x10,x8,x9
	ldr         w8,[sp]
	sxtw        x9,w8
	mov         x8,#8
	mul         x9,x9,x8
	ldr         x8,[sp,#8]
	add         x9,x8,x9
	ldr         x8,[x10]
	str         x8,[x9]
	b           |$LN7@AuCreateVi|
|$LN6@AuCreateVi|

; 612  : 		else
; 613  : 			new_pml[i] = 0;

	ldr         w8,[sp]
	sxtw        x9,w8
	mov         x8,#8
	mul         x9,x9,x8
	ldr         x8,[sp,#8]
	add         x9,x8,x9
	mov         x8,#0
	str         x8,[x9]
|$LN7@AuCreateVi|

; 614  : 	}

	b           |$LN2@AuCreateVi|
|$LN3@AuCreateVi|

; 615  : 
; 616  : 	return new_pml;

	ldr         x0,[sp,#8]
	add         sp,sp,#0x20
	ldr         lr,[sp],#0x10
	ret

	ENDP  ; |AuCreateVirtualAddressSpace|

; Function compile flags: /Odtpy
; File C:\Users\paras\source\repos\grep-name\XenevaOS\KernelAA64\Mm\vmmngr.c

	AREA	|.text$mn|, CODE, ARM64

|AuGetPhysicalAddressEx| PROC

; 570  : void* AuGetPhysicalAddressEx(uint64_t* pml4_, uint64_t virt_addr) {

|$LN8|
	str         lr,[sp,#-0x10]!
	sub         sp,sp,#0x30
	str         x0,[sp,#8]
	str         x1,[sp]

; 571  : 	
; 572  : 	if ((pml4_[pml4_index(virt_addr)] & 1) == 0)

	ldr         x0,[sp]
	bl          pml4_index
	mov         x8,#8
	mul         x9,x0,x8
	ldr         x8,[sp,#8]
	add         x8,x8,x9
	ldr         x8,[x8]
	tbnz        x8,#0,|$LN2@AuGetPhysi|

; 573  : 		return NULL;

	mov         x0,#0
	b           |$LN1@AuGetPhysi|
|$LN2@AuGetPhysi|

; 574  : 
; 575  : 	uint64_t* pdpt = (uint64_t*)P2V(pml4_[pml4_index(virt_addr)] & ~0xFFFUL);

	ldr         x0,[sp]
	bl          pml4_index
	mov         x8,#8
	mul         x9,x0,x8
	ldr         x8,[sp,#8]
	add         x8,x8,x9
	ldr         x8,[x8]
	and         x0,x8,#0xFFFFF000
	bl          P2V
	str         x0,[sp,#0x10]

; 576  : 
; 577  : 	if ((pdpt[pdpt_index(virt_addr)] & 1) == 0)

	ldr         x0,[sp]
	bl          pdpt_index
	mov         x8,#8
	mul         x9,x0,x8
	ldr         x8,[sp,#0x10]
	add         x8,x8,x9
	ldr         x8,[x8]
	tbnz        x8,#0,|$LN3@AuGetPhysi|

; 578  : 		return NULL;

	mov         x0,#0
	b           |$LN1@AuGetPhysi|
|$LN3@AuGetPhysi|

; 579  : 
; 580  : 	uint64_t* pd = (uint64_t*)P2V(pdpt[pdpt_index(virt_addr)] & ~0xFFFUL);

	ldr         x0,[sp]
	bl          pdpt_index
	mov         x8,#8
	mul         x9,x0,x8
	ldr         x8,[sp,#0x10]
	add         x8,x8,x9
	ldr         x8,[x8]
	and         x0,x8,#0xFFFFF000
	bl          P2V
	str         x0,[sp,#0x18]

; 581  : 
; 582  : 	if ((pd[pd_index(virt_addr)] & 1) == 0)

	ldr         x0,[sp]
	bl          pd_index
	mov         x8,#8
	mul         x9,x0,x8
	ldr         x8,[sp,#0x18]
	add         x8,x8,x9
	ldr         x8,[x8]
	tbnz        x8,#0,|$LN4@AuGetPhysi|

; 583  : 		return NULL;

	mov         x0,#0
	b           |$LN1@AuGetPhysi|
|$LN4@AuGetPhysi|

; 584  : 
; 585  : 	uint64_t* pt = (uint64_t*)P2V(pd[pd_index(virt_addr)] & ~0xFFFUL);

	ldr         x0,[sp]
	bl          pd_index
	mov         x8,#8
	mul         x9,x0,x8
	ldr         x8,[sp,#0x18]
	add         x8,x8,x9
	ldr         x8,[x8]
	and         x0,x8,#0xFFFFF000
	bl          P2V
	str         x0,[sp,#0x20]

; 586  : 
; 587  : 	if ((pt[pt_index(virt_addr)] & 1) == 0)

	ldr         x0,[sp]
	bl          pt_index
	mov         x8,#8
	mul         x9,x0,x8
	ldr         x8,[sp,#0x20]
	add         x8,x8,x9
	ldr         x8,[x8]
	tbnz        x8,#0,|$LN5@AuGetPhysi|

; 588  : 		return NULL;

	mov         x0,#0
	b           |$LN1@AuGetPhysi|
|$LN5@AuGetPhysi|

; 589  : 
; 590  : 	uint64_t* page = (uint64_t*)P2V(pt[pt_index(virt_addr)] & ~0xFFFUL);

	ldr         x0,[sp]
	bl          pt_index
	mov         x8,#8
	mul         x9,x0,x8
	ldr         x8,[sp,#0x20]
	add         x8,x8,x9
	ldr         x8,[x8]
	and         x0,x8,#0xFFFFF000
	bl          P2V
	str         x0,[sp,#0x28]

; 591  : 
; 592  : 	if (page)

	ldr         x8,[sp,#0x28]
	cmp         x8,#0
	beq         |$LN6@AuGetPhysi|

; 593  : 		return V2P((uint64_t)page);

	ldr         x0,[sp,#0x28]
	bl          V2P
	b           |$LN1@AuGetPhysi|
|$LN6@AuGetPhysi|

; 594  : 	return NULL;

	mov         x0,#0
|$LN1@AuGetPhysi|
	add         sp,sp,#0x30
	ldr         lr,[sp],#0x10
	ret

	ENDP  ; |AuGetPhysicalAddressEx|

; Function compile flags: /Odtpy
; File C:\Users\paras\source\repos\grep-name\XenevaOS\KernelAA64\Mm\vmmngr.c

	AREA	|.text$mn|, CODE, ARM64

|AuGetPhysicalAddress| PROC

; 533  : void* AuGetPhysicalAddress(uint64_t virt_addr) {

|$LN9|
	str         lr,[sp,#-0x10]!
	sub         sp,sp,#0x30
	str         x0,[sp]

; 534  : 	uint64_t* pml4_ = (uint64_t*)P2V(read_ttbr0_el1());

	bl          read_ttbr0_el1
	bl          P2V
	str         x0,[sp,#8]

; 535  : 	if (isRangeInsideKernel(virt_addr)) 

	ldr         x0,[sp]
	bl          isRangeInsideKernel
	mov         w0,w0
	cmp         w0,#0
	beq         |$LN2@AuGetPhysi|

; 536  : 		pml4_ = (uint64_t*)P2V(read_ttbr1_el1());

	bl          read_ttbr1_el1
	bl          P2V
	str         x0,[sp,#8]
|$LN2@AuGetPhysi|

; 537  : 	
; 538  : 
; 539  : 	if ((pml4_[pml4_index(virt_addr)] & 1) == 0) 

	ldr         x0,[sp]
	bl          pml4_index
	mov         x8,#8
	mul         x9,x0,x8
	ldr         x8,[sp,#8]
	add         x8,x8,x9
	ldr         x8,[x8]
	tbnz        x8,#0,|$LN3@AuGetPhysi|

; 540  : 		return NULL;

	mov         x0,#0
	b           |$LN1@AuGetPhysi|
|$LN3@AuGetPhysi|

; 541  : 	
; 542  : 	uint64_t* pdpt = (uint64_t*)P2V(pml4_[pml4_index(virt_addr)] & ~0xFFFUL);

	ldr         x0,[sp]
	bl          pml4_index
	mov         x8,#8
	mul         x9,x0,x8
	ldr         x8,[sp,#8]
	add         x8,x8,x9
	ldr         x8,[x8]
	and         x0,x8,#0xFFFFF000
	bl          P2V
	str         x0,[sp,#0x10]

; 543  : 	
; 544  : 	if ((pdpt[pdpt_index(virt_addr)] & 1) == 0) 

	ldr         x0,[sp]
	bl          pdpt_index
	mov         x8,#8
	mul         x9,x0,x8
	ldr         x8,[sp,#0x10]
	add         x8,x8,x9
	ldr         x8,[x8]
	tbnz        x8,#0,|$LN4@AuGetPhysi|

; 545  : 		return NULL;

	mov         x0,#0
	b           |$LN1@AuGetPhysi|
|$LN4@AuGetPhysi|

; 546  : 	
; 547  : 	uint64_t* pd = (uint64_t*)P2V(pdpt[pdpt_index(virt_addr)] & ~0xFFFUL);

	ldr         x0,[sp]
	bl          pdpt_index
	mov         x8,#8
	mul         x9,x0,x8
	ldr         x8,[sp,#0x10]
	add         x8,x8,x9
	ldr         x8,[x8]
	and         x0,x8,#0xFFFFF000
	bl          P2V
	str         x0,[sp,#0x18]

; 548  : 
; 549  : 	if ((pd[pd_index(virt_addr)] & 1) == 0)

	ldr         x0,[sp]
	bl          pd_index
	mov         x8,#8
	mul         x9,x0,x8
	ldr         x8,[sp,#0x18]
	add         x8,x8,x9
	ldr         x8,[x8]
	tbnz        x8,#0,|$LN5@AuGetPhysi|

; 550  : 		return NULL;

	mov         x0,#0
	b           |$LN1@AuGetPhysi|
|$LN5@AuGetPhysi|

; 551  : 
; 552  : 	uint64_t* pt = (uint64_t*)P2V(pd[pd_index(virt_addr)] & ~0xFFFUL);

	ldr         x0,[sp]
	bl          pd_index
	mov         x8,#8
	mul         x9,x0,x8
	ldr         x8,[sp,#0x18]
	add         x8,x8,x9
	ldr         x8,[x8]
	and         x0,x8,#0xFFFFF000
	bl          P2V
	str         x0,[sp,#0x20]

; 553  : 
; 554  : 	if ((pt[pt_index(virt_addr)] & 1) == 0)

	ldr         x0,[sp]
	bl          pt_index
	mov         x8,#8
	mul         x9,x0,x8
	ldr         x8,[sp,#0x20]
	add         x8,x8,x9
	ldr         x8,[x8]
	tbnz        x8,#0,|$LN6@AuGetPhysi|

; 555  : 		return NULL;

	mov         x0,#0
	b           |$LN1@AuGetPhysi|
|$LN6@AuGetPhysi|

; 556  : 
; 557  : 	uint64_t* page = (uint64_t*)P2V(pt[pt_index(virt_addr)] & ~0xFFFUL);

	ldr         x0,[sp]
	bl          pt_index
	mov         x8,#8
	mul         x9,x0,x8
	ldr         x8,[sp,#0x20]
	add         x8,x8,x9
	ldr         x8,[x8]
	and         x0,x8,#0xFFFFF000
	bl          P2V
	str         x0,[sp,#0x28]

; 558  : 
; 559  : 	if (page)

	ldr         x8,[sp,#0x28]
	cmp         x8,#0
	beq         |$LN7@AuGetPhysi|

; 560  : 		return V2P((uint64_t)page);

	ldr         x0,[sp,#0x28]
	bl          V2P
	b           |$LN1@AuGetPhysi|
|$LN7@AuGetPhysi|

; 561  : 	return NULL;

	mov         x0,#0
|$LN1@AuGetPhysi|
	add         sp,sp,#0x30
	ldr         lr,[sp],#0x10
	ret

	ENDP  ; |AuGetPhysicalAddress|

; Function compile flags: /Odtpy
; File C:\Users\paras\source\repos\grep-name\XenevaOS\KernelAA64\Mm\vmmngr.c

	AREA	|.text$mn|, CODE, ARM64

|AuUpdatePageFlags| PROC

; 511  : void AuUpdatePageFlags(uint64_t virt_addr, uint64_t flags) {

|$LN4|
	sub         sp,sp,#0x10
	stp         x19,lr,[sp]
	sub         sp,sp,#0x40
	str         x0,[sp,#8]
	str         x1,[sp,#0x38]

; 512  : 	const long i1 = pml4_index(virt_addr);

	ldr         x0,[sp,#8]
	bl          pml4_index
	mov         w8,w0
	str         w8,[sp]

; 513  : 	uint64_t* pml4_ = (uint64_t*)P2V(read_ttbr0_el1());

	bl          read_ttbr0_el1
	bl          P2V
	str         x0,[sp,#0x20]

; 514  : 
; 515  : 	uint64_t* pdpt = (uint64_t*)P2V(pml4_[pml4_index(virt_addr)] & ~0xFFFUL);

	ldr         x0,[sp,#8]
	bl          pml4_index
	mov         x8,#8
	mul         x9,x0,x8
	ldr         x8,[sp,#0x20]
	add         x8,x8,x9
	ldr         x8,[x8]
	and         x0,x8,#0xFFFFF000
	bl          P2V
	str         x0,[sp,#0x28]

; 516  : 	uint64_t* pd = (uint64_t*)P2V(pdpt[pdpt_index(virt_addr)] & ~0xFFFUL);

	ldr         x0,[sp,#8]
	bl          pdpt_index
	mov         x8,#8
	mul         x9,x0,x8
	ldr         x8,[sp,#0x28]
	add         x8,x8,x9
	ldr         x8,[x8]
	and         x0,x8,#0xFFFFF000
	bl          P2V
	str         x0,[sp,#0x30]

; 517  : 	uint64_t* pt = (uint64_t*)P2V(pd[pd_index(virt_addr)] & ~0xFFFUL);

	ldr         x0,[sp,#8]
	bl          pd_index
	mov         x8,#8
	mul         x9,x0,x8
	ldr         x8,[sp,#0x30]
	add         x8,x8,x9
	ldr         x8,[x8]
	and         x0,x8,#0xFFFFF000
	bl          P2V
	str         x0,[sp,#0x10]

; 518  : 	uint64_t* page = (uint64_t*)P2V(pt[pt_index(virt_addr)] & ~0xFFFUL);

	ldr         x0,[sp,#8]
	bl          pt_index
	mov         x8,#8
	mul         x9,x0,x8
	ldr         x8,[sp,#0x10]
	add         x8,x8,x9
	ldr         x8,[x8]
	and         x0,x8,#0xFFFFF000
	bl          P2V
	str         x0,[sp,#0x18]

; 519  : 
; 520  : 	//AuTextOut("Your physical page is -> %x %x\n", page, V2P(page));
; 521  : 	if (page) {

	ldr         x8,[sp,#0x18]
	cmp         x8,#0
	beq         |$LN2@AuUpdatePa|

; 522  : 		pt[pt_index(virt_addr)] = (V2P(page) & ~0xFFFULL) | flags;

	ldr         x0,[sp,#0x18]
	bl          V2P
	and         x9,x0,#-0x1000
	ldr         x8,[sp,#0x38]
	orr         x19,x9,x8
	ldr         x0,[sp,#8]
	bl          pt_index
	mov         x8,#8
	mul         x9,x0,x8
	ldr         x8,[sp,#0x10]
	add         x8,x8,x9
	str         x19,[x8]

; 523  : 		data_cache_flush(&pt[pt_index(virt_addr)]);

	ldr         x0,[sp,#8]
	bl          pt_index
	mov         x8,#8
	mul         x9,x0,x8
	ldr         x8,[sp,#0x10]
	add         x0,x8,x9
	bl          data_cache_flush
|$LN2@AuUpdatePa|
	add         sp,sp,#0x40
	ldp         x19,lr,[sp]
	add         sp,sp,#0x10
	ret

	ENDP  ; |AuUpdatePageFlags|

; Function compile flags: /Odtpy
; File C:\Users\paras\source\repos\grep-name\XenevaOS\KernelAA64\Mm\vmmngr.c

	AREA	|.text$mn|, CODE, ARM64

|AuFreePages| PROC

; 452  : void AuFreePages(uint64_t virt_addr, bool free_physical, size_t s) {

|$LN13|
	str         lr,[sp,#-0x10]!
	sub         sp,sp,#0x50
	str         x0,[sp,#8]
	uxtb        w8,w1
	strb        w8,[sp]
	str         x2,[sp,#0x40]

; 453  : 	//AuTextOut("Freeing up pages -> %x , size -> %d \n", virt_addr, s);
; 454  : 	size_t numPages = (s + 4096 - 1) / 4096;

	ldr         x8,[sp,#0x40]
	add         x8,x8,#1,lsl #0xC
	sub         x9,x8,#1
	mov         x8,#0x1000
	udiv        x8,x9,x8
	str         x8,[sp,#0x48]

; 455  : 	for (int i = 0; i < numPages; i++) {

	mov         w8,#0
	str         w8,[sp,#0x10]
	b           |$LN4@AuFreePage|
|$LN2@AuFreePage|
	ldr         w8,[sp,#0x10]
	add         w8,w8,#1
	str         w8,[sp,#0x10]
|$LN4@AuFreePage|
	ldr         w8,[sp,#0x10]
	sxtw        x9,w8
	ldr         x8,[sp,#0x48]
	cmp         x9,x8
	bhs         |$LN3@AuFreePage|

; 456  : 		uint64_t* pml4_ = (uint64_t*)P2V(read_ttbr0_el1());

	bl          read_ttbr0_el1
	bl          P2V
	str         x0,[sp,#0x20]

; 457  : 		if (isRangeInsideKernel(virt_addr)) {

	ldr         x0,[sp,#8]
	bl          isRangeInsideKernel
	mov         w0,w0
	cmp         w0,#0
	beq         |$LN5@AuFreePage|

; 458  : 			pml4_ = (uint64_t*)P2V(read_ttbr1_el1());

	bl          read_ttbr1_el1
	bl          P2V
	str         x0,[sp,#0x20]
|$LN5@AuFreePage|

; 459  : 		}
; 460  : 
; 461  : 		if ((pml4_[pml4_index(virt_addr)] & 1) == 0) {

	ldr         x0,[sp,#8]
	bl          pml4_index
	mov         x8,#8
	mul         x9,x0,x8
	ldr         x8,[sp,#0x20]
	add         x8,x8,x9
	ldr         x8,[x8]
	tbnz        x8,#0,|$LN6@AuFreePage|

; 462  : 			//virt_addr += 4096;
; 463  : 			continue;

	b           |$LN2@AuFreePage|
|$LN6@AuFreePage|

; 464  : 
; 465  : 		}
; 466  : 		uint64_t* pdpt = (uint64_t*)P2V(pml4_[pml4_index(virt_addr)] & ~0xFFFUL);

	ldr         x0,[sp,#8]
	bl          pml4_index
	mov         x8,#8
	mul         x9,x0,x8
	ldr         x8,[sp,#0x20]
	add         x8,x8,x9
	ldr         x8,[x8]
	and         x0,x8,#0xFFFFF000
	bl          P2V
	str         x0,[sp,#0x30]

; 467  : 
; 468  : 		if ((pdpt[pdpt_index(virt_addr)] & 1) == 0) {

	ldr         x0,[sp,#8]
	bl          pdpt_index
	mov         x8,#8
	mul         x9,x0,x8
	ldr         x8,[sp,#0x30]
	add         x8,x8,x9
	ldr         x8,[x8]
	tbnz        x8,#0,|$LN7@AuFreePage|

; 469  : 			//virt_addr += 4096;
; 470  : 			continue;

	b           |$LN2@AuFreePage|
|$LN7@AuFreePage|

; 471  : 		}
; 472  : 
; 473  : 		uint64_t* pd = (uint64_t*)P2V(pdpt[pdpt_index(virt_addr)] & ~0xFFFUL);

	ldr         x0,[sp,#8]
	bl          pdpt_index
	mov         x8,#8
	mul         x9,x0,x8
	ldr         x8,[sp,#0x30]
	add         x8,x8,x9
	ldr         x8,[x8]
	and         x0,x8,#0xFFFFF000
	bl          P2V
	str         x0,[sp,#0x38]

; 474  : 
; 475  : 		if ((pd[pd_index(virt_addr)] & 1) == 0) {

	ldr         x0,[sp,#8]
	bl          pd_index
	mov         x8,#8
	mul         x9,x0,x8
	ldr         x8,[sp,#0x38]
	add         x8,x8,x9
	ldr         x8,[x8]
	tbnz        x8,#0,|$LN8@AuFreePage|

; 476  : 			//virt_addr += 4096;
; 477  : 			continue;

	b           |$LN2@AuFreePage|
|$LN8@AuFreePage|

; 478  : 		}
; 479  : 
; 480  : 		uint64_t* pt = (uint64_t*)P2V(pd[pd_index(virt_addr)] & ~0xFFFUL);

	ldr         x0,[sp,#8]
	bl          pd_index
	mov         x8,#8
	mul         x9,x0,x8
	ldr         x8,[sp,#0x38]
	add         x8,x8,x9
	ldr         x8,[x8]
	and         x0,x8,#0xFFFFF000
	bl          P2V
	str         x0,[sp,#0x18]

; 481  : 
; 482  : 		if ((pt[pt_index(virt_addr)] & 1) == 0) continue;

	ldr         x0,[sp,#8]
	bl          pt_index
	mov         x8,#8
	mul         x9,x0,x8
	ldr         x8,[sp,#0x18]
	add         x8,x8,x9
	ldr         x8,[x8]
	tbnz        x8,#0,|$LN9@AuFreePage|
	b           |$LN2@AuFreePage|
|$LN9@AuFreePage|

; 483  : 
; 484  : 		uint64_t* page = (uint64_t*)P2V(pt[pt_index(virt_addr)] & ~0xFFFUL);

	ldr         x0,[sp,#8]
	bl          pt_index
	mov         x8,#8
	mul         x9,x0,x8
	ldr         x8,[sp,#0x18]
	add         x8,x8,x9
	ldr         x8,[x8]
	and         x0,x8,#0xFFFFF000
	bl          P2V
	str         x0,[sp,#0x28]

; 485  : 
; 486  : 		//AuTextOut("Your physical page is -> %x %x\n", page, V2P(page));
; 487  : 		if ((pt[pt_index(virt_addr)] & 1) != 0) {

	ldr         x0,[sp,#8]
	bl          pt_index
	mov         x8,#8
	mul         x9,x0,x8
	ldr         x8,[sp,#0x18]
	add         x8,x8,x9
	ldr         x8,[x8]
	tbz         x8,#0,|$LN10@AuFreePage|

; 488  : 			pt[pt_index(virt_addr)] = 0;

	ldr         x0,[sp,#8]
	bl          pt_index
	mov         x8,#8
	mul         x9,x0,x8
	ldr         x8,[sp,#0x18]
	add         x9,x8,x9
	mov         x8,#0
	str         x8,[x9]

; 489  : 			dsb_ish();

	bl          dsb_ish

; 490  : 			//data_cache_flush(&pt[pt_index(virt_addr)]);
; 491  : 			tlb_flush(virt_addr);

	ldr         x0,[sp,#8]
	bl          tlb_flush

; 492  : 			dsb_ish();

	bl          dsb_ish

; 493  : 			isb_flush();

	bl          isb_flush
|$LN10@AuFreePage|

; 494  : 		}
; 495  : 
; 496  : 		if (free_physical && page != 0) {

	ldrb        w8,[sp]
	mov         w8,w8
	cmp         w8,#0
	beq         |$LN11@AuFreePage|
	ldr         x8,[sp,#0x28]
	cmp         x8,#0
	beq         |$LN11@AuFreePage|

; 497  : 			UARTDebugOut("AuFreePages: Free physical : %x \r\n", V2P((uint64_t)page));

	ldr         x0,[sp,#0x28]
	bl          V2P
	mov         x1,x0
	adrp        x8,|$SG3107|
	add         x0,x8,PageOffset(|$SG3107|)
	bl          UARTDebugOut

; 498  : 			AuPmmngrFree((void*)V2P((size_t)page));

	ldr         x0,[sp,#0x28]
	bl          V2P
	bl          AuPmmngrFree
|$LN11@AuFreePage|

; 499  : 		}
; 500  : 		//data_cache_flush(virt_addr);
; 501  : 		virt_addr += 4096;

	ldr         x8,[sp,#8]
	add         x8,x8,#1,lsl #0xC
	str         x8,[sp,#8]

; 502  : 	}

	b           |$LN2@AuFreePage|
|$LN3@AuFreePage|
	add         sp,sp,#0x50
	ldr         lr,[sp],#0x10
	ret

	ENDP  ; |AuFreePages|

; Function compile flags: /Odtpy
; File C:\Users\paras\source\repos\grep-name\XenevaOS\KernelAA64\Mm\vmmngr.c

	AREA	|.text$mn|, CODE, ARM64

|AuGetFreePage| PROC

; 395  : uint64_t* AuGetFreePage(bool user, void* ptr) {

|$LN20|
	str         lr,[sp,#-0x10]!
	sub         sp,sp,#0x50
	uxtb        w8,w0
	strb        w8,[sp]
	str         x1,[sp,#0x10]

; 396  : 	uint64_t* page = 0;

	mov         x8,#0
	str         x8,[sp,#0x38]

; 397  : 	uint64_t start = 0;

	mov         x8,#0
	str         x8,[sp,#8]

; 398  : 	if (user) {

	ldrb        w8,[sp]
	mov         w8,w8
	cmp         w8,#0
	beq         |$LN5@AuGetFreeP|

; 399  : 		if (ptr)

	ldr         x8,[sp,#0x10]
	cmp         x8,#0
	beq         |$LN7@AuGetFreeP|

; 400  : 			start = (uint64_t)ptr;

	ldr         x8,[sp,#0x10]
	str         x8,[sp,#8]
	b           |$LN8@AuGetFreeP|
|$LN7@AuGetFreeP|

; 401  : 		else
; 402  : 			start = USER_BASE_ADDRESS;

	mov         x8,#0x60000000
	str         x8,[sp,#8]
|$LN8@AuGetFreeP|

; 403  : 	}

	b           |$LN6@AuGetFreeP|
|$LN5@AuGetFreeP|

; 404  : 	else {
; 405  : 		if (ptr)

	ldr         x8,[sp,#0x10]
	cmp         x8,#0
	beq         |$LN9@AuGetFreeP|

; 406  : 			start = (uint64_t)ptr;

	ldr         x8,[sp,#0x10]
	str         x8,[sp,#8]
	b           |$LN10@AuGetFreeP|
|$LN9@AuGetFreeP|

; 407  : 		else
; 408  : 			start = KERNEL_BASE_ADDRESS;

	mov         x8,#-0x200000000000
	str         x8,[sp,#8]
|$LN10@AuGetFreeP|
|$LN6@AuGetFreeP|

; 409  : 	}
; 410  : 
; 411  : 	uint64_t* end = 0;

	mov         x8,#0
	str         x8,[sp,#0x40]

; 412  : 	uint64_t* pml4 = (uint64_t*)P2V(read_ttbr0_el1());

	bl          read_ttbr0_el1
	bl          P2V
	str         x0,[sp,#0x18]

; 413  : 	if (user == 0)

	ldrb        w8,[sp]
	mov         w8,w8
	cmp         w8,#0
	bne         |$LN11@AuGetFreeP|

; 414  : 		pml4 = (uint64_t*)P2V(read_ttbr1_el1());

	bl          read_ttbr1_el1
	bl          P2V
	str         x0,[sp,#0x18]
|$LN11@AuGetFreeP|

; 415  : 
; 416  : 	if (ptr) {

	ldr         x8,[sp,#0x10]
	cmp         x8,#0
	beq         |$LN12@AuGetFreeP|

; 417  : 		if (isRangeInsideKernel((uint64_t)ptr))

	ldr         x0,[sp,#0x10]
	bl          isRangeInsideKernel
	mov         w0,w0
	cmp         w0,#0
	beq         |$LN13@AuGetFreeP|

; 418  : 			pml4 = (uint64_t*)P2V(read_ttbr1_el1());

	bl          read_ttbr1_el1
	bl          P2V
	str         x0,[sp,#0x18]
	b           |$LN14@AuGetFreeP|
|$LN13@AuGetFreeP|

; 419  : 		else
; 420  : 			pml4 = (uint64_t*)P2V(read_ttbr0_el1());

	bl          read_ttbr0_el1
	bl          P2V
	str         x0,[sp,#0x18]
|$LN14@AuGetFreeP|
|$LN12@AuGetFreeP|
|$LN2@AuGetFreeP|

; 421  : 	}
; 422  : 
; 423  : 	/* Walk through every page tables */
; 424  : 	for (;;) {
; 425  : 		if (!(pml4[pml4_index(start)] & 1))

	ldr         x0,[sp,#8]
	bl          pml4_index
	mov         x8,#8
	mul         x9,x0,x8
	ldr         x8,[sp,#0x18]
	add         x8,x8,x9
	ldr         x8,[x8]
	tbnz        x8,#0,|$LN15@AuGetFreeP|

; 426  : 			return (uint64_t*)start;

	ldr         x0,[sp,#8]
	b           |$LN1@AuGetFreeP|
|$LN15@AuGetFreeP|

; 427  : 
; 428  : 		uint64_t* pdpt = (uint64_t*)P2V(pml4[pml4_index(start)] & ~0xFFFUL);

	ldr         x0,[sp,#8]
	bl          pml4_index
	mov         x8,#8
	mul         x9,x0,x8
	ldr         x8,[sp,#0x18]
	add         x8,x8,x9
	ldr         x8,[x8]
	and         x0,x8,#0xFFFFF000
	bl          P2V
	str         x0,[sp,#0x20]

; 429  : 		if (!(pdpt[pdpt_index(start)] & 1))

	ldr         x0,[sp,#8]
	bl          pdpt_index
	mov         x8,#8
	mul         x9,x0,x8
	ldr         x8,[sp,#0x20]
	add         x8,x8,x9
	ldr         x8,[x8]
	tbnz        x8,#0,|$LN16@AuGetFreeP|

; 430  : 			return (uint64_t*)start;

	ldr         x0,[sp,#8]
	b           |$LN1@AuGetFreeP|
|$LN16@AuGetFreeP|

; 431  : 
; 432  : 		uint64_t* pd = (uint64_t*)P2V(pdpt[pdpt_index(start)] & ~0xFFFUL);

	ldr         x0,[sp,#8]
	bl          pdpt_index
	mov         x8,#8
	mul         x9,x0,x8
	ldr         x8,[sp,#0x20]
	add         x8,x8,x9
	ldr         x8,[x8]
	and         x0,x8,#0xFFFFF000
	bl          P2V
	str         x0,[sp,#0x28]

; 433  : 		if (!(pd[pd_index(start)] & 1))

	ldr         x0,[sp,#8]
	bl          pd_index
	mov         x8,#8
	mul         x9,x0,x8
	ldr         x8,[sp,#0x28]
	add         x8,x8,x9
	ldr         x8,[x8]
	tbnz        x8,#0,|$LN17@AuGetFreeP|

; 434  : 			return (uint64_t*)start;

	ldr         x0,[sp,#8]
	b           |$LN1@AuGetFreeP|
|$LN17@AuGetFreeP|

; 435  : 
; 436  : 		uint64_t* pt = (uint64_t*)P2V(pd[pd_index(start)] & ~0xFFFUL);

	ldr         x0,[sp,#8]
	bl          pd_index
	mov         x8,#8
	mul         x9,x0,x8
	ldr         x8,[sp,#0x28]
	add         x8,x8,x9
	ldr         x8,[x8]
	and         x0,x8,#0xFFFFF000
	bl          P2V
	str         x0,[sp,#0x30]

; 437  : 
; 438  : 		if (!(pt[pt_index(start)] & 1))

	ldr         x0,[sp,#8]
	bl          pt_index
	mov         x8,#8
	mul         x9,x0,x8
	ldr         x8,[sp,#0x30]
	add         x8,x8,x9
	ldr         x8,[x8]
	tbnz        x8,#0,|$LN18@AuGetFreeP|

; 439  : 			return (uint64_t*)start;

	ldr         x0,[sp,#8]
	b           |$LN1@AuGetFreeP|
|$LN18@AuGetFreeP|

; 440  : 
; 441  : 		start += 4096;

	ldr         x8,[sp,#8]
	add         x8,x8,#1,lsl #0xC
	str         x8,[sp,#8]

; 442  : 	}

	b           |$LN2@AuGetFreeP|

; 443  : 	return 0;

	mov         x0,#0
|$LN1@AuGetFreeP|
	add         sp,sp,#0x50
	ldr         lr,[sp],#0x10
	ret

	ENDP  ; |AuGetFreePage|

; Function compile flags: /Odtpy
; File C:\Users\paras\source\repos\grep-name\XenevaOS\KernelAA64\Mm\vmmngr.c

	AREA	|.text$mn|, CODE, ARM64

|AuMapMMIO| PROC

; 377  : void* AuMapMMIO(uint64_t phys_addr, size_t page_count) {

|$LN6|
	str         lr,[sp,#-0x10]!
	sub         sp,sp,#0x30
	str         x0,[sp,#0x18]
	str         x1,[sp,#0x10]

; 378  : 	uint64_t out = (uint64_t)_MMIOBase;

	adrp        x8,_MMIOBase
	ldr         x8,[x8,PageOffset(_MMIOBase)]
	str         x8,[sp,#8]

; 379  : 	for (size_t i = 0; i < page_count; i++)

	mov         x8,#0
	str         x8,[sp]
	b           |$LN4@AuMapMMIO|
|$LN2@AuMapMMIO|
	ldr         x8,[sp]
	add         x8,x8,#1
	str         x8,[sp]
|$LN4@AuMapMMIO|
	ldr         x9,[sp,#0x10]
	ldr         x8,[sp]
	cmp         x8,x9
	bhs         |$LN3@AuMapMMIO|

; 380  : 		AuMapPage(phys_addr + i * 4096, out + i * 4096,PTE_DEVICE_MEM);

	ldr         x9,[sp]
	mov         x8,#0x1000
	mul         x9,x9,x8
	ldr         x8,[sp,#8]
	add         x1,x8,x9
	ldr         x9,[sp]
	mov         x8,#0x1000
	mul         x9,x9,x8
	ldr         x8,[sp,#0x18]
	add         x0,x8,x9
	mov         w2,#0
	bl          AuMapPage
	b           |$LN2@AuMapMMIO|
|$LN3@AuMapMMIO|

; 381  : 
; 382  : 	uint64_t address = out;

	ldr         x8,[sp,#8]
	str         x8,[sp,#0x20]

; 383  : 	_MMIOBase = (uint64_t*)(address + (page_count * 4096));

	ldr         x9,[sp,#0x10]
	mov         x8,#0x1000
	mul         x9,x9,x8
	ldr         x8,[sp,#0x20]
	add         x9,x8,x9
	adrp        x8,_MMIOBase
	str         x9,[x8,PageOffset(_MMIOBase)]

; 384  : 	return (void*)out;

	ldr         x0,[sp,#8]
	add         sp,sp,#0x30
	ldr         lr,[sp],#0x10
	ret

	ENDP  ; |AuMapMMIO|

; Function compile flags: /Odtpy
; File C:\Users\paras\source\repos\grep-name\XenevaOS\KernelAA64\Mm\vmmngr.c

	AREA	|.text$mn|, CODE, ARM64

|AuMapPageEx| PROC

; 232  : bool AuMapPageEx(uint64_t* pml4i, uint64_t phys_addr, uint64_t virt_addr, uint8_t attrib) {

|$LN8|
	str         lr,[sp,#-0x10]!
	sub         sp,sp,#0x70
	str         x0,[sp,#0x20]
	str         x1,[sp,#0x60]
	str         x2,[sp,#0x18]
	uxtb        w8,w3
	strb        w8,[sp]

; 233  : 	uint64_t flags = PTE_VALID | PTE_TABLE |

	ldrb        w8,[sp]
	mov         w8,w8
	sxtw        x9,w8
	mov         x8,#0x703
	orr         x8,x9,x8
	str         x8,[sp,#0x58]

; 234  : 		PTE_AF | PTE_SH_INNER | PTE_AP_RW | attrib;
; 235  : 	if (attrib & PTE_AP_RW_USER) {

	ldrb        w8,[sp]
	mov         w8,w8
	sxtw        x8,w8
	tbz         x8,#6,|$LN2@AuMapPageE|

; 236  : 		flags = PTE_VALID | PTE_TABLE |

	ldrb        w8,[sp]
	mov         w8,w8
	sxtw        x9,w8
	mov         x8,#0x743
	orr         x8,x9,x8
	str         x8,[sp,#0x58]
|$LN2@AuMapPageE|

; 237  : 			PTE_AF | PTE_SH_INNER | PTE_AP_RW_USER | attrib;
; 238  : 	}
; 239  : 
; 240  : 	const long i4 = (virt_addr >> 39) & 0x1FF;

	ldr         x8,[sp,#0x18]
	ubfx        x8,x8,#0x27,#9
	mov         w8,w8
	str         w8,[sp,#4]

; 241  : 	const long i3 = (virt_addr >> 30) & 0x1FF;

	ldr         x8,[sp,#0x18]
	ubfx        x8,x8,#0x1E,#9
	mov         w8,w8
	str         w8,[sp,#8]

; 242  : 	const long i2 = (virt_addr >> 21) & 0x1FF;

	ldr         x8,[sp,#0x18]
	ubfx        x8,x8,#0x15,#9
	mov         w8,w8
	str         w8,[sp,#0xC]

; 243  : 	const long i1 = (virt_addr >> 12) & 0x1FF;

	ldr         x8,[sp,#0x18]
	ubfx        x8,x8,#0xC,#9
	mov         w8,w8
	str         w8,[sp,#0x10]

; 244  : 
; 245  : 	//uint64_t* pml4i = (uint64_t*)pml4;
; 246  : 
; 247  : 	if (!(pml4i[i4] & 1))

	ldr         w8,[sp,#4]
	sxtw        x9,w8
	mov         x8,#8
	mul         x9,x9,x8
	ldr         x8,[sp,#0x20]
	add         x8,x8,x9
	ldr         x8,[x8]
	tbnz        x8,#0,|$LN3@AuMapPageE|

; 248  : 	{
; 249  : 		const uint64_t page = (uint64_t)AuPmmngrAlloc();

	bl          AuPmmngrAlloc
	str         x0,[sp,#0x40]

; 250  : 		pml4i[i4] = (page & ~0xFFFUL) | PTE_VALID | PTE_TABLE | PTE_AF;

	ldr         x8,[sp,#0x40]
	and         x8,x8,#0xFFFFF000
	orr         x8,x8,#1
	orr         x8,x8,#2
	orr         x10,x8,#0x400
	ldr         w8,[sp,#4]
	sxtw        x9,w8
	mov         x8,#8
	mul         x9,x9,x8
	ldr         x8,[sp,#0x20]
	add         x8,x8,x9
	str         x10,[x8]

; 251  : 		memset((void*)P2V(page), 0, 4096);

	ldr         x0,[sp,#0x40]
	bl          P2V
	mov         w2,#0x1000
	mov         w1,#0
	bl          memset
|$LN3@AuMapPageE|

; 252  : 	}
; 253  : 	uint64_t* pml3 = (uint64_t*)P2V((pml4i[i4] & ~0xFFFULL));

	ldr         w8,[sp,#4]
	sxtw        x9,w8
	mov         x8,#8
	mul         x9,x9,x8
	ldr         x8,[sp,#0x20]
	add         x8,x8,x9
	ldr         x8,[x8]
	and         x0,x8,#-0x1000
	bl          P2V
	str         x0,[sp,#0x28]

; 254  : 
; 255  : 	if (!(pml3[i3] & 1))

	ldr         w8,[sp,#8]
	sxtw        x9,w8
	mov         x8,#8
	mul         x9,x9,x8
	ldr         x8,[sp,#0x28]
	add         x8,x8,x9
	ldr         x8,[x8]
	tbnz        x8,#0,|$LN4@AuMapPageE|

; 256  : 	{
; 257  : 		const uint64_t page = (uint64_t)AuPmmngrAlloc();

	bl          AuPmmngrAlloc
	str         x0,[sp,#0x48]

; 258  : 		pml3[i3] = (page & ~0xFFFUL) | PTE_VALID | PTE_TABLE | PTE_AF;

	ldr         x8,[sp,#0x48]
	and         x8,x8,#0xFFFFF000
	orr         x8,x8,#1
	orr         x8,x8,#2
	orr         x10,x8,#0x400
	ldr         w8,[sp,#8]
	sxtw        x9,w8
	mov         x8,#8
	mul         x9,x9,x8
	ldr         x8,[sp,#0x28]
	add         x8,x8,x9
	str         x10,[x8]

; 259  : 		memset((void*)P2V(page), 0, 4096);

	ldr         x0,[sp,#0x48]
	bl          P2V
	mov         w2,#0x1000
	mov         w1,#0
	bl          memset
|$LN4@AuMapPageE|

; 260  : 	}
; 261  : 
; 262  : 
; 263  : 	uint64_t* pml2 = (uint64_t*)P2V((pml3[i3] & ~0xFFFULL));

	ldr         w8,[sp,#8]
	sxtw        x9,w8
	mov         x8,#8
	mul         x9,x9,x8
	ldr         x8,[sp,#0x28]
	add         x8,x8,x9
	ldr         x8,[x8]
	and         x0,x8,#-0x1000
	bl          P2V
	str         x0,[sp,#0x30]

; 264  : 
; 265  : 	if (!(pml2[i2] & 1))

	ldr         w8,[sp,#0xC]
	sxtw        x9,w8
	mov         x8,#8
	mul         x9,x9,x8
	ldr         x8,[sp,#0x30]
	add         x8,x8,x9
	ldr         x8,[x8]
	tbnz        x8,#0,|$LN5@AuMapPageE|

; 266  : 	{
; 267  : 		const uint64_t page = (uint64_t)AuPmmngrAlloc();

	bl          AuPmmngrAlloc
	str         x0,[sp,#0x50]

; 268  : 		pml2[i2] = (page & ~0xFFFUL) | PTE_VALID | PTE_TABLE | PTE_AF;

	ldr         x8,[sp,#0x50]
	and         x8,x8,#0xFFFFF000
	orr         x8,x8,#1
	orr         x8,x8,#2
	orr         x10,x8,#0x400
	ldr         w8,[sp,#0xC]
	sxtw        x9,w8
	mov         x8,#8
	mul         x9,x9,x8
	ldr         x8,[sp,#0x30]
	add         x8,x8,x9
	str         x10,[x8]

; 269  : 		memset((void*)P2V(page), 0, 4096);

	ldr         x0,[sp,#0x50]
	bl          P2V
	mov         w2,#0x1000
	mov         w1,#0
	bl          memset
|$LN5@AuMapPageE|

; 270  : 
; 271  : 	}
; 272  : 
; 273  : 	uint64_t* pml1 = (uint64_t*)P2V((pml2[i2] & ~0xFFFULL));

	ldr         w8,[sp,#0xC]
	sxtw        x9,w8
	mov         x8,#8
	mul         x9,x9,x8
	ldr         x8,[sp,#0x30]
	add         x8,x8,x9
	ldr         x8,[x8]
	and         x0,x8,#-0x1000
	bl          P2V
	str         x0,[sp,#0x38]

; 274  : 	if (pml1[i1] & 1)

	ldr         w8,[sp,#0x10]
	sxtw        x9,w8
	mov         x8,#8
	mul         x9,x9,x8
	ldr         x8,[sp,#0x38]
	add         x8,x8,x9
	ldr         x8,[x8]
	tbz         x8,#0,|$LN6@AuMapPageE|

; 275  : 	{
; 276  : 		//AuPmmngrFree((void*)phys_addr);
; 277  : 		AuTextOut("[aurora]: vmmngr page already present : %x \n", (pml1[i1] & ~0xFFFULL));

	ldr         w8,[sp,#0x10]
	sxtw        x9,w8
	mov         x8,#8
	mul         x9,x9,x8
	ldr         x8,[sp,#0x38]
	add         x8,x8,x9
	ldr         x8,[x8]
	and         x1,x8,#-0x1000
	adrp        x8,|$SG2969|
	add         x0,x8,PageOffset(|$SG2969|)
	bl          AuTextOut

; 278  : 		return false;

	mov         w0,#0
	b           |$LN1@AuMapPageE|
|$LN6@AuMapPageE|

; 279  : 	}
; 280  : 
; 281  : 	pml1[i1] = (phys_addr & ~0xFFFULL) | flags;

	ldr         x8,[sp,#0x60]
	and         x9,x8,#-0x1000
	ldr         x8,[sp,#0x58]
	orr         x10,x9,x8
	ldr         w8,[sp,#0x10]
	sxtw        x9,w8
	mov         x8,#8
	mul         x9,x9,x8
	ldr         x8,[sp,#0x38]
	add         x8,x8,x9
	str         x10,[x8]

; 282  : 	//tlb_flush(virt_addr);
; 283  : 	//aa64_data_cache_clean_range((void*)&pml1, 4096);
; 284  : 	return true;

	mov         w0,#1
|$LN1@AuMapPageE|
	add         sp,sp,#0x70
	ldr         lr,[sp],#0x10
	ret

	ENDP  ; |AuMapPageEx|

; Function compile flags: /Odtpy
; File C:\Users\paras\source\repos\grep-name\XenevaOS\KernelAA64\Mm\vmmngr.c

	AREA	|.text$mn|, CODE, ARM64

|AuMapPage| PROC

; 141  : bool AuMapPage(uint64_t phys_addr, uint64_t virt_addr, uint8_t attrib) {

|$LN12|
	str         lr,[sp,#-0x10]!
	sub         sp,sp,#0x90
	str         x0,[sp,#0x78]
	str         x1,[sp,#0x10]
	uxtb        w8,w2
	strb        w8,[sp]

; 142  : 	uint64_t flags = PTE_VALID | PTE_TABLE |  

	ldrb        w8,[sp]
	mov         w8,w8
	sxtw        x9,w8
	mov         x8,#0x703
	orr         x8,x9,x8
	str         x8,[sp,#0x58]

; 143  : 		PTE_AF | PTE_SH_INNER | PTE_AP_RW | attrib;
; 144  : 	if (attrib & PTE_AP_RW_USER) {

	ldrb        w8,[sp]
	mov         w8,w8
	sxtw        x8,w8
	tbz         x8,#6,|$LN2@AuMapPage|

; 145  : 		flags = PTE_VALID | PTE_TABLE |

	ldrb        w8,[sp]
	mov         w8,w8
	sxtw        x9,w8
	mov         x8,#0x703
	orr         x8,x9,x8
	str         x8,[sp,#0x58]
|$LN2@AuMapPage|

; 146  : 			PTE_AF | PTE_SH_INNER |  attrib;
; 147  : 	}
; 148  : 
; 149  : 	const long i4 = (virt_addr >> 39) & 0x1FF;

	ldr         x8,[sp,#0x10]
	ubfx        x8,x8,#0x27,#9
	mov         w8,w8
	str         w8,[sp,#4]

; 150  : 	const long i3 = (virt_addr >> 30) & 0x1FF;

	ldr         x8,[sp,#0x10]
	ubfx        x8,x8,#0x1E,#9
	mov         w8,w8
	str         w8,[sp,#8]

; 151  : 	const long i2 = (virt_addr >> 21) & 0x1FF;

	ldr         x8,[sp,#0x10]
	ubfx        x8,x8,#0x15,#9
	mov         w8,w8
	str         w8,[sp,#0xC]

; 152  : 	const long i1 = (virt_addr >> 12) & 0x1FF;

	ldr         x8,[sp,#0x10]
	ubfx        x8,x8,#0xC,#9
	mov         w8,w8
	str         w8,[sp,#0x18]

; 153  : 
; 154  : 	uint64_t* pml4i = (uint64_t*)P2V(read_ttbr0_el1()); 

	bl          read_ttbr0_el1
	bl          P2V
	str         x0,[sp,#0x20]

; 155  : 	if (isRangeInsideKernel(virt_addr)) {

	ldr         x0,[sp,#0x10]
	bl          isRangeInsideKernel
	mov         w0,w0
	cmp         w0,#0
	beq         |$LN3@AuMapPage|

; 156  : 		pml4i = (uint64_t*)P2V(read_ttbr1_el1());

	bl          read_ttbr1_el1
	bl          P2V
	str         x0,[sp,#0x20]
|$LN3@AuMapPage|

; 157  : 	}
; 158  : 
; 159  : 
; 160  : 	if (!(pml4i[i4] & 1)){

	ldr         w8,[sp,#4]
	sxtw        x9,w8
	mov         x8,#8
	mul         x9,x9,x8
	ldr         x8,[sp,#0x20]
	add         x8,x8,x9
	ldr         x8,[x8]
	tbnz        x8,#0,|$LN4@AuMapPage|

; 161  : 		const uint64_t page = (uint64_t)AuPmmngrAlloc();

	bl          AuPmmngrAlloc
	str         x0,[sp,#0x38]

; 162  : 		if (_vmdebug)

	adrp        x8,_vmdebug
	ldrb        w8,[x8,PageOffset(_vmdebug)]
	mov         w8,w8
	cmp         w8,#0
	beq         |$LN5@AuMapPage|

; 163  : 			UARTDebugOut("Creating pm4 entry : %x \r\n", page);

	ldr         x1,[sp,#0x38]
	adrp        x8,|$SG2926|
	add         x0,x8,PageOffset(|$SG2926|)
	bl          UARTDebugOut
|$LN5@AuMapPage|

; 164  : 		pml4i[i4] = (page & ~0xFFFUL) | PTE_VALID | PTE_TABLE;

	ldr         x8,[sp,#0x38]
	and         x8,x8,#0xFFFFF000
	orr         x8,x8,#1
	orr         x10,x8,#2
	ldr         w8,[sp,#4]
	sxtw        x9,w8
	mov         x8,#8
	mul         x9,x9,x8
	ldr         x8,[sp,#0x20]
	add         x8,x8,x9
	str         x10,[x8]

; 165  : 		memset((void*)P2V(page), 0, 4096);

	ldr         x0,[sp,#0x38]
	bl          P2V
	mov         w2,#0x1000
	mov         w1,#0
	bl          memset

; 166  : 		/*dsb_ish();
; 167  : 		isb_flush();*/
; 168  : 		void* address = &pml4i[i4];

	ldr         w8,[sp,#4]
	sxtw        x9,w8
	mov         x8,#8
	mul         x9,x9,x8
	ldr         x8,[sp,#0x20]
	add         x8,x8,x9
	str         x8,[sp,#0x60]

; 169  : 		//data_cache_flush((uint64_t*)address);
; 170  : 		aa64_data_cache_clean_range(address, 4096);

	mov         x1,#0x1000
	ldr         x0,[sp,#0x60]
	bl          aa64_data_cache_clean_range
|$LN4@AuMapPage|

; 171  : 	}
; 172  : 	uint64_t* pml3 = (uint64_t*)P2V((pml4i[i4] & ~0xFFFULL));

	ldr         w8,[sp,#4]
	sxtw        x9,w8
	mov         x8,#8
	mul         x9,x9,x8
	ldr         x8,[sp,#0x20]
	add         x8,x8,x9
	ldr         x8,[x8]
	and         x0,x8,#-0x1000
	bl          P2V
	str         x0,[sp,#0x28]

; 173  : 
; 174  : 	if (!(pml3[i3] & 1)){

	ldr         w8,[sp,#8]
	sxtw        x9,w8
	mov         x8,#8
	mul         x9,x9,x8
	ldr         x8,[sp,#0x28]
	add         x8,x8,x9
	ldr         x8,[x8]
	tbnz        x8,#0,|$LN6@AuMapPage|

; 175  : 		const uint64_t page = (uint64_t)AuPmmngrAlloc();

	bl          AuPmmngrAlloc
	str         x0,[sp,#0x40]

; 176  : 		if (_vmdebug)

	adrp        x8,_vmdebug
	ldrb        w8,[x8,PageOffset(_vmdebug)]
	mov         w8,w8
	cmp         w8,#0
	beq         |$LN7@AuMapPage|

; 177  : 			UARTDebugOut("Creating PML3 Entry : %x \r\n", page);

	ldr         x1,[sp,#0x40]
	adrp        x8,|$SG2929|
	add         x0,x8,PageOffset(|$SG2929|)
	bl          UARTDebugOut
|$LN7@AuMapPage|

; 178  : 		pml3[i3] = (page & ~0xFFFUL) | PTE_VALID | PTE_TABLE;

	ldr         x8,[sp,#0x40]
	and         x8,x8,#0xFFFFF000
	orr         x8,x8,#1
	orr         x10,x8,#2
	ldr         w8,[sp,#8]
	sxtw        x9,w8
	mov         x8,#8
	mul         x9,x9,x8
	ldr         x8,[sp,#0x28]
	add         x8,x8,x9
	str         x10,[x8]

; 179  : 		memset((void*)P2V(page), 0, 4096);

	ldr         x0,[sp,#0x40]
	bl          P2V
	mov         w2,#0x1000
	mov         w1,#0
	bl          memset

; 180  : 		/*dsb_ish();
; 181  : 		isb_flush();*/
; 182  : 		void* address = &pml3[i3];

	ldr         w8,[sp,#8]
	sxtw        x9,w8
	mov         x8,#8
	mul         x9,x9,x8
	ldr         x8,[sp,#0x28]
	add         x8,x8,x9
	str         x8,[sp,#0x68]

; 183  : 		//data_cache_flush((uint64_t*)address);
; 184  : 		aa64_data_cache_clean_range(address, 4096);

	mov         x1,#0x1000
	ldr         x0,[sp,#0x68]
	bl          aa64_data_cache_clean_range
|$LN6@AuMapPage|

; 185  : 	}
; 186  : 
; 187  : 	uint64_t* pml2 = (uint64_t*)P2V((pml3[i3] & ~0xFFFULL));

	ldr         w8,[sp,#8]
	sxtw        x9,w8
	mov         x8,#8
	mul         x9,x9,x8
	ldr         x8,[sp,#0x28]
	add         x8,x8,x9
	ldr         x8,[x8]
	and         x0,x8,#-0x1000
	bl          P2V
	str         x0,[sp,#0x30]

; 188  : 	
; 189  : 	if (!(pml2[i2] & 1)){

	ldr         w8,[sp,#0xC]
	sxtw        x9,w8
	mov         x8,#8
	mul         x9,x9,x8
	ldr         x8,[sp,#0x30]
	add         x8,x8,x9
	ldr         x8,[x8]
	tbnz        x8,#0,|$LN8@AuMapPage|

; 190  : 		const uint64_t page = (uint64_t)AuPmmngrAlloc();

	bl          AuPmmngrAlloc
	str         x0,[sp,#0x48]

; 191  : 		if (_vmdebug)

	adrp        x8,_vmdebug
	ldrb        w8,[x8,PageOffset(_vmdebug)]
	mov         w8,w8
	cmp         w8,#0
	beq         |$LN9@AuMapPage|

; 192  : 			UARTDebugOut("Creating PML2 Entry %x\r\n", page);

	ldr         x1,[sp,#0x48]
	adrp        x8,|$SG2932|
	add         x0,x8,PageOffset(|$SG2932|)
	bl          UARTDebugOut
|$LN9@AuMapPage|

; 193  : 		pml2[i2] = (page & ~0xFFFUL) | PTE_VALID | PTE_TABLE;

	ldr         x8,[sp,#0x48]
	and         x8,x8,#0xFFFFF000
	orr         x8,x8,#1
	orr         x10,x8,#2
	ldr         w8,[sp,#0xC]
	sxtw        x9,w8
	mov         x8,#8
	mul         x9,x9,x8
	ldr         x8,[sp,#0x30]
	add         x8,x8,x9
	str         x10,[x8]

; 194  : 		memset((void*)P2V(page), 0, 4096);

	ldr         x0,[sp,#0x48]
	bl          P2V
	mov         w2,#0x1000
	mov         w1,#0
	bl          memset

; 195  : 		/*dsb_ish();
; 196  : 		isb_flush();*/
; 197  : 		void* address = &pml2[i2];

	ldr         w8,[sp,#0xC]
	sxtw        x9,w8
	mov         x8,#8
	mul         x9,x9,x8
	ldr         x8,[sp,#0x30]
	add         x8,x8,x9
	str         x8,[sp,#0x70]

; 198  : 		//data_cache_flush((uint64_t*)address);
; 199  : 		aa64_data_cache_clean_range(address, 4096);

	mov         x1,#0x1000
	ldr         x0,[sp,#0x70]
	bl          aa64_data_cache_clean_range
|$LN8@AuMapPage|

; 200  : 	}
; 201  : 
; 202  : 	uint64_t* pml1 = (uint64_t*)P2V((pml2[i2] & ~0xFFFULL));

	ldr         w8,[sp,#0xC]
	sxtw        x9,w8
	mov         x8,#8
	mul         x9,x9,x8
	ldr         x8,[sp,#0x30]
	add         x8,x8,x9
	ldr         x8,[x8]
	and         x0,x8,#-0x1000
	bl          P2V
	str         x0,[sp,#0x50]

; 203  : 
; 204  : 	if (pml1[i1] & 1){

	ldr         w8,[sp,#0x18]
	sxtw        x9,w8
	mov         x8,#8
	mul         x9,x9,x8
	ldr         x8,[sp,#0x50]
	add         x8,x8,x9
	ldr         x8,[x8]
	tbz         x8,#0,|$LN10@AuMapPage|

; 205  : 		//AuPmmngrFree((void*)phys_addr);
; 206  : 		AuTextOut("[aurora]: vmmngr page already present : %x \r\n", virt_addr);

	ldr         x1,[sp,#0x10]
	adrp        x8,|$SG2934|
	add         x0,x8,PageOffset(|$SG2934|)
	bl          AuTextOut

; 207  : 		return false;

	mov         w0,#0
	b           |$LN1@AuMapPage|
|$LN10@AuMapPage|

; 208  : 	}
; 209  : 
; 210  : 	pml1[i1] = (phys_addr & ~0xFFFULL) | flags;

	ldr         x8,[sp,#0x78]
	and         x9,x8,#-0x1000
	ldr         x8,[sp,#0x58]
	orr         x10,x9,x8
	ldr         w8,[sp,#0x18]
	sxtw        x9,w8
	mov         x8,#8
	mul         x9,x9,x8
	ldr         x8,[sp,#0x50]
	add         x8,x8,x9
	str         x10,[x8]

; 211  : 	virt_addr &= ~0xFFFULL;

	ldr         x8,[sp,#0x10]
	and         x8,x8,#-0x1000
	str         x8,[sp,#0x10]

; 212  : 	void* address = &pml1[i1];

	ldr         w8,[sp,#0x18]
	sxtw        x9,w8
	mov         x8,#8
	mul         x9,x9,x8
	ldr         x8,[sp,#0x50]
	add         x8,x8,x9
	str         x8,[sp,#0x80]

; 213  : 	aa64_data_cache_clean_range(address, 4096);

	mov         x1,#0x1000
	ldr         x0,[sp,#0x80]
	bl          aa64_data_cache_clean_range

; 214  : 	dsb_ish();

	bl          dsb_ish

; 215  : 	isb_flush();

	bl          isb_flush

; 216  : 	
; 217  : 	//data_cache_flush((uint64_t*)address);
; 218  : 	tlb_flush(virt_addr);

	ldr         x0,[sp,#0x10]
	bl          tlb_flush

; 219  : 	return true;

	mov         w0,#1
|$LN1@AuMapPage|
	add         sp,sp,#0x90
	ldr         lr,[sp],#0x10
	ret

	ENDP  ; |AuMapPage|

; Function compile flags: /Odtpy
; File C:\Users\paras\source\repos\grep-name\XenevaOS\KernelAA64\Mm\vmmngr.c

	AREA	|.text$mn|, CODE, ARM64

|AuVmmngrGetPage| PROC

; 299  : AuVPage* AuVmmngrGetPage(uint64_t virt_addr, uint8_t _flags, uint8_t mode) {

|$LN12|
	str         lr,[sp,#-0x10]!
	sub         sp,sp,#0x80
	str         x0,[sp,#0x18]
	uxtb        w8,w1
	strb        w8,[sp]
	uxtb        w8,w2
	strb        w8,[sp,#1]

; 300  : 	uint64_t flags = PTE_VALID | PTE_TABLE |

	ldrb        w8,[sp]
	mov         w8,w8
	sxtw        x9,w8
	mov         x8,#0x703
	orr         x8,x9,x8
	str         x8,[sp,#0x28]

; 301  : 		PTE_AF | PTE_SH_INNER | PTE_AP_RW | _flags;
; 302  : 	if (_flags & PTE_AP_RW_USER) {

	ldrb        w8,[sp]
	mov         w8,w8
	sxtw        x8,w8
	tbz         x8,#6,|$LN2@AuVmmngrGe|

; 303  : 		flags = PTE_VALID | PTE_TABLE |

	ldrb        w8,[sp]
	mov         w8,w8
	sxtw        x9,w8
	mov         x8,#0x743
	orr         x8,x9,x8
	str         x8,[sp,#0x28]
|$LN2@AuVmmngrGe|

; 304  : 			PTE_AF | PTE_SH_INNER | PTE_AP_RW_USER | _flags;
; 305  : 	}
; 306  : 
; 307  : 	const long i4 = (virt_addr >> 39) & 0x1FF;

	ldr         x8,[sp,#0x18]
	ubfx        x8,x8,#0x27,#9
	mov         w8,w8
	str         w8,[sp,#8]

; 308  : 	const long i3 = (virt_addr >> 30) & 0x1FF;

	ldr         x8,[sp,#0x18]
	ubfx        x8,x8,#0x1E,#9
	mov         w8,w8
	str         w8,[sp,#0xC]

; 309  : 	const long i2 = (virt_addr >> 21) & 0x1FF;

	ldr         x8,[sp,#0x18]
	ubfx        x8,x8,#0x15,#9
	mov         w8,w8
	str         w8,[sp,#0x10]

; 310  : 	const long i1 = (virt_addr >> 12) & 0x1FF;

	ldr         x8,[sp,#0x18]
	ubfx        x8,x8,#0xC,#9
	mov         w8,w8
	str         w8,[sp,#4]

; 311  : 
; 312  : 	uint64_t* pml4i = (uint64_t*)P2V(read_ttbr0_el1());

	bl          read_ttbr0_el1
	bl          P2V
	str         x0,[sp,#0x20]

; 313  : 	if (isRangeInsideKernel(virt_addr))

	ldr         x0,[sp,#0x18]
	bl          isRangeInsideKernel
	mov         w0,w0
	cmp         w0,#0
	beq         |$LN3@AuVmmngrGe|

; 314  : 		pml4i = (uint64_t*)P2V(read_ttbr1_el1());

	bl          read_ttbr1_el1
	bl          P2V
	str         x0,[sp,#0x20]
|$LN3@AuVmmngrGe|

; 315  : 
; 316  : 	if (!(pml4i[i4] & 1))

	ldr         w8,[sp,#8]
	sxtw        x9,w8
	mov         x8,#8
	mul         x9,x9,x8
	ldr         x8,[sp,#0x20]
	add         x8,x8,x9
	ldr         x8,[x8]
	tbnz        x8,#0,|$LN4@AuVmmngrGe|

; 317  : 	{
; 318  : 		const uint64_t page = (uint64_t)AuPmmngrAlloc();

	bl          AuPmmngrAlloc
	str         x0,[sp,#0x48]

; 319  : 		pml4i[i4] = page | flags;

	ldr         x9,[sp,#0x48]
	ldr         x8,[sp,#0x28]
	orr         x10,x9,x8
	ldr         w8,[sp,#8]
	sxtw        x9,w8
	mov         x8,#8
	mul         x9,x9,x8
	ldr         x8,[sp,#0x20]
	add         x8,x8,x9
	str         x10,[x8]

; 320  : 		data_cache_flush(&pml4i[i4]);

	ldr         w8,[sp,#8]
	sxtw        x9,w8
	mov         x8,#8
	mul         x9,x9,x8
	ldr         x8,[sp,#0x20]
	add         x0,x8,x9
	bl          data_cache_flush

; 321  : 		memset((void*)P2V(page), 0, 4096);

	ldr         x0,[sp,#0x48]
	bl          P2V
	mov         w2,#0x1000
	mov         w1,#0
	bl          memset
|$LN4@AuVmmngrGe|

; 322  : 		//tlb_flush((void*)pml4i);
; 323  : 	}
; 324  : 	uint64_t* pml3 = (uint64_t*)P2V(pml4i[i4] & ~0xFFFULL);

	ldr         w8,[sp,#8]
	sxtw        x9,w8
	mov         x8,#8
	mul         x9,x9,x8
	ldr         x8,[sp,#0x20]
	add         x8,x8,x9
	ldr         x8,[x8]
	and         x0,x8,#-0x1000
	bl          P2V
	str         x0,[sp,#0x38]

; 325  : 
; 326  : 	if (!(pml3[i3] & 1))

	ldr         w8,[sp,#0xC]
	sxtw        x9,w8
	mov         x8,#8
	mul         x9,x9,x8
	ldr         x8,[sp,#0x38]
	add         x8,x8,x9
	ldr         x8,[x8]
	tbnz        x8,#0,|$LN5@AuVmmngrGe|

; 327  : 	{
; 328  : 		const uint64_t page = (uint64_t)AuPmmngrAlloc();

	bl          AuPmmngrAlloc
	str         x0,[sp,#0x50]

; 329  : 		pml3[i3] = page | flags;

	ldr         x9,[sp,#0x50]
	ldr         x8,[sp,#0x28]
	orr         x10,x9,x8
	ldr         w8,[sp,#0xC]
	sxtw        x9,w8
	mov         x8,#8
	mul         x9,x9,x8
	ldr         x8,[sp,#0x38]
	add         x8,x8,x9
	str         x10,[x8]

; 330  : 		data_cache_flush(&pml3[i3]);

	ldr         w8,[sp,#0xC]
	sxtw        x9,w8
	mov         x8,#8
	mul         x9,x9,x8
	ldr         x8,[sp,#0x38]
	add         x0,x8,x9
	bl          data_cache_flush

; 331  : 		memset((void*)P2V(page), 0, 4096);

	ldr         x0,[sp,#0x50]
	bl          P2V
	mov         w2,#0x1000
	mov         w1,#0
	bl          memset
|$LN5@AuVmmngrGe|

; 332  : 		//tlb_flush((void*)pml3);
; 333  : 	}
; 334  : 
; 335  : 
; 336  : 	uint64_t* pml2 = (uint64_t*)P2V(pml3[i3] & ~0xFFFULL);

	ldr         w8,[sp,#0xC]
	sxtw        x9,w8
	mov         x8,#8
	mul         x9,x9,x8
	ldr         x8,[sp,#0x38]
	add         x8,x8,x9
	ldr         x8,[x8]
	and         x0,x8,#-0x1000
	bl          P2V
	str         x0,[sp,#0x40]

; 337  : 
; 338  : 	if (!(pml2[i2] & 1))

	ldr         w8,[sp,#0x10]
	sxtw        x9,w8
	mov         x8,#8
	mul         x9,x9,x8
	ldr         x8,[sp,#0x40]
	add         x8,x8,x9
	ldr         x8,[x8]
	tbnz        x8,#0,|$LN6@AuVmmngrGe|

; 339  : 	{
; 340  : 		const uint64_t page = (uint64_t)AuPmmngrAlloc();

	bl          AuPmmngrAlloc
	str         x0,[sp,#0x58]

; 341  : 		pml2[i2] = page | flags;

	ldr         x9,[sp,#0x58]
	ldr         x8,[sp,#0x28]
	orr         x10,x9,x8
	ldr         w8,[sp,#0x10]
	sxtw        x9,w8
	mov         x8,#8
	mul         x9,x9,x8
	ldr         x8,[sp,#0x40]
	add         x8,x8,x9
	str         x10,[x8]

; 342  : 		data_cache_flush(&pml2[i2]);

	ldr         w8,[sp,#0x10]
	sxtw        x9,w8
	mov         x8,#8
	mul         x9,x9,x8
	ldr         x8,[sp,#0x40]
	add         x0,x8,x9
	bl          data_cache_flush

; 343  : 		memset((void*)P2V(page), 0, 4096);

	ldr         x0,[sp,#0x58]
	bl          P2V
	mov         w2,#0x1000
	mov         w1,#0
	bl          memset
|$LN6@AuVmmngrGe|

; 344  : 		//tlb_flush((void*)pml2);
; 345  : 	}
; 346  : 
; 347  : 	uint64_t* pml1 = (uint64_t*)P2V(pml2[i2] & ~0xFFFULL);

	ldr         w8,[sp,#0x10]
	sxtw        x9,w8
	mov         x8,#8
	mul         x9,x9,x8
	ldr         x8,[sp,#0x40]
	add         x8,x8,x9
	ldr         x8,[x8]
	and         x0,x8,#-0x1000
	bl          P2V
	str         x0,[sp,#0x30]

; 348  : 	if (pml1[i1] & 1)

	ldr         w8,[sp,#4]
	sxtw        x9,w8
	mov         x8,#8
	mul         x9,x9,x8
	ldr         x8,[sp,#0x30]
	add         x8,x8,x9
	ldr         x8,[x8]
	tbz         x8,#0,|$LN7@AuVmmngrGe|

; 349  : 	{
; 350  : 		AuVPage* page = (AuVPage*)&pml1[i1];

	ldr         w8,[sp,#4]
	sxtw        x9,w8
	mov         x8,#8
	mul         x9,x9,x8
	ldr         x8,[sp,#0x30]
	add         x8,x8,x9
	str         x8,[sp,#0x68]

; 351  : 		return page;

	ldr         x0,[sp,#0x68]
	b           |$LN1@AuVmmngrGe|

; 352  : 	}

	b           |$LN8@AuVmmngrGe|
|$LN7@AuVmmngrGe|

; 353  : 	else {
; 354  : 		if (mode & VIRT_GETPAGE_CREATE && !(mode & VIRT_GETPAGE_ONLY_RET)) {

	ldrb        w8,[sp,#1]
	mov         w8,w8
	tbz         x8,#0,|$LN9@AuVmmngrGe|
	ldrb        w8,[sp,#1]
	mov         w8,w8
	tbnz        x8,#1,|$LN9@AuVmmngrGe|

; 355  : 			uint64_t phys_addr = (uint64_t)AuPmmngrAlloc();

	bl          AuPmmngrAlloc
	str         x0,[sp,#0x60]

; 356  : 			memset((void*)P2V(phys_addr), 0, 4096);

	ldr         x0,[sp,#0x60]
	bl          P2V
	mov         w2,#0x1000
	mov         w1,#0
	bl          memset

; 357  : 			pml1[i1] = phys_addr & ~0xFFFULL | flags;

	ldr         x8,[sp,#0x60]
	and         x9,x8,#-0x1000
	ldr         x8,[sp,#0x28]
	orr         x10,x9,x8
	ldr         w8,[sp,#4]
	sxtw        x9,w8
	mov         x8,#8
	mul         x9,x9,x8
	ldr         x8,[sp,#0x30]
	add         x8,x8,x9
	str         x10,[x8]

; 358  : 			data_cache_flush(&pml1[i1]);

	ldr         w8,[sp,#4]
	sxtw        x9,w8
	mov         x8,#8
	mul         x9,x9,x8
	ldr         x8,[sp,#0x30]
	add         x0,x8,x9
	bl          data_cache_flush

; 359  : 			virt_addr &= 0xFFFULL;

	ldr         x8,[sp,#0x18]
	and         x8,x8,#0xFFF
	str         x8,[sp,#0x18]

; 360  : 			tlb_flush(virt_addr);

	ldr         x0,[sp,#0x18]
	bl          tlb_flush

; 361  : 			AuVPage* vpage = (AuVPage*)&pml1[i1];

	ldr         w8,[sp,#4]
	sxtw        x9,w8
	mov         x8,#8
	mul         x9,x9,x8
	ldr         x8,[sp,#0x30]
	add         x8,x8,x9
	str         x8,[sp,#0x70]

; 362  : 			UARTDebugOut("Creating vpage \r\n");

	adrp        x8,|$SG3015|
	add         x0,x8,PageOffset(|$SG3015|)
	bl          UARTDebugOut

; 363  : 			return vpage;

	ldr         x0,[sp,#0x70]
	b           |$LN1@AuVmmngrGe|
|$LN9@AuVmmngrGe|

; 364  : 		}
; 365  : 		if (mode & VIRT_GETPAGE_ONLY_RET)

	ldrb        w8,[sp,#1]
	mov         w8,w8
	tbz         x8,#1,|$LN10@AuVmmngrGe|

; 366  : 			return NULL;

	mov         x0,#0
|$LN10@AuVmmngrGe|
|$LN8@AuVmmngrGe|
|$LN1@AuVmmngrGe|
	add         sp,sp,#0x80
	ldr         lr,[sp],#0x10
	ret

	ENDP  ; |AuVmmngrGetPage|

; Function compile flags: /Odtpy
; File C:\Users\paras\source\repos\grep-name\XenevaOS\KernelAA64\Mm\vmmngr.c

	AREA	|.text$mn|, CODE, ARM64

|AuVmmngrInitialize| PROC

; 81   : void AuVmmngrInitialize() {

|$LN14|
	sub         sp,sp,#0x10
	stp         x19,lr,[sp]
	sub         sp,sp,#0x40

; 82   : 	AuTextOut("[aurora]: initializing virtual memory manager \r\n");

	adrp        x8,|$SG2885|
	add         x0,x8,PageOffset(|$SG2885|)
	bl          AuTextOut

; 83   : 	uint64_t* previousL0 = (uint64_t*)read_ttbr0_el1();

	bl          read_ttbr0_el1
	str         x0,[sp,#0x28]

; 84   : 	uint64_t* newL0 = AuPmmngrAlloc();

	bl          AuPmmngrAlloc
	str         x0,[sp,#0x10]

; 85   : 	memset(newL0, 0, PAGE_SIZE);

	mov         w2,#0x1000
	mov         w1,#0
	ldr         x0,[sp,#0x10]
	bl          memset

; 86   : 
; 87   : 	AuTextOut("[aurora]: new l0 allocated %x\r\n", newL0);

	ldr         x1,[sp,#0x10]
	adrp        x8,|$SG2886|
	add         x0,x8,PageOffset(|$SG2886|)
	bl          AuTextOut

; 88   : 	for (int i = 0; i < 512; i++) {

	mov         w8,#0
	str         w8,[sp]
	b           |$LN4@AuVmmngrIn|
|$LN2@AuVmmngrIn|
	ldr         w8,[sp]
	add         w8,w8,#1
	str         w8,[sp]
|$LN4@AuVmmngrIn|
	ldr         w8,[sp]
	cmp         w8,#0x200
	bge         |$LN3@AuVmmngrIn|

; 89   : 		newL0[i] = previousL0[i];

	ldr         w8,[sp]
	sxtw        x9,w8
	mov         x8,#8
	mul         x9,x9,x8
	ldr         x8,[sp,#0x28]
	add         x10,x8,x9
	ldr         w8,[sp]
	sxtw        x9,w8
	mov         x8,#8
	mul         x9,x9,x8
	ldr         x8,[sp,#0x10]
	add         x9,x8,x9
	ldr         x8,[x10]
	str         x8,[x9]

; 90   : 	}

	b           |$LN2@AuVmmngrIn|
|$LN3@AuVmmngrIn|

; 91   : 
; 92   : 	if (!AuLittleBootUsed()) {

	bl          AuLittleBootUsed

; 93   : 	}
; 94   : 
; 95   : 	
; 96   : 	uint64_t* newL1 = AuPmmngrAlloc();

	bl          AuPmmngrAlloc
	str         x0,[sp,#0x20]

; 97   : 	memset(newL1, 0, PAGE_SIZE);

	mov         w2,#0x1000
	mov         w1,#0
	ldr         x0,[sp,#0x20]
	bl          memset

; 98   : 	newL0[pml4_index(PHYSICAL_MEM_BASE)] = (uint64_t)newL1 | 0x3; // | PTE_VALID | PTE_TABLE | PTE_AF;

	ldr         x8,[sp,#0x20]
	orr         x19,x8,#3
	mov         x0,#-0x800000000000
	bl          pml4_index
	mov         x8,#8
	mul         x9,x0,x8
	ldr         x8,[sp,#0x10]
	add         x8,x8,x9
	str         x19,[x8]

; 99   : 	data_cache_flush(&newL0[pml4_index(PHYSICAL_MEM_BASE)]);

	mov         x0,#-0x800000000000
	bl          pml4_index
	mov         x8,#8
	mul         x9,x0,x8
	ldr         x8,[sp,#0x10]
	add         x0,x8,x9
	bl          data_cache_flush

; 100  : 
; 101  : 	for (int i = 0; i < 512; i++) {

	mov         w8,#0
	str         w8,[sp,#4]
	b           |$LN7@AuVmmngrIn|
|$LN5@AuVmmngrIn|
	ldr         w8,[sp,#4]
	add         w8,w8,#1
	str         w8,[sp,#4]
|$LN7@AuVmmngrIn|
	ldr         w8,[sp,#4]
	cmp         w8,#0x200
	bge         |$LN6@AuVmmngrIn|

; 102  : 		uint64_t addr = (uint64_t)i << 30;

	ldr         w8,[sp,#4]
	sxtw        x8,w8
	lsl         x8,x8,#0x1E
	str         x8,[sp,#0x30]

; 103  : 		newL1[pdpt_index(PHYSICAL_MEM_BASE) + i] = (addr | (0ULL << 54) | 

	ldr         x8,[sp,#0x30]
	orr         x8,x8,#0x400
	orr         x8,x8,#0x300
	orr         x8,x8,#4
	orr         x19,x8,#1
	mov         x0,#-0x800000000000
	bl          pdpt_index
	ldr         w8,[sp,#4]
	sxtw        x8,w8
	add         x9,x0,x8
	mov         x8,#8
	mul         x9,x9,x8
	ldr         x8,[sp,#0x20]
	add         x8,x8,x9
	str         x19,[x8]

; 104  : 			(0ULL << 53) | (1ULL << 10) | 
; 105  : 			(3ULL << 8) | (0ULL << 6) |
; 106  : 			(1UL << 2) | 0b01);
; 107  : 		//data_cache_flush(&newL1[pdpt_index(PHYSICAL_MEM_BASE) + i]);
; 108  : 	}

	b           |$LN5@AuVmmngrIn|
|$LN6@AuVmmngrIn|

; 109  : 	uint64_t* kernelAS = AuPmmngrAlloc();

	bl          AuPmmngrAlloc
	str         x0,[sp,#0x18]

; 110  : 	memset(kernelAS, 0, PAGE_SIZE);

	mov         w2,#0x1000
	mov         w1,#0
	ldr         x0,[sp,#0x18]
	bl          memset

; 111  : 	
; 112  : 	for (int i = 0; i < 512; i++) {

	mov         w8,#0
	str         w8,[sp,#8]
	b           |$LN10@AuVmmngrIn|
|$LN8@AuVmmngrIn|
	ldr         w8,[sp,#8]
	add         w8,w8,#1
	str         w8,[sp,#8]
|$LN10@AuVmmngrIn|
	ldr         w8,[sp,#8]
	cmp         w8,#0x200
	bge         |$LN9@AuVmmngrIn|

; 113  : 		kernelAS[i] = newL0[i];

	ldr         w8,[sp,#8]
	sxtw        x9,w8
	mov         x8,#8
	mul         x9,x9,x8
	ldr         x8,[sp,#0x10]
	add         x10,x8,x9
	ldr         w8,[sp,#8]
	sxtw        x9,w8
	mov         x8,#8
	mul         x9,x9,x8
	ldr         x8,[sp,#0x18]
	add         x9,x8,x9
	ldr         x8,[x10]
	str         x8,[x9]

; 114  : 	}

	b           |$LN8@AuVmmngrIn|
|$LN9@AuVmmngrIn|

; 115  : 
; 116  : 	write_ttbr0_el1(newL0);

	ldr         x0,[sp,#0x10]
	bl          write_ttbr0_el1

; 117  : 	write_ttbr1_el1(kernelAS);

	ldr         x0,[sp,#0x18]
	bl          write_ttbr1_el1

; 118  : 
; 119  : 	tlb_flush_vmalle1is();

	bl          tlb_flush_vmalle1is

; 120  : 
; 121  : 	dsb_sy_barrier();

	bl          dsb_sy_barrier

; 122  : 	isb_flush();

	bl          isb_flush

; 123  : 
; 124  : 	_RootPaging = newL0;

	adrp        x9,_RootPaging
	ldr         x8,[sp,#0x10]
	str         x8,[x9,PageOffset(_RootPaging)]

; 125  : 	_RootPagingKe = kernelAS;

	adrp        x9,_RootPagingKe
	ldr         x8,[sp,#0x18]
	str         x8,[x9,PageOffset(_RootPagingKe)]

; 126  : 
; 127  : 	AuPmmngrMoveHigher();

	bl          AuPmmngrMoveHigher

; 128  : 
; 129  : 	tlb_flush_vmalle1is();

	bl          tlb_flush_vmalle1is

; 130  : 
; 131  : 	_MMIOBase = (uint64_t*)MMIO_BASE;

	adrp        x9,_MMIOBase
	ldr         x8,|$LN13@AuVmmngrIn|
	str         x8,[x9,PageOffset(_MMIOBase)]
	add         sp,sp,#0x40
	ldp         x19,lr,[sp]
	add         sp,sp,#0x10
	ret
|$LN13@AuVmmngrIn|
	DCQ         0xffffff1000000000

	ENDP  ; |AuVmmngrInitialize|

	END
