 BOOTx64

 Timestamp is 66d77b17 (Wed Sep 04 02:39:43 2024)

 Preferred load address is 0000000180000000

 Start         Length     Name                   Class
 0001:00000000 000077c7H .text                   CODE
 0002:00000000 00001e10H .rdata                  DATA
 0002:00001e10 00000354H .xdata                  DATA
 0002:00002164 00000000H .edata                  DATA
 0003:00000000 00000204H .data                   DATA
 0003:00000210 00001198H .bss                    DATA
 0004:00000000 000004e0H .pdata                  DATA

  Address         Publics by Value              Rva+Base               Lib:Object

 0000:00000000       ___safe_se_handler_table   0000000000000000     <absolute>
 0000:00000000       ___safe_se_handler_count   0000000000000000     <absolute>
 0001:00000000       ?arch_initialize_paging@@YAXXZ 0000000180001000 f   arch_paging.obj
 0001:000000a0       ?paging_map@@YA_NPEAX_K11@Z 00000001800010a0 f   arch_paging.obj
 0001:000001f0       ?check_free@@YA_NPEAX_K@Z  00000001800011f0 f   arch_paging.obj
 0001:00000240       ?set_paging_attributes@@YAXPEAX_K11@Z 0000000180001240 f   arch_paging.obj
 0001:00000440       ?fill_arch_paging_info@@YAXPEAX@Z 0000000180001440 f   arch_paging.obj
 0001:00000480       ?arch_get_recursive_slot@@YA_KXZ 0000000180001480 f   arch_paging.obj
 0001:00000490       ?arch_get_pml4ptr@@YAPEAXXZ 0000000180001490 f   arch_paging.obj
 0001:00000830       ?identity_map_4kb@@YAX_K@Z 0000000180001830 f   arch_paging.obj
 0001:00000ac0       ?paging_map@@YA_NPEAX_K1@Z 0000000180001ac0 f   arch_paging.obj
 0001:00000f30       ??$raw_offset@PEAXPEAX@@YAPEAXPEAXH@Z 0000000180001f30 f i arch_paging.obj
 0001:00000f50       ??$raw_offset@_K_K@@YA_K_KH@Z 0000000180001f50 f i arch_paging.obj
 0001:00000f70       ?cls@@YAXXZ                0000000180001f70 f   console.obj
 0001:00000fa0       ?Cursor@@YA_KE@Z           0000000180001fa0 f   console.obj
 0001:00000fe0       ?GetCurrentCursorPos@@YAXPEAH0@Z 0000000180001fe0 f   console.obj
 0001:00001030       ?SetCurrentCursorPos@@YA_KHH@Z 0000000180002030 f   console.obj
 0001:00001080       ?SetTextAttribute@@YA_KHH@Z 0000000180002080 f   console.obj
 0001:000010d0       ?PutChar@@YAXH@Z           00000001800020d0 f   console.obj
 0001:00001130       ?printf@@YAHPEA_WZZ        0000000180002130 f   console.obj
 0001:00001db0       ?InitializeLib@@YA_KPEAXPEAUEFI_SYSTEM_TABLE@@@Z 0000000180002db0 f   efi.obj
 0001:00001eb0       ?Stall@@YAX_K@Z            0000000180002eb0 f   efi.obj
 0001:00001ee0       ?GetBootServices@@YAPEAUEFI_BOOT_SERVICES@@XZ 0000000180002ee0 f   efi.obj
 0001:00001ef0       ?GetRuntimeServices@@YAPEAUEFI_RUNTIME_SERVICES@@XZ 0000000180002ef0 f   efi.obj
 0001:00001f00       ?getError@@YAPEAG_K@Z      0000000180002f00 f   efi.obj
 0001:00001f80       ?getErrno@@YA_KXZ          0000000180002f80 f   efi.obj
 0001:00001f90       ?GetIntegerInput@@YA_KPEAG@Z 0000000180002f90 f   efi.obj
 0001:000021b0       ?GetBootFileSystem@@YA_KPEAXPEAPEAU_EFI_SIMPLE_FILE_SYSTEM_PROTOCOL@@@Z 00000001800031b0 f   file_io.obj
 0001:00002230       ?CloseFile@@YA_KPEAU_EFI_FILE_PROTOCOL@@@Z 0000000180003230 f   file_io.obj
 0001:00002260       ?GetFileSize@@YA_KPEAU_EFI_FILE_PROTOCOL@@@Z 0000000180003260 f   file_io.obj
 0001:00002320       ?ReadFile@@YA_KPEAX_K1PEAU_EFI_FILE_PROTOCOL@@@Z 0000000180003320 f   file_io.obj
 0001:00002380       ?WriteFile@@YA_KPEAX_K1PEAU_EFI_FILE_PROTOCOL@@@Z 0000000180003380 f   file_io.obj
 0001:000023e0       ?GetRootDirectory@@YAPEAEXZ 00000001800033e0 f   file_io.obj
 0001:00002760       ?get_kernel_size@@YA_KXZ   0000000180003760 f   file_io.obj
 0001:00002770       ?LoadFile@@YAPEAEPEA_W@Z   0000000180003770 f   file_io.obj
 0001:00002aa0       ?get_file_size@@YA_KXZ     0000000180003aa0 f   file_io.obj
 0001:00002ab0       ?PrepareExitBootService@@YA_KXZ 0000000180003ab0 f   main.obj
 0001:00002ad0       ?guids_match@@YA_NUGUID@@0@Z 0000000180003ad0 f   main.obj
 0001:00002b90       ?find_acpi_table@@YAPEAXPEAUEFI_SYSTEM_TABLE@@@Z 0000000180003b90 f   main.obj
 0001:00002cd0       ?get_integer_input@@YA_KPEBD@Z 0000000180003cd0 f   main.obj
 0001:00002ec0       ?strcmp_config@@YAHPEBD0@Z 0000000180003ec0 f   main.obj
 0001:00002f40       ?strcpy@@YAPEADPEADPEBD@Z  0000000180003f40 f   main.obj
 0001:00002fb0       ?mbsrtowcs@@YA_KPEA_WPEBD_K@Z 0000000180003fb0 f   main.obj
 0001:00003050       ?strlen@@YA_KPEBD@Z        0000000180004050 f   main.obj
 0001:000030a0       ?efi_main@@YA_KPEAXPEAUEFI_SYSTEM_TABLE@@@Z 00000001800040a0 f   main.obj
 0001:00003a10       ?AllocatePool@@YAPEAX_K@Z  0000000180004a10 f   memory.obj
 0001:00003a60       ?AllocatePhysical@@YAPEAXKK@Z 0000000180004a60 f   memory.obj
 0001:00003b50       ?AllocateZeroPool@@YAPEAXK@Z 0000000180004b50 f   memory.obj
 0001:00003ba0       ?FreePool@@YAXPEAX@Z       0000000180004ba0 f   memory.obj
 0001:00003bc0       load_minifs                0000000180004bc0 f   minifs.obj
 0001:00003e40       initialize_vm              0000000180004e40 f   paging.obj
 0001:00003e80       install_paging             0000000180004e80 f   paging.obj
 0001:00003e90       map_page                   0000000180004e90 f   paging.obj
 0001:000040f0       map_page_count             00000001800050f0 f   paging.obj
 0001:00004180       _print_cr3                 0000000180005180 f   paging.obj
 0001:00004200       ?CreatePT164@@YAXPEAUPT@@@Z 0000000180005200 f   paging.obj
 0001:00004330       ?CreatePhysicalToVirtual@@YAXPEAUPML4@@H@Z 0000000180005330 f   paging.obj
 0001:000044e0       ?pml4_index@@YA_K_K@Z      00000001800054e0 f   paging.obj
 0001:00004500       ?pdp_index@@YA_K_K@Z       0000000180005500 f   paging.obj
 0001:00004520       ?pd_index@@YA_K_K@Z        0000000180005520 f   paging.obj
 0001:00004540       ?pt_index@@YA_K_K@Z        0000000180005540 f   paging.obj
 0001:00004560       ?p_index@@YA_K_K@Z         0000000180005560 f   paging.obj
 0001:00004580       ?get_physical_address@@YAPEA_K_K@Z 0000000180005580 f   paging.obj
 0001:00004630       ??$align_up@_K@@YA_K_KI@Z  0000000180005630 f i paging.obj
 0001:00004660       ?LibDevicePathToInterface@@YA_KPEAUGUID@@PEAUEFI_DEVICE_PATH_PROTOCOL@@PEAPEAX@Z 0000000180005660 f   path.obj
 0001:00004710       ?DuplicateDevicePath@@YAPEAUEFI_DEVICE_PATH_PROTOCOL@@PEAU1@@Z 0000000180005710 f   path.obj
 0001:00004730       ?FileDevicePath@@YAPEAUEFI_DEVICE_PATH_PROTOCOL@@PEAXPEBD@Z 0000000180005730 f   path.obj
 0001:00004750       ?DevicePathType@@YAEPEBX@Z 0000000180005750 f   path.obj
 0001:00004770       ?IsDevicePathEndType@@YAEPEBX@Z 0000000180005770 f   path.obj
 0001:000047b0       ?DevicePathSubType@@YAEPEBX@Z 00000001800057b0 f   path.obj
 0001:000047d0       ?IsDevicePathEnd@@YAEPEBX@Z 00000001800057d0 f   path.obj
 0001:00004820       ?DevicePathSize@@YAKPEAUEFI_DEVICE_PATH_PROTOCOL@@@Z 0000000180005820 f   path.obj
 0001:00004830       ?DevicePathFromHandle@@YAPEAUEFI_DEVICE_PATH_PROTOCOL@@PEAX@Z 0000000180005830 f   path.obj
 0001:00004880       ?DevicePathInstance@@YAPEAUEFI_DEVICE_PATH_PROTOCOL@@PEAPEAU1@PEAK@Z 0000000180005880 f   path.obj
 0001:000048a0       ?DevicePathInstanceCount@@YAKPEAUEFI_DEVICE_PATH_PROTOCOL@@@Z 00000001800058a0 f   path.obj
 0001:000048e0       ?AppendDevicePath@@YAPEAUEFI_DEVICE_PATH_PROTOCOL@@PEAU1@0@Z 00000001800058e0 f   path.obj
 0001:00004a50       ?Load_PEImage@@YAPEAXPEAX@Z 0000000180005a50 f   pe.obj
 0001:00004cd0       ?GetDLLName@@YAPEBDPEAX@Z  0000000180005cd0 f   pe.obj
 0001:00004d80       ?link_image_import@@YAXPEAX0@Z 0000000180005d80 f   pe.obj
 0001:00004ef0       ?LoadDLLImage@@YA_KPEAX@Z  0000000180005ef0 f   pe.obj
 0001:00005120       ?GetStackSize@@YA_KPEAX@Z  0000000180006120 f   pe.obj
 0001:00005170       ?GetEntryPoint@@YAP6AXPEAU_KERNEL_BOOT_INFO_@@@ZPEAX@Z 0000000180006170 f   pe.obj
 0001:000051c0       ?GetProcAddress@@YAPEAXPEAXPEBD@Z 00000001800061c0 f   pe.obj
 0001:00005350       ?strcmp_basic@@YAHPEBD0@Z  0000000180006350 f   pe.obj
 0001:000053d0       ?strcmp@@YAHPEBD0@Z        00000001800063d0 f   pe.obj
 0001:00005530       ?fill_modloader_info@@YAXAEAPEAX@Z 0000000180006530 f   pe.obj
 0001:00005560       ??$raw_offset@P6AXPEAU_KERNEL_BOOT_INFO_@@@ZPEAX@@YAP6AXPEAU_KERNEL_BOOT_INFO_@@@ZPEAXH@Z 0000000180006560 f i pe.obj
 0001:00005580       ??$raw_offset@PEADPEAX@@YAPEADPEAXH@Z 0000000180006580 f i pe.obj
 0001:000055a0       ??$raw_offset@PEAGPEAX@@YAPEAGPEAXH@Z 00000001800065a0 f i pe.obj
 0001:000055c0       ??$raw_offset@PEAKPEAX@@YAPEAKPEAXH@Z 00000001800065c0 f i pe.obj
 0001:000055e0       ??$raw_offset@PEAU_IMAGE_EXPORT_DIRECTORY@@PEAX@@YAPEAU_IMAGE_EXPORT_DIRECTORY@@PEAXH@Z 00000001800065e0 f i pe.obj
 0001:00005600       ??$raw_offset@PEAU_IMAGE_IMPORT_DIRECTORY@@PEAX@@YAPEAU_IMAGE_IMPORT_DIRECTORY@@PEAXH@Z 0000000180006600 f i pe.obj
 0001:00005620       ??$raw_offset@PEAU_IMAGE_IMPORT_HINT_TABLE@@PEAX@@YAPEAU_IMAGE_IMPORT_HINT_TABLE@@PEAXH@Z 0000000180006620 f i pe.obj
 0001:00005640       ??$raw_offset@PEAU_IMAGE_NT_HEADERS_PE32PLUS@@PEAU_IMAGE_DOS_HEADER_@@@@YAPEAU_IMAGE_NT_HEADERS_PE32PLUS@@PEAU_IMAGE_DOS_HEADER_@@H@Z 0000000180006640 f i pe.obj
 0001:00005660       ??$raw_offset@PEAU_IMAGE_SECTION_HEADER@@PEAU_IMAGE_OPTIONAL_HEADER_PE32PLUS@@@@YAPEAU_IMAGE_SECTION_HEADER@@PEAU_IMAGE_OPTIONAL_HEADER_PE32PLUS@@H@Z 0000000180006660 f i pe.obj
 0001:00005680       ??$raw_offset@PEA_KPEAX@@YAPEA_KPEAXH@Z 0000000180006680 f i pe.obj
 0001:000056a0       ??$raw_offset@PEBDPEAX@@YAPEBDPEAXH@Z 00000001800066a0 f i pe.obj
 0001:000056c0       ?InitializePmmngr@@YAXUEfiMemoryMap@@PEAX_K@Z 00000001800066c0 f   pmmngr.obj
 0001:000058c0       ?PmmngrAllocate@@YA_KXZ    00000001800068c0 f   pmmngr.obj
 0001:00005940       ?PmmngrFree@@YAX_K@Z       0000000180006940 f   pmmngr.obj
 0001:00005970       ?PmmngrList@@YAXXZ         0000000180006970 f   pmmngr.obj
 0001:000059e0       ?fill_pmmngr_info@@YAXPEAX@Z 00000001800069e0 f   pmmngr.obj
 0001:00005a30       ?get_physical_start@@YA_KXZ 0000000180006a30 f   pmmngr.obj
 0001:00005a40       ?get_physical_size@@YA_KXZ 0000000180006a40 f   pmmngr.obj
 0001:00005a50       ?get_pg_stack@@YAPEA_KXZ   0000000180006a50 f   pmmngr.obj
 0001:00005a60       ?get_alstack@@YAPEA_KXZ    0000000180006a60 f   pmmngr.obj
 0001:00005a70       ?get_alstackptr@@YAPEA_KXZ 0000000180006a70 f   pmmngr.obj
 0001:00005a80       ?get_stack_ptr@@YAPEA_KXZ  0000000180006a80 f   pmmngr.obj
 0001:00005a90       ?get_ram_size@@YA_KXZ      0000000180006a90 f   pmmngr.obj
 0001:00005aa0       ?reserve_mem_count@@YA_KXZ 0000000180006aa0 f   pmmngr.obj
 0001:00005ab0       ??$raw_diff@UEFI_MEMORY_DESCRIPTOR@@U1@@@YAHPEAUEFI_MEMORY_DESCRIPTOR@@0@Z 0000000180006ab0 f i pmmngr.obj
 0001:00005ad0       ??$raw_diff@_K_K@@YAHPEA_K0@Z 0000000180006ad0 f i pmmngr.obj
 0001:00005af0       ??$raw_offset@PEAUEFI_MEMORY_DESCRIPTOR@@PEAU1@@@YAPEAUEFI_MEMORY_DESCRIPTOR@@PEAU0@H@Z 0000000180006af0 f i pmmngr.obj
 0001:00005b10       memset                     0000000180006b10 f   string.obj
 0001:00005b50       ?memcpy@@YAXPEAX0K@Z       0000000180006b50 f   string.obj
 0001:00005b90       ?wstrchr@@YAPEA_WPEA_WH@Z  0000000180006b90 f   string.obj
 0001:00005be0       ?wstrlen@@YAHPEA_W@Z       0000000180006be0 f   string.obj
 0001:00005c30       ?wstrsize@@YAKPEA_W@Z      0000000180006c30 f   string.obj
 0001:00005c60       ?_memset@@YAXPEAXEK@Z      0000000180006c60 f   string.obj
 0001:00005cc0       ?_memcpy@@YAXPEAX0K@Z      0000000180006cc0 f   string.obj
 0001:00005de0       ?to_upper@@YAHH@Z          0000000180006de0 f   type.obj
 0001:00005e10       ?to_lower@@YAHH@Z          0000000180006e10 f   type.obj
 0001:00005e40       ?is_digit@@YAHH@Z          0000000180006e40 f   type.obj
 0001:00005e70       ?IterateGraphicsMode@@YAIP6A_NIPEAU_efi_graphics_output_mode_information@@@Z@Z 0000000180006e70 f   video.obj
 0001:00005f60       ?GetGraphicsModeInfo@@YA_KIPEAPEAU_efi_graphics_output_mode_information@@PEA_K@Z 0000000180006f60 f   video.obj
 0001:00006040       ?SetGraphicsMode@@YA_K_K@Z 0000000180007040 f   video.obj
 0001:00006370       ?fill_framebuffer_info@@YAX_K000@Z 0000000180007370 f   video.obj
 0001:000063c0       ?get_framebuffer@@YAPEAKXZ 00000001800073c0 f   video.obj
 0001:000063d0       ?get_width@@YAGXZ          00000001800073d0 f   video.obj
 0001:000063e0       ?get_height@@YAGXZ         00000001800073e0 f   video.obj
 0001:000063f0       ?get_fb_size@@YA_KXZ       00000001800073f0 f   video.obj
 0001:00006400       ?get_pixels_per_line@@YA_KXZ 0000000180007400 f   video.obj
 0001:00006410       ?get_red_mask@@YAKXZ       0000000180007410 f   video.obj
 0001:00006420       ?get_blue_mask@@YAKXZ      0000000180007420 f   video.obj
 0001:00006430       ?get_green_mask@@YAKXZ     0000000180007430 f   video.obj
 0001:00006440       ?get_resv_mask@@YAKXZ      0000000180007440 f   video.obj
 0001:00006450       ?ClearScreen@@YAXXZ        0000000180007450 f   video.obj
 0001:000064c0       ?QueryGOP@@YA_KGG@Z        00000001800074c0 f   video.obj
 0001:000065d0       ?set_xn_output_proc@@YAXP6AXPEBD@Z@Z 00000001800075d0 f   xn_console.obj
 0001:000065f0       ?puts@@YAXPEBD@Z           00000001800075f0 f   xn_console.obj
 0001:00006610       ?printf_gui@@YAXPEBDZZ     0000000180007610 f   xn_console.obj
 0001:000069d0       ?sztoa@@YAPEAD_KPEADH@Z    00000001800079d0 f   xn_console.obj
 0001:00006af0       ?atow@@YAXPEADPEBD@Z       0000000180007af0 f   xn_console.obj
 0001:00006b40       ?InitializeGraphics@@YAXU_FRAMEBUFFER_INFORMATION@@@Z 0000000180007b40 f   xn_gui.obj
 0001:00006c30       ?putpixel@@YAX_K0K@Z       0000000180007c30 f   xn_gui.obj
 0001:00006d60       ?gputs_k@@YAXPEBD@Z        0000000180007d60 f   xn_gui.obj
 0001:00007040       ?DrawRect@@YAXHHHHK@Z      0000000180008040 f   xn_gui.obj
 0001:00007100       ?set_gui@@YAXKK_K0@Z       0000000180008100 f   xn_gui.obj
 0001:00007150       ?putpixel_ii@@YAX_K0K@Z    0000000180008150 f   xn_gui.obj
 0001:00007280       ?gputc@@YAXD@Z             0000000180008280 f   xn_gui.obj
 0001:00007550       ?scroll@@YAXXZ             0000000180008550 f   xn_gui.obj
 0001:00007630       ??$raw_offset@PEAKPEA_K@@YAPEAKPEA_KH@Z 0000000180008630 f i xn_gui.obj
 0001:00007650       ??$raw_offset@PEAK_K@@YAPEAK_KH@Z 0000000180008650 f i xn_gui.obj
 0001:00007670       inportb                    0000000180008670     asm_helper.obj
 0001:00007678       inportw                    0000000180008678     asm_helper.obj
 0001:00007681       inportd                    0000000180008681     asm_helper.obj
 0001:00007689       outportb                   0000000180008689     asm_helper.obj
 0001:00007690       outportw                   0000000180008690     asm_helper.obj
 0001:00007699       outportd                   0000000180008699     asm_helper.obj
 0001:000076a0       cpuid                      00000001800086a0     asm_helper.obj
 0001:000076c4       cacheflush                 00000001800086c4     asm_helper.obj
 0001:000076c7       tlbflush                   00000001800086c7     asm_helper.obj
 0001:000076cb       x64_locked_cas             00000001800086cb     asm_helper.obj
 0001:000076e1       disable                    00000001800086e1     asm_helper.obj
 0001:000076e5       restore                    00000001800086e5     asm_helper.obj
 0001:000076e8       memory_barrier             00000001800086e8     asm_helper.obj
 0001:000076ec       get_paging_root            00000001800086ec     asm_helper.obj
 0001:000076f0       set_paging_root            00000001800086f0     asm_helper.obj
 0001:000076f4       cpu_startup                00000001800086f4     asm_helper.obj
 0001:0000771d       pause                      000000018000871d     asm_helper.obj
 0001:00007720       save_gdt                   0000000180008720     asm_helper.obj
 0001:00007724       get_segment_register       0000000180008724     asm_helper.obj
 0001:00007766       rdmsr                      0000000180008766     asm_helper.obj
 0001:00007770       wrmsr                      0000000180008770     asm_helper.obj
 0001:0000777a       read_cr0                   000000018000877a     asm_helper.obj
 0001:0000777e       write_cr0                  000000018000877e     asm_helper.obj
 0001:00007782       call_kernel                0000000180008782     asm_helper.obj
 0001:00007799       activate_sse               0000000180008799     asm_helper.obj
 0001:000077b2       activate_avx               00000001800087b2     asm_helper.obj
 0001:000077c5       arch_cli                   00000001800087c5     asm_helper.obj
 0003:000000e0       ?FileSystemProtocol@@3UGUID@@A 000000018000c0e0     file_io.obj
 0003:000000f0       ?LoadFileProtocol@@3UGUID@@A 000000018000c0f0     file_io.obj
 0003:00000100       ?GenericFileInfo@@3UGUID@@A 000000018000c100     file_io.obj
 0003:00000120       ?efi_memory_types@@3PAPEBDA 000000018000c120     main.obj
 0003:00000198       ?stackaddr@@3PEAXEA        000000018000c198     main.obj
 0003:000001a0       ?idtaddr@@3PEAXEA          000000018000c1a0     main.obj
 0003:000001a8       ?bootinfo_addr@@3PEAXEA    000000018000c1a8     main.obj
 0003:000001c0       ?GenericFileInfo_new@@3UGUID@@A 000000018000c1c0     minifs.obj
 0003:000001d0       ?DevicePathProtocol@@3UGUID@@A 000000018000c1d0     path.obj
 0003:000001e0       ?EndInstanceDevicePath@@3PAUEFI_DEVICE_PATH_PROTOCOL@@A 000000018000c1e0     path.obj
 0003:000001e4       ?EndDevicePath@@3PAUEFI_DEVICE_PATH_PROTOCOL@@A 000000018000c1e4     path.obj
 0003:000001e8       ?_dll_base_@@3_KA          000000018000c1e8     pe.obj
 0003:00000230       ?pml4e@@3PA_KA             000000018000c230     arch_paging.obj
 0003:00001240       ?gImageHandle@@3PEAXEA     000000018000d240     efi.obj
 0003:00001248       ?gSystemTable@@3PEAUEFI_SYSTEM_TABLE@@EA 000000018000d248     efi.obj
 0003:00001250       ?gBS@@3PEAUEFI_BOOT_SERVICES@@EA 000000018000d250     efi.obj
 0003:00001258       ?Rs@@3PEAUEFI_RUNTIME_SERVICES@@EA 000000018000d258     efi.obj
 0003:00001288       ?file_size@@3_KA           000000018000d288     file_io.obj
 0003:00001290       ?pml4@@3PEA_KEA            000000018000d290     paging.obj
 0003:000012c8       ?usable_ram@@3_KA          000000018000d2c8     pmmngr.obj
 0003:000012d0       ?usable_size@@3_KA         000000018000d2d0     pmmngr.obj
 0003:000012d8       ?ram_size@@3_KA            000000018000d2d8     pmmngr.obj
 0003:000012f8       ?framebuffer_address@@3_KA 000000018000d2f8     video.obj
 0003:00001300       ?X_Resolution@@3_KA        000000018000d300     video.obj
 0003:00001308       ?Y_Resolution@@3_KA        000000018000d308     video.obj
 0003:00001310       ?efigop@@3PEAU_efi_graphics_output_protocol_@@EA 000000018000d310     video.obj

 entry point at        0000:00000000

 Static symbols

 0001:000004a0       ?make_canonical_i@@YAPEAX_K@Z 00000001800014a0 f   arch_paging.obj
 0001:000004f0       ?make_canonical@@YAPEAXPEAX@Z 00000001800014f0 f   arch_paging.obj
 0001:00000510       ?decanonical@@YA_KPEAX@Z   0000000180001510 f   arch_paging.obj
 0001:00000540       ?getPML4@@YAPEA_KPEAX@Z    0000000180001540 f   arch_paging.obj
 0001:00000590       ?getPML4index@@YA_KPEAX@Z  0000000180001590 f   arch_paging.obj
 0001:000005c0       ?getPD@@YAPEA_KPEAX@Z      00000001800015c0 f   arch_paging.obj
 0001:00000620       ?getPDPT@@YAPEA_KPEAX@Z    0000000180001620 f   arch_paging.obj
 0001:00000690       ?getPDindex@@YA_KPEAX@Z    0000000180001690 f   arch_paging.obj
 0001:000006c0       ?getPTAB@@YAPEA_KPEAX@Z    00000001800016c0 f   arch_paging.obj
 0001:00000720       ?getPTABindex@@YA_KPEAX@Z  0000000180001720 f   arch_paging.obj
 0001:00000750       ?getPDPTindex@@YA_KPEAX@Z  0000000180001750 f   arch_paging.obj
 0001:00000780       ?setPML4_recursive@@YAPEA_KPEA_K_K@Z 0000000180001780 f   arch_paging.obj
 0001:00000a70       ?clear_ptabs@@YAXPEAX@Z    0000000180001a70 f   arch_paging.obj
 0001:00000d80       ?check_free@@YA_NHPEAX0@Z  0000000180001d80 f   arch_paging.obj
 0001:00002180       ?uefi_puts@@YAXPEBG@Z      0000000180003180 f   efi.obj
 0001:000041b0       ?clear@@YAXPEAX@Z          00000001800051b0 f   paging.obj
 0001:00005450       ?copy_mem@@YAXPEAX0_K@Z    0000000180006450 f   pe.obj
 0001:000054d0       ?zero_mem@@YAXPEAX_K@Z     00000001800064d0 f   pe.obj
 0001:00006980       ?strlen_simple@@YA_KPEBD@Z 0000000180007980 f   xn_console.obj
 0001:000074c0       ?high_set_bit@@YAD_K@Z     00000001800084c0 f   xn_gui.obj
 0001:00007500       ?low_set_bit@@YAD_K@Z      0000000180008500 f   xn_gui.obj
 0001:000076db       x64_locked_cas.true        00000001800086db     asm_helper.obj
 0001:0000773a       get_segment_register.jmp_tab 000000018000873a     asm_helper.obj
 0001:0000774a       get_segment_register.cs    000000018000874a     asm_helper.obj
 0001:0000774e       get_segment_register.ds    000000018000874e     asm_helper.obj
 0001:00007752       get_segment_register.es    0000000180008752     asm_helper.obj
 0001:00007756       get_segment_register.fs    0000000180008756     asm_helper.obj
 0001:0000775a       get_segment_register.gs    000000018000875a     asm_helper.obj
 0001:0000775e       get_segment_register.ss    000000018000875e     asm_helper.obj
 0001:00007762       get_segment_register.invalid 0000000180008762     asm_helper.obj
 0002:00000000       $SG13669                   0000000180009000     arch_paging.obj
 0002:00000018       $SG13493                   0000000180009018     console.obj
 0002:00000020       $SG13499                   0000000180009020     console.obj
 0002:00000038       $SG13546                   0000000180009038     console.obj
 0002:0000004c       $SG13558                   000000018000904c     console.obj
 0002:00000050       $SG13556                   0000000180009050     console.obj
 0002:00000064       $SG13559                   0000000180009064     console.obj
 0002:00000070       $SG13562                   0000000180009070     efi.obj
 0002:00000088       $SG13565                   0000000180009088     efi.obj
 0002:00000090       $SG13567                   0000000180009090     efi.obj
 0002:0000009c       $SG13638                   000000018000909c     efi.obj
 0002:000000a0       $SG13569                   00000001800090a0     efi.obj
 0002:000000b4       $SG13645                   00000001800090b4     efi.obj
 0002:000000b8       $SG13571                   00000001800090b8     efi.obj
 0002:000000c4       $SG13648                   00000001800090c4     efi.obj
 0002:000000c8       $SG13573                   00000001800090c8     efi.obj
 0002:000000d8       $SG13575                   00000001800090d8     efi.obj
 0002:000000f0       $SG13577                   00000001800090f0     efi.obj
 0002:00000100       $SG13579                   0000000180009100     efi.obj
 0002:00000110       $SG13581                   0000000180009110     efi.obj
 0002:00000120       $SG13583                   0000000180009120     efi.obj
 0002:00000138       $SG13585                   0000000180009138     efi.obj
 0002:00000150       $SG13587                   0000000180009150     efi.obj
 0002:00000160       $SG13589                   0000000180009160     efi.obj
 0002:00000170       $SG13591                   0000000180009170     efi.obj
 0002:00000180       $SG13593                   0000000180009180     efi.obj
 0002:00000190       $SG13595                   0000000180009190     efi.obj
 0002:000001a0       $SG13598                   00000001800091a0     efi.obj
 0002:000001b0       $SG13622                   00000001800091b0     efi.obj
 0002:00000200       $SG13968                   0000000180009200     file_io.obj
 0002:00000210       $SG13971                   0000000180009210     file_io.obj
 0002:00000228       $SG13975                   0000000180009228     file_io.obj
 0002:00000258       $SG13978                   0000000180009258     file_io.obj
 0002:00000278       $SG13986                   0000000180009278     file_io.obj
 0002:000002a0       $SG13987                   00000001800092a0     file_io.obj
 0002:000002c8       $SG13988                   00000001800092c8     file_io.obj
 0002:000002f0       $SG13989                   00000001800092f0     file_io.obj
 0002:00000318       $SG13990                   0000000180009318     file_io.obj
 0002:00000340       $SG13996                   0000000180009340     file_io.obj
 0002:00000378       $SG14012                   0000000180009378     file_io.obj
 0002:00000388       $SG14015                   0000000180009388     file_io.obj
 0002:000003a0       $SG14021                   00000001800093a0     file_io.obj
 0002:000003c0       $SG14026                   00000001800093c0     file_io.obj
 0002:000003e8       $SG14027                   00000001800093e8     file_io.obj
 0002:00000410       $SG14028                   0000000180009410     file_io.obj
 0002:00000430       $SG14029                   0000000180009430     file_io.obj
 0002:00000458       $SG14030                   0000000180009458     file_io.obj
 0002:00000480       $SG14038                   0000000180009480     file_io.obj
 0002:000004b8       $SG14050                   00000001800094b8     main.obj
 0002:000004d0       $SG14051                   00000001800094d0     main.obj
 0002:000004e0       $SG14052                   00000001800094e0     main.obj
 0002:000004f0       $SG14053                   00000001800094f0     main.obj
 0002:00000504       $SG14126                   0000000180009504     main.obj
 0002:00000508       $SG14054                   0000000180009508     main.obj
 0002:0000051c       $SG14133                   000000018000951c     main.obj
 0002:00000520       $SG14055                   0000000180009520     main.obj
 0002:00000538       $SG14056                   0000000180009538     main.obj
 0002:00000550       $SG14057                   0000000180009550     main.obj
 0002:00000568       $SG14058                   0000000180009568     main.obj
 0002:0000057c       $SG14135                   000000018000957c     main.obj
 0002:00000580       $SG14059                   0000000180009580     main.obj
 0002:00000598       $SG14060                   0000000180009598     main.obj
 0002:000005ac       $SG14205                   00000001800095ac     main.obj
 0002:000005b0       $SG14061                   00000001800095b0     main.obj
 0002:000005c8       $SG14062                   00000001800095c8     main.obj
 0002:000005e8       $SG14063                   00000001800095e8     main.obj
 0002:000005f8       $SG14094                   00000001800095f8     main.obj
 0002:00000618       $SG14103                   0000000180009618     main.obj
 0002:00000628       $SG14105                   0000000180009628     main.obj
 0002:00000660       $SG14106                   0000000180009660     main.obj
 0002:00000670       $SG14111                   0000000180009670     main.obj
 0002:00000698       $SG14202                   0000000180009698     main.obj
 0002:000006d8       $SG14204                   00000001800096d8     main.obj
 0002:000006e8       $SG14206                   00000001800096e8     main.obj
 0002:00000700       $SG14213                   0000000180009700     main.obj
 0002:00000730       $SG14216                   0000000180009730     main.obj
 0002:00000748       $SG14218                   0000000180009748     main.obj
 0002:00000768       $SG14221                   0000000180009768     main.obj
 0002:00000788       $SG14224                   0000000180009788     main.obj
 0002:000007a8       $SG14226                   00000001800097a8     main.obj
 0002:000007c8       $SG14228                   00000001800097c8     main.obj
 0002:000007f8       $SG14230                   00000001800097f8     main.obj
 0002:00000820       $SG14232                   0000000180009820     main.obj
 0002:00000838       $SG14234                   0000000180009838     main.obj
 0002:00000850       $SG14236                   0000000180009850     main.obj
 0002:00000870       $SG14241                   0000000180009870     main.obj
 0002:00000890       $SG14249                   0000000180009890     main.obj
 0002:000008c0       $SG14251                   00000001800098c0     main.obj
 0002:000008e0       $SG14256                   00000001800098e0     main.obj
 0002:00000908       $SG14257                   0000000180009908     main.obj
 0002:00000928       $SG14261                   0000000180009928     main.obj
 0002:00000958       $SG14264                   0000000180009958     main.obj
 0002:00000978       $SG14265                   0000000180009978     main.obj
 0002:00000990       $SG14268                   0000000180009990     main.obj
 0002:000009b0       $SG14295                   00000001800099b0     main.obj
 0002:000009d0       $SG14303                   00000001800099d0     main.obj
 0002:000009f0       $SG13415                   00000001800099f0     memory.obj
 0002:00000a50       $SG13418                   0000000180009a50     memory.obj
 0002:00000b50       $SG13619                   0000000180009b50     minifs.obj
 0002:00000b68       $SG13623                   0000000180009b68     minifs.obj
 0002:00000b98       $SG13626                   0000000180009b98     minifs.obj
 0002:00000bb0       $SG13633                   0000000180009bb0     minifs.obj
 0002:00000bf8       $SG13641                   0000000180009bf8     minifs.obj
 0002:00000c28       $SG13642                   0000000180009c28     minifs.obj
 0002:00000c40       $SG13569                   0000000180009c40     paging.obj
 0002:00000c60       $SG14248                   0000000180009c60     pe.obj
 0002:00000c98       $SG14291                   0000000180009c98     pe.obj
 0002:00000cd0       $SG14255                   0000000180009cd0     pe.obj
 0002:00000d20       $SG14304                   0000000180009d20     pe.obj
 0002:00000d40       $SG14321                   0000000180009d40     pe.obj
 0002:00000d58       $SG14324                   0000000180009d58     pe.obj
 0002:00000d90       $SG13544                   0000000180009d90     pmmngr.obj
 0002:00000da0       $SG13493                   0000000180009da0     video.obj
 0002:00000db8       $SG13510                   0000000180009db8     video.obj
 0002:00000dc8       $SG13516                   0000000180009dc8     video.obj
 0002:00000df0       $SG13470                   0000000180009df0     xn_console.obj
 0002:00000e04       $SG13519                   0000000180009e04     xn_console.obj
 0002:00000e08       $SG13564                   0000000180009e08     xn_console.obj
 0002:00000e10       bx_vgafont                 0000000180009e10     xn_gui.obj
 0002:00001e10       $unwind$?arch_initialize_paging@@YAXXZ 000000018000ae10     arch_paging.obj
 0002:00001e18       $unwind$?paging_map@@YA_NPEAX_K11@Z 000000018000ae18     arch_paging.obj
 0002:00001e20       $unwind$?check_free@@YA_NPEAX_K@Z 000000018000ae20     arch_paging.obj
 0002:00001e28       $unwind$?set_paging_attributes@@YAXPEAX_K11@Z 000000018000ae28     arch_paging.obj
 0002:00001e30       $unwind$?make_canonical@@YAPEAXPEAX@Z 000000018000ae30     arch_paging.obj
 0002:00001e38       $unwind$?getPML4@@YAPEA_KPEAX@Z 000000018000ae38     arch_paging.obj
 0002:00001e40       $unwind$?getPML4index@@YA_KPEAX@Z 000000018000ae40     arch_paging.obj
 0002:00001e48       $unwind$?getPD@@YAPEA_KPEAX@Z 000000018000ae48     arch_paging.obj
 0002:00001e50       $unwind$?getPDPT@@YAPEA_KPEAX@Z 000000018000ae50     arch_paging.obj
 0002:00001e58       $unwind$?getPDindex@@YA_KPEAX@Z 000000018000ae58     arch_paging.obj
 0002:00001e60       $unwind$?getPTAB@@YAPEA_KPEAX@Z 000000018000ae60     arch_paging.obj
 0002:00001e68       $unwind$?getPTABindex@@YA_KPEAX@Z 000000018000ae68     arch_paging.obj
 0002:00001e70       $unwind$?getPDPTindex@@YA_KPEAX@Z 000000018000ae70     arch_paging.obj
 0002:00001e78       $unwind$?setPML4_recursive@@YAPEA_KPEA_K_K@Z 000000018000ae78     arch_paging.obj
 0002:00001e80       $unwind$?identity_map_4kb@@YAX_K@Z 000000018000ae80     arch_paging.obj
 0002:00001e88       $unwind$?clear_ptabs@@YAXPEAX@Z 000000018000ae88     arch_paging.obj
 0002:00001e90       $unwind$?paging_map@@YA_NPEAX_K1@Z 000000018000ae90     arch_paging.obj
 0002:00001e98       $unwind$?check_free@@YA_NHPEAX0@Z 000000018000ae98     arch_paging.obj
 0002:00001ea0       $unwind$?cls@@YAXXZ        000000018000aea0     console.obj
 0002:00001ea8       $unwind$?Cursor@@YA_KE@Z   000000018000aea8     console.obj
 0002:00001eb0       $unwind$?SetCurrentCursorPos@@YA_KHH@Z 000000018000aeb0     console.obj
 0002:00001eb8       $unwind$?SetTextAttribute@@YA_KHH@Z 000000018000aeb8     console.obj
 0002:00001ec0       $unwind$?PutChar@@YAXH@Z   000000018000aec0     console.obj
 0002:00001ec8       $unwind$?printf@@YAHPEA_WZZ 000000018000aec8     console.obj
 0002:00001ed0       $unwind$?InitializeLib@@YA_KPEAXPEAUEFI_SYSTEM_TABLE@@@Z 000000018000aed0     efi.obj
 0002:00001ed8       $unwind$?Stall@@YAX_K@Z    000000018000aed8     efi.obj
 0002:00001ee0       $unwind$?getError@@YAPEAG_K@Z 000000018000aee0     efi.obj
 0002:00001ee8       $unwind$?GetIntegerInput@@YA_KPEAG@Z 000000018000aee8     efi.obj
 0002:00001ef0       $unwind$?uefi_puts@@YAXPEBG@Z 000000018000aef0     efi.obj
 0002:00001ef8       $unwind$?GetBootFileSystem@@YA_KPEAXPEAPEAU_EFI_SIMPLE_FILE_SYSTEM_PROTOCOL@@@Z 000000018000aef8     file_io.obj
 0002:00001f00       $unwind$?CloseFile@@YA_KPEAU_EFI_FILE_PROTOCOL@@@Z 000000018000af00     file_io.obj
 0002:00001f08       $unwind$?GetFileSize@@YA_KPEAU_EFI_FILE_PROTOCOL@@@Z 000000018000af08     file_io.obj
 0002:00001f14       $unwind$?ReadFile@@YA_KPEAX_K1PEAU_EFI_FILE_PROTOCOL@@@Z 000000018000af14     file_io.obj
 0002:00001f1c       $unwind$?WriteFile@@YA_KPEAX_K1PEAU_EFI_FILE_PROTOCOL@@@Z 000000018000af1c     file_io.obj
 0002:00001f24       $unwind$?GetRootDirectory@@YAPEAEXZ 000000018000af24     file_io.obj
 0002:00001f2c       $unwind$?LoadFile@@YAPEAEPEA_W@Z 000000018000af2c     file_io.obj
 0002:00001f34       $unwind$?PrepareExitBootService@@YA_KXZ 000000018000af34     main.obj
 0002:00001f3c       $unwind$?guids_match@@YA_NUGUID@@0@Z 000000018000af3c     main.obj
 0002:00001f44       $unwind$?find_acpi_table@@YAPEAXPEAUEFI_SYSTEM_TABLE@@@Z 000000018000af44     main.obj
 0002:00001f50       $unwind$?get_integer_input@@YA_KPEBD@Z 000000018000af50     main.obj
 0002:00001f58       $unwind$?strcmp_config@@YAHPEBD0@Z 000000018000af58     main.obj
 0002:00001f60       $unwind$?strcpy@@YAPEADPEADPEBD@Z 000000018000af60     main.obj
 0002:00001f68       $unwind$?mbsrtowcs@@YA_KPEA_WPEBD_K@Z 000000018000af68     main.obj
 0002:00001f70       $unwind$?strlen@@YA_KPEBD@Z 000000018000af70     main.obj
 0002:00001f78       $unwind$?efi_main@@YA_KPEAXPEAUEFI_SYSTEM_TABLE@@@Z 000000018000af78     main.obj
 0002:00001f84       $unwind$?AllocatePool@@YAPEAX_K@Z 000000018000af84     memory.obj
 0002:00001f8c       $unwind$?AllocatePhysical@@YAPEAXKK@Z 000000018000af8c     memory.obj
 0002:00001f94       $unwind$?AllocateZeroPool@@YAPEAXK@Z 000000018000af94     memory.obj
 0002:00001f9c       $unwind$?FreePool@@YAXPEAX@Z 000000018000af9c     memory.obj
 0002:00001fa4       $unwind$load_minifs        000000018000afa4     minifs.obj
 0002:00001fac       $unwind$initialize_vm      000000018000afac     paging.obj
 0002:00001fb4       $unwind$map_page           000000018000afb4     paging.obj
 0002:00001fbc       $unwind$map_page_count     000000018000afbc     paging.obj
 0002:00001fc4       $unwind$_print_cr3         000000018000afc4     paging.obj
 0002:00001fcc       $unwind$?clear@@YAXPEAX@Z  000000018000afcc     paging.obj
 0002:00001fd4       $unwind$?CreatePT164@@YAXPEAUPT@@@Z 000000018000afd4     paging.obj
 0002:00001fdc       $unwind$?CreatePhysicalToVirtual@@YAXPEAUPML4@@H@Z 000000018000afdc     paging.obj
 0002:00001fe4       $unwind$?get_physical_address@@YAPEA_K_K@Z 000000018000afe4     paging.obj
 0002:00001fec       $unwind$?LibDevicePathToInterface@@YA_KPEAUGUID@@PEAUEFI_DEVICE_PATH_PROTOCOL@@PEAPEAX@Z 000000018000afec     path.obj
 0002:00001ff4       $unwind$?DuplicateDevicePath@@YAPEAUEFI_DEVICE_PATH_PROTOCOL@@PEAU1@@Z 000000018000aff4     path.obj
 0002:00001ffc       $unwind$?FileDevicePath@@YAPEAUEFI_DEVICE_PATH_PROTOCOL@@PEAXPEBD@Z 000000018000affc     path.obj
 0002:00002004       $unwind$?IsDevicePathEndType@@YAEPEBX@Z 000000018000b004     path.obj
 0002:0000200c       $unwind$?IsDevicePathEnd@@YAEPEBX@Z 000000018000b00c     path.obj
 0002:00002014       $unwind$?DevicePathFromHandle@@YAPEAUEFI_DEVICE_PATH_PROTOCOL@@PEAX@Z 000000018000b014     path.obj
 0002:0000201c       $unwind$?DevicePathInstanceCount@@YAKPEAUEFI_DEVICE_PATH_PROTOCOL@@@Z 000000018000b01c     path.obj
 0002:00002024       $unwind$?AppendDevicePath@@YAPEAUEFI_DEVICE_PATH_PROTOCOL@@PEAU1@0@Z 000000018000b024     path.obj
 0002:0000202c       $unwind$?Load_PEImage@@YAPEAXPEAX@Z 000000018000b02c     pe.obj
 0002:00002034       $unwind$?GetDLLName@@YAPEBDPEAX@Z 000000018000b034     pe.obj
 0002:0000203c       $unwind$?link_image_import@@YAXPEAX0@Z 000000018000b03c     pe.obj
 0002:00002044       $unwind$?LoadDLLImage@@YA_KPEAX@Z 000000018000b044     pe.obj
 0002:0000204c       $unwind$?GetStackSize@@YA_KPEAX@Z 000000018000b04c     pe.obj
 0002:00002054       $unwind$?GetEntryPoint@@YAP6AXPEAU_KERNEL_BOOT_INFO_@@@ZPEAX@Z 000000018000b054     pe.obj
 0002:0000205c       $unwind$?GetProcAddress@@YAPEAXPEAXPEBD@Z 000000018000b05c     pe.obj
 0002:00002064       $unwind$?strcmp@@YAHPEBD0@Z 000000018000b064     pe.obj
 0002:0000206c       $unwind$?copy_mem@@YAXPEAX0_K@Z 000000018000b06c     pe.obj
 0002:00002074       $unwind$?zero_mem@@YAXPEAX_K@Z 000000018000b074     pe.obj
 0002:0000207c       $unwind$?InitializePmmngr@@YAXUEfiMemoryMap@@PEAX_K@Z 000000018000b07c     pmmngr.obj
 0002:00002084       $unwind$?PmmngrAllocate@@YA_KXZ 000000018000b084     pmmngr.obj
 0002:0000208c       $unwind$?PmmngrList@@YAXXZ 000000018000b08c     pmmngr.obj
 0002:00002094       $unwind$memset             000000018000b094     string.obj
 0002:0000209c       $unwind$?memcpy@@YAXPEAX0K@Z 000000018000b09c     string.obj
 0002:000020a4       $unwind$?wstrlen@@YAHPEA_W@Z 000000018000b0a4     string.obj
 0002:000020ac       $unwind$?wstrsize@@YAKPEA_W@Z 000000018000b0ac     string.obj
 0002:000020b4       $unwind$?_memset@@YAXPEAXEK@Z 000000018000b0b4     string.obj
 0002:000020bc       $unwind$?_memcpy@@YAXPEAX0K@Z 000000018000b0bc     string.obj
 0002:000020c4       $unwind$?is_digit@@YAHH@Z  000000018000b0c4     type.obj
 0002:000020cc       $unwind$?IterateGraphicsMode@@YAIP6A_NIPEAU_efi_graphics_output_mode_information@@@Z@Z 000000018000b0cc     video.obj
 0002:000020d4       $unwind$?GetGraphicsModeInfo@@YA_KIPEAPEAU_efi_graphics_output_mode_information@@PEA_K@Z 000000018000b0d4     video.obj
 0002:000020dc       $unwind$?SetGraphicsMode@@YA_K_K@Z 000000018000b0dc     video.obj
 0002:000020e8       $unwind$?ClearScreen@@YAXXZ 000000018000b0e8     video.obj
 0002:000020f0       $unwind$?QueryGOP@@YA_KGG@Z 000000018000b0f0     video.obj
 0002:000020f8       $unwind$?puts@@YAXPEBD@Z   000000018000b0f8     xn_console.obj
 0002:00002100       $unwind$?printf_gui@@YAXPEBDZZ 000000018000b100     xn_console.obj
 0002:00002108       $unwind$?strlen_simple@@YA_KPEBD@Z 000000018000b108     xn_console.obj
 0002:00002110       $unwind$?sztoa@@YAPEAD_KPEADH@Z 000000018000b110     xn_console.obj
 0002:00002118       $unwind$?InitializeGraphics@@YAXU_FRAMEBUFFER_INFORMATION@@@Z 000000018000b118     xn_gui.obj
 0002:00002120       $unwind$?putpixel@@YAX_K0K@Z 000000018000b120     xn_gui.obj
 0002:00002128       $unwind$?gputs_k@@YAXPEBD@Z 000000018000b128     xn_gui.obj
 0002:00002134       $unwind$?DrawRect@@YAXHHHHK@Z 000000018000b134     xn_gui.obj
 0002:0000213c       $unwind$?putpixel_ii@@YAX_K0K@Z 000000018000b13c     xn_gui.obj
 0002:00002144       $unwind$?gputc@@YAXD@Z     000000018000b144     xn_gui.obj
 0002:0000214c       $unwind$?high_set_bit@@YAD_K@Z 000000018000b14c     xn_gui.obj
 0002:00002154       $unwind$?low_set_bit@@YAD_K@Z 000000018000b154     xn_gui.obj
 0002:0000215c       $unwind$?scroll@@YAXXZ     000000018000b15c     xn_gui.obj
 0003:00000000       get_tab_dispatch           000000018000c000     arch_paging.obj
 0003:00000028       get_index_dispatch         000000018000c028     arch_paging.obj
 0003:00000050       unknownError               000000018000c050     efi.obj
 0003:00000058       efiWarnings                000000018000c058     efi.obj
 0003:00000060       efiErrors                  000000018000c060     efi.obj
 0003:00000110       graphics_width             000000018000c110     main.obj
 0003:00000118       graphics_height            000000018000c118     main.obj
 0003:000001b0       ?acpi_guid@?CL@??efi_main@@YA_KPEAXPEAUEFI_SYSTEM_TABLE@@@Z@4UGUID@@A 000000018000c1b0     main.obj
 0003:000001f0       allocated_count            000000018000c1f0     pmmngr.obj
 0003:000001f8       chars                      000000018000c1f8     xn_console.obj
 0003:00000200       LINES                      000000018000c200     xn_gui.obj
 0003:00000210       pdptr                      000000018000c210     arch_paging.obj
 0003:00000218       pml4ptr                    000000018000c218     arch_paging.obj
 0003:00000220       recursive_slot             000000018000c220     arch_paging.obj
 0003:00001230       paging_info                000000018000d230     arch_paging.obj
 0003:00001260       Kernel                     000000018000d260     efi.obj
 0003:00001268       errno                      000000018000d268     efi.obj
 0003:00001270       Xeneva                     000000018000d270     file_io.obj
 0003:00001278       pwd                        000000018000d278     file_io.obj
 0003:00001280       kernel_size                000000018000d280     file_io.obj
 0003:00001298       loaded_images              000000018000d298     pe.obj
 0003:000012a0       modloader_info             000000018000d2a0     pe.obj
 0003:000012a8       pagestack                  000000018000d2a8     pmmngr.obj
 0003:000012b0       stackptr                   000000018000d2b0     pmmngr.obj
 0003:000012b8       allocated_stack            000000018000d2b8     pmmngr.obj
 0003:000012c0       allocated_ptr              000000018000d2c0     pmmngr.obj
 0003:000012e0       pmmngr_boot_info           000000018000d2e0     pmmngr.obj
 0003:00001318       information                000000018000d318     video.obj
 0003:00001348       put_s                      000000018000d348     xn_console.obj
 0003:00001350       framebuffer                000000018000d350     xn_gui.obj
 0003:00001358       framebuffer_sz             000000018000d358     xn_gui.obj
 0003:00001360       pixelsPerLine              000000018000d360     xn_gui.obj
 0003:00001368       xpos                       000000018000d368     xn_gui.obj
 0003:00001370       ypos                       000000018000d370     xn_gui.obj
 0003:00001378       redm                       000000018000d378     xn_gui.obj
 0003:0000137c       greenm                     000000018000d37c     xn_gui.obj
 0003:00001380       bluem                      000000018000d380     xn_gui.obj
 0003:00001384       resvm                      000000018000d384     xn_gui.obj
 0003:00001388       bpp                        000000018000d388     xn_gui.obj
 0003:00001390       h_res                      000000018000d390     xn_gui.obj
 0003:00001398       v_res                      000000018000d398     xn_gui.obj
 0003:000013a0       background                 000000018000d3a0     xn_gui.obj
 0003:000013a4       foreground                 000000018000d3a4     xn_gui.obj
 0004:00000000       $pdata$?arch_initialize_paging@@YAXXZ 000000018000e000     arch_paging.obj
 0004:0000000c       $pdata$?paging_map@@YA_NPEAX_K11@Z 000000018000e00c     arch_paging.obj
 0004:00000018       $pdata$?check_free@@YA_NPEAX_K@Z 000000018000e018     arch_paging.obj
 0004:00000024       $pdata$?set_paging_attributes@@YAXPEAX_K11@Z 000000018000e024     arch_paging.obj
 0004:00000030       $pdata$?make_canonical@@YAPEAXPEAX@Z 000000018000e030     arch_paging.obj
 0004:0000003c       $pdata$?getPML4@@YAPEA_KPEAX@Z 000000018000e03c     arch_paging.obj
 0004:00000048       $pdata$?getPML4index@@YA_KPEAX@Z 000000018000e048     arch_paging.obj
 0004:00000054       $pdata$?getPD@@YAPEA_KPEAX@Z 000000018000e054     arch_paging.obj
 0004:00000060       $pdata$?getPDPT@@YAPEA_KPEAX@Z 000000018000e060     arch_paging.obj
 0004:0000006c       $pdata$?getPDindex@@YA_KPEAX@Z 000000018000e06c     arch_paging.obj
 0004:00000078       $pdata$?getPTAB@@YAPEA_KPEAX@Z 000000018000e078     arch_paging.obj
 0004:00000084       $pdata$?getPTABindex@@YA_KPEAX@Z 000000018000e084     arch_paging.obj
 0004:00000090       $pdata$?getPDPTindex@@YA_KPEAX@Z 000000018000e090     arch_paging.obj
 0004:0000009c       $pdata$?setPML4_recursive@@YAPEA_KPEA_K_K@Z 000000018000e09c     arch_paging.obj
 0004:000000a8       $pdata$?identity_map_4kb@@YAX_K@Z 000000018000e0a8     arch_paging.obj
 0004:000000b4       $pdata$?clear_ptabs@@YAXPEAX@Z 000000018000e0b4     arch_paging.obj
 0004:000000c0       $pdata$?paging_map@@YA_NPEAX_K1@Z 000000018000e0c0     arch_paging.obj
 0004:000000cc       $pdata$?check_free@@YA_NHPEAX0@Z 000000018000e0cc     arch_paging.obj
 0004:000000d8       $pdata$?cls@@YAXXZ         000000018000e0d8     console.obj
 0004:000000e4       $pdata$?Cursor@@YA_KE@Z    000000018000e0e4     console.obj
 0004:000000f0       $pdata$?SetCurrentCursorPos@@YA_KHH@Z 000000018000e0f0     console.obj
 0004:000000fc       $pdata$?SetTextAttribute@@YA_KHH@Z 000000018000e0fc     console.obj
 0004:00000108       $pdata$?PutChar@@YAXH@Z    000000018000e108     console.obj
 0004:00000114       $pdata$?printf@@YAHPEA_WZZ 000000018000e114     console.obj
 0004:00000120       $pdata$?InitializeLib@@YA_KPEAXPEAUEFI_SYSTEM_TABLE@@@Z 000000018000e120     efi.obj
 0004:0000012c       $pdata$?Stall@@YAX_K@Z     000000018000e12c     efi.obj
 0004:00000138       $pdata$?getError@@YAPEAG_K@Z 000000018000e138     efi.obj
 0004:00000144       $pdata$?GetIntegerInput@@YA_KPEAG@Z 000000018000e144     efi.obj
 0004:00000150       $pdata$?uefi_puts@@YAXPEBG@Z 000000018000e150     efi.obj
 0004:0000015c       $pdata$?GetBootFileSystem@@YA_KPEAXPEAPEAU_EFI_SIMPLE_FILE_SYSTEM_PROTOCOL@@@Z 000000018000e15c     file_io.obj
 0004:00000168       $pdata$?CloseFile@@YA_KPEAU_EFI_FILE_PROTOCOL@@@Z 000000018000e168     file_io.obj
 0004:00000174       $pdata$?GetFileSize@@YA_KPEAU_EFI_FILE_PROTOCOL@@@Z 000000018000e174     file_io.obj
 0004:00000180       $pdata$?ReadFile@@YA_KPEAX_K1PEAU_EFI_FILE_PROTOCOL@@@Z 000000018000e180     file_io.obj
 0004:0000018c       $pdata$?WriteFile@@YA_KPEAX_K1PEAU_EFI_FILE_PROTOCOL@@@Z 000000018000e18c     file_io.obj
 0004:00000198       $pdata$?GetRootDirectory@@YAPEAEXZ 000000018000e198     file_io.obj
 0004:000001a4       $pdata$?LoadFile@@YAPEAEPEA_W@Z 000000018000e1a4     file_io.obj
 0004:000001b0       $pdata$?PrepareExitBootService@@YA_KXZ 000000018000e1b0     main.obj
 0004:000001bc       $pdata$?guids_match@@YA_NUGUID@@0@Z 000000018000e1bc     main.obj
 0004:000001c8       $pdata$?find_acpi_table@@YAPEAXPEAUEFI_SYSTEM_TABLE@@@Z 000000018000e1c8     main.obj
 0004:000001d4       $pdata$?get_integer_input@@YA_KPEBD@Z 000000018000e1d4     main.obj
 0004:000001e0       $pdata$?strcmp_config@@YAHPEBD0@Z 000000018000e1e0     main.obj
 0004:000001ec       $pdata$?strcpy@@YAPEADPEADPEBD@Z 000000018000e1ec     main.obj
 0004:000001f8       $pdata$?mbsrtowcs@@YA_KPEA_WPEBD_K@Z 000000018000e1f8     main.obj
 0004:00000204       $pdata$?strlen@@YA_KPEBD@Z 000000018000e204     main.obj
 0004:00000210       $pdata$?efi_main@@YA_KPEAXPEAUEFI_SYSTEM_TABLE@@@Z 000000018000e210     main.obj
 0004:0000021c       $pdata$?AllocatePool@@YAPEAX_K@Z 000000018000e21c     memory.obj
 0004:00000228       $pdata$?AllocatePhysical@@YAPEAXKK@Z 000000018000e228     memory.obj
 0004:00000234       $pdata$?AllocateZeroPool@@YAPEAXK@Z 000000018000e234     memory.obj
 0004:00000240       $pdata$?FreePool@@YAXPEAX@Z 000000018000e240     memory.obj
 0004:0000024c       $pdata$load_minifs         000000018000e24c     minifs.obj
 0004:00000258       $pdata$initialize_vm       000000018000e258     paging.obj
 0004:00000264       $pdata$map_page            000000018000e264     paging.obj
 0004:00000270       $pdata$map_page_count      000000018000e270     paging.obj
 0004:0000027c       $pdata$_print_cr3          000000018000e27c     paging.obj
 0004:00000288       $pdata$?clear@@YAXPEAX@Z   000000018000e288     paging.obj
 0004:00000294       $pdata$?CreatePT164@@YAXPEAUPT@@@Z 000000018000e294     paging.obj
 0004:000002a0       $pdata$?CreatePhysicalToVirtual@@YAXPEAUPML4@@H@Z 000000018000e2a0     paging.obj
 0004:000002ac       $pdata$?get_physical_address@@YAPEA_K_K@Z 000000018000e2ac     paging.obj
 0004:000002b8       $pdata$?LibDevicePathToInterface@@YA_KPEAUGUID@@PEAUEFI_DEVICE_PATH_PROTOCOL@@PEAPEAX@Z 000000018000e2b8     path.obj
 0004:000002c4       $pdata$?DuplicateDevicePath@@YAPEAUEFI_DEVICE_PATH_PROTOCOL@@PEAU1@@Z 000000018000e2c4     path.obj
 0004:000002d0       $pdata$?FileDevicePath@@YAPEAUEFI_DEVICE_PATH_PROTOCOL@@PEAXPEBD@Z 000000018000e2d0     path.obj
 0004:000002dc       $pdata$?IsDevicePathEndType@@YAEPEBX@Z 000000018000e2dc     path.obj
 0004:000002e8       $pdata$?IsDevicePathEnd@@YAEPEBX@Z 000000018000e2e8     path.obj
 0004:000002f4       $pdata$?DevicePathFromHandle@@YAPEAUEFI_DEVICE_PATH_PROTOCOL@@PEAX@Z 000000018000e2f4     path.obj
 0004:00000300       $pdata$?DevicePathInstanceCount@@YAKPEAUEFI_DEVICE_PATH_PROTOCOL@@@Z 000000018000e300     path.obj
 0004:0000030c       $pdata$?AppendDevicePath@@YAPEAUEFI_DEVICE_PATH_PROTOCOL@@PEAU1@0@Z 000000018000e30c     path.obj
 0004:00000318       $pdata$?Load_PEImage@@YAPEAXPEAX@Z 000000018000e318     pe.obj
 0004:00000324       $pdata$?GetDLLName@@YAPEBDPEAX@Z 000000018000e324     pe.obj
 0004:00000330       $pdata$?link_image_import@@YAXPEAX0@Z 000000018000e330     pe.obj
 0004:0000033c       $pdata$?LoadDLLImage@@YA_KPEAX@Z 000000018000e33c     pe.obj
 0004:00000348       $pdata$?GetStackSize@@YA_KPEAX@Z 000000018000e348     pe.obj
 0004:00000354       $pdata$?GetEntryPoint@@YAP6AXPEAU_KERNEL_BOOT_INFO_@@@ZPEAX@Z 000000018000e354     pe.obj
 0004:00000360       $pdata$?GetProcAddress@@YAPEAXPEAXPEBD@Z 000000018000e360     pe.obj
 0004:0000036c       $pdata$?strcmp@@YAHPEBD0@Z 000000018000e36c     pe.obj
 0004:00000378       $pdata$?copy_mem@@YAXPEAX0_K@Z 000000018000e378     pe.obj
 0004:00000384       $pdata$?zero_mem@@YAXPEAX_K@Z 000000018000e384     pe.obj
 0004:00000390       $pdata$?InitializePmmngr@@YAXUEfiMemoryMap@@PEAX_K@Z 000000018000e390     pmmngr.obj
 0004:0000039c       $pdata$?PmmngrAllocate@@YA_KXZ 000000018000e39c     pmmngr.obj
 0004:000003a8       $pdata$?PmmngrList@@YAXXZ  000000018000e3a8     pmmngr.obj
 0004:000003b4       $pdata$memset              000000018000e3b4     string.obj
 0004:000003c0       $pdata$?memcpy@@YAXPEAX0K@Z 000000018000e3c0     string.obj
 0004:000003cc       $pdata$?wstrlen@@YAHPEA_W@Z 000000018000e3cc     string.obj
 0004:000003d8       $pdata$?wstrsize@@YAKPEA_W@Z 000000018000e3d8     string.obj
 0004:000003e4       $pdata$?_memset@@YAXPEAXEK@Z 000000018000e3e4     string.obj
 0004:000003f0       $pdata$?_memcpy@@YAXPEAX0K@Z 000000018000e3f0     string.obj
 0004:000003fc       $pdata$?is_digit@@YAHH@Z   000000018000e3fc     type.obj
 0004:00000408       $pdata$?IterateGraphicsMode@@YAIP6A_NIPEAU_efi_graphics_output_mode_information@@@Z@Z 000000018000e408     video.obj
 0004:00000414       $pdata$?GetGraphicsModeInfo@@YA_KIPEAPEAU_efi_graphics_output_mode_information@@PEA_K@Z 000000018000e414     video.obj
 0004:00000420       $pdata$?SetGraphicsMode@@YA_K_K@Z 000000018000e420     video.obj
 0004:0000042c       $pdata$?ClearScreen@@YAXXZ 000000018000e42c     video.obj
 0004:00000438       $pdata$?QueryGOP@@YA_KGG@Z 000000018000e438     video.obj
 0004:00000444       $pdata$?puts@@YAXPEBD@Z    000000018000e444     xn_console.obj
 0004:00000450       $pdata$?printf_gui@@YAXPEBDZZ 000000018000e450     xn_console.obj
 0004:0000045c       $pdata$?strlen_simple@@YA_KPEBD@Z 000000018000e45c     xn_console.obj
 0004:00000468       $pdata$?sztoa@@YAPEAD_KPEADH@Z 000000018000e468     xn_console.obj
 0004:00000474       $pdata$?InitializeGraphics@@YAXU_FRAMEBUFFER_INFORMATION@@@Z 000000018000e474     xn_gui.obj
 0004:00000480       $pdata$?putpixel@@YAX_K0K@Z 000000018000e480     xn_gui.obj
 0004:0000048c       $pdata$?gputs_k@@YAXPEBD@Z 000000018000e48c     xn_gui.obj
 0004:00000498       $pdata$?DrawRect@@YAXHHHHK@Z 000000018000e498     xn_gui.obj
 0004:000004a4       $pdata$?putpixel_ii@@YAX_K0K@Z 000000018000e4a4     xn_gui.obj
 0004:000004b0       $pdata$?gputc@@YAXD@Z      000000018000e4b0     xn_gui.obj
 0004:000004bc       $pdata$?high_set_bit@@YAD_K@Z 000000018000e4bc     xn_gui.obj
 0004:000004c8       $pdata$?low_set_bit@@YAD_K@Z 000000018000e4c8     xn_gui.obj
 0004:000004d4       $pdata$?scroll@@YAXXZ      000000018000e4d4     xn_gui.obj
