; Listing generated by Microsoft (R) Optimizing Compiler Version 19.29.30159.0 

	TTL	C:\Users\paras\source\repos\grep-name\XenevaOS\Process\Deodhai\ARM64\Debug\animation.obj
	ARM64

	AREA	|.drectve|, DRECTVE

	EXPORT	|?FadeInAnimationWindow@@YAXPEAU_ChCanvas_@@PEAU_win_@@PEAU_win_info_@@_J333@Z| ; FadeInAnimationWindow
	EXPORT	|?FadeOutAnimationWindow@@YAXPEAU_ChCanvas_@@PEAU_win_@@PEAU_win_info_@@_J333@Z| ; FadeOutAnimationWindow
	IMPORT	|?DeodhaiUpdateBits@@YAXDD@Z|		; DeodhaiUpdateBits
	IMPORT	|?BackDirtyAdd@@YAXHHHH@Z|		; BackDirtyAdd
	IMPORT	|?AddDirtyClip@@YAXHHHH@Z|		; AddDirtyClip
	IMPORT	|ChColorAlphaBlend|
	IMPORT	|_fltused|

	AREA	|.pdata|, PDATA
|$pdata$?FadeInAnimationWindow@@YAXPEAU_ChCanvas_@@PEAU_win_@@PEAU_win_info_@@_J333@Z| DCD imagerel |$LN11|
	DCD	0x3200289
	;Flags[SingleProEpi] functionLength[648] RegF[0] RegI[0] H[0] frameChainReturn[UnChainedSavedLR] frameSize[96]
|$pdata$?FadeOutAnimationWindow@@YAXPEAU_ChCanvas_@@PEAU_win_@@PEAU_win_info_@@_J333@Z| DCD imagerel |$LN11|
	DCD	0x32002b5
	;Flags[SingleProEpi] functionLength[692] RegF[0] RegI[0] H[0] frameChainReturn[UnChainedSavedLR] frameSize[96]
; Function compile flags: /Odtpy
; File C:\Users\paras\source\repos\grep-name\XenevaOS\Process\Deodhai\animation.cpp

	AREA	|.text$mn|, CODE, ARM64

|?FadeOutAnimationWindow@@YAXPEAU_ChCanvas_@@PEAU_win_@@PEAU_win_info_@@_J333@Z| PROC ; FadeOutAnimationWindow

; 60   : void FadeOutAnimationWindow(ChCanvas* canv, Window* win, WinSharedInfo* info, int64_t win_x, int64_t win_y, int64_t win_w, int64_t win_h) {

|$LN11|
	str         lr,[sp,#-0x10]!
	sub         sp,sp,#0x50
	str         x0,[sp,#0x10]
	str         x1,[sp,#8]
	str         x2,[sp,#0x40]
	str         x3,[sp,#0x28]
	str         x4,[sp,#0x20]
	str         x5,[sp,#0x18]
	str         x6,[sp,#0x30]

; 61   : 	/* just to avoid floating point arithmetic issues */
; 62   : 	double opacity = win->animAlphaVal / 10.0;

	ldr         x8,[sp,#8]
	add         x8,x8,#0x3C
	ldr         w8,[x8]
	scvtf       d17,w8
	fmov        d16,#10
	fdiv        d16,d17,d16
	str         d16,[sp,#0x38]

; 63   : 	BackDirtyAdd(win_x, win_y, win_w, win_h);

	ldr         x8,[sp,#0x30]
	mov         w3,w8
	ldr         x8,[sp,#0x18]
	mov         w2,w8
	ldr         x8,[sp,#0x20]
	mov         w1,w8
	ldr         x8,[sp,#0x28]
	mov         w0,w8
	mov         w3,w3
	mov         w2,w2
	mov         w1,w1
	mov         w0,w0
	bl          |?BackDirtyAdd@@YAXHHHH@Z|

; 64   : 	if (win->animAlphaVal == 0) {

	ldr         x8,[sp,#8]
	add         x8,x8,#0x3C
	ldr         w8,[x8]
	cmp         w8,#0
	bne         |$LN8@FadeOutAni|

; 65   : 		win->flags &= ~WINDOW_FLAG_ANIMATION_FADE_OUT;

	ldr         x8,[sp,#8]
	ldrh        w8,[x8]
	mov         w8,w8
	and         w8,w8,#0xFFFFFBFF
	ldr         x9,[sp,#8]
	uxth        w8,w8
	strh        w8,[x9]

; 66   : 		win->flags &= ~WINDOW_FLAG_ANIMATED;

	ldr         x8,[sp,#8]
	ldrh        w8,[x8]
	mov         w8,w8
	and         w8,w8,#0xFFFFFFDF
	ldr         x9,[sp,#8]
	uxth        w8,w8
	strh        w8,[x9]
|$LN8@FadeOutAni|

; 67   : 	
; 68   : 	}
; 69   : 
; 70   : 	for (int j = 0; j < win_h; j++) {

	mov         w8,#0
	str         w8,[sp]
	b           |$LN4@FadeOutAni|
|$LN2@FadeOutAni|
	ldr         w8,[sp]
	add         w8,w8,#1
	str         w8,[sp]
|$LN4@FadeOutAni|
	ldr         w8,[sp]
	sxtw        x9,w8
	ldr         x8,[sp,#0x30]
	cmp         x9,x8
	bge         |$LN3@FadeOutAni|

; 71   : 		for (int i = 0; i < win_w; i++) {

	mov         w8,#0
	str         w8,[sp,#4]
	b           |$LN7@FadeOutAni|
|$LN5@FadeOutAni|
	ldr         w8,[sp,#4]
	add         w8,w8,#1
	str         w8,[sp,#4]
|$LN7@FadeOutAni|
	ldr         w8,[sp,#4]
	sxtw        x9,w8
	ldr         x8,[sp,#0x18]
	cmp         x9,x8
	bge         |$LN6@FadeOutAni|

; 72   : 			*(uint32_t*)(canv->buffer + ((win_y - SHADOW_SIZE) + j) * canv->canvasWidth + ((win_x - SHADOW_SIZE) + i)) =

	ldr         x8,[sp,#8]
	add         x10,x8,#8
	ldr         w8,[sp]
	sxtw        x9,w8
	ldr         x8,[sp,#0x18]
	mul         x9,x9,x8
	mov         x8,#4
	mul         x9,x9,x8
	ldr         x8,[x10]
	add         x10,x8,x9
	ldr         w8,[sp,#4]
	sxtw        x9,w8
	mov         x8,#4
	mul         x8,x9,x8
	add         x11,x10,x8
	ldr         x8,[sp,#0x10]
	add         x10,x8,#0x20
	ldr         w8,[sp]
	sxtw        x9,w8
	ldr         x8,[sp,#0x20]
	add         x9,x8,x9
	ldr         x8,[sp,#0x10]
	add         x8,x8,#0x18
	ldr         w8,[x8]
	uxtw        x8,w8
	mul         x9,x9,x8
	mov         x8,#4
	mul         x9,x9,x8
	ldr         x8,[x10]
	add         x10,x8,x9
	ldr         w8,[sp,#4]
	sxtw        x9,w8
	ldr         x8,[sp,#0x28]
	add         x9,x8,x9
	mov         x8,#4
	mul         x8,x9,x8
	add         x8,x10,x8
	ldr         d0,[sp,#0x38]
	ldr         w1,[x11]
	ldr         w0,[x8]
	bl          ChColorAlphaBlend
	mov         w0,w0
	ldr         x8,[sp,#0x10]
	add         x10,x8,#0x20
	ldr         w8,[sp]
	sxtw        x9,w8
	ldr         x8,[sp,#0x20]
	add         x9,x8,x9
	ldr         x8,[sp,#0x10]
	add         x8,x8,#0x18
	ldr         w8,[x8]
	uxtw        x8,w8
	mul         x9,x9,x8
	mov         x8,#4
	mul         x9,x9,x8
	ldr         x8,[x10]
	add         x10,x8,x9
	ldr         w8,[sp,#4]
	sxtw        x9,w8
	ldr         x8,[sp,#0x28]
	add         x9,x8,x9
	mov         x8,#4
	mul         x8,x9,x8
	add         x8,x10,x8
	str         w0,[x8]

; 73   : 				ChColorAlphaBlend(*(uint32_t*)(canv->buffer + ((win_y - SHADOW_SIZE) + j) * canv->canvasWidth + ((win_x - SHADOW_SIZE) + i)),
; 74   : 					*(uint32_t*)(win->backBuffer + j * (win_w + SHADOW_SIZE * 2) + i), opacity);
; 75   : 		}

	b           |$LN5@FadeOutAni|
|$LN6@FadeOutAni|

; 76   : 	}

	b           |$LN2@FadeOutAni|
|$LN3@FadeOutAni|

; 77   : 
; 78   : 	if (win->animAlphaVal != 0) {

	ldr         x8,[sp,#8]
	add         x8,x8,#0x3C
	ldr         w8,[x8]
	cmp         w8,#0
	beq         |$LN9@FadeOutAni|

; 79   : 		win->animAlphaVal -= 1;

	ldr         x8,[sp,#8]
	add         x8,x8,#0x3C
	ldr         w8,[x8]
	sub         w9,w8,#1
	ldr         x8,[sp,#8]
	add         x8,x8,#0x3C
	str         w9,[x8]

; 80   : 		info->updateEntireWindow = 1;

	ldr         x9,[sp,#0x40]
	mov         x8,#0x1005
	add         x9,x9,x8
	mov         w8,#1
	strb        w8,[x9]

; 81   : 		AddDirtyClip(win_x, win_y, win_w, win_h);

	ldr         x8,[sp,#0x30]
	mov         w3,w8
	ldr         x8,[sp,#0x18]
	mov         w2,w8
	ldr         x8,[sp,#0x20]
	mov         w1,w8
	ldr         x8,[sp,#0x28]
	mov         w0,w8
	mov         w3,w3
	mov         w2,w2
	mov         w1,w1
	mov         w0,w0
	bl          |?AddDirtyClip@@YAXHHHH@Z|
|$LN9@FadeOutAni|

; 82   : 	}
; 83   : 	DeodhaiUpdateBits(true,true);

	mov         w1,#1
	mov         w0,#1
	bl          |?DeodhaiUpdateBits@@YAXDD@Z|
	add         sp,sp,#0x50
	ldr         lr,[sp],#0x10
	ret

	ENDP  ; |?FadeOutAnimationWindow@@YAXPEAU_ChCanvas_@@PEAU_win_@@PEAU_win_info_@@_J333@Z|, FadeOutAnimationWindow

; Function compile flags: /Odtpy
; File C:\Users\paras\source\repos\grep-name\XenevaOS\Process\Deodhai\animation.cpp

	AREA	|.text$mn|, CODE, ARM64

|?FadeInAnimationWindow@@YAXPEAU_ChCanvas_@@PEAU_win_@@PEAU_win_info_@@_J333@Z| PROC ; FadeInAnimationWindow

; 34   : void FadeInAnimationWindow(ChCanvas* canv, Window* win, WinSharedInfo *info,int64_t win_x, int64_t win_y, int64_t win_w, int64_t win_h) {

|$LN11|
	str         lr,[sp,#-0x10]!
	sub         sp,sp,#0x50
	str         x0,[sp,#0x10]
	str         x1,[sp,#8]
	str         x2,[sp,#0x30]
	str         x3,[sp,#0x28]
	str         x4,[sp,#0x20]
	str         x5,[sp,#0x18]
	str         x6,[sp,#0x38]

; 35   :     /* just to avoid floating point arithmetic issues */
; 36   : 	double opacity = win->animAlphaVal / 10.0;

	ldr         x8,[sp,#8]
	add         x8,x8,#0x3C
	ldr         w8,[x8]
	scvtf       d17,w8
	fmov        d16,#10
	fdiv        d16,d17,d16
	str         d16,[sp,#0x40]

; 37   : 	if (win->animAlphaVal == 10) {

	ldr         x8,[sp,#8]
	add         x8,x8,#0x3C
	ldr         w8,[x8]
	cmp         w8,#0xA
	bne         |$LN8@FadeInAnim|

; 38   : 		win->flags &= ~WINDOW_FLAG_ANIMATION_FADE_IN;

	ldr         x8,[sp,#8]
	ldrh        w8,[x8]
	mov         w8,w8
	and         w8,w8,#0xFFFFFDFF
	ldr         x9,[sp,#8]
	uxth        w8,w8
	strh        w8,[x9]

; 39   : 		win->flags &= ~WINDOW_FLAG_ANIMATED;

	ldr         x8,[sp,#8]
	ldrh        w8,[x8]
	mov         w8,w8
	and         w8,w8,#0xFFFFFFDF
	ldr         x9,[sp,#8]
	uxth        w8,w8
	strh        w8,[x9]

; 40   : 		info->updateEntireWindow = 1;

	ldr         x9,[sp,#0x30]
	mov         x8,#0x1005
	add         x9,x9,x8
	mov         w8,#1
	strb        w8,[x9]
|$LN8@FadeInAnim|

; 41   : 	}
; 42   : 
; 43   : 	for (int j = 0; j < win_h; j++) {

	mov         w8,#0
	str         w8,[sp]
	b           |$LN4@FadeInAnim|
|$LN2@FadeInAnim|
	ldr         w8,[sp]
	add         w8,w8,#1
	str         w8,[sp]
|$LN4@FadeInAnim|
	ldr         w8,[sp]
	sxtw        x9,w8
	ldr         x8,[sp,#0x38]
	cmp         x9,x8
	bge         |$LN3@FadeInAnim|

; 44   : 		for (int i = 0; i < win_w; i++) {

	mov         w8,#0
	str         w8,[sp,#4]
	b           |$LN7@FadeInAnim|
|$LN5@FadeInAnim|
	ldr         w8,[sp,#4]
	add         w8,w8,#1
	str         w8,[sp,#4]
|$LN7@FadeInAnim|
	ldr         w8,[sp,#4]
	sxtw        x9,w8
	ldr         x8,[sp,#0x18]
	cmp         x9,x8
	bge         |$LN6@FadeInAnim|

; 45   : 			*(uint32_t*)(canv->buffer + ((win_y - SHADOW_SIZE) + j) * canv->canvasWidth + ((win_x - SHADOW_SIZE) + i)) =

	ldr         x8,[sp,#8]
	add         x10,x8,#8
	ldr         w8,[sp]
	sxtw        x9,w8
	ldr         x8,[sp,#0x18]
	mul         x9,x9,x8
	mov         x8,#4
	mul         x9,x9,x8
	ldr         x8,[x10]
	add         x10,x8,x9
	ldr         w8,[sp,#4]
	sxtw        x9,w8
	mov         x8,#4
	mul         x8,x9,x8
	add         x11,x10,x8
	ldr         x8,[sp,#0x10]
	add         x10,x8,#0x20
	ldr         w8,[sp]
	sxtw        x9,w8
	ldr         x8,[sp,#0x20]
	add         x9,x8,x9
	ldr         x8,[sp,#0x10]
	add         x8,x8,#0x18
	ldr         w8,[x8]
	uxtw        x8,w8
	mul         x9,x9,x8
	mov         x8,#4
	mul         x9,x9,x8
	ldr         x8,[x10]
	add         x10,x8,x9
	ldr         w8,[sp,#4]
	sxtw        x9,w8
	ldr         x8,[sp,#0x28]
	add         x9,x8,x9
	mov         x8,#4
	mul         x8,x9,x8
	add         x8,x10,x8
	ldr         d0,[sp,#0x40]
	ldr         w1,[x11]
	ldr         w0,[x8]
	bl          ChColorAlphaBlend
	mov         w0,w0
	ldr         x8,[sp,#0x10]
	add         x10,x8,#0x20
	ldr         w8,[sp]
	sxtw        x9,w8
	ldr         x8,[sp,#0x20]
	add         x9,x8,x9
	ldr         x8,[sp,#0x10]
	add         x8,x8,#0x18
	ldr         w8,[x8]
	uxtw        x8,w8
	mul         x9,x9,x8
	mov         x8,#4
	mul         x9,x9,x8
	ldr         x8,[x10]
	add         x10,x8,x9
	ldr         w8,[sp,#4]
	sxtw        x9,w8
	ldr         x8,[sp,#0x28]
	add         x9,x8,x9
	mov         x8,#4
	mul         x8,x9,x8
	add         x8,x10,x8
	str         w0,[x8]

; 46   : 				ChColorAlphaBlend(*(uint32_t*)(canv->buffer + ((win_y - SHADOW_SIZE) + j) * canv->canvasWidth + ((win_x - SHADOW_SIZE) + i)),
; 47   : 					*(uint32_t*)(win->backBuffer + j * (win_w + SHADOW_SIZE * 2) + i), opacity);
; 48   : 		}

	b           |$LN5@FadeInAnim|
|$LN6@FadeInAnim|

; 49   : 	}

	b           |$LN2@FadeInAnim|
|$LN3@FadeInAnim|

; 50   : 
; 51   : 	if (win->animAlphaVal != 10) {

	ldr         x8,[sp,#8]
	add         x8,x8,#0x3C
	ldr         w8,[x8]
	cmp         w8,#0xA
	beq         |$LN9@FadeInAnim|

; 52   : 		win->animAlphaVal += 1;

	ldr         x8,[sp,#8]
	add         x8,x8,#0x3C
	ldr         w8,[x8]
	add         w9,w8,#1
	ldr         x8,[sp,#8]
	add         x8,x8,#0x3C
	str         w9,[x8]

; 53   : 		info->updateEntireWindow = 1;

	ldr         x9,[sp,#0x30]
	mov         x8,#0x1005
	add         x9,x9,x8
	mov         w8,#1
	strb        w8,[x9]

; 54   : 		AddDirtyClip(win_x, win_y, win_w, win_h);

	ldr         x8,[sp,#0x38]
	mov         w3,w8
	ldr         x8,[sp,#0x18]
	mov         w2,w8
	ldr         x8,[sp,#0x20]
	mov         w1,w8
	ldr         x8,[sp,#0x28]
	mov         w0,w8
	mov         w3,w3
	mov         w2,w2
	mov         w1,w1
	mov         w0,w0
	bl          |?AddDirtyClip@@YAXHHHH@Z|
|$LN9@FadeInAnim|
	add         sp,sp,#0x50
	ldr         lr,[sp],#0x10
	ret

	ENDP  ; |?FadeInAnimationWindow@@YAXPEAU_ChCanvas_@@PEAU_win_@@PEAU_win_info_@@_J333@Z|, FadeInAnimationWindow

	END
