; Listing generated by Microsoft (R) Optimizing Compiler Version 19.29.30159.0 

	TTL	C:\Users\paras\source\repos\grep-name\XenevaOS\Process\Deodhai\ARM64\Debug\backdirty.obj
	ARM64

	AREA	|.drectve|, DRECTVE

	EXPORT	|?_back_dirty_count@@3HA| [ DATA ]	; _back_dirty_count
	EXPORT	|?_back_dirty_rect@@3PAU_rect_@@A| [ DATA ] ; _back_dirty_rect

	AREA	|.bss|, NOINIT
|?_back_dirty_count@@3HA| % 0x4				; _back_dirty_count
|?_back_dirty_rect@@3PAU_rect_@@A| % 0x2000		; _back_dirty_rect

	AREA	|.rdata|, DATA, READONLY
|$SG3117| DCB	"BackDirty x < 0 -> %d ", 0xd, 0xa, 0x0
	%	7
|$SG3119| DCB	"BackDirty y < 0 -> %d ", 0xd, 0xa, 0x0
	%	7
|$SG3121| DCB	"BackDirty w is corrupted ", 0xd, 0xa, 0x0
	%	4
|$SG3123| DCB	"BackDirty h is corrupted ", 0xd, 0xa, 0x0
	EXPORT	|?BackDirtyInitialise@@YAXXZ|		; BackDirtyInitialise
	EXPORT	|?BackDirtyAdd@@YAXHHHH@Z|		; BackDirtyAdd
	EXPORT	|?BackDirtyGetRect@@YAXPEAH000H@Z|	; BackDirtyGetRect
	EXPORT	|?BackDirtyGetDirtyCount@@YAHXZ|	; BackDirtyGetDirtyCount
	EXPORT	|?BackDirtyCountReset@@YAXXZ|		; BackDirtyCountReset
	IMPORT	|_KePrint|

	AREA	|.pdata|, PDATA
|$pdata$?BackDirtyInitialise@@YAXXZ| DCD imagerel |$LN6|
	DCD	0x8000dd
	;Flags[SingleProEpi] functionLength[220] RegF[0] RegI[0] H[0] frameChainReturn[UnChained] frameSize[16]
|$pdata$?BackDirtyAdd@@YAXHHHH@Z| DCD imagerel |$LN8|
	DCD	0x1200169
	;Flags[SingleProEpi] functionLength[360] RegF[0] RegI[0] H[0] frameChainReturn[UnChainedSavedLR] frameSize[32]
|$pdata$?BackDirtyGetRect@@YAXPEAH000H@Z| DCD imagerel |$LN3|
	DCD	0x18000cd
	;Flags[SingleProEpi] functionLength[204] RegF[0] RegI[0] H[0] frameChainReturn[UnChained] frameSize[48]
; Function compile flags: /Odtpy
; File C:\Users\paras\source\repos\grep-name\XenevaOS\Process\Deodhai\backdirty.cpp

	AREA	|.text$mn|, CODE, ARM64

|?BackDirtyCountReset@@YAXXZ| PROC			; BackDirtyCountReset

; 99   : 	_back_dirty_count = 0;

	adrp        x9,|?_back_dirty_count@@3HA|
	mov         w8,#0
	str         w8,[x9,PageOffset(|?_back_dirty_count@@3HA|)]
	ret

	ENDP  ; |?BackDirtyCountReset@@YAXXZ|, BackDirtyCountReset

; Function compile flags: /Odtpy
; File C:\Users\paras\source\repos\grep-name\XenevaOS\Process\Deodhai\backdirty.cpp

	AREA	|.text$mn|, CODE, ARM64

|?BackDirtyGetDirtyCount@@YAHXZ| PROC			; BackDirtyGetDirtyCount

; 95   : 	return _back_dirty_count;

	adrp        x8,|?_back_dirty_count@@3HA|
	ldr         w0,[x8,PageOffset(|?_back_dirty_count@@3HA|)]
	ret

	ENDP  ; |?BackDirtyGetDirtyCount@@YAHXZ|, BackDirtyGetDirtyCount

; Function compile flags: /Odtpy
; File C:\Users\paras\source\repos\grep-name\XenevaOS\Process\Deodhai\backdirty.cpp

	AREA	|.text$mn|, CODE, ARM64

|?BackDirtyGetRect@@YAXPEAH000H@Z| PROC			; BackDirtyGetRect

; 86   : void BackDirtyGetRect(int *x, int *y, int *w, int *h, int index) {

|$LN3|
	sub         sp,sp,#0x30
	str         x0,[sp,#8]
	str         x1,[sp,#0x10]
	str         x2,[sp,#0x18]
	str         x3,[sp,#0x20]
	str         w4,[sp]

; 87   : 	*x = _back_dirty_rect[index].x;

	ldr         w8,[sp]
	sxtw        x9,w8
	mov         x8,#0x10
	mul         x9,x9,x8
	adrp        x8,|?_back_dirty_rect@@3PAU_rect_@@A|
	add         x8,x8,PageOffset(|?_back_dirty_rect@@3PAU_rect_@@A|)
	add         x8,x8,x9
	ldr         x9,[sp,#8]
	ldr         w8,[x8]
	str         w8,[x9]

; 88   : 	*y = _back_dirty_rect[index].y;

	ldr         w8,[sp]
	sxtw        x9,w8
	mov         x8,#0x10
	mul         x9,x9,x8
	adrp        x8,|?_back_dirty_rect@@3PAU_rect_@@A|
	add         x8,x8,PageOffset(|?_back_dirty_rect@@3PAU_rect_@@A|)
	add         x8,x8,x9
	add         x8,x8,#4
	ldr         x9,[sp,#0x10]
	ldr         w8,[x8]
	str         w8,[x9]

; 89   : 	*w = _back_dirty_rect[index].w;

	ldr         w8,[sp]
	sxtw        x9,w8
	mov         x8,#0x10
	mul         x9,x9,x8
	adrp        x8,|?_back_dirty_rect@@3PAU_rect_@@A|
	add         x8,x8,PageOffset(|?_back_dirty_rect@@3PAU_rect_@@A|)
	add         x8,x8,x9
	add         x8,x8,#8
	ldr         x9,[sp,#0x18]
	ldr         w8,[x8]
	str         w8,[x9]

; 90   : 	*h = _back_dirty_rect[index].h;

	ldr         w8,[sp]
	sxtw        x9,w8
	mov         x8,#0x10
	mul         x9,x9,x8
	adrp        x8,|?_back_dirty_rect@@3PAU_rect_@@A|
	add         x8,x8,PageOffset(|?_back_dirty_rect@@3PAU_rect_@@A|)
	add         x8,x8,x9
	add         x8,x8,#0xC
	ldr         x9,[sp,#0x20]
	ldr         w8,[x8]
	str         w8,[x9]
	add         sp,sp,#0x30
	ret

	ENDP  ; |?BackDirtyGetRect@@YAXPEAH000H@Z|, BackDirtyGetRect

; Function compile flags: /Odtpy
; File C:\Users\paras\source\repos\grep-name\XenevaOS\Process\Deodhai\backdirty.cpp

	AREA	|.text$mn|, CODE, ARM64

|?BackDirtyAdd@@YAXHHHH@Z| PROC				; BackDirtyAdd

; 59   : void BackDirtyAdd(int x, int y, int w, int h) {

|$LN8|
	str         lr,[sp,#-0x10]!
	sub         sp,sp,#0x10
	str         w0,[sp]
	str         w1,[sp,#4]
	str         w2,[sp,#8]
	str         w3,[sp,#0xC]

; 60   : 	if (_back_dirty_count >= 512)

	adrp        x8,|?_back_dirty_count@@3HA|
	ldr         w8,[x8,PageOffset(|?_back_dirty_count@@3HA|)]
	cmp         w8,#0x200
	blt         |$LN2@BackDirtyA|

; 61   : 		_back_dirty_count = 0;

	adrp        x9,|?_back_dirty_count@@3HA|
	mov         w8,#0
	str         w8,[x9,PageOffset(|?_back_dirty_count@@3HA|)]
|$LN2@BackDirtyA|

; 62   : 	if (x < 0)

	ldr         w8,[sp]
	cmp         w8,#0
	bge         |$LN3@BackDirtyA|

; 63   : 		_KePrint("BackDirty x < 0 -> %d \r\n", x);

	ldr         w1,[sp]
	adrp        x8,|$SG3117|
	add         x0,x8,PageOffset(|$SG3117|)
	bl          _KePrint
|$LN3@BackDirtyA|

; 64   : 	if (y < 0)

	ldr         w8,[sp,#4]
	cmp         w8,#0
	bge         |$LN4@BackDirtyA|

; 65   : 		_KePrint("BackDirty y < 0 -> %d \r\n", y);

	ldr         w1,[sp,#4]
	adrp        x8,|$SG3119|
	add         x0,x8,PageOffset(|$SG3119|)
	bl          _KePrint
|$LN4@BackDirtyA|

; 66   : 	if (w < 0)

	ldr         w8,[sp,#8]
	cmp         w8,#0
	bge         |$LN5@BackDirtyA|

; 67   : 		_KePrint("BackDirty w is corrupted \r\n");

	adrp        x8,|$SG3121|
	add         x0,x8,PageOffset(|$SG3121|)
	bl          _KePrint
|$LN5@BackDirtyA|

; 68   : 	if (h < 0)

	ldr         w8,[sp,#0xC]
	cmp         w8,#0
	bge         |$LN6@BackDirtyA|

; 69   : 		_KePrint("BackDirty h is corrupted \r\n");

	adrp        x8,|$SG3123|
	add         x0,x8,PageOffset(|$SG3123|)
	bl          _KePrint
|$LN6@BackDirtyA|

; 70   : 	
; 71   : 	_back_dirty_rect[_back_dirty_count].x = x;

	adrp        x8,|?_back_dirty_count@@3HA|
	ldr         w8,[x8,PageOffset(|?_back_dirty_count@@3HA|)]
	sxtw        x9,w8
	mov         x8,#0x10
	mul         x9,x9,x8
	adrp        x8,|?_back_dirty_rect@@3PAU_rect_@@A|
	add         x8,x8,PageOffset(|?_back_dirty_rect@@3PAU_rect_@@A|)
	add         x9,x8,x9
	ldr         w8,[sp]
	str         w8,[x9]

; 72   : 	_back_dirty_rect[_back_dirty_count].y = y;

	adrp        x8,|?_back_dirty_count@@3HA|
	ldr         w8,[x8,PageOffset(|?_back_dirty_count@@3HA|)]
	sxtw        x9,w8
	mov         x8,#0x10
	mul         x9,x9,x8
	adrp        x8,|?_back_dirty_rect@@3PAU_rect_@@A|
	add         x8,x8,PageOffset(|?_back_dirty_rect@@3PAU_rect_@@A|)
	add         x8,x8,x9
	add         x9,x8,#4
	ldr         w8,[sp,#4]
	str         w8,[x9]

; 73   : 	_back_dirty_rect[_back_dirty_count].w = w;

	adrp        x8,|?_back_dirty_count@@3HA|
	ldr         w8,[x8,PageOffset(|?_back_dirty_count@@3HA|)]
	sxtw        x9,w8
	mov         x8,#0x10
	mul         x9,x9,x8
	adrp        x8,|?_back_dirty_rect@@3PAU_rect_@@A|
	add         x8,x8,PageOffset(|?_back_dirty_rect@@3PAU_rect_@@A|)
	add         x8,x8,x9
	add         x9,x8,#8
	ldr         w8,[sp,#8]
	str         w8,[x9]

; 74   : 	_back_dirty_rect[_back_dirty_count].h = h;

	adrp        x8,|?_back_dirty_count@@3HA|
	ldr         w8,[x8,PageOffset(|?_back_dirty_count@@3HA|)]
	sxtw        x9,w8
	mov         x8,#0x10
	mul         x9,x9,x8
	adrp        x8,|?_back_dirty_rect@@3PAU_rect_@@A|
	add         x8,x8,PageOffset(|?_back_dirty_rect@@3PAU_rect_@@A|)
	add         x8,x8,x9
	add         x9,x8,#0xC
	ldr         w8,[sp,#0xC]
	str         w8,[x9]

; 75   : 	_back_dirty_count++;

	adrp        x8,|?_back_dirty_count@@3HA|
	ldr         w8,[x8,PageOffset(|?_back_dirty_count@@3HA|)]
	add         w9,w8,#1
	adrp        x8,|?_back_dirty_count@@3HA|
	str         w9,[x8,PageOffset(|?_back_dirty_count@@3HA|)]
	add         sp,sp,#0x10
	ldr         lr,[sp],#0x10
	ret

	ENDP  ; |?BackDirtyAdd@@YAXHHHH@Z|, BackDirtyAdd

; Function compile flags: /Odtpy
; File C:\Users\paras\source\repos\grep-name\XenevaOS\Process\Deodhai\backdirty.cpp

	AREA	|.text$mn|, CODE, ARM64

|?BackDirtyInitialise@@YAXXZ| PROC			; BackDirtyInitialise

; 42   : void BackDirtyInitialise() {

|$LN6|
	sub         sp,sp,#0x10

; 43   : 	_back_dirty_count = 0;

	adrp        x9,|?_back_dirty_count@@3HA|
	mov         w8,#0
	str         w8,[x9,PageOffset(|?_back_dirty_count@@3HA|)]

; 44   : 	for (int i = 0; i < 512; i++){

	mov         w8,#0
	str         w8,[sp]
	b           |$LN4@BackDirtyI|
|$LN2@BackDirtyI|
	ldr         w8,[sp]
	add         w8,w8,#1
	str         w8,[sp]
|$LN4@BackDirtyI|
	ldr         w8,[sp]
	cmp         w8,#0x200
	bge         |$LN3@BackDirtyI|

; 45   : 		_back_dirty_rect[i].x = 0;

	ldr         w8,[sp]
	sxtw        x9,w8
	mov         x8,#0x10
	mul         x9,x9,x8
	adrp        x8,|?_back_dirty_rect@@3PAU_rect_@@A|
	add         x8,x8,PageOffset(|?_back_dirty_rect@@3PAU_rect_@@A|)
	add         x9,x8,x9
	mov         w8,#0
	str         w8,[x9]

; 46   : 		_back_dirty_rect[i].y = 0;

	ldr         w8,[sp]
	sxtw        x9,w8
	mov         x8,#0x10
	mul         x9,x9,x8
	adrp        x8,|?_back_dirty_rect@@3PAU_rect_@@A|
	add         x8,x8,PageOffset(|?_back_dirty_rect@@3PAU_rect_@@A|)
	add         x8,x8,x9
	add         x9,x8,#4
	mov         w8,#0
	str         w8,[x9]

; 47   : 		_back_dirty_rect[i].w = 0;

	ldr         w8,[sp]
	sxtw        x9,w8
	mov         x8,#0x10
	mul         x9,x9,x8
	adrp        x8,|?_back_dirty_rect@@3PAU_rect_@@A|
	add         x8,x8,PageOffset(|?_back_dirty_rect@@3PAU_rect_@@A|)
	add         x8,x8,x9
	add         x9,x8,#8
	mov         w8,#0
	str         w8,[x9]

; 48   : 		_back_dirty_rect[i].h = 0;

	ldr         w8,[sp]
	sxtw        x9,w8
	mov         x8,#0x10
	mul         x9,x9,x8
	adrp        x8,|?_back_dirty_rect@@3PAU_rect_@@A|
	add         x8,x8,PageOffset(|?_back_dirty_rect@@3PAU_rect_@@A|)
	add         x8,x8,x9
	add         x9,x8,#0xC
	mov         w8,#0
	str         w8,[x9]

; 49   : 	}

	b           |$LN2@BackDirtyI|
|$LN3@BackDirtyI|
	add         sp,sp,#0x10
	ret

	ENDP  ; |?BackDirtyInitialise@@YAXXZ|, BackDirtyInitialise

	END
