; Listing generated by Microsoft (R) Optimizing Compiler Version 19.29.30159.0 

	TTL	C:\Users\paras\source\repos\grep-name\XenevaOS\Process\Deodhai\ARM64\Debug\clip.obj
	ARM64

	AREA	|.drectve|, DRECTVE

	EXPORT	|?ClipCheckIntersect@@YADPEAU_rect_@@0@Z| ; ClipCheckIntersect
	EXPORT	|?ClipCalculateRect@@YAXPEAU_rect_@@00PEAH@Z| ; ClipCalculateRect
	EXPORT	|?ClipSubtractRect@@YAXPEAU_rect_@@00H@Z| ; ClipSubtractRect
	EXPORT	|?ClipValueInRange@@YADHHH@Z|		; ClipValueInRange
	IMPORT	|memcpy|
	IMPORT	|?RectSetLeft@@YAHPEAU_rect_@@H@Z|	; RectSetLeft
	IMPORT	|?RectSetRight@@YAHPEAU_rect_@@H@Z|	; RectSetRight
	IMPORT	|?RectSetTop@@YAHPEAU_rect_@@H@Z|	; RectSetTop
	IMPORT	|?RectSetBottom@@YAHPEAU_rect_@@H@Z|	; RectSetBottom
	IMPORT	|?RectGetLeft@@YAHPEAU_rect_@@@Z|	; RectGetLeft
	IMPORT	|?RectGetRight@@YAHPEAU_rect_@@@Z|	; RectGetRight
	IMPORT	|?RectGetTop@@YAHPEAU_rect_@@@Z|	; RectGetTop
	IMPORT	|?RectGetBottom@@YAHPEAU_rect_@@@Z|	; RectGetBottom

	AREA	|.pdata|, PDATA
|$pdata$?ClipCheckIntersect@@YADPEAU_rect_@@0@Z| DCD imagerel |$LN9|
	DCD	0x1a001a5
	;Flags[SingleProEpi] functionLength[420] RegF[0] RegI[0] H[0] frameChainReturn[UnChainedSavedLR] frameSize[48]
|$pdata$?ClipCalculateRect@@YAXPEAU_rect_@@00PEAH@Z| DCD imagerel |$LN7|
	DCD	0x6a106e1
	;Flags[SingleProEpi] functionLength[1760] RegF[0] RegI[1] H[0] frameChainReturn[UnChainedSavedLR] frameSize[208]
|$pdata$?ClipSubtractRect@@YAXPEAU_rect_@@00H@Z| DCD imagerel |$LN7|
	DCD	0x6210669
	;Flags[SingleProEpi] functionLength[1640] RegF[0] RegI[1] H[0] frameChainReturn[UnChainedSavedLR] frameSize[192]
|$pdata$?ClipValueInRange@@YADHHH@Z| DCD imagerel |$LN5|
	DCD	0x800051
	;Flags[SingleProEpi] functionLength[80] RegF[0] RegI[0] H[0] frameChainReturn[UnChained] frameSize[16]
; Function compile flags: /Odtpy
; File C:\Users\paras\source\repos\grep-name\XenevaOS\Process\Deodhai\clip.cpp

	AREA	|.text$mn|, CODE, ARM64

|?ClipValueInRange@@YADHHH@Z| PROC			; ClipValueInRange

; 36   : bool ClipValueInRange(int value, int min, int max) {

|$LN5|
	sub         sp,sp,#0x10
	str         w0,[sp,#4]
	str         w1,[sp,#8]
	str         w2,[sp,#0xC]

; 37   : 	return (value >= min) && (value <= max);

	ldr         w9,[sp,#8]
	ldr         w8,[sp,#4]
	cmp         w8,w9
	blt         |$LN3@ClipValueI|
	ldr         w9,[sp,#0xC]
	ldr         w8,[sp,#4]
	cmp         w8,w9
	bgt         |$LN3@ClipValueI|
	mov         w8,#1
	strb        w8,[sp]
	b           |$LN4@ClipValueI|
|$LN3@ClipValueI|
	mov         w8,#0
	strb        w8,[sp]
|$LN4@ClipValueI|
	ldrsb       w0,[sp]
	add         sp,sp,#0x10
	ret

	ENDP  ; |?ClipValueInRange@@YADHHH@Z|, ClipValueInRange

; Function compile flags: /Odtpy
; File C:\Users\paras\source\repos\grep-name\XenevaOS\Process\Deodhai\clip.cpp

	AREA	|.text$mn|, CODE, ARM64

|?ClipSubtractRect@@YAXPEAU_rect_@@00H@Z| PROC		; ClipSubtractRect

; 164  : void ClipSubtractRect(Rect *sub_rect, Rect* cut_rect, Rect *list, int r_count) {

|$LN7|
	sub         sp,sp,#0x10
	stp         x19,lr,[sp]
	sub         sp,sp,#0xB0
	str         x0,[sp,#8]
	str         x1,[sp,#0x18]
	str         x2,[sp,#0x10]
	str         w3,[sp]

; 165  : 
; 166  : 
; 167  : 	if (RectGetLeft(cut_rect) >= RectGetLeft(sub_rect) &&

	ldr         x0,[sp,#0x18]
	bl          |?RectGetLeft@@YAHPEAU_rect_@@@Z|
	mov         w19,w0
	ldr         x0,[sp,#8]
	bl          |?RectGetLeft@@YAHPEAU_rect_@@@Z|
	mov         w0,w0
	cmp         w19,w0
	blt         |$LN2@ClipSubtra|
	ldr         x0,[sp,#0x18]
	bl          |?RectGetLeft@@YAHPEAU_rect_@@@Z|
	mov         w19,w0
	ldr         x0,[sp,#8]
	bl          |?RectGetRight@@YAHPEAU_rect_@@@Z|
	mov         w0,w0
	cmp         w19,w0
	bgt         |$LN2@ClipSubtra|

; 168  : 		RectGetLeft(cut_rect) <= RectGetRight(sub_rect)) {
; 169  : 		Rect r;
; 170  : 		memcpy(&r, sub_rect, sizeof(Rect));

	mov         x2,#0x10
	ldr         x1,[sp,#8]
	add         x0,sp,#0x68
	bl          memcpy

; 171  : 		int top = RectSetTop(&r, RectGetTop(sub_rect));

	ldr         x0,[sp,#8]
	bl          |?RectGetTop@@YAHPEAU_rect_@@@Z|
	mov         w0,w0
	mov         w1,w0
	add         x0,sp,#0x68
	bl          |?RectSetTop@@YAHPEAU_rect_@@H@Z|
	mov         w0,w0
	str         w0,[sp,#0x24]

; 172  : 		int left = RectSetLeft(&r, RectGetLeft(sub_rect));

	ldr         x0,[sp,#8]
	bl          |?RectGetLeft@@YAHPEAU_rect_@@@Z|
	mov         w0,w0
	mov         w1,w0
	add         x0,sp,#0x68
	bl          |?RectSetLeft@@YAHPEAU_rect_@@H@Z|
	mov         w0,w0
	str         w0,[sp,#0x20]

; 173  : 		int bottom = RectSetBottom(&r, RectGetBottom(sub_rect));

	ldr         x0,[sp,#8]
	bl          |?RectGetBottom@@YAHPEAU_rect_@@@Z|
	mov         w0,w0
	mov         w1,w0
	add         x0,sp,#0x68
	bl          |?RectSetBottom@@YAHPEAU_rect_@@H@Z|
	mov         w0,w0
	str         w0,[sp,#0x44]

; 174  : 		int right = RectSetRight(&r, RectGetLeft(cut_rect));

	ldr         x0,[sp,#0x18]
	bl          |?RectGetLeft@@YAHPEAU_rect_@@@Z|
	mov         w0,w0
	mov         w1,w0
	add         x0,sp,#0x68
	bl          |?RectSetRight@@YAHPEAU_rect_@@H@Z|
	mov         w0,w0
	str         w0,[sp,#0x40]

; 175  : 
; 176  : 		list[r_count].x = left;

	ldr         w8,[sp]
	sxtw        x9,w8
	mov         x8,#0x10
	mul         x9,x9,x8
	ldr         x8,[sp,#0x10]
	add         x9,x8,x9
	ldr         w8,[sp,#0x20]
	str         w8,[x9]

; 177  : 		list[r_count].y = top;

	ldr         w8,[sp]
	sxtw        x9,w8
	mov         x8,#0x10
	mul         x9,x9,x8
	ldr         x8,[sp,#0x10]
	add         x8,x8,x9
	add         x9,x8,#4
	ldr         w8,[sp,#0x24]
	str         w8,[x9]

; 178  : 		list[r_count].w = right - left;

	ldr         w9,[sp,#0x40]
	ldr         w8,[sp,#0x20]
	sub         w10,w9,w8
	ldr         w8,[sp]
	sxtw        x9,w8
	mov         x8,#0x10
	mul         x9,x9,x8
	ldr         x8,[sp,#0x10]
	add         x8,x8,x9
	add         x8,x8,#8
	str         w10,[x8]

; 179  : 		list[r_count].h = bottom - top;

	ldr         w9,[sp,#0x44]
	ldr         w8,[sp,#0x24]
	sub         w10,w9,w8
	ldr         w8,[sp]
	sxtw        x9,w8
	mov         x8,#0x10
	mul         x9,x9,x8
	ldr         x8,[sp,#0x10]
	add         x8,x8,x9
	add         x8,x8,#0xC
	str         w10,[x8]

; 180  : 		
; 181  : 
; 182  : 		int n_l = RectSetLeft(sub_rect, RectGetLeft(cut_rect));

	ldr         x0,[sp,#0x18]
	bl          |?RectGetLeft@@YAHPEAU_rect_@@@Z|
	mov         w0,w0
	mov         w1,w0
	ldr         x0,[sp,#8]
	bl          |?RectSetLeft@@YAHPEAU_rect_@@H@Z|
	mov         w0,w0
	str         w0,[sp,#0x48]

; 183  : 		sub_rect->x = n_l;

	ldr         x9,[sp,#8]
	ldr         w8,[sp,#0x48]
	str         w8,[x9]
|$LN2@ClipSubtra|

; 184  : 	}
; 185  : 
; 186  : 	if (RectGetTop(cut_rect) >= RectGetTop(sub_rect) &&

	ldr         x0,[sp,#0x18]
	bl          |?RectGetTop@@YAHPEAU_rect_@@@Z|
	mov         w19,w0
	ldr         x0,[sp,#8]
	bl          |?RectGetTop@@YAHPEAU_rect_@@@Z|
	mov         w0,w0
	cmp         w19,w0
	blt         |$LN3@ClipSubtra|
	ldr         x0,[sp,#0x18]
	bl          |?RectGetTop@@YAHPEAU_rect_@@@Z|
	mov         w19,w0
	ldr         x0,[sp,#8]
	bl          |?RectGetBottom@@YAHPEAU_rect_@@@Z|
	mov         w0,w0
	cmp         w19,w0
	bgt         |$LN3@ClipSubtra|

; 187  : 		RectGetTop(cut_rect) <= RectGetBottom(sub_rect)) {
; 188  : 
; 189  : 		Rect r;
; 190  : 		memcpy(&r, sub_rect, sizeof(Rect));

	mov         x2,#0x10
	ldr         x1,[sp,#8]
	add         x0,sp,#0x78
	bl          memcpy

; 191  : 		int top = RectSetTop(&r, RectGetTop(sub_rect));

	ldr         x0,[sp,#8]
	bl          |?RectGetTop@@YAHPEAU_rect_@@@Z|
	mov         w0,w0
	mov         w1,w0
	add         x0,sp,#0x78
	bl          |?RectSetTop@@YAHPEAU_rect_@@H@Z|
	mov         w0,w0
	str         w0,[sp,#0x2C]

; 192  : 		int left = RectSetLeft(&r, RectGetLeft(sub_rect));

	ldr         x0,[sp,#8]
	bl          |?RectGetLeft@@YAHPEAU_rect_@@@Z|
	mov         w0,w0
	mov         w1,w0
	add         x0,sp,#0x78
	bl          |?RectSetLeft@@YAHPEAU_rect_@@H@Z|
	mov         w0,w0
	str         w0,[sp,#0x28]

; 193  : 		int bottom = RectSetBottom(&r, RectGetTop(cut_rect));

	ldr         x0,[sp,#0x18]
	bl          |?RectGetTop@@YAHPEAU_rect_@@@Z|
	mov         w0,w0
	mov         w1,w0
	add         x0,sp,#0x78
	bl          |?RectSetBottom@@YAHPEAU_rect_@@H@Z|
	mov         w0,w0
	str         w0,[sp,#0x50]

; 194  : 		int right = RectSetRight(&r, RectGetRight(sub_rect));

	ldr         x0,[sp,#8]
	bl          |?RectGetRight@@YAHPEAU_rect_@@@Z|
	mov         w0,w0
	mov         w1,w0
	add         x0,sp,#0x78
	bl          |?RectSetRight@@YAHPEAU_rect_@@H@Z|
	mov         w0,w0
	str         w0,[sp,#0x4C]

; 195  : 
; 196  : 
; 197  : 		list[r_count].x = left;

	ldr         w8,[sp]
	sxtw        x9,w8
	mov         x8,#0x10
	mul         x9,x9,x8
	ldr         x8,[sp,#0x10]
	add         x9,x8,x9
	ldr         w8,[sp,#0x28]
	str         w8,[x9]

; 198  : 		list[r_count].y = top;

	ldr         w8,[sp]
	sxtw        x9,w8
	mov         x8,#0x10
	mul         x9,x9,x8
	ldr         x8,[sp,#0x10]
	add         x8,x8,x9
	add         x9,x8,#4
	ldr         w8,[sp,#0x2C]
	str         w8,[x9]

; 199  : 		list[r_count].w = right - left;

	ldr         w9,[sp,#0x4C]
	ldr         w8,[sp,#0x28]
	sub         w10,w9,w8
	ldr         w8,[sp]
	sxtw        x9,w8
	mov         x8,#0x10
	mul         x9,x9,x8
	ldr         x8,[sp,#0x10]
	add         x8,x8,x9
	add         x8,x8,#8
	str         w10,[x8]

; 200  : 		list[r_count].h = bottom - top;

	ldr         w9,[sp,#0x50]
	ldr         w8,[sp,#0x2C]
	sub         w10,w9,w8
	ldr         w8,[sp]
	sxtw        x9,w8
	mov         x8,#0x10
	mul         x9,x9,x8
	ldr         x8,[sp,#0x10]
	add         x8,x8,x9
	add         x8,x8,#0xC
	str         w10,[x8]

; 201  : 		
; 202  : 		int n_t = RectSetTop(sub_rect, RectGetTop(cut_rect));

	ldr         x0,[sp,#0x18]
	bl          |?RectGetTop@@YAHPEAU_rect_@@@Z|
	mov         w0,w0
	mov         w1,w0
	ldr         x0,[sp,#8]
	bl          |?RectSetTop@@YAHPEAU_rect_@@H@Z|
	mov         w0,w0
	str         w0,[sp,#0x54]

; 203  : 		sub_rect->y = n_t;

	ldr         x8,[sp,#8]
	add         x9,x8,#4
	ldr         w8,[sp,#0x54]
	str         w8,[x9]
|$LN3@ClipSubtra|

; 204  : 	}
; 205  : 
; 206  : 	if (RectGetRight(cut_rect) >= RectGetLeft(sub_rect)
; 207  : 		&& RectGetRight(cut_rect) < RectGetRight(sub_rect)) {

	ldr         x0,[sp,#0x18]
	bl          |?RectGetRight@@YAHPEAU_rect_@@@Z|
	mov         w19,w0
	ldr         x0,[sp,#8]
	bl          |?RectGetLeft@@YAHPEAU_rect_@@@Z|
	mov         w0,w0
	cmp         w19,w0
	blt         |$LN4@ClipSubtra|
	ldr         x0,[sp,#0x18]
	bl          |?RectGetRight@@YAHPEAU_rect_@@@Z|
	mov         w19,w0
	ldr         x0,[sp,#8]
	bl          |?RectGetRight@@YAHPEAU_rect_@@@Z|
	mov         w0,w0
	cmp         w19,w0
	bge         |$LN4@ClipSubtra|

; 208  : 
; 209  : 		Rect r;
; 210  : 		memcpy(&r, sub_rect, sizeof(Rect));

	mov         x2,#0x10
	ldr         x1,[sp,#8]
	add         x0,sp,#0x88
	bl          memcpy

; 211  : 		int top = RectSetTop(&r, RectGetTop(sub_rect));

	ldr         x0,[sp,#8]
	bl          |?RectGetTop@@YAHPEAU_rect_@@@Z|
	mov         w0,w0
	mov         w1,w0
	add         x0,sp,#0x88
	bl          |?RectSetTop@@YAHPEAU_rect_@@H@Z|
	mov         w0,w0
	str         w0,[sp,#0x34]

; 212  : 		int left = RectSetLeft(&r, RectGetRight(cut_rect));

	ldr         x0,[sp,#0x18]
	bl          |?RectGetRight@@YAHPEAU_rect_@@@Z|
	mov         w0,w0
	mov         w1,w0
	add         x0,sp,#0x88
	bl          |?RectSetLeft@@YAHPEAU_rect_@@H@Z|
	mov         w0,w0
	str         w0,[sp,#0x30]

; 213  : 		int bottom = RectSetBottom(&r, RectGetBottom(sub_rect));

	ldr         x0,[sp,#8]
	bl          |?RectGetBottom@@YAHPEAU_rect_@@@Z|
	mov         w0,w0
	mov         w1,w0
	add         x0,sp,#0x88
	bl          |?RectSetBottom@@YAHPEAU_rect_@@H@Z|
	mov         w0,w0
	str         w0,[sp,#0x5C]

; 214  : 		int right = RectSetRight(&r, RectGetRight(sub_rect));

	ldr         x0,[sp,#8]
	bl          |?RectGetRight@@YAHPEAU_rect_@@@Z|
	mov         w0,w0
	mov         w1,w0
	add         x0,sp,#0x88
	bl          |?RectSetRight@@YAHPEAU_rect_@@H@Z|
	mov         w0,w0
	str         w0,[sp,#0x58]

; 215  : 
; 216  : 
; 217  : 		list[r_count].x = left;

	ldr         w8,[sp]
	sxtw        x9,w8
	mov         x8,#0x10
	mul         x9,x9,x8
	ldr         x8,[sp,#0x10]
	add         x9,x8,x9
	ldr         w8,[sp,#0x30]
	str         w8,[x9]

; 218  : 		list[r_count].y = top;

	ldr         w8,[sp]
	sxtw        x9,w8
	mov         x8,#0x10
	mul         x9,x9,x8
	ldr         x8,[sp,#0x10]
	add         x8,x8,x9
	add         x9,x8,#4
	ldr         w8,[sp,#0x34]
	str         w8,[x9]

; 219  : 		list[r_count].w = right - left;

	ldr         w9,[sp,#0x58]
	ldr         w8,[sp,#0x30]
	sub         w10,w9,w8
	ldr         w8,[sp]
	sxtw        x9,w8
	mov         x8,#0x10
	mul         x9,x9,x8
	ldr         x8,[sp,#0x10]
	add         x8,x8,x9
	add         x8,x8,#8
	str         w10,[x8]

; 220  : 		list[r_count].h = bottom - top;

	ldr         w9,[sp,#0x5C]
	ldr         w8,[sp,#0x34]
	sub         w10,w9,w8
	ldr         w8,[sp]
	sxtw        x9,w8
	mov         x8,#0x10
	mul         x9,x9,x8
	ldr         x8,[sp,#0x10]
	add         x8,x8,x9
	add         x8,x8,#0xC
	str         w10,[x8]

; 221  : 
; 222  : 		RectSetRight(sub_rect, RectGetRight(cut_rect));

	ldr         x0,[sp,#0x18]
	bl          |?RectGetRight@@YAHPEAU_rect_@@@Z|
	mov         w0,w0
	mov         w1,w0
	ldr         x0,[sp,#8]
	bl          |?RectSetRight@@YAHPEAU_rect_@@H@Z|
|$LN4@ClipSubtra|

; 223  : 	}
; 224  : 
; 225  : 	if (RectGetBottom(cut_rect) >= RectGetTop(sub_rect)
; 226  : 		&& RectGetBottom(cut_rect) <= RectGetBottom(sub_rect)) {

	ldr         x0,[sp,#0x18]
	bl          |?RectGetBottom@@YAHPEAU_rect_@@@Z|
	mov         w19,w0
	ldr         x0,[sp,#8]
	bl          |?RectGetTop@@YAHPEAU_rect_@@@Z|
	mov         w0,w0
	cmp         w19,w0
	blt         |$LN5@ClipSubtra|
	ldr         x0,[sp,#0x18]
	bl          |?RectGetBottom@@YAHPEAU_rect_@@@Z|
	mov         w19,w0
	ldr         x0,[sp,#8]
	bl          |?RectGetBottom@@YAHPEAU_rect_@@@Z|
	mov         w0,w0
	cmp         w19,w0
	bgt         |$LN5@ClipSubtra|

; 227  : 		Rect r;
; 228  : 		memcpy(&r, sub_rect, sizeof(Rect));

	mov         x2,#0x10
	ldr         x1,[sp,#8]
	add         x0,sp,#0x98
	bl          memcpy

; 229  : 		int top = RectSetTop(&r, RectGetBottom(cut_rect));

	ldr         x0,[sp,#0x18]
	bl          |?RectGetBottom@@YAHPEAU_rect_@@@Z|
	mov         w0,w0
	mov         w1,w0
	add         x0,sp,#0x98
	bl          |?RectSetTop@@YAHPEAU_rect_@@H@Z|
	mov         w0,w0
	str         w0,[sp,#0x3C]

; 230  : 		int left = RectSetLeft(&r, RectGetLeft(sub_rect));

	ldr         x0,[sp,#8]
	bl          |?RectGetLeft@@YAHPEAU_rect_@@@Z|
	mov         w0,w0
	mov         w1,w0
	add         x0,sp,#0x98
	bl          |?RectSetLeft@@YAHPEAU_rect_@@H@Z|
	mov         w0,w0
	str         w0,[sp,#0x38]

; 231  : 		int bottom = RectSetBottom(&r, RectGetBottom(sub_rect));

	ldr         x0,[sp,#8]
	bl          |?RectGetBottom@@YAHPEAU_rect_@@@Z|
	mov         w0,w0
	mov         w1,w0
	add         x0,sp,#0x98
	bl          |?RectSetBottom@@YAHPEAU_rect_@@H@Z|
	mov         w0,w0
	str         w0,[sp,#0x64]

; 232  : 		int right = RectSetRight(&r, RectGetRight(sub_rect));

	ldr         x0,[sp,#8]
	bl          |?RectGetRight@@YAHPEAU_rect_@@@Z|
	mov         w0,w0
	mov         w1,w0
	add         x0,sp,#0x98
	bl          |?RectSetRight@@YAHPEAU_rect_@@H@Z|
	mov         w0,w0
	str         w0,[sp,#0x60]

; 233  : 
; 234  : 
; 235  : 
; 236  : 		list[r_count].x = left;

	ldr         w8,[sp]
	sxtw        x9,w8
	mov         x8,#0x10
	mul         x9,x9,x8
	ldr         x8,[sp,#0x10]
	add         x9,x8,x9
	ldr         w8,[sp,#0x38]
	str         w8,[x9]

; 237  : 		list[r_count].y = top;

	ldr         w8,[sp]
	sxtw        x9,w8
	mov         x8,#0x10
	mul         x9,x9,x8
	ldr         x8,[sp,#0x10]
	add         x8,x8,x9
	add         x9,x8,#4
	ldr         w8,[sp,#0x3C]
	str         w8,[x9]

; 238  : 		list[r_count].w = right - left;

	ldr         w9,[sp,#0x60]
	ldr         w8,[sp,#0x38]
	sub         w10,w9,w8
	ldr         w8,[sp]
	sxtw        x9,w8
	mov         x8,#0x10
	mul         x9,x9,x8
	ldr         x8,[sp,#0x10]
	add         x8,x8,x9
	add         x8,x8,#8
	str         w10,[x8]

; 239  : 		list[r_count].h = bottom - top;

	ldr         w9,[sp,#0x64]
	ldr         w8,[sp,#0x3C]
	sub         w10,w9,w8
	ldr         w8,[sp]
	sxtw        x9,w8
	mov         x8,#0x10
	mul         x9,x9,x8
	ldr         x8,[sp,#0x10]
	add         x8,x8,x9
	add         x8,x8,#0xC
	str         w10,[x8]

; 240  : 		
; 241  : 		RectSetBottom(sub_rect, RectGetBottom(cut_rect));

	ldr         x0,[sp,#0x18]
	bl          |?RectGetBottom@@YAHPEAU_rect_@@@Z|
	mov         w0,w0
	mov         w1,w0
	ldr         x0,[sp,#8]
	bl          |?RectSetBottom@@YAHPEAU_rect_@@H@Z|
|$LN5@ClipSubtra|
	add         sp,sp,#0xB0
	ldp         x19,lr,[sp]
	add         sp,sp,#0x10
	ret

	ENDP  ; |?ClipSubtractRect@@YAXPEAU_rect_@@00H@Z|, ClipSubtractRect

; Function compile flags: /Odtpy
; File C:\Users\paras\source\repos\grep-name\XenevaOS\Process\Deodhai\clip.cpp

	AREA	|.text$mn|, CODE, ARM64

|?ClipCalculateRect@@YAXPEAU_rect_@@00PEAH@Z| PROC	; ClipCalculateRect

; 64   : void ClipCalculateRect(Rect *sub_rect, Rect* cut_rect, Rect *list, int *count) {

|$LN7|
	sub         sp,sp,#0x10
	stp         x19,lr,[sp]
	sub         sp,sp,#0xC0
	str         x0,[sp,#0x48]
	str         x1,[sp,#0x10]
	str         x2,[sp,#8]
	str         x3,[sp,#0x78]

; 65   : 
; 66   : 	int r_count = *count;

	ldr         x8,[sp,#0x78]
	ldr         w8,[x8]
	str         w8,[sp]

; 67   : 
; 68   : 	Rect subcopy;
; 69   : 	subcopy.x = sub_rect->x;

	ldr         x8,[sp,#0x48]
	ldr         w8,[x8]
	str         w8,[sp,#0x18]

; 70   : 	subcopy.y = sub_rect->y;

	ldr         x8,[sp,#0x48]
	add         x8,x8,#4
	ldr         w8,[x8]
	str         w8,[sp,#0x1C]

; 71   : 	subcopy.w = sub_rect->w;

	ldr         x8,[sp,#0x48]
	add         x8,x8,#8
	ldr         w8,[x8]
	str         w8,[sp,#0x20]

; 72   : 	subcopy.h = sub_rect->h;

	ldr         x8,[sp,#0x48]
	add         x8,x8,#0xC
	ldr         w8,[x8]
	str         w8,[sp,#0x24]

; 73   : 
; 74   : 	if (RectGetLeft(cut_rect) >= RectGetLeft(&subcopy) &&

	ldr         x0,[sp,#0x10]
	bl          |?RectGetLeft@@YAHPEAU_rect_@@@Z|
	mov         w19,w0
	add         x0,sp,#0x18
	bl          |?RectGetLeft@@YAHPEAU_rect_@@@Z|
	mov         w0,w0
	cmp         w19,w0
	blt         |$LN2@ClipCalcul|
	ldr         x0,[sp,#0x10]
	bl          |?RectGetLeft@@YAHPEAU_rect_@@@Z|
	mov         w19,w0
	add         x0,sp,#0x18
	bl          |?RectGetRight@@YAHPEAU_rect_@@@Z|
	mov         w0,w0
	cmp         w19,w0
	bgt         |$LN2@ClipCalcul|

; 75   : 		RectGetLeft(cut_rect) <= RectGetRight(&subcopy)) {
; 76   : 		Rect r;
; 77   : 		memcpy(&r, &subcopy, sizeof(Rect));

	mov         x2,#0x10
	add         x1,sp,#0x18
	add         x0,sp,#0x80
	bl          memcpy

; 78   : 		int top = RectSetTop(&r, RectGetTop(&subcopy));

	add         x0,sp,#0x18
	bl          |?RectGetTop@@YAHPEAU_rect_@@@Z|
	mov         w0,w0
	mov         w1,w0
	add         x0,sp,#0x80
	bl          |?RectSetTop@@YAHPEAU_rect_@@H@Z|
	mov         w0,w0
	str         w0,[sp,#0x2C]

; 79   : 		int left = RectSetLeft(&r, RectGetLeft(&subcopy));

	add         x0,sp,#0x18
	bl          |?RectGetLeft@@YAHPEAU_rect_@@@Z|
	mov         w0,w0
	mov         w1,w0
	add         x0,sp,#0x80
	bl          |?RectSetLeft@@YAHPEAU_rect_@@H@Z|
	mov         w0,w0
	str         w0,[sp,#0x28]

; 80   : 		int bottom = RectSetBottom(&r, RectGetBottom(&subcopy));

	add         x0,sp,#0x18
	bl          |?RectGetBottom@@YAHPEAU_rect_@@@Z|
	mov         w0,w0
	mov         w1,w0
	add         x0,sp,#0x80
	bl          |?RectSetBottom@@YAHPEAU_rect_@@H@Z|
	mov         w0,w0
	str         w0,[sp,#0x54]

; 81   : 		int right = RectSetRight(&r, RectGetLeft(cut_rect));

	ldr         x0,[sp,#0x10]
	bl          |?RectGetLeft@@YAHPEAU_rect_@@@Z|
	mov         w0,w0
	mov         w1,w0
	add         x0,sp,#0x80
	bl          |?RectSetRight@@YAHPEAU_rect_@@H@Z|
	mov         w0,w0
	str         w0,[sp,#0x50]

; 82   : 
; 83   : 		list[r_count].x = left; 

	ldr         w8,[sp]
	sxtw        x9,w8
	mov         x8,#0x10
	mul         x9,x9,x8
	ldr         x8,[sp,#8]
	add         x9,x8,x9
	ldr         w8,[sp,#0x28]
	str         w8,[x9]

; 84   : 		list[r_count].y = top;  

	ldr         w8,[sp]
	sxtw        x9,w8
	mov         x8,#0x10
	mul         x9,x9,x8
	ldr         x8,[sp,#8]
	add         x8,x8,x9
	add         x9,x8,#4
	ldr         w8,[sp,#0x2C]
	str         w8,[x9]

; 85   : 		list[r_count].w = right - left; 

	ldr         w9,[sp,#0x50]
	ldr         w8,[sp,#0x28]
	sub         w10,w9,w8
	ldr         w8,[sp]
	sxtw        x9,w8
	mov         x8,#0x10
	mul         x9,x9,x8
	ldr         x8,[sp,#8]
	add         x8,x8,x9
	add         x8,x8,#8
	str         w10,[x8]

; 86   : 		list[r_count].h = bottom - top;

	ldr         w9,[sp,#0x54]
	ldr         w8,[sp,#0x2C]
	sub         w10,w9,w8
	ldr         w8,[sp]
	sxtw        x9,w8
	mov         x8,#0x10
	mul         x9,x9,x8
	ldr         x8,[sp,#8]
	add         x8,x8,x9
	add         x8,x8,#0xC
	str         w10,[x8]

; 87   : 		r_count++;

	ldr         w8,[sp]
	add         w8,w8,#1
	str         w8,[sp]

; 88   : 
; 89   : 		int n_l = RectSetLeft(&subcopy, RectGetLeft(cut_rect));

	ldr         x0,[sp,#0x10]
	bl          |?RectGetLeft@@YAHPEAU_rect_@@@Z|
	mov         w0,w0
	mov         w1,w0
	add         x0,sp,#0x18
	bl          |?RectSetLeft@@YAHPEAU_rect_@@H@Z|
	mov         w0,w0
	str         w0,[sp,#0x58]

; 90   : 		subcopy.x = n_l;

	ldr         w8,[sp,#0x58]
	str         w8,[sp,#0x18]
|$LN2@ClipCalcul|

; 91   : 	}
; 92   : 
; 93   : 	if (RectGetTop(cut_rect) >= RectGetTop(&subcopy) &&

	ldr         x0,[sp,#0x10]
	bl          |?RectGetTop@@YAHPEAU_rect_@@@Z|
	mov         w19,w0
	add         x0,sp,#0x18
	bl          |?RectGetTop@@YAHPEAU_rect_@@@Z|
	mov         w0,w0
	cmp         w19,w0
	blt         |$LN3@ClipCalcul|
	ldr         x0,[sp,#0x10]
	bl          |?RectGetTop@@YAHPEAU_rect_@@@Z|
	mov         w19,w0
	add         x0,sp,#0x18
	bl          |?RectGetBottom@@YAHPEAU_rect_@@@Z|
	mov         w0,w0
	cmp         w19,w0
	bgt         |$LN3@ClipCalcul|

; 94   : 		RectGetTop(cut_rect) <= RectGetBottom(&subcopy)) {
; 95   : 
; 96   : 		Rect r;
; 97   : 		memcpy(&r, &subcopy, sizeof(Rect));

	mov         x2,#0x10
	add         x1,sp,#0x18
	add         x0,sp,#0x90
	bl          memcpy

; 98   : 		int top = RectSetTop(&r, RectGetTop(&subcopy));

	add         x0,sp,#0x18
	bl          |?RectGetTop@@YAHPEAU_rect_@@@Z|
	mov         w0,w0
	mov         w1,w0
	add         x0,sp,#0x90
	bl          |?RectSetTop@@YAHPEAU_rect_@@H@Z|
	mov         w0,w0
	str         w0,[sp,#0x34]

; 99   : 		int left = RectSetLeft(&r, RectGetLeft(&subcopy));

	add         x0,sp,#0x18
	bl          |?RectGetLeft@@YAHPEAU_rect_@@@Z|
	mov         w0,w0
	mov         w1,w0
	add         x0,sp,#0x90
	bl          |?RectSetLeft@@YAHPEAU_rect_@@H@Z|
	mov         w0,w0
	str         w0,[sp,#0x30]

; 100  : 		int bottom = RectSetBottom(&r, RectGetTop(cut_rect));

	ldr         x0,[sp,#0x10]
	bl          |?RectGetTop@@YAHPEAU_rect_@@@Z|
	mov         w0,w0
	mov         w1,w0
	add         x0,sp,#0x90
	bl          |?RectSetBottom@@YAHPEAU_rect_@@H@Z|
	mov         w0,w0
	str         w0,[sp,#0x60]

; 101  : 		int right = RectSetRight(&r, RectGetRight(&subcopy));

	add         x0,sp,#0x18
	bl          |?RectGetRight@@YAHPEAU_rect_@@@Z|
	mov         w0,w0
	mov         w1,w0
	add         x0,sp,#0x90
	bl          |?RectSetRight@@YAHPEAU_rect_@@H@Z|
	mov         w0,w0
	str         w0,[sp,#0x5C]

; 102  : 
; 103  : 		
; 104  : 		list[r_count].x = left;

	ldr         w8,[sp]
	sxtw        x9,w8
	mov         x8,#0x10
	mul         x9,x9,x8
	ldr         x8,[sp,#8]
	add         x9,x8,x9
	ldr         w8,[sp,#0x30]
	str         w8,[x9]

; 105  : 		list[r_count].y = top; 

	ldr         w8,[sp]
	sxtw        x9,w8
	mov         x8,#0x10
	mul         x9,x9,x8
	ldr         x8,[sp,#8]
	add         x8,x8,x9
	add         x9,x8,#4
	ldr         w8,[sp,#0x34]
	str         w8,[x9]

; 106  : 		list[r_count].w = right - left; 

	ldr         w9,[sp,#0x5C]
	ldr         w8,[sp,#0x30]
	sub         w10,w9,w8
	ldr         w8,[sp]
	sxtw        x9,w8
	mov         x8,#0x10
	mul         x9,x9,x8
	ldr         x8,[sp,#8]
	add         x8,x8,x9
	add         x8,x8,#8
	str         w10,[x8]

; 107  : 		list[r_count].h = bottom - top; 

	ldr         w9,[sp,#0x60]
	ldr         w8,[sp,#0x34]
	sub         w10,w9,w8
	ldr         w8,[sp]
	sxtw        x9,w8
	mov         x8,#0x10
	mul         x9,x9,x8
	ldr         x8,[sp,#8]
	add         x8,x8,x9
	add         x8,x8,#0xC
	str         w10,[x8]

; 108  : 		r_count++;

	ldr         w8,[sp]
	add         w8,w8,#1
	str         w8,[sp]

; 109  : 		int n_t =  RectSetTop(&subcopy, RectGetTop(cut_rect));

	ldr         x0,[sp,#0x10]
	bl          |?RectGetTop@@YAHPEAU_rect_@@@Z|
	mov         w0,w0
	mov         w1,w0
	add         x0,sp,#0x18
	bl          |?RectSetTop@@YAHPEAU_rect_@@H@Z|
	mov         w0,w0
	str         w0,[sp,#0x64]

; 110  : 		subcopy.y = n_t;

	ldr         w8,[sp,#0x64]
	str         w8,[sp,#0x1C]
|$LN3@ClipCalcul|

; 111  : 	}
; 112  : 
; 113  : 	if (RectGetRight(cut_rect) >= RectGetLeft(&subcopy)
; 114  : 		&& RectGetRight(cut_rect) < RectGetRight(&subcopy)) {

	ldr         x0,[sp,#0x10]
	bl          |?RectGetRight@@YAHPEAU_rect_@@@Z|
	mov         w19,w0
	add         x0,sp,#0x18
	bl          |?RectGetLeft@@YAHPEAU_rect_@@@Z|
	mov         w0,w0
	cmp         w19,w0
	blt         |$LN4@ClipCalcul|
	ldr         x0,[sp,#0x10]
	bl          |?RectGetRight@@YAHPEAU_rect_@@@Z|
	mov         w19,w0
	add         x0,sp,#0x18
	bl          |?RectGetRight@@YAHPEAU_rect_@@@Z|
	mov         w0,w0
	cmp         w19,w0
	bge         |$LN4@ClipCalcul|

; 115  : 
; 116  : 		Rect r;
; 117  : 		memcpy(&r, &subcopy, sizeof(Rect));

	mov         x2,#0x10
	add         x1,sp,#0x18
	add         x0,sp,#0xA0
	bl          memcpy

; 118  : 		int top = RectSetTop(&r, RectGetTop(&subcopy));

	add         x0,sp,#0x18
	bl          |?RectGetTop@@YAHPEAU_rect_@@@Z|
	mov         w0,w0
	mov         w1,w0
	add         x0,sp,#0xA0
	bl          |?RectSetTop@@YAHPEAU_rect_@@H@Z|
	mov         w0,w0
	str         w0,[sp,#0x3C]

; 119  : 		int left = RectSetLeft(&r, RectGetRight(cut_rect));

	ldr         x0,[sp,#0x10]
	bl          |?RectGetRight@@YAHPEAU_rect_@@@Z|
	mov         w0,w0
	mov         w1,w0
	add         x0,sp,#0xA0
	bl          |?RectSetLeft@@YAHPEAU_rect_@@H@Z|
	mov         w0,w0
	str         w0,[sp,#0x38]

; 120  : 		int bottom = RectSetBottom(&r, RectGetBottom(&subcopy));

	add         x0,sp,#0x18
	bl          |?RectGetBottom@@YAHPEAU_rect_@@@Z|
	mov         w0,w0
	mov         w1,w0
	add         x0,sp,#0xA0
	bl          |?RectSetBottom@@YAHPEAU_rect_@@H@Z|
	mov         w0,w0
	str         w0,[sp,#0x6C]

; 121  : 		int right = RectSetRight(&r, RectGetRight(&subcopy));

	add         x0,sp,#0x18
	bl          |?RectGetRight@@YAHPEAU_rect_@@@Z|
	mov         w0,w0
	mov         w1,w0
	add         x0,sp,#0xA0
	bl          |?RectSetRight@@YAHPEAU_rect_@@H@Z|
	mov         w0,w0
	str         w0,[sp,#0x68]

; 122  : 
; 123  : 
; 124  : 		list[r_count].x = left; 

	ldr         w8,[sp]
	sxtw        x9,w8
	mov         x8,#0x10
	mul         x9,x9,x8
	ldr         x8,[sp,#8]
	add         x9,x8,x9
	ldr         w8,[sp,#0x38]
	str         w8,[x9]

; 125  : 		list[r_count].y = top;

	ldr         w8,[sp]
	sxtw        x9,w8
	mov         x8,#0x10
	mul         x9,x9,x8
	ldr         x8,[sp,#8]
	add         x8,x8,x9
	add         x9,x8,#4
	ldr         w8,[sp,#0x3C]
	str         w8,[x9]

; 126  : 		list[r_count].w = right - left; 

	ldr         w9,[sp,#0x68]
	ldr         w8,[sp,#0x38]
	sub         w10,w9,w8
	ldr         w8,[sp]
	sxtw        x9,w8
	mov         x8,#0x10
	mul         x9,x9,x8
	ldr         x8,[sp,#8]
	add         x8,x8,x9
	add         x8,x8,#8
	str         w10,[x8]

; 127  : 		list[r_count].h = bottom - top; 

	ldr         w9,[sp,#0x6C]
	ldr         w8,[sp,#0x3C]
	sub         w10,w9,w8
	ldr         w8,[sp]
	sxtw        x9,w8
	mov         x8,#0x10
	mul         x9,x9,x8
	ldr         x8,[sp,#8]
	add         x8,x8,x9
	add         x8,x8,#0xC
	str         w10,[x8]

; 128  : 		r_count++;

	ldr         w8,[sp]
	add         w8,w8,#1
	str         w8,[sp]

; 129  : 		
; 130  : 		RectSetRight(&subcopy, RectGetRight(cut_rect));

	ldr         x0,[sp,#0x10]
	bl          |?RectGetRight@@YAHPEAU_rect_@@@Z|
	mov         w0,w0
	mov         w1,w0
	add         x0,sp,#0x18
	bl          |?RectSetRight@@YAHPEAU_rect_@@H@Z|
|$LN4@ClipCalcul|

; 131  : 	}
; 132  : 
; 133  : 	if (RectGetBottom(cut_rect) >= RectGetTop(&subcopy)
; 134  : 		&& RectGetBottom(cut_rect) <= RectGetBottom(&subcopy)) {

	ldr         x0,[sp,#0x10]
	bl          |?RectGetBottom@@YAHPEAU_rect_@@@Z|
	mov         w19,w0
	add         x0,sp,#0x18
	bl          |?RectGetTop@@YAHPEAU_rect_@@@Z|
	mov         w0,w0
	cmp         w19,w0
	blt         |$LN5@ClipCalcul|
	ldr         x0,[sp,#0x10]
	bl          |?RectGetBottom@@YAHPEAU_rect_@@@Z|
	mov         w19,w0
	add         x0,sp,#0x18
	bl          |?RectGetBottom@@YAHPEAU_rect_@@@Z|
	mov         w0,w0
	cmp         w19,w0
	bgt         |$LN5@ClipCalcul|

; 135  : 		Rect r;
; 136  : 		memcpy(&r, &subcopy, sizeof(Rect));

	mov         x2,#0x10
	add         x1,sp,#0x18
	add         x0,sp,#0xB0
	bl          memcpy

; 137  : 		int top = RectSetTop(&r, RectGetBottom(cut_rect));

	ldr         x0,[sp,#0x10]
	bl          |?RectGetBottom@@YAHPEAU_rect_@@@Z|
	mov         w0,w0
	mov         w1,w0
	add         x0,sp,#0xB0
	bl          |?RectSetTop@@YAHPEAU_rect_@@H@Z|
	mov         w0,w0
	str         w0,[sp,#0x44]

; 138  : 		int left = RectSetLeft(&r, RectGetLeft(&subcopy));

	add         x0,sp,#0x18
	bl          |?RectGetLeft@@YAHPEAU_rect_@@@Z|
	mov         w0,w0
	mov         w1,w0
	add         x0,sp,#0xB0
	bl          |?RectSetLeft@@YAHPEAU_rect_@@H@Z|
	mov         w0,w0
	str         w0,[sp,#0x40]

; 139  : 		int bottom = RectSetBottom(&r, RectGetBottom(&subcopy));

	add         x0,sp,#0x18
	bl          |?RectGetBottom@@YAHPEAU_rect_@@@Z|
	mov         w0,w0
	mov         w1,w0
	add         x0,sp,#0xB0
	bl          |?RectSetBottom@@YAHPEAU_rect_@@H@Z|
	mov         w0,w0
	str         w0,[sp,#0x74]

; 140  : 		int right = RectSetRight(&r, RectGetRight(&subcopy));

	add         x0,sp,#0x18
	bl          |?RectGetRight@@YAHPEAU_rect_@@@Z|
	mov         w0,w0
	mov         w1,w0
	add         x0,sp,#0xB0
	bl          |?RectSetRight@@YAHPEAU_rect_@@H@Z|
	mov         w0,w0
	str         w0,[sp,#0x70]

; 141  : 
; 142  : 
; 143  : 
; 144  : 		list[r_count].x = left;

	ldr         w8,[sp]
	sxtw        x9,w8
	mov         x8,#0x10
	mul         x9,x9,x8
	ldr         x8,[sp,#8]
	add         x9,x8,x9
	ldr         w8,[sp,#0x40]
	str         w8,[x9]

; 145  : 		list[r_count].y = top; 

	ldr         w8,[sp]
	sxtw        x9,w8
	mov         x8,#0x10
	mul         x9,x9,x8
	ldr         x8,[sp,#8]
	add         x8,x8,x9
	add         x9,x8,#4
	ldr         w8,[sp,#0x44]
	str         w8,[x9]

; 146  : 		list[r_count].w = right - left; 

	ldr         w9,[sp,#0x70]
	ldr         w8,[sp,#0x40]
	sub         w10,w9,w8
	ldr         w8,[sp]
	sxtw        x9,w8
	mov         x8,#0x10
	mul         x9,x9,x8
	ldr         x8,[sp,#8]
	add         x8,x8,x9
	add         x8,x8,#8
	str         w10,[x8]

; 147  : 		list[r_count].h = bottom - top; 

	ldr         w9,[sp,#0x74]
	ldr         w8,[sp,#0x44]
	sub         w10,w9,w8
	ldr         w8,[sp]
	sxtw        x9,w8
	mov         x8,#0x10
	mul         x9,x9,x8
	ldr         x8,[sp,#8]
	add         x8,x8,x9
	add         x8,x8,#0xC
	str         w10,[x8]

; 148  : 		r_count++;

	ldr         w8,[sp]
	add         w8,w8,#1
	str         w8,[sp]

; 149  : 		RectSetBottom(&subcopy, RectGetBottom(cut_rect));

	ldr         x0,[sp,#0x10]
	bl          |?RectGetBottom@@YAHPEAU_rect_@@@Z|
	mov         w0,w0
	mov         w1,w0
	add         x0,sp,#0x18
	bl          |?RectSetBottom@@YAHPEAU_rect_@@H@Z|
|$LN5@ClipCalcul|

; 150  : 	}
; 151  : 
; 152  : 	*count = r_count;

	ldr         x9,[sp,#0x78]
	ldr         w8,[sp]
	str         w8,[x9]
	add         sp,sp,#0xC0
	ldp         x19,lr,[sp]
	add         sp,sp,#0x10
	ret

	ENDP  ; |?ClipCalculateRect@@YAXPEAU_rect_@@00PEAH@Z|, ClipCalculateRect

; Function compile flags: /Odtpy
; File C:\Users\paras\source\repos\grep-name\XenevaOS\Process\Deodhai\clip.cpp

	AREA	|.text$mn|, CODE, ARM64

|?ClipCheckIntersect@@YADPEAU_rect_@@0@Z| PROC		; ClipCheckIntersect

; 44   : bool ClipCheckIntersect(Rect *r1, Rect *r2) {

|$LN9|
	str         lr,[sp,#-0x10]!
	sub         sp,sp,#0x20
	str         x0,[sp,#8]
	str         x1,[sp,#0x10]

; 45   : 
; 46   : 	bool xOverlap = ClipValueInRange(r1->x, r2->x, r2->x + r2->w) ||

	ldr         x9,[sp,#0x10]
	ldr         x8,[sp,#0x10]
	add         x8,x8,#8
	ldr         w9,[x9]
	ldr         w8,[x8]
	add         w2,w9,w8
	ldr         x9,[sp,#0x10]
	ldr         x8,[sp,#8]
	mov         w2,w2
	ldr         w1,[x9]
	ldr         w0,[x8]
	bl          |?ClipValueInRange@@YADHHH@Z|
	sxtb        w8,w0
	mov         w8,w8
	cmp         w8,#0
	bne         |$LN3@ClipCheckI|
	ldr         x9,[sp,#8]
	ldr         x8,[sp,#8]
	add         x8,x8,#8
	ldr         w9,[x9]
	ldr         w8,[x8]
	add         w2,w9,w8
	ldr         x9,[sp,#8]
	ldr         x8,[sp,#0x10]
	mov         w2,w2
	ldr         w1,[x9]
	ldr         w0,[x8]
	bl          |?ClipValueInRange@@YADHHH@Z|
	sxtb        w8,w0
	mov         w8,w8
	cmp         w8,#0
	bne         |$LN3@ClipCheckI|
	mov         w8,#0
	strb        w8,[sp]
	b           |$LN4@ClipCheckI|
|$LN3@ClipCheckI|
	mov         w8,#1
	strb        w8,[sp]
|$LN4@ClipCheckI|
	ldrsb       w8,[sp]
	strb        w8,[sp,#3]

; 47   : 		ClipValueInRange(r2->x, r1->x, r1->x + r1->w);
; 48   : 
; 49   : 	bool yOverlap = ClipValueInRange(r1->y, r2->y, r2->y + r2->h) ||

	ldr         x8,[sp,#0x10]
	add         x9,x8,#4
	ldr         x8,[sp,#0x10]
	add         x8,x8,#0xC
	ldr         w9,[x9]
	ldr         w8,[x8]
	add         w2,w9,w8
	ldr         x8,[sp,#0x10]
	add         x9,x8,#4
	ldr         x8,[sp,#8]
	add         x8,x8,#4
	mov         w2,w2
	ldr         w1,[x9]
	ldr         w0,[x8]
	bl          |?ClipValueInRange@@YADHHH@Z|
	sxtb        w8,w0
	mov         w8,w8
	cmp         w8,#0
	bne         |$LN5@ClipCheckI|
	ldr         x8,[sp,#8]
	add         x9,x8,#4
	ldr         x8,[sp,#8]
	add         x8,x8,#0xC
	ldr         w9,[x9]
	ldr         w8,[x8]
	add         w2,w9,w8
	ldr         x8,[sp,#8]
	add         x9,x8,#4
	ldr         x8,[sp,#0x10]
	add         x8,x8,#4
	mov         w2,w2
	ldr         w1,[x9]
	ldr         w0,[x8]
	bl          |?ClipValueInRange@@YADHHH@Z|
	sxtb        w8,w0
	mov         w8,w8
	cmp         w8,#0
	bne         |$LN5@ClipCheckI|
	mov         w8,#0
	strb        w8,[sp,#1]
	b           |$LN6@ClipCheckI|
|$LN5@ClipCheckI|
	mov         w8,#1
	strb        w8,[sp,#1]
|$LN6@ClipCheckI|
	ldrsb       w8,[sp,#1]
	strb        w8,[sp,#4]

; 50   : 		ClipValueInRange(r2->y, r1->y, r1->y + r1->h);
; 51   : 
; 52   : 	return xOverlap && yOverlap;

	ldrsb       w8,[sp,#3]
	mov         w8,w8
	cmp         w8,#0
	beq         |$LN7@ClipCheckI|
	ldrsb       w8,[sp,#4]
	mov         w8,w8
	cmp         w8,#0
	beq         |$LN7@ClipCheckI|
	mov         w8,#1
	strb        w8,[sp,#2]
	b           |$LN8@ClipCheckI|
|$LN7@ClipCheckI|
	mov         w8,#0
	strb        w8,[sp,#2]
|$LN8@ClipCheckI|
	ldrsb       w0,[sp,#2]
	add         sp,sp,#0x20
	ldr         lr,[sp],#0x10
	ret

	ENDP  ; |?ClipCheckIntersect@@YADPEAU_rect_@@0@Z|, ClipCheckIntersect

	END
