; Listing generated by Microsoft (R) Optimizing Compiler Version 19.29.30159.0 

	TTL	C:\Users\paras\source\repos\grep-name\XenevaOS\Process\Deodhai\ARM64\Debug\cursor.obj
	ARM64

	AREA	|.drectve|, DRECTVE

	EXPORT	|?cur_w@@3HA| [ DATA ]			; cur_w
	EXPORT	|?cur_h@@3HA| [ DATA ]			; cur_h
	EXPORT	|?imageData@@3PEAEEA| [ DATA ]		; imageData

	AREA	|.bss|, NOINIT
|?cur_w@@3HA| %	0x4					; cur_w
|?cur_h@@3HA| %	0x4					; cur_h
|?imageData@@3PEAEEA| % 0x8				; imageData

	AREA	|.rdata|, DATA, READONLY
|$SG3477| DCB	"OFFSet : %x ", 0xd, 0xa, 0x0
	%	1
|$SG3478| DCB	"Cursor width : %d ", 0xd, 0xa, 0x0
	%	3
|$SG3479| DCB	"Cursor height : %d ", 0xd, 0xa, 0x0
	%	2
|$SG3480| DCB	"Cursor bpp : %d ", 0xd, 0xa, 0x0
	EXPORT	|?CursorOpen@@YAPEAU_cursor_@@PEADE@Z|	; CursorOpen
	EXPORT	|?CursorRead@@YAXPEAU_cursor_@@@Z|	; CursorRead
	EXPORT	|?CursorDraw@@YAXPEAU_ChCanvas_@@PEAU_cursor_@@II@Z| ; CursorDraw
	IMPORT	|_KePrint|
	IMPORT	|ChDrawPixelRAW|
	IMPORT	|memset|
	IMPORT	|memcpy|
	IMPORT	|malloc|
	IMPORT	|_KeOpenFile|
	IMPORT	|_KeReadFile|
	IMPORT	|_KeFileStat|
	IMPORT	|_KeMemMap|

	AREA	|.pdata|, PDATA
|$pdata$?CursorOpen@@YAPEAU_cursor_@@PEADE@Z| DCD imagerel |$LN3|
	DCD	0x2a000b5
	;Flags[SingleProEpi] functionLength[180] RegF[0] RegI[0] H[0] frameChainReturn[UnChainedSavedLR] frameSize[80]
|$pdata$?CursorRead@@YAXPEAU_cursor_@@@Z| DCD imagerel |$LN4|
	DCD	0x22001b1
	;Flags[SingleProEpi] functionLength[432] RegF[0] RegI[0] H[0] frameChainReturn[UnChainedSavedLR] frameSize[64]
|$pdata$?CursorDraw@@YAXPEAU_ChCanvas_@@PEAU_cursor_@@II@Z| DCD imagerel |$LN10|
	DCD	0x3a00239
	;Flags[SingleProEpi] functionLength[568] RegF[0] RegI[0] H[0] frameChainReturn[UnChainedSavedLR] frameSize[112]
; Function compile flags: /Odtpy
; File C:\Users\paras\source\repos\grep-name\XenevaOS\Process\Deodhai\cursor.cpp

	AREA	|.text$mn|, CODE, ARM64

|?CursorDraw@@YAXPEAU_ChCanvas_@@PEAU_cursor_@@II@Z| PROC ; CursorDraw

; 115  : void CursorDraw(ChCanvas* canv, Cursor* cur, unsigned int x, unsigned int y) {

|$LN10|
	str         lr,[sp,#-0x10]!
	sub         sp,sp,#0x60
	str         x0,[sp,#0x50]
	str         x1,[sp,#0x40]
	str         w2,[sp,#0x34]
	str         w3,[sp,#0x30]

; 116  : 	uint32_t width = cur_w;

	adrp        x8,|?cur_w@@3HA|
	ldr         w8,[x8,PageOffset(|?cur_w@@3HA|)]
	str         w8,[sp,#0x10]

; 117  : 	uint32_t height = cur_h;

	adrp        x8,|?cur_h@@3HA|
	ldr         w8,[x8,PageOffset(|?cur_h@@3HA|)]
	str         w8,[sp,#0xC]

; 118  : 	uint32_t j = 0;

	mov         w8,#0
	str         w8,[sp]

; 119  : 
; 120  : 	uint8_t* image = cur->imageData;

	ldr         x8,[sp,#0x40]
	add         x8,x8,#8
	ldr         x8,[x8]
	str         x8,[sp,#0x48]

; 121  : 	for (int i = 0; i < height; i++) {

	mov         w8,#0
	str         w8,[sp,#4]
	b           |$LN4@CursorDraw|
|$LN2@CursorDraw|
	ldr         w8,[sp,#4]
	add         w8,w8,#1
	str         w8,[sp,#4]
|$LN4@CursorDraw|
	ldr         w9,[sp,#0xC]
	ldr         w8,[sp,#4]
	cmp         w8,w9
	bhs         |$LN3@CursorDraw|

; 122  : 		unsigned char* image_row = (unsigned char*)(image + (static_cast<uint64_t>(height) - i - 1) * 

	ldr         w8,[sp,#0xC]
	uxtw        x9,w8
	ldr         w8,[sp,#4]
	sxtw        x8,w8
	sub         x8,x9,x8
	sub         x10,x8,#1
	ldr         w8,[sp,#0x10]
	uxtw        x9,w8
	mov         x8,#4
	mul         x8,x9,x8
	mul         x9,x10,x8
	ldr         x8,[sp,#0x48]
	add         x8,x8,x9
	str         x8,[sp,#0x18]

; 123  : 			(static_cast<uint64_t>(width) * 4));
; 124  : 		uint32_t h = height - 1 - i;

	ldr         w8,[sp,#0xC]
	sub         w9,w8,#1
	ldr         w8,[sp,#4]
	sub         w8,w9,w8
	str         w8,[sp,#0x38]

; 125  : 		j = 0;

	mov         w8,#0
	str         w8,[sp]

; 126  : 		for (int k = 0; k < width; k++) {

	mov         w8,#0
	str         w8,[sp,#8]
	b           |$LN7@CursorDraw|
|$LN5@CursorDraw|
	ldr         w8,[sp,#8]
	add         w8,w8,#1
	str         w8,[sp,#8]
|$LN7@CursorDraw|
	ldr         w9,[sp,#0x10]
	ldr         w8,[sp,#8]
	cmp         w8,w9
	bhs         |$LN6@CursorDraw|

; 127  : 			uint32_t b = image_row[j++] & 0xff;

	ldr         w8,[sp]
	uxtw        x9,w8
	mov         x8,#1
	mul         x9,x9,x8
	ldr         x8,[sp,#0x18]
	add         x8,x8,x9
	ldrb        w8,[x8]
	mov         w8,w8
	and         w8,w8,#0xFF
	str         w8,[sp,#0x2C]
	ldr         w8,[sp]
	add         w8,w8,#1
	str         w8,[sp]

; 128  : 			uint32_t g = image_row[j++] & 0xff;

	ldr         w8,[sp]
	uxtw        x9,w8
	mov         x8,#1
	mul         x9,x9,x8
	ldr         x8,[sp,#0x18]
	add         x8,x8,x9
	ldrb        w8,[x8]
	mov         w8,w8
	and         w8,w8,#0xFF
	str         w8,[sp,#0x28]
	ldr         w8,[sp]
	add         w8,w8,#1
	str         w8,[sp]

; 129  : 			uint32_t r = image_row[j++] & 0xff;

	ldr         w8,[sp]
	uxtw        x9,w8
	mov         x8,#1
	mul         x9,x9,x8
	ldr         x8,[sp,#0x18]
	add         x8,x8,x9
	ldrb        w8,[x8]
	mov         w8,w8
	and         w8,w8,#0xFF
	str         w8,[sp,#0x24]
	ldr         w8,[sp]
	add         w8,w8,#1
	str         w8,[sp]

; 130  : 			uint32_t a = image_row[j++] & 0xff;

	ldr         w8,[sp]
	uxtw        x9,w8
	mov         x8,#1
	mul         x9,x9,x8
	ldr         x8,[sp,#0x18]
	add         x8,x8,x9
	ldrb        w8,[x8]
	mov         w8,w8
	and         w8,w8,#0xFF
	str         w8,[sp,#0x20]
	ldr         w8,[sp]
	add         w8,w8,#1
	str         w8,[sp]

; 131  : 			uint32_t rgb = ((a << 24) | (r << 16) | (g << 8) | (b));

	ldr         w8,[sp,#0x20]
	lsl         w9,w8,#0x18
	ldr         w8,[sp,#0x24]
	lsl         w8,w8,#0x10
	orr         w9,w9,w8
	ldr         w8,[sp,#0x28]
	lsl         w8,w8,#8
	orr         w9,w9,w8
	ldr         w8,[sp,#0x2C]
	orr         w8,w9,w8
	str         w8,[sp,#0x14]

; 132  : 			if (rgb & 0xFF000000)

	ldr         w8,[sp,#0x14]
	and         w8,w8,#0xFF000000
	cmp         w8,#0
	beq         |$LN8@CursorDraw|

; 133  : 				ChDrawPixelRAW(canv, x + k, y + i, rgb);

	ldr         w9,[sp,#0x30]
	ldr         w8,[sp,#4]
	add         w2,w9,w8
	ldr         w9,[sp,#0x34]
	ldr         w8,[sp,#8]
	add         w1,w9,w8
	ldr         w3,[sp,#0x14]
	mov         w2,w2
	mov         w1,w1
	ldr         x0,[sp,#0x50]
	bl          ChDrawPixelRAW
|$LN8@CursorDraw|

; 134  : 		}

	b           |$LN5@CursorDraw|
|$LN6@CursorDraw|

; 135  : 	}

	b           |$LN2@CursorDraw|
|$LN3@CursorDraw|
	add         sp,sp,#0x60
	ldr         lr,[sp],#0x10
	ret

	ENDP  ; |?CursorDraw@@YAXPEAU_ChCanvas_@@PEAU_cursor_@@II@Z|, CursorDraw

; Function compile flags: /Odtpy
; File C:\Users\paras\source\repos\grep-name\XenevaOS\Process\Deodhai\cursor.cpp

	AREA	|.text$mn|, CODE, ARM64

|?CursorRead@@YAXPEAU_cursor_@@@Z| PROC			; CursorRead

; 64   : void CursorRead(Cursor* cur) {

|$LN4|
	str         lr,[sp,#-0x10]!
	sub         sp,sp,#0x30
	str         x0,[sp,#0x10]

; 65   : 	if (!cur)

	ldr         x8,[sp,#0x10]
	cmp         x8,#0
	bne         |$LN2@CursorRead|

; 66   : 		return;

	b           |$LN1@CursorRead|
|$LN2@CursorRead|

; 67   : 	_KeReadFile(cur->cursorFD, cur->fileBuffer, cur->cursorFileSize);

	ldr         x8,[sp,#0x10]
	add         x10,x8,#0x40
	ldr         x8,[sp,#0x10]
	add         x9,x8,#0x30
	ldr         x8,[sp,#0x10]
	add         x8,x8,#0x1C
	ldr         x2,[x10]
	ldr         x1,[x9]
	ldr         w0,[x8]
	bl          _KeReadFile

; 68   : 
; 69   : 	uint8_t* buffer = (uint8_t*)cur->fileBuffer;

	ldr         x8,[sp,#0x10]
	add         x8,x8,#0x30
	ldr         x8,[x8]
	str         x8,[sp,#0x20]

; 70   : 
; 71   : #ifdef ARCH_X64
; 72   : 	BMP* bmp = (BMP*)buffer;
; 73   : 	unsigned int offset = bmp->off_bits;
; 74   : 
; 75   : 	BMPInfo* info = (BMPInfo*)(buffer + sizeof(BMP));
; 76   : 	int width = info->biWidth;
; 77   : 	int height = info->biHeight;
; 78   : 	int bpp = info->biBitCount;
; 79   : #elif ARCH_ARM64
; 80   : 	//BMP* bmp = (BMP*)buffer;
; 81   : 	unsigned int offset; // = bmp->off_bits;
; 82   : 	memcpy(&offset, (uint8_t*)buffer + 10, sizeof(int));

	ldr         x8,[sp,#0x20]
	add         x1,x8,#0xA
	mov         x2,#4
	mov         x0,sp
	bl          memcpy

; 83   : 	_KePrint("OFFSet : %x \r\n", offset);

	ldr         w1,[sp]
	adrp        x8,|$SG3477|
	add         x0,x8,PageOffset(|$SG3477|)
	bl          _KePrint

; 84   : 
; 85   : 	uint8_t* info = (uint8_t*)(buffer + sizeof(BMP));

	ldr         x8,[sp,#0x20]
	add         x8,x8,#0xE
	str         x8,[sp,#0x18]

; 86   : 	int width; // = info->biWidth;
; 87   : 	memcpy(&width, (uint8_t*)info + 4, sizeof(int));

	ldr         x8,[sp,#0x18]
	add         x1,x8,#4
	mov         x2,#4
	add         x0,sp,#4
	bl          memcpy

; 88   : 	_KePrint("Cursor width : %d \r\n", width);

	ldr         w1,[sp,#4]
	adrp        x8,|$SG3478|
	add         x0,x8,PageOffset(|$SG3478|)
	bl          _KePrint

; 89   : 	int height; // = info->biHeight;
; 90   : 	memcpy(&height, (uint8_t*)info + 8, sizeof(int));

	ldr         x8,[sp,#0x18]
	add         x1,x8,#8
	mov         x2,#4
	add         x0,sp,#8
	bl          memcpy

; 91   : 	_KePrint("Cursor height : %d \r\n", height);

	ldr         w1,[sp,#8]
	adrp        x8,|$SG3479|
	add         x0,x8,PageOffset(|$SG3479|)
	bl          _KePrint

; 92   : 	int bpp; // = info->biBitCount;
; 93   : 	memcpy(&bpp, (uint8_t*)info + 14, sizeof(unsigned short));

	ldr         x8,[sp,#0x18]
	add         x1,x8,#0xE
	mov         x2,#2
	add         x0,sp,#0xC
	bl          memcpy

; 94   : 	_KePrint("Cursor bpp : %d \r\n", bpp);

	ldr         w1,[sp,#0xC]
	adrp        x8,|$SG3480|
	add         x0,x8,PageOffset(|$SG3480|)
	bl          _KePrint

; 95   : #endif
; 96   : 
; 97   : 	void* image_bytes = (void*)(buffer + offset);

	ldr         w8,[sp]
	uxtw        x9,w8
	ldr         x8,[sp,#0x20]
	add         x8,x8,x9
	str         x8,[sp,#0x28]

; 98   : 	cur->imageData = (uint8_t*)image_bytes;

	ldr         x8,[sp,#0x10]
	add         x9,x8,#8
	ldr         x8,[sp,#0x28]
	str         x8,[x9]

; 99   : 	cur->width = width;

	ldr         x8,[sp,#0x10]
	add         x9,x8,#0x10
	ldr         w8,[sp,#4]
	str         w8,[x9]

; 100  : 	cur->height = height;

	ldr         x8,[sp,#0x10]
	add         x9,x8,#0x14
	ldr         w8,[sp,#8]
	str         w8,[x9]

; 101  : 	cur->bpp = bpp;

	ldr         x8,[sp,#0x10]
	add         x9,x8,#0x18
	ldr         w8,[sp,#0xC]
	str         w8,[x9]

; 102  : 	cur_w = cur->width;

	ldr         x8,[sp,#0x10]
	add         x8,x8,#0x10
	adrp        x9,|?cur_w@@3HA|
	ldr         w8,[x8]
	str         w8,[x9,PageOffset(|?cur_w@@3HA|)]

; 103  : 	cur_h = cur->height;

	ldr         x8,[sp,#0x10]
	add         x8,x8,#0x14
	adrp        x9,|?cur_h@@3HA|
	ldr         w8,[x8]
	str         w8,[x9,PageOffset(|?cur_h@@3HA|)]

; 104  : 	cur->cursorBack = (uint32_t*)malloc(cur->width * cur->height * 32);

	ldr         x8,[sp,#0x10]
	add         x9,x8,#0x10
	ldr         x8,[sp,#0x10]
	add         x8,x8,#0x14
	ldr         w9,[x9]
	ldr         w8,[x8]
	mul         w9,w9,w8
	mov         w8,#0x20
	mul         w0,w9,w8
	mov         w0,w0
	bl          malloc
	ldr         x8,[sp,#0x10]
	add         x8,x8,#0x38
	str         x0,[x8]
|$LN1@CursorRead|
	add         sp,sp,#0x30
	ldr         lr,[sp],#0x10
	ret

	ENDP  ; |?CursorRead@@YAXPEAU_cursor_@@@Z|, CursorRead

; Function compile flags: /Odtpy
; File C:\Users\paras\source\repos\grep-name\XenevaOS\Process\Deodhai\cursor.cpp

	AREA	|.text$mn|, CODE, ARM64

|?CursorOpen@@YAPEAU_cursor_@@PEADE@Z| PROC		; CursorOpen

; 46   : Cursor* CursorOpen(char* path, uint8_t type) {

|$LN3|
	str         lr,[sp,#-0x10]!
	sub         sp,sp,#0x40
	str         x0,[sp,#0x10]
	uxtb        w8,w1
	strb        w8,[sp]

; 47   : 	Cursor* cur = (Cursor*)malloc(sizeof(Cursor));

	mov         w0,#0x48
	bl          malloc
	str         x0,[sp,#8]

; 48   : 	memset(cur, 0, sizeof(Cursor));

	mov         x2,#0x48
	mov         w1,#0
	ldr         x0,[sp,#8]
	bl          memset

; 49   : 
; 50   : 	int fd = _KeOpenFile(path, FILE_OPEN_READ_ONLY);

	mov         w1,#2
	ldr         x0,[sp,#0x10]
	bl          _KeOpenFile
	mov         w0,w0
	str         w0,[sp,#4]

; 51   : 	XEFileStatus stat;
; 52   : 	_KeFileStat(fd, &stat);

	add         x1,sp,#0x18
	ldr         w0,[sp,#4]
	bl          _KeFileStat

; 53   : 
; 54   : 	cur->fileBuffer = (uint8_t*)_KeMemMap(NULL, stat.size, 0, 0, MEMMAP_NO_FILEDESC, 0);

	mov         x5,#0
	mov         w4,#-1
	mov         w3,#0
	mov         w2,#0
	ldr         x1,[sp,#0x20]
	mov         x0,#0
	bl          _KeMemMap
	ldr         x8,[sp,#8]
	add         x8,x8,#0x30
	str         x0,[x8]

; 55   : 	cur->type = type;

	ldr         x9,[sp,#8]
	ldrb        w8,[sp]
	strb        w8,[x9]

; 56   : 	cur->cursorFD = fd;

	ldr         x8,[sp,#8]
	add         x9,x8,#0x1C
	ldr         w8,[sp,#4]
	str         w8,[x9]

; 57   : 	cur->cursorFileSize = stat.size;

	ldr         x8,[sp,#8]
	add         x9,x8,#0x40
	ldr         x8,[sp,#0x20]
	str         x8,[x9]

; 58   : 	return cur;

	ldr         x0,[sp,#8]
	add         sp,sp,#0x40
	ldr         lr,[sp],#0x10
	ret

	ENDP  ; |?CursorOpen@@YAPEAU_cursor_@@PEADE@Z|, CursorOpen

	END
