; Listing generated by Microsoft (R) Optimizing Compiler Version 19.29.30159.0 

	TTL	C:\Users\paras\source\repos\grep-name\XenevaOS\Process\Deodhai\ARM64\Debug\deomain.obj
	ARM64

	AREA	|.drectve|, DRECTVE

	EXPORT	|?currentCursor@@3PEAU_cursor_@@EA| [ DATA ] ; currentCursor
	EXPORT	|?mouse_fd@@3HA| [ DATA ]		; mouse_fd
	EXPORT	|?kybrd_fd@@3HA| [ DATA ]		; kybrd_fd
	EXPORT	|?postbox_fd@@3HA| [ DATA ]		; postbox_fd
	EXPORT	|?lastMouseButton@@3HA| [ DATA ]	; lastMouseButton
	EXPORT	|?winHandles@@3IA| [ DATA ]		; winHandles
	EXPORT	|?CursorBack@@3PEAIEA| [ DATA ]		; CursorBack
	EXPORT	|?_window_update_all_@@3DA| [ DATA ]	; _window_update_all_
	EXPORT	|?_window_broadcast_mouse_@@3DA| [ DATA ] ; _window_broadcast_mouse_
	EXPORT	|?_skip_disable_@@3DA| [ DATA ]		; _skip_disable_
	EXPORT	|?_always_on_top_update@@3DA| [ DATA ]	; _always_on_top_update
	EXPORT	|?_window_moving_@@3DA| [ DATA ]	; _window_moving_
	EXPORT	|?focusedWin@@3PEAU_win_@@EA| [ DATA ]	; focusedWin
	EXPORT	|?focusedLast@@3PEAU_win_@@EA| [ DATA ]	; focusedLast
	EXPORT	|?topWin@@3PEAU_win_@@EA| [ DATA ]	; topWin
	EXPORT	|?dragWin@@3PEAU_win_@@EA| [ DATA ]	; dragWin
	EXPORT	|?reszWin@@3PEAU_win_@@EA| [ DATA ]	; reszWin
	EXPORT	|?rootWin@@3PEAU_win_@@EA| [ DATA ]	; rootWin
	EXPORT	|?lastWin@@3PEAU_win_@@EA| [ DATA ]	; lastWin
	EXPORT	|?alwaysOnTop@@3PEAU_win_@@EA| [ DATA ]	; alwaysOnTop
	EXPORT	|?alwaysOnTopLast@@3PEAU_win_@@EA| [ DATA ] ; alwaysOnTopLast
	EXPORT	|?mouseLastHovered@@3PEAU_win_@@EA| [ DATA ] ; mouseLastHovered
	EXPORT	|?canvas@@3PEAU_ChCanvas_@@EA| [ DATA ]	; canvas
	EXPORT	|?arrow@@3PEAU_cursor_@@EA| [ DATA ]	; arrow
	EXPORT	|?move@@3PEAU_cursor_@@EA| [ DATA ]	; move
	EXPORT	|?resizeUpDown@@3PEAU_cursor_@@EA| [ DATA ] ; resizeUpDown
	EXPORT	|?resizeLeftRight@@3PEAU_cursor_@@EA| [ DATA ] ; resizeLeftRight
	EXPORT	|?surfaceBuffer@@3PEAIEA| [ DATA ]	; surfaceBuffer
	EXPORT	|?_shadow_update@@3DA| [ DATA ]		; _shadow_update
	EXPORT	|?_clients_advice@@3DA| [ DATA ]	; _clients_advice
	EXPORT	|?gpu_fd@@3HA| [ DATA ]			; gpu_fd
	EXPORT	|?gpu_display_id@@3HA| [ DATA ]		; gpu_display_id
	EXPORT	|?_gpu_enabled@@3DA| [ DATA ]		; _gpu_enabled
	EXPORT	|?startTime@@3_KA| [ DATA ]		; startTime
	EXPORT	|?startSubTime@@3_KA| [ DATA ]		; startSubTime

	AREA	|.bss|, NOINIT
|?currentCursor@@3PEAU_cursor_@@EA| % 0x8		; currentCursor
|?mouse_fd@@3HA| % 0x4					; mouse_fd
|?kybrd_fd@@3HA| % 0x4					; kybrd_fd
|?postbox_fd@@3HA| % 0x4				; postbox_fd
|?lastMouseButton@@3HA| % 0x4				; lastMouseButton
|?winHandles@@3IA| % 0x4				; winHandles
|?CursorBack@@3PEAIEA| % 0x8				; CursorBack
|?_window_update_all_@@3DA| % 0x1			; _window_update_all_
|?_window_broadcast_mouse_@@3DA| % 0x1			; _window_broadcast_mouse_
|?_skip_disable_@@3DA| % 0x1				; _skip_disable_
|?_always_on_top_update@@3DA| % 0x1			; _always_on_top_update
|?_window_moving_@@3DA| % 0x1				; _window_moving_
|?focusedWin@@3PEAU_win_@@EA| % 0x8			; focusedWin
|?focusedLast@@3PEAU_win_@@EA| % 0x8			; focusedLast
|?topWin@@3PEAU_win_@@EA| % 0x8				; topWin
|?dragWin@@3PEAU_win_@@EA| % 0x8			; dragWin
|?reszWin@@3PEAU_win_@@EA| % 0x8			; reszWin
|?rootWin@@3PEAU_win_@@EA| % 0x8			; rootWin
|?lastWin@@3PEAU_win_@@EA| % 0x8			; lastWin
|?alwaysOnTop@@3PEAU_win_@@EA| % 0x8			; alwaysOnTop
|?alwaysOnTopLast@@3PEAU_win_@@EA| % 0x8		; alwaysOnTopLast
|?mouseLastHovered@@3PEAU_win_@@EA| % 0x8		; mouseLastHovered
|?canvas@@3PEAU_ChCanvas_@@EA| % 0x8			; canvas
|?arrow@@3PEAU_cursor_@@EA| % 0x8			; arrow
|?move@@3PEAU_cursor_@@EA| % 0x8			; move
|?resizeUpDown@@3PEAU_cursor_@@EA| % 0x8		; resizeUpDown
|?resizeLeftRight@@3PEAU_cursor_@@EA| % 0x8		; resizeLeftRight
|?surfaceBuffer@@3PEAIEA| % 0x8				; surfaceBuffer
|?_shadow_update@@3DA| % 0x1				; _shadow_update
|?_clients_advice@@3DA| % 0x1				; _clients_advice
|?gpu_fd@@3HA| % 0x4					; gpu_fd
|?gpu_display_id@@3HA| % 0x4				; gpu_display_id
|?_gpu_enabled@@3DA| % 0x1				; _gpu_enabled
|?startTime@@3_KA| % 0x8				; startTime
|?startSubTime@@3_KA| % 0x8				; startSubTime

	AREA	|.rdata|, DATA, READONLY
|$SG8750| DCB	"[Deodhai]:CloseWindow : %s ", 0xd, 0xa, 0x0
	%	2
|$SG8751| DCB	"Unmapping shared mems ", 0xd, 0xa, 0x0
	%	3
|$SG8985| DCB	"xelnch", 0x0
	%	5
|$SG8752| DCB	"Unmapped all shared mems from deodhai side for process", 0xd
	DCB	0xa, 0x0
	%	7
|$SG8753| DCB	"Removing window ", 0xd, 0xa, 0x0
	%	5
|$SG8754| DCB	"Putting post box event ", 0xd, 0xa, 0x0
	%	6
|$SG8792| DCB	"Wallpaper sz : %d ", 0xd, 0xa, 0x0
	%	3
|$SG8794| DCB	"Decoder error ", 0xa, 0x0
|$SG8795| DCB	"Wallpaper width : %d ", 0xd, 0xa, 0x0
|$SG8796| DCB	"Wallpaper height : %d ", 0xd, 0xa, 0x0
	%	7
|$SG8962| DCB	"Argc == 10 %x", 0xd, 0xa, 0x0
|$SG8963| DCB	"Deodhai v1.0 running %d", 0xd, 0xa, 0x0
	%	6
|$SG8964| DCB	"Deodhai : Till here we're initialized ", 0xd, 0xa, 0x0
	%	7
|$SG8965| DCB	"/dev/virtiogpu", 0x0
	%	1
|$SG8967| DCB	"Canv->screen_w -> %d, screenh -> %d ", 0xd, 0xa, 0x0
	%	1
|$SG8970| DCB	"/mtnr1.jpg", 0x0
	%	5
|$SG8973| DCB	"/mtnr2.jpg", 0x0
	%	5
|$SG8976| DCB	"/mntr1.jpg", 0x0
	%	5
|$SG8978| DCB	"/flora1.jpg", 0x0
	%	4
|$SG8980| DCB	"/pointer.bmp", 0x0
	%	3
|$SG8981| DCB	"/dev/mice", 0x0
	%	6
|$SG8982| DCB	"/dev/kybrd", 0x0
	%	5
|$SG8983| DCB	"/dev/postbox", 0x0
	%	3
|$SG8984| DCB	"postboxfd : %d ", 0xd, 0xa, 0x0
	%	6
|$SG8986| DCB	"/xelnch.exe", 0x0
	%	4
|$SG8987| DCB	"nmdapha", 0x0
|$SG8988| DCB	"/nmdapha.exe", 0x0
	%	3
|$SG8989| DCB	"Postbox created for deodhai ", 0xd, 0xa, 0x0
	%	1
|$SG9014| DCB	"[Deodhai]: keyinput : %x ", 0xd, 0xa, 0x0
	%	4
|$SG9016| DCB	"[Deodhai]: create win message received ", 0xd, 0xa, 0x0
	%	6
|$SG9017| DCB	"[Deodhai]: x : %d y : %d ", 0xd, 0xa, 0x0
	%	4
|$SG9018| DCB	"[Doedhai]: from id : %d ", 0xd, 0xa, 0x0
	%	5
|$SG9021| DCB	"[Deodhai]: popup added ", 0xd, 0xa, 0x0
	%	6
|$SG9022| DCB	"[Deodhai]:Popup window created ", 0xd, 0xa, 0x0
	%	6
|$SG9023| DCB	"Msg sent to e.toid : %d ", 0xa, 0x0
	%	6
|$SG9026| DCB	"[Deodhai]: Window created ", 0xd, 0xa, 0x0
	%	3
|?fp32_to_srgb8_tab4@@3QBIB| DCD 0x73000d		; fp32_to_srgb8_tab4
	DCD	0x7a000d
	DCD	0x80000d
	DCD	0x87000d
	DCD	0x8d000d
	DCD	0x94000d
	DCD	0x9a000d
	DCD	0xa1000d
	DCD	0xa7001a
	DCD	0xb4001a
	DCD	0xc1001a
	DCD	0xce001a
	DCD	0xda001a
	DCD	0xe7001a
	DCD	0xf4001a
	DCD	0x101001a
	DCD	0x10e0033
	DCD	0x1280033
	DCD	0x1410033
	DCD	0x15b0033
	DCD	0x1750033
	DCD	0x18f0033
	DCD	0x1a80033
	DCD	0x1c20033
	DCD	0x1dc0067
	DCD	0x20f0067
	DCD	0x2430067
	DCD	0x2760067
	DCD	0x2aa0067
	DCD	0x2dd0067
	DCD	0x3110067
	DCD	0x3440067
	DCD	0x37800ce
	DCD	0x3df00ce
	DCD	0x44600ce
	DCD	0x4ad00ce
	DCD	0x51400ce
	DCD	0x57b00c5
	DCD	0x5dd00bc
	DCD	0x63b00b5
	DCD	0x6970158
	DCD	0x7420142
	DCD	0x7e30130
	DCD	0x87b0120
	DCD	0x90b0112
	DCD	0x9940106
	DCD	0xa1700fc
	DCD	0xa9500f2
	DCD	0xb0f01cb
	DCD	0xbf401ae
	DCD	0xccb0195
	DCD	0xd950180
	DCD	0xe56016e
	DCD	0xf0d015e
	DCD	0xfbc0150
	DCD	0x10630143
	DCD	0x11070264
	DCD	0x1238023e
	DCD	0x1357021d
	DCD	0x14660201
	DCD	0x156601e9
	DCD	0x165a01d3
	DCD	0x174401c0
	DCD	0x182401af
	DCD	0x18fe0331
	DCD	0x1a9602fe
	DCD	0x1c1502d2
	DCD	0x1d7e02ad
	DCD	0x1ed4028d
	DCD	0x201a0270
	DCD	0x21520256
	DCD	0x227d0240
	DCD	0x239f0443
	DCD	0x25c003fe
	DCD	0x27bf03c4
	DCD	0x29a10392
	DCD	0x2b6a0367
	DCD	0x2d1d0341
	DCD	0x2ebe031f
	DCD	0x304d0300
	DCD	0x31d105b0
	DCD	0x34a80555
	DCD	0x37520507
	DCD	0x39d504c5
	DCD	0x3c37048b
	DCD	0x3e7c0458
	DCD	0x40a8042a
	DCD	0x42bd0401
	DCD	0x44c20798
	DCD	0x488e071e
	DCD	0x4c1c06b6
	DCD	0x4f76065d
	DCD	0x52a50610
	DCD	0x55ac05cc
	DCD	0x5892058f
	DCD	0x5b590559
	DCD	0x5e0c0a23
	DCD	0x631c0980
	DCD	0x67db08f6
	DCD	0x6c55087f
	DCD	0x70940818
	DCD	0x74a007bd
	DCD	0x787d076c
	DCD	0x7c330723
|$SG6762| DCB	"Unimplemented edge type", 0x0
|$SG7088| DCB	"Unknown type/colorspace/channels combination.", 0x0
	%	2
|$SG7425| DCB	"Unknown type/colorspace/channels combination.", 0x0
	EXPORT	|?DeodhaiAllocateNewHandle@@YAIXZ|	; DeodhaiAllocateNewHandle
	EXPORT	|?DeodhaiGetMainCanvas@@YAPEAU_ChCanvas_@@XZ| ; DeodhaiGetMainCanvas
	EXPORT	|?DeodhaiUpdateBits@@YAXDD@Z|		; DeodhaiUpdateBits
	EXPORT	|??0Decoder@Jpeg@@QEAA@PEBEIP6APEAXI@ZP6AXPEAX@Z@Z| ; Jpeg::Decoder::Decoder
	EXPORT	|?GetResult@Decoder@Jpeg@@QEBA?AW4DecodeResult@12@XZ| ; Jpeg::Decoder::GetResult
	EXPORT	|?GetWidth@Decoder@Jpeg@@QEBAHXZ|	; Jpeg::Decoder::GetWidth
	EXPORT	|?GetHeight@Decoder@Jpeg@@QEBAHXZ|	; Jpeg::Decoder::GetHeight
	EXPORT	|?GetImage@Decoder@Jpeg@@QEBAPEAEXZ|	; Jpeg::Decoder::GetImage
	EXPORT	|?_Clip@Decoder@Jpeg@@AEAAEH@Z|		; Jpeg::Decoder::_Clip
	EXPORT	|?_RowIDCT@Decoder@Jpeg@@AEAAXPEAH@Z|	; Jpeg::Decoder::_RowIDCT
	EXPORT	|?_ColIDCT@Decoder@Jpeg@@AEAAXPEBHPEAEH@Z| ; Jpeg::Decoder::_ColIDCT
	EXPORT	|?_ShowBits@Decoder@Jpeg@@AEAAHH@Z|	; Jpeg::Decoder::_ShowBits
	EXPORT	|?_SkipBits@Decoder@Jpeg@@AEAAXH@Z|	; Jpeg::Decoder::_SkipBits
	EXPORT	|?_GetBits@Decoder@Jpeg@@AEAAHH@Z|	; Jpeg::Decoder::_GetBits
	EXPORT	|?_ByteAlign@Decoder@Jpeg@@AEAAXXZ|	; Jpeg::Decoder::_ByteAlign
	EXPORT	|?_Skip@Decoder@Jpeg@@AEAAXH@Z|		; Jpeg::Decoder::_Skip
	EXPORT	|?_Decode16@Decoder@Jpeg@@AEAAGPEBE@Z|	; Jpeg::Decoder::_Decode16
	EXPORT	|?_DecodeLength@Decoder@Jpeg@@AEAAXXZ|	; Jpeg::Decoder::_DecodeLength
	EXPORT	|?_SkipMarker@Decoder@Jpeg@@AEAAXXZ|	; Jpeg::Decoder::_SkipMarker
	EXPORT	|?_DecodeSOF@Decoder@Jpeg@@AEAAXXZ|	; Jpeg::Decoder::_DecodeSOF
	EXPORT	|?_DecodeDHT@Decoder@Jpeg@@AEAAXXZ|	; Jpeg::Decoder::_DecodeDHT
	EXPORT	|?_DecodeDQT@Decoder@Jpeg@@AEAAXXZ|	; Jpeg::Decoder::_DecodeDQT
	EXPORT	|?_DecodeDRI@Decoder@Jpeg@@AEAAXXZ|	; Jpeg::Decoder::_DecodeDRI
	EXPORT	|?_GetVLC@Decoder@Jpeg@@AEAAHPEAUVlcCode@12@PEAE@Z| ; Jpeg::Decoder::_GetVLC
	EXPORT	|?_DecodeBlock@Decoder@Jpeg@@AEAAXPEAUComponent@12@PEAE@Z| ; Jpeg::Decoder::_DecodeBlock
	EXPORT	|?_DecodeScan@Decoder@Jpeg@@AEAAXXZ|	; Jpeg::Decoder::_DecodeScan
	EXPORT	|?CF@Decoder@Jpeg@@AEAAEH@Z|		; Jpeg::Decoder::CF
	EXPORT	|?_UpsampleH@Decoder@Jpeg@@AEAAXPEAUComponent@12@@Z| ; Jpeg::Decoder::_UpsampleH
	EXPORT	|?_UpsampleV@Decoder@Jpeg@@AEAAXPEAUComponent@12@@Z| ; Jpeg::Decoder::_UpsampleV
	EXPORT	|?_Convert@Decoder@Jpeg@@AEAAXXZ|	; Jpeg::Decoder::_Convert
	EXPORT	|?_Decode@Decoder@Jpeg@@AEAA?AW4DecodeResult@12@PEBEH@Z| ; Jpeg::Decoder::_Decode
	EXPORT	|stbir_resize_uint8|
	EXPORT	|stbir_resize_float|
	EXPORT	|stbir_resize_uint8_srgb|
	EXPORT	|stbir_resize_uint8_srgb_edgemode|
	EXPORT	|stbir_resize_uint8_generic|
	EXPORT	|stbir_resize_uint16_generic|
	EXPORT	|stbir_resize_float_generic|
	EXPORT	|stbir_resize|
	EXPORT	|stbir_resize_subpixel|
	EXPORT	|stbir_resize_region|
	EXPORT	|?CursorStoreBack@@YAXPEAU_ChCanvas_@@PEAU_cursor_@@II@Z| ; CursorStoreBack
	EXPORT	|?CursorDrawBack@@YAXPEAU_ChCanvas_@@PEAU_cursor_@@II@Z| ; CursorDrawBack
	EXPORT	|?ChangeCursor@@YAXPEAU_cursor_@@@Z|	; ChangeCursor
	EXPORT	|?DeodhaiInitialiseData@@YAXXZ|		; DeodhaiInitialiseData
	EXPORT	|?DeodhaiAddWindow@@YAXPEAU_win_@@@Z|	; DeodhaiAddWindow
	EXPORT	|?DeodhaiRemoveWindow@@YAXPEAU_win_@@@Z| ; DeodhaiRemoveWindow
	EXPORT	|?DeodhaiAddWindowAlwaysOnTop@@YAXPEAU_win_@@@Z| ; DeodhaiAddWindowAlwaysOnTop
	EXPORT	|?DeodhaiRemoveWindowAlwaysOnTop@@YAXPEAU_win_@@@Z| ; DeodhaiRemoveWindowAlwaysOnTop
	EXPORT	|?DeodhaiBackSurfaceUpdate@@YAXPEAU_ChCanvas_@@HHHH@Z| ; DeodhaiBackSurfaceUpdate
	EXPORT	|?DeodhaiCreateWindow@@YAPEAU_win_@@HHHHGGPEAD@Z| ; DeodhaiCreateWindow
	EXPORT	|?DeodhaiBroadcastMessage@@YAXPEAU_post_event_@@PEAU_win_@@@Z| ; DeodhaiBroadcastMessage
	EXPORT	|?DeodhaiSendFocusMessage@@YAXPEAU_post_event_@@@Z| ; DeodhaiSendFocusMessage
	EXPORT	|?DeodhaiWindowMakeTop@@YAXPEAU_win_@@@Z| ; DeodhaiWindowMakeTop
	EXPORT	|?DeodhaiWindowSetFocused@@YAXPEAU_win_@@D@Z| ; DeodhaiWindowSetFocused
	EXPORT	|?DeodhaiDrawShadow@@YAXPEAU_ChCanvas_@@PEAU_win_@@@Z| ; DeodhaiDrawShadow
	EXPORT	|?DeodhaiRemoveShadow@@YAXPEAU_ChCanvas_@@PEAU_win_@@@Z| ; DeodhaiRemoveShadow
	EXPORT	|?DeodhaiWindowMove@@YAXPEAU_win_@@HH@Z| ; DeodhaiWindowMove
	EXPORT	|?DeodhaiWindowHide@@YAXPEAU_win_@@@Z|	; DeodhaiWindowHide
	EXPORT	|?DeodhaiCheckWindowPointOcclusion@@YADPEAU_win_@@HH@Z| ; DeodhaiCheckWindowPointOcclusion
	EXPORT	|?DeodhaiWindowCheckDraggable@@YAXHHH@Z| ; DeodhaiWindowCheckDraggable
	EXPORT	|?ComposeFrame@@YAXPEAU_ChCanvas_@@@Z|	; ComposeFrame
	EXPORT	|?DeodhaiSendMouseEvent@@YAXHHEEHHH@Z|	; DeodhaiSendMouseEvent
	EXPORT	|?DeodhaiResizeCursorUpdate@@YAXHHPEAU_win_info_@@@Z| ; DeodhaiResizeCursorUpdate
	EXPORT	|?DeodhaiBroadcastMouse@@YAXHHH@Z|	; DeodhaiBroadcastMouse
	EXPORT	|?DeodhaiBroadcastTouch@@YAXHH@Z|	; DeodhaiBroadcastTouch
	EXPORT	|?DeodhaiBroadcastKey@@YAXH@Z|		; DeodhaiBroadcastKey
	EXPORT	|?DeodhaiCloseWindow@@YAXPEAU_win_@@@Z|	; DeodhaiCloseWindow
	EXPORT	|?DrawWallpaper@@YAXPEAU_ChCanvas_@@PEAD@Z| ; DrawWallpaper
	EXPORT	|?DeodhaiCurrentTime@@YA_KXZ|		; DeodhaiCurrentTime
	EXPORT	|?DeodhaiTimeSince@@YA_K_K@Z|		; DeodhaiTimeSince
	EXPORT	|?DeodhaiClickCurrentTime@@YA_KXZ|	; DeodhaiClickCurrentTime
	EXPORT	|?DeodhaiClickTimeSince@@YA_K_K@Z|	; DeodhaiClickTimeSince
	EXPORT	|main|
	EXPORT	|?_get_gpu_fd@@YAHXZ|			; _get_gpu_fd
	EXPORT	|?_get_gpu_display_id@@YAHXZ|		; _get_gpu_display_id
	EXPORT	|?_is_gpu_enabled@@YADXZ|		; _is_gpu_enabled
	IMPORT	|??2@YAPEAX_K@Z|			; operator new
	IMPORT	|_KePrint|
	IMPORT	|_KeGetThreadID|
	IMPORT	|_KeCreateProcess|
	IMPORT	|_KeProcessLoadExec|
	IMPORT	|_KeProcessSleep|
	IMPORT	|_KeOpenFile|
	IMPORT	|_KeReadFile|
	IMPORT	|_KeFileIoControl|
	IMPORT	|_KeFileStat|
	IMPORT	|_KeMemMap|
	IMPORT	|_KeUnmapSharedMem|
	IMPORT	|malloc|
	IMPORT	|free|
	IMPORT	|abort|
	IMPORT	|gettimeofday|
	IMPORT	|strcmp|
	IMPORT	|strcpy|
	IMPORT	|memset|
	IMPORT	|memcpy|
	IMPORT	|ChCreateCanvas|
	IMPORT	|ChAllocateBuffer|
	IMPORT	|ChCanvasScreenUpdate|
	IMPORT	|ChDrawPixelRAW|
	IMPORT	|ChGetPixel|
	IMPORT	|?CursorOpen@@YAPEAU_cursor_@@PEADE@Z|	; CursorOpen
	IMPORT	|?CursorRead@@YAXPEAU_cursor_@@@Z|	; CursorRead
	IMPORT	|?CursorDraw@@YAXPEAU_ChCanvas_@@PEAU_cursor_@@II@Z| ; CursorDraw
	IMPORT	|?InitialiseDirtyClipList@@YAXXZ|	; InitialiseDirtyClipList
	IMPORT	|?AddDirtyClip@@YAXHHHH@Z|		; AddDirtyClip
	IMPORT	|?DirtyScreenUpdate@@YAXPEAU_ChCanvas_@@@Z| ; DirtyScreenUpdate
	IMPORT	|ChColorAlphaBlend|
	IMPORT	|ChColorAlphaBlend2|
	IMPORT	|?CreateWindow@@YAPEAU_win_@@HHHHGGPEAD@Z| ; CreateWindow
	IMPORT	|_fastcpy|
	IMPORT	|?ClipCheckIntersect@@YADPEAU_rect_@@0@Z| ; ClipCheckIntersect
	IMPORT	|?ClipCalculateRect@@YAXPEAU_rect_@@00PEAH@Z| ; ClipCalculateRect
	IMPORT	|?ClipSubtractRect@@YAXPEAU_rect_@@00H@Z| ; ClipSubtractRect
	IMPORT	|?BackDirtyInitialise@@YAXXZ|		; BackDirtyInitialise
	IMPORT	|?BackDirtyAdd@@YAXHHHH@Z|		; BackDirtyAdd
	IMPORT	|?BackDirtyGetRect@@YAXPEAH000H@Z|	; BackDirtyGetRect
	IMPORT	|?BackDirtyGetDirtyCount@@YAHXZ|	; BackDirtyGetDirtyCount
	IMPORT	|?BackDirtyCountReset@@YAXXZ|		; BackDirtyCountReset
	IMPORT	|?FadeInAnimationWindow@@YAXPEAU_ChCanvas_@@PEAU_win_@@PEAU_win_info_@@_J333@Z| ; FadeInAnimationWindow
	IMPORT	|?FadeOutAnimationWindow@@YAXPEAU_ChCanvas_@@PEAU_win_@@PEAU_win_info_@@_J333@Z| ; FadeOutAnimationWindow
	IMPORT	|ceil|
	IMPORT	|fabs|
	IMPORT	|floor|
	IMPORT	|pow|
	IMPORT	|__chkstk|
	IMPORT	|_fltused|

	AREA	|.pdata|, PDATA
|$pdata$?DeodhaiAllocateNewHandle@@YAIXZ| DCD imagerel |$LN3|
	DCD	0x800031
	;Flags[SingleProEpi] functionLength[48] RegF[0] RegI[0] H[0] frameChainReturn[UnChained] frameSize[16]
|$pdata$?DeodhaiUpdateBits@@YAXDD@Z| DCD imagerel |$LN3|
	DCD	0x800035
	;Flags[SingleProEpi] functionLength[52] RegF[0] RegI[0] H[0] frameChainReturn[UnChained] frameSize[16]

	AREA	|.pdata|, PDATA
|$pdata$??0Decoder@Jpeg@@QEAA@PEBEIP6APEAXI@ZP6AXPEAX@Z@Z| DCD imagerel |$LN4|
	DCD	0x420028d
	;Flags[SingleProEpi] functionLength[652] RegF[0] RegI[0] H[0] frameChainReturn[UnChainedSavedLR] frameSize[128]

	AREA	|.pdata|, PDATA
|$pdata$?GetResult@Decoder@Jpeg@@QEBA?AW4DecodeResult@12@XZ| DCD imagerel |$LN3|
	DCD	0x800019
	;Flags[SingleProEpi] functionLength[24] RegF[0] RegI[0] H[0] frameChainReturn[UnChained] frameSize[16]

	AREA	|.pdata|, PDATA
|$pdata$?GetWidth@Decoder@Jpeg@@QEBAHXZ| DCD imagerel |$LN3|
	DCD	0x80001d
	;Flags[SingleProEpi] functionLength[28] RegF[0] RegI[0] H[0] frameChainReturn[UnChained] frameSize[16]

	AREA	|.pdata|, PDATA
|$pdata$?GetHeight@Decoder@Jpeg@@QEBAHXZ| DCD imagerel |$LN3|
	DCD	0x80001d
	;Flags[SingleProEpi] functionLength[28] RegF[0] RegI[0] H[0] frameChainReturn[UnChained] frameSize[16]

	AREA	|.pdata|, PDATA
|$pdata$?GetImage@Decoder@Jpeg@@QEBAPEAEXZ| DCD imagerel |$LN5|
	DCD	0x800055
	;Flags[SingleProEpi] functionLength[84] RegF[0] RegI[0] H[0] frameChainReturn[UnChained] frameSize[16]

	AREA	|.pdata|, PDATA
|$pdata$?_Clip@Decoder@Jpeg@@AEAAEH@Z| DCD imagerel |$LN7|
	DCD	0x1000069
	;Flags[SingleProEpi] functionLength[104] RegF[0] RegI[0] H[0] frameChainReturn[UnChained] frameSize[32]

	AREA	|.pdata|, PDATA
|$pdata$?_RowIDCT@Decoder@Jpeg@@AEAAXPEAH@Z| DCD imagerel |$LN4|
	DCD	0x20003fd
	;Flags[SingleProEpi] functionLength[1020] RegF[0] RegI[0] H[0] frameChainReturn[UnChained] frameSize[64]

	AREA	|.pdata|, PDATA
|$pdata$?_ColIDCT@Decoder@Jpeg@@AEAAXPEBHPEAEH@Z| DCD imagerel |$LN7|
	DCD	0x2a0052d
	;Flags[SingleProEpi] functionLength[1324] RegF[0] RegI[0] H[0] frameChainReturn[UnChainedSavedLR] frameSize[80]

	AREA	|.pdata|, PDATA
|$pdata$?_ShowBits@Decoder@Jpeg@@AEAAHH@Z| DCD imagerel |$LN18|
	DCD	0x10002c9
	;Flags[SingleProEpi] functionLength[712] RegF[0] RegI[0] H[0] frameChainReturn[UnChained] frameSize[32]

	AREA	|.pdata|, PDATA
|$pdata$?_SkipBits@Decoder@Jpeg@@AEAAXH@Z| DCD imagerel |$LN4|
	DCD	0x120006d
	;Flags[SingleProEpi] functionLength[108] RegF[0] RegI[0] H[0] frameChainReturn[UnChainedSavedLR] frameSize[32]

	AREA	|.pdata|, PDATA
|$pdata$?_GetBits@Decoder@Jpeg@@AEAAHH@Z| DCD imagerel |$LN3|
	DCD	0x1200041
	;Flags[SingleProEpi] functionLength[64] RegF[0] RegI[0] H[0] frameChainReturn[UnChainedSavedLR] frameSize[32]

	AREA	|.pdata|, PDATA
|$pdata$?_ByteAlign@Decoder@Jpeg@@AEAAXXZ| DCD imagerel |$LN3|
	DCD	0x800035
	;Flags[SingleProEpi] functionLength[52] RegF[0] RegI[0] H[0] frameChainReturn[UnChained] frameSize[16]

	AREA	|.pdata|, PDATA
|$pdata$?_Skip@Decoder@Jpeg@@AEAAXH@Z| DCD imagerel |$LN4|
	DCD	0x800099
	;Flags[SingleProEpi] functionLength[152] RegF[0] RegI[0] H[0] frameChainReturn[UnChained] frameSize[16]

	AREA	|.pdata|, PDATA
|$pdata$?_Decode16@Decoder@Jpeg@@AEAAGPEBE@Z| DCD imagerel |$LN3|
	DCD	0x800041
	;Flags[SingleProEpi] functionLength[64] RegF[0] RegI[0] H[0] frameChainReturn[UnChained] frameSize[16]

	AREA	|.pdata|, PDATA
|$pdata$?_DecodeLength@Decoder@Jpeg@@AEAAXXZ| DCD imagerel |$LN11|
	DCD	0x12000b9
	;Flags[SingleProEpi] functionLength[184] RegF[0] RegI[0] H[0] frameChainReturn[UnChainedSavedLR] frameSize[32]

	AREA	|.pdata|, PDATA
|$pdata$?_SkipMarker@Decoder@Jpeg@@AEAAXXZ| DCD imagerel |$LN3|
	DCD	0x1200035
	;Flags[SingleProEpi] functionLength[52] RegF[0] RegI[0] H[0] frameChainReturn[UnChainedSavedLR] frameSize[32]

	AREA	|.pdata|, PDATA
|$pdata$?_DecodeSOF@Decoder@Jpeg@@AEAAXXZ| DCD imagerel |$LN73|
	DCD	0x320084d
	;Flags[SingleProEpi] functionLength[2124] RegF[0] RegI[0] H[0] frameChainReturn[UnChainedSavedLR] frameSize[96]

	AREA	|.pdata|, PDATA
|$pdata$?_DecodeDHT@Decoder@Jpeg@@AEAAXXZ| DCD imagerel |$LN40|
	DCD	0x320036d
	;Flags[SingleProEpi] functionLength[876] RegF[0] RegI[0] H[0] frameChainReturn[UnChainedSavedLR] frameSize[96]

	AREA	|.pdata|, PDATA
|$pdata$?_DecodeDQT@Decoder@Jpeg@@AEAAXXZ| DCD imagerel |$LN16|
	DCD	0x1a0016d
	;Flags[SingleProEpi] functionLength[364] RegF[0] RegI[0] H[0] frameChainReturn[UnChainedSavedLR] frameSize[48]

	AREA	|.pdata|, PDATA
|$pdata$?_DecodeDRI@Decoder@Jpeg@@AEAAXXZ| DCD imagerel |$LN7|
	DCD	0x1200091
	;Flags[SingleProEpi] functionLength[144] RegF[0] RegI[0] H[0] frameChainReturn[UnChainedSavedLR] frameSize[32]

	AREA	|.pdata|, PDATA
|$pdata$?_GetVLC@Decoder@Jpeg@@AEAAHPEAUVlcCode@12@PEAE@Z| DCD imagerel |$LN7|
	DCD	0x1a00139
	;Flags[SingleProEpi] functionLength[312] RegF[0] RegI[0] H[0] frameChainReturn[UnChainedSavedLR] frameSize[48]

	AREA	|.pdata|, PDATA
|$pdata$?_DecodeBlock@Decoder@Jpeg@@AEAAXPEAUComponent@12@PEAE@Z| DCD imagerel |$LN21|
	DCD	0x2210311
	;Flags[SingleProEpi] functionLength[784] RegF[0] RegI[1] H[0] frameChainReturn[UnChainedSavedLR] frameSize[64]

	AREA	|.pdata|, PDATA
|$pdata$?_DecodeScan@Decoder@Jpeg@@AEAAXXZ| DCD imagerel |$LN52|
	DCD	0x2200549
	;Flags[SingleProEpi] functionLength[1352] RegF[0] RegI[0] H[0] frameChainReturn[UnChainedSavedLR] frameSize[64]

	AREA	|.pdata|, PDATA
|$pdata$?CF@Decoder@Jpeg@@AEAAEH@Z| DCD imagerel |$LN3|
	DCD	0x120003d
	;Flags[SingleProEpi] functionLength[60] RegF[0] RegI[0] H[0] frameChainReturn[UnChainedSavedLR] frameSize[32]

	AREA	|.pdata|, PDATA
|$pdata$?_UpsampleH@Decoder@Jpeg@@AEAAXPEAUComponent@12@@Z| DCD imagerel |$LN13|
	DCD	0x2a005ed
	;Flags[SingleProEpi] functionLength[1516] RegF[0] RegI[0] H[0] frameChainReturn[UnChainedSavedLR] frameSize[80]

	AREA	|.pdata|, PDATA
|$pdata$?_UpsampleV@Decoder@Jpeg@@AEAAXPEAUComponent@12@@Z| DCD imagerel |$LN13|
	DCD	0x32006b9
	;Flags[SingleProEpi] functionLength[1720] RegF[0] RegI[0] H[0] frameChainReturn[UnChainedSavedLR] frameSize[96]

	AREA	|.pdata|, PDATA
|$pdata$?_Convert@Decoder@Jpeg@@AEAAXXZ| DCD imagerel |$LN30|
	DCD	0x3a00541
	;Flags[SingleProEpi] functionLength[1344] RegF[0] RegI[0] H[0] frameChainReturn[UnChainedSavedLR] frameSize[112]

	AREA	|.pdata|, PDATA
|$pdata$?_Decode@Decoder@Jpeg@@AEAA?AW4DecodeResult@12@PEBEH@Z| DCD imagerel |$LN22|
	DCD	0x1a00249
	;Flags[SingleProEpi] functionLength[584] RegF[0] RegI[0] H[0] frameChainReturn[UnChainedSavedLR] frameSize[48]

	AREA	|.pdata|, PDATA
|$pdata$stbir_resize_uint8| DCD imagerel |$LN3|
	DCD	0x52000c9
	;Flags[SingleProEpi] functionLength[200] RegF[0] RegI[0] H[0] frameChainReturn[UnChainedSavedLR] frameSize[160]
|$pdata$stbir_resize_float| DCD imagerel |$LN3|
	DCD	0x52000c9
	;Flags[SingleProEpi] functionLength[200] RegF[0] RegI[0] H[0] frameChainReturn[UnChainedSavedLR] frameSize[160]
|$pdata$stbir_resize_uint8_srgb| DCD imagerel |$LN3|
	DCD	0x52000c9
	;Flags[SingleProEpi] functionLength[200] RegF[0] RegI[0] H[0] frameChainReturn[UnChainedSavedLR] frameSize[160]
|$pdata$stbir_resize_uint8_srgb_edgemode| DCD imagerel |$LN3|
	DCD	0x52000c9
	;Flags[SingleProEpi] functionLength[200] RegF[0] RegI[0] H[0] frameChainReturn[UnChainedSavedLR] frameSize[160]
|$pdata$stbir_resize_uint8_generic| DCD imagerel |$LN3|
	DCD	0x52000c9
	;Flags[SingleProEpi] functionLength[200] RegF[0] RegI[0] H[0] frameChainReturn[UnChainedSavedLR] frameSize[160]
|$pdata$stbir_resize_uint16_generic| DCD imagerel |$LN3|
	DCD	0x52000c9
	;Flags[SingleProEpi] functionLength[200] RegF[0] RegI[0] H[0] frameChainReturn[UnChainedSavedLR] frameSize[160]
|$pdata$stbir_resize_float_generic| DCD imagerel |$LN3|
	DCD	0x52000c9
	;Flags[SingleProEpi] functionLength[200] RegF[0] RegI[0] H[0] frameChainReturn[UnChainedSavedLR] frameSize[160]
|$pdata$stbir_resize| DCD imagerel |$LN3|
	DCD	0x52000c9
	;Flags[SingleProEpi] functionLength[200] RegF[0] RegI[0] H[0] frameChainReturn[UnChainedSavedLR] frameSize[160]
|$pdata$stbir_resize_subpixel| DCD imagerel |$LN3|
	DCD	0x62000f9
	;Flags[SingleProEpi] functionLength[248] RegF[0] RegI[0] H[0] frameChainReturn[UnChainedSavedLR] frameSize[192]
|$pdata$stbir_resize_region| DCD imagerel |$LN3|
	DCD	0x5a000d9
	;Flags[SingleProEpi] functionLength[216] RegF[0] RegI[0] H[0] frameChainReturn[UnChainedSavedLR] frameSize[176]
|$pdata$?stbir__min@@YAHHH@Z| DCD imagerel |?stbir__min@@YAHHH@Z|
	DCD	0x80003d
	;Flags[SingleProEpi] functionLength[60] RegF[0] RegI[0] H[0] frameChainReturn[UnChained] frameSize[16]
|$pdata$?stbir__saturate@@YAMM@Z| DCD imagerel |?stbir__saturate@@YAMM@Z|
	DCD	0x800041
	;Flags[SingleProEpi] functionLength[64] RegF[0] RegI[0] H[0] frameChainReturn[UnChained] frameSize[16]
|$pdata$?stbir__srgb_to_linear@@YAMM@Z| DCD imagerel |?stbir__srgb_to_linear@@YAMM@Z|
	DCD	0x1200061
	;Flags[SingleProEpi] functionLength[96] RegF[0] RegI[0] H[0] frameChainReturn[UnChainedSavedLR] frameSize[32]
|$pdata$?stbir__linear_to_srgb@@YAMM@Z| DCD imagerel |?stbir__linear_to_srgb@@YAMM@Z|
	DCD	0x1200061
	;Flags[SingleProEpi] functionLength[96] RegF[0] RegI[0] H[0] frameChainReturn[UnChainedSavedLR] frameSize[32]
|$pdata$?stbir__linear_to_srgb_uchar@@YAEM@Z| DCD imagerel |?stbir__linear_to_srgb_uchar@@YAEM@Z|
	DCD	0x10000d5
	;Flags[SingleProEpi] functionLength[212] RegF[0] RegI[0] H[0] frameChainReturn[UnChained] frameSize[32]
|$pdata$?stbir__filter_trapezoid@@YAMMM@Z| DCD imagerel |?stbir__filter_trapezoid@@YAMMM@Z|
	DCD	0x1a000ad
	;Flags[SingleProEpi] functionLength[172] RegF[0] RegI[0] H[0] frameChainReturn[UnChainedSavedLR] frameSize[48]
|$pdata$?stbir__support_trapezoid@@YAMM@Z| DCD imagerel |?stbir__support_trapezoid@@YAMM@Z|
	DCD	0x800025
	;Flags[SingleProEpi] functionLength[36] RegF[0] RegI[0] H[0] frameChainReturn[UnChained] frameSize[16]
|$pdata$?stbir__filter_triangle@@YAMMM@Z| DCD imagerel |?stbir__filter_triangle@@YAMMM@Z|
	DCD	0x1200059
	;Flags[SingleProEpi] functionLength[88] RegF[0] RegI[0] H[0] frameChainReturn[UnChainedSavedLR] frameSize[32]
|$pdata$?stbir__filter_cubic@@YAMMM@Z| DCD imagerel |?stbir__filter_cubic@@YAMMM@Z|
	DCD	0x12000c9
	;Flags[SingleProEpi] functionLength[200] RegF[0] RegI[0] H[0] frameChainReturn[UnChainedSavedLR] frameSize[32]
|$pdata$?stbir__filter_catmullrom@@YAMMM@Z| DCD imagerel |?stbir__filter_catmullrom@@YAMMM@Z|
	DCD	0x12000c1
	;Flags[SingleProEpi] functionLength[192] RegF[0] RegI[0] H[0] frameChainReturn[UnChainedSavedLR] frameSize[32]
|$pdata$?stbir__filter_mitchell@@YAMMM@Z| DCD imagerel |?stbir__filter_mitchell@@YAMMM@Z|
	DCD	0x12000d1
	;Flags[SingleProEpi] functionLength[208] RegF[0] RegI[0] H[0] frameChainReturn[UnChainedSavedLR] frameSize[32]
|$pdata$?stbir__support_zero@@YAMM@Z| DCD imagerel |?stbir__support_zero@@YAMM@Z|
	DCD	0x800015
	;Flags[SingleProEpi] functionLength[20] RegF[0] RegI[0] H[0] frameChainReturn[UnChained] frameSize[16]
|$pdata$?stbir__support_one@@YAMM@Z| DCD imagerel |?stbir__support_one@@YAMM@Z|
	DCD	0x800015
	;Flags[SingleProEpi] functionLength[20] RegF[0] RegI[0] H[0] frameChainReturn[UnChained] frameSize[16]
|$pdata$?stbir__support_two@@YAMM@Z| DCD imagerel |?stbir__support_two@@YAMM@Z|
	DCD	0x800015
	;Flags[SingleProEpi] functionLength[20] RegF[0] RegI[0] H[0] frameChainReturn[UnChained] frameSize[16]
|$pdata$?stbir__use_upsampling@@YAHM@Z| DCD imagerel |?stbir__use_upsampling@@YAHM@Z|
	DCD	0x800039
	;Flags[SingleProEpi] functionLength[56] RegF[0] RegI[0] H[0] frameChainReturn[UnChained] frameSize[16]
|$pdata$?stbir__use_width_upsampling@@YAHPEAUstbir__info@@@Z| DCD imagerel |?stbir__use_width_upsampling@@YAHPEAUstbir__info@@@Z|
	DCD	0x1200031
	;Flags[SingleProEpi] functionLength[48] RegF[0] RegI[0] H[0] frameChainReturn[UnChainedSavedLR] frameSize[32]
|$pdata$?stbir__use_height_upsampling@@YAHPEAUstbir__info@@@Z| DCD imagerel |?stbir__use_height_upsampling@@YAHPEAUstbir__info@@@Z|
	DCD	0x1200031
	;Flags[SingleProEpi] functionLength[48] RegF[0] RegI[0] H[0] frameChainReturn[UnChainedSavedLR] frameSize[32]
|$pdata$?stbir__get_filter_pixel_width@@YAHW4stbir_filter@@M@Z| DCD imagerel |?stbir__get_filter_pixel_width@@YAHW4stbir_filter@@M@Z|
	DCD	0x1a00131
	;Flags[SingleProEpi] functionLength[304] RegF[0] RegI[0] H[0] frameChainReturn[UnChainedSavedLR] frameSize[48]
|$pdata$?stbir__get_filter_pixel_margin@@YAHW4stbir_filter@@M@Z| DCD imagerel |?stbir__get_filter_pixel_margin@@YAHW4stbir_filter@@M@Z|
	DCD	0x1200039
	;Flags[SingleProEpi] functionLength[56] RegF[0] RegI[0] H[0] frameChainReturn[UnChainedSavedLR] frameSize[32]
|$pdata$?stbir__get_coefficient_width@@YAHW4stbir_filter@@M@Z| DCD imagerel |?stbir__get_coefficient_width@@YAHW4stbir_filter@@M@Z|
	DCD	0x12000c9
	;Flags[SingleProEpi] functionLength[200] RegF[0] RegI[0] H[0] frameChainReturn[UnChainedSavedLR] frameSize[32]
|$pdata$?stbir__get_contributors@@YAHMW4stbir_filter@@HH@Z| DCD imagerel |?stbir__get_contributors@@YAHMW4stbir_filter@@HH@Z|
	DCD	0x1200069
	;Flags[SingleProEpi] functionLength[104] RegF[0] RegI[0] H[0] frameChainReturn[UnChainedSavedLR] frameSize[32]
|$pdata$?stbir__get_total_horizontal_coefficients@@YAHPEAUstbir__info@@@Z| DCD imagerel |?stbir__get_total_horizontal_coefficients@@YAHPEAUstbir__info@@@Z|
	DCD	0x1210055
	;Flags[SingleProEpi] functionLength[84] RegF[0] RegI[1] H[0] frameChainReturn[UnChainedSavedLR] frameSize[32]
|$pdata$?stbir__get_total_vertical_coefficients@@YAHPEAUstbir__info@@@Z| DCD imagerel |?stbir__get_total_vertical_coefficients@@YAHPEAUstbir__info@@@Z|
	DCD	0x1210055
	;Flags[SingleProEpi] functionLength[84] RegF[0] RegI[1] H[0] frameChainReturn[UnChainedSavedLR] frameSize[32]
|$pdata$?stbir__get_contributor@@YAPEAUstbir__contributors@@PEAU1@H@Z| DCD imagerel |?stbir__get_contributor@@YAPEAUstbir__contributors@@PEAU1@H@Z|
	DCD	0x80002d
	;Flags[SingleProEpi] functionLength[44] RegF[0] RegI[0] H[0] frameChainReturn[UnChained] frameSize[16]
|$pdata$?stbir__get_coefficient@@YAPEAMPEAMW4stbir_filter@@MHH@Z| DCD imagerel |?stbir__get_coefficient@@YAPEAMPEAMW4stbir_filter@@MHH@Z|
	DCD	0x1a00065
	;Flags[SingleProEpi] functionLength[100] RegF[0] RegI[0] H[0] frameChainReturn[UnChainedSavedLR] frameSize[48]
|$pdata$?stbir__edge_wrap_slow@@YAHW4stbir_edge@@HH@Z| DCD imagerel |?stbir__edge_wrap_slow@@YAHW4stbir_edge@@HH@Z|
	DCD	0x1a001d1
	;Flags[SingleProEpi] functionLength[464] RegF[0] RegI[0] H[0] frameChainReturn[UnChainedSavedLR] frameSize[48]
|$pdata$?stbir__edge_wrap@@YAHW4stbir_edge@@HH@Z| DCD imagerel |?stbir__edge_wrap@@YAHW4stbir_edge@@HH@Z|
	DCD	0x120005d
	;Flags[SingleProEpi] functionLength[92] RegF[0] RegI[0] H[0] frameChainReturn[UnChainedSavedLR] frameSize[32]
|$pdata$?stbir__calculate_sample_range_upsample@@YAXHMMMPEAH0PEAM@Z| DCD imagerel |?stbir__calculate_sample_range_upsample@@YAXHMMMPEAH0PEAM@Z|
	DCD	0x2a000f1
	;Flags[SingleProEpi] functionLength[240] RegF[0] RegI[0] H[0] frameChainReturn[UnChainedSavedLR] frameSize[80]
|$pdata$?stbir__calculate_sample_range_downsample@@YAXHMMMPEAH0PEAM@Z| DCD imagerel |?stbir__calculate_sample_range_downsample@@YAXHMMMPEAH0PEAM@Z|
	DCD	0x2a000f1
	;Flags[SingleProEpi] functionLength[240] RegF[0] RegI[0] H[0] frameChainReturn[UnChainedSavedLR] frameSize[80]
|$pdata$?stbir__calculate_coefficients_upsample@@YAXPEAUstbir__info@@W4stbir_filter@@MHHMPEAUstbir__contributors@@PEAM@Z| DCD imagerel |?stbir__calculate_coefficients_upsample@@YAXPEAUstbir__info@@W4stbir_filter@@MHHMPEAUstbir__contributors@@PEAM@Z|
	DCD	0x2a0030d
	;Flags[SingleProEpi] functionLength[780] RegF[0] RegI[0] H[0] frameChainReturn[UnChainedSavedLR] frameSize[80]
|$pdata$?stbir__calculate_coefficients_downsample@@YAXPEAUstbir__info@@W4stbir_filter@@MHHMPEAUstbir__contributors@@PEAM@Z| DCD imagerel |?stbir__calculate_coefficients_downsample@@YAXPEAUstbir__info@@W4stbir_filter@@MHHMPEAUstbir__contributors@@PEAM@Z|
	DCD	0x2a001f9
	;Flags[SingleProEpi] functionLength[504] RegF[0] RegI[0] H[0] frameChainReturn[UnChainedSavedLR] frameSize[80]
|$pdata$?stbir__normalize_downsample_coefficients@@YAXPEAUstbir__info@@PEAUstbir__contributors@@PEAMW4stbir_filter@@MMHH@Z| DCD imagerel |?stbir__normalize_downsample_coefficients@@YAXPEAUstbir__info@@PEAUstbir__contributors@@PEAMW4stbir_filter@@MMHH@Z|
	DCD	0x4210559
	;Flags[SingleProEpi] functionLength[1368] RegF[0] RegI[1] H[0] frameChainReturn[UnChainedSavedLR] frameSize[128]
|$pdata$?stbir__calculate_filters@@YAXPEAUstbir__info@@PEAUstbir__contributors@@PEAMW4stbir_filter@@MMHH@Z| DCD imagerel |?stbir__calculate_filters@@YAXPEAUstbir__info@@PEAUstbir__contributors@@PEAMW4stbir_filter@@MMHH@Z|
	DCD	0x3a10259
	;Flags[SingleProEpi] functionLength[600] RegF[0] RegI[1] H[0] frameChainReturn[UnChainedSavedLR] frameSize[112]
|$pdata$?stbir__get_decode_buffer@@YAPEAMPEAUstbir__info@@@Z| DCD imagerel |?stbir__get_decode_buffer@@YAPEAMPEAUstbir__info@@@Z|
	DCD	0x800049
	;Flags[SingleProEpi] functionLength[72] RegF[0] RegI[0] H[0] frameChainReturn[UnChained] frameSize[16]
|$pdata$?stbir__decode_scanline@@YAXPEAUstbir__info@@H@Z| DCD imagerel |?stbir__decode_scanline@@YAXPEAUstbir__info@@H@Z|
	DCD	0x5a00d09
	;Flags[SingleProEpi] functionLength[3336] RegF[0] RegI[0] H[0] frameChainReturn[UnChainedSavedLR] frameSize[176]
|$pdata$?stbir__get_ring_buffer_entry@@YAPEAMPEAMHH@Z| DCD imagerel |?stbir__get_ring_buffer_entry@@YAPEAMPEAMHH@Z|
	DCD	0x800039
	;Flags[SingleProEpi] functionLength[56] RegF[0] RegI[0] H[0] frameChainReturn[UnChained] frameSize[16]
|$pdata$?stbir__add_empty_ring_buffer_entry@@YAPEAMPEAUstbir__info@@H@Z| DCD imagerel |?stbir__add_empty_ring_buffer_entry@@YAPEAMPEAUstbir__info@@H@Z|
	DCD	0x1a00119
	;Flags[SingleProEpi] functionLength[280] RegF[0] RegI[0] H[0] frameChainReturn[UnChainedSavedLR] frameSize[48]
|$pdata$?stbir__resample_horizontal_upsample@@YAXPEAUstbir__info@@HPEAM@Z| DCD imagerel |?stbir__resample_horizontal_upsample@@YAXPEAUstbir__info@@HPEAM@Z|
	DCD	0x5200871
	;Flags[SingleProEpi] functionLength[2160] RegF[0] RegI[0] H[0] frameChainReturn[UnChainedSavedLR] frameSize[160]
|$pdata$?stbir__resample_horizontal_downsample@@YAXPEAUstbir__info@@HPEAM@Z| DCD imagerel |?stbir__resample_horizontal_downsample@@YAXPEAUstbir__info@@HPEAM@Z|
	DCD	0x8a00b45
	;Flags[SingleProEpi] functionLength[2884] RegF[0] RegI[0] H[0] frameChainReturn[UnChainedSavedLR] frameSize[272]
|$pdata$?stbir__decode_and_resample_upsample@@YAXPEAUstbir__info@@H@Z| DCD imagerel |?stbir__decode_and_resample_upsample@@YAXPEAUstbir__info@@H@Z|
	DCD	0x1200079
	;Flags[SingleProEpi] functionLength[120] RegF[0] RegI[0] H[0] frameChainReturn[UnChainedSavedLR] frameSize[32]
|$pdata$?stbir__decode_and_resample_downsample@@YAXPEAUstbir__info@@H@Z| DCD imagerel |?stbir__decode_and_resample_downsample@@YAXPEAUstbir__info@@H@Z|
	DCD	0x12000ad
	;Flags[SingleProEpi] functionLength[172] RegF[0] RegI[0] H[0] frameChainReturn[UnChainedSavedLR] frameSize[32]
|$pdata$?stbir__get_ring_buffer_scanline@@YAPEAMHPEAMHHHH@Z| DCD imagerel |?stbir__get_ring_buffer_scanline@@YAPEAMHPEAMHHHH@Z|
	DCD	0x1a0006d
	;Flags[SingleProEpi] functionLength[108] RegF[0] RegI[0] H[0] frameChainReturn[UnChainedSavedLR] frameSize[48]
|$pdata$?stbir__encode_scanline@@YAXPEAUstbir__info@@HPEAXPEAMHHH@Z| DCD imagerel |?stbir__encode_scanline@@YAXPEAUstbir__info@@HPEAXPEAMHHH@Z|
	DCD	0x9200a9d
	;Flags[SingleProEpi] functionLength[2716] RegF[0] RegI[0] H[0] frameChainReturn[UnChainedSavedLR] frameSize[288]
|$pdata$?stbir__resample_vertical_upsample@@YAXPEAUstbir__info@@HHHM@Z| DCD imagerel |?stbir__resample_vertical_upsample@@YAXPEAUstbir__info@@HHHM@Z|
	DCD	0x9200b19
	;Flags[SingleProEpi] functionLength[2840] RegF[0] RegI[0] H[0] frameChainReturn[UnChainedSavedLR] frameSize[288]
|$pdata$?stbir__resample_vertical_downsample@@YAXPEAUstbir__info@@HHHM@Z| DCD imagerel |?stbir__resample_vertical_downsample@@YAXPEAUstbir__info@@HHHM@Z|
	DCD	0x6a00859
	;Flags[SingleProEpi] functionLength[2136] RegF[0] RegI[0] H[0] frameChainReturn[UnChainedSavedLR] frameSize[208]
|$pdata$?stbir__buffer_loop_upsample@@YAXPEAUstbir__info@@@Z| DCD imagerel |?stbir__buffer_loop_upsample@@YAXPEAUstbir__info@@@Z|
	DCD	0x1a0023d
	;Flags[SingleProEpi] functionLength[572] RegF[0] RegI[0] H[0] frameChainReturn[UnChainedSavedLR] frameSize[48]
|$pdata$?stbir__empty_ring_buffer@@YAXPEAUstbir__info@@H@Z| DCD imagerel |?stbir__empty_ring_buffer@@YAXPEAUstbir__info@@H@Z|
	DCD	0x3200249
	;Flags[SingleProEpi] functionLength[584] RegF[0] RegI[0] H[0] frameChainReturn[UnChainedSavedLR] frameSize[96]
|$pdata$?stbir__buffer_loop_downsample@@YAXPEAUstbir__info@@@Z| DCD imagerel |?stbir__buffer_loop_downsample@@YAXPEAUstbir__info@@@Z|
	DCD	0x22001bd
	;Flags[SingleProEpi] functionLength[444] RegF[0] RegI[0] H[0] frameChainReturn[UnChainedSavedLR] frameSize[64]
|$pdata$?stbir__setup@@YAXPEAUstbir__info@@HHHHH@Z| DCD imagerel |?stbir__setup@@YAXPEAUstbir__info@@HHHHH@Z|
	DCD	0x1000075
	;Flags[SingleProEpi] functionLength[116] RegF[0] RegI[0] H[0] frameChainReturn[UnChained] frameSize[32]
|$pdata$?stbir__calculate_transform@@YAXPEAUstbir__info@@MMMMPEAM@Z| DCD imagerel |?stbir__calculate_transform@@YAXPEAUstbir__info@@MMMMPEAM@Z|
	DCD	0x10001b9
	;Flags[SingleProEpi] functionLength[440] RegF[0] RegI[0] H[0] frameChainReturn[UnChained] frameSize[32]
|$pdata$?stbir__choose_filter@@YAXPEAUstbir__info@@W4stbir_filter@@1@Z| DCD imagerel |?stbir__choose_filter@@YAXPEAUstbir__info@@W4stbir_filter@@1@Z|
	DCD	0x1a000c9
	;Flags[SingleProEpi] functionLength[200] RegF[0] RegI[0] H[0] frameChainReturn[UnChainedSavedLR] frameSize[48]
|$pdata$?stbir__calculate_memory@@YAIPEAUstbir__info@@@Z| DCD imagerel |?stbir__calculate_memory@@YAIPEAUstbir__info@@@Z|
	DCD	0x2200419
	;Flags[SingleProEpi] functionLength[1048] RegF[0] RegI[0] H[0] frameChainReturn[UnChainedSavedLR] frameSize[64]
|$pdata$?stbir__resize_allocated@@YAHPEAUstbir__info@@PEBXHPEAXHHIW4stbir_datatype@@W4stbir_edge@@4W4stbir_colorspace@@2_K@Z| DCD imagerel |?stbir__resize_allocated@@YAHPEAUstbir__info@@PEBXHPEAXHHIW4stbir_datatype@@W4stbir_edge@@4W4stbir_colorspace@@2_K@Z|
	DCD	0x4200821
	;Flags[SingleProEpi] functionLength[2080] RegF[0] RegI[0] H[0] frameChainReturn[UnChainedSavedLR] frameSize[128]
|$pdata$?stbir__resize_arbitrary@@YAHPEAXPEBXHHH0HHHMMMMPEAMHHIW4stbir_datatype@@W4stbir_filter@@4W4stbir_edge@@5W4stbir_colorspace@@@Z| DCD imagerel |?stbir__resize_arbitrary@@YAHPEAXPEBXHHH0HHHMMMMPEAMHHIW4stbir_datatype@@W4stbir_filter@@4W4stbir_edge@@5W4stbir_colorspace@@@Z|
	DCD	0xd200129
	;Flags[SingleProEpi] functionLength[296] RegF[0] RegI[0] H[0] frameChainReturn[UnChainedSavedLR] frameSize[416]
|$pdata$?CursorStoreBack@@YAXPEAU_ChCanvas_@@PEAU_cursor_@@II@Z| DCD imagerel |$LN9|
	DCD	0x1a000d5
	;Flags[SingleProEpi] functionLength[212] RegF[0] RegI[0] H[0] frameChainReturn[UnChainedSavedLR] frameSize[48]
|$pdata$?CursorDrawBack@@YAXPEAU_ChCanvas_@@PEAU_cursor_@@II@Z| DCD imagerel |$LN9|
	DCD	0x1a000d1
	;Flags[SingleProEpi] functionLength[208] RegF[0] RegI[0] H[0] frameChainReturn[UnChainedSavedLR] frameSize[48]
|$pdata$?ChangeCursor@@YAXPEAU_cursor_@@@Z| DCD imagerel |$LN4|
	DCD	0x12000c9
	;Flags[SingleProEpi] functionLength[200] RegF[0] RegI[0] H[0] frameChainReturn[UnChainedSavedLR] frameSize[32]
|$pdata$?DeodhaiAddWindow@@YAXPEAU_win_@@@Z| DCD imagerel |$LN5|
	DCD	0x800091
	;Flags[SingleProEpi] functionLength[144] RegF[0] RegI[0] H[0] frameChainReturn[UnChained] frameSize[16]
|$pdata$?DeodhaiRemoveWindow@@YAXPEAU_win_@@@Z| DCD imagerel |$LN8|
	DCD	0x8000c1
	;Flags[SingleProEpi] functionLength[192] RegF[0] RegI[0] H[0] frameChainReturn[UnChained] frameSize[16]
|$pdata$?DeodhaiAddWindowAlwaysOnTop@@YAXPEAU_win_@@@Z| DCD imagerel |$LN5|
	DCD	0x800091
	;Flags[SingleProEpi] functionLength[144] RegF[0] RegI[0] H[0] frameChainReturn[UnChained] frameSize[16]
|$pdata$?DeodhaiRemoveWindowAlwaysOnTop@@YAXPEAU_win_@@@Z| DCD imagerel |$LN8|
	DCD	0x8000c1
	;Flags[SingleProEpi] functionLength[192] RegF[0] RegI[0] H[0] frameChainReturn[UnChained] frameSize[16]
|$pdata$?DeodhaiBackSurfaceUpdate@@YAXPEAU_ChCanvas_@@HHHH@Z| DCD imagerel |$LN12|
	DCD	0x32001f1
	;Flags[SingleProEpi] functionLength[496] RegF[0] RegI[0] H[0] frameChainReturn[UnChainedSavedLR] frameSize[96]
|$pdata$?DeodhaiCreateWindow@@YAPEAU_win_@@HHHHGGPEAD@Z| DCD imagerel |$LN5|
	DCD	0x2200081
	;Flags[SingleProEpi] functionLength[128] RegF[0] RegI[0] H[0] frameChainReturn[UnChainedSavedLR] frameSize[64]
|$pdata$?DeodhaiBroadcastMessage@@YAXPEAU_post_event_@@PEAU_win_@@@Z| DCD imagerel |$LN13|
	DCD	0x1a00135
	;Flags[SingleProEpi] functionLength[308] RegF[0] RegI[0] H[0] frameChainReturn[UnChainedSavedLR] frameSize[48]
|$pdata$?DeodhaiSendFocusMessage@@YAXPEAU_post_event_@@@Z| DCD imagerel |$LN8|
	DCD	0x12000dd
	;Flags[SingleProEpi] functionLength[220] RegF[0] RegI[0] H[0] frameChainReturn[UnChainedSavedLR] frameSize[32]
|$pdata$?DeodhaiWindowMakeTop@@YAXPEAU_win_@@@Z| DCD imagerel |$LN5|
	DCD	0x1200069
	;Flags[SingleProEpi] functionLength[104] RegF[0] RegI[0] H[0] frameChainReturn[UnChainedSavedLR] frameSize[32]
|$pdata$?DeodhaiWindowSetFocused@@YAXPEAU_win_@@D@Z| DCD imagerel |$LN6|
	DCD	0x7200111
	;Flags[SingleProEpi] functionLength[272] RegF[0] RegI[0] H[0] frameChainReturn[UnChainedSavedLR] frameSize[224]
|$pdata$?DeodhaiDrawShadow@@YAXPEAU_ChCanvas_@@PEAU_win_@@@Z| DCD imagerel |$LN3|
	DCD	0x1000025
	;Flags[SingleProEpi] functionLength[36] RegF[0] RegI[0] H[0] frameChainReturn[UnChained] frameSize[32]
|$pdata$?DeodhaiRemoveShadow@@YAXPEAU_ChCanvas_@@PEAU_win_@@@Z| DCD imagerel |$LN3|
	DCD	0x1a0007d
	;Flags[SingleProEpi] functionLength[124] RegF[0] RegI[0] H[0] frameChainReturn[UnChainedSavedLR] frameSize[48]
|$pdata$?DeodhaiWindowMove@@YAXPEAU_win_@@HH@Z| DCD imagerel |$LN19|
	DCD	0x2200309
	;Flags[SingleProEpi] functionLength[776] RegF[0] RegI[0] H[0] frameChainReturn[UnChainedSavedLR] frameSize[64]
|$pdata$?DeodhaiWindowHide@@YAXPEAU_win_@@@Z| DCD imagerel |$LN5|
	DCD	0x120010d
	;Flags[SingleProEpi] functionLength[268] RegF[0] RegI[0] H[0] frameChainReturn[UnChainedSavedLR] frameSize[32]
|$pdata$?DeodhaiCheckWindowPointOcclusion@@YADPEAU_win_@@HH@Z| DCD imagerel |$LN14|
	DCD	0x2000231
	;Flags[SingleProEpi] functionLength[560] RegF[0] RegI[0] H[0] frameChainReturn[UnChained] frameSize[64]
|$pdata$?DeodhaiWindowCheckDraggable@@YAXHHH@Z| DCD imagerel |$LN15|
	DCD	0x22002e1
	;Flags[SingleProEpi] functionLength[736] RegF[0] RegI[0] H[0] frameChainReturn[UnChainedSavedLR] frameSize[64]
|$pdata$?ComposeFrame@@YAXPEAU_ChCanvas_@@@Z| DCD imagerel |$LN193|
	DCD	imagerel |$unwind$?ComposeFrame@@YAXPEAU_ChCanvas_@@@Z|
|$pdata$?DeodhaiSendMouseEvent@@YAXHHEEHHH@Z| DCD imagerel |$LN3|
	DCD	0x72000a5
	;Flags[SingleProEpi] functionLength[164] RegF[0] RegI[0] H[0] frameChainReturn[UnChainedSavedLR] frameSize[224]
|$pdata$?DeodhaiResizeCursorUpdate@@YAXHHPEAU_win_info_@@@Z| DCD imagerel |$LN17|
	DCD	0x2200205
	;Flags[SingleProEpi] functionLength[516] RegF[0] RegI[0] H[0] frameChainReturn[UnChainedSavedLR] frameSize[64]
|$pdata$?DeodhaiBroadcastMouse@@YAXHHH@Z| DCD imagerel |$LN29|
	DCD	0x3a00515
	;Flags[SingleProEpi] functionLength[1300] RegF[0] RegI[0] H[0] frameChainReturn[UnChainedSavedLR] frameSize[112]
|$pdata$?DeodhaiBroadcastTouch@@YAXHH@Z| DCD imagerel |$LN23|
	DCD	0x3200411
	;Flags[SingleProEpi] functionLength[1040] RegF[0] RegI[0] H[0] frameChainReturn[UnChainedSavedLR] frameSize[96]
|$pdata$?DeodhaiBroadcastKey@@YAXH@Z| DCD imagerel |$LN4|
	DCD	0x6a00091
	;Flags[SingleProEpi] functionLength[144] RegF[0] RegI[0] H[0] frameChainReturn[UnChainedSavedLR] frameSize[208]
|$pdata$?DeodhaiCloseWindow@@YAXPEAU_win_@@@Z| DCD imagerel |$LN7|
	DCD	0x8200221
	;Flags[SingleProEpi] functionLength[544] RegF[0] RegI[0] H[0] frameChainReturn[UnChainedSavedLR] frameSize[256]
|$pdata$?DrawWallpaper@@YAXPEAU_ChCanvas_@@PEAD@Z| DCD imagerel |$LN16|
	DCD	0x5a00361
	;Flags[SingleProEpi] functionLength[864] RegF[0] RegI[0] H[0] frameChainReturn[UnChainedSavedLR] frameSize[176]
|$pdata$?DeodhaiCurrentTime@@YA_KXZ| DCD imagerel |$LN4|
	DCD	0x12000c1
	;Flags[SingleProEpi] functionLength[192] RegF[0] RegI[0] H[0] frameChainReturn[UnChainedSavedLR] frameSize[32]
|$pdata$?DeodhaiTimeSince@@YA_K_K@Z| DCD imagerel |$LN3|
	DCD	0x1a00035
	;Flags[SingleProEpi] functionLength[52] RegF[0] RegI[0] H[0] frameChainReturn[UnChainedSavedLR] frameSize[48]
|$pdata$?DeodhaiClickCurrentTime@@YA_KXZ| DCD imagerel |$LN3|
	DCD	0x1200051
	;Flags[SingleProEpi] functionLength[80] RegF[0] RegI[0] H[0] frameChainReturn[UnChainedSavedLR] frameSize[32]
|$pdata$?DeodhaiClickTimeSince@@YA_K_K@Z| DCD imagerel |$LN3|
	DCD	0x1a00035
	;Flags[SingleProEpi] functionLength[52] RegF[0] RegI[0] H[0] frameChainReturn[UnChainedSavedLR] frameSize[48]
|$pdata$main| DCD imagerel |$LN112|
	DCD	0x20a01691
	;Flags[SingleProEpi] functionLength[5776] RegF[0] RegI[0] H[0] frameChainReturn[UnChainedSavedLR] frameSize[1040]

	AREA	|.rdata|, DATA, READONLY
|?minval@?1??stbir__linear_to_srgb_uchar@@YAEM@Z@4Tstbir__FP32@@B| DCD 0x39000000 ; `stbir__linear_to_srgb_uchar'::`2'::minval

	AREA	|.rdata|, DATA, READONLY
|?almostone@?1??stbir__linear_to_srgb_uchar@@YAEM@Z@4Tstbir__FP32@@B| DCD 0x3f7fffff ; `stbir__linear_to_srgb_uchar'::`2'::almostone

	AREA	|.data|, DATA
|?stbir__type_size@@3PAEA| DCB 0x1			; stbir__type_size
	DCB	0x2
	DCB	0x4
	DCB	0x4
	%	12
|?stbir__srgb_uchar_to_linear_float@@3PAMA| DCD 0x0	; 0 ; stbir__srgb_uchar_to_linear_float
	DCD	0x399f6230				; 0.000304
	DCD	0x3a1f1f15				; 0.000607
	DCD	0x3a6ed02d				; 0.000911
	DCD	0x3a9f1f15				; 0.001214
	DCD	0x3ac6f7a1				; 0.001518
	DCD	0x3aeeae9f				; 0.001821
	DCD	0x3b0b4396				; 0.002125
	DCD	0x3b1f1f15				; 0.002428
	DCD	0x3b330b5b				; 0.002732
	DCD	0x3b46e6da				; 0.003035
	DCD	0x3b5b5958				; 0.003347
	DCD	0x3b70f9d3				; 0.003677
	DCD	0x3b83e426				; 0.004025
	DCD	0x3b8fe261				; 0.004391
	DCD	0x3b9c8861				; 0.004777
	DCD	0x3ba9cdc4				; 0.005182
	DCD	0x3bb7aa26				; 0.005605
	DCD	0x3bc636b1				; 0.006049
	DCD	0x3bd5629e				; 0.006512
	DCD	0x3be53650				; 0.006995
	DCD	0x3bf5ba2c				; 0.007499
	DCD	0x3c0372e7				; 0.008023
	DCD	0x3c0c60cc				; 0.008568
	DCD	0x3c15a6c6				; 0.009134
	DCD	0x3c1f44d4				; 0.009721
	DCD	0x3c293f29				; 0.01033
	DCD	0x3c339192				; 0.01096
	DCD	0x3c3e4042				; 0.011612
	DCD	0x3c494b38				; 0.012286
	DCD	0x3c54b6a6				; 0.012983
	DCD	0x3c607e5a				; 0.013702
	DCD	0x3c6ca687				; 0.014444
	DCD	0x3c792f2b				; 0.015209
	DCD	0x3c830a0b				; 0.015996
	DCD	0x3c89aed5				; 0.016807
	DCD	0x3c9085f5				; 0.017642
	DCD	0x3c978d50				; 0.0185
	DCD	0x3c9ec700				; 0.019382
	DCD	0x3ca6351e				; 0.020289
	DCD	0x3cadd378				; 0.021219
	DCD	0x3cb5a640				; 0.022174
	DCD	0x3cbdab5c				; 0.023153
	DCD	0x3cc5e6ff				; 0.024158
	DCD	0x3cce54f8				; 0.025187
	DCD	0x3cd6f75e				; 0.026241
	DCD	0x3cdfd04a				; 0.027321
	DCD	0x3ce8dda5				; 0.028426
	DCD	0x3cf22186				; 0.029557
	DCD	0x3cfb99d4				; 0.030713
	DCD	0x3d02a561				; 0.031896
	DCD	0x3d07991c				; 0.033105
	DCD	0x3d0ca81a				; 0.03434
	DCD	0x3d11d25b				; 0.035601
	DCD	0x3d1718ec				; 0.036889
	DCD	0x3d1c7bcc				; 0.038204
	DCD	0x3d21fafd				; 0.039546
	DCD	0x3d27967d				; 0.040915
	DCD	0x3d2d4e4d				; 0.042311
	DCD	0x3d332379				; 0.043735
	DCD	0x3d3914f5				; 0.045186
	DCD	0x3d3f23cd				; 0.046665
	DCD	0x3d455001				; 0.048172
	DCD	0x3d4b9991				; 0.049707
	DCD	0x3d51ff71				; 0.051269
	DCD	0x3d5884c7				; 0.052861
	DCD	0x3d5f266c				; 0.05448
	DCD	0x3d65e679				; 0.056128
	DCD	0x3d6cc4f0				; 0.057805
	DCD	0x3d73c1ce				; 0.059511
	DCD	0x3d7add16				; 0.061246
	DCD	0x3d810b63				; 0.06301
	DCD	0x3d84b76f				; 0.064803
	DCD	0x3d887336				; 0.066626
	DCD	0x3d8c3e32				; 0.068478
	DCD	0x3d9018e7				; 0.07036
	DCD	0x3d940358				; 0.072272
	DCD	0x3d97fd82				; 0.074214
	DCD	0x3d9c06e2				; 0.076185
	DCD	0x3da02081				; 0.078187
	DCD	0x3da44a62				; 0.08022
	DCD	0x3da883fd				; 0.082283
	DCD	0x3daccd53				; 0.084376
	DCD	0x3db126e9				; 0.0865
	DCD	0x3db59147				; 0.088656
	DCD	0x3dba0b5f				; 0.090842
	DCD	0x3dbe95b8				; 0.093059
	DCD	0x3dc33051				; 0.095307
	DCD	0x3dc7dbb1				; 0.097587
	DCD	0x3dcc97d9				; 0.099899
	DCD	0x3dd16441				; 0.102242
	DCD	0x3dd640ea				; 0.104616
	DCD	0x3ddb2ee0				; 0.107023
	DCD	0x3de02d9d				; 0.109462
	DCD	0x3de53c9b				; 0.111932
	DCD	0x3dea5ce6				; 0.114435
	DCD	0x3def8e7e				; 0.116971
	DCD	0x3df4d057				; 0.119538
	DCD	0x3dfa2403				; 0.122139
	DCD	0x3dff8876				; 0.124772
	DCD	0x3e027f1b				; 0.127438
	DCD	0x3e05425f				; 0.130136
	DCD	0x3e080e8d				; 0.132868
	DCD	0x3e0ae361				; 0.135633
	DCD	0x3e0dc11e				; 0.138432
	DCD	0x3e10a73f				; 0.141263
	DCD	0x3e13964a				; 0.144128
	DCD	0x3e168e3f				; 0.147027
	DCD	0x3e198f1d				; 0.14996
	DCD	0x3e1c98a2				; 0.152926
	DCD	0x3e1fab11				; 0.155926
	DCD	0x3e22c6ac				; 0.158961
	DCD	0x3e25eaee				; 0.162029
	DCD	0x3e29185d				; 0.165132
	DCD	0x3e2c4eb5				; 0.168269
	DCD	0x3e2f8e3b				; 0.171441
	DCD	0x3e32d6aa				; 0.174647
	DCD	0x3e362846				; 0.177888
	DCD	0x3e39830e				; 0.181164
	DCD	0x3e3ce704				; 0.184475
	DCD	0x3e405426				; 0.187821
	DCD	0x3e43ca75				; 0.191202
	DCD	0x3e4749f1				; 0.194618
	DCD	0x3e4ad29a				; 0.198069
	DCD	0x3e4e64b2				; 0.201556
	DCD	0x3e52003b				; 0.205079
	DCD	0x3e55a4f0				; 0.208637
	DCD	0x3e595315				; 0.212231
	DCD	0x3e5d0aaa				; 0.215861
	DCD	0x3e60cb6c				; 0.219526
	DCD	0x3e6495e1				; 0.223228
	DCD	0x3e6869c6				; 0.226966
	DCD	0x3e6c471b				; 0.23074
	DCD	0x3e702e23				; 0.234551
	DCD	0x3e741e9b				; 0.238398
	DCD	0x3e781883				; 0.242281
	DCD	0x3e7c1c1d				; 0.246201
	DCD	0x3e8014b6				; 0.250158
	DCD	0x3e822036				; 0.254152
	DCD	0x3e843090				; 0.258183
	DCD	0x3e8645c3				; 0.262251
	DCD	0x3e885fd0				; 0.266356
	DCD	0x3e8a7eb7				; 0.270498
	DCD	0x3e8ca277				; 0.274677
	DCD	0x3e8ecb32				; 0.278894
	DCD	0x3e90f8e8				; 0.283149
	DCD	0x3e932b77				; 0.287441
	DCD	0x3e956302				; 0.291771
	DCD	0x3e979f66				; 0.296138
	DCD	0x3e99e0e7				; 0.300544
	DCD	0x3e9c2742				; 0.304987
	DCD	0x3e9e72b9				; 0.309469
	DCD	0x3ea0c32b				; 0.313989
	DCD	0x3ea31898				; 0.318547
	DCD	0x3ea57300				; 0.323143
	DCD	0x3ea7d285				; 0.327778
	DCD	0x3eaa3726				; 0.332452
	DCD	0x3eaca0c3				; 0.337164
	DCD	0x3eaf0f5a				; 0.341914
	DCD	0x3eb18330				; 0.346704
	DCD	0x3eb3fc22				; 0.351533
	DCD	0x3eb67a10				; 0.3564
	DCD	0x3eb8fd3b				; 0.361307
	DCD	0x3ebb8583				; 0.366253
	DCD	0x3ebe12e8				; 0.371238
	DCD	0x3ec0a56a				; 0.376262
	DCD	0x3ec33d29				; 0.381326
	DCD	0x3ec5da27				; 0.38643
	DCD	0x3ec87c42				; 0.391573
	DCD	0x3ecb2379				; 0.396755
	DCD	0x3ecdd00f				; 0.401978
	DCD	0x3ed081c3				; 0.40724
	DCD	0x3ed338d6				; 0.412543
	DCD	0x3ed5f506				; 0.417885
	DCD	0x3ed8b695				; 0.423268
	DCD	0x3edb7d63				; 0.428691
	DCD	0x3ede496f				; 0.434154
	DCD	0x3ee11ab9				; 0.439657
	DCD	0x3ee3f163				; 0.445201
	DCD	0x3ee6cd6c				; 0.450786
	DCD	0x3ee9aeb4				; 0.456411
	DCD	0x3eec955b				; 0.462077
	DCD	0x3eef8162				; 0.467784
	DCD	0x3ef272c9				; 0.473532
	DCD	0x3ef5696e				; 0.47932
	DCD	0x3ef86595				; 0.48515
	DCD	0x3efb671b				; 0.491021
	DCD	0x3efe6e01				; 0.496933
	DCD	0x3f00bd34				; 0.502887
	DCD	0x3f024606				; 0.508881
	DCD	0x3f03d1ab				; 0.514918
	DCD	0x3f055ffe				; 0.520996
	DCD	0x3f06f102				; 0.527115
	DCD	0x3f0884c7				; 0.533276
	DCD	0x3f0a1b5c				; 0.53948
	DCD	0x3f0bb4a2				; 0.545725
	DCD	0x3f0d5098				; 0.552011
	DCD	0x3f0eef5f				; 0.55834
	DCD	0x3f1090f7				; 0.564712
	DCD	0x3f12353f				; 0.571125
	DCD	0x3f13dc59				; 0.577581
	DCD	0x3f158623				; 0.584078
	DCD	0x3f1732cf				; 0.590619
	DCD	0x3f18e23b				; 0.597202
	DCD	0x3f1a9468				; 0.603827
	DCD	0x3f1c4977				; 0.610496
	DCD	0x3f1e0147				; 0.617207
	DCD	0x3f1fbbd8				; 0.62396
	DCD	0x3f21794a				; 0.630757
	DCD	0x3f23398f				; 0.637597
	DCD	0x3f24fca4				; 0.64448
	DCD	0x3f26c28b				; 0.651406
	DCD	0x3f288b44				; 0.658375
	DCD	0x3f2a56cd				; 0.665387
	DCD	0x3f2c2539				; 0.672443
	DCD	0x3f2df688				; 0.679543
	DCD	0x3f2fca97				; 0.686685
	DCD	0x3f31a198				; 0.693872
	DCD	0x3f337b6c				; 0.701102
	DCD	0x3f355821				; 0.708376
	DCD	0x3f3737b9				; 0.715694
	DCD	0x3f391a22				; 0.723055
	DCD	0x3f3aff7e				; 0.730461
	DCD	0x3f3ce7bc				; 0.737911
	DCD	0x3f3ed2cc				; 0.745404
	DCD	0x3f40c0cf				; 0.752942
	DCD	0x3f42b1c4				; 0.760525
	DCD	0x3f44a58b				; 0.768151
	DCD	0x3f469c45				; 0.775822
	DCD	0x3f4895f2				; 0.783538
	DCD	0x3f4a9281				; 0.791298
	DCD	0x3f4c9204				; 0.799103
	DCD	0x3f4e9468				; 0.806952
	DCD	0x3f5099d0				; 0.814847
	DCD	0x3f52a21a				; 0.822786
	DCD	0x3f54ad58				; 0.83077
	DCD	0x3f56bb88				; 0.838799
	DCD	0x3f58ccab				; 0.846873
	DCD	0x3f5ae0d2				; 0.854993
	DCD	0x3f5cf7db				; 0.863157
	DCD	0x3f5f11e8				; 0.871367
	DCD	0x3f612ee8				; 0.879622
	DCD	0x3f634eec				; 0.887923
	DCD	0x3f6571e3				; 0.896269
	DCD	0x3f6797dd				; 0.904661
	DCD	0x3f69c0db				; 0.913099
	DCD	0x3f6beccc				; 0.921582
	DCD	0x3f6e1bc1				; 0.930111
	DCD	0x3f704dba				; 0.938686
	DCD	0x3f7282b6				; 0.947307
	DCD	0x3f74bab6				; 0.955974
	DCD	0x3f76f5a9				; 0.964686
	DCD	0x3f7933b1				; 0.973445
	DCD	0x3f7b74cd				; 0.982251
	DCD	0x3f7db8dc				; 0.991102
	DCD	0x3f800000				; 1
|?stbir__filter_info_table@@3PAUstbir__filter_info@@A| DCQ 0x0, 0x0 ;  = 0x0000000000000000 ; stbir__filter_info_table
	DCQ	|?stbir__support_zero@@YAMM@Z|, 0
	DCQ	|?stbir__filter_trapezoid@@YAMMM@Z|, 0
	DCQ	|?stbir__support_trapezoid@@YAMM@Z|, 0
	DCQ	|?stbir__filter_triangle@@YAMMM@Z|, 0
	DCQ	|?stbir__support_one@@YAMM@Z|, 0
	DCQ	|?stbir__filter_cubic@@YAMMM@Z|, 0
	DCQ	|?stbir__support_two@@YAMM@Z|, 0
	DCQ	|?stbir__filter_catmullrom@@YAMMM@Z|, 0
	DCQ	|?stbir__support_two@@YAMM@Z|, 0
	DCQ	|?stbir__filter_mitchell@@YAMMM@Z|, 0
	DCQ	|?stbir__support_two@@YAMM@Z|, 0

	AREA	|.xdata|, DATA
|$unwind$?ComposeFrame@@YAXPEAU_ChCanvas_@@@Z| DCD 0x19e00ba2
	DCD	0xe3e3c0c1
	DCD	0xc1e461d5
	DCD	0xe461d5c0
	;Code Words[3], Epilog Start Index[7], E[1], X[0], Function Length[2978]=11912 bytes
	;alloc_m
	;nop
	;nop
	;save_reg_x
	;end
	;alloc_m
	;save_reg_x
	;end
; Function compile flags: /Odtpy
; File C:\Users\paras\source\repos\grep-name\XenevaOS\Process\Deodhai\deomain.cpp

	AREA	|.text$mn|, CODE, ARM64

|?_is_gpu_enabled@@YADXZ| PROC				; _is_gpu_enabled

; 2203 : 	return _gpu_enabled;

	adrp        x8,|?_gpu_enabled@@3DA|
	ldrsb       w0,[x8,PageOffset(|?_gpu_enabled@@3DA|)]
	ret

	ENDP  ; |?_is_gpu_enabled@@YADXZ|, _is_gpu_enabled

; Function compile flags: /Odtpy
; File C:\Users\paras\source\repos\grep-name\XenevaOS\Process\Deodhai\deomain.cpp

	AREA	|.text$mn|, CODE, ARM64

|?_get_gpu_display_id@@YAHXZ| PROC			; _get_gpu_display_id

; 2199 : 	return gpu_display_id;

	adrp        x8,|?gpu_display_id@@3HA|
	ldr         w0,[x8,PageOffset(|?gpu_display_id@@3HA|)]
	ret

	ENDP  ; |?_get_gpu_display_id@@YAHXZ|, _get_gpu_display_id

; Function compile flags: /Odtpy
; File C:\Users\paras\source\repos\grep-name\XenevaOS\Process\Deodhai\deomain.cpp

	AREA	|.text$mn|, CODE, ARM64

|?_get_gpu_fd@@YAHXZ| PROC				; _get_gpu_fd

; 2195 : 	return gpu_fd;

	adrp        x8,|?gpu_fd@@3HA|
	ldr         w0,[x8,PageOffset(|?gpu_fd@@3HA|)]
	ret

	ENDP  ; |?_get_gpu_fd@@YAHXZ|, _get_gpu_fd

; Function compile flags: /Odtpy
; File C:\Users\paras\source\repos\grep-name\XenevaOS\Process\Deodhai\deomain.cpp

	AREA	|.text$mn|, CODE, ARM64

|main|	PROC

; 1638 : int main(int argc, char* arv[]) {

|$LN112|
	str         lr,[sp,#-0x10]!
	sub         sp,sp,#0x400
	str         w0,[sp,#0xD8]
	str         x1,[sp,#0x270]

; 1639 : 	int pid = _KeGetThreadID();

	bl          _KeGetThreadID
	uxth        w8,w0
	mov         w8,w8
	str         w8,[sp,#0xDC]

; 1640 : 	
; 1641 : 	_KePrint("Argc == 10 %x\r\n", argc);

	ldr         w1,[sp,#0xD8]
	adrp        x8,|$SG8962|
	add         x0,x8,PageOffset(|$SG8962|)
	bl          _KePrint

; 1642 : 	_KePrint("Deodhai v1.0 running %d\r\n", pid);

	ldr         w1,[sp,#0xDC]
	adrp        x8,|$SG8963|
	add         x0,x8,PageOffset(|$SG8963|)
	bl          _KePrint

; 1643 : 
; 1644 : 	startTime = 0;

	adrp        x9,|?startTime@@3_KA|
	mov         x8,#0
	str         x8,[x9,PageOffset(|?startTime@@3_KA|)]

; 1645 : 	startSubTime = 0;

	adrp        x9,|?startSubTime@@3_KA|
	mov         x8,#0
	str         x8,[x9,PageOffset(|?startSubTime@@3_KA|)]

; 1646 : 	timeval tm;
; 1647 : 	//gettimeofday(&tm);
; 1648 : 	startTime = tm.tv_sec;

	ldr         w8,[sp,#0x1F8]
	sxtw        x9,w8
	adrp        x8,|?startTime@@3_KA|
	str         x9,[x8,PageOffset(|?startTime@@3_KA|)]

; 1649 : 	startSubTime = tm.tv_usec;

	ldr         w8,[sp,#0x1FC]
	sxtw        x9,w8
	adrp        x8,|?startSubTime@@3_KA|
	str         x9,[x8,PageOffset(|?startSubTime@@3_KA|)]

; 1650 : 
; 1651 : 	/* first of all get screen width and screen height */
; 1652 : 	XEFileIOControl graphctl;
; 1653 : 	memset(&graphctl, 0, sizeof(XEFileIOControl));

	mov         x2,#0x28
	mov         w1,#0
	add         x0,sp,#0x220
	bl          memset

; 1654 : 	graphctl.syscall_magic = AURORA_SYSCALL_MAGIC;

	ldr         w8,|$LN110@main|
	str         w8,[sp,#0x220]

; 1655 : 
; 1656 : 	DeodhaiInitialiseData();

	bl          |?DeodhaiInitialiseData@@YAXXZ|

; 1657 : 	BackDirtyInitialise();

	bl          |?BackDirtyInitialise@@YAXXZ|

; 1658 : 
; 1659 : 	_KePrint("Deodhai : Till here we're initialized \r\n");

	adrp        x8,|$SG8964|
	add         x0,x8,PageOffset(|$SG8964|)
	bl          _KePrint

; 1660 : 	
; 1661 : 	int ret = 0;

	mov         w8,#0
	str         w8,[sp,#0x70]

; 1662 : 	int screen_w = 0;

	mov         w8,#0
	str         w8,[sp]

; 1663 : 	_gpu_enabled = 0;

	adrp        x9,|?_gpu_enabled@@3DA|
	mov         w8,#0
	strb        w8,[x9,PageOffset(|?_gpu_enabled@@3DA|)]

; 1664 : 	int screen_h = 0;

	mov         w8,#0
	str         w8,[sp,#4]

; 1665 : 	_window_moving_ = false;

	adrp        x9,|?_window_moving_@@3DA|
	mov         w8,#0
	strb        w8,[x9,PageOffset(|?_window_moving_@@3DA|)]

; 1666 : 	_clients_advice = false;

	adrp        x9,|?_clients_advice@@3DA|
	mov         w8,#0
	strb        w8,[x9,PageOffset(|?_clients_advice@@3DA|)]

; 1667 : 	/* create a demo canvas just for getting the graphics
; 1668 : 	 * file descriptor 
; 1669 : 	 */
; 1670 : 	ChCanvas* canv = ChCreateCanvas(100, 100);

	mov         w1,#0x64
	mov         w0,#0x64
	bl          ChCreateCanvas
	str         x0,[sp,#0x10]

; 1671 : 
; 1672 : 
; 1673 : 	
; 1674 : 	canvas = canv;

	adrp        x9,|?canvas@@3PEAU_ChCanvas_@@EA|
	ldr         x8,[sp,#0x10]
	str         x8,[x9,PageOffset(|?canvas@@3PEAU_ChCanvas_@@EA|)]

; 1675 : 	ret = _KeFileIoControl(canv->graphics_fd, SCREEN_GETWIDTH, &graphctl);

	ldr         x8,[sp,#0x10]
	add         x2,sp,#0x220
	mov         w1,#0xC9
	ldr         w0,[x8]
	bl          _KeFileIoControl
	mov         w0,w0
	str         w0,[sp,#0x70]

; 1676 : 	screen_w = graphctl.uint_1;

	ldr         w8,[sp,#0x22C]
	str         w8,[sp]

; 1677 : 	ret = _KeFileIoControl(canv->graphics_fd, SCREEN_GETHEIGHT, &graphctl);

	ldr         x8,[sp,#0x10]
	add         x2,sp,#0x220
	mov         w1,#0xCA
	ldr         w0,[x8]
	bl          _KeFileIoControl
	mov         w0,w0
	str         w0,[sp,#0x70]

; 1678 : 	screen_h = graphctl.uint_1;

	ldr         w8,[sp,#0x22C]
	str         w8,[sp,#4]

; 1679 : 
; 1680 : 	/* now modify the canvas size with screen size */
; 1681 : 	canv->canvasWidth = screen_w;

	ldr         x8,[sp,#0x10]
	add         x9,x8,#0x18
	ldr         w8,[sp]
	str         w8,[x9]

; 1682 : 	canv->canvasHeight = screen_h;

	ldr         x8,[sp,#0x10]
	add         x9,x8,#0x1C
	ldr         w8,[sp,#4]
	str         w8,[x9]

; 1683 : 
; 1684 : 	gpu_fd = _KeOpenFile("/dev/virtiogpu", FILE_OPEN_READ_ONLY);

	mov         w1,#2
	adrp        x8,|$SG8965|
	add         x0,x8,PageOffset(|$SG8965|)
	bl          _KeOpenFile
	mov         w0,w0
	adrp        x8,|?gpu_fd@@3HA|
	str         w0,[x8,PageOffset(|?gpu_fd@@3HA|)]

; 1685 : 
; 1686 : 	if (gpu_fd != -1) {

	adrp        x8,|?gpu_fd@@3HA|
	ldr         w8,[x8,PageOffset(|?gpu_fd@@3HA|)]
	cmn         w8,#1
	beq         |$LN46@main|

; 1687 : 		_gpu_enabled = 1;

	adrp        x9,|?_gpu_enabled@@3DA|
	mov         w8,#1
	strb        w8,[x9,PageOffset(|?_gpu_enabled@@3DA|)]

; 1688 : 		gpu_display_id = _KeFileIoControl(gpu_fd, 0x204, NULL);

	mov         x2,#0
	mov         w1,#0x204
	adrp        x8,|?gpu_fd@@3HA|
	ldr         w0,[x8,PageOffset(|?gpu_fd@@3HA|)]
	bl          _KeFileIoControl
	mov         w0,w0
	adrp        x8,|?gpu_display_id@@3HA|
	str         w0,[x8,PageOffset(|?gpu_display_id@@3HA|)]
|$LN46@main|

; 1689 : 	}
; 1690 : 
; 1691 : 	_KePrint("Canv->screen_w -> %d, screenh -> %d \r\n", screen_w, screen_h);

	ldr         w2,[sp,#4]
	ldr         w1,[sp]
	adrp        x8,|$SG8967|
	add         x0,x8,PageOffset(|$SG8967|)
	bl          _KePrint

; 1692 : 	/* now allocate a back buffer with respected canvas size
; 1693 : 	 * and fill it with light-black color */
; 1694 : 	ChAllocateBuffer(canv);

	ldr         x0,[sp,#0x10]
	bl          ChAllocateBuffer

; 1695 : 	/* allocate a surface buffer */
; 1696 : 	surfaceBuffer = (uint32_t*)_KeMemMap(NULL, static_cast<size_t>(canv->screenWidth) * canv->screenHeight * 4, 0, 0, MEMMAP_NO_FILEDESC, 0);

	ldr         x8,[sp,#0x10]
	add         x8,x8,#4
	ldr         w8,[x8]
	uxtw        x9,w8
	ldr         x8,[sp,#0x10]
	add         x8,x8,#8
	ldr         w8,[x8]
	uxtw        x8,w8
	mul         x9,x9,x8
	mov         x8,#4
	mul         x1,x9,x8
	mov         x5,#0
	mov         w4,#-1
	mov         w3,#0
	mov         w2,#0
	mov         x0,#0
	bl          _KeMemMap
	adrp        x8,|?surfaceBuffer@@3PEAIEA|
	str         x0,[x8,PageOffset(|?surfaceBuffer@@3PEAIEA|)]

; 1697 : 	for (int i = 0; i < screen_w; i++)

	mov         w8,#0
	str         w8,[sp,#0x28]
	b           |$LN4@main|
|$LN2@main|
	ldr         w8,[sp,#0x28]
	add         w8,w8,#1
	str         w8,[sp,#0x28]
|$LN4@main|
	ldr         w9,[sp]
	ldr         w8,[sp,#0x28]
	cmp         w8,w9
	bge         |$LN3@main|

; 1698 : 	for (int j = 0; j < screen_h; j++)

	mov         w8,#0
	str         w8,[sp,#0x24]
	b           |$LN7@main|
|$LN5@main|
	ldr         w8,[sp,#0x24]
	add         w8,w8,#1
	str         w8,[sp,#0x24]
|$LN7@main|
	ldr         w9,[sp,#4]
	ldr         w8,[sp,#0x24]
	cmp         w8,w9
	bge         |$LN6@main|

; 1699 : 		surfaceBuffer[j * canv->canvasWidth + i] = GRAY; //0xFF938585;

	ldr         x8,[sp,#0x10]
	add         x8,x8,#0x18
	ldr         w9,[sp,#0x24]
	ldr         w8,[x8]
	mul         w9,w9,w8
	ldr         w8,[sp,#0x28]
	add         w8,w9,w8
	uxtw        x9,w8
	mov         x8,#4
	mul         x9,x9,x8
	adrp        x8,|?surfaceBuffer@@3PEAIEA|
	ldr         x8,[x8,PageOffset(|?surfaceBuffer@@3PEAIEA|)]
	add         x9,x8,x9
	ldr         w8,|$LN111@main|
	str         w8,[x9]
	b           |$LN5@main|
|$LN6@main|
	b           |$LN2@main|
|$LN3@main|

; 1700 : 
; 1701 : 	DeodhaiBackSurfaceUpdate(canv, 0, 0, screen_w, screen_h);

	ldr         w4,[sp,#4]
	ldr         w3,[sp]
	mov         w2,#0
	mov         w1,#0
	ldr         x0,[sp,#0x10]
	bl          |?DeodhaiBackSurfaceUpdate@@YAXPEAU_ChCanvas_@@HHHH@Z|

; 1702 : 	if (screen_w == 1024 && screen_h == 768) {

	ldr         w8,[sp]
	cmp         w8,#0x400
	bne         |$LN47@main|
	ldr         w8,[sp,#4]
	cmp         w8,#0x300
	bne         |$LN47@main|

; 1703 : 		DrawWallpaper(canv, "/mtnr1.jpg");

	adrp        x8,|$SG8970|
	add         x1,x8,PageOffset(|$SG8970|)
	ldr         x0,[sp,#0x10]
	bl          |?DrawWallpaper@@YAXPEAU_ChCanvas_@@PEAD@Z|

; 1704 : 		DeodhaiBackSurfaceUpdate(canv, 0, 0, screen_w, screen_h);

	ldr         w4,[sp,#4]
	ldr         w3,[sp]
	mov         w2,#0
	mov         w1,#0
	ldr         x0,[sp,#0x10]
	bl          |?DeodhaiBackSurfaceUpdate@@YAXPEAU_ChCanvas_@@HHHH@Z|
	b           |$LN48@main|
|$LN47@main|

; 1705 : 	}else if (screen_w == 1920 && screen_h == 1080) {

	ldr         w8,[sp]
	cmp         w8,#0x780
	bne         |$LN49@main|
	ldr         w8,[sp,#4]
	cmp         w8,#0x438
	bne         |$LN49@main|

; 1706 : 		DrawWallpaper(canv, "/mtnr2.jpg");

	adrp        x8,|$SG8973|
	add         x1,x8,PageOffset(|$SG8973|)
	ldr         x0,[sp,#0x10]
	bl          |?DrawWallpaper@@YAXPEAU_ChCanvas_@@PEAD@Z|

; 1707 : 		DeodhaiBackSurfaceUpdate(canv, 0, 0, screen_w, screen_h);

	ldr         w4,[sp,#4]
	ldr         w3,[sp]
	mov         w2,#0
	mov         w1,#0
	ldr         x0,[sp,#0x10]
	bl          |?DeodhaiBackSurfaceUpdate@@YAXPEAU_ChCanvas_@@HHHH@Z|
	b           |$LN50@main|
|$LN49@main|

; 1708 : 	}else if (screen_w == 480 && screen_h == 320) {

	ldr         w8,[sp]
	cmp         w8,#0x1E0
	bne         |$LN51@main|
	ldr         w8,[sp,#4]
	cmp         w8,#0x140
	bne         |$LN51@main|

; 1709 : 		DrawWallpaper(canv, "/mntr1.jpg");

	adrp        x8,|$SG8976|
	add         x1,x8,PageOffset(|$SG8976|)
	ldr         x0,[sp,#0x10]
	bl          |?DrawWallpaper@@YAXPEAU_ChCanvas_@@PEAD@Z|

; 1710 : 		DeodhaiBackSurfaceUpdate(canv, 0, 0, screen_w, screen_h);

	ldr         w4,[sp,#4]
	ldr         w3,[sp]
	mov         w2,#0
	mov         w1,#0
	ldr         x0,[sp,#0x10]
	bl          |?DeodhaiBackSurfaceUpdate@@YAXPEAU_ChCanvas_@@HHHH@Z|

; 1711 : 	}

	b           |$LN52@main|
|$LN51@main|

; 1712 : 	else if (screen_w == 800 && screen_h == 480) {

	ldr         w8,[sp]
	cmp         w8,#0x320
	bne         |$LN53@main|
	ldr         w8,[sp,#4]
	cmp         w8,#0x1E0
	bne         |$LN53@main|

; 1713 : 		DrawWallpaper(canv, "/flora1.jpg");

	adrp        x8,|$SG8978|
	add         x1,x8,PageOffset(|$SG8978|)
	ldr         x0,[sp,#0x10]
	bl          |?DrawWallpaper@@YAXPEAU_ChCanvas_@@PEAD@Z|

; 1714 : 		DeodhaiBackSurfaceUpdate(canv, 0, 0, screen_w, screen_h);

	ldr         w4,[sp,#4]
	ldr         w3,[sp]
	mov         w2,#0
	mov         w1,#0
	ldr         x0,[sp,#0x10]
	bl          |?DeodhaiBackSurfaceUpdate@@YAXPEAU_ChCanvas_@@HHHH@Z|
|$LN53@main|
|$LN52@main|
|$LN50@main|
|$LN48@main|

; 1715 : 	}
; 1716 : 
; 1717 : 	ChCanvasScreenUpdate(canv, 0, 0, canv->canvasWidth, canv->canvasHeight);

	ldr         x8,[sp,#0x10]
	add         x9,x8,#0x1C
	ldr         x8,[sp,#0x10]
	add         x8,x8,#0x18
	ldr         w4,[x9]
	ldr         w3,[x8]
	mov         w2,#0
	mov         w1,#0
	ldr         x0,[sp,#0x10]
	bl          ChCanvasScreenUpdate

; 1718 : 	if (_gpu_enabled) {

	adrp        x8,|?_gpu_enabled@@3DA|
	ldrsb       w8,[x8,PageOffset(|?_gpu_enabled@@3DA|)]
	mov         w8,w8
	cmp         w8,#0
	beq         |$LN54@main|

; 1719 : 		XEFileIOControl ctl;
; 1720 : 		ctl.uint_1 = gpu_display_id;

	adrp        x8,|?gpu_display_id@@3HA|
	ldr         w8,[x8,PageOffset(|?gpu_display_id@@3HA|)]
	str         w8,[sp,#0x254]

; 1721 : 		ctl.ushort_1 = 0;

	mov         w8,#0
	strh        w8,[sp,#0x24E]

; 1722 : 		ctl.ushort_2 = 0;

	mov         w8,#0
	strh        w8,[sp,#0x250]

; 1723 : 		ctl.ulong_1 = canv->canvasWidth;

	ldr         x8,[sp,#0x10]
	add         x8,x8,#0x18
	ldr         w8,[x8]
	uxtw        x8,w8
	str         x8,[sp,#0x260]

; 1724 : 		ctl.ulong_2 = canv->canvasHeight;

	ldr         x8,[sp,#0x10]
	add         x8,x8,#0x1C
	ldr         w8,[x8]
	uxtw        x8,w8
	str         x8,[sp,#0x268]

; 1725 : 		_KeFileIoControl(gpu_fd, 0x202, &ctl);

	add         x2,sp,#0x248
	mov         w1,#0x202
	adrp        x8,|?gpu_fd@@3HA|
	ldr         w0,[x8,PageOffset(|?gpu_fd@@3HA|)]
	bl          _KeFileIoControl

; 1726 : 		canv->buffer = canv->framebuff;

	ldr         x8,[sp,#0x10]
	add         x10,x8,#0x30
	ldr         x8,[sp,#0x10]
	add         x9,x8,#0x20
	ldr         x8,[x10]
	str         x8,[x9]
|$LN54@main|

; 1727 : 	}
; 1728 : 
; 1729 : 	InitialiseDirtyClipList();

	bl          |?InitialiseDirtyClipList@@YAXXZ|

; 1730 : 
; 1731 : 	arrow = CursorOpen("/pointer.bmp", CURSOR_TYPE_POINTER);

	mov         w1,#1
	adrp        x8,|$SG8980|
	add         x0,x8,PageOffset(|$SG8980|)
	bl          |?CursorOpen@@YAPEAU_cursor_@@PEADE@Z|
	adrp        x8,|?arrow@@3PEAU_cursor_@@EA|
	str         x0,[x8,PageOffset(|?arrow@@3PEAU_cursor_@@EA|)]

; 1732 : 	CursorRead(arrow);

	adrp        x8,|?arrow@@3PEAU_cursor_@@EA|
	ldr         x0,[x8,PageOffset(|?arrow@@3PEAU_cursor_@@EA|)]
	bl          |?CursorRead@@YAXPEAU_cursor_@@@Z|

; 1733 : 	/*move = CursorOpen("/move.bmp", CURSOR_TYPE_MOVE);
; 1734 : 	CursorRead(move);
; 1735 : 	resizeUpDown = CursorOpen("/rzupdn.bmp", CURSOR_TYPE_RESIZE_UPDOWN);
; 1736 : 	CursorRead(resizeUpDown);
; 1737 : 	resizeLeftRight = CursorOpen("/rzrl.bmp", CURSOR_TYPE_RESIZE_RIGHTLEFT);
; 1738 : 	CursorRead(resizeLeftRight);*/
; 1739 : 	currentCursor = arrow;

	adrp        x9,|?currentCursor@@3PEAU_cursor_@@EA|
	adrp        x8,|?arrow@@3PEAU_cursor_@@EA|
	ldr         x8,[x8,PageOffset(|?arrow@@3PEAU_cursor_@@EA|)]
	str         x8,[x9,PageOffset(|?currentCursor@@3PEAU_cursor_@@EA|)]

; 1740 : 	CursorStoreBack(canv, currentCursor, 0, 0);

	mov         w3,#0
	mov         w2,#0
	adrp        x8,|?currentCursor@@3PEAU_cursor_@@EA|
	ldr         x1,[x8,PageOffset(|?currentCursor@@3PEAU_cursor_@@EA|)]
	ldr         x0,[sp,#0x10]
	bl          |?CursorStoreBack@@YAXPEAU_ChCanvas_@@PEAU_cursor_@@II@Z|

; 1741 : 
; 1742 : 	/* Open all required device file */
; 1743 : 	mouse_fd = _KeOpenFile("/dev/mice", FILE_OPEN_READ_ONLY);

	mov         w1,#2
	adrp        x8,|$SG8981|
	add         x0,x8,PageOffset(|$SG8981|)
	bl          _KeOpenFile
	mov         w0,w0
	adrp        x8,|?mouse_fd@@3HA|
	str         w0,[x8,PageOffset(|?mouse_fd@@3HA|)]

; 1744 : 	kybrd_fd = _KeOpenFile("/dev/kybrd", FILE_OPEN_READ_ONLY);

	mov         w1,#2
	adrp        x8,|$SG8982|
	add         x0,x8,PageOffset(|$SG8982|)
	bl          _KeOpenFile
	mov         w0,w0
	adrp        x8,|?kybrd_fd@@3HA|
	str         w0,[x8,PageOffset(|?kybrd_fd@@3HA|)]

; 1745 : 
; 1746 : 	AuInputMessage mice_input;
; 1747 : 	AuInputMessage kybrd_input;
; 1748 : 	memset(&mice_input, 0, sizeof(AuInputMessage));

	mov         x2,#0x20
	mov         w1,#0
	add         x0,sp,#0x128
	bl          memset

; 1749 : 	memset(&kybrd_input, 0, sizeof(AuInputMessage));

	mov         x2,#0x20
	mov         w1,#0
	add         x0,sp,#0x200
	bl          memset

; 1750 : 	postbox_fd = _KeOpenFile("/dev/postbox", FILE_OPEN_READ_ONLY);

	mov         w1,#2
	adrp        x8,|$SG8983|
	add         x0,x8,PageOffset(|$SG8983|)
	bl          _KeOpenFile
	mov         w0,w0
	adrp        x8,|?postbox_fd@@3HA|
	str         w0,[x8,PageOffset(|?postbox_fd@@3HA|)]

; 1751 : 	_KePrint("postboxfd : %d \r\n", postbox_fd);

	adrp        x8,|?postbox_fd@@3HA|
	ldr         w1,[x8,PageOffset(|?postbox_fd@@3HA|)]
	adrp        x8,|$SG8984|
	add         x0,x8,PageOffset(|$SG8984|)
	bl          _KePrint

; 1752 : 
; 1753 : 	
; 1754 : //	postbox_fd = canv->graphics_fd;
; 1755 : 
; 1756 : 	_KeFileIoControl(postbox_fd, POSTBOX_CREATE_ROOT, NULL);

	mov         x2,#0
	mov         w1,#0x195
	adrp        x8,|?postbox_fd@@3HA|
	ldr         w0,[x8,PageOffset(|?postbox_fd@@3HA|)]
	bl          _KeFileIoControl

; 1757 : 
; 1758 : 	mouseLastHovered = NULL;

	adrp        x9,|?mouseLastHovered@@3PEAU_win_@@EA|
	mov         x8,#0
	str         x8,[x9,PageOffset(|?mouseLastHovered@@3PEAU_win_@@EA|)]

; 1759 : 
; 1760 : 	PostEvent event;
; 1761 : 	uint64_t frame_tick = 0;

	mov         x8,#0
	str         x8,[sp,#0x278]

; 1762 : 	uint64_t diff_tick = 0;

	mov         x8,#0
	str         x8,[sp,#0x280]

; 1763 : 	uint64_t last_click_time = 0;

	mov         x8,#0
	str         x8,[sp,#0x288]

; 1764 : 	uint64_t last_redraw = 0;

	mov         x8,#0
	str         x8,[sp,#0x290]

; 1765 : 
; 1766 : 	int proc = _KeCreateProcess(0, "xelnch");

	adrp        x8,|$SG8985|
	add         x1,x8,PageOffset(|$SG8985|)
	mov         w0,#0
	bl          _KeCreateProcess
	mov         w0,w0
	str         w0,[sp,#0x34]

; 1767 : 	_KeProcessLoadExec(proc, "/xelnch.exe", 0, NULL);

	mov         x3,#0
	mov         w2,#0
	adrp        x8,|$SG8986|
	add         x1,x8,PageOffset(|$SG8986|)
	ldr         w0,[sp,#0x34]
	bl          _KeProcessLoadExec

; 1768 : 
; 1769 : 	_KeProcessSleep(100);

	mov         x0,#0x64
	bl          _KeProcessSleep

; 1770 : 	proc = _KeCreateProcess(0, "nmdapha");

	adrp        x8,|$SG8987|
	add         x1,x8,PageOffset(|$SG8987|)
	mov         w0,#0
	bl          _KeCreateProcess
	mov         w0,w0
	str         w0,[sp,#0x34]

; 1771 : 	_KeProcessLoadExec(proc, "/nmdapha.exe", NULL, NULL);

	mov         x3,#0
	mov         w2,#0
	adrp        x8,|$SG8988|
	add         x1,x8,PageOffset(|$SG8988|)
	ldr         w0,[sp,#0x34]
	bl          _KeProcessLoadExec

; 1772 : 
; 1773 : 	//_KeProcessSleep(200);
; 1774 : 	/*int proc = _KeCreateProcess(0, "file");
; 1775 : 	_KeProcessLoadExec(proc, "/file.exe", NULL, NULL);
; 1776 : 
; 1777 : 	_KeProcessSleep(100);
; 1778 : 	proc = _KeCreateProcess(0, "calc");
; 1779 : 	_KeProcessLoadExec(proc, "/calc.exe", NULL, NULL);*/
; 1780 : 
; 1781 : 	/* launch the session manager directly from here */
; 1782 : #ifdef ARCH_X64
; 1783 : 	int proc = _KeCreateProcess(0, "xelnch");
; 1784 : 	_KeProcessLoadExec(proc, "/xelnch.exe", 0, NULL);
; 1785 : 
; 1786 : 	_KeProcessSleep(100);
; 1787 : 
; 1788 : 	proc = _KeCreateProcess(0, "nmdapha");
; 1789 : 	_KeProcessLoadExec(proc, "/nmdapha.exe", 0, NULL);
; 1790 : #endif
; 1791 : 
; 1792 : 
; 1793 : 
; 1794 : 	_KePrint("Postbox created for deodhai \r\n");

	adrp        x8,|$SG8989|
	add         x0,x8,PageOffset(|$SG8989|)
	bl          _KePrint
|$LN8@main|

; 1795 : 	while (1) {

	mov         w8,#1
	cmp         w8,#0
	beq         |$LN9@main|

; 1796 : #ifdef ARCH_X64
; 1797 : 		unsigned long frameTime = DeodhaiTimeSince(last_redraw);
; 1798 : 		if (frameTime > 15) {
; 1799 : 			ComposeFrame(canv);
; 1800 : 			last_redraw = DeodhaiCurrentTime();
; 1801 : 			frameTime = 0;
; 1802 : 		}
; 1803 : #elif ARCH_ARM64
; 1804 : 		ComposeFrame(canv);

	ldr         x0,[sp,#0x10]
	bl          |?ComposeFrame@@YAXPEAU_ChCanvas_@@@Z|

; 1805 : #endif
; 1806 : 		
; 1807 : 		_KeFileIoControl(postbox_fd, POSTBOX_GET_EVENT_ROOT, &event);

	add         x2,sp,#0x148
	mov         w1,#0x196
	adrp        x8,|?postbox_fd@@3HA|
	ldr         w0,[x8,PageOffset(|?postbox_fd@@3HA|)]
	bl          _KeFileIoControl

; 1808 : 
; 1809 : 		_KeReadFile(mouse_fd, &mice_input, sizeof(AuInputMessage));

	mov         x2,#0x20
	add         x1,sp,#0x128
	adrp        x8,|?mouse_fd@@3HA|
	ldr         w0,[x8,PageOffset(|?mouse_fd@@3HA|)]
	bl          _KeReadFile

; 1810 : 
; 1811 : 
; 1812 : 		_KeReadFile(kybrd_fd, &kybrd_input, sizeof(AuInputMessage));

	mov         x2,#0x20
	add         x1,sp,#0x200
	adrp        x8,|?kybrd_fd@@3HA|
	ldr         w0,[x8,PageOffset(|?kybrd_fd@@3HA|)]
	bl          _KeReadFile

; 1813 : 
; 1814 : 		
; 1815 : 		
; 1816 : 		if (mice_input.type == AU_INPUT_MOUSE) {

	ldrb        w8,[sp,#0x128]
	mov         w8,w8
	cmp         w8,#1
	bne         |$LN55@main|

; 1817 : 			int32_t cursor_x = mice_input.xpos;

	ldr         w8,[sp,#0x12C]
	str         w8,[sp,#0xE0]

; 1818 : 			int32_t cursor_y = mice_input.ypos;

	ldr         w8,[sp,#0x130]
	str         w8,[sp,#0xE4]

; 1819 : 
; 1820 : #ifdef ARCH_X64
; 1821 : 			double scale_x, scale_y;
; 1822 : 			if (mice_input.code4 != 0){
; 1823 : 				/*scaling is needed*/
; 1824 : 				scale_x = (double)canvas->screenWidth / (double)mice_input.code4;
; 1825 : 				cursor_x = mice_input.xpos * (double)scale_x;
; 1826 : 				scale_y = (double)canvas->screenHeight / (double)mice_input.code4;
; 1827 : 				cursor_y = mice_input.ypos * (double)scale_y;
; 1828 : 			}
; 1829 : #endif
; 1830 : 			currentCursor->xpos = cursor_x;

	adrp        x8,|?currentCursor@@3PEAU_cursor_@@EA|
	ldr         x8,[x8,PageOffset(|?currentCursor@@3PEAU_cursor_@@EA|)]
	add         x9,x8,#0x20
	ldr         w8,[sp,#0xE0]
	str         w8,[x9]

; 1831 : 			currentCursor->ypos = cursor_y;

	adrp        x8,|?currentCursor@@3PEAU_cursor_@@EA|
	ldr         x8,[x8,PageOffset(|?currentCursor@@3PEAU_cursor_@@EA|)]
	add         x9,x8,#0x24
	ldr         w8,[sp,#0xE4]
	str         w8,[x9]

; 1832 : 			int button = mice_input.button_state;

	ldrb        w8,[sp,#0x134]
	mov         w8,w8
	str         w8,[sp,#0x74]

; 1833 : 		
; 1834 : 			if ((currentCursor->xpos) <= 0)

	adrp        x8,|?currentCursor@@3PEAU_cursor_@@EA|
	ldr         x8,[x8,PageOffset(|?currentCursor@@3PEAU_cursor_@@EA|)]
	add         x8,x8,#0x20
	ldr         w8,[x8]
	cmp         w8,#0
	bgt         |$LN56@main|

; 1835 : 				currentCursor->xpos = 0;

	adrp        x8,|?currentCursor@@3PEAU_cursor_@@EA|
	ldr         x8,[x8,PageOffset(|?currentCursor@@3PEAU_cursor_@@EA|)]
	add         x9,x8,#0x20
	mov         w8,#0
	str         w8,[x9]
|$LN56@main|

; 1836 : 
; 1837 : 			if ((currentCursor->ypos) <= 0)

	adrp        x8,|?currentCursor@@3PEAU_cursor_@@EA|
	ldr         x8,[x8,PageOffset(|?currentCursor@@3PEAU_cursor_@@EA|)]
	add         x8,x8,#0x24
	ldr         w8,[x8]
	cmp         w8,#0
	bgt         |$LN57@main|

; 1838 : 				currentCursor->ypos = 0;

	adrp        x8,|?currentCursor@@3PEAU_cursor_@@EA|
	ldr         x8,[x8,PageOffset(|?currentCursor@@3PEAU_cursor_@@EA|)]
	add         x9,x8,#0x24
	mov         w8,#0
	str         w8,[x9]
|$LN57@main|

; 1839 : 
; 1840 : 			if ((currentCursor->xpos + 24) >= canvas->screenWidth)

	adrp        x8,|?currentCursor@@3PEAU_cursor_@@EA|
	ldr         x8,[x8,PageOffset(|?currentCursor@@3PEAU_cursor_@@EA|)]
	add         x8,x8,#0x20
	ldr         w8,[x8]
	add         w9,w8,#0x18
	adrp        x8,|?canvas@@3PEAU_ChCanvas_@@EA|
	ldr         x8,[x8,PageOffset(|?canvas@@3PEAU_ChCanvas_@@EA|)]
	add         x8,x8,#4
	ldr         w8,[x8]
	cmp         w9,w8
	blo         |$LN58@main|

; 1841 : 				currentCursor->xpos = canvas->screenWidth - 24;

	adrp        x8,|?canvas@@3PEAU_ChCanvas_@@EA|
	ldr         x8,[x8,PageOffset(|?canvas@@3PEAU_ChCanvas_@@EA|)]
	add         x8,x8,#4
	ldr         w8,[x8]
	sub         w9,w8,#0x18
	adrp        x8,|?currentCursor@@3PEAU_cursor_@@EA|
	ldr         x8,[x8,PageOffset(|?currentCursor@@3PEAU_cursor_@@EA|)]
	add         x8,x8,#0x20
	str         w9,[x8]
|$LN58@main|

; 1842 : 
; 1843 : 			if ((currentCursor->ypos + 24) >= canvas->screenHeight)

	adrp        x8,|?currentCursor@@3PEAU_cursor_@@EA|
	ldr         x8,[x8,PageOffset(|?currentCursor@@3PEAU_cursor_@@EA|)]
	add         x8,x8,#0x24
	ldr         w8,[x8]
	add         w9,w8,#0x18
	adrp        x8,|?canvas@@3PEAU_ChCanvas_@@EA|
	ldr         x8,[x8,PageOffset(|?canvas@@3PEAU_ChCanvas_@@EA|)]
	add         x8,x8,#8
	ldr         w8,[x8]
	cmp         w9,w8
	blo         |$LN59@main|

; 1844 : 				currentCursor->ypos = canvas->screenHeight - 24;

	adrp        x8,|?canvas@@3PEAU_ChCanvas_@@EA|
	ldr         x8,[x8,PageOffset(|?canvas@@3PEAU_ChCanvas_@@EA|)]
	add         x8,x8,#8
	ldr         w8,[x8]
	sub         w9,w8,#0x18
	adrp        x8,|?currentCursor@@3PEAU_cursor_@@EA|
	ldr         x8,[x8,PageOffset(|?currentCursor@@3PEAU_cursor_@@EA|)]
	add         x8,x8,#0x24
	str         w9,[x8]
|$LN59@main|

; 1845 : 
; 1846 : 			if (currentCursor->xpos >= canvas->screenWidth)

	adrp        x8,|?currentCursor@@3PEAU_cursor_@@EA|
	ldr         x8,[x8,PageOffset(|?currentCursor@@3PEAU_cursor_@@EA|)]
	add         x10,x8,#0x20
	adrp        x8,|?canvas@@3PEAU_ChCanvas_@@EA|
	ldr         x8,[x8,PageOffset(|?canvas@@3PEAU_ChCanvas_@@EA|)]
	add         x8,x8,#4
	ldr         w9,[x8]
	ldr         w8,[x10]
	cmp         w8,w9
	blo         |$LN60@main|

; 1847 : 				currentCursor->xpos = 0;

	adrp        x8,|?currentCursor@@3PEAU_cursor_@@EA|
	ldr         x8,[x8,PageOffset(|?currentCursor@@3PEAU_cursor_@@EA|)]
	add         x9,x8,#0x20
	mov         w8,#0
	str         w8,[x9]
|$LN60@main|

; 1848 : 
; 1849 : 			if (currentCursor->ypos >= canvas->screenHeight)

	adrp        x8,|?currentCursor@@3PEAU_cursor_@@EA|
	ldr         x8,[x8,PageOffset(|?currentCursor@@3PEAU_cursor_@@EA|)]
	add         x10,x8,#0x24
	adrp        x8,|?canvas@@3PEAU_ChCanvas_@@EA|
	ldr         x8,[x8,PageOffset(|?canvas@@3PEAU_ChCanvas_@@EA|)]
	add         x8,x8,#8
	ldr         w9,[x8]
	ldr         w8,[x10]
	cmp         w8,w9
	blo         |$LN61@main|

; 1850 : 				currentCursor->ypos = 0;

	adrp        x8,|?currentCursor@@3PEAU_cursor_@@EA|
	ldr         x8,[x8,PageOffset(|?currentCursor@@3PEAU_cursor_@@EA|)]
	add         x9,x8,#0x24
	mov         w8,#0
	str         w8,[x9]
|$LN61@main|

; 1851 : 
; 1852 : 		    DeodhaiWindowCheckDraggable(currentCursor->xpos, currentCursor->ypos, button);

	adrp        x8,|?currentCursor@@3PEAU_cursor_@@EA|
	ldr         x8,[x8,PageOffset(|?currentCursor@@3PEAU_cursor_@@EA|)]
	add         x9,x8,#0x24
	adrp        x8,|?currentCursor@@3PEAU_cursor_@@EA|
	ldr         x8,[x8,PageOffset(|?currentCursor@@3PEAU_cursor_@@EA|)]
	add         x8,x8,#0x20
	ldr         w2,[sp,#0x74]
	ldr         w1,[x9]
	ldr         w0,[x8]
	bl          |?DeodhaiWindowCheckDraggable@@YAXHHH@Z|

; 1853 : 
; 1854 : 			/*
; 1855 : 			 * TODO: bug fixing
; 1856 : 			 */
; 1857 : #ifdef ARCH_X64
; 1858 : 			if (button){
; 1859 : 				if (DeodhaiClickTimeSince(last_click_time) < 400) {
; 1860 : 					button = DEODHAI_MESSAGE_MOUSE_DBLCLK;
; 1861 : 					last_click_time = 0;
; 1862 : 				}
; 1863 : 				else {
; 1864 : 					last_click_time = DeodhaiClickCurrentTime();
; 1865 : 				}
; 1866 : 			}
; 1867 : #endif
; 1868 : 			if (_window_broadcast_mouse_) 

	adrp        x8,|?_window_broadcast_mouse_@@3DA|
	ldrsb       w8,[x8,PageOffset(|?_window_broadcast_mouse_@@3DA|)]
	mov         w8,w8
	cmp         w8,#0
	beq         |$LN62@main|

; 1869 : 				DeodhaiBroadcastMouse(currentCursor->xpos, currentCursor->ypos, button);

	adrp        x8,|?currentCursor@@3PEAU_cursor_@@EA|
	ldr         x8,[x8,PageOffset(|?currentCursor@@3PEAU_cursor_@@EA|)]
	add         x9,x8,#0x24
	adrp        x8,|?currentCursor@@3PEAU_cursor_@@EA|
	ldr         x8,[x8,PageOffset(|?currentCursor@@3PEAU_cursor_@@EA|)]
	add         x8,x8,#0x20
	ldr         w2,[sp,#0x74]
	ldr         w1,[x9]
	ldr         w0,[x8]
	bl          |?DeodhaiBroadcastMouse@@YAXHHH@Z|
|$LN62@main|

; 1870 : 			
; 1871 : 
; 1872 : 			
; 1873 : 			/* ensure clipping within the screen */
; 1874 : 			if (currentCursor->xpos <= 0)

	adrp        x8,|?currentCursor@@3PEAU_cursor_@@EA|
	ldr         x8,[x8,PageOffset(|?currentCursor@@3PEAU_cursor_@@EA|)]
	add         x8,x8,#0x20
	ldr         w8,[x8]
	cmp         w8,#0
	bgt         |$LN63@main|

; 1875 : 				currentCursor->xpos = 0;

	adrp        x8,|?currentCursor@@3PEAU_cursor_@@EA|
	ldr         x8,[x8,PageOffset(|?currentCursor@@3PEAU_cursor_@@EA|)]
	add         x9,x8,#0x20
	mov         w8,#0
	str         w8,[x9]
|$LN63@main|

; 1876 : 			if (currentCursor->ypos <= 0)

	adrp        x8,|?currentCursor@@3PEAU_cursor_@@EA|
	ldr         x8,[x8,PageOffset(|?currentCursor@@3PEAU_cursor_@@EA|)]
	add         x8,x8,#0x24
	ldr         w8,[x8]
	cmp         w8,#0
	bgt         |$LN64@main|

; 1877 : 				currentCursor->ypos = 0;

	adrp        x8,|?currentCursor@@3PEAU_cursor_@@EA|
	ldr         x8,[x8,PageOffset(|?currentCursor@@3PEAU_cursor_@@EA|)]
	add         x9,x8,#0x24
	mov         w8,#0
	str         w8,[x9]
|$LN64@main|

; 1878 : 
; 1879 : 
; 1880 : 			if (currentCursor->xpos + currentCursor->width >= screen_w)

	adrp        x8,|?currentCursor@@3PEAU_cursor_@@EA|
	ldr         x8,[x8,PageOffset(|?currentCursor@@3PEAU_cursor_@@EA|)]
	add         x9,x8,#0x20
	adrp        x8,|?currentCursor@@3PEAU_cursor_@@EA|
	ldr         x8,[x8,PageOffset(|?currentCursor@@3PEAU_cursor_@@EA|)]
	add         x8,x8,#0x10
	ldr         w9,[x9]
	ldr         w8,[x8]
	add         w9,w9,w8
	ldr         w8,[sp]
	cmp         w9,w8
	blt         |$LN65@main|

; 1881 : 				currentCursor->xpos = screen_w - currentCursor->width;

	adrp        x8,|?currentCursor@@3PEAU_cursor_@@EA|
	ldr         x8,[x8,PageOffset(|?currentCursor@@3PEAU_cursor_@@EA|)]
	add         x8,x8,#0x10
	ldr         w9,[sp]
	ldr         w8,[x8]
	sub         w9,w9,w8
	adrp        x8,|?currentCursor@@3PEAU_cursor_@@EA|
	ldr         x8,[x8,PageOffset(|?currentCursor@@3PEAU_cursor_@@EA|)]
	add         x8,x8,#0x20
	str         w9,[x8]
|$LN65@main|

; 1882 : 			if (currentCursor->ypos + currentCursor->height >= screen_h)

	adrp        x8,|?currentCursor@@3PEAU_cursor_@@EA|
	ldr         x8,[x8,PageOffset(|?currentCursor@@3PEAU_cursor_@@EA|)]
	add         x9,x8,#0x24
	adrp        x8,|?currentCursor@@3PEAU_cursor_@@EA|
	ldr         x8,[x8,PageOffset(|?currentCursor@@3PEAU_cursor_@@EA|)]
	add         x8,x8,#0x14
	ldr         w9,[x9]
	ldr         w8,[x8]
	add         w9,w9,w8
	ldr         w8,[sp,#4]
	cmp         w9,w8
	blt         |$LN66@main|

; 1883 : 				currentCursor->ypos = screen_h - currentCursor->height;

	adrp        x8,|?currentCursor@@3PEAU_cursor_@@EA|
	ldr         x8,[x8,PageOffset(|?currentCursor@@3PEAU_cursor_@@EA|)]
	add         x8,x8,#0x14
	ldr         w9,[sp,#4]
	ldr         w8,[x8]
	sub         w9,w9,w8
	adrp        x8,|?currentCursor@@3PEAU_cursor_@@EA|
	ldr         x8,[x8,PageOffset(|?currentCursor@@3PEAU_cursor_@@EA|)]
	add         x8,x8,#0x24
	str         w9,[x8]
|$LN66@main|

; 1884 : 			
; 1885 : 			memset(&mice_input, 0, sizeof(AuInputMessage));

	mov         x2,#0x20
	mov         w1,#0
	add         x0,sp,#0x128
	bl          memset
|$LN55@main|

; 1886 : 		}
; 1887 : 
; 1888 : 		/*
; 1889 : 		 * Handle touch screen events
; 1890 : 		 */
; 1891 : 		if (mice_input.type == AU_INPUT_TOUCH) {

	ldrb        w8,[sp,#0x128]
	mov         w8,w8
	cmp         w8,#3
	bne         |$LN67@main|

; 1892 : 			int32_t cursor_x = mice_input.xpos;

	ldr         w8,[sp,#0x12C]
	str         w8,[sp,#0x7C]

; 1893 : 			int32_t cursor_y = mice_input.ypos;

	ldr         w8,[sp,#0x130]
	str         w8,[sp,#0x78]

; 1894 : 
; 1895 : #ifdef ARCH_X64
; 1896 : 			double scale_x, scale_y;
; 1897 : 			if (mice_input.code4 != 0) {
; 1898 : 				/*scaling is needed*/
; 1899 : 				scale_x = (double)canvas->screenWidth / (double)mice_input.code4;
; 1900 : 				cursor_x = mice_input.xpos * (double)scale_x;
; 1901 : 				scale_y = (double)canvas->screenHeight / (double)mice_input.code4;
; 1902 : 				cursor_y = mice_input.ypos * (double)scale_y;
; 1903 : 			}
; 1904 : #endif
; 1905 : 			currentCursor->xpos = cursor_x;

	adrp        x8,|?currentCursor@@3PEAU_cursor_@@EA|
	ldr         x8,[x8,PageOffset(|?currentCursor@@3PEAU_cursor_@@EA|)]
	add         x9,x8,#0x20
	ldr         w8,[sp,#0x7C]
	str         w8,[x9]

; 1906 : 			currentCursor->ypos = cursor_y;

	adrp        x8,|?currentCursor@@3PEAU_cursor_@@EA|
	ldr         x8,[x8,PageOffset(|?currentCursor@@3PEAU_cursor_@@EA|)]
	add         x9,x8,#0x24
	ldr         w8,[sp,#0x78]
	str         w8,[x9]

; 1907 : 
; 1908 : 			if ((currentCursor->xpos) <= 0)

	adrp        x8,|?currentCursor@@3PEAU_cursor_@@EA|
	ldr         x8,[x8,PageOffset(|?currentCursor@@3PEAU_cursor_@@EA|)]
	add         x8,x8,#0x20
	ldr         w8,[x8]
	cmp         w8,#0
	bgt         |$LN68@main|

; 1909 : 				currentCursor->xpos = 0;

	adrp        x8,|?currentCursor@@3PEAU_cursor_@@EA|
	ldr         x8,[x8,PageOffset(|?currentCursor@@3PEAU_cursor_@@EA|)]
	add         x9,x8,#0x20
	mov         w8,#0
	str         w8,[x9]
|$LN68@main|

; 1910 : 
; 1911 : 			if ((currentCursor->ypos) <= 0)

	adrp        x8,|?currentCursor@@3PEAU_cursor_@@EA|
	ldr         x8,[x8,PageOffset(|?currentCursor@@3PEAU_cursor_@@EA|)]
	add         x8,x8,#0x24
	ldr         w8,[x8]
	cmp         w8,#0
	bgt         |$LN69@main|

; 1912 : 				currentCursor->ypos = 0;

	adrp        x8,|?currentCursor@@3PEAU_cursor_@@EA|
	ldr         x8,[x8,PageOffset(|?currentCursor@@3PEAU_cursor_@@EA|)]
	add         x9,x8,#0x24
	mov         w8,#0
	str         w8,[x9]
|$LN69@main|

; 1913 : 
; 1914 : 			if ((currentCursor->xpos + 24) >= canvas->screenWidth)

	adrp        x8,|?currentCursor@@3PEAU_cursor_@@EA|
	ldr         x8,[x8,PageOffset(|?currentCursor@@3PEAU_cursor_@@EA|)]
	add         x8,x8,#0x20
	ldr         w8,[x8]
	add         w9,w8,#0x18
	adrp        x8,|?canvas@@3PEAU_ChCanvas_@@EA|
	ldr         x8,[x8,PageOffset(|?canvas@@3PEAU_ChCanvas_@@EA|)]
	add         x8,x8,#4
	ldr         w8,[x8]
	cmp         w9,w8
	blo         |$LN70@main|

; 1915 : 				currentCursor->xpos = canvas->screenWidth - 24;

	adrp        x8,|?canvas@@3PEAU_ChCanvas_@@EA|
	ldr         x8,[x8,PageOffset(|?canvas@@3PEAU_ChCanvas_@@EA|)]
	add         x8,x8,#4
	ldr         w8,[x8]
	sub         w9,w8,#0x18
	adrp        x8,|?currentCursor@@3PEAU_cursor_@@EA|
	ldr         x8,[x8,PageOffset(|?currentCursor@@3PEAU_cursor_@@EA|)]
	add         x8,x8,#0x20
	str         w9,[x8]
|$LN70@main|

; 1916 : 
; 1917 : 			if ((currentCursor->ypos + 24) >= canvas->screenHeight)

	adrp        x8,|?currentCursor@@3PEAU_cursor_@@EA|
	ldr         x8,[x8,PageOffset(|?currentCursor@@3PEAU_cursor_@@EA|)]
	add         x8,x8,#0x24
	ldr         w8,[x8]
	add         w9,w8,#0x18
	adrp        x8,|?canvas@@3PEAU_ChCanvas_@@EA|
	ldr         x8,[x8,PageOffset(|?canvas@@3PEAU_ChCanvas_@@EA|)]
	add         x8,x8,#8
	ldr         w8,[x8]
	cmp         w9,w8
	blo         |$LN71@main|

; 1918 : 				currentCursor->ypos = canvas->screenHeight - 24;

	adrp        x8,|?canvas@@3PEAU_ChCanvas_@@EA|
	ldr         x8,[x8,PageOffset(|?canvas@@3PEAU_ChCanvas_@@EA|)]
	add         x8,x8,#8
	ldr         w8,[x8]
	sub         w9,w8,#0x18
	adrp        x8,|?currentCursor@@3PEAU_cursor_@@EA|
	ldr         x8,[x8,PageOffset(|?currentCursor@@3PEAU_cursor_@@EA|)]
	add         x8,x8,#0x24
	str         w9,[x8]
|$LN71@main|

; 1919 : 
; 1920 : 			if (currentCursor->xpos >= canvas->screenWidth)

	adrp        x8,|?currentCursor@@3PEAU_cursor_@@EA|
	ldr         x8,[x8,PageOffset(|?currentCursor@@3PEAU_cursor_@@EA|)]
	add         x10,x8,#0x20
	adrp        x8,|?canvas@@3PEAU_ChCanvas_@@EA|
	ldr         x8,[x8,PageOffset(|?canvas@@3PEAU_ChCanvas_@@EA|)]
	add         x8,x8,#4
	ldr         w9,[x8]
	ldr         w8,[x10]
	cmp         w8,w9
	blo         |$LN72@main|

; 1921 : 				currentCursor->xpos = 0;

	adrp        x8,|?currentCursor@@3PEAU_cursor_@@EA|
	ldr         x8,[x8,PageOffset(|?currentCursor@@3PEAU_cursor_@@EA|)]
	add         x9,x8,#0x20
	mov         w8,#0
	str         w8,[x9]
|$LN72@main|

; 1922 : 
; 1923 : 			if (currentCursor->ypos >= canvas->screenHeight)

	adrp        x8,|?currentCursor@@3PEAU_cursor_@@EA|
	ldr         x8,[x8,PageOffset(|?currentCursor@@3PEAU_cursor_@@EA|)]
	add         x10,x8,#0x24
	adrp        x8,|?canvas@@3PEAU_ChCanvas_@@EA|
	ldr         x8,[x8,PageOffset(|?canvas@@3PEAU_ChCanvas_@@EA|)]
	add         x8,x8,#8
	ldr         w9,[x8]
	ldr         w8,[x10]
	cmp         w8,w9
	blo         |$LN73@main|

; 1924 : 				currentCursor->ypos = 0;

	adrp        x8,|?currentCursor@@3PEAU_cursor_@@EA|
	ldr         x8,[x8,PageOffset(|?currentCursor@@3PEAU_cursor_@@EA|)]
	add         x9,x8,#0x24
	mov         w8,#0
	str         w8,[x9]
|$LN73@main|

; 1925 : 
; 1926 : 			DeodhaiBroadcastTouch(cursor_x, cursor_y);

	ldr         w1,[sp,#0x78]
	ldr         w0,[sp,#0x7C]
	bl          |?DeodhaiBroadcastTouch@@YAXHH@Z|

; 1927 : 			/* ensure clipping within the screen */
; 1928 : 			if (currentCursor->xpos <= 0)

	adrp        x8,|?currentCursor@@3PEAU_cursor_@@EA|
	ldr         x8,[x8,PageOffset(|?currentCursor@@3PEAU_cursor_@@EA|)]
	add         x8,x8,#0x20
	ldr         w8,[x8]
	cmp         w8,#0
	bgt         |$LN74@main|

; 1929 : 				currentCursor->xpos = 0;

	adrp        x8,|?currentCursor@@3PEAU_cursor_@@EA|
	ldr         x8,[x8,PageOffset(|?currentCursor@@3PEAU_cursor_@@EA|)]
	add         x9,x8,#0x20
	mov         w8,#0
	str         w8,[x9]
|$LN74@main|

; 1930 : 			if (currentCursor->ypos <= 0)

	adrp        x8,|?currentCursor@@3PEAU_cursor_@@EA|
	ldr         x8,[x8,PageOffset(|?currentCursor@@3PEAU_cursor_@@EA|)]
	add         x8,x8,#0x24
	ldr         w8,[x8]
	cmp         w8,#0
	bgt         |$LN75@main|

; 1931 : 				currentCursor->ypos = 0;

	adrp        x8,|?currentCursor@@3PEAU_cursor_@@EA|
	ldr         x8,[x8,PageOffset(|?currentCursor@@3PEAU_cursor_@@EA|)]
	add         x9,x8,#0x24
	mov         w8,#0
	str         w8,[x9]
|$LN75@main|

; 1932 : 
; 1933 : 
; 1934 : 			if (currentCursor->xpos + currentCursor->width >= screen_w)

	adrp        x8,|?currentCursor@@3PEAU_cursor_@@EA|
	ldr         x8,[x8,PageOffset(|?currentCursor@@3PEAU_cursor_@@EA|)]
	add         x9,x8,#0x20
	adrp        x8,|?currentCursor@@3PEAU_cursor_@@EA|
	ldr         x8,[x8,PageOffset(|?currentCursor@@3PEAU_cursor_@@EA|)]
	add         x8,x8,#0x10
	ldr         w9,[x9]
	ldr         w8,[x8]
	add         w9,w9,w8
	ldr         w8,[sp]
	cmp         w9,w8
	blt         |$LN76@main|

; 1935 : 				currentCursor->xpos = screen_w - currentCursor->width;

	adrp        x8,|?currentCursor@@3PEAU_cursor_@@EA|
	ldr         x8,[x8,PageOffset(|?currentCursor@@3PEAU_cursor_@@EA|)]
	add         x8,x8,#0x10
	ldr         w9,[sp]
	ldr         w8,[x8]
	sub         w9,w9,w8
	adrp        x8,|?currentCursor@@3PEAU_cursor_@@EA|
	ldr         x8,[x8,PageOffset(|?currentCursor@@3PEAU_cursor_@@EA|)]
	add         x8,x8,#0x20
	str         w9,[x8]
|$LN76@main|

; 1936 : 			if (currentCursor->ypos + currentCursor->height >= screen_h)

	adrp        x8,|?currentCursor@@3PEAU_cursor_@@EA|
	ldr         x8,[x8,PageOffset(|?currentCursor@@3PEAU_cursor_@@EA|)]
	add         x9,x8,#0x24
	adrp        x8,|?currentCursor@@3PEAU_cursor_@@EA|
	ldr         x8,[x8,PageOffset(|?currentCursor@@3PEAU_cursor_@@EA|)]
	add         x8,x8,#0x14
	ldr         w9,[x9]
	ldr         w8,[x8]
	add         w9,w9,w8
	ldr         w8,[sp,#4]
	cmp         w9,w8
	blt         |$LN77@main|

; 1937 : 				currentCursor->ypos = screen_h - currentCursor->height;

	adrp        x8,|?currentCursor@@3PEAU_cursor_@@EA|
	ldr         x8,[x8,PageOffset(|?currentCursor@@3PEAU_cursor_@@EA|)]
	add         x8,x8,#0x14
	ldr         w9,[sp,#4]
	ldr         w8,[x8]
	sub         w9,w9,w8
	adrp        x8,|?currentCursor@@3PEAU_cursor_@@EA|
	ldr         x8,[x8,PageOffset(|?currentCursor@@3PEAU_cursor_@@EA|)]
	add         x8,x8,#0x24
	str         w9,[x8]
|$LN77@main|

; 1938 : 
; 1939 : 			memset(&mice_input, 0, sizeof(AuInputMessage));

	mov         x2,#0x20
	mov         w1,#0
	add         x0,sp,#0x128
	bl          memset
|$LN67@main|

; 1940 : 		}
; 1941 : 
; 1942 : 		if (kybrd_input.type == AU_INPUT_KEYBOARD) {

	ldrb        w8,[sp,#0x200]
	mov         w8,w8
	cmp         w8,#2
	bne         |$LN78@main|

; 1943 : 			_KePrint("[Deodhai]: keyinput : %x \r\n", kybrd_input.code);

	ldr         w1,[sp,#0x210]
	adrp        x8,|$SG9014|
	add         x0,x8,PageOffset(|$SG9014|)
	bl          _KePrint

; 1944 : 			DeodhaiBroadcastKey(kybrd_input.code);

	ldr         w0,[sp,#0x210]
	bl          |?DeodhaiBroadcastKey@@YAXH@Z|

; 1945 : 			memset(&kybrd_input, 0, sizeof(AuInputMessage));

	mov         x2,#0x20
	mov         w1,#0
	add         x0,sp,#0x200
	bl          memset
|$LN78@main|

; 1946 : 		}
; 1947 : 
; 1948 : 		if (event.type == DEODHAI_MESSAGE_CREATEWIN) {

	ldrb        w8,[sp,#0x148]
	mov         w8,w8
	cmp         w8,#0x32
	bne         |$LN79@main|

; 1949 : 			int x = event.dword;

	ldr         w8,[sp,#0x150]
	str         w8,[sp,#0x58]

; 1950 : 			int y = event.dword2;

	ldr         w8,[sp,#0x154]
	str         w8,[sp,#0x80]

; 1951 : 			int w = event.dword3;

	ldr         w8,[sp,#0x158]
	str         w8,[sp,#0xEC]

; 1952 : 			int h = event.dword4;

	ldr         w8,[sp,#0x15C]
	str         w8,[sp,#0xE8]

; 1953 : 			_KePrint("[Deodhai]: create win message received \r\n");

	adrp        x8,|$SG9016|
	add         x0,x8,PageOffset(|$SG9016|)
	bl          _KePrint

; 1954 : 			_KePrint("[Deodhai]: x : %d y : %d \r\n", x, y);

	ldr         w2,[sp,#0x80]
	ldr         w1,[sp,#0x58]
	adrp        x8,|$SG9017|
	add         x0,x8,PageOffset(|$SG9017|)
	bl          _KePrint

; 1955 : 			_KePrint("[Doedhai]: from id : %d \r\n", event.from_id);

	ldrh        w1,[sp,#0x14C]
	mov         w1,w1
	mov         w1,w1
	adrp        x8,|$SG9018|
	add         x0,x8,PageOffset(|$SG9018|)
	bl          _KePrint

; 1956 : 			/* if this create window is creating a popup window
; 1957 : 			 * then we will need it's parent window handle
; 1958 : 			 */
; 1959 : 			int parent_handle = event.dword6;

	ldr         w8,[sp,#0x164]
	str         w8,[sp,#0x110]

; 1960 : 			uint16_t flags = event.dword5;

	ldr         w8,[sp,#0x160]
	uxth        w8,w8
	strh        w8,[sp,#0x2C]

; 1961 : 
; 1962 : 			Window* win = DeodhaiCreateWindow(x, y, w, h, flags, event.from_id, event.charValue3);

	add         x6,sp,#0x190
	ldrh        w5,[sp,#0x14C]
	ldrh        w4,[sp,#0x2C]
	ldr         w3,[sp,#0xE8]
	ldr         w2,[sp,#0xEC]
	ldr         w1,[sp,#0x80]
	ldr         w0,[sp,#0x58]
	bl          |?DeodhaiCreateWindow@@YAPEAU_win_@@HHHHGGPEAD@Z|
	str         x0,[sp,#0x18]

; 1963 : 
; 1964 : 			if ((win->flags & WINDOW_FLAG_POPUP)) {

	ldr         x8,[sp,#0x18]
	ldrh        w8,[x8]
	mov         w8,w8
	tbz         x8,#0xB,|$LN80@main|

; 1965 : 				for (Window* parentWin = rootWin; parentWin != NULL; parentWin = parentWin->next) {

	adrp        x8,|?rootWin@@3PEAU_win_@@EA|
	ldr         x8,[x8,PageOffset(|?rootWin@@3PEAU_win_@@EA|)]
	str         x8,[sp,#0x88]
	b           |$LN12@main|
|$LN10@main|
	ldr         x8,[sp,#0x88]
	add         x8,x8,#0x68
	ldr         x8,[x8]
	str         x8,[sp,#0x88]
|$LN12@main|
	ldr         x8,[sp,#0x88]
	cmp         x8,#0
	beq         |$LN11@main|

; 1966 : 					if (parentWin->handle == parent_handle) {

	ldr         x8,[sp,#0x88]
	add         x8,x8,#0x24
	ldr         w9,[sp,#0x110]
	ldr         w8,[x8]
	cmp         w8,w9
	bne         |$LN81@main|

; 1967 : 						win->parent = parentWin;

	ldr         x8,[sp,#0x18]
	add         x9,x8,#0x60
	ldr         x8,[sp,#0x88]
	str         x8,[x9]

; 1968 : 						_KePrint("[Deodhai]: popup added \r\n");

	adrp        x8,|$SG9021|
	add         x0,x8,PageOffset(|$SG9021|)
	bl          _KePrint

; 1969 : 						break;

	b           |$LN11@main|
|$LN81@main|

; 1970 : 					}
; 1971 : 				}

	b           |$LN10@main|
|$LN11@main|

; 1972 : 				_KePrint("[Deodhai]:Popup window created \r\n");

	adrp        x8,|$SG9022|
	add         x0,x8,PageOffset(|$SG9022|)
	bl          _KePrint
|$LN80@main|

; 1973 : 				
; 1974 : 			}
; 1975 : 			PostEvent e;
; 1976 : 			memset(&e, 0, sizeof(PostEvent));

	mov         x2,#0xB0
	mov         w1,#0
	add         x0,sp,#0x298
	bl          memset

; 1977 : 
; 1978 : 			e.type = DEODHAI_REPLY_WINCREATED;

	mov         w8,#0x96
	strb        w8,[sp,#0x298]

; 1979 : 			e.dword = win->shWinKey;

	ldr         x8,[sp,#0x18]
	add         x8,x8,#0x20
	ldrh        w8,[x8]
	mov         w8,w8
	str         w8,[sp,#0x2A0]

; 1980 : 			e.dword2 = win->backBufferKey;

	ldr         x8,[sp,#0x18]
	add         x8,x8,#0x22
	ldrh        w8,[x8]
	mov         w8,w8
	str         w8,[sp,#0x2A4]

; 1981 : 			e.dword3 = win->handle;

	ldr         x8,[sp,#0x18]
	add         x8,x8,#0x24
	ldr         w8,[x8]
	str         w8,[sp,#0x2A8]

; 1982 : 			e.to_id = event.from_id;

	ldrh        w8,[sp,#0x14C]
	strh        w8,[sp,#0x29A]

; 1983 : 			
; 1984 : 			_KeFileIoControl(postbox_fd, POSTBOX_PUT_EVENT, &e);

	add         x2,sp,#0x298
	mov         w1,#0x193
	adrp        x8,|?postbox_fd@@3HA|
	ldr         w0,[x8,PageOffset(|?postbox_fd@@3HA|)]
	bl          _KeFileIoControl

; 1985 : 			_KePrint("Msg sent to e.toid : %d \n", e.to_id);

	ldrh        w1,[sp,#0x29A]
	mov         w1,w1
	mov         w1,w1
	adrp        x8,|$SG9023|
	add         x0,x8,PageOffset(|$SG9023|)
	bl          _KePrint

; 1986 : 			_KeProcessSleep(180);

	mov         x0,#0xB4
	bl          _KeProcessSleep

; 1987 : 			if (!(win->flags & WINDOW_FLAG_MESSAGEBOX || win->flags & WINDOW_FLAG_POPUP || 

	ldr         x8,[sp,#0x18]
	ldrh        w8,[x8]
	mov         w8,w8
	tbnz        x8,#7,|$LN82@main|
	ldr         x8,[sp,#0x18]
	ldrh        w8,[x8]
	mov         w8,w8
	tbnz        x8,#0xB,|$LN82@main|
	ldr         x8,[sp,#0x18]
	ldrh        w8,[x8]
	mov         w8,w8
	tbnz        x8,#4,|$LN82@main|

; 1988 : 				win->flags & WINDOW_FLAG_BROADCAST_LISTENER)){
; 1989 : 				/* broadcast it to all broadcast listener windows, about this news*/
; 1990 : 				memset(&e, 0, sizeof(PostEvent));

	mov         x2,#0xB0
	mov         w1,#0
	add         x0,sp,#0x298
	bl          memset

; 1991 : 				e.type = DEODHAI_BROADCAST_WINCREATED;

	mov         w8,#0xAA
	strb        w8,[sp,#0x298]

; 1992 : 				e.dword = win->ownerId;

	ldr         x8,[sp,#0x18]
	add         x8,x8,#2
	ldrh        w8,[x8]
	mov         w8,w8
	str         w8,[sp,#0x2A0]

; 1993 : 				e.dword2 = win->handle;

	ldr         x8,[sp,#0x18]
	add         x8,x8,#0x24
	ldr         w8,[x8]
	str         w8,[sp,#0x2A4]

; 1994 : 				strcpy(e.charValue3, win->title);

	ldr         x8,[sp,#0x18]
	add         x8,x8,#0x48
	ldr         x1,[x8]
	add         x0,sp,#0x2E0
	bl          strcpy

; 1995 : 				DeodhaiBroadcastMessage(&e, win);

	ldr         x1,[sp,#0x18]
	add         x0,sp,#0x298
	bl          |?DeodhaiBroadcastMessage@@YAXPEAU_post_event_@@PEAU_win_@@@Z|
|$LN82@main|

; 1996 : 			}
; 1997 : 
; 1998 : 			if (!(win->flags & WINDOW_FLAG_ALWAYS_ON_TOP)) {

	ldr         x8,[sp,#0x18]
	ldrh        w8,[x8]
	mov         w8,w8
	tbnz        x8,#2,|$LN83@main|

; 1999 : 				win->flags |= WINDOW_FLAG_ANIMATED | WINDOW_FLAG_ANIMATION_FADE_IN;

	ldr         x8,[sp,#0x18]
	ldrh        w9,[x8]
	mov         w9,w9
	mov         w8,#0x220
	orr         w8,w9,w8
	ldr         x9,[sp,#0x18]
	uxth        w8,w8
	strh        w8,[x9]

; 2000 : 				win->animAlphaVal = 0;

	ldr         x8,[sp,#0x18]
	add         x9,x8,#0x3C
	mov         w8,#0
	str         w8,[x9]
|$LN83@main|

; 2001 : 			}
; 2002 : 
; 2003 : 			_KePrint("[Deodhai]: Window created \r\n");

	adrp        x8,|$SG9026|
	add         x0,x8,PageOffset(|$SG9026|)
	bl          _KePrint

; 2004 : 		/*	_window_update_all_ = true;
; 2005 : 			_always_on_top_update = true;*/
; 2006 : 			focusedWin = win;

	adrp        x9,|?focusedWin@@3PEAU_win_@@EA|
	ldr         x8,[sp,#0x18]
	str         x8,[x9,PageOffset(|?focusedWin@@3PEAU_win_@@EA|)]

; 2007 : 			memset(&event, 0, sizeof(PostEvent));

	mov         x2,#0xB0
	mov         w1,#0
	add         x0,sp,#0x148
	bl          memset
|$LN79@main|

; 2008 : 
; 2009 : 		}
; 2010 : 
; 2011 : 		/* broadcast icon message */
; 2012 : 		if (event.type == DEODHAI_MESSAGE_BROADCAST_ICON) {

	ldrb        w8,[sp,#0x148]
	mov         w8,w8
	cmp         w8,#0x34
	bne         |$LN84@main|

; 2013 : 			Window *skippable = NULL;

	mov         x8,#0
	str         x8,[sp,#0x118]

; 2014 : 			for (Window* win = rootWin; win != NULL; win = win->next){

	adrp        x8,|?rootWin@@3PEAU_win_@@EA|
	ldr         x8,[x8,PageOffset(|?rootWin@@3PEAU_win_@@EA|)]
	str         x8,[sp,#0x68]
	b           |$LN15@main|
|$LN13@main|
	ldr         x8,[sp,#0x68]
	add         x8,x8,#0x68
	ldr         x8,[x8]
	str         x8,[sp,#0x68]
|$LN15@main|
	ldr         x8,[sp,#0x68]
	cmp         x8,#0
	beq         |$LN14@main|

; 2015 : 				if (win->ownerId == event.from_id){

	ldr         x8,[sp,#0x68]
	add         x8,x8,#2
	ldrh        w9,[x8]
	mov         w9,w9
	ldrh        w8,[sp,#0x14C]
	mov         w8,w8
	cmp         w9,w8
	bne         |$LN85@main|

; 2016 : 					skippable = win;

	ldr         x8,[sp,#0x68]
	str         x8,[sp,#0x118]

; 2017 : 					break;

	b           |$LN14@main|
|$LN85@main|

; 2018 : 				}
; 2019 : 			}

	b           |$LN13@main|
|$LN14@main|

; 2020 : 
; 2021 : 			for (Window* win = alwaysOnTop; win != NULL; win = win->next) {

	adrp        x8,|?alwaysOnTop@@3PEAU_win_@@EA|
	ldr         x8,[x8,PageOffset(|?alwaysOnTop@@3PEAU_win_@@EA|)]
	str         x8,[sp,#0x90]
	b           |$LN18@main|
|$LN16@main|
	ldr         x8,[sp,#0x90]
	add         x8,x8,#0x68
	ldr         x8,[x8]
	str         x8,[sp,#0x90]
|$LN18@main|
	ldr         x8,[sp,#0x90]
	cmp         x8,#0
	beq         |$LN17@main|

; 2022 : 				if (win->ownerId == event.from_id){

	ldr         x8,[sp,#0x90]
	add         x8,x8,#2
	ldrh        w9,[x8]
	mov         w9,w9
	ldrh        w8,[sp,#0x14C]
	mov         w8,w8
	cmp         w9,w8
	bne         |$LN86@main|

; 2023 : 					skippable = win;

	ldr         x8,[sp,#0x90]
	str         x8,[sp,#0x118]

; 2024 : 					break;

	b           |$LN17@main|
|$LN86@main|

; 2025 : 				}
; 2026 : 			}

	b           |$LN16@main|
|$LN17@main|

; 2027 : 			
; 2028 : 			event.type = 174;

	mov         w8,#0xAE
	strb        w8,[sp,#0x148]

; 2029 : 			DeodhaiBroadcastMessage(&event, skippable);

	ldr         x1,[sp,#0x118]
	add         x0,sp,#0x148
	bl          |?DeodhaiBroadcastMessage@@YAXPEAU_post_event_@@PEAU_win_@@@Z|

; 2030 : 			_window_update_all_ = 1;

	adrp        x9,|?_window_update_all_@@3DA|
	mov         w8,#1
	strb        w8,[x9,PageOffset(|?_window_update_all_@@3DA|)]

; 2031 : 			_always_on_top_update = 1;

	adrp        x9,|?_always_on_top_update@@3DA|
	mov         w8,#1
	strb        w8,[x9,PageOffset(|?_always_on_top_update@@3DA|)]

; 2032 : 			_KeProcessSleep(20);

	mov         x0,#0x14
	bl          _KeProcessSleep

; 2033 : 			memset(&event, 0, sizeof(PostEvent));

	mov         x2,#0xB0
	mov         w1,#0
	add         x0,sp,#0x148
	bl          memset
|$LN84@main|

; 2034 : 		}
; 2035 : 
; 2036 : 		if (event.type == DEODHAI_MESSAGE_WINDOW_HIDE) {

	ldrb        w8,[sp,#0x148]
	mov         w8,w8
	cmp         w8,#0x36
	bne         |$LN87@main|

; 2037 : 			uint16_t ownerId = event.dword;

	ldr         w8,[sp,#0x150]
	uxth        w8,w8
	strh        w8,[sp,#0x114]

; 2038 : 			uint32_t handle = event.dword2;

	ldr         w8,[sp,#0x154]
	str         w8,[sp,#0x5C]

; 2039 : 			Window* hideable_win = NULL;

	mov         x8,#0
	str         x8,[sp,#0xA8]

; 2040 : 			for (Window* win = rootWin; win != NULL; win = win->next) {

	adrp        x8,|?rootWin@@3PEAU_win_@@EA|
	ldr         x8,[x8,PageOffset(|?rootWin@@3PEAU_win_@@EA|)]
	str         x8,[sp,#0x98]
	b           |$LN21@main|
|$LN19@main|
	ldr         x8,[sp,#0x98]
	add         x8,x8,#0x68
	ldr         x8,[x8]
	str         x8,[sp,#0x98]
|$LN21@main|
	ldr         x8,[sp,#0x98]
	cmp         x8,#0
	beq         |$LN20@main|

; 2041 : 				if (win->handle == handle){

	ldr         x8,[sp,#0x98]
	add         x8,x8,#0x24
	ldr         w9,[sp,#0x5C]
	ldr         w8,[x8]
	cmp         w8,w9
	bne         |$LN88@main|

; 2042 : 					hideable_win = win;

	ldr         x8,[sp,#0x98]
	str         x8,[sp,#0xA8]

; 2043 : 					break;

	b           |$LN20@main|
|$LN88@main|

; 2044 : 				}
; 2045 : 			}

	b           |$LN19@main|
|$LN20@main|

; 2046 : 
; 2047 : 			if (!hideable_win){

	ldr         x8,[sp,#0xA8]
	cmp         x8,#0
	bne         |$LN89@main|

; 2048 : 				for (Window* win = alwaysOnTop; win != NULL; win = win->next) {

	adrp        x8,|?alwaysOnTop@@3PEAU_win_@@EA|
	ldr         x8,[x8,PageOffset(|?alwaysOnTop@@3PEAU_win_@@EA|)]
	str         x8,[sp,#0xA0]
	b           |$LN24@main|
|$LN22@main|
	ldr         x8,[sp,#0xA0]
	add         x8,x8,#0x68
	ldr         x8,[x8]
	str         x8,[sp,#0xA0]
|$LN24@main|
	ldr         x8,[sp,#0xA0]
	cmp         x8,#0
	beq         |$LN23@main|

; 2049 : 					if (win->handle == handle) {

	ldr         x8,[sp,#0xA0]
	add         x8,x8,#0x24
	ldr         w9,[sp,#0x5C]
	ldr         w8,[x8]
	cmp         w8,w9
	bne         |$LN90@main|

; 2050 : 						hideable_win = win;

	ldr         x8,[sp,#0xA0]
	str         x8,[sp,#0xA8]

; 2051 : 						break;

	b           |$LN23@main|
|$LN90@main|

; 2052 : 					}
; 2053 : 				}

	b           |$LN22@main|
|$LN23@main|
|$LN89@main|

; 2054 : 			}
; 2055 : 
; 2056 : 			if (hideable_win) 

	ldr         x8,[sp,#0xA8]
	cmp         x8,#0
	beq         |$LN91@main|

; 2057 : 				DeodhaiWindowHide(hideable_win);

	ldr         x0,[sp,#0xA8]
	bl          |?DeodhaiWindowHide@@YAXPEAU_win_@@@Z|
|$LN91@main|

; 2058 : 			_KeProcessSleep(10);

	mov         x0,#0xA
	bl          _KeProcessSleep

; 2059 : 			memset(&event, 0, sizeof(PostEvent));

	mov         x2,#0xB0
	mov         w1,#0
	add         x0,sp,#0x148
	bl          memset
|$LN87@main|

; 2060 : 		}
; 2061 : 
; 2062 : 		/* brings back a window to front */
; 2063 : 		if (event.type == DEODHAI_MESSAGE_WINDOW_BRING_FRONT) {

	ldrb        w8,[sp,#0x148]
	mov         w8,w8
	cmp         w8,#0x35
	bne         |$LN92@main|

; 2064 : 			uint32_t handle = event.dword2;

	ldr         w8,[sp,#0x154]
	str         w8,[sp,#0xF4]

; 2065 : 			Window* frontableWin = NULL;

	mov         x8,#0
	str         x8,[sp,#0xC8]

; 2066 : 			for (Window* win = rootWin; win != NULL; win = win->next) {

	adrp        x8,|?rootWin@@3PEAU_win_@@EA|
	ldr         x8,[x8,PageOffset(|?rootWin@@3PEAU_win_@@EA|)]
	str         x8,[sp,#0xB0]
	b           |$LN27@main|
|$LN25@main|
	ldr         x8,[sp,#0xB0]
	add         x8,x8,#0x68
	ldr         x8,[x8]
	str         x8,[sp,#0xB0]
|$LN27@main|
	ldr         x8,[sp,#0xB0]
	cmp         x8,#0
	beq         |$LN26@main|

; 2067 : 				if (win->handle == handle){

	ldr         x8,[sp,#0xB0]
	add         x8,x8,#0x24
	ldr         w9,[sp,#0xF4]
	ldr         w8,[x8]
	cmp         w8,w9
	bne         |$LN93@main|

; 2068 : 					frontableWin = win;

	ldr         x8,[sp,#0xB0]
	str         x8,[sp,#0xC8]

; 2069 : 					break;

	b           |$LN26@main|
|$LN93@main|

; 2070 : 				}
; 2071 : 			}

	b           |$LN25@main|
|$LN26@main|

; 2072 : 
; 2073 : 			if (frontableWin) {

	ldr         x8,[sp,#0xC8]
	cmp         x8,#0
	beq         |$LN94@main|

; 2074 : 				if (!(frontableWin->flags & WINDOW_FLAG_BLOCKED))

	ldr         x8,[sp,#0xC8]
	ldrh        w8,[x8]
	mov         w8,w8
	tbnz        x8,#6,|$LN95@main|

; 2075 : 					DeodhaiWindowSetFocused(frontableWin, true);

	mov         w1,#1
	ldr         x0,[sp,#0xC8]
	bl          |?DeodhaiWindowSetFocused@@YAXPEAU_win_@@D@Z|
|$LN95@main|
|$LN94@main|

; 2076 : 			}
; 2077 : 			_window_update_all_ = true;

	adrp        x9,|?_window_update_all_@@3DA|
	mov         w8,#1
	strb        w8,[x9,PageOffset(|?_window_update_all_@@3DA|)]

; 2078 : 			_always_on_top_update = true;

	adrp        x9,|?_always_on_top_update@@3DA|
	mov         w8,#1
	strb        w8,[x9,PageOffset(|?_always_on_top_update@@3DA|)]

; 2079 : 			memset(&event, 0, sizeof(PostEvent));

	mov         x2,#0xB0
	mov         w1,#0
	add         x0,sp,#0x148
	bl          memset
|$LN92@main|

; 2080 : 		}
; 2081 : 
; 2082 : 		if (event.type == DEODHAI_MESSAGE_GETWINDOW) {

	ldrb        w8,[sp,#0x148]
	mov         w8,w8
	cmp         w8,#0x37
	bne         |$LN96@main|

; 2083 : 			uint16_t ownerID = 0;

	mov         w8,#0
	strh        w8,[sp,#0x20]

; 2084 : 			uint32_t handle = 0;

	mov         w8,#0
	str         w8,[sp,#0x30]

; 2085 : 			bool _not_found = true;

	mov         w8,#1
	strb        w8,[sp,#8]

; 2086 : 			for (Window* win = rootWin; win != NULL; win = win->next) {

	adrp        x8,|?rootWin@@3PEAU_win_@@EA|
	ldr         x8,[x8,PageOffset(|?rootWin@@3PEAU_win_@@EA|)]
	str         x8,[sp,#0x38]
	b           |$LN30@main|
|$LN28@main|
	ldr         x8,[sp,#0x38]
	add         x8,x8,#0x68
	ldr         x8,[x8]
	str         x8,[sp,#0x38]
|$LN30@main|
	ldr         x8,[sp,#0x38]
	cmp         x8,#0
	beq         |$LN29@main|

; 2087 : 				if (strcmp(win->title, event.charValue3) == 0) {

	ldr         x8,[sp,#0x38]
	add         x8,x8,#0x48
	add         x1,sp,#0x190
	ldr         x0,[x8]
	bl          strcmp
	mov         w0,w0
	cmp         w0,#0
	bne         |$LN97@main|

; 2088 : 					ownerID = win->ownerId;

	ldr         x8,[sp,#0x38]
	add         x8,x8,#2
	ldrh        w8,[x8]
	strh        w8,[sp,#0x20]

; 2089 : 					handle = win->handle;

	ldr         x8,[sp,#0x38]
	add         x8,x8,#0x24
	ldr         w8,[x8]
	str         w8,[sp,#0x30]

; 2090 : 					_not_found = false;

	mov         w8,#0
	strb        w8,[sp,#8]

; 2091 : 					break;

	b           |$LN29@main|
|$LN97@main|

; 2092 : 				}
; 2093 : 			}

	b           |$LN28@main|
|$LN29@main|

; 2094 : 
; 2095 : 			if (_not_found) {

	ldrsb       w8,[sp,#8]
	mov         w8,w8
	cmp         w8,#0
	beq         |$LN98@main|

; 2096 : 				for (Window* win = alwaysOnTop; win != NULL; win = win->next) {

	adrp        x8,|?alwaysOnTop@@3PEAU_win_@@EA|
	ldr         x8,[x8,PageOffset(|?alwaysOnTop@@3PEAU_win_@@EA|)]
	str         x8,[sp,#0x40]
	b           |$LN33@main|
|$LN31@main|
	ldr         x8,[sp,#0x40]
	add         x8,x8,#0x68
	ldr         x8,[x8]
	str         x8,[sp,#0x40]
|$LN33@main|
	ldr         x8,[sp,#0x40]
	cmp         x8,#0
	beq         |$LN32@main|

; 2097 : 					if (strcmp(win->title, event.charValue3) == 0) {

	ldr         x8,[sp,#0x40]
	add         x8,x8,#0x48
	add         x1,sp,#0x190
	ldr         x0,[x8]
	bl          strcmp
	mov         w0,w0
	cmp         w0,#0
	bne         |$LN99@main|

; 2098 : 						ownerID = win->ownerId;

	ldr         x8,[sp,#0x40]
	add         x8,x8,#2
	ldrh        w8,[x8]
	strh        w8,[sp,#0x20]

; 2099 : 						handle = win->handle;

	ldr         x8,[sp,#0x40]
	add         x8,x8,#0x24
	ldr         w8,[x8]
	str         w8,[sp,#0x30]

; 2100 : 						_not_found = false;

	mov         w8,#0
	strb        w8,[sp,#8]

; 2101 : 						break;

	b           |$LN32@main|
|$LN99@main|

; 2102 : 					}
; 2103 : 				}

	b           |$LN31@main|
|$LN32@main|
|$LN98@main|

; 2104 : 			}
; 2105 : 
; 2106 : 			PostEvent e;
; 2107 : 			memset(&e, 0, sizeof(PostEvent));

	mov         x2,#0xB0
	mov         w1,#0
	add         x0,sp,#0x348
	bl          memset

; 2108 : 			e.type = DEODHAI_REPLY_WINDOW_ID;

	mov         w8,#0x99
	strb        w8,[sp,#0x348]

; 2109 : 			e.dword = ownerID;

	ldrh        w8,[sp,#0x20]
	mov         w8,w8
	str         w8,[sp,#0x350]

; 2110 : 			e.dword2 = handle;

	ldr         w8,[sp,#0x30]
	str         w8,[sp,#0x354]

; 2111 : 			e.to_id = event.from_id;

	ldrh        w8,[sp,#0x14C]
	strh        w8,[sp,#0x34A]

; 2112 : 			e.from_id = POSTBOX_ROOT_ID;

	mov         w8,#1
	strh        w8,[sp,#0x34C]

; 2113 : 			_KeFileIoControl(postbox_fd, POSTBOX_PUT_EVENT, &e);

	add         x2,sp,#0x348
	mov         w1,#0x193
	adrp        x8,|?postbox_fd@@3HA|
	ldr         w0,[x8,PageOffset(|?postbox_fd@@3HA|)]
	bl          _KeFileIoControl

; 2114 : 			memset(&event, 0, sizeof(PostEvent));

	mov         x2,#0xB0
	mov         w1,#0
	add         x0,sp,#0x148
	bl          memset
|$LN96@main|

; 2115 : 		}
; 2116 : 
; 2117 : 		if (event.type == DEODHAI_MESSAGE_CLOSE_WINDOW) {

	ldrb        w8,[sp,#0x148]
	mov         w8,w8
	cmp         w8,#0x38
	bne         |$LN100@main|

; 2118 : 			/* deodhai close window commands needs every datas
; 2119 : 			 * to be cleared from client side, in server side
; 2120 : 			 * only window related datas will get cleared, 
; 2121 : 			 * like, root-window, sub-windows and popup-list
; 2122 : 			 */
; 2123 : 			int handle = event.dword;

	ldr         w8,[sp,#0x150]
	str         w8,[sp,#0xF8]

; 2124 : 			int ownerId = event.from_id;

	ldrh        w8,[sp,#0x14C]
	mov         w8,w8
	str         w8,[sp,#0xFC]

; 2125 : 			Window* removable = NULL;

	mov         x8,#0
	str         x8,[sp,#0x120]

; 2126 : 			for (Window* win = rootWin; win != NULL; win = win->next) {

	adrp        x8,|?rootWin@@3PEAU_win_@@EA|
	ldr         x8,[x8,PageOffset(|?rootWin@@3PEAU_win_@@EA|)]
	str         x8,[sp,#0x48]
	b           |$LN36@main|
|$LN34@main|
	ldr         x8,[sp,#0x48]
	add         x8,x8,#0x68
	ldr         x8,[x8]
	str         x8,[sp,#0x48]
|$LN36@main|
	ldr         x8,[sp,#0x48]
	cmp         x8,#0
	beq         |$LN35@main|

; 2127 : 				if (win->handle == handle && win->ownerId == ownerId) {

	ldr         x8,[sp,#0x48]
	add         x8,x8,#0x24
	ldr         w9,[sp,#0xF8]
	ldr         w8,[x8]
	cmp         w8,w9
	bne         |$LN101@main|
	ldr         x8,[sp,#0x48]
	add         x8,x8,#2
	ldrh        w9,[x8]
	mov         w9,w9
	ldr         w8,[sp,#0xFC]
	cmp         w9,w8
	bne         |$LN101@main|

; 2128 : 					removable = win;

	ldr         x8,[sp,#0x48]
	str         x8,[sp,#0x120]

; 2129 : 					break;

	b           |$LN35@main|
|$LN101@main|

; 2130 : 				}
; 2131 : 			}

	b           |$LN34@main|
|$LN35@main|

; 2132 : 
; 2133 : 			if (removable) {

	ldr         x8,[sp,#0x120]
	cmp         x8,#0
	beq         |$LN102@main|

; 2134 : 				DeodhaiCloseWindow(removable);

	ldr         x0,[sp,#0x120]
	bl          |?DeodhaiCloseWindow@@YAXPEAU_win_@@@Z|

; 2135 : 				focusedWin = NULL;

	adrp        x9,|?focusedWin@@3PEAU_win_@@EA|
	mov         x8,#0
	str         x8,[x9,PageOffset(|?focusedWin@@3PEAU_win_@@EA|)]

; 2136 : 				focusedLast = NULL;

	adrp        x9,|?focusedLast@@3PEAU_win_@@EA|
	mov         x8,#0
	str         x8,[x9,PageOffset(|?focusedLast@@3PEAU_win_@@EA|)]
|$LN102@main|

; 2137 : 				//_window_update_all_ = true;
; 2138 : 				//_always_on_top_update = true;
; 2139 : 			}
; 2140 : 			memset(&event, 0, sizeof(PostEvent));

	mov         x2,#0xB0
	mov         w1,#0
	add         x0,sp,#0x148
	bl          memset
|$LN100@main|

; 2141 : 		}
; 2142 : 
; 2143 : 
; 2144 : 		if (event.type == DEODHAI_MESSAGE_SET_FLAGS) {

	ldrb        w8,[sp,#0x148]
	mov         w8,w8
	cmp         w8,#0x39
	bne         |$LN103@main|

; 2145 : 			int handle = event.dword;

	ldr         w8,[sp,#0x150]
	str         w8,[sp,#0x100]

; 2146 : 			int ownerId = event.from_id;

	ldrh        w8,[sp,#0x14C]
	mov         w8,w8
	str         w8,[sp,#0x104]

; 2147 : 			int flags = event.dword2;

	ldr         w8,[sp,#0x154]
	str         w8,[sp,#0x108]

; 2148 : 			for (Window* win = rootWin; win != NULL; win = win->next) {

	adrp        x8,|?rootWin@@3PEAU_win_@@EA|
	ldr         x8,[x8,PageOffset(|?rootWin@@3PEAU_win_@@EA|)]
	str         x8,[sp,#0x50]
	b           |$LN39@main|
|$LN37@main|
	ldr         x8,[sp,#0x50]
	add         x8,x8,#0x68
	ldr         x8,[x8]
	str         x8,[sp,#0x50]
|$LN39@main|
	ldr         x8,[sp,#0x50]
	cmp         x8,#0
	beq         |$LN38@main|

; 2149 : 				if (win->handle == handle && win->ownerId == ownerId) {

	ldr         x8,[sp,#0x50]
	add         x8,x8,#0x24
	ldr         w9,[sp,#0x100]
	ldr         w8,[x8]
	cmp         w8,w9
	bne         |$LN104@main|
	ldr         x8,[sp,#0x50]
	add         x8,x8,#2
	ldrh        w9,[x8]
	mov         w9,w9
	ldr         w8,[sp,#0x104]
	cmp         w9,w8
	bne         |$LN104@main|

; 2150 : 					win->flags = flags;

	ldr         w8,[sp,#0x108]
	uxth        w9,w8
	ldr         x8,[sp,#0x50]
	strh        w9,[x8]

; 2151 : 					break;

	b           |$LN38@main|
|$LN104@main|

; 2152 : 				}
; 2153 : 			}

	b           |$LN37@main|
|$LN38@main|

; 2154 : 			memset(&event, 0, sizeof(PostEvent));

	mov         x2,#0xB0
	mov         w1,#0
	add         x0,sp,#0x148
	bl          memset
|$LN103@main|

; 2155 : 		}
; 2156 : 
; 2157 : 		/*
; 2158 : 		 * DEODHAI_MESSAGE_MOVE_WINDOW -- moves target window
; 2159 : 		 * to new location
; 2160 : 		 */
; 2161 : 		if (event.type == DEODHAI_MESSAGE_MOVE_WINDOW) {

	ldrb        w8,[sp,#0x148]
	mov         w8,w8
	cmp         w8,#0x3C
	bne         |$LN105@main|

; 2162 : 			int newX = event.dword;

	ldr         w8,[sp,#0x150]
	str         w8,[sp,#0xF0]

; 2163 : 			int newY = event.dword2;

	ldr         w8,[sp,#0x154]
	str         w8,[sp,#0x10C]

; 2164 : 			int ownerID = event.from_id;

	ldrh        w8,[sp,#0x14C]
	mov         w8,w8
	str         w8,[sp,#0x60]

; 2165 : 			Window* win_ = NULL;

	mov         x8,#0
	str         x8,[sp,#0xD0]

; 2166 : 			_clients_advice = true;

	adrp        x9,|?_clients_advice@@3DA|
	mov         w8,#1
	strb        w8,[x9,PageOffset(|?_clients_advice@@3DA|)]

; 2167 : 			for (Window* win = rootWin; win != NULL; win = win->next) {

	adrp        x8,|?rootWin@@3PEAU_win_@@EA|
	ldr         x8,[x8,PageOffset(|?rootWin@@3PEAU_win_@@EA|)]
	str         x8,[sp,#0xB8]
	b           |$LN42@main|
|$LN40@main|
	ldr         x8,[sp,#0xB8]
	add         x8,x8,#0x68
	ldr         x8,[x8]
	str         x8,[sp,#0xB8]
|$LN42@main|
	ldr         x8,[sp,#0xB8]
	cmp         x8,#0
	beq         |$LN41@main|

; 2168 : 				if (win->ownerId == ownerID) {

	ldr         x8,[sp,#0xB8]
	add         x8,x8,#2
	ldrh        w9,[x8]
	mov         w9,w9
	ldr         w8,[sp,#0x60]
	cmp         w9,w8
	bne         |$LN106@main|

; 2169 : 					win_ = win;

	ldr         x8,[sp,#0xB8]
	str         x8,[sp,#0xD0]

; 2170 : 					break;

	b           |$LN41@main|
|$LN106@main|

; 2171 : 				}
; 2172 : 			}

	b           |$LN40@main|
|$LN41@main|

; 2173 : 
; 2174 : 			for (Window* win = alwaysOnTop; win != NULL; win = win->next) {

	adrp        x8,|?alwaysOnTop@@3PEAU_win_@@EA|
	ldr         x8,[x8,PageOffset(|?alwaysOnTop@@3PEAU_win_@@EA|)]
	str         x8,[sp,#0xC0]
	b           |$LN45@main|
|$LN43@main|
	ldr         x8,[sp,#0xC0]
	add         x8,x8,#0x68
	ldr         x8,[x8]
	str         x8,[sp,#0xC0]
|$LN45@main|
	ldr         x8,[sp,#0xC0]
	cmp         x8,#0
	beq         |$LN44@main|

; 2175 : 				if (win->ownerId == ownerID) {

	ldr         x8,[sp,#0xC0]
	add         x8,x8,#2
	ldrh        w9,[x8]
	mov         w9,w9
	ldr         w8,[sp,#0x60]
	cmp         w9,w8
	bne         |$LN107@main|

; 2176 : 					win_ = win;

	ldr         x8,[sp,#0xC0]
	str         x8,[sp,#0xD0]

; 2177 : 					break;

	b           |$LN44@main|
|$LN107@main|

; 2178 : 				}
; 2179 : 			}

	b           |$LN43@main|
|$LN44@main|

; 2180 : 			if (win_) 

	ldr         x8,[sp,#0xD0]
	cmp         x8,#0
	beq         |$LN108@main|

; 2181 : 				DeodhaiWindowMove(win_, newX, newY);

	ldr         w2,[sp,#0x10C]
	ldr         w1,[sp,#0xF0]
	ldr         x0,[sp,#0xD0]
	bl          |?DeodhaiWindowMove@@YAXPEAU_win_@@HH@Z|
|$LN108@main|

; 2182 : 
; 2183 : 			memset(&event, 0, sizeof(PostEvent));

	mov         x2,#0xB0
	mov         w1,#0
	add         x0,sp,#0x148
	bl          memset
|$LN105@main|

; 2184 : 		}
; 2185 : 
; 2186 : #ifdef ARCH_X64
; 2187 : 		_KeProcessSleep((16 - frameTime));
; 2188 : #elif ARCH_ARM64
; 2189 : 		_KeProcessSleep(2);

	mov         x0,#2
	bl          _KeProcessSleep

; 2190 : #endif
; 2191 : 	}

	b           |$LN8@main|
|$LN9@main|
	add         sp,sp,#0x400
	ldr         lr,[sp],#0x10
	ret
|$LN110@main|
	DCD         0x15062023
|$LN111@main|
	DCD         0xff808080

	ENDP  ; |main|

; Function compile flags: /Odtpy
; File C:\Users\paras\source\repos\grep-name\XenevaOS\Process\Deodhai\deomain.cpp

	AREA	|.text$mn|, CODE, ARM64

|?DeodhaiClickTimeSince@@YA_K_K@Z| PROC			; DeodhaiClickTimeSince

; 1619 : uint64_t DeodhaiClickTimeSince(uint64_t start_time) {

|$LN3|
	str         lr,[sp,#-0x10]!
	sub         sp,sp,#0x20
	str         x0,[sp,#8]

; 1620 : 	uint64_t now = DeodhaiClickCurrentTime();

	bl          |?DeodhaiClickCurrentTime@@YA_KXZ|
	str         x0,[sp]

; 1621 : 	uint64_t diff = now - start_time;

	ldr         x9,[sp]
	ldr         x8,[sp,#8]
	sub         x8,x9,x8
	str         x8,[sp,#0x10]

; 1622 : 	return diff;

	ldr         x0,[sp,#0x10]
	add         sp,sp,#0x20
	ldr         lr,[sp],#0x10
	ret

	ENDP  ; |?DeodhaiClickTimeSince@@YA_K_K@Z|, DeodhaiClickTimeSince

; Function compile flags: /Odtpy
; File C:\Users\paras\source\repos\grep-name\XenevaOS\Process\Deodhai\deomain.cpp

	AREA	|.text$mn|, CODE, ARM64

|?DeodhaiClickCurrentTime@@YA_KXZ| PROC			; DeodhaiClickCurrentTime

; 1610 : uint64_t DeodhaiClickCurrentTime() {

|$LN3|
	str         lr,[sp,#-0x10]!
	sub         sp,sp,#0x10

; 1611 : 	timeval t;
; 1612 : 	gettimeofday(&t);

	add         x0,sp,#8
	bl          gettimeofday

; 1613 : 	time_t sec_diff = t.tv_sec;

	ldr         w8,[sp,#8]
	str         w8,[sp]

; 1614 : 	suseconds_t usec_diff = t.tv_usec;

	ldr         w8,[sp,#0xC]
	str         w8,[sp,#4]

; 1615 : 	return (uint64_t)(static_cast<uint64_t>(sec_diff) * 1000 + (usec_diff / 1000));

	ldr         w8,[sp]
	sxtw        x9,w8
	mov         x8,#0x3E8
	mul         x10,x9,x8
	ldr         w9,[sp,#4]
	mov         w8,#0x3E8
	sdiv        w8,w9,w8
	sxtw        x8,w8
	add         x0,x10,x8
	add         sp,sp,#0x10
	ldr         lr,[sp],#0x10
	ret

	ENDP  ; |?DeodhaiClickCurrentTime@@YA_KXZ|, DeodhaiClickCurrentTime

; Function compile flags: /Odtpy
; File C:\Users\paras\source\repos\grep-name\XenevaOS\Process\Deodhai\deomain.cpp

	AREA	|.text$mn|, CODE, ARM64

|?DeodhaiTimeSince@@YA_K_K@Z| PROC			; DeodhaiTimeSince

; 1604 : uint64_t DeodhaiTimeSince(uint64_t startTime) {

|$LN3|
	str         lr,[sp,#-0x10]!
	sub         sp,sp,#0x20
	str         x0,[sp,#8]

; 1605 : 	uint64_t now = DeodhaiCurrentTime();

	bl          |?DeodhaiCurrentTime@@YA_KXZ|
	str         x0,[sp]

; 1606 : 	uint64_t diff = now - startTime;

	ldr         x9,[sp]
	ldr         x8,[sp,#8]
	sub         x8,x9,x8
	str         x8,[sp,#0x10]

; 1607 : 	return diff;

	ldr         x0,[sp,#0x10]
	add         sp,sp,#0x20
	ldr         lr,[sp],#0x10
	ret

	ENDP  ; |?DeodhaiTimeSince@@YA_K_K@Z|, DeodhaiTimeSince

; Function compile flags: /Odtpy
; File C:\Users\paras\source\repos\grep-name\XenevaOS\Process\Deodhai\deomain.cpp

	AREA	|.text$mn|, CODE, ARM64

|?DeodhaiCurrentTime@@YA_KXZ| PROC			; DeodhaiCurrentTime

; 1589 : uint64_t DeodhaiCurrentTime() {

|$LN4|
	str         lr,[sp,#-0x10]!
	sub         sp,sp,#0x10

; 1590 : 	timeval tm;
; 1591 : 	gettimeofday(&tm);

	add         x0,sp,#8
	bl          gettimeofday

; 1592 : 
; 1593 : 	time_t sec_diff = tm.tv_sec - startTime;

	ldr         w8,[sp,#8]
	sxtw        x9,w8
	adrp        x8,|?startTime@@3_KA|
	ldr         x8,[x8,PageOffset(|?startTime@@3_KA|)]
	sub         x8,x9,x8
	mov         w8,w8
	str         w8,[sp]

; 1594 : 	long usec_diff = tm.tv_usec - startSubTime;

	ldr         w8,[sp,#0xC]
	sxtw        x9,w8
	adrp        x8,|?startSubTime@@3_KA|
	ldr         x8,[x8,PageOffset(|?startSubTime@@3_KA|)]
	sub         x8,x9,x8
	mov         w8,w8
	str         w8,[sp,#4]

; 1595 : 
; 1596 : 	if (tm.tv_usec < startSubTime){

	ldr         w8,[sp,#0xC]
	sxtw        x9,w8
	adrp        x8,|?startSubTime@@3_KA|
	ldr         x8,[x8,PageOffset(|?startSubTime@@3_KA|)]
	cmp         x9,x8
	bhs         |$LN2@DeodhaiCur|

; 1597 : 		sec_diff -= 1;

	ldr         w8,[sp]
	sub         w8,w8,#1
	str         w8,[sp]

; 1598 : 		usec_diff = (1000000 + tm.tv_usec) - startSubTime;

	ldr         w8,[sp,#0xC]
	add         w8,w8,#0xF4,lsl #0xC
	add         w8,w8,#0x240
	sxtw        x9,w8
	adrp        x8,|?startSubTime@@3_KA|
	ldr         x8,[x8,PageOffset(|?startSubTime@@3_KA|)]
	sub         x8,x9,x8
	mov         w8,w8
	str         w8,[sp,#4]
|$LN2@DeodhaiCur|

; 1599 : 	}
; 1600 : 
; 1601 : 	return (uint64_t)(static_cast<uint64_t>(sec_diff) * 1000 + usec_diff / 1000);

	ldr         w8,[sp]
	sxtw        x9,w8
	mov         x8,#0x3E8
	mul         x10,x9,x8
	ldr         w9,[sp,#4]
	mov         w8,#0x3E8
	sdiv        w8,w9,w8
	sxtw        x8,w8
	add         x0,x10,x8
	add         sp,sp,#0x10
	ldr         lr,[sp],#0x10
	ret

	ENDP  ; |?DeodhaiCurrentTime@@YA_KXZ|, DeodhaiCurrentTime

; Function compile flags: /Odtpy
; File C:\Users\paras\source\repos\grep-name\XenevaOS\Process\Deodhai\deomain.cpp

	AREA	|.text$mn|, CODE, ARM64

|?DrawWallpaper@@YAXPEAU_ChCanvas_@@PEAD@Z| PROC	; DrawWallpaper

; 1542 : void DrawWallpaper(ChCanvas *canv, char* filename) {

|$LN16|
	str         lr,[sp,#-0x10]!
	sub         sp,sp,#0xA0
	str         x0,[sp,#0x28]
	str         x1,[sp,#0x58]

; 1543 : 	int image = _KeOpenFile(filename, FILE_OPEN_READ_ONLY);

	mov         w1,#2
	ldr         x0,[sp,#0x58]
	bl          _KeOpenFile
	mov         w0,w0
	str         w0,[sp,#0x18]

; 1544 : 	XEFileStatus stat;
; 1545 : 	memset(&stat, 0, sizeof(XEFileStatus));

	mov         x2,#0x28
	mov         w1,#0
	add         x0,sp,#0x70
	bl          memset

; 1546 : 	_KeFileStat(image, &stat);

	add         x1,sp,#0x70
	ldr         w0,[sp,#0x18]
	bl          _KeFileStat

; 1547 : 	_KePrint("Wallpaper sz : %d \r\n", stat.size);

	ldr         x1,[sp,#0x78]
	adrp        x8,|$SG8792|
	add         x0,x8,PageOffset(|$SG8792|)
	bl          _KePrint

; 1548 : 	void* data_ = _KeMemMap(NULL, stat.size, 0, 0, -1, 0);

	mov         x5,#0
	mov         w4,#-1
	mov         w3,#0
	mov         w2,#0
	ldr         x1,[sp,#0x78]
	mov         x0,#0
	bl          _KeMemMap
	str         x0,[sp,#0x38]

; 1549 : 	memset(data_, 0, ALIGN_UP(stat.size, 4096));

	ldr         x8,[sp,#0x78]
	add         x8,x8,#1,lsl #0xC
	sub         x9,x8,#1
	mov         x8,#0x1000
	udiv        x9,x9,x8
	mov         x8,#0x1000
	mul         x2,x9,x8
	mov         w1,#0
	ldr         x0,[sp,#0x38]
	bl          memset

; 1550 : 	_KeReadFile(image, data_, ALIGN_UP(stat.size,4096));

	ldr         x8,[sp,#0x78]
	add         x8,x8,#1,lsl #0xC
	sub         x9,x8,#1
	mov         x8,#0x1000
	udiv        x9,x9,x8
	mov         x8,#0x1000
	mul         x2,x9,x8
	ldr         x1,[sp,#0x38]
	ldr         w0,[sp,#0x18]
	bl          _KeReadFile

; 1551 : 
; 1552 : 	uint8_t* data1 = (uint8_t*)data_;

	ldr         x8,[sp,#0x38]
	str         x8,[sp,#0x60]

; 1553 : 	
; 1554 : 	Jpeg::Decoder *decor = new Jpeg::Decoder((uint8_t*)data1, ALIGN_UP(stat.size, 4096), malloc, free);

	ldr         x0,|$LN15@DrawWallpa|
	bl          |??2@YAPEAX_K@Z|
	str         x0,[sp,#0x48]
	ldr         x8,[sp,#0x48]
	cmp         x8,#0
	beq         |$LN13@DrawWallpa|
	ldr         x8,[sp,#0x78]
	add         x8,x8,#1,lsl #0xC
	sub         x9,x8,#1
	mov         x8,#0x1000
	udiv        x9,x9,x8
	mov         x8,#0x1000
	mul         x8,x9,x8
	mov         w2,w8
	adrp        x8,free
	add         x4,x8,PageOffset(free)
	adrp        x8,malloc
	add         x3,x8,PageOffset(malloc)
	mov         w2,w2
	ldr         x1,[sp,#0x60]
	ldr         x0,[sp,#0x48]
	bl          |??0Decoder@Jpeg@@QEAA@PEBEIP6APEAXI@ZP6AXPEAX@Z@Z|
	str         x0,[sp,#0x50]
	b           |$LN14@DrawWallpa|
|$LN13@DrawWallpa|
	mov         x8,#0
	str         x8,[sp,#0x50]
|$LN14@DrawWallpa|
	ldr         x8,[sp,#0x50]
	str         x8,[sp,#0x20]

; 1555 : 	if (decor->GetResult() != Jpeg::Decoder::OK) {

	ldr         x0,[sp,#0x20]
	bl          |?GetResult@Decoder@Jpeg@@QEBA?AW4DecodeResult@12@XZ|
	mov         w0,w0
	cmp         w0,#0
	beq         |$LN11@DrawWallpa|

; 1556 : 		_KePrint("Decoder error \n");

	adrp        x8,|$SG8794|
	add         x0,x8,PageOffset(|$SG8794|)
	bl          _KePrint
|$LN2@DrawWallpa|

; 1557 : 		for (;;);

	b           |$LN2@DrawWallpa|

; 1558 : 		return;

	b           |$LN1@DrawWallpa|
|$LN11@DrawWallpa|

; 1559 : 	}
; 1560 : 	int w = decor->GetWidth();

	ldr         x0,[sp,#0x20]
	bl          |?GetWidth@Decoder@Jpeg@@QEBAHXZ|
	mov         w0,w0
	str         w0,[sp,#0x10]

; 1561 : 	int h = decor->GetHeight();

	ldr         x0,[sp,#0x20]
	bl          |?GetHeight@Decoder@Jpeg@@QEBAHXZ|
	mov         w0,w0
	str         w0,[sp,#0x1C]

; 1562 : 	_KePrint("Wallpaper width : %d \r\n", w);

	ldr         w1,[sp,#0x10]
	adrp        x8,|$SG8795|
	add         x0,x8,PageOffset(|$SG8795|)
	bl          _KePrint

; 1563 : 	_KePrint("Wallpaper height : %d \r\n", h);

	ldr         w1,[sp,#0x1C]
	adrp        x8,|$SG8796|
	add         x0,x8,PageOffset(|$SG8796|)
	bl          _KePrint

; 1564 : 	uint32_t* swapable_buff = canv->buffer;

	ldr         x8,[sp,#0x28]
	add         x8,x8,#0x20
	ldr         x8,[x8]
	str         x8,[sp,#0x68]

; 1565 : 	canv->buffer = surfaceBuffer;

	ldr         x8,[sp,#0x28]
	add         x9,x8,#0x20
	adrp        x8,|?surfaceBuffer@@3PEAIEA|
	ldr         x8,[x8,PageOffset(|?surfaceBuffer@@3PEAIEA|)]
	str         x8,[x9]

; 1566 : 	uint8_t* data = decor->GetImage();

	ldr         x0,[sp,#0x20]
	bl          |?GetImage@Decoder@Jpeg@@QEBAPEAEXZ|
	str         x0,[sp,#0x40]

; 1567 : 
; 1568 : 	unsigned x = 0;

	mov         w8,#0
	str         w8,[sp,#0x34]

; 1569 : 	unsigned y = 0;

	mov         w8,#0
	str         w8,[sp,#0x30]

; 1570 : 	for (int i = 0; i < h; i++) {

	mov         w8,#0
	str         w8,[sp,#4]
	b           |$LN7@DrawWallpa|
|$LN5@DrawWallpa|
	ldr         w8,[sp,#4]
	add         w8,w8,#1
	str         w8,[sp,#4]
|$LN7@DrawWallpa|
	ldr         w9,[sp,#0x1C]
	ldr         w8,[sp,#4]
	cmp         w8,w9
	bge         |$LN6@DrawWallpa|

; 1571 : 		for (int k = 0; k < w; k++) {

	mov         w8,#0
	str         w8,[sp,#8]
	b           |$LN10@DrawWallpa|
|$LN8@DrawWallpa|
	ldr         w8,[sp,#8]
	add         w8,w8,#1
	str         w8,[sp,#8]
|$LN10@DrawWallpa|
	ldr         w9,[sp,#0x10]
	ldr         w8,[sp,#8]
	cmp         w8,w9
	bge         |$LN9@DrawWallpa|

; 1572 : 			int j = k + i * w;

	ldr         w9,[sp,#4]
	ldr         w8,[sp,#0x10]
	mul         w9,w9,w8
	ldr         w8,[sp,#8]
	add         w8,w8,w9
	str         w8,[sp,#0xC]

; 1573 : 			uint8_t r = data[j * 3];

	ldr         w9,[sp,#0xC]
	mov         w8,#3
	mul         w8,w9,w8
	sxtw        x9,w8
	mov         x8,#1
	mul         x9,x9,x8
	ldr         x8,[sp,#0x40]
	add         x8,x8,x9
	ldrb        w8,[x8]
	strb        w8,[sp]

; 1574 : 			uint8_t g = data[j * 3 + 1];

	ldr         w9,[sp,#0xC]
	mov         w8,#3
	mul         w8,w9,w8
	add         w8,w8,#1
	sxtw        x9,w8
	mov         x8,#1
	mul         x9,x9,x8
	ldr         x8,[sp,#0x40]
	add         x8,x8,x9
	ldrb        w8,[x8]
	strb        w8,[sp,#1]

; 1575 : 			uint8_t b = data[j * 3 + 2];

	ldr         w9,[sp,#0xC]
	mov         w8,#3
	mul         w8,w9,w8
	add         w8,w8,#2
	sxtw        x9,w8
	mov         x8,#1
	mul         x9,x9,x8
	ldr         x8,[sp,#0x40]
	add         x8,x8,x9
	ldrb        w8,[x8]
	strb        w8,[sp,#2]

; 1576 : 			uint32_t rgba = ((r << 16) | (g << 8) | (b)) & 0x00ffffff;

	ldrb        w8,[sp]
	mov         w8,w8
	lsl         w9,w8,#0x10
	ldrb        w8,[sp,#1]
	mov         w8,w8
	lsl         w8,w8,#8
	orr         w9,w9,w8
	ldrb        w8,[sp,#2]
	mov         w8,w8
	orr         w8,w9,w8
	and         w8,w8,#0xFFFFFF
	str         w8,[sp,#0x14]

; 1577 : 			rgba = rgba | 0xff000000;

	ldr         w8,[sp,#0x14]
	orr         w8,w8,#0xFF000000
	str         w8,[sp,#0x14]

; 1578 : 			ChDrawPixelRAW(canv,x + k, y + i, rgba);

	ldr         w9,[sp,#0x30]
	ldr         w8,[sp,#4]
	add         w2,w9,w8
	ldr         w9,[sp,#0x34]
	ldr         w8,[sp,#8]
	add         w1,w9,w8
	ldr         w3,[sp,#0x14]
	mov         w2,w2
	mov         w1,w1
	ldr         x0,[sp,#0x28]
	bl          ChDrawPixelRAW

; 1579 : 			j++;

	ldr         w8,[sp,#0xC]
	add         w8,w8,#1
	str         w8,[sp,#0xC]

; 1580 : 		}

	b           |$LN8@DrawWallpa|
|$LN9@DrawWallpa|

; 1581 : 	}

	b           |$LN5@DrawWallpa|
|$LN6@DrawWallpa|

; 1582 : 
; 1583 : 	canv->buffer = swapable_buff;

	ldr         x8,[sp,#0x28]
	add         x9,x8,#0x20
	ldr         x8,[sp,#0x68]
	str         x8,[x9]
|$LN1@DrawWallpa|
	add         sp,sp,#0xA0
	ldr         lr,[sp],#0x10
	ret
|$LN15@DrawWallpa|
	DCQ         0x80330

	ENDP  ; |?DrawWallpaper@@YAXPEAU_ChCanvas_@@PEAD@Z|, DrawWallpaper

; Function compile flags: /Odtpy
; File C:\Users\paras\source\repos\grep-name\XenevaOS\Process\Deodhai\deomain.cpp

	AREA	|.text$mn|, CODE, ARM64

|?DeodhaiCloseWindow@@YAXPEAU_win_@@@Z| PROC		; DeodhaiCloseWindow

; 1483 : void DeodhaiCloseWindow(Window* win) {

|$LN7|
	str         lr,[sp,#-0x10]!
	sub         sp,sp,#0xF0
	str         x0,[sp]

; 1484 : 	int ownerId = win->ownerId;

	ldr         x8,[sp]
	add         x8,x8,#2
	ldrh        w8,[x8]
	mov         w8,w8
	str         w8,[sp,#0x18]

; 1485 : 	int handle = win->handle;

	ldr         x8,[sp]
	add         x8,x8,#0x24
	ldr         w8,[x8]
	str         w8,[sp,#0x38]

; 1486 : 	uint16_t flags = win->flags;

	ldr         x8,[sp]
	ldrh        w8,[x8]
	strh        w8,[sp,#8]

; 1487 : 	WinSharedInfo* info = (WinSharedInfo*)win->sharedInfo;

	ldr         x8,[sp]
	add         x8,x8,#0x10
	ldr         x8,[x8]
	str         x8,[sp,#0x20]

; 1488 : 	int width = info->width;

	ldr         x9,[sp,#0x20]
	mov         x8,#0x1010
	add         x8,x9,x8
	ldr         w8,[x8]
	str         w8,[sp,#0x2C]

; 1489 : 	int height = info->height;

	ldr         x9,[sp,#0x20]
	mov         x8,#0x1014
	add         x8,x9,x8
	ldr         w8,[x8]
	str         w8,[sp,#0x28]

; 1490 : 	int x = info->x;

	ldr         x9,[sp,#0x20]
	mov         x8,#0x1008
	add         x8,x9,x8
	ldr         w8,[x8]
	str         w8,[sp,#0x34]

; 1491 : 	int y = info->y;

	ldr         x9,[sp,#0x20]
	mov         x8,#0x100C
	add         x8,x9,x8
	ldr         w8,[x8]
	str         w8,[sp,#0x30]

; 1492 : 	_KePrint("[Deodhai]:CloseWindow : %s \r\n", win->title);

	ldr         x8,[sp]
	add         x8,x8,#0x48
	ldr         x1,[x8]
	adrp        x8,|$SG8750|
	add         x0,x8,PageOffset(|$SG8750|)
	bl          _KePrint

; 1493 : 	//free(win->title);
; 1494 : 
; 1495 : 	/* iterate all popup window and close them */
; 1496 : 	for (Window* popup = win->firstPopupWin; popup != NULL; popup = popup->next) {

	ldr         x8,[sp]
	add         x8,x8,#0x50
	ldr         x8,[x8]
	str         x8,[sp,#0x10]
	b           |$LN4@DeodhaiClo|
|$LN2@DeodhaiClo|
	ldr         x8,[sp,#0x10]
	add         x8,x8,#0x68
	ldr         x8,[x8]
	str         x8,[sp,#0x10]
|$LN4@DeodhaiClo|
	ldr         x8,[sp,#0x10]
	cmp         x8,#0
	beq         |$LN3@DeodhaiClo|

; 1497 : 		//close all
; 1498 : 		free(popup->title);

	ldr         x8,[sp,#0x10]
	add         x8,x8,#0x48
	ldr         x0,[x8]
	bl          free

; 1499 : 		_KeUnmapSharedMem(popup->shWinKey);

	ldr         x8,[sp,#0x10]
	add         x8,x8,#0x20
	ldrh        w0,[x8]
	bl          _KeUnmapSharedMem

; 1500 : 		_KeUnmapSharedMem(popup->backBufferKey);

	ldr         x8,[sp,#0x10]
	add         x8,x8,#0x22
	ldrh        w0,[x8]
	bl          _KeUnmapSharedMem

; 1501 : #ifdef SHADOW_ENABLED
; 1502 : 		_KeMemUnmap(popup->shadowBuffers, (static_cast<size_t>(width) + SHADOW_SIZE * 2) * (height + SHADOW_SIZE * 2) * 4);
; 1503 : #endif
; 1504 : 		free(popup);

	ldr         x0,[sp,#0x10]
	bl          free

; 1505 : 	}

	b           |$LN2@DeodhaiClo|
|$LN3@DeodhaiClo|

; 1506 : 
; 1507 : 	_KePrint("Unmapping shared mems \r\n");

	adrp        x8,|$SG8751|
	add         x0,x8,PageOffset(|$SG8751|)
	bl          _KePrint

; 1508 : 	_KeUnmapSharedMem(win->shWinKey);

	ldr         x8,[sp]
	add         x8,x8,#0x20
	ldrh        w0,[x8]
	bl          _KeUnmapSharedMem

; 1509 : 	_KeUnmapSharedMem(win->backBufferKey);

	ldr         x8,[sp]
	add         x8,x8,#0x22
	ldrh        w0,[x8]
	bl          _KeUnmapSharedMem

; 1510 : 	_KePrint("Unmapped all shared mems from deodhai side for process\r\n");

	adrp        x8,|$SG8752|
	add         x0,x8,PageOffset(|$SG8752|)
	bl          _KePrint

; 1511 : #ifdef SHADOW_ENABLED
; 1512 : 	_KeMemUnmap(win->shadowBuffers, (static_cast<size_t>(width) + SHADOW_SIZE * 2) * (height + SHADOW_SIZE * 2) * 4);
; 1513 : #endif
; 1514 : 	BackDirtyAdd(x - SHADOW_SIZE, y - SHADOW_SIZE, width + SHADOW_SIZE*2, height + SHADOW_SIZE*2);

	ldr         w3,[sp,#0x28]
	ldr         w2,[sp,#0x2C]
	ldr         w1,[sp,#0x30]
	ldr         w0,[sp,#0x34]
	bl          |?BackDirtyAdd@@YAXHHHH@Z|

; 1515 : 	DeodhaiRemoveWindow(win);

	ldr         x0,[sp]
	bl          |?DeodhaiRemoveWindow@@YAXPEAU_win_@@@Z|

; 1516 : 	_KePrint("Removing window \r\n");

	adrp        x8,|$SG8753|
	add         x0,x8,PageOffset(|$SG8753|)
	bl          _KePrint

; 1517 : 	//free(win);
; 1518 : 	PostEvent e;
; 1519 : 	e.to_id = ownerId;

	ldr         w8,[sp,#0x18]
	uxth        w8,w8
	strh        w8,[sp,#0x42]

; 1520 : 	e.type = DEODHAI_REPLY_WINDOW_CLOSED;

	mov         w8,#0x9C
	strb        w8,[sp,#0x40]

; 1521 : 	_KeFileIoControl(postbox_fd, POSTBOX_PUT_EVENT, &e);

	add         x2,sp,#0x40
	mov         w1,#0x193
	adrp        x8,|?postbox_fd@@3HA|
	ldr         w0,[x8,PageOffset(|?postbox_fd@@3HA|)]
	bl          _KeFileIoControl

; 1522 : 	_KePrint("Putting post box event \r\n");

	adrp        x8,|$SG8754|
	add         x0,x8,PageOffset(|$SG8754|)
	bl          _KePrint

; 1523 : 	if (!(flags & WINDOW_FLAG_MESSAGEBOX)) {

	ldrh        w8,[sp,#8]
	mov         w8,w8
	tbnz        x8,#7,|$LN5@DeodhaiClo|

; 1524 : 		/* now broadcast this information, that a
; 1525 : 		 * specific window has been destroyed
; 1526 : 		 */
; 1527 : 		memset(&e, 0, sizeof(PostEvent));

	mov         x2,#0xB0
	mov         w1,#0
	add         x0,sp,#0x40
	bl          memset

; 1528 : 		e.type = DEODHAI_BROADCAST_WINDESTROYED;

	mov         w8,#0xAB
	strb        w8,[sp,#0x40]

; 1529 : 		e.dword = ownerId;

	ldr         w8,[sp,#0x18]
	str         w8,[sp,#0x48]

; 1530 : 		e.dword2 = handle;

	ldr         w8,[sp,#0x38]
	str         w8,[sp,#0x4C]

; 1531 : 		DeodhaiBroadcastMessage(&e, NULL);

	mov         x1,#0
	add         x0,sp,#0x40
	bl          |?DeodhaiBroadcastMessage@@YAXPEAU_post_event_@@PEAU_win_@@@Z|

; 1532 : 		_KeProcessSleep(100);

	mov         x0,#0x64
	bl          _KeProcessSleep
|$LN5@DeodhaiClo|

; 1533 : 	}
; 1534 : 	_always_on_top_update = 1;

	adrp        x9,|?_always_on_top_update@@3DA|
	mov         w8,#1
	strb        w8,[x9,PageOffset(|?_always_on_top_update@@3DA|)]

; 1535 : 	_window_update_all_ = 1;

	adrp        x9,|?_window_update_all_@@3DA|
	mov         w8,#1
	strb        w8,[x9,PageOffset(|?_window_update_all_@@3DA|)]
	add         sp,sp,#0xF0
	ldr         lr,[sp],#0x10
	ret

	ENDP  ; |?DeodhaiCloseWindow@@YAXPEAU_win_@@@Z|, DeodhaiCloseWindow

; Function compile flags: /Odtpy
; File C:\Users\paras\source\repos\grep-name\XenevaOS\Process\Deodhai\deomain.cpp

	AREA	|.text$mn|, CODE, ARM64

|?DeodhaiBroadcastKey@@YAXH@Z| PROC			; DeodhaiBroadcastKey

; 1464 : void DeodhaiBroadcastKey(int code) {

|$LN4|
	str         lr,[sp,#-0x10]!
	sub         sp,sp,#0xC0
	str         w0,[sp]

; 1465 : 	if (!focusedWin)

	adrp        x8,|?focusedWin@@3PEAU_win_@@EA|
	ldr         x8,[x8,PageOffset(|?focusedWin@@3PEAU_win_@@EA|)]
	cmp         x8,#0
	bne         |$LN2@DeodhaiBro|

; 1466 : 		return;

	b           |$LN1@DeodhaiBro|
|$LN2@DeodhaiBro|

; 1467 : 	PostEvent e;
; 1468 : 	memset(&e, 0, sizeof(PostEvent));

	mov         x2,#0xB0
	mov         w1,#0
	add         x0,sp,#8
	bl          memset

; 1469 : 	e.type = DEODHAI_REPLY_KEY_EVENT;

	mov         w8,#0x98
	strb        w8,[sp,#8]

; 1470 : 	e.dword = code;

	ldr         w8,[sp]
	str         w8,[sp,#0x10]

; 1471 : 	e.dword2 = focusedWin->handle;

	adrp        x8,|?focusedWin@@3PEAU_win_@@EA|
	ldr         x8,[x8,PageOffset(|?focusedWin@@3PEAU_win_@@EA|)]
	add         x8,x8,#0x24
	ldr         w8,[x8]
	str         w8,[sp,#0x14]

; 1472 : 	e.to_id = focusedWin->ownerId;

	adrp        x8,|?focusedWin@@3PEAU_win_@@EA|
	ldr         x8,[x8,PageOffset(|?focusedWin@@3PEAU_win_@@EA|)]
	add         x8,x8,#2
	ldrh        w8,[x8]
	strh        w8,[sp,#0xA]

; 1473 : 	e.from_id = POSTBOX_ROOT_ID;

	mov         w8,#1
	strh        w8,[sp,#0xC]

; 1474 : 	_KeFileIoControl(postbox_fd, POSTBOX_PUT_EVENT, &e);

	add         x2,sp,#8
	mov         w1,#0x193
	adrp        x8,|?postbox_fd@@3HA|
	ldr         w0,[x8,PageOffset(|?postbox_fd@@3HA|)]
	bl          _KeFileIoControl
|$LN1@DeodhaiBro|
	add         sp,sp,#0xC0
	ldr         lr,[sp],#0x10
	ret

	ENDP  ; |?DeodhaiBroadcastKey@@YAXH@Z|, DeodhaiBroadcastKey

; Function compile flags: /Odtpy
; File C:\Users\paras\source\repos\grep-name\XenevaOS\Process\Deodhai\deomain.cpp

	AREA	|.text$mn|, CODE, ARM64

|?DeodhaiBroadcastTouch@@YAXHH@Z| PROC			; DeodhaiBroadcastTouch

; 1386 : void DeodhaiBroadcastTouch(int t_x, int t_y) {

|$LN23|
	str         lr,[sp,#-0x10]!
	sub         sp,sp,#0x50
	str         w0,[sp,#8]
	str         w1,[sp,#4]

; 1387 : 	Window* mouseWin = NULL;

	mov         x8,#0
	str         x8,[sp,#0x18]

; 1388 : 
; 1389 : 	if (focusedWin) {

	adrp        x8,|?focusedWin@@3PEAU_win_@@EA|
	ldr         x8,[x8,PageOffset(|?focusedWin@@3PEAU_win_@@EA|)]
	cmp         x8,#0
	beq         |$LN8@DeodhaiBro|

; 1390 : 		WinSharedInfo* info = (WinSharedInfo*)focusedWin->sharedInfo;

	adrp        x8,|?focusedWin@@3PEAU_win_@@EA|
	ldr         x8,[x8,PageOffset(|?focusedWin@@3PEAU_win_@@EA|)]
	add         x8,x8,#0x10
	ldr         x8,[x8]
	str         x8,[sp,#0x20]

; 1391 : 		if (!info->hide) {

	ldr         x9,[sp,#0x20]
	mov         x8,#0x1019
	add         x8,x9,x8
	ldrsb       w8,[x8]
	mov         w8,w8
	cmp         w8,#0
	bne         |$LN9@DeodhaiBro|

; 1392 : 			if (t_x >= info->x && (t_x < (info->x + info->width)) &&
; 1393 : 				t_y >= info->y && (t_y < (info->y + info->height))) {

	ldr         x9,[sp,#0x20]
	mov         x8,#0x1008
	add         x8,x9,x8
	ldr         w9,[x8]
	ldr         w8,[sp,#8]
	cmp         w8,w9
	blt         |$LN10@DeodhaiBro|
	ldr         x9,[sp,#0x20]
	mov         x8,#0x1008
	add         x10,x9,x8
	ldr         x9,[sp,#0x20]
	mov         x8,#0x1010
	add         x8,x9,x8
	ldr         w9,[x10]
	ldr         w8,[x8]
	add         w9,w9,w8
	ldr         w8,[sp,#8]
	cmp         w8,w9
	bge         |$LN10@DeodhaiBro|
	ldr         x9,[sp,#0x20]
	mov         x8,#0x100C
	add         x8,x9,x8
	ldr         w9,[x8]
	ldr         w8,[sp,#4]
	cmp         w8,w9
	blt         |$LN10@DeodhaiBro|
	ldr         x9,[sp,#0x20]
	mov         x8,#0x100C
	add         x10,x9,x8
	ldr         x9,[sp,#0x20]
	mov         x8,#0x1014
	add         x8,x9,x8
	ldr         w9,[x10]
	ldr         w8,[x8]
	add         w9,w9,w8
	ldr         w8,[sp,#4]
	cmp         w8,w9
	bge         |$LN10@DeodhaiBro|

; 1394 : 				mouseWin = focusedWin;

	adrp        x8,|?focusedWin@@3PEAU_win_@@EA|
	ldr         x8,[x8,PageOffset(|?focusedWin@@3PEAU_win_@@EA|)]
	str         x8,[sp,#0x18]

; 1395 : 				/* skip others */
; 1396 : 				goto broadcast;

	b           |$LN11@DeodhaiBro|
	b           |$broadcast$24|
|$LN10@DeodhaiBro|
|$LN9@DeodhaiBro|
|$LN8@DeodhaiBro|

; 1397 : 			}
; 1398 : 		}
; 1399 : 	}
; 1400 : 	if (!mouseWin) {

	ldr         x8,[sp,#0x18]
	cmp         x8,#0
	bne         |$LN12@DeodhaiBro|

; 1401 : 		/* check for normal windows */
; 1402 : 		for (Window* win = rootWin; win != NULL; win = win->next) {

	adrp        x8,|?rootWin@@3PEAU_win_@@EA|
	ldr         x8,[x8,PageOffset(|?rootWin@@3PEAU_win_@@EA|)]
	str         x8,[sp,#0x10]
	b           |$LN4@DeodhaiBro|
|$LN2@DeodhaiBro|
	ldr         x8,[sp,#0x10]
	add         x8,x8,#0x68
	ldr         x8,[x8]
	str         x8,[sp,#0x10]
|$LN4@DeodhaiBro|
	ldr         x8,[sp,#0x10]
	cmp         x8,#0
	beq         |$LN3@DeodhaiBro|

; 1403 : 			WinSharedInfo* info = (WinSharedInfo*)win->sharedInfo;

	ldr         x8,[sp,#0x10]
	add         x8,x8,#0x10
	ldr         x8,[x8]
	str         x8,[sp,#0x28]

; 1404 : 			if (info->hide)

	ldr         x9,[sp,#0x28]
	mov         x8,#0x1019
	add         x8,x9,x8
	ldrsb       w8,[x8]
	mov         w8,w8
	cmp         w8,#0
	beq         |$LN13@DeodhaiBro|

; 1405 : 				continue;

	b           |$LN2@DeodhaiBro|
|$LN13@DeodhaiBro|

; 1406 : 			if (t_x >= info->x && (t_x < (info->x + info->width)) &&
; 1407 : 				t_y >= info->y && (t_y < (info->y + info->height))) {

	ldr         x9,[sp,#0x28]
	mov         x8,#0x1008
	add         x8,x9,x8
	ldr         w9,[x8]
	ldr         w8,[sp,#8]
	cmp         w8,w9
	blt         |$LN14@DeodhaiBro|
	ldr         x9,[sp,#0x28]
	mov         x8,#0x1008
	add         x10,x9,x8
	ldr         x9,[sp,#0x28]
	mov         x8,#0x1010
	add         x8,x9,x8
	ldr         w9,[x10]
	ldr         w8,[x8]
	add         w9,w9,w8
	ldr         w8,[sp,#8]
	cmp         w8,w9
	bge         |$LN14@DeodhaiBro|
	ldr         x9,[sp,#0x28]
	mov         x8,#0x100C
	add         x8,x9,x8
	ldr         w9,[x8]
	ldr         w8,[sp,#4]
	cmp         w8,w9
	blt         |$LN14@DeodhaiBro|
	ldr         x9,[sp,#0x28]
	mov         x8,#0x100C
	add         x10,x9,x8
	ldr         x9,[sp,#0x28]
	mov         x8,#0x1014
	add         x8,x9,x8
	ldr         w9,[x10]
	ldr         w8,[x8]
	add         w9,w9,w8
	ldr         w8,[sp,#4]
	cmp         w8,w9
	bge         |$LN14@DeodhaiBro|

; 1408 : 
; 1409 : 				if (DeodhaiCheckWindowPointOcclusion(win, t_x, t_y))

	ldr         w2,[sp,#4]
	ldr         w1,[sp,#8]
	ldr         x0,[sp,#0x10]
	bl          |?DeodhaiCheckWindowPointOcclusion@@YADPEAU_win_@@HH@Z|
	sxtb        w8,w0
	mov         w8,w8
	cmp         w8,#0
	beq         |$LN15@DeodhaiBro|

; 1410 : 					continue;

	b           |$LN2@DeodhaiBro|
|$LN15@DeodhaiBro|

; 1411 : 				if (win->flags & WINDOW_FLAG_BLOCKED)

	ldr         x8,[sp,#0x10]
	ldrh        w8,[x8]
	mov         w8,w8
	tbz         x8,#6,|$LN16@DeodhaiBro|

; 1412 : 					continue;

	b           |$LN2@DeodhaiBro|
|$LN16@DeodhaiBro|

; 1413 : 
; 1414 : 				/* PHILOSOPHY: if mouse event was sent to unfocused window
; 1415 : 				 * and if the mouse points goes to some kind of widget or object
; 1416 : 				 * it will be an hover message, if mouse left button was clicked
; 1417 : 				 * within than hovered object of unfocused window, make that
; 1418 : 				 * window focused and bring it to front and update all window
; 1419 : 				 * and shadow effects
; 1420 : 				 */
; 1421 : 				if (focusedWin != win) {

	ldr         x9,[sp,#0x10]
	adrp        x8,|?focusedWin@@3PEAU_win_@@EA|
	ldr         x8,[x8,PageOffset(|?focusedWin@@3PEAU_win_@@EA|)]
	cmp         x8,x9
	beq         |$LN17@DeodhaiBro|

; 1422 : 					DeodhaiWindowSetFocused(win, 1);

	mov         w1,#1
	ldr         x0,[sp,#0x10]
	bl          |?DeodhaiWindowSetFocused@@YAXPEAU_win_@@D@Z|

; 1423 : 					_window_update_all_ = true;

	adrp        x9,|?_window_update_all_@@3DA|
	mov         w8,#1
	strb        w8,[x9,PageOffset(|?_window_update_all_@@3DA|)]

; 1424 : 					_shadow_update = true;

	adrp        x9,|?_shadow_update@@3DA|
	mov         w8,#1
	strb        w8,[x9,PageOffset(|?_shadow_update@@3DA|)]
|$LN17@DeodhaiBro|

; 1425 : 				}
; 1426 : 				mouseWin = win;

	ldr         x8,[sp,#0x10]
	str         x8,[sp,#0x18]

; 1427 : 				break;

	b           |$LN3@DeodhaiBro|
|$LN14@DeodhaiBro|

; 1428 : 			}
; 1429 : 		}

	b           |$LN2@DeodhaiBro|
|$LN3@DeodhaiBro|

; 1430 : 
; 1431 : 
; 1432 : 		/* check for always on top windows */
; 1433 : 		for (Window* win = alwaysOnTop; win != NULL; win = win->next) {

	adrp        x8,|?alwaysOnTop@@3PEAU_win_@@EA|
	ldr         x8,[x8,PageOffset(|?alwaysOnTop@@3PEAU_win_@@EA|)]
	str         x8,[sp,#0x38]
	b           |$LN7@DeodhaiBro|
|$LN5@DeodhaiBro|
	ldr         x8,[sp,#0x38]
	add         x8,x8,#0x68
	ldr         x8,[x8]
	str         x8,[sp,#0x38]
|$LN7@DeodhaiBro|
	ldr         x8,[sp,#0x38]
	cmp         x8,#0
	beq         |$LN6@DeodhaiBro|

; 1434 : 			WinSharedInfo* info = (WinSharedInfo*)win->sharedInfo;

	ldr         x8,[sp,#0x38]
	add         x8,x8,#0x10
	ldr         x8,[x8]
	str         x8,[sp,#0x30]

; 1435 : 			if (info->hide)

	ldr         x9,[sp,#0x30]
	mov         x8,#0x1019
	add         x8,x9,x8
	ldrsb       w8,[x8]
	mov         w8,w8
	cmp         w8,#0
	beq         |$LN18@DeodhaiBro|

; 1436 : 				continue;

	b           |$LN5@DeodhaiBro|
|$LN18@DeodhaiBro|

; 1437 : 			if (t_x >= info->x && (t_x < (info->x + info->width)) &&
; 1438 : 				t_y >= info->y && (t_y < (info->y + info->height))) {

	ldr         x9,[sp,#0x30]
	mov         x8,#0x1008
	add         x8,x9,x8
	ldr         w9,[x8]
	ldr         w8,[sp,#8]
	cmp         w8,w9
	blt         |$LN19@DeodhaiBro|
	ldr         x9,[sp,#0x30]
	mov         x8,#0x1008
	add         x10,x9,x8
	ldr         x9,[sp,#0x30]
	mov         x8,#0x1010
	add         x8,x9,x8
	ldr         w9,[x10]
	ldr         w8,[x8]
	add         w9,w9,w8
	ldr         w8,[sp,#8]
	cmp         w8,w9
	bge         |$LN19@DeodhaiBro|
	ldr         x9,[sp,#0x30]
	mov         x8,#0x100C
	add         x8,x9,x8
	ldr         w9,[x8]
	ldr         w8,[sp,#4]
	cmp         w8,w9
	blt         |$LN19@DeodhaiBro|
	ldr         x9,[sp,#0x30]
	mov         x8,#0x100C
	add         x10,x9,x8
	ldr         x9,[sp,#0x30]
	mov         x8,#0x1014
	add         x8,x9,x8
	ldr         w9,[x10]
	ldr         w8,[x8]
	add         w9,w9,w8
	ldr         w8,[sp,#4]
	cmp         w8,w9
	bge         |$LN19@DeodhaiBro|

; 1439 : 				mouseWin = win;

	ldr         x8,[sp,#0x38]
	str         x8,[sp,#0x18]

; 1440 : 				break;

	b           |$LN6@DeodhaiBro|
|$LN19@DeodhaiBro|

; 1441 : 			}
; 1442 : 		}

	b           |$LN5@DeodhaiBro|
|$LN6@DeodhaiBro|
|$LN12@DeodhaiBro|
|$LN11@DeodhaiBro|
|$broadcast$24|

; 1443 : 	}
; 1444 : 
; 1445 : broadcast:
; 1446 : 	if (mouseWin) {

	ldr         x8,[sp,#0x18]
	cmp         x8,#0
	beq         |$LN20@DeodhaiBro|

; 1447 : 		WinSharedInfo* info = (WinSharedInfo*)mouseWin->sharedInfo;

	ldr         x8,[sp,#0x18]
	add         x8,x8,#0x10
	ldr         x8,[x8]
	str         x8,[sp,#0x48]

; 1448 : 		
; 1449 : 		int handle = mouseWin->handle;

	ldr         x8,[sp,#0x18]
	add         x8,x8,#0x24
	ldr         w8,[x8]
	str         w8,[sp,#0x40]

; 1450 : 		uint8_t handleType = HANDLE_TYPE_NORMAL_WINDOW;

	mov         w8,#1
	strb        w8,[sp]

; 1451 : 		if ((mouseWin->flags & WINDOW_FLAG_POPUP))

	ldr         x8,[sp,#0x18]
	ldrh        w8,[x8]
	mov         w8,w8
	tbz         x8,#0xB,|$LN21@DeodhaiBro|

; 1452 : 			handleType = HANDLE_TYPE_POPUP_WINDOW;

	mov         w8,#2
	strb        w8,[sp]
|$LN21@DeodhaiBro|

; 1453 : 
; 1454 : 		DeodhaiSendMouseEvent(handle, mouseWin->ownerId, handleType, DEODHAI_REPLY_TOUCH_EVENT, t_x, t_y, 0x1);

	ldr         x8,[sp,#0x18]
	add         x8,x8,#2
	ldrh        w1,[x8]
	mov         w1,w1
	mov         w6,#1
	ldr         w5,[sp,#4]
	ldr         w4,[sp,#8]
	mov         w3,#0x9E
	ldrb        w2,[sp]
	mov         w1,w1
	ldr         w0,[sp,#0x40]
	bl          |?DeodhaiSendMouseEvent@@YAXHHEEHHH@Z|
|$LN20@DeodhaiBro|
	add         sp,sp,#0x50
	ldr         lr,[sp],#0x10
	ret

	ENDP  ; |?DeodhaiBroadcastTouch@@YAXHH@Z|, DeodhaiBroadcastTouch

; Function compile flags: /Odtpy
; File C:\Users\paras\source\repos\grep-name\XenevaOS\Process\Deodhai\deomain.cpp

	AREA	|.text$mn|, CODE, ARM64

|?DeodhaiBroadcastMouse@@YAXHHH@Z| PROC			; DeodhaiBroadcastMouse

; 1285 : void DeodhaiBroadcastMouse(int mouse_x, int mouse_y, int button) {

|$LN29|
	str         lr,[sp,#-0x10]!
	sub         sp,sp,#0x60
	str         w0,[sp,#8]
	str         w1,[sp,#4]
	str         w2,[sp,#0x20]

; 1286 : 	Window* mouseWin = NULL;

	mov         x8,#0
	str         x8,[sp,#0x10]

; 1287 : 	bool cursorRestore;
; 1288 : 
; 1289 : 	if (focusedWin) {

	adrp        x8,|?focusedWin@@3PEAU_win_@@EA|
	ldr         x8,[x8,PageOffset(|?focusedWin@@3PEAU_win_@@EA|)]
	cmp         x8,#0
	beq         |$LN8@DeodhaiBro|

; 1290 : 		WinSharedInfo* info = (WinSharedInfo*)focusedWin->sharedInfo;

	adrp        x8,|?focusedWin@@3PEAU_win_@@EA|
	ldr         x8,[x8,PageOffset(|?focusedWin@@3PEAU_win_@@EA|)]
	add         x8,x8,#0x10
	ldr         x8,[x8]
	str         x8,[sp,#0x28]

; 1291 : 		if (!info->hide){

	ldr         x9,[sp,#0x28]
	mov         x8,#0x1019
	add         x8,x9,x8
	ldrsb       w8,[x8]
	mov         w8,w8
	cmp         w8,#0
	bne         |$LN9@DeodhaiBro|

; 1292 : 			if (mouse_x >= info->x && (mouse_x < (info->x + info->width)) &&
; 1293 : 				mouse_y >= info->y && (mouse_y < (info->y + info->height))){

	ldr         x9,[sp,#0x28]
	mov         x8,#0x1008
	add         x8,x9,x8
	ldr         w9,[x8]
	ldr         w8,[sp,#8]
	cmp         w8,w9
	blt         |$LN10@DeodhaiBro|
	ldr         x9,[sp,#0x28]
	mov         x8,#0x1008
	add         x10,x9,x8
	ldr         x9,[sp,#0x28]
	mov         x8,#0x1010
	add         x8,x9,x8
	ldr         w9,[x10]
	ldr         w8,[x8]
	add         w9,w9,w8
	ldr         w8,[sp,#8]
	cmp         w8,w9
	bge         |$LN10@DeodhaiBro|
	ldr         x9,[sp,#0x28]
	mov         x8,#0x100C
	add         x8,x9,x8
	ldr         w9,[x8]
	ldr         w8,[sp,#4]
	cmp         w8,w9
	blt         |$LN10@DeodhaiBro|
	ldr         x9,[sp,#0x28]
	mov         x8,#0x100C
	add         x10,x9,x8
	ldr         x9,[sp,#0x28]
	mov         x8,#0x1014
	add         x8,x9,x8
	ldr         w9,[x10]
	ldr         w8,[x8]
	add         w9,w9,w8
	ldr         w8,[sp,#4]
	cmp         w8,w9
	bge         |$LN10@DeodhaiBro|

; 1294 : 				mouseWin = focusedWin;

	adrp        x8,|?focusedWin@@3PEAU_win_@@EA|
	ldr         x8,[x8,PageOffset(|?focusedWin@@3PEAU_win_@@EA|)]
	str         x8,[sp,#0x10]

; 1295 : 				/* skip others */
; 1296 : 				goto broadcast;

	b           |$LN11@DeodhaiBro|
	b           |$broadcast$30|
|$LN10@DeodhaiBro|
|$LN9@DeodhaiBro|
|$LN8@DeodhaiBro|

; 1297 : 			}
; 1298 : 		}
; 1299 : 	}
; 1300 : 	if (!mouseWin) {

	ldr         x8,[sp,#0x10]
	cmp         x8,#0
	bne         |$LN12@DeodhaiBro|

; 1301 : 		/* check for normal windows */
; 1302 : 		for (Window* win = rootWin; win != NULL; win = win->next){

	adrp        x8,|?rootWin@@3PEAU_win_@@EA|
	ldr         x8,[x8,PageOffset(|?rootWin@@3PEAU_win_@@EA|)]
	str         x8,[sp,#0x18]
	b           |$LN4@DeodhaiBro|
|$LN2@DeodhaiBro|
	ldr         x8,[sp,#0x18]
	add         x8,x8,#0x68
	ldr         x8,[x8]
	str         x8,[sp,#0x18]
|$LN4@DeodhaiBro|
	ldr         x8,[sp,#0x18]
	cmp         x8,#0
	beq         |$LN3@DeodhaiBro|

; 1303 : 			WinSharedInfo* info = (WinSharedInfo*)win->sharedInfo;

	ldr         x8,[sp,#0x18]
	add         x8,x8,#0x10
	ldr         x8,[x8]
	str         x8,[sp,#0x30]

; 1304 : 			if (info->hide)

	ldr         x9,[sp,#0x30]
	mov         x8,#0x1019
	add         x8,x9,x8
	ldrsb       w8,[x8]
	mov         w8,w8
	cmp         w8,#0
	beq         |$LN13@DeodhaiBro|

; 1305 : 				continue;

	b           |$LN2@DeodhaiBro|
|$LN13@DeodhaiBro|

; 1306 : 			if (mouse_x >= info->x && (mouse_x < (info->x + info->width)) &&
; 1307 : 				mouse_y >= info->y && (mouse_y < (info->y + info->height))) {

	ldr         x9,[sp,#0x30]
	mov         x8,#0x1008
	add         x8,x9,x8
	ldr         w9,[x8]
	ldr         w8,[sp,#8]
	cmp         w8,w9
	blt         |$LN14@DeodhaiBro|
	ldr         x9,[sp,#0x30]
	mov         x8,#0x1008
	add         x10,x9,x8
	ldr         x9,[sp,#0x30]
	mov         x8,#0x1010
	add         x8,x9,x8
	ldr         w9,[x10]
	ldr         w8,[x8]
	add         w9,w9,w8
	ldr         w8,[sp,#8]
	cmp         w8,w9
	bge         |$LN14@DeodhaiBro|
	ldr         x9,[sp,#0x30]
	mov         x8,#0x100C
	add         x8,x9,x8
	ldr         w9,[x8]
	ldr         w8,[sp,#4]
	cmp         w8,w9
	blt         |$LN14@DeodhaiBro|
	ldr         x9,[sp,#0x30]
	mov         x8,#0x100C
	add         x10,x9,x8
	ldr         x9,[sp,#0x30]
	mov         x8,#0x1014
	add         x8,x9,x8
	ldr         w9,[x10]
	ldr         w8,[x8]
	add         w9,w9,w8
	ldr         w8,[sp,#4]
	cmp         w8,w9
	bge         |$LN14@DeodhaiBro|

; 1308 : 
; 1309 : 				if (DeodhaiCheckWindowPointOcclusion(win, mouse_x, mouse_y))

	ldr         w2,[sp,#4]
	ldr         w1,[sp,#8]
	ldr         x0,[sp,#0x18]
	bl          |?DeodhaiCheckWindowPointOcclusion@@YADPEAU_win_@@HH@Z|
	sxtb        w8,w0
	mov         w8,w8
	cmp         w8,#0
	beq         |$LN15@DeodhaiBro|

; 1310 : 					continue;

	b           |$LN2@DeodhaiBro|
|$LN15@DeodhaiBro|

; 1311 : 				if (win->flags & WINDOW_FLAG_BLOCKED)

	ldr         x8,[sp,#0x18]
	ldrh        w8,[x8]
	mov         w8,w8
	tbz         x8,#6,|$LN16@DeodhaiBro|

; 1312 : 					continue;

	b           |$LN2@DeodhaiBro|
|$LN16@DeodhaiBro|

; 1313 : 
; 1314 : 				/* PHILOSOPHY: if mouse event was sent to unfocused window
; 1315 : 				 * and if the mouse points goes to some kind of widget or object
; 1316 : 				 * it will be an hover message, if mouse left button was clicked
; 1317 : 				 * within than hovered object of unfocused window, make that
; 1318 : 				 * window focused and bring it to front and update all window
; 1319 : 				 * and shadow effects
; 1320 : 				 */
; 1321 : 				if (focusedWin != win && button){

	ldr         x9,[sp,#0x18]
	adrp        x8,|?focusedWin@@3PEAU_win_@@EA|
	ldr         x8,[x8,PageOffset(|?focusedWin@@3PEAU_win_@@EA|)]
	cmp         x8,x9
	beq         |$LN17@DeodhaiBro|
	ldr         w8,[sp,#0x20]
	cmp         w8,#0
	beq         |$LN17@DeodhaiBro|

; 1322 : 					DeodhaiWindowSetFocused(win, 1);

	mov         w1,#1
	ldr         x0,[sp,#0x18]
	bl          |?DeodhaiWindowSetFocused@@YAXPEAU_win_@@D@Z|

; 1323 : 					_window_update_all_ = true;

	adrp        x9,|?_window_update_all_@@3DA|
	mov         w8,#1
	strb        w8,[x9,PageOffset(|?_window_update_all_@@3DA|)]

; 1324 : 					_shadow_update = true;

	adrp        x9,|?_shadow_update@@3DA|
	mov         w8,#1
	strb        w8,[x9,PageOffset(|?_shadow_update@@3DA|)]
|$LN17@DeodhaiBro|

; 1325 : 				}
; 1326 : 				mouseWin = win;

	ldr         x8,[sp,#0x18]
	str         x8,[sp,#0x10]

; 1327 : 				break;

	b           |$LN3@DeodhaiBro|
|$LN14@DeodhaiBro|

; 1328 : 			}
; 1329 : 		}

	b           |$LN2@DeodhaiBro|
|$LN3@DeodhaiBro|

; 1330 : 
; 1331 : 
; 1332 : 		/* check for always on top windows */
; 1333 : 		for (Window* win = alwaysOnTop; win != NULL; win = win->next){

	adrp        x8,|?alwaysOnTop@@3PEAU_win_@@EA|
	ldr         x8,[x8,PageOffset(|?alwaysOnTop@@3PEAU_win_@@EA|)]
	str         x8,[sp,#0x48]
	b           |$LN7@DeodhaiBro|
|$LN5@DeodhaiBro|
	ldr         x8,[sp,#0x48]
	add         x8,x8,#0x68
	ldr         x8,[x8]
	str         x8,[sp,#0x48]
|$LN7@DeodhaiBro|
	ldr         x8,[sp,#0x48]
	cmp         x8,#0
	beq         |$LN6@DeodhaiBro|

; 1334 : 			WinSharedInfo* info = (WinSharedInfo*)win->sharedInfo;

	ldr         x8,[sp,#0x48]
	add         x8,x8,#0x10
	ldr         x8,[x8]
	str         x8,[sp,#0x38]

; 1335 : 			if (info->hide)

	ldr         x9,[sp,#0x38]
	mov         x8,#0x1019
	add         x8,x9,x8
	ldrsb       w8,[x8]
	mov         w8,w8
	cmp         w8,#0
	beq         |$LN18@DeodhaiBro|

; 1336 : 				continue;

	b           |$LN5@DeodhaiBro|
|$LN18@DeodhaiBro|

; 1337 : 			if (mouse_x >= info->x && (mouse_x < (info->x + info->width)) &&
; 1338 : 				mouse_y >= info->y && (mouse_y < (info->y + info->height))) {

	ldr         x9,[sp,#0x38]
	mov         x8,#0x1008
	add         x8,x9,x8
	ldr         w9,[x8]
	ldr         w8,[sp,#8]
	cmp         w8,w9
	blt         |$LN19@DeodhaiBro|
	ldr         x9,[sp,#0x38]
	mov         x8,#0x1008
	add         x10,x9,x8
	ldr         x9,[sp,#0x38]
	mov         x8,#0x1010
	add         x8,x9,x8
	ldr         w9,[x10]
	ldr         w8,[x8]
	add         w9,w9,w8
	ldr         w8,[sp,#8]
	cmp         w8,w9
	bge         |$LN19@DeodhaiBro|
	ldr         x9,[sp,#0x38]
	mov         x8,#0x100C
	add         x8,x9,x8
	ldr         w9,[x8]
	ldr         w8,[sp,#4]
	cmp         w8,w9
	blt         |$LN19@DeodhaiBro|
	ldr         x9,[sp,#0x38]
	mov         x8,#0x100C
	add         x10,x9,x8
	ldr         x9,[sp,#0x38]
	mov         x8,#0x1014
	add         x8,x9,x8
	ldr         w9,[x10]
	ldr         w8,[x8]
	add         w9,w9,w8
	ldr         w8,[sp,#4]
	cmp         w8,w9
	bge         |$LN19@DeodhaiBro|

; 1339 : 				mouseWin = win;

	ldr         x8,[sp,#0x48]
	str         x8,[sp,#0x10]

; 1340 : 				break;

	b           |$LN6@DeodhaiBro|
|$LN19@DeodhaiBro|

; 1341 : 			}
; 1342 : 		}

	b           |$LN5@DeodhaiBro|
|$LN6@DeodhaiBro|
|$LN12@DeodhaiBro|
|$LN11@DeodhaiBro|
|$broadcast$30|

; 1343 : 	}
; 1344 : 
; 1345 : broadcast:
; 1346 : 	if (mouseWin){

	ldr         x8,[sp,#0x10]
	cmp         x8,#0
	beq         |$LN20@DeodhaiBro|

; 1347 : 		WinSharedInfo* info = (WinSharedInfo*)mouseWin->sharedInfo;

	ldr         x8,[sp,#0x10]
	add         x8,x8,#0x10
	ldr         x8,[x8]
	str         x8,[sp,#0x58]

; 1348 : 		DeodhaiResizeCursorUpdate(mouse_x, mouse_y, info);

	ldr         x2,[sp,#0x58]
	ldr         w1,[sp,#4]
	ldr         w0,[sp,#8]
	bl          |?DeodhaiResizeCursorUpdate@@YAXHHPEAU_win_info_@@@Z|

; 1349 : 
; 1350 : 		int handle = mouseWin->handle;

	ldr         x8,[sp,#0x10]
	add         x8,x8,#0x24
	ldr         w8,[x8]
	str         w8,[sp,#0x50]

; 1351 : 		uint8_t handleType = HANDLE_TYPE_NORMAL_WINDOW;

	mov         w8,#1
	strb        w8,[sp]

; 1352 : 		if ((mouseWin->flags & WINDOW_FLAG_POPUP))

	ldr         x8,[sp,#0x10]
	ldrh        w8,[x8]
	mov         w8,w8
	tbz         x8,#0xB,|$LN21@DeodhaiBro|

; 1353 : 			handleType = HANDLE_TYPE_POPUP_WINDOW;

	mov         w8,#2
	strb        w8,[sp]
|$LN21@DeodhaiBro|

; 1354 : 
; 1355 : 		/* handle mouse last window hover */
; 1356 : 		if (mouseLastHovered) {

	adrp        x8,|?mouseLastHovered@@3PEAU_win_@@EA|
	ldr         x8,[x8,PageOffset(|?mouseLastHovered@@3PEAU_win_@@EA|)]
	cmp         x8,#0
	beq         |$LN22@DeodhaiBro|

; 1357 : 			if (mouseLastHovered != mouseWin) {

	ldr         x9,[sp,#0x10]
	adrp        x8,|?mouseLastHovered@@3PEAU_win_@@EA|
	ldr         x8,[x8,PageOffset(|?mouseLastHovered@@3PEAU_win_@@EA|)]
	cmp         x8,x9
	beq         |$LN23@DeodhaiBro|

; 1358 : 				int lastWinHandleType = HANDLE_TYPE_NORMAL_WINDOW;

	mov         w8,#1
	str         w8,[sp,#0x40]

; 1359 : 				if ((mouseLastHovered->flags & WINDOW_FLAG_POPUP))

	adrp        x8,|?mouseLastHovered@@3PEAU_win_@@EA|
	ldr         x8,[x8,PageOffset(|?mouseLastHovered@@3PEAU_win_@@EA|)]
	ldrh        w8,[x8]
	mov         w8,w8
	tbz         x8,#0xB,|$LN24@DeodhaiBro|

; 1360 : 					lastWinHandleType = HANDLE_TYPE_POPUP_WINDOW;

	mov         w8,#2
	str         w8,[sp,#0x40]
|$LN24@DeodhaiBro|

; 1361 : 				DeodhaiSendMouseEvent(mouseLastHovered->handle, mouseLastHovered->ownerId, lastWinHandleType,

	ldr         w8,[sp,#0x40]
	uxtb        w2,w8
	adrp        x8,|?mouseLastHovered@@3PEAU_win_@@EA|
	ldr         x8,[x8,PageOffset(|?mouseLastHovered@@3PEAU_win_@@EA|)]
	add         x8,x8,#2
	ldrh        w1,[x8]
	mov         w1,w1
	adrp        x8,|?mouseLastHovered@@3PEAU_win_@@EA|
	ldr         x8,[x8,PageOffset(|?mouseLastHovered@@3PEAU_win_@@EA|)]
	add         x8,x8,#0x24
	ldr         w6,[sp,#0x20]
	ldr         w5,[sp,#4]
	ldr         w4,[sp,#8]
	mov         w3,#0x9D
	mov         w2,w2
	mov         w1,w1
	ldr         w0,[x8]
	bl          |?DeodhaiSendMouseEvent@@YAXHHEEHHH@Z|
|$LN23@DeodhaiBro|
|$LN22@DeodhaiBro|

; 1362 : 					DEODHAI_REPLY_MOUSE_LEAVE, mouse_x, mouse_y, button);
; 1363 : 			//	_KeProcessSleep(100);
; 1364 : 			}
; 1365 : 		}
; 1366 : 
; 1367 : 		mouseLastHovered = mouseWin;

	adrp        x9,|?mouseLastHovered@@3PEAU_win_@@EA|
	ldr         x8,[sp,#0x10]
	str         x8,[x9,PageOffset(|?mouseLastHovered@@3PEAU_win_@@EA|)]

; 1368 : 		DeodhaiSendMouseEvent(handle,mouseWin->ownerId, handleType,DEODHAI_REPLY_MOUSE_EVENT,mouse_x, mouse_y, button);

	ldr         x8,[sp,#0x10]
	add         x8,x8,#2
	ldrh        w1,[x8]
	mov         w1,w1
	ldr         w6,[sp,#0x20]
	ldr         w5,[sp,#4]
	ldr         w4,[sp,#8]
	mov         w3,#0x97
	ldrb        w2,[sp]
	mov         w1,w1
	ldr         w0,[sp,#0x50]
	bl          |?DeodhaiSendMouseEvent@@YAXHHEEHHH@Z|
|$LN20@DeodhaiBro|

; 1369 : 	}
; 1370 : 
; 1371 : 	if (!mouseWin) {

	ldr         x8,[sp,#0x10]
	cmp         x8,#0
	bne         |$LN25@DeodhaiBro|

; 1372 : 		if (currentCursor->type == CURSOR_TYPE_RESIZE_RIGHTLEFT ||

	adrp        x8,|?currentCursor@@3PEAU_cursor_@@EA|
	ldr         x8,[x8,PageOffset(|?currentCursor@@3PEAU_cursor_@@EA|)]
	ldrb        w8,[x8]
	mov         w8,w8
	cmp         w8,#6
	beq         |$LN27@DeodhaiBro|
	adrp        x8,|?currentCursor@@3PEAU_cursor_@@EA|
	ldr         x8,[x8,PageOffset(|?currentCursor@@3PEAU_cursor_@@EA|)]
	ldrb        w8,[x8]
	mov         w8,w8
	cmp         w8,#5
	bne         |$LN26@DeodhaiBro|
|$LN27@DeodhaiBro|

; 1373 : 			currentCursor->type == CURSOR_TYPE_RESIZE_UPDOWN)
; 1374 : 			ChangeCursor(arrow);

	adrp        x8,|?arrow@@3PEAU_cursor_@@EA|
	ldr         x0,[x8,PageOffset(|?arrow@@3PEAU_cursor_@@EA|)]
	bl          |?ChangeCursor@@YAXPEAU_cursor_@@@Z|
|$LN26@DeodhaiBro|
|$LN25@DeodhaiBro|
	add         sp,sp,#0x60
	ldr         lr,[sp],#0x10
	ret

	ENDP  ; |?DeodhaiBroadcastMouse@@YAXHHH@Z|, DeodhaiBroadcastMouse

; Function compile flags: /Odtpy
; File C:\Users\paras\source\repos\grep-name\XenevaOS\Process\Deodhai\deomain.cpp

	AREA	|.text$mn|, CODE, ARM64

|?DeodhaiResizeCursorUpdate@@YAXHHPEAU_win_info_@@@Z| PROC ; DeodhaiResizeCursorUpdate

; 1261 : void DeodhaiResizeCursorUpdate(int mouse_x, int mouse_y, WinSharedInfo* info) {

|$LN17|
	str         lr,[sp,#-0x10]!
	sub         sp,sp,#0x30
	str         w0,[sp,#8]
	str         w1,[sp,#0xC]
	str         x2,[sp,#0x10]

; 1262 : 	int left = info->x;

	ldr         x9,[sp,#0x10]
	mov         x8,#0x1008
	add         x8,x9,x8
	ldr         w8,[x8]
	str         w8,[sp,#0x18]

; 1263 : 	int right = info->x + info->width;

	ldr         x9,[sp,#0x10]
	mov         x8,#0x1008
	add         x10,x9,x8
	ldr         x9,[sp,#0x10]
	mov         x8,#0x1010
	add         x8,x9,x8
	ldr         w9,[x10]
	ldr         w8,[x8]
	add         w8,w9,w8
	str         w8,[sp,#0x1C]

; 1264 : 	int top = info->y;

	ldr         x9,[sp,#0x10]
	mov         x8,#0x100C
	add         x8,x9,x8
	ldr         w8,[x8]
	str         w8,[sp,#0x20]

; 1265 : 	int bottom = info->y + info->height;

	ldr         x9,[sp,#0x10]
	mov         x8,#0x100C
	add         x10,x9,x8
	ldr         x9,[sp,#0x10]
	mov         x8,#0x1014
	add         x8,x9,x8
	ldr         w9,[x10]
	ldr         w8,[x8]
	add         w8,w9,w8
	str         w8,[sp,#0x24]

; 1266 : 
; 1267 : 	bool onLeftEdge = (mouse_x >= left && mouse_x <= left + 5);

	ldr         w9,[sp,#0x18]
	ldr         w8,[sp,#8]
	cmp         w8,w9
	blt         |$LN9@DeodhaiRes|
	ldr         w8,[sp,#0x18]
	add         w9,w8,#5
	ldr         w8,[sp,#8]
	cmp         w8,w9
	bgt         |$LN9@DeodhaiRes|
	mov         w8,#1
	strb        w8,[sp]
	b           |$LN10@DeodhaiRes|
|$LN9@DeodhaiRes|
	mov         w8,#0
	strb        w8,[sp]
|$LN10@DeodhaiRes|
	ldrsb       w8,[sp]
	strb        w8,[sp,#4]

; 1268 : 	bool onRightEdge = (mouse_x <= right && mouse_x >= right - 12);

	ldr         w9,[sp,#0x1C]
	ldr         w8,[sp,#8]
	cmp         w8,w9
	bgt         |$LN11@DeodhaiRes|
	ldr         w8,[sp,#0x1C]
	sub         w9,w8,#0xC
	ldr         w8,[sp,#8]
	cmp         w8,w9
	blt         |$LN11@DeodhaiRes|
	mov         w8,#1
	strb        w8,[sp,#1]
	b           |$LN12@DeodhaiRes|
|$LN11@DeodhaiRes|
	mov         w8,#0
	strb        w8,[sp,#1]
|$LN12@DeodhaiRes|
	ldrsb       w8,[sp,#1]
	strb        w8,[sp,#5]

; 1269 : 	bool onTop = (mouse_y >= top && mouse_y <= top + 5);

	ldr         w9,[sp,#0x20]
	ldr         w8,[sp,#0xC]
	cmp         w8,w9
	blt         |$LN13@DeodhaiRes|
	ldr         w8,[sp,#0x20]
	add         w9,w8,#5
	ldr         w8,[sp,#0xC]
	cmp         w8,w9
	bgt         |$LN13@DeodhaiRes|
	mov         w8,#1
	strb        w8,[sp,#2]
	b           |$LN14@DeodhaiRes|
|$LN13@DeodhaiRes|
	mov         w8,#0
	strb        w8,[sp,#2]
|$LN14@DeodhaiRes|
	ldrsb       w8,[sp,#2]
	strb        w8,[sp,#6]

; 1270 : 	bool onBottom = (mouse_y <= bottom && mouse_y >= bottom - 12);

	ldr         w9,[sp,#0x24]
	ldr         w8,[sp,#0xC]
	cmp         w8,w9
	bgt         |$LN15@DeodhaiRes|
	ldr         w8,[sp,#0x24]
	sub         w9,w8,#0xC
	ldr         w8,[sp,#0xC]
	cmp         w8,w9
	blt         |$LN15@DeodhaiRes|
	mov         w8,#1
	strb        w8,[sp,#3]
	b           |$LN16@DeodhaiRes|
|$LN15@DeodhaiRes|
	mov         w8,#0
	strb        w8,[sp,#3]
|$LN16@DeodhaiRes|
	ldrsb       w8,[sp,#3]
	strb        w8,[sp,#7]

; 1271 : 
; 1272 : 	if (onLeftEdge || onRightEdge)

	ldrsb       w8,[sp,#4]
	mov         w8,w8
	cmp         w8,#0
	bne         |$LN4@DeodhaiRes|
	ldrsb       w8,[sp,#5]
	mov         w8,w8
	cmp         w8,#0
	beq         |$LN2@DeodhaiRes|
|$LN4@DeodhaiRes|

; 1273 : 		ChangeCursor(resizeLeftRight);

	adrp        x8,|?resizeLeftRight@@3PEAU_cursor_@@EA|
	ldr         x0,[x8,PageOffset(|?resizeLeftRight@@3PEAU_cursor_@@EA|)]
	bl          |?ChangeCursor@@YAXPEAU_cursor_@@@Z|
	b           |$LN3@DeodhaiRes|
|$LN2@DeodhaiRes|

; 1274 : 	else if (onTop || onBottom)

	ldrsb       w8,[sp,#6]
	mov         w8,w8
	cmp         w8,#0
	bne         |$LN7@DeodhaiRes|
	ldrsb       w8,[sp,#7]
	mov         w8,w8
	cmp         w8,#0
	beq         |$LN5@DeodhaiRes|
|$LN7@DeodhaiRes|

; 1275 : 		ChangeCursor(resizeUpDown);

	adrp        x8,|?resizeUpDown@@3PEAU_cursor_@@EA|
	ldr         x0,[x8,PageOffset(|?resizeUpDown@@3PEAU_cursor_@@EA|)]
	bl          |?ChangeCursor@@YAXPEAU_cursor_@@@Z|
	b           |$LN6@DeodhaiRes|
|$LN5@DeodhaiRes|

; 1276 : 	else
; 1277 : 		ChangeCursor(arrow);

	adrp        x8,|?arrow@@3PEAU_cursor_@@EA|
	ldr         x0,[x8,PageOffset(|?arrow@@3PEAU_cursor_@@EA|)]
	bl          |?ChangeCursor@@YAXPEAU_cursor_@@@Z|
|$LN6@DeodhaiRes|
|$LN3@DeodhaiRes|
	add         sp,sp,#0x30
	ldr         lr,[sp],#0x10
	ret

	ENDP  ; |?DeodhaiResizeCursorUpdate@@YAXHHPEAU_win_info_@@@Z|, DeodhaiResizeCursorUpdate

; Function compile flags: /Odtpy
; File C:\Users\paras\source\repos\grep-name\XenevaOS\Process\Deodhai\deomain.cpp

	AREA	|.text$mn|, CODE, ARM64

|?DeodhaiSendMouseEvent@@YAXHHEEHHH@Z| PROC		; DeodhaiSendMouseEvent

; 1244 : void DeodhaiSendMouseEvent(int handle,int ownerId,uint8_t handleType,uint8_t eventType, int x, int y, int button){

|$LN3|
	str         lr,[sp,#-0x10]!
	sub         sp,sp,#0xD0
	str         w0,[sp,#0x10]
	str         w1,[sp,#0x14]
	uxtb        w8,w2
	strb        w8,[sp,#1]
	uxtb        w8,w3
	strb        w8,[sp]
	str         w4,[sp,#4]
	str         w5,[sp,#8]
	str         w6,[sp,#0xC]

; 1245 : 	PostEvent e;
; 1246 : 	memset(&e, 0, sizeof(PostEvent));

	mov         x2,#0xB0
	mov         w1,#0
	add         x0,sp,#0x18
	bl          memset

; 1247 : 	e.type = eventType;

	ldrb        w8,[sp]
	strb        w8,[sp,#0x18]

; 1248 : 	e.dword = x;

	ldr         w8,[sp,#4]
	str         w8,[sp,#0x20]

; 1249 : 	e.dword2 = y;

	ldr         w8,[sp,#8]
	str         w8,[sp,#0x24]

; 1250 : 	e.dword3 = button;

	ldr         w8,[sp,#0xC]
	str         w8,[sp,#0x28]

; 1251 : 	e.dword4 = handle;

	ldr         w8,[sp,#0x10]
	str         w8,[sp,#0x2C]

; 1252 : 	e.dword5 = handleType;

	ldrb        w8,[sp,#1]
	mov         w8,w8
	str         w8,[sp,#0x30]

; 1253 : 	e.to_id = ownerId;

	ldr         w8,[sp,#0x14]
	uxth        w8,w8
	strh        w8,[sp,#0x1A]

; 1254 : 	e.from_id = POSTBOX_ROOT_ID;

	mov         w8,#1
	strh        w8,[sp,#0x1C]

; 1255 : 	_KeFileIoControl(postbox_fd, POSTBOX_PUT_EVENT, &e);

	add         x2,sp,#0x18
	mov         w1,#0x193
	adrp        x8,|?postbox_fd@@3HA|
	ldr         w0,[x8,PageOffset(|?postbox_fd@@3HA|)]
	bl          _KeFileIoControl
	add         sp,sp,#0xD0
	ldr         lr,[sp],#0x10
	ret

	ENDP  ; |?DeodhaiSendMouseEvent@@YAXHHEEHHH@Z|, DeodhaiSendMouseEvent

; Function compile flags: /Odtpy
; File C:\Users\paras\source\repos\grep-name\XenevaOS\Process\Deodhai\deomain.cpp

	AREA	|.text$mn|, CODE, ARM64

|?ComposeFrame@@YAXPEAU_ChCanvas_@@@Z| PROC		; ComposeFrame

; 590  : void ComposeFrame(ChCanvas *canvas) {

|$LN193|
	str         lr,[sp,#-0x10]!
	mov         x15,#0x1C0
	bl          __chkstk
	sub         sp,sp,x15,lsl #4
	str         x0,[sp,#8]

; 591  : 
; 592  : 	
; 593  : 	CursorDrawBack(canvas, currentCursor, currentCursor->oldXPos, currentCursor->oldYPos);

	adrp        x8,|?currentCursor@@3PEAU_cursor_@@EA|
	ldr         x8,[x8,PageOffset(|?currentCursor@@3PEAU_cursor_@@EA|)]
	add         x9,x8,#0x2C
	adrp        x8,|?currentCursor@@3PEAU_cursor_@@EA|
	ldr         x8,[x8,PageOffset(|?currentCursor@@3PEAU_cursor_@@EA|)]
	add         x8,x8,#0x28
	ldr         w3,[x9]
	ldr         w2,[x8]
	adrp        x8,|?currentCursor@@3PEAU_cursor_@@EA|
	ldr         x1,[x8,PageOffset(|?currentCursor@@3PEAU_cursor_@@EA|)]
	ldr         x0,[sp,#8]
	bl          |?CursorDrawBack@@YAXPEAU_ChCanvas_@@PEAU_cursor_@@II@Z|

; 594  : 	AddDirtyClip(currentCursor->oldXPos, currentCursor->oldYPos, 24, 24);

	adrp        x8,|?currentCursor@@3PEAU_cursor_@@EA|
	ldr         x8,[x8,PageOffset(|?currentCursor@@3PEAU_cursor_@@EA|)]
	add         x9,x8,#0x2C
	adrp        x8,|?currentCursor@@3PEAU_cursor_@@EA|
	ldr         x8,[x8,PageOffset(|?currentCursor@@3PEAU_cursor_@@EA|)]
	add         x8,x8,#0x28
	mov         w3,#0x18
	mov         w2,#0x18
	ldr         w1,[x9]
	ldr         w0,[x8]
	bl          |?AddDirtyClip@@YAXHHHH@Z|

; 595  : 	
; 596  : 	int _back_d_count_ = BackDirtyGetDirtyCount();

	bl          |?BackDirtyGetDirtyCount@@YAHXZ|
	mov         w0,w0
	str         w0,[sp,#0x18C]

; 597  : 
; 598  : 	/* here we redraw all dirty surface area*/
; 599  : 	if (_back_d_count_ > 0) {

	ldr         w8,[sp,#0x18C]
	cmp         w8,#0
	ble         |$LN98@ComposeFra|

; 600  : 		int x, y, w, h = 0;

	mov         w8,#0
	str         w8,[sp,#0x12C]

; 601  : 		for (int i = 0; i < _back_d_count_; i++) {

	mov         w8,#0
	str         w8,[sp,#0x114]
	b           |$LN4@ComposeFra|
|$LN2@ComposeFra|
	ldr         w8,[sp,#0x114]
	add         w8,w8,#1
	str         w8,[sp,#0x114]
|$LN4@ComposeFra|
	ldr         w9,[sp,#0x18C]
	ldr         w8,[sp,#0x114]
	cmp         w8,w9
	bge         |$LN3@ComposeFra|

; 602  : 			BackDirtyGetRect(&x, &y, &w, &h, i);

	ldr         w4,[sp,#0x114]
	add         x3,sp,#0x12C
	add         x2,sp,#0x188
	add         x1,sp,#0x184
	add         x0,sp,#0x180
	bl          |?BackDirtyGetRect@@YAXPEAH000H@Z|

; 603  : 			DeodhaiBackSurfaceUpdate(canvas, x, y, w, h);

	ldr         w4,[sp,#0x12C]
	ldr         w3,[sp,#0x188]
	ldr         w2,[sp,#0x184]
	ldr         w1,[sp,#0x180]
	ldr         x0,[sp,#8]
	bl          |?DeodhaiBackSurfaceUpdate@@YAXPEAU_ChCanvas_@@HHHH@Z|

; 604  : 			AddDirtyClip(x, y, w, h);

	ldr         w3,[sp,#0x12C]
	ldr         w2,[sp,#0x188]
	ldr         w1,[sp,#0x184]
	ldr         w0,[sp,#0x180]
	bl          |?AddDirtyClip@@YAXHHHH@Z|

; 605  : 		}

	b           |$LN2@ComposeFra|
|$LN3@ComposeFra|

; 606  : 		BackDirtyCountReset();

	bl          |?BackDirtyCountReset@@YAXXZ|
|$LN98@ComposeFra|

; 607  : 	}
; 608  : 
; 609  : 	for (Window* win = rootWin; win != NULL; win = win->next) {

	adrp        x8,|?rootWin@@3PEAU_win_@@EA|
	ldr         x8,[x8,PageOffset(|?rootWin@@3PEAU_win_@@EA|)]
	str         x8,[sp,#0x28]
	b           |$LN7@ComposeFra|
|$LN5@ComposeFra|
	ldr         x8,[sp,#0x28]
	add         x8,x8,#0x68
	ldr         x8,[x8]
	str         x8,[sp,#0x28]
|$LN7@ComposeFra|
	ldr         x8,[sp,#0x28]
	cmp         x8,#0
	beq         |$LN6@ComposeFra|

; 610  : 		WinSharedInfo* info = (WinSharedInfo*)win->sharedInfo;

	ldr         x8,[sp,#0x28]
	add         x8,x8,#0x10
	ldr         x8,[x8]
	str         x8,[sp]

; 611  : 
; 612  : 	
; 613  : 		if (info->hide) 

	ldr         x9,[sp]
	mov         x8,#0x1019
	add         x8,x9,x8
	ldrsb       w8,[x8]
	mov         w8,w8
	cmp         w8,#0
	beq         |$LN99@ComposeFra|

; 614  : 			continue;

	b           |$LN5@ComposeFra|
|$LN99@ComposeFra|

; 615  : 			
; 616  : 		/*
; 617  : 		 * Check for small area updates !! not entire window 
; 618  : 		 */
; 619  : 		if ((info->rect_count > 0) && (info->dirty)) {

	ldr         x8,[sp]
	add         x8,x8,#1,lsl #0xC
	ldr         w8,[x8]
	cmp         w8,#0
	bls         |$LN100@ComposeFra|
	ldr         x9,[sp]
	mov         x8,#0x1004
	add         x8,x9,x8
	ldrsb       w8,[x8]
	mov         w8,w8
	cmp         w8,#0
	beq         |$LN100@ComposeFra|

; 620  : 			for (int k = 0; k < info->rect_count; k++) {

	mov         w8,#0
	str         w8,[sp,#0x34]
	b           |$LN10@ComposeFra|
|$LN8@ComposeFra|
	ldr         w8,[sp,#0x34]
	add         w8,w8,#1
	str         w8,[sp,#0x34]
|$LN10@ComposeFra|
	ldr         x8,[sp]
	add         x8,x8,#1,lsl #0xC
	ldr         w9,[x8]
	ldr         w8,[sp,#0x34]
	cmp         w8,w9
	bhs         |$LN9@ComposeFra|

; 621  : 				int64_t r_x = info->rect[k].x;

	ldr         x10,[sp]
	ldr         w8,[sp,#0x34]
	sxtw        x9,w8
	mov         x8,#0x10
	mul         x8,x9,x8
	add         x8,x10,x8
	ldr         w8,[x8]
	sxtw        x8,w8
	str         x8,[sp,#0x80]

; 622  : 				int64_t r_y = info->rect[k].y;

	ldr         x10,[sp]
	ldr         w8,[sp,#0x34]
	sxtw        x9,w8
	mov         x8,#0x10
	mul         x8,x9,x8
	add         x8,x10,x8
	add         x8,x8,#4
	ldr         w8,[x8]
	sxtw        x8,w8
	str         x8,[sp,#0x78]

; 623  : 				int64_t r_w = info->rect[k].w;

	ldr         x10,[sp]
	ldr         w8,[sp,#0x34]
	sxtw        x9,w8
	mov         x8,#0x10
	mul         x8,x9,x8
	add         x8,x10,x8
	add         x8,x8,#8
	ldr         w8,[x8]
	sxtw        x8,w8
	str         x8,[sp,#0x140]

; 624  : 				int64_t r_h = info->rect[k].h;

	ldr         x10,[sp]
	ldr         w8,[sp,#0x34]
	sxtw        x9,w8
	mov         x8,#0x10
	mul         x8,x9,x8
	add         x8,x10,x8
	add         x8,x8,#0xC
	ldr         w8,[x8]
	sxtw        x8,w8
	str         x8,[sp,#0x138]

; 625  : 
; 626  : 				if (r_x < 0)

	ldr         x8,[sp,#0x80]
	cmp         x8,#0
	bge         |$LN101@ComposeFra|

; 627  : 					r_x = 0;

	mov         x8,#0
	str         x8,[sp,#0x80]
|$LN101@ComposeFra|

; 628  : 
; 629  : 				if (r_y < 0)

	ldr         x8,[sp,#0x78]
	cmp         x8,#0
	bge         |$LN102@ComposeFra|

; 630  : 					r_y = 0;

	mov         x8,#0
	str         x8,[sp,#0x78]
|$LN102@ComposeFra|

; 631  : 
; 632  : 				if ((info->x + r_x + r_w) >= canvas->canvasWidth)

	ldr         x9,[sp]
	mov         x8,#0x1008
	add         x8,x9,x8
	ldr         w8,[x8]
	sxtw        x9,w8
	ldr         x8,[sp,#0x80]
	add         x9,x9,x8
	ldr         x8,[sp,#0x140]
	add         x9,x9,x8
	ldr         x8,[sp,#8]
	add         x8,x8,#0x18
	ldr         w8,[x8]
	uxtw        x8,w8
	cmp         x9,x8
	blt         |$LN103@ComposeFra|

; 633  : 					r_w = canvas->canvasWidth - (info->x + r_x);

	ldr         x8,[sp,#8]
	add         x8,x8,#0x18
	ldr         w8,[x8]
	uxtw        x10,w8
	ldr         x9,[sp]
	mov         x8,#0x1008
	add         x8,x9,x8
	ldr         w8,[x8]
	sxtw        x9,w8
	ldr         x8,[sp,#0x80]
	add         x8,x9,x8
	sub         x8,x10,x8
	str         x8,[sp,#0x140]
|$LN103@ComposeFra|

; 634  : 
; 635  : 				if ((info->y + r_y + r_h) >= canvas->canvasHeight)

	ldr         x9,[sp]
	mov         x8,#0x100C
	add         x8,x9,x8
	ldr         w8,[x8]
	sxtw        x9,w8
	ldr         x8,[sp,#0x78]
	add         x9,x9,x8
	ldr         x8,[sp,#0x138]
	add         x9,x9,x8
	ldr         x8,[sp,#8]
	add         x8,x8,#0x1C
	ldr         w8,[x8]
	uxtw        x8,w8
	cmp         x9,x8
	blt         |$LN104@ComposeFra|

; 636  : 					r_h = canvas->canvasHeight - (info->y + r_y);

	ldr         x8,[sp,#8]
	add         x8,x8,#0x1C
	ldr         w8,[x8]
	uxtw        x10,w8
	ldr         x9,[sp]
	mov         x8,#0x100C
	add         x8,x9,x8
	ldr         w8,[x8]
	sxtw        x9,w8
	ldr         x8,[sp,#0x78]
	add         x8,x9,x8
	sub         x8,x10,x8
	str         x8,[sp,#0x138]
|$LN104@ComposeFra|

; 637  : 
; 638  : 				/* from here, we check if the small rectangle is
; 639  : 				 * covered by a window or another rectangle */
; 640  : 
; 641  : 				Rect r1;
; 642  : 				Rect r2;
; 643  : 				r1.x = info->x + r_x;

	ldr         x9,[sp]
	mov         x8,#0x1008
	add         x8,x9,x8
	ldr         w8,[x8]
	sxtw        x9,w8
	ldr         x8,[sp,#0x80]
	add         x8,x9,x8
	mov         w8,w8
	str         w8,[sp,#0x268]

; 644  : 				r1.y = info->y + r_y;

	ldr         x9,[sp]
	mov         x8,#0x100C
	add         x8,x9,x8
	ldr         w8,[x8]
	sxtw        x9,w8
	ldr         x8,[sp,#0x78]
	add         x8,x9,x8
	mov         w8,w8
	str         w8,[sp,#0x26C]

; 645  : 				r1.w = r_w;

	ldr         x8,[sp,#0x140]
	mov         w8,w8
	str         w8,[sp,#0x270]

; 646  : 				r1.h = r_h;

	ldr         x8,[sp,#0x138]
	mov         w8,w8
	str         w8,[sp,#0x274]

; 647  : 				bool overlap = false;

	mov         w8,#0
	strb        w8,[sp,#0x30]

; 648  : 				Rect clipRect[100];
; 649  : 				int clipCount = 0;

	mov         w8,#0
	str         w8,[sp,#0xD0]

; 650  : 				Window* clipWin = NULL;

	mov         x8,#0
	str         x8,[sp,#0xD8]

; 651  : 				WinSharedInfo* clipInfo = NULL;

	mov         x8,#0
	str         x8,[sp,#0xC0]

; 652  : 
; 653  : 				if (info->alpha) {

	ldr         x9,[sp]
	mov         x8,#0x1018
	add         x8,x9,x8
	ldrsb       w8,[x8]
	mov         w8,w8
	cmp         w8,#0
	beq         |$LN105@ComposeFra|

; 654  : 					for (int j = 0; j < r_h; j++) {

	mov         w8,#0
	str         w8,[sp,#0xA8]
	b           |$LN13@ComposeFra|
|$LN11@ComposeFra|
	ldr         w8,[sp,#0xA8]
	add         w8,w8,#1
	str         w8,[sp,#0xA8]
|$LN13@ComposeFra|
	ldr         w8,[sp,#0xA8]
	sxtw        x9,w8
	ldr         x8,[sp,#0x138]
	cmp         x9,x8
	bge         |$LN12@ComposeFra|

; 655  : 						for (int i = 0; i < r_w; i++) {

	mov         w8,#0
	str         w8,[sp,#0xAC]
	b           |$LN16@ComposeFra|
|$LN14@ComposeFra|
	ldr         w8,[sp,#0xAC]
	add         w8,w8,#1
	str         w8,[sp,#0xAC]
|$LN16@ComposeFra|
	ldr         w8,[sp,#0xAC]
	sxtw        x9,w8
	ldr         x8,[sp,#0x140]
	cmp         x9,x8
	bge         |$LN15@ComposeFra|

; 656  : 							*(uint32_t*)(canvas->buffer + (static_cast<int64_t>(info->y) + r_y + j) * canvas->canvasWidth +

	ldr         x9,[sp]
	mov         x8,#0x1020
	add         x12,x9,x8
	ldr         x8,[sp,#0x28]
	add         x11,x8,#8
	ldr         w8,[sp,#0xA8]
	sxtw        x9,w8
	ldr         x8,[sp,#0x78]
	add         x10,x8,x9
	ldr         x9,[sp]
	mov         x8,#0x1010
	add         x8,x9,x8
	ldr         w8,[x8]
	sxtw        x8,w8
	mul         x9,x10,x8
	mov         x8,#4
	mul         x9,x9,x8
	ldr         x8,[x11]
	add         x10,x8,x9
	ldr         w8,[sp,#0xAC]
	sxtw        x9,w8
	ldr         x8,[sp,#0x80]
	add         x9,x8,x9
	mov         x8,#4
	mul         x8,x9,x8
	add         x11,x10,x8
	ldr         x8,[sp,#8]
	add         x10,x8,#0x20
	ldr         x9,[sp]
	mov         x8,#0x100C
	add         x8,x9,x8
	ldr         w8,[x8]
	sxtw        x9,w8
	ldr         x8,[sp,#0x78]
	add         x9,x9,x8
	ldr         w8,[sp,#0xA8]
	sxtw        x8,w8
	add         x9,x9,x8
	ldr         x8,[sp,#8]
	add         x8,x8,#0x18
	ldr         w8,[x8]
	uxtw        x8,w8
	mul         x9,x9,x8
	mov         x8,#4
	mul         x9,x9,x8
	ldr         x8,[x10]
	add         x10,x8,x9
	ldr         x9,[sp]
	mov         x8,#0x1008
	add         x8,x9,x8
	ldr         w8,[x8]
	sxtw        x9,w8
	ldr         x8,[sp,#0x80]
	add         x9,x9,x8
	ldr         w8,[sp,#0xAC]
	sxtw        x8,w8
	add         x9,x9,x8
	mov         x8,#4
	mul         x8,x9,x8
	add         x8,x10,x8
	ldr         d0,[x12]
	ldr         w1,[x11]
	ldr         w0,[x8]
	bl          ChColorAlphaBlend
	mov         w0,w0
	ldr         x8,[sp,#8]
	add         x10,x8,#0x20
	ldr         x9,[sp]
	mov         x8,#0x100C
	add         x8,x9,x8
	ldr         w8,[x8]
	sxtw        x9,w8
	ldr         x8,[sp,#0x78]
	add         x9,x9,x8
	ldr         w8,[sp,#0xA8]
	sxtw        x8,w8
	add         x9,x9,x8
	ldr         x8,[sp,#8]
	add         x8,x8,#0x18
	ldr         w8,[x8]
	uxtw        x8,w8
	mul         x9,x9,x8
	mov         x8,#4
	mul         x9,x9,x8
	ldr         x8,[x10]
	add         x10,x8,x9
	ldr         x9,[sp]
	mov         x8,#0x1008
	add         x8,x9,x8
	ldr         w8,[x8]
	sxtw        x9,w8
	ldr         x8,[sp,#0x80]
	add         x9,x9,x8
	ldr         w8,[sp,#0xAC]
	sxtw        x8,w8
	add         x9,x9,x8
	mov         x8,#4
	mul         x8,x9,x8
	add         x8,x10,x8
	str         w0,[x8]

; 657  : 								(static_cast<int64_t>(info->x) + r_x + i)) =
; 658  : 								ChColorAlphaBlend(*(uint32_t*)(canvas->buffer +
; 659  : 									(static_cast<int64_t>(info->y) + r_y + j) * canvas->canvasWidth +
; 660  : 									(static_cast<int64_t>(info->x) + r_x + i)),
; 661  : 									*(uint32_t*)(win->backBuffer + (static_cast<int64_t>(r_y) + j) * info->width +
; 662  : 										(static_cast<int64_t>(r_x) + i)),info->alphaValue);
; 663  : 						}

	b           |$LN14@ComposeFra|
|$LN15@ComposeFra|

; 664  : 					}

	b           |$LN11@ComposeFra|
|$LN12@ComposeFra|

; 665  : 					AddDirtyClip(info->x + r_x, info->y + r_y, r_w, r_h);

	ldr         x8,[sp,#0x138]
	mov         w3,w8
	ldr         x8,[sp,#0x140]
	mov         w2,w8
	ldr         x9,[sp]
	mov         x8,#0x100C
	add         x8,x9,x8
	ldr         w8,[x8]
	sxtw        x9,w8
	ldr         x8,[sp,#0x78]
	add         x8,x9,x8
	mov         w1,w8
	ldr         x9,[sp]
	mov         x8,#0x1008
	add         x8,x9,x8
	ldr         w8,[x8]
	sxtw        x9,w8
	ldr         x8,[sp,#0x80]
	add         x8,x9,x8
	mov         w0,w8
	mov         w3,w3
	mov         w2,w2
	mov         w1,w1
	mov         w0,w0
	bl          |?AddDirtyClip@@YAXHHHH@Z|

; 666  : 				}

	b           |$LN106@ComposeFra|
|$LN105@ComposeFra|

; 667  : 				else {
; 668  : 					if (focusedWin != win) {

	ldr         x9,[sp,#0x28]
	adrp        x8,|?focusedWin@@3PEAU_win_@@EA|
	ldr         x8,[x8,PageOffset(|?focusedWin@@3PEAU_win_@@EA|)]
	cmp         x8,x9
	beq         |$LN107@ComposeFra|

; 669  : 
; 670  : 						/* first check for normal windows */
; 671  : 						for (clipWin = win; clipWin != NULL; clipWin = clipWin->next) {

	ldr         x8,[sp,#0x28]
	str         x8,[sp,#0xD8]
	b           |$LN19@ComposeFra|
|$LN17@ComposeFra|
	ldr         x8,[sp,#0xD8]
	add         x8,x8,#0x68
	ldr         x8,[x8]
	str         x8,[sp,#0xD8]
|$LN19@ComposeFra|
	ldr         x8,[sp,#0xD8]
	cmp         x8,#0
	beq         |$LN18@ComposeFra|

; 672  : 							clipInfo = (WinSharedInfo*)clipWin->sharedInfo;

	ldr         x8,[sp,#0xD8]
	add         x8,x8,#0x10
	ldr         x8,[x8]
	str         x8,[sp,#0xC0]

; 673  : 							if (clipWin == win)

	ldr         x9,[sp,#0x28]
	ldr         x8,[sp,#0xD8]
	cmp         x8,x9
	bne         |$LN108@ComposeFra|

; 674  : 								continue;

	b           |$LN17@ComposeFra|
|$LN108@ComposeFra|

; 675  : 							r2.x = clipInfo->x;

	ldr         x9,[sp,#0xC0]
	mov         x8,#0x1008
	add         x8,x9,x8
	ldr         w8,[x8]
	str         w8,[sp,#0x1C0]

; 676  : 							r2.y = clipInfo->y;

	ldr         x9,[sp,#0xC0]
	mov         x8,#0x100C
	add         x8,x9,x8
	ldr         w8,[x8]
	str         w8,[sp,#0x1C4]

; 677  : 							r2.w = clipInfo->width;

	ldr         x9,[sp,#0xC0]
	mov         x8,#0x1010
	add         x8,x9,x8
	ldr         w8,[x8]
	str         w8,[sp,#0x1C8]

; 678  : 							r2.h = clipInfo->height;

	ldr         x9,[sp,#0xC0]
	mov         x8,#0x1014
	add         x8,x9,x8
	ldr         w8,[x8]
	str         w8,[sp,#0x1CC]

; 679  : 
; 680  : 							if (ClipCheckIntersect(&r1, &r2)) {

	add         x1,sp,#0x1C0
	add         x0,sp,#0x268
	bl          |?ClipCheckIntersect@@YADPEAU_rect_@@0@Z|
	sxtb        w8,w0
	mov         w8,w8
	cmp         w8,#0
	beq         |$LN109@ComposeFra|

; 681  : 								overlap = true;

	mov         w8,#1
	strb        w8,[sp,#0x30]

; 682  : 								ClipCalculateRect(&r1, &r2, clipRect, &clipCount);

	add         x3,sp,#0xD0
	add         x2,sp,#0x2F8
	add         x1,sp,#0x1C0
	add         x0,sp,#0x268
	bl          |?ClipCalculateRect@@YAXPEAU_rect_@@00PEAH@Z|
|$LN109@ComposeFra|

; 683  : 							}
; 684  : 
; 685  : 						}

	b           |$LN17@ComposeFra|
|$LN18@ComposeFra|

; 686  : 
; 687  : 						///* check for always on top windows */
; 688  : 						for (clipWin = alwaysOnTop; clipWin != NULL; clipWin = clipWin->next) {

	adrp        x8,|?alwaysOnTop@@3PEAU_win_@@EA|
	ldr         x8,[x8,PageOffset(|?alwaysOnTop@@3PEAU_win_@@EA|)]
	str         x8,[sp,#0xD8]
	b           |$LN22@ComposeFra|
|$LN20@ComposeFra|
	ldr         x8,[sp,#0xD8]
	add         x8,x8,#0x68
	ldr         x8,[x8]
	str         x8,[sp,#0xD8]
|$LN22@ComposeFra|
	ldr         x8,[sp,#0xD8]
	cmp         x8,#0
	beq         |$LN21@ComposeFra|

; 689  : 							clipInfo = (WinSharedInfo*)clipWin->sharedInfo;

	ldr         x8,[sp,#0xD8]
	add         x8,x8,#0x10
	ldr         x8,[x8]
	str         x8,[sp,#0xC0]

; 690  : 							if (clipInfo->hide)

	ldr         x9,[sp,#0xC0]
	mov         x8,#0x1019
	add         x8,x9,x8
	ldrsb       w8,[x8]
	mov         w8,w8
	cmp         w8,#0
	beq         |$LN110@ComposeFra|

; 691  : 								continue;

	b           |$LN20@ComposeFra|
|$LN110@ComposeFra|

; 692  : 							r2.x = clipInfo->x;

	ldr         x9,[sp,#0xC0]
	mov         x8,#0x1008
	add         x8,x9,x8
	ldr         w8,[x8]
	str         w8,[sp,#0x1C0]

; 693  : 							r2.y = clipInfo->y;

	ldr         x9,[sp,#0xC0]
	mov         x8,#0x100C
	add         x8,x9,x8
	ldr         w8,[x8]
	str         w8,[sp,#0x1C4]

; 694  : 							r2.w = clipInfo->width;

	ldr         x9,[sp,#0xC0]
	mov         x8,#0x1010
	add         x8,x9,x8
	ldr         w8,[x8]
	str         w8,[sp,#0x1C8]

; 695  : 							r2.h = clipInfo->height;

	ldr         x9,[sp,#0xC0]
	mov         x8,#0x1014
	add         x8,x9,x8
	ldr         w8,[x8]
	str         w8,[sp,#0x1CC]

; 696  : 
; 697  : 							if (ClipCheckIntersect(&r1, &r2)) {

	add         x1,sp,#0x1C0
	add         x0,sp,#0x268
	bl          |?ClipCheckIntersect@@YADPEAU_rect_@@0@Z|
	sxtb        w8,w0
	mov         w8,w8
	cmp         w8,#0
	beq         |$LN111@ComposeFra|

; 698  : 								clipInfo->updateEntireWindow = 1;

	ldr         x9,[sp,#0xC0]
	mov         x8,#0x1005
	add         x9,x9,x8
	mov         w8,#1
	strb        w8,[x9]
|$LN111@ComposeFra|

; 699  : 							}
; 700  : 						}

	b           |$LN20@ComposeFra|
|$LN21@ComposeFra|

; 701  : 
; 702  : 						for (Window* cutt = win; cutt != NULL; cutt = cutt->next) {

	ldr         x8,[sp,#0x28]
	str         x8,[sp,#0x190]
	b           |$LN25@ComposeFra|
|$LN23@ComposeFra|
	ldr         x8,[sp,#0x190]
	add         x8,x8,#0x68
	ldr         x8,[x8]
	str         x8,[sp,#0x190]
|$LN25@ComposeFra|
	ldr         x8,[sp,#0x190]
	cmp         x8,#0
	beq         |$LN24@ComposeFra|

; 703  : 							WinSharedInfo* cuttinfo = (WinSharedInfo*)cutt->sharedInfo;

	ldr         x8,[sp,#0x190]
	add         x8,x8,#0x10
	ldr         x8,[x8]
	str         x8,[sp,#0x200]

; 704  : 							if (cutt == win)

	ldr         x9,[sp,#0x28]
	ldr         x8,[sp,#0x190]
	cmp         x8,x9
	bne         |$LN112@ComposeFra|

; 705  : 								continue;

	b           |$LN23@ComposeFra|
|$LN112@ComposeFra|

; 706  : 							Rect cuttingr;
; 707  : 							cuttingr.x = cuttinfo->x;

	ldr         x9,[sp,#0x200]
	mov         x8,#0x1008
	add         x8,x9,x8
	ldr         w8,[x8]
	str         w8,[sp,#0x1D0]

; 708  : 							cuttingr.y = cuttinfo->y;

	ldr         x9,[sp,#0x200]
	mov         x8,#0x100C
	add         x8,x9,x8
	ldr         w8,[x8]
	str         w8,[sp,#0x1D4]

; 709  : 							cuttingr.w = cuttinfo->width;

	ldr         x9,[sp,#0x200]
	mov         x8,#0x1010
	add         x8,x9,x8
	ldr         w8,[x8]
	str         w8,[sp,#0x1D8]

; 710  : 							cuttingr.h = cuttinfo->height;

	ldr         x9,[sp,#0x200]
	mov         x8,#0x1014
	add         x8,x9,x8
	ldr         w8,[x8]
	str         w8,[sp,#0x1DC]

; 711  : 							for (int m = 0; m < clipCount; m++) {

	mov         w8,#0
	str         w8,[sp,#0x38]
	b           |$LN28@ComposeFra|
|$LN26@ComposeFra|
	ldr         w8,[sp,#0x38]
	add         w8,w8,#1
	str         w8,[sp,#0x38]
|$LN28@ComposeFra|
	ldr         w9,[sp,#0xD0]
	ldr         w8,[sp,#0x38]
	cmp         w8,w9
	bge         |$LN27@ComposeFra|

; 712  : 								Rect cu;
; 713  : 								cu.x = clipRect[m].x;

	ldr         w8,[sp,#0x38]
	sxtw        x9,w8
	mov         x8,#0x10
	mul         x9,x9,x8
	add         x8,sp,#0x2F8
	add         x8,x8,x9
	ldr         w8,[x8]
	str         w8,[sp,#0x1E0]

; 714  : 								cu.y = clipRect[m].y;

	ldr         w8,[sp,#0x38]
	sxtw        x9,w8
	mov         x8,#0x10
	mul         x9,x9,x8
	add         x8,sp,#0x2F8
	add         x8,x8,x9
	add         x8,x8,#4
	ldr         w8,[x8]
	str         w8,[sp,#0x1E4]

; 715  : 								cu.w = clipRect[m].w;

	ldr         w8,[sp,#0x38]
	sxtw        x9,w8
	mov         x8,#0x10
	mul         x9,x9,x8
	add         x8,sp,#0x2F8
	add         x8,x8,x9
	add         x8,x8,#8
	ldr         w8,[x8]
	str         w8,[sp,#0x1E8]

; 716  : 								cu.h = clipRect[m].h;

	ldr         w8,[sp,#0x38]
	sxtw        x9,w8
	mov         x8,#0x10
	mul         x9,x9,x8
	add         x8,sp,#0x2F8
	add         x8,x8,x9
	add         x8,x8,#0xC
	ldr         w8,[x8]
	str         w8,[sp,#0x1EC]

; 717  : 								if (cuttingr.x <= (cu.x + cu.w - 1) &&
; 718  : 									(cuttingr.x + cuttingr.w - 1) >= cu.x &&
; 719  : 									cuttingr.y <= (cu.y + cu.h - 1) &&

	ldr         w9,[sp,#0x1E0]
	ldr         w8,[sp,#0x1E8]
	add         w8,w9,w8
	sub         w9,w8,#1
	ldr         w8,[sp,#0x1D0]
	cmp         w8,w9
	bgt         |$LN113@ComposeFra|
	ldr         w9,[sp,#0x1D0]
	ldr         w8,[sp,#0x1D8]
	add         w8,w9,w8
	sub         w9,w8,#1
	ldr         w8,[sp,#0x1E0]
	cmp         w9,w8
	blt         |$LN113@ComposeFra|
	ldr         w9,[sp,#0x1E4]
	ldr         w8,[sp,#0x1EC]
	add         w8,w9,w8
	sub         w9,w8,#1
	ldr         w8,[sp,#0x1D4]
	cmp         w8,w9
	bgt         |$LN113@ComposeFra|
	ldr         w9,[sp,#0x1D4]
	ldr         w8,[sp,#0x1DC]
	add         w8,w9,w8
	sub         w9,w8,#1
	ldr         w8,[sp,#0x1E4]
	cmp         w9,w8
	blt         |$LN113@ComposeFra|

; 720  : 									(cuttingr.y + cuttingr.h - 1) >= cu.y) {
; 721  : 									ClipSubtractRect(&cu, &cuttingr, clipRect, m);

	ldr         w3,[sp,#0x38]
	add         x2,sp,#0x2F8
	add         x1,sp,#0x1D0
	add         x0,sp,#0x1E0
	bl          |?ClipSubtractRect@@YAXPEAU_rect_@@00H@Z|
|$LN113@ComposeFra|

; 722  : 								}
; 723  : 							}

	b           |$LN26@ComposeFra|
|$LN27@ComposeFra|

; 724  : 						}

	b           |$LN23@ComposeFra|
|$LN24@ComposeFra|
|$LN107@ComposeFra|

; 725  : 					}
; 726  : 
; 727  : 
; 728  : 					if (clipCount == 0 && !overlap) {

	ldr         w8,[sp,#0xD0]
	cmp         w8,#0
	bne         |$LN114@ComposeFra|
	ldrsb       w8,[sp,#0x30]
	mov         w8,w8
	cmp         w8,#0
	bne         |$LN114@ComposeFra|

; 729  : 						for (int i = 0; i < r_h; i++) {

	mov         w8,#0
	str         w8,[sp,#0xCC]
	b           |$LN31@ComposeFra|
|$LN29@ComposeFra|
	ldr         w8,[sp,#0xCC]
	add         w8,w8,#1
	str         w8,[sp,#0xCC]
|$LN31@ComposeFra|
	ldr         w8,[sp,#0xCC]
	sxtw        x9,w8
	ldr         x8,[sp,#0x138]
	cmp         x9,x8
	bge         |$LN30@ComposeFra|

; 730  : 							void* canvas_mem = (canvas->buffer + (info->y + r_y + i) * canvas->canvasWidth + info->x + r_x);

	ldr         x8,[sp,#8]
	add         x10,x8,#0x20
	ldr         x9,[sp]
	mov         x8,#0x100C
	add         x8,x9,x8
	ldr         w8,[x8]
	sxtw        x9,w8
	ldr         x8,[sp,#0x78]
	add         x9,x9,x8
	ldr         w8,[sp,#0xCC]
	sxtw        x8,w8
	add         x9,x9,x8
	ldr         x8,[sp,#8]
	add         x8,x8,#0x18
	ldr         w8,[x8]
	uxtw        x8,w8
	mul         x9,x9,x8
	mov         x8,#4
	mul         x9,x9,x8
	ldr         x8,[x10]
	add         x10,x8,x9
	ldr         x9,[sp]
	mov         x8,#0x1008
	add         x8,x9,x8
	ldr         w8,[x8]
	sxtw        x9,w8
	mov         x8,#4
	mul         x8,x9,x8
	add         x10,x10,x8
	ldr         x9,[sp,#0x80]
	mov         x8,#4
	mul         x8,x9,x8
	add         x8,x10,x8
	str         x8,[sp,#0x2D0]

; 731  : 							void* win_mem = (win->backBuffer + (r_y + i) * info->width + r_x);

	ldr         x8,[sp,#0x28]
	add         x11,x8,#8
	ldr         w8,[sp,#0xCC]
	sxtw        x9,w8
	ldr         x8,[sp,#0x78]
	add         x10,x8,x9
	ldr         x9,[sp]
	mov         x8,#0x1010
	add         x8,x9,x8
	ldr         w8,[x8]
	sxtw        x8,w8
	mul         x9,x10,x8
	mov         x8,#4
	mul         x9,x9,x8
	ldr         x8,[x11]
	add         x10,x8,x9
	ldr         x9,[sp,#0x80]
	mov         x8,#4
	mul         x8,x9,x8
	add         x8,x10,x8
	str         x8,[sp,#0x2C8]

; 732  : 							_fastcpy(canvas_mem,

	ldr         x9,[sp,#0x140]
	mov         x8,#4
	mul         x2,x9,x8
	ldr         x1,[sp,#0x2C8]
	ldr         x0,[sp,#0x2D0]
	bl          _fastcpy

; 733  : 								win_mem, static_cast<size_t>(r_w) * 4);
; 734  : 						}

	b           |$LN29@ComposeFra|
|$LN30@ComposeFra|

; 735  : 						AddDirtyClip(info->x + r_x, info->y + r_y, r_w, r_h);

	ldr         x8,[sp,#0x138]
	mov         w3,w8
	ldr         x8,[sp,#0x140]
	mov         w2,w8
	ldr         x9,[sp]
	mov         x8,#0x100C
	add         x8,x9,x8
	ldr         w8,[x8]
	sxtw        x9,w8
	ldr         x8,[sp,#0x78]
	add         x8,x9,x8
	mov         w1,w8
	ldr         x9,[sp]
	mov         x8,#0x1008
	add         x8,x9,x8
	ldr         w8,[x8]
	sxtw        x9,w8
	ldr         x8,[sp,#0x80]
	add         x8,x9,x8
	mov         w0,w8
	mov         w3,w3
	mov         w2,w2
	mov         w1,w1
	mov         w0,w0
	bl          |?AddDirtyClip@@YAXHHHH@Z|
|$LN114@ComposeFra|

; 736  : 					}
; 737  : 
; 738  : 					for (int l = 0; l < clipCount; l++) {

	mov         w8,#0
	str         w8,[sp,#0x50]
	b           |$LN34@ComposeFra|
|$LN32@ComposeFra|
	ldr         w8,[sp,#0x50]
	add         w8,w8,#1
	str         w8,[sp,#0x50]
|$LN34@ComposeFra|
	ldr         w9,[sp,#0xD0]
	ldr         w8,[sp,#0x50]
	cmp         w8,w9
	bge         |$LN33@ComposeFra|

; 739  : 						int64_t k_x = clipRect[l].x;

	ldr         w8,[sp,#0x50]
	sxtw        x9,w8
	mov         x8,#0x10
	mul         x9,x9,x8
	add         x8,sp,#0x2F8
	add         x8,x8,x9
	ldr         w8,[x8]
	sxtw        x8,w8
	str         x8,[sp,#0x150]

; 740  : 						int64_t k_y = clipRect[l].y;

	ldr         w8,[sp,#0x50]
	sxtw        x9,w8
	mov         x8,#0x10
	mul         x9,x9,x8
	add         x8,sp,#0x2F8
	add         x8,x8,x9
	add         x8,x8,#4
	ldr         w8,[x8]
	sxtw        x8,w8
	str         x8,[sp,#0x148]

; 741  : 						int64_t k_w = clipRect[l].w;

	ldr         w8,[sp,#0x50]
	sxtw        x9,w8
	mov         x8,#0x10
	mul         x9,x9,x8
	add         x8,sp,#0x2F8
	add         x8,x8,x9
	add         x8,x8,#8
	ldr         w8,[x8]
	sxtw        x8,w8
	str         x8,[sp,#0x210]

; 742  : 						int64_t k_h = clipRect[l].h;

	ldr         w8,[sp,#0x50]
	sxtw        x9,w8
	mov         x8,#0x10
	mul         x9,x9,x8
	add         x8,sp,#0x2F8
	add         x8,x8,x9
	add         x8,x8,#0xC
	ldr         w8,[x8]
	sxtw        x8,w8
	str         x8,[sp,#0x208]

; 743  : 
; 744  : 						if (k_x < 0)

	ldr         x8,[sp,#0x150]
	cmp         x8,#0
	bge         |$LN115@ComposeFra|

; 745  : 							k_x = 0;

	mov         x8,#0
	str         x8,[sp,#0x150]
|$LN115@ComposeFra|

; 746  : 						if (k_y < 0)

	ldr         x8,[sp,#0x148]
	cmp         x8,#0
	bge         |$LN116@ComposeFra|

; 747  : 							k_y = 0;

	mov         x8,#0
	str         x8,[sp,#0x148]
|$LN116@ComposeFra|

; 748  : 						if ((k_x + k_w) >= canvas->screenWidth)

	ldr         x9,[sp,#0x150]
	ldr         x8,[sp,#0x210]
	add         x9,x9,x8
	ldr         x8,[sp,#8]
	add         x8,x8,#4
	ldr         w8,[x8]
	uxtw        x8,w8
	cmp         x9,x8
	blt         |$LN117@ComposeFra|

; 749  : 							k_w = canvas->screenWidth - k_x;

	ldr         x8,[sp,#8]
	add         x8,x8,#4
	ldr         w8,[x8]
	uxtw        x9,w8
	ldr         x8,[sp,#0x150]
	sub         x8,x9,x8
	str         x8,[sp,#0x210]
|$LN117@ComposeFra|

; 750  : 						if ((k_y + k_h) >= canvas->screenHeight)

	ldr         x9,[sp,#0x148]
	ldr         x8,[sp,#0x208]
	add         x9,x9,x8
	ldr         x8,[sp,#8]
	add         x8,x8,#8
	ldr         w8,[x8]
	uxtw        x8,w8
	cmp         x9,x8
	blt         |$LN118@ComposeFra|

; 751  : 							k_h = canvas->screenHeight - k_y;

	ldr         x8,[sp,#8]
	add         x8,x8,#8
	ldr         w8,[x8]
	uxtw        x9,w8
	ldr         x8,[sp,#0x148]
	sub         x8,x9,x8
	str         x8,[sp,#0x208]
|$LN118@ComposeFra|

; 752  : 
; 753  : 						int offset_x = info->x + r_x;

	ldr         x9,[sp]
	mov         x8,#0x1008
	add         x8,x9,x8
	ldr         w8,[x8]
	sxtw        x9,w8
	ldr         x8,[sp,#0x80]
	add         x8,x9,x8
	mov         w8,w8
	str         w8,[sp,#0x240]

; 754  : 
; 755  : 						int diffx = k_x - offset_x;

	ldr         w8,[sp,#0x240]
	sxtw        x9,w8
	ldr         x8,[sp,#0x150]
	sub         x8,x8,x9
	mov         w8,w8
	str         w8,[sp,#0x228]

; 756  : 						int64_t update_r_x = r_x + diffx;

	ldr         w8,[sp,#0x228]
	sxtw        x9,w8
	ldr         x8,[sp,#0x80]
	add         x8,x8,x9
	str         x8,[sp,#0x2E0]

; 757  : 
; 758  : 						int offset_y = info->y + r_y;

	ldr         x9,[sp]
	mov         x8,#0x100C
	add         x8,x9,x8
	ldr         w8,[x8]
	sxtw        x9,w8
	ldr         x8,[sp,#0x78]
	add         x8,x9,x8
	mov         w8,w8
	str         w8,[sp,#0x224]

; 759  : 						int diffy = k_y - offset_y;

	ldr         w8,[sp,#0x224]
	sxtw        x9,w8
	ldr         x8,[sp,#0x148]
	sub         x8,x8,x9
	mov         w8,w8
	str         w8,[sp,#0x220]

; 760  : 						int64_t update_r_y = r_y + diffy;

	ldr         w8,[sp,#0x220]
	sxtw        x9,w8
	ldr         x8,[sp,#0x78]
	add         x8,x8,x9
	str         x8,[sp,#0x2D8]

; 761  : 
; 762  : 
; 763  : 						for (int64_t j = 0; j < k_h; j++) {

	mov         x8,#0
	str         x8,[sp,#0x198]
	b           |$LN37@ComposeFra|
|$LN35@ComposeFra|
	ldr         x8,[sp,#0x198]
	add         x8,x8,#1
	str         x8,[sp,#0x198]
|$LN37@ComposeFra|
	ldr         x9,[sp,#0x208]
	ldr         x8,[sp,#0x198]
	cmp         x8,x9
	bge         |$LN36@ComposeFra|

; 764  : 							void* canvas_mem = (canvas->buffer + (k_y + j) * canvas->canvasWidth + k_x);

	ldr         x8,[sp,#8]
	add         x10,x8,#0x20
	ldr         x9,[sp,#0x148]
	ldr         x8,[sp,#0x198]
	add         x9,x9,x8
	ldr         x8,[sp,#8]
	add         x8,x8,#0x18
	ldr         w8,[x8]
	uxtw        x8,w8
	mul         x9,x9,x8
	mov         x8,#4
	mul         x9,x9,x8
	ldr         x8,[x10]
	add         x10,x8,x9
	ldr         x9,[sp,#0x150]
	mov         x8,#4
	mul         x8,x9,x8
	add         x8,x10,x8
	str         x8,[sp,#0x2F0]

; 765  : 							void* win_mem = (win->backBuffer + (update_r_y + j) * info->width + update_r_x);

	ldr         x8,[sp,#0x28]
	add         x11,x8,#8
	ldr         x9,[sp,#0x2D8]
	ldr         x8,[sp,#0x198]
	add         x10,x9,x8
	ldr         x9,[sp]
	mov         x8,#0x1010
	add         x8,x9,x8
	ldr         w8,[x8]
	sxtw        x8,w8
	mul         x9,x10,x8
	mov         x8,#4
	mul         x9,x9,x8
	ldr         x8,[x11]
	add         x10,x8,x9
	ldr         x9,[sp,#0x2E0]
	mov         x8,#4
	mul         x8,x9,x8
	add         x8,x10,x8
	str         x8,[sp,#0x2E8]

; 766  : 							_fastcpy(canvas_mem,

	ldr         x9,[sp,#0x210]
	mov         x8,#4
	mul         x2,x9,x8
	ldr         x1,[sp,#0x2E8]
	ldr         x0,[sp,#0x2F0]
	bl          _fastcpy

; 767  : 								win_mem, k_w * 4);
; 768  : 						}

	b           |$LN35@ComposeFra|
|$LN36@ComposeFra|

; 769  : 
; 770  : 						AddDirtyClip(k_x, k_y, k_w, k_h);

	ldr         x8,[sp,#0x208]
	mov         w3,w8
	ldr         x8,[sp,#0x210]
	mov         w2,w8
	ldr         x8,[sp,#0x148]
	mov         w1,w8
	ldr         x8,[sp,#0x150]
	mov         w0,w8
	mov         w3,w3
	mov         w2,w2
	mov         w1,w1
	mov         w0,w0
	bl          |?AddDirtyClip@@YAXHHHH@Z|

; 771  : 					}

	b           |$LN32@ComposeFra|
|$LN33@ComposeFra|

; 772  : 
; 773  : 					clipCount = 0;

	mov         w8,#0
	str         w8,[sp,#0xD0]

; 774  : 					info->rect[k].x = 0, info->rect[k].y = 0, info->rect[k].w = 0, info->rect[k].h = 0;

	ldr         x10,[sp]
	ldr         w8,[sp,#0x34]
	sxtw        x9,w8
	mov         x8,#0x10
	mul         x8,x9,x8
	add         x9,x10,x8
	mov         w8,#0
	str         w8,[x9]
	ldr         x10,[sp]
	ldr         w8,[sp,#0x34]
	sxtw        x9,w8
	mov         x8,#0x10
	mul         x8,x9,x8
	add         x8,x10,x8
	add         x9,x8,#4
	mov         w8,#0
	str         w8,[x9]
	ldr         x10,[sp]
	ldr         w8,[sp,#0x34]
	sxtw        x9,w8
	mov         x8,#0x10
	mul         x8,x9,x8
	add         x8,x10,x8
	add         x9,x8,#8
	mov         w8,#0
	str         w8,[x9]
	ldr         x10,[sp]
	ldr         w8,[sp,#0x34]
	sxtw        x9,w8
	mov         x8,#0x10
	mul         x8,x9,x8
	add         x8,x10,x8
	add         x9,x8,#0xC
	mov         w8,#0
	str         w8,[x9]
|$LN106@ComposeFra|

; 775  : 				}
; 776  : 			}

	b           |$LN8@ComposeFra|
|$LN9@ComposeFra|

; 777  : 			info->rect_count = 0;

	ldr         x8,[sp]
	add         x9,x8,#1,lsl #0xC
	mov         w8,#0
	str         w8,[x9]

; 778  : 			info->dirty = 0;

	ldr         x9,[sp]
	mov         x8,#0x1004
	add         x9,x9,x8
	mov         w8,#0
	strb        w8,[x9]

; 779  : 			info->updateEntireWindow = 0;

	ldr         x9,[sp]
	mov         x8,#0x1005
	add         x9,x9,x8
	mov         w8,#0
	strb        w8,[x9]
|$LN100@ComposeFra|

; 780  : 		}
; 781  : 
; 782  : 		/* If no small areas, update entire window */
; 783  : 
; 784  : 		if (win != NULL && _window_update_all_ || (info->rect_count == 0 && info->updateEntireWindow == 1)) {

	ldr         x8,[sp,#0x28]
	cmp         x8,#0
	beq         |$LN121@ComposeFra|
	adrp        x8,|?_window_update_all_@@3DA|
	ldrsb       w8,[x8,PageOffset(|?_window_update_all_@@3DA|)]
	mov         w8,w8
	cmp         w8,#0
	bne         |$LN120@ComposeFra|
|$LN121@ComposeFra|
	ldr         x8,[sp]
	add         x8,x8,#1,lsl #0xC
	ldr         w8,[x8]
	cmp         w8,#0
	bne         |$LN119@ComposeFra|
	ldr         x9,[sp]
	mov         x8,#0x1005
	add         x8,x9,x8
	ldrsb       w8,[x8]
	mov         w8,w8
	cmp         w8,#1
	bne         |$LN119@ComposeFra|
|$LN120@ComposeFra|

; 785  : 			int64_t winx = 0;

	mov         x8,#0
	str         x8,[sp,#0x160]

; 786  : 			int64_t winy = 0;

	mov         x8,#0
	str         x8,[sp,#0x158]

; 787  : 			winx = info->x;

	ldr         x9,[sp]
	mov         x8,#0x1008
	add         x8,x9,x8
	ldr         w8,[x8]
	sxtw        x8,w8
	str         x8,[sp,#0x160]

; 788  : 			winy = info->y;

	ldr         x9,[sp]
	mov         x8,#0x100C
	add         x8,x9,x8
	ldr         w8,[x8]
	sxtw        x8,w8
	str         x8,[sp,#0x158]

; 789  : 
; 790  : 			int64_t width = info->width;

	ldr         x9,[sp]
	mov         x8,#0x1010
	add         x8,x9,x8
	ldr         w8,[x8]
	sxtw        x8,w8
	str         x8,[sp,#0x170]

; 791  : 			int64_t height = info->height;

	ldr         x9,[sp]
	mov         x8,#0x1014
	add         x8,x9,x8
	ldr         w8,[x8]
	sxtw        x8,w8
	str         x8,[sp,#0x168]

; 792  : 			int64_t shad_w = width + SHADOW_SIZE * 2;

	ldr         x8,[sp,#0x170]
	str         x8,[sp,#0x238]

; 793  : 			int64_t shad_h = height + SHADOW_SIZE * 2;

	ldr         x8,[sp,#0x168]
	str         x8,[sp,#0x230]

; 794  : 
; 795  : 
; 796  : 			if ((info->x + info->width) >= canvas->screenWidth)

	ldr         x9,[sp]
	mov         x8,#0x1008
	add         x10,x9,x8
	ldr         x9,[sp]
	mov         x8,#0x1010
	add         x8,x9,x8
	ldr         w9,[x10]
	ldr         w8,[x8]
	add         w9,w9,w8
	ldr         x8,[sp,#8]
	add         x8,x8,#4
	ldr         w8,[x8]
	cmp         w9,w8
	blo         |$LN122@ComposeFra|

; 797  : 				width = static_cast<int64_t>(canvas->screenWidth) - info->x;

	ldr         x8,[sp,#8]
	add         x8,x8,#4
	ldr         w8,[x8]
	uxtw        x10,w8
	ldr         x9,[sp]
	mov         x8,#0x1008
	add         x8,x9,x8
	ldr         w8,[x8]
	sxtw        x8,w8
	sub         x8,x10,x8
	str         x8,[sp,#0x170]
|$LN122@ComposeFra|

; 798  : 
; 799  : 			if ((info->y + info->height) >= canvas->screenHeight)

	ldr         x9,[sp]
	mov         x8,#0x100C
	add         x10,x9,x8
	ldr         x9,[sp]
	mov         x8,#0x1014
	add         x8,x9,x8
	ldr         w9,[x10]
	ldr         w8,[x8]
	add         w9,w9,w8
	ldr         x8,[sp,#8]
	add         x8,x8,#8
	ldr         w8,[x8]
	cmp         w9,w8
	blo         |$LN123@ComposeFra|

; 800  : 				height = static_cast<int64_t>(canvas->screenHeight) - info->y;

	ldr         x8,[sp,#8]
	add         x8,x8,#8
	ldr         w8,[x8]
	uxtw        x10,w8
	ldr         x9,[sp]
	mov         x8,#0x100C
	add         x8,x9,x8
	ldr         w8,[x8]
	sxtw        x8,w8
	sub         x8,x10,x8
	str         x8,[sp,#0x168]
|$LN123@ComposeFra|

; 801  : 
; 802  : 			if ((info->x - SHADOW_SIZE) <= 0) {

	ldr         x9,[sp]
	mov         x8,#0x1008
	add         x8,x9,x8
	ldr         w8,[x8]
	cmp         w8,#0
	bgt         |$LN124@ComposeFra|

; 803  : 				info->x = 5 + SHADOW_SIZE;

	ldr         x9,[sp]
	mov         x8,#0x1008
	add         x9,x9,x8
	mov         w8,#5
	str         w8,[x9]

; 804  : 				winx = info->x;

	ldr         x9,[sp]
	mov         x8,#0x1008
	add         x8,x9,x8
	ldr         w8,[x8]
	sxtw        x8,w8
	str         x8,[sp,#0x160]
|$LN124@ComposeFra|

; 805  : 			}
; 806  : 
; 807  : 			if ((info->y - SHADOW_SIZE) <= 0) {

	ldr         x9,[sp]
	mov         x8,#0x100C
	add         x8,x9,x8
	ldr         w8,[x8]
	cmp         w8,#0
	bgt         |$LN125@ComposeFra|

; 808  : 				info->y = 5 + SHADOW_SIZE;

	ldr         x9,[sp]
	mov         x8,#0x100C
	add         x9,x9,x8
	mov         w8,#5
	str         w8,[x9]

; 809  : 				winy = info->y;

	ldr         x9,[sp]
	mov         x8,#0x100C
	add         x8,x9,x8
	ldr         w8,[x8]
	sxtw        x8,w8
	str         x8,[sp,#0x158]
|$LN125@ComposeFra|

; 810  : 			}
; 811  : 
; 812  : 
; 813  : 			if ((info->x + 24) >= canvas->screenWidth)

	ldr         x9,[sp]
	mov         x8,#0x1008
	add         x8,x9,x8
	ldr         w8,[x8]
	add         w9,w8,#0x18
	ldr         x8,[sp,#8]
	add         x8,x8,#4
	ldr         w8,[x8]
	cmp         w9,w8
	blo         |$LN126@ComposeFra|

; 814  : 				info->x = canvas->screenWidth - 24;

	ldr         x8,[sp,#8]
	add         x8,x8,#4
	ldr         w8,[x8]
	sub         w10,w8,#0x18
	ldr         x9,[sp]
	mov         x8,#0x1008
	add         x8,x9,x8
	str         w10,[x8]
|$LN126@ComposeFra|

; 815  : 
; 816  : 			if ((info->y + 24) >= canvas->screenHeight)

	ldr         x9,[sp]
	mov         x8,#0x100C
	add         x8,x9,x8
	ldr         w8,[x8]
	add         w9,w8,#0x18
	ldr         x8,[sp,#8]
	add         x8,x8,#8
	ldr         w8,[x8]
	cmp         w9,w8
	blo         |$LN127@ComposeFra|

; 817  : 				info->y = canvas->screenHeight - 24;

	ldr         x8,[sp,#8]
	add         x8,x8,#8
	ldr         w8,[x8]
	sub         w10,w8,#0x18
	ldr         x9,[sp]
	mov         x8,#0x100C
	add         x8,x9,x8
	str         w10,[x8]
|$LN127@ComposeFra|

; 818  : 
; 819  : #ifdef SHADOW_ENABLED
; 820  : 			if (((static_cast<int64_t>(info->x) - SHADOW_SIZE) + shad_w) >= canvas->screenWidth)
; 821  : 				shad_w = static_cast<int64_t>(canvas->screenWidth) - (static_cast<int64_t>(info->x) - SHADOW_SIZE);
; 822  : 
; 823  : 
; 824  : 			if (((static_cast<int64_t>(info->y) - SHADOW_SIZE) + shad_h) >= canvas->screenHeight)
; 825  : 				shad_h = static_cast<int64_t>(canvas->screenHeight) - (static_cast<int64_t>(info->y) - SHADOW_SIZE);
; 826  : #endif
; 827  : 			if ((win->flags & WINDOW_FLAG_ANIMATED)) {

	ldr         x8,[sp,#0x28]
	ldrh        w8,[x8]
	mov         w8,w8
	tbz         x8,#5,|$LN128@ComposeFra|

; 828  : 				if (win->flags & WINDOW_FLAG_ANIMATION_FADE_IN)

	ldr         x8,[sp,#0x28]
	ldrh        w8,[x8]
	mov         w8,w8
	tbz         x8,#9,|$LN130@ComposeFra|

; 829  : 					FadeInAnimationWindow(canvas, win, info, winx, winy, shad_w, shad_h);

	ldr         x6,[sp,#0x230]
	ldr         x5,[sp,#0x238]
	ldr         x4,[sp,#0x158]
	ldr         x3,[sp,#0x160]
	ldr         x2,[sp]
	ldr         x1,[sp,#0x28]
	ldr         x0,[sp,#8]
	bl          |?FadeInAnimationWindow@@YAXPEAU_ChCanvas_@@PEAU_win_@@PEAU_win_info_@@_J333@Z|
|$LN130@ComposeFra|

; 830  : 
; 831  : 				if (win->flags & WINDOW_FLAG_ANIMATION_FADE_OUT)

	ldr         x8,[sp,#0x28]
	ldrh        w8,[x8]
	mov         w8,w8
	tbz         x8,#0xA,|$LN131@ComposeFra|

; 832  : 					FadeOutAnimationWindow(canvas, win, info, winx, winy, shad_w, shad_h);

	ldr         x6,[sp,#0x230]
	ldr         x5,[sp,#0x238]
	ldr         x4,[sp,#0x158]
	ldr         x3,[sp,#0x160]
	ldr         x2,[sp]
	ldr         x1,[sp,#0x28]
	ldr         x0,[sp,#8]
	bl          |?FadeOutAnimationWindow@@YAXPEAU_ChCanvas_@@PEAU_win_@@PEAU_win_info_@@_J333@Z|
|$LN131@ComposeFra|

; 833  : 			}

	b           |$LN129@ComposeFra|
|$LN128@ComposeFra|

; 834  : 			else {
; 835  : 				Rect r1;
; 836  : 				Rect r2;
; 837  : 				r1.x = winx - SHADOW_SIZE;

	ldr         x8,[sp,#0x160]
	mov         w8,w8
	str         w8,[sp,#0x258]

; 838  : 				r1.y = winy - SHADOW_SIZE;

	ldr         x8,[sp,#0x158]
	mov         w8,w8
	str         w8,[sp,#0x25C]

; 839  : 				r1.w = width + SHADOW_SIZE * 2;

	ldr         x8,[sp,#0x170]
	mov         w8,w8
	str         w8,[sp,#0x260]

; 840  : 				r1.h = height + SHADOW_SIZE * 2;

	ldr         x8,[sp,#0x168]
	mov         w8,w8
	str         w8,[sp,#0x264]

; 841  : 
; 842  : 				Rect clip[100];
; 843  : 				int clipCount = 0;

	mov         w8,#0
	str         w8,[sp,#0xE8]

; 844  : 				Window* clipWin = NULL;

	mov         x8,#0
	str         x8,[sp,#0xB8]

; 845  : 				WinSharedInfo* clipInfo = NULL;

	mov         x8,#0
	str         x8,[sp,#0x108]

; 846  : 
; 847  : 				if (info->alpha) {

	ldr         x9,[sp]
	mov         x8,#0x1018
	add         x8,x9,x8
	ldrsb       w8,[x8]
	mov         w8,w8
	cmp         w8,#0
	beq         |$LN132@ComposeFra|

; 848  : 					for (int j = 0; j < height; j++) {

	mov         w8,#0
	str         w8,[sp,#0x88]
	b           |$LN40@ComposeFra|
|$LN38@ComposeFra|
	ldr         w8,[sp,#0x88]
	add         w8,w8,#1
	str         w8,[sp,#0x88]
|$LN40@ComposeFra|
	ldr         w8,[sp,#0x88]
	sxtw        x9,w8
	ldr         x8,[sp,#0x168]
	cmp         x9,x8
	bge         |$LN39@ComposeFra|

; 849  : 						for (int i = 0; i < width; i++) {

	mov         w8,#0
	str         w8,[sp,#0x8C]
	b           |$LN43@ComposeFra|
|$LN41@ComposeFra|
	ldr         w8,[sp,#0x8C]
	add         w8,w8,#1
	str         w8,[sp,#0x8C]
|$LN43@ComposeFra|
	ldr         w8,[sp,#0x8C]
	sxtw        x9,w8
	ldr         x8,[sp,#0x170]
	cmp         x9,x8
	bge         |$LN42@ComposeFra|

; 850  : 							*(uint32_t*)(canvas->buffer + (static_cast<int64_t>(info->y) + j) * canvas->canvasWidth +

	ldr         x9,[sp]
	mov         x8,#0x1020
	add         x12,x9,x8
	ldr         x8,[sp,#0x28]
	add         x11,x8,#8
	ldr         w8,[sp,#0x88]
	sxtw        x10,w8
	ldr         x9,[sp]
	mov         x8,#0x1010
	add         x8,x9,x8
	ldr         w8,[x8]
	sxtw        x8,w8
	mul         x9,x10,x8
	mov         x8,#4
	mul         x9,x9,x8
	ldr         x8,[x11]
	add         x10,x8,x9
	ldr         w8,[sp,#0x8C]
	sxtw        x9,w8
	mov         x8,#4
	mul         x8,x9,x8
	add         x11,x10,x8
	ldr         x8,[sp,#8]
	add         x10,x8,#0x20
	ldr         x9,[sp]
	mov         x8,#0x100C
	add         x8,x9,x8
	ldr         w8,[x8]
	sxtw        x9,w8
	ldr         w8,[sp,#0x88]
	sxtw        x8,w8
	add         x9,x9,x8
	ldr         x8,[sp,#8]
	add         x8,x8,#0x18
	ldr         w8,[x8]
	uxtw        x8,w8
	mul         x9,x9,x8
	mov         x8,#4
	mul         x9,x9,x8
	ldr         x8,[x10]
	add         x10,x8,x9
	ldr         x9,[sp]
	mov         x8,#0x1008
	add         x8,x9,x8
	ldr         w8,[x8]
	sxtw        x9,w8
	ldr         w8,[sp,#0x8C]
	sxtw        x8,w8
	add         x9,x9,x8
	mov         x8,#4
	mul         x8,x9,x8
	add         x8,x10,x8
	ldr         d0,[x12]
	ldr         w1,[x11]
	ldr         w0,[x8]
	bl          ChColorAlphaBlend
	mov         w0,w0
	ldr         x8,[sp,#8]
	add         x10,x8,#0x20
	ldr         x9,[sp]
	mov         x8,#0x100C
	add         x8,x9,x8
	ldr         w8,[x8]
	sxtw        x9,w8
	ldr         w8,[sp,#0x88]
	sxtw        x8,w8
	add         x9,x9,x8
	ldr         x8,[sp,#8]
	add         x8,x8,#0x18
	ldr         w8,[x8]
	uxtw        x8,w8
	mul         x9,x9,x8
	mov         x8,#4
	mul         x9,x9,x8
	ldr         x8,[x10]
	add         x10,x8,x9
	ldr         x9,[sp]
	mov         x8,#0x1008
	add         x8,x9,x8
	ldr         w8,[x8]
	sxtw        x9,w8
	ldr         w8,[sp,#0x8C]
	sxtw        x8,w8
	add         x9,x9,x8
	mov         x8,#4
	mul         x8,x9,x8
	add         x8,x10,x8
	str         w0,[x8]

; 851  : 								(static_cast<int64_t>(info->x) + i)) =
; 852  : 								ChColorAlphaBlend(*(uint32_t*)(canvas->buffer +
; 853  : 									(static_cast<int64_t>(info->y) + j) * canvas->canvasWidth +
; 854  : 									(static_cast<int64_t>(info->x) + i)),
; 855  : 									*(uint32_t*)(win->backBuffer + (static_cast<int64_t>(0) + j) * info->width +
; 856  : 										(static_cast<int64_t>(0) + i)), info->alphaValue);
; 857  : 						}

	b           |$LN41@ComposeFra|
|$LN42@ComposeFra|

; 858  : 					}

	b           |$LN38@ComposeFra|
|$LN39@ComposeFra|

; 859  : 					AddDirtyClip(info->x, info->y, width, height);

	ldr         x8,[sp,#0x168]
	mov         w3,w8
	ldr         x8,[sp,#0x170]
	mov         w2,w8
	ldr         x9,[sp]
	mov         x8,#0x100C
	add         x10,x9,x8
	ldr         x9,[sp]
	mov         x8,#0x1008
	add         x8,x9,x8
	mov         w3,w3
	mov         w2,w2
	ldr         w1,[x10]
	ldr         w0,[x8]
	bl          |?AddDirtyClip@@YAXHHHH@Z|

; 860  : 
; 861  : 				} else {

	b           |$LN133@ComposeFra|
|$LN132@ComposeFra|

; 862  : 
; 863  : 					for (clipWin = win; clipWin != NULL; clipWin = clipWin->next) {

	ldr         x8,[sp,#0x28]
	str         x8,[sp,#0xB8]
	b           |$LN46@ComposeFra|
|$LN44@ComposeFra|
	ldr         x8,[sp,#0xB8]
	add         x8,x8,#0x68
	ldr         x8,[x8]
	str         x8,[sp,#0xB8]
|$LN46@ComposeFra|
	ldr         x8,[sp,#0xB8]
	cmp         x8,#0
	beq         |$LN45@ComposeFra|

; 864  : 						clipInfo = (WinSharedInfo*)clipWin->sharedInfo;

	ldr         x8,[sp,#0xB8]
	add         x8,x8,#0x10
	ldr         x8,[x8]
	str         x8,[sp,#0x108]

; 865  : 						if (clipWin == win)

	ldr         x9,[sp,#0x28]
	ldr         x8,[sp,#0xB8]
	cmp         x8,x9
	bne         |$LN134@ComposeFra|

; 866  : 							continue;

	b           |$LN44@ComposeFra|
|$LN134@ComposeFra|

; 867  : 
; 868  : 						r2.x = clipInfo->x;

	ldr         x9,[sp,#0x108]
	mov         x8,#0x1008
	add         x8,x9,x8
	ldr         w8,[x8]
	str         w8,[sp,#0x1B0]

; 869  : 						r2.y = clipInfo->y;

	ldr         x9,[sp,#0x108]
	mov         x8,#0x100C
	add         x8,x9,x8
	ldr         w8,[x8]
	str         w8,[sp,#0x1B4]

; 870  : 						r2.w = clipInfo->width;

	ldr         x9,[sp,#0x108]
	mov         x8,#0x1010
	add         x8,x9,x8
	ldr         w8,[x8]
	str         w8,[sp,#0x1B8]

; 871  : 						r2.h = clipInfo->height;

	ldr         x9,[sp,#0x108]
	mov         x8,#0x1014
	add         x8,x9,x8
	ldr         w8,[x8]
	str         w8,[sp,#0x1BC]

; 872  : 
; 873  : 						if (ClipCheckIntersect(&r1, &r2)) {

	add         x1,sp,#0x1B0
	add         x0,sp,#0x258
	bl          |?ClipCheckIntersect@@YADPEAU_rect_@@0@Z|
	sxtb        w8,w0
	mov         w8,w8
	cmp         w8,#0
	beq         |$LN135@ComposeFra|

; 874  : 							ClipCalculateRect(&r1, &r2, clip, &clipCount);

	add         x3,sp,#0xE8
	add         x2,sp,#0x938
	add         x1,sp,#0x1B0
	add         x0,sp,#0x258
	bl          |?ClipCalculateRect@@YAXPEAU_rect_@@00PEAH@Z|
|$LN135@ComposeFra|

; 875  : 						}
; 876  : 					}

	b           |$LN44@ComposeFra|
|$LN45@ComposeFra|

; 877  : 
; 878  : 					/* always on top list */
; 879  : 					for (clipWin = alwaysOnTop; clipWin != NULL; clipWin = clipWin->next) {

	adrp        x8,|?alwaysOnTop@@3PEAU_win_@@EA|
	ldr         x8,[x8,PageOffset(|?alwaysOnTop@@3PEAU_win_@@EA|)]
	str         x8,[sp,#0xB8]
	b           |$LN49@ComposeFra|
|$LN47@ComposeFra|
	ldr         x8,[sp,#0xB8]
	add         x8,x8,#0x68
	ldr         x8,[x8]
	str         x8,[sp,#0xB8]
|$LN49@ComposeFra|
	ldr         x8,[sp,#0xB8]
	cmp         x8,#0
	beq         |$LN48@ComposeFra|

; 880  : 						clipInfo = (WinSharedInfo*)clipWin->sharedInfo;

	ldr         x8,[sp,#0xB8]
	add         x8,x8,#0x10
	ldr         x8,[x8]
	str         x8,[sp,#0x108]

; 881  : 						if (clipWin == win)

	ldr         x9,[sp,#0x28]
	ldr         x8,[sp,#0xB8]
	cmp         x8,x9
	bne         |$LN136@ComposeFra|

; 882  : 							continue;

	b           |$LN47@ComposeFra|
|$LN136@ComposeFra|

; 883  : 						r2.x = clipInfo->x;

	ldr         x9,[sp,#0x108]
	mov         x8,#0x1008
	add         x8,x9,x8
	ldr         w8,[x8]
	str         w8,[sp,#0x1B0]

; 884  : 						r2.y = clipInfo->y;

	ldr         x9,[sp,#0x108]
	mov         x8,#0x100C
	add         x8,x9,x8
	ldr         w8,[x8]
	str         w8,[sp,#0x1B4]

; 885  : 						r2.w = clipInfo->width;

	ldr         x9,[sp,#0x108]
	mov         x8,#0x1010
	add         x8,x9,x8
	ldr         w8,[x8]
	str         w8,[sp,#0x1B8]

; 886  : 						r2.h = clipInfo->height;

	ldr         x9,[sp,#0x108]
	mov         x8,#0x1014
	add         x8,x9,x8
	ldr         w8,[x8]
	str         w8,[sp,#0x1BC]

; 887  : 
; 888  : 						if (ClipCheckIntersect(&r1, &r2)) {

	add         x1,sp,#0x1B0
	add         x0,sp,#0x258
	bl          |?ClipCheckIntersect@@YADPEAU_rect_@@0@Z|
	sxtb        w8,w0
	mov         w8,w8
	cmp         w8,#0
	beq         |$LN137@ComposeFra|

; 889  : 							ClipCalculateRect(&r1, &r2, clip, &clipCount);

	add         x3,sp,#0xE8
	add         x2,sp,#0x938
	add         x1,sp,#0x1B0
	add         x0,sp,#0x258
	bl          |?ClipCalculateRect@@YAXPEAU_rect_@@00PEAH@Z|
|$LN137@ComposeFra|

; 890  : 						}
; 891  : 				}

	b           |$LN47@ComposeFra|
|$LN48@ComposeFra|

; 892  : 
; 893  : 					if (focusedWin == win) {

	ldr         x9,[sp,#0x28]
	adrp        x8,|?focusedWin@@3PEAU_win_@@EA|
	ldr         x8,[x8,PageOffset(|?focusedWin@@3PEAU_win_@@EA|)]
	cmp         x8,x9
	bne         |$LN138@ComposeFra|

; 894  : 						if (_shadow_update) {

	adrp        x8,|?_shadow_update@@3DA|
	ldrsb       w8,[x8,PageOffset(|?_shadow_update@@3DA|)]
	mov         w8,w8
	cmp         w8,#0
	beq         |$LN139@ComposeFra|

; 895  : #ifdef SHADOW_ENABLED
; 896  : 							for (int64_t j = 0; j < shad_h; j++) {
; 897  : 								for (int64_t q = 0; q < shad_w; q++) {
; 898  : 									*(uint32_t*)(canvas->buffer + ((winy - SHADOW_SIZE) + j) * canvas->canvasWidth + ((winx - SHADOW_SIZE) + q)) =
; 899  : 										ChColorAlphaBlend2(*(uint32_t*)(canvas->buffer + ((winy - SHADOW_SIZE) + j) * canvas->canvasWidth + ((winx - SHADOW_SIZE) + q)),
; 900  : 											*(uint32_t*)(win->shadowBuffers + j * (static_cast<int64_t>(info->width) + SHADOW_SIZE * 2) + q));
; 901  : 								}
; 902  : 							}
; 903  : #endif
; 904  : 							_shadow_update = false;

	adrp        x9,|?_shadow_update@@3DA|
	mov         w8,#0
	strb        w8,[x9,PageOffset(|?_shadow_update@@3DA|)]
|$LN139@ComposeFra|
|$LN138@ComposeFra|

; 905  : 						}
; 906  : 					}
; 907  : 
; 908  : 					for (int64_t i = 0; i < height; i++) {

	mov         x8,#0
	str         x8,[sp,#0x1A0]
	b           |$LN52@ComposeFra|
|$LN50@ComposeFra|
	ldr         x8,[sp,#0x1A0]
	add         x8,x8,#1
	str         x8,[sp,#0x1A0]
|$LN52@ComposeFra|
	ldr         x9,[sp,#0x168]
	ldr         x8,[sp,#0x1A0]
	cmp         x8,x9
	bge         |$LN51@ComposeFra|

; 909  : 						_fastcpy(canvas->buffer + (winy + i) * canvas->canvasWidth + winx,

	ldr         x9,[sp,#0x170]
	mov         x8,#4
	mul         x2,x9,x8
	ldr         x8,[sp,#0x28]
	add         x10,x8,#8
	ldr         x9,[sp]
	mov         x8,#0x1010
	add         x8,x9,x8
	ldr         w8,[x8]
	sxtw        x9,w8
	ldr         x8,[sp,#0x1A0]
	mul         x9,x8,x9
	mov         x8,#4
	mul         x9,x9,x8
	ldr         x8,[x10]
	add         x1,x8,x9
	ldr         x8,[sp,#8]
	add         x10,x8,#0x20
	ldr         x9,[sp,#0x158]
	ldr         x8,[sp,#0x1A0]
	add         x9,x9,x8
	ldr         x8,[sp,#8]
	add         x8,x8,#0x18
	ldr         w8,[x8]
	uxtw        x8,w8
	mul         x9,x9,x8
	mov         x8,#4
	mul         x9,x9,x8
	ldr         x8,[x10]
	add         x10,x8,x9
	ldr         x9,[sp,#0x160]
	mov         x8,#4
	mul         x8,x9,x8
	add         x0,x10,x8
	bl          _fastcpy

; 910  : 							win->backBuffer + (0 + i) * info->width + 0, width * 4);
; 911  : 					}

	b           |$LN50@ComposeFra|
|$LN51@ComposeFra|

; 912  : 
; 913  : 					/*
; 914  : 					 * Here we check the moving bit because, if any behind
; 915  : 					 * windows is not intersected by moving window, so during
; 916  : 					 * _window_update_all_ process its clipped rect count will
; 917  : 					 * be zero, so moving window prevents its from redrawing
; 918  : 					 * non intersected window with clip count = 0
; 919  : 					 */
; 920  : 					if (clipCount == 0 && !_window_moving_) {

	ldr         w8,[sp,#0xE8]
	cmp         w8,#0
	bne         |$LN140@ComposeFra|
	adrp        x8,|?_window_moving_@@3DA|
	ldrsb       w8,[x8,PageOffset(|?_window_moving_@@3DA|)]
	mov         w8,w8
	cmp         w8,#0
	bne         |$LN140@ComposeFra|

; 921  : 						AddDirtyClip(winx - SHADOW_SIZE, winy - SHADOW_SIZE, shad_w, shad_h);

	ldr         x8,[sp,#0x230]
	mov         w3,w8
	ldr         x8,[sp,#0x238]
	mov         w2,w8
	ldr         x8,[sp,#0x158]
	mov         w1,w8
	ldr         x8,[sp,#0x160]
	mov         w0,w8
	mov         w3,w3
	mov         w2,w2
	mov         w1,w1
	mov         w0,w0
	bl          |?AddDirtyClip@@YAXHHHH@Z|
|$LN140@ComposeFra|

; 922  : 					}
; 923  : 
; 924  : 					for (int k = 0; k < clipCount; k++) {

	mov         w8,#0
	str         w8,[sp,#0x54]
	b           |$LN55@ComposeFra|
|$LN53@ComposeFra|
	ldr         w8,[sp,#0x54]
	add         w8,w8,#1
	str         w8,[sp,#0x54]
|$LN55@ComposeFra|
	ldr         w9,[sp,#0xE8]
	ldr         w8,[sp,#0x54]
	cmp         w8,w9
	bge         |$LN54@ComposeFra|

; 925  : 						int k_x = clip[k].x;

	ldr         w8,[sp,#0x54]
	sxtw        x9,w8
	mov         x8,#0x10
	mul         x9,x9,x8
	add         x8,sp,#0x938
	add         x8,x8,x9
	ldr         w8,[x8]
	str         w8,[sp,#0xE4]

; 926  : 						int k_y = clip[k].y;

	ldr         w8,[sp,#0x54]
	sxtw        x9,w8
	mov         x8,#0x10
	mul         x9,x9,x8
	add         x8,sp,#0x938
	add         x8,x8,x9
	add         x8,x8,#4
	ldr         w8,[x8]
	str         w8,[sp,#0xE0]

; 927  : 						int k_w = clip[k].w;

	ldr         w8,[sp,#0x54]
	sxtw        x9,w8
	mov         x8,#0x10
	mul         x9,x9,x8
	add         x8,sp,#0x938
	add         x8,x8,x9
	add         x8,x8,#8
	ldr         w8,[x8]
	str         w8,[sp,#0x130]

; 928  : 						int k_h = clip[k].h;

	ldr         w8,[sp,#0x54]
	sxtw        x9,w8
	mov         x8,#0x10
	mul         x9,x9,x8
	add         x8,sp,#0x938
	add         x8,x8,x9
	add         x8,x8,#0xC
	ldr         w8,[x8]
	str         w8,[sp,#0x128]

; 929  : 
; 930  : 						if (k_x < 0)

	ldr         w8,[sp,#0xE4]
	cmp         w8,#0
	bge         |$LN141@ComposeFra|

; 931  : 							k_x = 0;

	mov         w8,#0
	str         w8,[sp,#0xE4]
|$LN141@ComposeFra|

; 932  : 						if (k_y < 0)

	ldr         w8,[sp,#0xE0]
	cmp         w8,#0
	bge         |$LN142@ComposeFra|

; 933  : 							k_y = 0;

	mov         w8,#0
	str         w8,[sp,#0xE0]
|$LN142@ComposeFra|

; 934  : 						if ((k_x + k_w) >= canvas->screenWidth)

	ldr         w9,[sp,#0xE4]
	ldr         w8,[sp,#0x130]
	add         w9,w9,w8
	ldr         x8,[sp,#8]
	add         x8,x8,#4
	ldr         w8,[x8]
	cmp         w9,w8
	blo         |$LN143@ComposeFra|

; 935  : 							k_w = canvas->screenWidth - k_x;

	ldr         x8,[sp,#8]
	add         x8,x8,#4
	ldr         w9,[x8]
	ldr         w8,[sp,#0xE4]
	sub         w8,w9,w8
	str         w8,[sp,#0x130]
|$LN143@ComposeFra|

; 936  : 						if ((k_y + k_h) >= canvas->screenHeight)

	ldr         w9,[sp,#0xE0]
	ldr         w8,[sp,#0x128]
	add         w9,w9,w8
	ldr         x8,[sp,#8]
	add         x8,x8,#8
	ldr         w8,[x8]
	cmp         w9,w8
	blo         |$LN144@ComposeFra|

; 937  : 							k_h = canvas->screenHeight - k_y;

	ldr         x8,[sp,#8]
	add         x8,x8,#8
	ldr         w9,[x8]
	ldr         w8,[sp,#0xE0]
	sub         w8,w9,w8
	str         w8,[sp,#0x128]
|$LN144@ComposeFra|

; 938  : 
; 939  : 						AddDirtyClip(k_x, k_y, k_w, k_h);	

	ldr         w3,[sp,#0x128]
	ldr         w2,[sp,#0x130]
	ldr         w1,[sp,#0xE0]
	ldr         w0,[sp,#0xE4]
	bl          |?AddDirtyClip@@YAXHHHH@Z|

; 940  : 					}

	b           |$LN53@ComposeFra|
|$LN54@ComposeFra|

; 941  : 					clipCount = 0;

	mov         w8,#0
	str         w8,[sp,#0xE8]
|$LN133@ComposeFra|

; 942  : 			}
; 943  : 				if (!(win->flags & WINDOW_FLAG_ANIMATED)) {

	ldr         x8,[sp,#0x28]
	ldrh        w8,[x8]
	mov         w8,w8
	tbnz        x8,#5,|$LN145@ComposeFra|

; 944  : 					if (info->updateEntireWindow)

	ldr         x9,[sp]
	mov         x8,#0x1005
	add         x8,x9,x8
	ldrsb       w8,[x8]
	mov         w8,w8
	cmp         w8,#0
	beq         |$LN146@ComposeFra|

; 945  : 						info->updateEntireWindow = 0;

	ldr         x9,[sp]
	mov         x8,#0x1005
	add         x9,x9,x8
	mov         w8,#0
	strb        w8,[x9]
|$LN146@ComposeFra|

; 946  : 					if (!info->windowReady)

	ldr         x9,[sp]
	mov         x8,#0x1028
	add         x8,x9,x8
	ldrsb       w8,[x8]
	mov         w8,w8
	cmp         w8,#0
	bne         |$LN147@ComposeFra|

; 947  : 						info->windowReady = 1;

	ldr         x9,[sp]
	mov         x8,#0x1028
	add         x9,x9,x8
	mov         w8,#1
	strb        w8,[x9]
|$LN147@ComposeFra|
|$LN145@ComposeFra|
|$LN129@ComposeFra|
|$LN119@ComposeFra|

; 948  : 				}
; 949  : 			}
; 950  : 
; 951  : 		}
; 952  : 		
; 953  : 	}

	b           |$LN5@ComposeFra|
|$LN6@ComposeFra|

; 954  : 
; 955  : 
; 956  : 	/* //------- Always on Top Windows follow, another data structure ----------// */
; 957  : 	/* // ----------------------------------------------------------------------// */
; 958  : 
; 959  : 	for (Window* win = alwaysOnTop; win != NULL; win = win->next) {

	adrp        x8,|?alwaysOnTop@@3PEAU_win_@@EA|
	ldr         x8,[x8,PageOffset(|?alwaysOnTop@@3PEAU_win_@@EA|)]
	str         x8,[sp,#0x48]
	b           |$LN58@ComposeFra|
|$LN56@ComposeFra|
	ldr         x8,[sp,#0x48]
	add         x8,x8,#0x68
	ldr         x8,[x8]
	str         x8,[sp,#0x48]
|$LN58@ComposeFra|
	ldr         x8,[sp,#0x48]
	cmp         x8,#0
	beq         |$LN57@ComposeFra|

; 960  : 		WinSharedInfo* info = (WinSharedInfo*)win->sharedInfo;

	ldr         x8,[sp,#0x48]
	add         x8,x8,#0x10
	ldr         x8,[x8]
	str         x8,[sp,#0x10]

; 961  : 		if (info->hide)

	ldr         x9,[sp,#0x10]
	mov         x8,#0x1019
	add         x8,x9,x8
	ldrsb       w8,[x8]
	mov         w8,w8
	cmp         w8,#0
	beq         |$LN148@ComposeFra|

; 962  : 			continue;

	b           |$LN56@ComposeFra|
|$LN148@ComposeFra|

; 963  : 		/*
; 964  : 		* Check for small area updates !! not entire window
; 965  : 		*/
; 966  : 		if (info->rect_count > 0) {

	ldr         x8,[sp,#0x10]
	add         x8,x8,#1,lsl #0xC
	ldr         w8,[x8]
	cmp         w8,#0
	bls         |$LN149@ComposeFra|

; 967  : 			for (int k = 0; k < info->rect_count; k++) {

	mov         w8,#0
	str         w8,[sp,#0x58]
	b           |$LN61@ComposeFra|
|$LN59@ComposeFra|
	ldr         w8,[sp,#0x58]
	add         w8,w8,#1
	str         w8,[sp,#0x58]
|$LN61@ComposeFra|
	ldr         x8,[sp,#0x10]
	add         x8,x8,#1,lsl #0xC
	ldr         w9,[x8]
	ldr         w8,[sp,#0x58]
	cmp         w8,w9
	bhs         |$LN60@ComposeFra|

; 968  : 				int r_x = info->rect[k].x;

	ldr         x10,[sp,#0x10]
	ldr         w8,[sp,#0x58]
	sxtw        x9,w8
	mov         x8,#0x10
	mul         x8,x9,x8
	add         x8,x10,x8
	ldr         w8,[x8]
	str         w8,[sp,#0x1C]

; 969  : 				int r_y = info->rect[k].y;

	ldr         x10,[sp,#0x10]
	ldr         w8,[sp,#0x58]
	sxtw        x9,w8
	mov         x8,#0x10
	mul         x8,x9,x8
	add         x8,x10,x8
	add         x8,x8,#4
	ldr         w8,[x8]
	str         w8,[sp,#0x20]

; 970  : 				int r_w = info->rect[k].w;

	ldr         x10,[sp,#0x10]
	ldr         w8,[sp,#0x58]
	sxtw        x9,w8
	mov         x8,#0x10
	mul         x8,x9,x8
	add         x8,x10,x8
	add         x8,x8,#8
	ldr         w8,[x8]
	str         w8,[sp,#0x60]

; 971  : 				int r_h = info->rect[k].h;

	ldr         x10,[sp,#0x10]
	ldr         w8,[sp,#0x58]
	sxtw        x9,w8
	mov         x8,#0x10
	mul         x8,x9,x8
	add         x8,x10,x8
	add         x8,x8,#0xC
	ldr         w8,[x8]
	str         w8,[sp,#0x5C]

; 972  : 
; 973  : 				if (r_x < 0)

	ldr         w8,[sp,#0x1C]
	cmp         w8,#0
	bge         |$LN150@ComposeFra|

; 974  : 					r_x = 0;

	mov         w8,#0
	str         w8,[sp,#0x1C]
|$LN150@ComposeFra|

; 975  : 
; 976  : 				if (r_y < 0)

	ldr         w8,[sp,#0x20]
	cmp         w8,#0
	bge         |$LN151@ComposeFra|

; 977  : 					r_y = 0;

	mov         w8,#0
	str         w8,[sp,#0x20]
|$LN151@ComposeFra|

; 978  : 
; 979  : 				if ((info->x + r_x + r_w) >= canvas->canvasWidth)

	ldr         x9,[sp,#0x10]
	mov         x8,#0x1008
	add         x8,x9,x8
	ldr         w9,[x8]
	ldr         w8,[sp,#0x1C]
	add         w9,w9,w8
	ldr         w8,[sp,#0x60]
	add         w9,w9,w8
	ldr         x8,[sp,#8]
	add         x8,x8,#0x18
	ldr         w8,[x8]
	cmp         w9,w8
	blo         |$LN152@ComposeFra|

; 980  : 					r_w = canvas->canvasWidth - (info->x + r_x);

	ldr         x8,[sp,#8]
	add         x10,x8,#0x18
	ldr         x9,[sp,#0x10]
	mov         x8,#0x1008
	add         x8,x9,x8
	ldr         w9,[x8]
	ldr         w8,[sp,#0x1C]
	add         w9,w9,w8
	ldr         w8,[x10]
	sub         w8,w8,w9
	str         w8,[sp,#0x60]
|$LN152@ComposeFra|

; 981  : 
; 982  : 				if ((info->y + r_y + r_h) >= canvas->canvasHeight)

	ldr         x9,[sp,#0x10]
	mov         x8,#0x100C
	add         x8,x9,x8
	ldr         w9,[x8]
	ldr         w8,[sp,#0x20]
	add         w9,w9,w8
	ldr         w8,[sp,#0x5C]
	add         w9,w9,w8
	ldr         x8,[sp,#8]
	add         x8,x8,#0x1C
	ldr         w8,[x8]
	cmp         w9,w8
	blo         |$LN153@ComposeFra|

; 983  : 					r_h = canvas->canvasHeight - (info->y + r_y);

	ldr         x8,[sp,#8]
	add         x10,x8,#0x1C
	ldr         x9,[sp,#0x10]
	mov         x8,#0x100C
	add         x8,x9,x8
	ldr         w9,[x8]
	ldr         w8,[sp,#0x20]
	add         w9,w9,w8
	ldr         w8,[x10]
	sub         w8,w8,w9
	str         w8,[sp,#0x5C]
|$LN153@ComposeFra|

; 984  : 
; 985  : 				/* from here, we check if the small rectangle is
; 986  : 				* covered by a window or another rectangle */
; 987  : 
; 988  : 				Rect r1;
; 989  : 				Rect r2;
; 990  : 				r1.x = info->x + r_x;

	ldr         x9,[sp,#0x10]
	mov         x8,#0x1008
	add         x8,x9,x8
	ldr         w9,[x8]
	ldr         w8,[sp,#0x1C]
	add         w8,w9,w8
	str         w8,[sp,#0x298]

; 991  : 				r1.y = info->y + r_y;

	ldr         x9,[sp,#0x10]
	mov         x8,#0x100C
	add         x8,x9,x8
	ldr         w9,[x8]
	ldr         w8,[sp,#0x20]
	add         w8,w9,w8
	str         w8,[sp,#0x29C]

; 992  : 				r1.w = r_w;

	ldr         w8,[sp,#0x60]
	str         w8,[sp,#0x2A0]

; 993  : 				r1.h = r_h;

	ldr         w8,[sp,#0x5C]
	str         w8,[sp,#0x2A4]

; 994  : 				bool overlap = false;

	mov         w8,#0
	strb        w8,[sp,#0x31]

; 995  : 				Rect clipRect[100];
; 996  : 				int clipCount = 0;

	mov         w8,#0
	str         w8,[sp,#0x118]

; 997  : 				Window* clipWin = NULL;

	mov         x8,#0
	str         x8,[sp,#0x178]

; 998  : 				WinSharedInfo* clipInfo = NULL;

	mov         x8,#0
	str         x8,[sp,#0x1A8]

; 999  : 
; 1000 : 				if (info->alpha && !_window_moving_) {

	ldr         x9,[sp,#0x10]
	mov         x8,#0x1018
	add         x8,x9,x8
	ldrsb       w8,[x8]
	mov         w8,w8
	cmp         w8,#0
	beq         |$LN154@ComposeFra|
	adrp        x8,|?_window_moving_@@3DA|
	ldrsb       w8,[x8,PageOffset(|?_window_moving_@@3DA|)]
	mov         w8,w8
	cmp         w8,#0
	bne         |$LN154@ComposeFra|

; 1001 : 					for (int j = 0; j < r_h; j++) {

	mov         w8,#0
	str         w8,[sp,#0x90]
	b           |$LN64@ComposeFra|
|$LN62@ComposeFra|
	ldr         w8,[sp,#0x90]
	add         w8,w8,#1
	str         w8,[sp,#0x90]
|$LN64@ComposeFra|
	ldr         w9,[sp,#0x5C]
	ldr         w8,[sp,#0x90]
	cmp         w8,w9
	bge         |$LN63@ComposeFra|

; 1002 : 						for (int i = 0; i < r_w; i++) {

	mov         w8,#0
	str         w8,[sp,#0x94]
	b           |$LN67@ComposeFra|
|$LN65@ComposeFra|
	ldr         w8,[sp,#0x94]
	add         w8,w8,#1
	str         w8,[sp,#0x94]
|$LN67@ComposeFra|
	ldr         w9,[sp,#0x60]
	ldr         w8,[sp,#0x94]
	cmp         w8,w9
	bge         |$LN66@ComposeFra|

; 1003 : 							*(uint32_t*)(canvas->buffer + (static_cast<int64_t>(info->y) + r_y + j) * canvas->canvasWidth + 

	ldr         x8,[sp,#0x48]
	add         x11,x8,#8
	ldr         w8,[sp,#0x20]
	sxtw        x9,w8
	ldr         w8,[sp,#0x90]
	sxtw        x8,w8
	add         x10,x9,x8
	ldr         x9,[sp,#0x10]
	mov         x8,#0x1010
	add         x8,x9,x8
	ldr         w8,[x8]
	sxtw        x8,w8
	mul         x9,x10,x8
	mov         x8,#4
	mul         x9,x9,x8
	ldr         x8,[x11]
	add         x10,x8,x9
	ldr         w8,[sp,#0x1C]
	sxtw        x9,w8
	ldr         w8,[sp,#0x94]
	sxtw        x8,w8
	add         x9,x9,x8
	mov         x8,#4
	mul         x8,x9,x8
	add         x11,x10,x8
	ldr         x9,[sp,#0x10]
	mov         x8,#0x100C
	add         x8,x9,x8
	ldr         w8,[x8]
	sxtw        x9,w8
	ldr         w8,[sp,#0x20]
	sxtw        x8,w8
	add         x9,x9,x8
	ldr         w8,[sp,#0x90]
	sxtw        x8,w8
	add         x9,x9,x8
	ldr         x8,[sp,#8]
	add         x8,x8,#0x18
	ldr         w8,[x8]
	uxtw        x8,w8
	mul         x9,x9,x8
	mov         x8,#4
	mul         x9,x9,x8
	adrp        x8,|?surfaceBuffer@@3PEAIEA|
	ldr         x8,[x8,PageOffset(|?surfaceBuffer@@3PEAIEA|)]
	add         x10,x8,x9
	ldr         x9,[sp,#0x10]
	mov         x8,#0x1008
	add         x8,x9,x8
	ldr         w8,[x8]
	sxtw        x9,w8
	ldr         w8,[sp,#0x1C]
	sxtw        x8,w8
	add         x9,x9,x8
	ldr         w8,[sp,#0x94]
	sxtw        x8,w8
	add         x9,x9,x8
	mov         x8,#4
	mul         x8,x9,x8
	add         x8,x10,x8
	ldr         w1,[x11]
	ldr         w0,[x8]
	bl          ChColorAlphaBlend2
	mov         w0,w0
	ldr         x8,[sp,#8]
	add         x10,x8,#0x20
	ldr         x9,[sp,#0x10]
	mov         x8,#0x100C
	add         x8,x9,x8
	ldr         w8,[x8]
	sxtw        x9,w8
	ldr         w8,[sp,#0x20]
	sxtw        x8,w8
	add         x9,x9,x8
	ldr         w8,[sp,#0x90]
	sxtw        x8,w8
	add         x9,x9,x8
	ldr         x8,[sp,#8]
	add         x8,x8,#0x18
	ldr         w8,[x8]
	uxtw        x8,w8
	mul         x9,x9,x8
	mov         x8,#4
	mul         x9,x9,x8
	ldr         x8,[x10]
	add         x10,x8,x9
	ldr         x9,[sp,#0x10]
	mov         x8,#0x1008
	add         x8,x9,x8
	ldr         w8,[x8]
	sxtw        x9,w8
	ldr         w8,[sp,#0x1C]
	sxtw        x8,w8
	add         x9,x9,x8
	ldr         w8,[sp,#0x94]
	sxtw        x8,w8
	add         x9,x9,x8
	mov         x8,#4
	mul         x8,x9,x8
	add         x8,x10,x8
	str         w0,[x8]

; 1004 : 								(static_cast<int64_t>(info->x) + r_x + i)) =
; 1005 : 								ChColorAlphaBlend2(*(uint32_t*)(surfaceBuffer +
; 1006 : 									(static_cast<int64_t>(info->y) + r_y + j)* canvas->canvasWidth + 
; 1007 : 									(static_cast<int64_t>(info->x) + r_x + i)),
; 1008 : 								*(uint32_t*)(win->backBuffer + (static_cast<int64_t>(r_y) + j)* info->width + 
; 1009 : 									(static_cast<int64_t>(r_x) + i)));
; 1010 : 							
; 1011 : 						}

	b           |$LN65@ComposeFra|
|$LN66@ComposeFra|

; 1012 : 					}

	b           |$LN62@ComposeFra|
|$LN63@ComposeFra|

; 1013 : 					AddDirtyClip(info->x + r_x, info->y + r_y, r_w, r_h);

	ldr         x9,[sp,#0x10]
	mov         x8,#0x100C
	add         x8,x9,x8
	ldr         w9,[x8]
	ldr         w8,[sp,#0x20]
	add         w1,w9,w8
	ldr         x9,[sp,#0x10]
	mov         x8,#0x1008
	add         x8,x9,x8
	ldr         w9,[x8]
	ldr         w8,[sp,#0x1C]
	add         w0,w9,w8
	ldr         w3,[sp,#0x5C]
	ldr         w2,[sp,#0x60]
	mov         w1,w1
	mov         w0,w0
	bl          |?AddDirtyClip@@YAXHHHH@Z|

; 1014 : 				}

	b           |$LN155@ComposeFra|
|$LN154@ComposeFra|

; 1015 : 				else {
; 1016 : 					if (focusedWin != win) {

	ldr         x9,[sp,#0x48]
	adrp        x8,|?focusedWin@@3PEAU_win_@@EA|
	ldr         x8,[x8,PageOffset(|?focusedWin@@3PEAU_win_@@EA|)]
	cmp         x8,x9
	beq         |$LN156@ComposeFra|

; 1017 : 						for (clipWin = win; clipWin != NULL; clipWin = clipWin->next) {

	ldr         x8,[sp,#0x48]
	str         x8,[sp,#0x178]
	b           |$LN70@ComposeFra|
|$LN68@ComposeFra|
	ldr         x8,[sp,#0x178]
	add         x8,x8,#0x68
	ldr         x8,[x8]
	str         x8,[sp,#0x178]
|$LN70@ComposeFra|
	ldr         x8,[sp,#0x178]
	cmp         x8,#0
	beq         |$LN69@ComposeFra|

; 1018 : 							clipInfo = (WinSharedInfo*)clipWin->sharedInfo;

	ldr         x8,[sp,#0x178]
	add         x8,x8,#0x10
	ldr         x8,[x8]
	str         x8,[sp,#0x1A8]

; 1019 : 							if (clipWin == win)

	ldr         x9,[sp,#0x48]
	ldr         x8,[sp,#0x178]
	cmp         x8,x9
	bne         |$LN157@ComposeFra|

; 1020 : 								continue;

	b           |$LN68@ComposeFra|
|$LN157@ComposeFra|

; 1021 : 							r2.x = clipInfo->x;

	ldr         x9,[sp,#0x1A8]
	mov         x8,#0x1008
	add         x8,x9,x8
	ldr         w8,[x8]
	str         w8,[sp,#0x288]

; 1022 : 							r2.y = clipInfo->y;

	ldr         x9,[sp,#0x1A8]
	mov         x8,#0x100C
	add         x8,x9,x8
	ldr         w8,[x8]
	str         w8,[sp,#0x28C]

; 1023 : 							r2.w = clipInfo->width;

	ldr         x9,[sp,#0x1A8]
	mov         x8,#0x1010
	add         x8,x9,x8
	ldr         w8,[x8]
	str         w8,[sp,#0x290]

; 1024 : 							r2.h = clipInfo->height;

	ldr         x9,[sp,#0x1A8]
	mov         x8,#0x1014
	add         x8,x9,x8
	ldr         w8,[x8]
	str         w8,[sp,#0x294]

; 1025 : 
; 1026 : 							if (ClipCheckIntersect(&r1, &r2)){

	add         x1,sp,#0x288
	add         x0,sp,#0x298
	bl          |?ClipCheckIntersect@@YADPEAU_rect_@@0@Z|
	sxtb        w8,w0
	mov         w8,w8
	cmp         w8,#0
	beq         |$LN158@ComposeFra|

; 1027 : 								overlap = true;

	mov         w8,#1
	strb        w8,[sp,#0x31]

; 1028 : 								ClipCalculateRect(&r1, &r2, clipRect, &clipCount);

	add         x3,sp,#0x118
	add         x2,sp,#0xF78
	add         x1,sp,#0x288
	add         x0,sp,#0x298
	bl          |?ClipCalculateRect@@YAXPEAU_rect_@@00PEAH@Z|
|$LN158@ComposeFra|

; 1029 : 							}
; 1030 : 						}

	b           |$LN68@ComposeFra|
|$LN69@ComposeFra|
|$LN156@ComposeFra|

; 1031 : 					}
; 1032 : 
; 1033 : 					if (clipCount == 0 && !overlap) {

	ldr         w8,[sp,#0x118]
	cmp         w8,#0
	bne         |$LN159@ComposeFra|
	ldrsb       w8,[sp,#0x31]
	mov         w8,w8
	cmp         w8,#0
	bne         |$LN159@ComposeFra|

; 1034 : 						for (int i = 0; i < r_h; i++) {

	mov         w8,#0
	str         w8,[sp,#0xEC]
	b           |$LN73@ComposeFra|
|$LN71@ComposeFra|
	ldr         w8,[sp,#0xEC]
	add         w8,w8,#1
	str         w8,[sp,#0xEC]
|$LN73@ComposeFra|
	ldr         w9,[sp,#0x5C]
	ldr         w8,[sp,#0xEC]
	cmp         w8,w9
	bge         |$LN72@ComposeFra|

; 1035 : 							void* canv_buff = (canvas->buffer + (static_cast<int64_t>(info->y) + r_y + i) * 

	ldr         x8,[sp,#8]
	add         x10,x8,#0x20
	ldr         x9,[sp,#0x10]
	mov         x8,#0x100C
	add         x8,x9,x8
	ldr         w8,[x8]
	sxtw        x9,w8
	ldr         w8,[sp,#0x20]
	sxtw        x8,w8
	add         x9,x9,x8
	ldr         w8,[sp,#0xEC]
	sxtw        x8,w8
	add         x9,x9,x8
	ldr         x8,[sp,#8]
	add         x8,x8,#0x18
	ldr         w8,[x8]
	uxtw        x8,w8
	mul         x9,x9,x8
	mov         x8,#4
	mul         x9,x9,x8
	ldr         x8,[x10]
	add         x10,x8,x9
	ldr         x9,[sp,#0x10]
	mov         x8,#0x1008
	add         x8,x9,x8
	ldr         w8,[x8]
	sxtw        x9,w8
	mov         x8,#4
	mul         x8,x9,x8
	add         x10,x10,x8
	ldr         w8,[sp,#0x1C]
	sxtw        x9,w8
	mov         x8,#4
	mul         x8,x9,x8
	add         x8,x10,x8
	str         x8,[sp,#0x2B0]

; 1036 : 								canvas->canvasWidth + info->x + r_x);
; 1037 : 							void* backbuff = (win->backBuffer + (static_cast<int64_t>(r_y) + i) * info->width + r_x);

	ldr         x8,[sp,#0x48]
	add         x11,x8,#8
	ldr         w8,[sp,#0x20]
	sxtw        x9,w8
	ldr         w8,[sp,#0xEC]
	sxtw        x8,w8
	add         x10,x9,x8
	ldr         x9,[sp,#0x10]
	mov         x8,#0x1010
	add         x8,x9,x8
	ldr         w8,[x8]
	sxtw        x8,w8
	mul         x9,x10,x8
	mov         x8,#4
	mul         x9,x9,x8
	ldr         x8,[x11]
	add         x10,x8,x9
	ldr         w8,[sp,#0x1C]
	sxtw        x9,w8
	mov         x8,#4
	mul         x8,x9,x8
	add         x8,x10,x8
	str         x8,[sp,#0x2A8]

; 1038 : 							_fastcpy(canv_buff,

	ldr         w8,[sp,#0x60]
	sxtw        x9,w8
	mov         x8,#4
	mul         x2,x9,x8
	ldr         x1,[sp,#0x2A8]
	ldr         x0,[sp,#0x2B0]
	bl          _fastcpy

; 1039 : 								backbuff, static_cast<int64_t>(r_w)*4);
; 1040 : 						}

	b           |$LN71@ComposeFra|
|$LN72@ComposeFra|

; 1041 : 						AddDirtyClip(info->x + r_x, info->y + r_y, r_w, r_h);

	ldr         x9,[sp,#0x10]
	mov         x8,#0x100C
	add         x8,x9,x8
	ldr         w9,[x8]
	ldr         w8,[sp,#0x20]
	add         w1,w9,w8
	ldr         x9,[sp,#0x10]
	mov         x8,#0x1008
	add         x8,x9,x8
	ldr         w9,[x8]
	ldr         w8,[sp,#0x1C]
	add         w0,w9,w8
	ldr         w3,[sp,#0x5C]
	ldr         w2,[sp,#0x60]
	mov         w1,w1
	mov         w0,w0
	bl          |?AddDirtyClip@@YAXHHHH@Z|
|$LN159@ComposeFra|

; 1042 : 					}
; 1043 : 
; 1044 : 					for (int l = 0; l < clipCount; l++) {

	mov         w8,#0
	str         w8,[sp,#0x64]
	b           |$LN76@ComposeFra|
|$LN74@ComposeFra|
	ldr         w8,[sp,#0x64]
	add         w8,w8,#1
	str         w8,[sp,#0x64]
|$LN76@ComposeFra|
	ldr         w9,[sp,#0x118]
	ldr         w8,[sp,#0x64]
	cmp         w8,w9
	bge         |$LN75@ComposeFra|

; 1045 : 						int k_x = clipRect[l].x;

	ldr         w8,[sp,#0x64]
	sxtw        x9,w8
	mov         x8,#0x10
	mul         x9,x9,x8
	add         x8,sp,#0xF78
	add         x8,x8,x9
	ldr         w8,[x8]
	str         w8,[sp,#0x6C]

; 1046 : 						int k_y = clipRect[l].y;

	ldr         w8,[sp,#0x64]
	sxtw        x9,w8
	mov         x8,#0x10
	mul         x9,x9,x8
	add         x8,sp,#0xF78
	add         x8,x8,x9
	add         x8,x8,#4
	ldr         w8,[x8]
	str         w8,[sp,#0x70]

; 1047 : 						int k_w = clipRect[l].w;

	ldr         w8,[sp,#0x64]
	sxtw        x9,w8
	mov         x8,#0x10
	mul         x9,x9,x8
	add         x8,sp,#0xF78
	add         x8,x8,x9
	add         x8,x8,#8
	ldr         w8,[x8]
	str         w8,[sp,#0x11C]

; 1048 : 						int k_h = clipRect[l].h;

	ldr         w8,[sp,#0x64]
	sxtw        x9,w8
	mov         x8,#0x10
	mul         x9,x9,x8
	add         x8,sp,#0xF78
	add         x8,x8,x9
	add         x8,x8,#0xC
	ldr         w8,[x8]
	str         w8,[sp,#0x110]

; 1049 : 
; 1050 : 						if (k_x < 0)

	ldr         w8,[sp,#0x6C]
	cmp         w8,#0
	bge         |$LN160@ComposeFra|

; 1051 : 							k_x = 0;

	mov         w8,#0
	str         w8,[sp,#0x6C]
|$LN160@ComposeFra|

; 1052 : 						if (k_y < 0)

	ldr         w8,[sp,#0x70]
	cmp         w8,#0
	bge         |$LN161@ComposeFra|

; 1053 : 							k_y = 0;

	mov         w8,#0
	str         w8,[sp,#0x70]
|$LN161@ComposeFra|

; 1054 : 						if ((k_x + k_w) >= canvas->screenWidth)

	ldr         w9,[sp,#0x6C]
	ldr         w8,[sp,#0x11C]
	add         w9,w9,w8
	ldr         x8,[sp,#8]
	add         x8,x8,#4
	ldr         w8,[x8]
	cmp         w9,w8
	blo         |$LN162@ComposeFra|

; 1055 : 							k_w = canvas->screenWidth - k_x;

	ldr         x8,[sp,#8]
	add         x8,x8,#4
	ldr         w9,[x8]
	ldr         w8,[sp,#0x6C]
	sub         w8,w9,w8
	str         w8,[sp,#0x11C]
|$LN162@ComposeFra|

; 1056 : 						if ((k_y + k_h) >= canvas->screenHeight)

	ldr         w9,[sp,#0x70]
	ldr         w8,[sp,#0x110]
	add         w9,w9,w8
	ldr         x8,[sp,#8]
	add         x8,x8,#8
	ldr         w8,[x8]
	cmp         w9,w8
	blo         |$LN163@ComposeFra|

; 1057 : 							k_h = canvas->screenHeight - k_y;

	ldr         x8,[sp,#8]
	add         x8,x8,#8
	ldr         w9,[x8]
	ldr         w8,[sp,#0x70]
	sub         w8,w9,w8
	str         w8,[sp,#0x110]
|$LN163@ComposeFra|

; 1058 : 
; 1059 : 						int offset_x = info->x + r_x;

	ldr         x9,[sp,#0x10]
	mov         x8,#0x1008
	add         x8,x9,x8
	ldr         w9,[x8]
	ldr         w8,[sp,#0x1C]
	add         w8,w9,w8
	str         w8,[sp,#0x21C]

; 1060 : 
; 1061 : 						int diffx = k_x - offset_x;

	ldr         w9,[sp,#0x6C]
	ldr         w8,[sp,#0x21C]
	sub         w8,w9,w8
	str         w8,[sp,#0x218]

; 1062 : 						int update_r_x = r_x + diffx;

	ldr         w9,[sp,#0x1C]
	ldr         w8,[sp,#0x218]
	add         w8,w9,w8
	str         w8,[sp,#0x250]

; 1063 : 
; 1064 : 						int offset_y = info->y + r_y;

	ldr         x9,[sp,#0x10]
	mov         x8,#0x100C
	add         x8,x9,x8
	ldr         w9,[x8]
	ldr         w8,[sp,#0x20]
	add         w8,w9,w8
	str         w8,[sp,#0x244]

; 1065 : 						int diffy = k_y - offset_y;

	ldr         w9,[sp,#0x70]
	ldr         w8,[sp,#0x244]
	sub         w8,w9,w8
	str         w8,[sp,#0x248]

; 1066 : 						int update_r_y = r_y + diffy;

	ldr         w9,[sp,#0x20]
	ldr         w8,[sp,#0x248]
	add         w8,w9,w8
	str         w8,[sp,#0x24C]

; 1067 : 
; 1068 : 						for (int j = 0; j < k_h; j++) {

	mov         w8,#0
	str         w8,[sp,#0xF0]
	b           |$LN79@ComposeFra|
|$LN77@ComposeFra|
	ldr         w8,[sp,#0xF0]
	add         w8,w8,#1
	str         w8,[sp,#0xF0]
|$LN79@ComposeFra|
	ldr         w9,[sp,#0x110]
	ldr         w8,[sp,#0xF0]
	cmp         w8,w9
	bge         |$LN78@ComposeFra|

; 1069 : 							_fastcpy((canvas->buffer + (static_cast<int64_t>(k_y) + j) * canvas->canvasWidth + k_x),

	ldr         w8,[sp,#0x11C]
	sxtw        x9,w8
	mov         x8,#4
	mul         x2,x9,x8
	ldr         x8,[sp,#0x48]
	add         x11,x8,#8
	ldr         w8,[sp,#0x24C]
	sxtw        x9,w8
	ldr         w8,[sp,#0xF0]
	sxtw        x8,w8
	add         x10,x9,x8
	ldr         x9,[sp,#0x10]
	mov         x8,#0x1010
	add         x8,x9,x8
	ldr         w8,[x8]
	sxtw        x8,w8
	mul         x9,x10,x8
	mov         x8,#4
	mul         x9,x9,x8
	ldr         x8,[x11]
	add         x10,x8,x9
	ldr         w8,[sp,#0x250]
	sxtw        x9,w8
	mov         x8,#4
	mul         x8,x9,x8
	add         x1,x10,x8
	ldr         x8,[sp,#8]
	add         x10,x8,#0x20
	ldr         w8,[sp,#0x70]
	sxtw        x9,w8
	ldr         w8,[sp,#0xF0]
	sxtw        x8,w8
	add         x9,x9,x8
	ldr         x8,[sp,#8]
	add         x8,x8,#0x18
	ldr         w8,[x8]
	uxtw        x8,w8
	mul         x9,x9,x8
	mov         x8,#4
	mul         x9,x9,x8
	ldr         x8,[x10]
	add         x10,x8,x9
	ldr         w8,[sp,#0x6C]
	sxtw        x9,w8
	mov         x8,#4
	mul         x8,x9,x8
	add         x0,x10,x8
	bl          _fastcpy

; 1070 : 								(win->backBuffer + (static_cast<int64_t>(update_r_y) + j) * info->width + update_r_x), 
; 1071 : 								static_cast<int64_t>(k_w) * 4);
; 1072 : 						}

	b           |$LN77@ComposeFra|
|$LN78@ComposeFra|

; 1073 : 						AddDirtyClip(k_x, k_y, k_w, k_h);

	ldr         w3,[sp,#0x110]
	ldr         w2,[sp,#0x11C]
	ldr         w1,[sp,#0x70]
	ldr         w0,[sp,#0x6C]
	bl          |?AddDirtyClip@@YAXHHHH@Z|

; 1074 : 					}

	b           |$LN74@ComposeFra|
|$LN75@ComposeFra|

; 1075 : 					clipCount = 0;

	mov         w8,#0
	str         w8,[sp,#0x118]
|$LN155@ComposeFra|

; 1076 : 				}
; 1077 : 			}

	b           |$LN59@ComposeFra|
|$LN60@ComposeFra|

; 1078 : 			info->rect_count = 0;

	ldr         x8,[sp,#0x10]
	add         x9,x8,#1,lsl #0xC
	mov         w8,#0
	str         w8,[x9]

; 1079 : 			info->dirty = 0;

	ldr         x9,[sp,#0x10]
	mov         x8,#0x1004
	add         x9,x9,x8
	mov         w8,#0
	strb        w8,[x9]

; 1080 : 			info->updateEntireWindow = 0;

	ldr         x9,[sp,#0x10]
	mov         x8,#0x1005
	add         x9,x9,x8
	mov         w8,#0
	strb        w8,[x9]
|$LN149@ComposeFra|

; 1081 : 		}
; 1082 : 
; 1083 : 
; 1084 : 		/* If no small areas, update entire window */
; 1085 : 
; 1086 : 		if (win != NULL && _always_on_top_update  || (info->rect_count == 0 && info->updateEntireWindow == 1)) {

	ldr         x8,[sp,#0x48]
	cmp         x8,#0
	beq         |$LN166@ComposeFra|
	adrp        x8,|?_always_on_top_update@@3DA|
	ldrsb       w8,[x8,PageOffset(|?_always_on_top_update@@3DA|)]
	mov         w8,w8
	cmp         w8,#0
	bne         |$LN165@ComposeFra|
|$LN166@ComposeFra|
	ldr         x8,[sp,#0x10]
	add         x8,x8,#1,lsl #0xC
	ldr         w8,[x8]
	cmp         w8,#0
	bne         |$LN164@ComposeFra|
	ldr         x9,[sp,#0x10]
	mov         x8,#0x1005
	add         x8,x9,x8
	ldrsb       w8,[x8]
	mov         w8,w8
	cmp         w8,#1
	bne         |$LN164@ComposeFra|
|$LN165@ComposeFra|

; 1087 : 			int winx = 0;

	mov         w8,#0
	str         w8,[sp,#0x40]

; 1088 : 			int winy = 0;

	mov         w8,#0
	str         w8,[sp,#0x3C]

; 1089 : 			winx = info->x;

	ldr         x9,[sp,#0x10]
	mov         x8,#0x1008
	add         x8,x9,x8
	ldr         w8,[x8]
	str         w8,[sp,#0x40]

; 1090 : 			winy = info->y;

	ldr         x9,[sp,#0x10]
	mov         x8,#0x100C
	add         x8,x9,x8
	ldr         w8,[x8]
	str         w8,[sp,#0x3C]

; 1091 : 
; 1092 : 			int width = info->width;

	ldr         x9,[sp,#0x10]
	mov         x8,#0x1010
	add         x8,x9,x8
	ldr         w8,[x8]
	str         w8,[sp,#0xA4]

; 1093 : 			int height = info->height;

	ldr         x9,[sp,#0x10]
	mov         x8,#0x1014
	add         x8,x9,x8
	ldr         w8,[x8]
	str         w8,[sp,#0xA0]

; 1094 : 
; 1095 : 			if (info->x < 0){

	ldr         x9,[sp,#0x10]
	mov         x8,#0x1008
	add         x8,x9,x8
	ldr         w8,[x8]
	cmp         w8,#0
	bge         |$LN167@ComposeFra|

; 1096 : 				info->x = 5;

	ldr         x9,[sp,#0x10]
	mov         x8,#0x1008
	add         x9,x9,x8
	mov         w8,#5
	str         w8,[x9]

; 1097 : 				winx = info->x;

	ldr         x9,[sp,#0x10]
	mov         x8,#0x1008
	add         x8,x9,x8
	ldr         w8,[x8]
	str         w8,[sp,#0x40]
|$LN167@ComposeFra|

; 1098 : 			}
; 1099 : 
; 1100 : 			if (info->y < 0) {

	ldr         x9,[sp,#0x10]
	mov         x8,#0x100C
	add         x8,x9,x8
	ldr         w8,[x8]
	cmp         w8,#0
	bge         |$LN168@ComposeFra|

; 1101 : 				info->y = 5;

	ldr         x9,[sp,#0x10]
	mov         x8,#0x100C
	add         x9,x9,x8
	mov         w8,#5
	str         w8,[x9]

; 1102 : 				winy = info->y;

	ldr         x9,[sp,#0x10]
	mov         x8,#0x100C
	add         x8,x9,x8
	ldr         w8,[x8]
	str         w8,[sp,#0x3C]
|$LN168@ComposeFra|

; 1103 : 			}
; 1104 : 
; 1105 : 			if (info->x + info->width >= canvas->screenWidth)

	ldr         x9,[sp,#0x10]
	mov         x8,#0x1008
	add         x10,x9,x8
	ldr         x9,[sp,#0x10]
	mov         x8,#0x1010
	add         x8,x9,x8
	ldr         w9,[x10]
	ldr         w8,[x8]
	add         w9,w9,w8
	ldr         x8,[sp,#8]
	add         x8,x8,#4
	ldr         w8,[x8]
	cmp         w9,w8
	blo         |$LN169@ComposeFra|

; 1106 : 				width = canvas->screenWidth - info->x;

	ldr         x8,[sp,#8]
	add         x10,x8,#4
	ldr         x9,[sp,#0x10]
	mov         x8,#0x1008
	add         x8,x9,x8
	ldr         w9,[x10]
	ldr         w8,[x8]
	sub         w8,w9,w8
	str         w8,[sp,#0xA4]
|$LN169@ComposeFra|

; 1107 : 
; 1108 : 			if (info->y + info->height >= canvas->screenHeight)

	ldr         x9,[sp,#0x10]
	mov         x8,#0x100C
	add         x10,x9,x8
	ldr         x9,[sp,#0x10]
	mov         x8,#0x1014
	add         x8,x9,x8
	ldr         w9,[x10]
	ldr         w8,[x8]
	add         w9,w9,w8
	ldr         x8,[sp,#8]
	add         x8,x8,#8
	ldr         w8,[x8]
	cmp         w9,w8
	blo         |$LN170@ComposeFra|

; 1109 : 				height = canvas->screenHeight - info->y;

	ldr         x8,[sp,#8]
	add         x10,x8,#8
	ldr         x9,[sp,#0x10]
	mov         x8,#0x100C
	add         x8,x9,x8
	ldr         w9,[x10]
	ldr         w8,[x8]
	sub         w8,w9,w8
	str         w8,[sp,#0xA0]
|$LN170@ComposeFra|

; 1110 : 
; 1111 : 			Rect r1;
; 1112 : 			Rect r2;
; 1113 : 			r1.x = winx;

	ldr         w8,[sp,#0x40]
	str         w8,[sp,#0x278]

; 1114 : 			r1.y = winy;

	ldr         w8,[sp,#0x3C]
	str         w8,[sp,#0x27C]

; 1115 : 			r1.w = width;

	ldr         w8,[sp,#0xA4]
	str         w8,[sp,#0x280]

; 1116 : 			r1.h = height;

	ldr         w8,[sp,#0xA0]
	str         w8,[sp,#0x284]

; 1117 : 
; 1118 : 			Rect clip[100];
; 1119 : 			int clipCount = 0;

	mov         w8,#0
	str         w8,[sp,#0xC8]

; 1120 : 			Window* clipWin = NULL;

	mov         x8,#0
	str         x8,[sp,#0xB0]

; 1121 : 			WinSharedInfo* clipInfo = NULL;

	mov         x8,#0
	str         x8,[sp,#0x100]

; 1122 : 			bool _intersected_ = false;

	mov         w8,#0
	strb        w8,[sp,#0x18]

; 1123 : 
; 1124 : 			for (clipWin = rootWin; clipWin != NULL; clipWin = clipWin->next) {

	adrp        x8,|?rootWin@@3PEAU_win_@@EA|
	ldr         x8,[x8,PageOffset(|?rootWin@@3PEAU_win_@@EA|)]
	str         x8,[sp,#0xB0]
	b           |$LN82@ComposeFra|
|$LN80@ComposeFra|
	ldr         x8,[sp,#0xB0]
	add         x8,x8,#0x68
	ldr         x8,[x8]
	str         x8,[sp,#0xB0]
|$LN82@ComposeFra|
	ldr         x8,[sp,#0xB0]
	cmp         x8,#0
	beq         |$LN81@ComposeFra|

; 1125 : 				clipInfo = (WinSharedInfo*)clipWin->sharedInfo;

	ldr         x8,[sp,#0xB0]
	add         x8,x8,#0x10
	ldr         x8,[x8]
	str         x8,[sp,#0x100]

; 1126 : 				if (clipWin == win)

	ldr         x9,[sp,#0x48]
	ldr         x8,[sp,#0xB0]
	cmp         x8,x9
	bne         |$LN171@ComposeFra|

; 1127 : 					continue;

	b           |$LN80@ComposeFra|
|$LN171@ComposeFra|

; 1128 : 				r2.x = clipInfo->x;

	ldr         x9,[sp,#0x100]
	mov         x8,#0x1008
	add         x8,x9,x8
	ldr         w8,[x8]
	str         w8,[sp,#0x1F0]

; 1129 : 				r2.y = clipInfo->y;

	ldr         x9,[sp,#0x100]
	mov         x8,#0x100C
	add         x8,x9,x8
	ldr         w8,[x8]
	str         w8,[sp,#0x1F4]

; 1130 : 				r2.w = clipInfo->width;

	ldr         x9,[sp,#0x100]
	mov         x8,#0x1010
	add         x8,x9,x8
	ldr         w8,[x8]
	str         w8,[sp,#0x1F8]

; 1131 : 				r2.h = clipInfo->height;

	ldr         x9,[sp,#0x100]
	mov         x8,#0x1014
	add         x8,x9,x8
	ldr         w8,[x8]
	str         w8,[sp,#0x1FC]

; 1132 : 
; 1133 : 				if (ClipCheckIntersect(&r1, &r2)) {

	add         x1,sp,#0x1F0
	add         x0,sp,#0x278
	bl          |?ClipCheckIntersect@@YADPEAU_rect_@@0@Z|
	sxtb        w8,w0
	mov         w8,w8
	cmp         w8,#0
	beq         |$LN172@ComposeFra|

; 1134 : 					_intersected_ = true;

	mov         w8,#1
	strb        w8,[sp,#0x18]
|$LN172@ComposeFra|

; 1135 : 				}
; 1136 : 			}

	b           |$LN80@ComposeFra|
|$LN81@ComposeFra|

; 1137 : 
; 1138 : 			/* alpha is only used for fade animation right now */
; 1139 : 			if ((info->alpha && info->updateEntireWindow) || (info->alpha && _intersected_)) {

	ldr         x9,[sp,#0x10]
	mov         x8,#0x1018
	add         x8,x9,x8
	ldrsb       w8,[x8]
	mov         w8,w8
	cmp         w8,#0
	beq         |$LN176@ComposeFra|
	ldr         x9,[sp,#0x10]
	mov         x8,#0x1005
	add         x8,x9,x8
	ldrsb       w8,[x8]
	mov         w8,w8
	cmp         w8,#0
	bne         |$LN175@ComposeFra|
|$LN176@ComposeFra|
	ldr         x9,[sp,#0x10]
	mov         x8,#0x1018
	add         x8,x9,x8
	ldrsb       w8,[x8]
	mov         w8,w8
	cmp         w8,#0
	beq         |$LN173@ComposeFra|
	ldrsb       w8,[sp,#0x18]
	mov         w8,w8
	cmp         w8,#0
	beq         |$LN173@ComposeFra|
|$LN175@ComposeFra|

; 1140 : 				for (int j = 0; j < height; j++) {

	mov         w8,#0
	str         w8,[sp,#0x98]
	b           |$LN85@ComposeFra|
|$LN83@ComposeFra|
	ldr         w8,[sp,#0x98]
	add         w8,w8,#1
	str         w8,[sp,#0x98]
|$LN85@ComposeFra|
	ldr         w9,[sp,#0xA0]
	ldr         w8,[sp,#0x98]
	cmp         w8,w9
	bge         |$LN84@ComposeFra|

; 1141 : 					for (int i = 0; i < width; i++) {

	mov         w8,#0
	str         w8,[sp,#0x9C]
	b           |$LN88@ComposeFra|
|$LN86@ComposeFra|
	ldr         w8,[sp,#0x9C]
	add         w8,w8,#1
	str         w8,[sp,#0x9C]
|$LN88@ComposeFra|
	ldr         w9,[sp,#0xA4]
	ldr         w8,[sp,#0x9C]
	cmp         w8,w9
	bge         |$LN87@ComposeFra|

; 1142 : 						*(uint32_t*)(canvas->buffer + (static_cast<int64_t>(winy) + j) * canvas->canvasWidth + 

	ldr         x8,[sp,#0x48]
	add         x11,x8,#8
	ldr         w8,[sp,#0x98]
	sxtw        x10,w8
	ldr         x9,[sp,#0x10]
	mov         x8,#0x1010
	add         x8,x9,x8
	ldr         w8,[x8]
	sxtw        x8,w8
	mul         x9,x10,x8
	mov         x8,#4
	mul         x9,x9,x8
	ldr         x8,[x11]
	add         x10,x8,x9
	ldr         w8,[sp,#0x9C]
	sxtw        x9,w8
	mov         x8,#4
	mul         x8,x9,x8
	add         x11,x10,x8
	ldr         w8,[sp,#0x3C]
	sxtw        x9,w8
	ldr         w8,[sp,#0x98]
	sxtw        x8,w8
	add         x9,x9,x8
	ldr         x8,[sp,#8]
	add         x8,x8,#0x18
	ldr         w8,[x8]
	uxtw        x8,w8
	mul         x9,x9,x8
	mov         x8,#4
	mul         x9,x9,x8
	adrp        x8,|?surfaceBuffer@@3PEAIEA|
	ldr         x8,[x8,PageOffset(|?surfaceBuffer@@3PEAIEA|)]
	add         x10,x8,x9
	ldr         w8,[sp,#0x40]
	sxtw        x9,w8
	ldr         w8,[sp,#0x9C]
	sxtw        x8,w8
	add         x9,x9,x8
	mov         x8,#4
	mul         x8,x9,x8
	add         x8,x10,x8
	ldr         w1,[x11]
	ldr         w0,[x8]
	bl          ChColorAlphaBlend2
	mov         w0,w0
	ldr         x8,[sp,#8]
	add         x10,x8,#0x20
	ldr         w8,[sp,#0x3C]
	sxtw        x9,w8
	ldr         w8,[sp,#0x98]
	sxtw        x8,w8
	add         x9,x9,x8
	ldr         x8,[sp,#8]
	add         x8,x8,#0x18
	ldr         w8,[x8]
	uxtw        x8,w8
	mul         x9,x9,x8
	mov         x8,#4
	mul         x9,x9,x8
	ldr         x8,[x10]
	add         x10,x8,x9
	ldr         w8,[sp,#0x40]
	sxtw        x9,w8
	ldr         w8,[sp,#0x9C]
	sxtw        x8,w8
	add         x9,x9,x8
	mov         x8,#4
	mul         x8,x9,x8
	add         x8,x10,x8
	str         w0,[x8]

; 1143 : 							(static_cast<int64_t>(winx) + i)) =
; 1144 : 							ChColorAlphaBlend2(*(uint32_t*)(surfaceBuffer + (static_cast<int64_t>(winy) + j)* canvas->canvasWidth + 
; 1145 : 								(static_cast<int64_t>(winx) + i)),
; 1146 : 							*(uint32_t*)(win->backBuffer + static_cast<int64_t>(j) * info->width + i));
; 1147 : 					}

	b           |$LN86@ComposeFra|
|$LN87@ComposeFra|

; 1148 : 				}

	b           |$LN83@ComposeFra|
|$LN84@ComposeFra|

; 1149 : 				AddDirtyClip(winx, winy, width, height);

	ldr         w3,[sp,#0xA0]
	ldr         w2,[sp,#0xA4]
	ldr         w1,[sp,#0x3C]
	ldr         w0,[sp,#0x40]
	bl          |?AddDirtyClip@@YAXHHHH@Z|

; 1150 : 			}

	b           |$LN174@ComposeFra|
|$LN173@ComposeFra|

; 1151 : 			else {
; 1152 : 				for (clipWin = rootWin; clipWin != NULL; clipWin = clipWin->next) {

	adrp        x8,|?rootWin@@3PEAU_win_@@EA|
	ldr         x8,[x8,PageOffset(|?rootWin@@3PEAU_win_@@EA|)]
	str         x8,[sp,#0xB0]
	b           |$LN91@ComposeFra|
|$LN89@ComposeFra|
	ldr         x8,[sp,#0xB0]
	add         x8,x8,#0x68
	ldr         x8,[x8]
	str         x8,[sp,#0xB0]
|$LN91@ComposeFra|
	ldr         x8,[sp,#0xB0]
	cmp         x8,#0
	beq         |$LN90@ComposeFra|

; 1153 : 					clipInfo = (WinSharedInfo*)clipWin->sharedInfo;

	ldr         x8,[sp,#0xB0]
	add         x8,x8,#0x10
	ldr         x8,[x8]
	str         x8,[sp,#0x100]

; 1154 : 					if (clipWin == win)

	ldr         x9,[sp,#0x48]
	ldr         x8,[sp,#0xB0]
	cmp         x8,x9
	bne         |$LN177@ComposeFra|

; 1155 : 						continue;

	b           |$LN89@ComposeFra|
|$LN177@ComposeFra|

; 1156 : 					r2.x = clipInfo->x;

	ldr         x9,[sp,#0x100]
	mov         x8,#0x1008
	add         x8,x9,x8
	ldr         w8,[x8]
	str         w8,[sp,#0x1F0]

; 1157 : 					r2.y = clipInfo->y;

	ldr         x9,[sp,#0x100]
	mov         x8,#0x100C
	add         x8,x9,x8
	ldr         w8,[x8]
	str         w8,[sp,#0x1F4]

; 1158 : 					r2.w = clipInfo->width;

	ldr         x9,[sp,#0x100]
	mov         x8,#0x1010
	add         x8,x9,x8
	ldr         w8,[x8]
	str         w8,[sp,#0x1F8]

; 1159 : 					r2.h = clipInfo->height;

	ldr         x9,[sp,#0x100]
	mov         x8,#0x1014
	add         x8,x9,x8
	ldr         w8,[x8]
	str         w8,[sp,#0x1FC]

; 1160 : 					
; 1161 : 					if (ClipCheckIntersect(&r1, &r2)) {

	add         x1,sp,#0x1F0
	add         x0,sp,#0x278
	bl          |?ClipCheckIntersect@@YADPEAU_rect_@@0@Z|
	sxtb        w8,w0
	mov         w8,w8
	cmp         w8,#0
	beq         |$LN178@ComposeFra|

; 1162 : 						_intersected_ = true;

	mov         w8,#1
	strb        w8,[sp,#0x18]

; 1163 : 						ClipCalculateRect(&r1, &r2, clip, &clipCount);

	add         x3,sp,#0xC8
	mov         xip0,#0x15B8
	add         x2,sp,xip0
	add         x1,sp,#0x1F0
	add         x0,sp,#0x278
	bl          |?ClipCalculateRect@@YAXPEAU_rect_@@00PEAH@Z|
|$LN178@ComposeFra|

; 1164 : 					}
; 1165 : 				}

	b           |$LN89@ComposeFra|
|$LN90@ComposeFra|

; 1166 : 
; 1167 : 
; 1168 : 				for (int i = 0; i < height; i++) {

	mov         w8,#0
	str         w8,[sp,#0xF4]
	b           |$LN94@ComposeFra|
|$LN92@ComposeFra|
	ldr         w8,[sp,#0xF4]
	add         w8,w8,#1
	str         w8,[sp,#0xF4]
|$LN94@ComposeFra|
	ldr         w9,[sp,#0xA0]
	ldr         w8,[sp,#0xF4]
	cmp         w8,w9
	bge         |$LN93@ComposeFra|

; 1169 : 					void* canvas_buff = (canvas->buffer + (static_cast<int64_t>(winy) + i) * canvas->canvasWidth + winx);

	ldr         x8,[sp,#8]
	add         x10,x8,#0x20
	ldr         w8,[sp,#0x3C]
	sxtw        x9,w8
	ldr         w8,[sp,#0xF4]
	sxtw        x8,w8
	add         x9,x9,x8
	ldr         x8,[sp,#8]
	add         x8,x8,#0x18
	ldr         w8,[x8]
	uxtw        x8,w8
	mul         x9,x9,x8
	mov         x8,#4
	mul         x9,x9,x8
	ldr         x8,[x10]
	add         x10,x8,x9
	ldr         w8,[sp,#0x40]
	sxtw        x9,w8
	mov         x8,#4
	mul         x8,x9,x8
	add         x8,x10,x8
	str         x8,[sp,#0x2C0]

; 1170 : 					void* winbuff = (win->backBuffer + (0 + static_cast<int64_t>(i)) * info->width + 0);

	ldr         x8,[sp,#0x48]
	add         x11,x8,#8
	ldr         w8,[sp,#0xF4]
	sxtw        x10,w8
	ldr         x9,[sp,#0x10]
	mov         x8,#0x1010
	add         x8,x9,x8
	ldr         w8,[x8]
	sxtw        x8,w8
	mul         x9,x10,x8
	mov         x8,#4
	mul         x9,x9,x8
	ldr         x8,[x11]
	add         x8,x8,x9
	str         x8,[sp,#0x2B8]

; 1171 : 					_fastcpy(canvas_buff, winbuff, static_cast<int64_t>(width) * 4);

	ldr         w8,[sp,#0xA4]
	sxtw        x9,w8
	mov         x8,#4
	mul         x2,x9,x8
	ldr         x1,[sp,#0x2B8]
	ldr         x0,[sp,#0x2C0]
	bl          _fastcpy

; 1172 : 				}

	b           |$LN92@ComposeFra|
|$LN93@ComposeFra|

; 1173 : 
; 1174 : 
; 1175 : 				if ((clipCount == 0 && info->updateEntireWindow) || (clipCount == 0 && !_window_moving_)) 	

	ldr         w8,[sp,#0xC8]
	cmp         w8,#0
	bne         |$LN181@ComposeFra|
	ldr         x9,[sp,#0x10]
	mov         x8,#0x1005
	add         x8,x9,x8
	ldrsb       w8,[x8]
	mov         w8,w8
	cmp         w8,#0
	bne         |$LN180@ComposeFra|
|$LN181@ComposeFra|
	ldr         w8,[sp,#0xC8]
	cmp         w8,#0
	bne         |$LN179@ComposeFra|
	adrp        x8,|?_window_moving_@@3DA|
	ldrsb       w8,[x8,PageOffset(|?_window_moving_@@3DA|)]
	mov         w8,w8
	cmp         w8,#0
	bne         |$LN179@ComposeFra|
|$LN180@ComposeFra|

; 1176 : 					AddDirtyClip(winx, winy, width, height);

	ldr         w3,[sp,#0xA0]
	ldr         w2,[sp,#0xA4]
	ldr         w1,[sp,#0x3C]
	ldr         w0,[sp,#0x40]
	bl          |?AddDirtyClip@@YAXHHHH@Z|
|$LN179@ComposeFra|

; 1177 : 				
; 1178 : 
; 1179 : 
; 1180 : 				for (int m = 0; m < clipCount; m++) {

	mov         w8,#0
	str         w8,[sp,#0x68]
	b           |$LN97@ComposeFra|
|$LN95@ComposeFra|
	ldr         w8,[sp,#0x68]
	add         w8,w8,#1
	str         w8,[sp,#0x68]
|$LN97@ComposeFra|
	ldr         w9,[sp,#0xC8]
	ldr         w8,[sp,#0x68]
	cmp         w8,w9
	bge         |$LN96@ComposeFra|

; 1181 : 					int k_x = clip[m].x;

	ldr         w8,[sp,#0x68]
	sxtw        x9,w8
	mov         x8,#0x10
	mul         x9,x9,x8
	mov         xip0,#0x15B8
	add         x8,sp,xip0
	add         x8,x8,x9
	ldr         w8,[x8]
	str         w8,[sp,#0xFC]

; 1182 : 					int k_y = clip[m].y;

	ldr         w8,[sp,#0x68]
	sxtw        x9,w8
	mov         x8,#0x10
	mul         x9,x9,x8
	mov         xip0,#0x15B8
	add         x8,sp,xip0
	add         x8,x8,x9
	add         x8,x8,#4
	ldr         w8,[x8]
	str         w8,[sp,#0xF8]

; 1183 : 					int k_w = clip[m].w;

	ldr         w8,[sp,#0x68]
	sxtw        x9,w8
	mov         x8,#0x10
	mul         x9,x9,x8
	mov         xip0,#0x15B8
	add         x8,sp,xip0
	add         x8,x8,x9
	add         x8,x8,#8
	ldr         w8,[x8]
	str         w8,[sp,#0x124]

; 1184 : 					int k_h = clip[m].h;

	ldr         w8,[sp,#0x68]
	sxtw        x9,w8
	mov         x8,#0x10
	mul         x9,x9,x8
	mov         xip0,#0x15B8
	add         x8,sp,xip0
	add         x8,x8,x9
	add         x8,x8,#0xC
	ldr         w8,[x8]
	str         w8,[sp,#0x120]

; 1185 : 
; 1186 : 					if (k_x < 0)

	ldr         w8,[sp,#0xFC]
	cmp         w8,#0
	bge         |$LN182@ComposeFra|

; 1187 : 						k_x = 0;

	mov         w8,#0
	str         w8,[sp,#0xFC]
|$LN182@ComposeFra|

; 1188 : 					if (k_y < 0)

	ldr         w8,[sp,#0xF8]
	cmp         w8,#0
	bge         |$LN183@ComposeFra|

; 1189 : 						k_y = 0;

	mov         w8,#0
	str         w8,[sp,#0xF8]
|$LN183@ComposeFra|

; 1190 : 					if ((k_x + k_w) >= canvas->screenWidth)

	ldr         w9,[sp,#0xFC]
	ldr         w8,[sp,#0x124]
	add         w9,w9,w8
	ldr         x8,[sp,#8]
	add         x8,x8,#4
	ldr         w8,[x8]
	cmp         w9,w8
	blo         |$LN184@ComposeFra|

; 1191 : 						k_w = canvas->screenWidth - k_x;

	ldr         x8,[sp,#8]
	add         x8,x8,#4
	ldr         w9,[x8]
	ldr         w8,[sp,#0xFC]
	sub         w8,w9,w8
	str         w8,[sp,#0x124]
|$LN184@ComposeFra|

; 1192 : 					if ((k_y + k_h) >= canvas->screenHeight)

	ldr         w9,[sp,#0xF8]
	ldr         w8,[sp,#0x120]
	add         w9,w9,w8
	ldr         x8,[sp,#8]
	add         x8,x8,#8
	ldr         w8,[x8]
	cmp         w9,w8
	blo         |$LN185@ComposeFra|

; 1193 : 						k_h = canvas->screenHeight - k_y;

	ldr         x8,[sp,#8]
	add         x8,x8,#8
	ldr         w9,[x8]
	ldr         w8,[sp,#0xF8]
	sub         w8,w9,w8
	str         w8,[sp,#0x120]
|$LN185@ComposeFra|

; 1194 : 
; 1195 : 
; 1196 : 					AddDirtyClip(k_x, k_y, k_w, k_h);

	ldr         w3,[sp,#0x120]
	ldr         w2,[sp,#0x124]
	ldr         w1,[sp,#0xF8]
	ldr         w0,[sp,#0xFC]
	bl          |?AddDirtyClip@@YAXHHHH@Z|

; 1197 : 					clipCount = 0;

	mov         w8,#0
	str         w8,[sp,#0xC8]

; 1198 : 				}

	b           |$LN95@ComposeFra|
|$LN96@ComposeFra|
|$LN174@ComposeFra|

; 1199 : 			}
; 1200 : 
; 1201 : 			
; 1202 : 			if (win->animFrameCount == 0)

	ldr         x8,[sp,#0x48]
	add         x8,x8,#0x39
	ldrb        w8,[x8]
	mov         w8,w8
	cmp         w8,#0
	bne         |$LN186@ComposeFra|

; 1203 : 				info->updateEntireWindow = 0;

	ldr         x9,[sp,#0x10]
	mov         x8,#0x1005
	add         x9,x9,x8
	mov         w8,#0
	strb        w8,[x9]
|$LN186@ComposeFra|

; 1204 : 
; 1205 : 			if (!info->windowReady)

	ldr         x9,[sp,#0x10]
	mov         x8,#0x1028
	add         x8,x9,x8
	ldrsb       w8,[x8]
	mov         w8,w8
	cmp         w8,#0
	bne         |$LN187@ComposeFra|

; 1206 : 				info->windowReady = 1;

	ldr         x9,[sp,#0x10]
	mov         x8,#0x1028
	add         x9,x9,x8
	mov         w8,#1
	strb        w8,[x9]
|$LN187@ComposeFra|
|$LN164@ComposeFra|

; 1207 : 		}
; 1208 : 	}

	b           |$LN56@ComposeFra|
|$LN57@ComposeFra|

; 1209 : 
; 1210 : 	CursorStoreBack(canvas, currentCursor, currentCursor->xpos, currentCursor->ypos);

	adrp        x8,|?currentCursor@@3PEAU_cursor_@@EA|
	ldr         x8,[x8,PageOffset(|?currentCursor@@3PEAU_cursor_@@EA|)]
	add         x9,x8,#0x24
	adrp        x8,|?currentCursor@@3PEAU_cursor_@@EA|
	ldr         x8,[x8,PageOffset(|?currentCursor@@3PEAU_cursor_@@EA|)]
	add         x8,x8,#0x20
	ldr         w3,[x9]
	ldr         w2,[x8]
	adrp        x8,|?currentCursor@@3PEAU_cursor_@@EA|
	ldr         x1,[x8,PageOffset(|?currentCursor@@3PEAU_cursor_@@EA|)]
	ldr         x0,[sp,#8]
	bl          |?CursorStoreBack@@YAXPEAU_ChCanvas_@@PEAU_cursor_@@II@Z|

; 1211 : 
; 1212 : 	CursorDraw(canvas, currentCursor, currentCursor->xpos, currentCursor->ypos);

	adrp        x8,|?currentCursor@@3PEAU_cursor_@@EA|
	ldr         x8,[x8,PageOffset(|?currentCursor@@3PEAU_cursor_@@EA|)]
	add         x9,x8,#0x24
	adrp        x8,|?currentCursor@@3PEAU_cursor_@@EA|
	ldr         x8,[x8,PageOffset(|?currentCursor@@3PEAU_cursor_@@EA|)]
	add         x8,x8,#0x20
	ldr         w3,[x9]
	ldr         w2,[x8]
	adrp        x8,|?currentCursor@@3PEAU_cursor_@@EA|
	ldr         x1,[x8,PageOffset(|?currentCursor@@3PEAU_cursor_@@EA|)]
	ldr         x0,[sp,#8]
	bl          |?CursorDraw@@YAXPEAU_ChCanvas_@@PEAU_cursor_@@II@Z|

; 1213 : 	AddDirtyClip(currentCursor->xpos, currentCursor->ypos, 24, 24);

	adrp        x8,|?currentCursor@@3PEAU_cursor_@@EA|
	ldr         x8,[x8,PageOffset(|?currentCursor@@3PEAU_cursor_@@EA|)]
	add         x9,x8,#0x24
	adrp        x8,|?currentCursor@@3PEAU_cursor_@@EA|
	ldr         x8,[x8,PageOffset(|?currentCursor@@3PEAU_cursor_@@EA|)]
	add         x8,x8,#0x20
	mov         w3,#0x18
	mov         w2,#0x18
	ldr         w1,[x9]
	ldr         w0,[x8]
	bl          |?AddDirtyClip@@YAXHHHH@Z|

; 1214 : 	
; 1215 : 	/* finally present all updates to framebuffer */
; 1216 : 	DirtyScreenUpdate(canvas);

	ldr         x0,[sp,#8]
	bl          |?DirtyScreenUpdate@@YAXPEAU_ChCanvas_@@@Z|

; 1217 : 
; 1218 : 
; 1219 : 	if (_window_update_all_)

	adrp        x8,|?_window_update_all_@@3DA|
	ldrsb       w8,[x8,PageOffset(|?_window_update_all_@@3DA|)]
	mov         w8,w8
	cmp         w8,#0
	beq         |$LN188@ComposeFra|

; 1220 : 		_window_update_all_ = false;

	adrp        x9,|?_window_update_all_@@3DA|
	mov         w8,#0
	strb        w8,[x9,PageOffset(|?_window_update_all_@@3DA|)]
|$LN188@ComposeFra|

; 1221 : 
; 1222 : 	if (_always_on_top_update)

	adrp        x8,|?_always_on_top_update@@3DA|
	ldrsb       w8,[x8,PageOffset(|?_always_on_top_update@@3DA|)]
	mov         w8,w8
	cmp         w8,#0
	beq         |$LN189@ComposeFra|

; 1223 : 		_always_on_top_update = false;

	adrp        x9,|?_always_on_top_update@@3DA|
	mov         w8,#0
	strb        w8,[x9,PageOffset(|?_always_on_top_update@@3DA|)]
|$LN189@ComposeFra|

; 1224 : 	
; 1225 : 	if (_window_moving_)

	adrp        x8,|?_window_moving_@@3DA|
	ldrsb       w8,[x8,PageOffset(|?_window_moving_@@3DA|)]
	mov         w8,w8
	cmp         w8,#0
	beq         |$LN190@ComposeFra|

; 1226 : 		_window_moving_ = false;

	adrp        x9,|?_window_moving_@@3DA|
	mov         w8,#0
	strb        w8,[x9,PageOffset(|?_window_moving_@@3DA|)]
|$LN190@ComposeFra|

; 1227 : 
; 1228 : 	if (_skip_disable_)

	adrp        x8,|?_skip_disable_@@3DA|
	ldrsb       w8,[x8,PageOffset(|?_skip_disable_@@3DA|)]
	mov         w8,w8
	cmp         w8,#0
	beq         |$LN191@ComposeFra|

; 1229 : 		_skip_disable_ = false;

	adrp        x9,|?_skip_disable_@@3DA|
	mov         w8,#0
	strb        w8,[x9,PageOffset(|?_skip_disable_@@3DA|)]
|$LN191@ComposeFra|

; 1230 : 
; 1231 : 	currentCursor->oldXPos = currentCursor->xpos;

	adrp        x8,|?currentCursor@@3PEAU_cursor_@@EA|
	ldr         x8,[x8,PageOffset(|?currentCursor@@3PEAU_cursor_@@EA|)]
	add         x10,x8,#0x20
	adrp        x8,|?currentCursor@@3PEAU_cursor_@@EA|
	ldr         x8,[x8,PageOffset(|?currentCursor@@3PEAU_cursor_@@EA|)]
	add         x9,x8,#0x28
	ldr         w8,[x10]
	str         w8,[x9]

; 1232 : 	currentCursor->oldYPos = currentCursor->ypos;

	adrp        x8,|?currentCursor@@3PEAU_cursor_@@EA|
	ldr         x8,[x8,PageOffset(|?currentCursor@@3PEAU_cursor_@@EA|)]
	add         x10,x8,#0x24
	adrp        x8,|?currentCursor@@3PEAU_cursor_@@EA|
	ldr         x8,[x8,PageOffset(|?currentCursor@@3PEAU_cursor_@@EA|)]
	add         x9,x8,#0x2C
	ldr         w8,[x10]
	str         w8,[x9]
	mov         x15,#0x1C0
	add         sp,sp,x15,lsl #4
	ldr         lr,[sp],#0x10
	ret

	ENDP  ; |?ComposeFrame@@YAXPEAU_ChCanvas_@@@Z|, ComposeFrame

; Function compile flags: /Odtpy
; File C:\Users\paras\source\repos\grep-name\XenevaOS\Process\Deodhai\deomain.cpp

	AREA	|.text$mn|, CODE, ARM64

|?DeodhaiWindowCheckDraggable@@YAXHHH@Z| PROC		; DeodhaiWindowCheckDraggable

; 513  : void DeodhaiWindowCheckDraggable(int x, int y, int button) {

|$LN15|
	str         lr,[sp,#-0x10]!
	sub         sp,sp,#0x30
	str         w0,[sp,#4]
	str         w1,[sp]
	str         w2,[sp,#8]

; 514  : 	
; 515  : 	for (Window* win = lastWin; win != NULL; win = win->prev) {

	adrp        x8,|?lastWin@@3PEAU_win_@@EA|
	ldr         x8,[x8,PageOffset(|?lastWin@@3PEAU_win_@@EA|)]
	str         x8,[sp,#0x20]
	b           |$LN4@DeodhaiWin|
|$LN2@DeodhaiWin|
	ldr         x8,[sp,#0x20]
	add         x8,x8,#0x70
	ldr         x8,[x8]
	str         x8,[sp,#0x20]
|$LN4@DeodhaiWin|
	ldr         x8,[sp,#0x20]
	cmp         x8,#0
	beq         |$LN3@DeodhaiWin|

; 516  : 		WinSharedInfo* info = (WinSharedInfo*)win->sharedInfo;

	ldr         x8,[sp,#0x20]
	add         x8,x8,#0x10
	ldr         x8,[x8]
	str         x8,[sp,#0x18]

; 517  : 		//_KePrint("INFO->x %d, mx -> %d \r\n", info->x, x);
; 518  : 		if (!(x >= (info->x + 10) && x < (info->x + info->width - 74) &&

	ldr         x9,[sp,#0x18]
	mov         x8,#0x1008
	add         x8,x9,x8
	ldr         w8,[x8]
	add         w9,w8,#0xA
	ldr         w8,[sp,#4]
	cmp         w8,w9
	blt         |$LN6@DeodhaiWin|
	ldr         x9,[sp,#0x18]
	mov         x8,#0x1008
	add         x10,x9,x8
	ldr         x9,[sp,#0x18]
	mov         x8,#0x1010
	add         x8,x9,x8
	ldr         w9,[x10]
	ldr         w8,[x8]
	add         w8,w9,w8
	sub         w9,w8,#0x4A
	ldr         w8,[sp,#4]
	cmp         w8,w9
	bge         |$LN6@DeodhaiWin|
	ldr         x9,[sp,#0x18]
	mov         x8,#0x100C
	add         x8,x9,x8
	ldr         w9,[x8]
	ldr         w8,[sp]
	cmp         w8,w9
	blt         |$LN6@DeodhaiWin|
	ldr         x9,[sp,#0x18]
	mov         x8,#0x100C
	add         x10,x9,x8
	ldr         x9,[sp,#0x18]
	mov         x8,#0x1014
	add         x8,x9,x8
	ldr         w9,[x10]
	ldr         w8,[x8]
	add         w9,w9,w8
	ldr         w8,[sp]
	cmp         w8,w9
	blt         |$LN5@DeodhaiWin|
|$LN6@DeodhaiWin|

; 519  : 			y >= info->y && y < (info->y + info->height)))
; 520  : 			continue;

	b           |$LN2@DeodhaiWin|
|$LN5@DeodhaiWin|

; 521  : 
; 522  : 		if (button && !lastMouseButton) {

	ldr         w8,[sp,#8]
	cmp         w8,#0
	beq         |$LN7@DeodhaiWin|
	adrp        x8,|?lastMouseButton@@3HA|
	ldr         w8,[x8,PageOffset(|?lastMouseButton@@3HA|)]
	cmp         w8,#0
	bne         |$LN7@DeodhaiWin|

; 523  : 			if (y >= info->y && y < (info->y + 26)) {

	ldr         x9,[sp,#0x18]
	mov         x8,#0x100C
	add         x8,x9,x8
	ldr         w9,[x8]
	ldr         w8,[sp]
	cmp         w8,w9
	blt         |$LN8@DeodhaiWin|
	ldr         x9,[sp,#0x18]
	mov         x8,#0x100C
	add         x8,x9,x8
	ldr         w8,[x8]
	add         w9,w8,#0x1A
	ldr         w8,[sp]
	cmp         w8,w9
	bge         |$LN8@DeodhaiWin|

; 524  : 				/* check if the point is occluded */
; 525  : 				if (DeodhaiCheckWindowPointOcclusion(win, x, y))

	ldr         w2,[sp]
	ldr         w1,[sp,#4]
	ldr         x0,[sp,#0x20]
	bl          |?DeodhaiCheckWindowPointOcclusion@@YADPEAU_win_@@HH@Z|
	sxtb        w8,w0
	mov         w8,w8
	cmp         w8,#0
	beq         |$LN9@DeodhaiWin|

; 526  : 					return;

	b           |$LN1@DeodhaiWin|
|$LN9@DeodhaiWin|

; 527  : 				if (win->flags & WINDOW_FLAG_STATIC)

	ldr         x8,[sp,#0x20]
	ldrh        w8,[x8]
	mov         w8,w8
	tbz         x8,#1,|$LN10@DeodhaiWin|

; 528  : 					return;

	b           |$LN1@DeodhaiWin|
|$LN10@DeodhaiWin|

; 529  : 				DeodhaiWindowSetFocused(win, true);

	mov         w1,#1
	ldr         x0,[sp,#0x20]
	bl          |?DeodhaiWindowSetFocused@@YAXPEAU_win_@@D@Z|

; 530  : 				dragWin = win;

	adrp        x9,|?dragWin@@3PEAU_win_@@EA|
	ldr         x8,[sp,#0x20]
	str         x8,[x9,PageOffset(|?dragWin@@3PEAU_win_@@EA|)]

; 531  : 				dragWin->dragX = x - info->x;

	ldr         x9,[sp,#0x18]
	mov         x8,#0x1008
	add         x8,x9,x8
	ldr         w9,[sp,#4]
	ldr         w8,[x8]
	sub         w9,w9,w8
	adrp        x8,|?dragWin@@3PEAU_win_@@EA|
	ldr         x8,[x8,PageOffset(|?dragWin@@3PEAU_win_@@EA|)]
	add         x8,x8,#0x28
	str         w9,[x8]

; 532  : 				dragWin->dragY = y - info->y;

	ldr         x9,[sp,#0x18]
	mov         x8,#0x100C
	add         x8,x9,x8
	ldr         w9,[sp]
	ldr         w8,[x8]
	sub         w9,w9,w8
	adrp        x8,|?dragWin@@3PEAU_win_@@EA|
	ldr         x8,[x8,PageOffset(|?dragWin@@3PEAU_win_@@EA|)]
	add         x8,x8,#0x2C
	str         w9,[x8]

; 533  : 				break;

	b           |$LN3@DeodhaiWin|
|$LN8@DeodhaiWin|
|$LN7@DeodhaiWin|

; 534  : 			}
; 535  : 		}
; 536  : 	}

	b           |$LN2@DeodhaiWin|
|$LN3@DeodhaiWin|

; 537  : 
; 538  : 	if (dragWin) {

	adrp        x8,|?dragWin@@3PEAU_win_@@EA|
	ldr         x8,[x8,PageOffset(|?dragWin@@3PEAU_win_@@EA|)]
	cmp         x8,#0
	beq         |$LN11@DeodhaiWin|

; 539  : 		_window_broadcast_mouse_ = false;

	adrp        x9,|?_window_broadcast_mouse_@@3DA|
	mov         w8,#0
	strb        w8,[x9,PageOffset(|?_window_broadcast_mouse_@@3DA|)]

; 540  : 		WinSharedInfo* winInfo = (WinSharedInfo*)dragWin->sharedInfo;

	adrp        x8,|?dragWin@@3PEAU_win_@@EA|
	ldr         x8,[x8,PageOffset(|?dragWin@@3PEAU_win_@@EA|)]
	add         x8,x8,#0x10
	ldr         x8,[x8]
	str         x8,[sp,#0x28]

; 541  : 		int posx = x - dragWin->dragX;

	adrp        x8,|?dragWin@@3PEAU_win_@@EA|
	ldr         x8,[x8,PageOffset(|?dragWin@@3PEAU_win_@@EA|)]
	add         x8,x8,#0x28
	ldr         w9,[sp,#4]
	ldr         w8,[x8]
	sub         w8,w9,w8
	str         w8,[sp,#0x10]

; 542  : 		int posy = y - dragWin->dragY;

	adrp        x8,|?dragWin@@3PEAU_win_@@EA|
	ldr         x8,[x8,PageOffset(|?dragWin@@3PEAU_win_@@EA|)]
	add         x8,x8,#0x2C
	ldr         w9,[sp]
	ldr         w8,[x8]
	sub         w8,w9,w8
	str         w8,[sp,#0xC]

; 543  : 		ChangeCursor(move);

	adrp        x8,|?move@@3PEAU_cursor_@@EA|
	ldr         x0,[x8,PageOffset(|?move@@3PEAU_cursor_@@EA|)]
	bl          |?ChangeCursor@@YAXPEAU_cursor_@@@Z|

; 544  : 		DeodhaiWindowMove(dragWin, posx, posy);

	ldr         w2,[sp,#0xC]
	ldr         w1,[sp,#0x10]
	adrp        x8,|?dragWin@@3PEAU_win_@@EA|
	ldr         x0,[x8,PageOffset(|?dragWin@@3PEAU_win_@@EA|)]
	bl          |?DeodhaiWindowMove@@YAXPEAU_win_@@HH@Z|
|$LN11@DeodhaiWin|

; 545  : 	}
; 546  : 
; 547  : 	if (!button){

	ldr         w8,[sp,#8]
	cmp         w8,#0
	bne         |$LN12@DeodhaiWin|

; 548  : 		if (dragWin) 

	adrp        x8,|?dragWin@@3PEAU_win_@@EA|
	ldr         x8,[x8,PageOffset(|?dragWin@@3PEAU_win_@@EA|)]
	cmp         x8,#0
	beq         |$LN13@DeodhaiWin|

; 549  : 			ChangeCursor(arrow);

	adrp        x8,|?arrow@@3PEAU_cursor_@@EA|
	ldr         x0,[x8,PageOffset(|?arrow@@3PEAU_cursor_@@EA|)]
	bl          |?ChangeCursor@@YAXPEAU_cursor_@@@Z|
|$LN13@DeodhaiWin|

; 550  : 		dragWin = NULL;

	adrp        x9,|?dragWin@@3PEAU_win_@@EA|
	mov         x8,#0
	str         x8,[x9,PageOffset(|?dragWin@@3PEAU_win_@@EA|)]

; 551  : 		reszWin = NULL;

	adrp        x9,|?reszWin@@3PEAU_win_@@EA|
	mov         x8,#0
	str         x8,[x9,PageOffset(|?reszWin@@3PEAU_win_@@EA|)]

; 552  : 		_window_broadcast_mouse_ = true;

	adrp        x9,|?_window_broadcast_mouse_@@3DA|
	mov         w8,#1
	strb        w8,[x9,PageOffset(|?_window_broadcast_mouse_@@3DA|)]
|$LN12@DeodhaiWin|

; 553  : 	}
; 554  : 
; 555  : 	lastMouseButton = button;

	adrp        x9,|?lastMouseButton@@3HA|
	ldr         w8,[sp,#8]
	str         w8,[x9,PageOffset(|?lastMouseButton@@3HA|)]
|$LN1@DeodhaiWin|
	add         sp,sp,#0x30
	ldr         lr,[sp],#0x10
	ret

	ENDP  ; |?DeodhaiWindowCheckDraggable@@YAXHHH@Z|, DeodhaiWindowCheckDraggable

; Function compile flags: /Odtpy
; File C:\Users\paras\source\repos\grep-name\XenevaOS\Process\Deodhai\deomain.cpp

	AREA	|.text$mn|, CODE, ARM64

|?DeodhaiCheckWindowPointOcclusion@@YADPEAU_win_@@HH@Z| PROC ; DeodhaiCheckWindowPointOcclusion

; 480  : bool DeodhaiCheckWindowPointOcclusion(Window* win, int x, int y) {

|$LN14|
	sub         sp,sp,#0x40
	str         x0,[sp,#0x30]
	str         w1,[sp,#4]
	str         w2,[sp,#8]

; 481  : 	bool occluded = false;

	mov         w8,#0
	strb        w8,[sp]

; 482  : 	for (Window* check = win; check != NULL; check = check->next){

	ldr         x8,[sp,#0x30]
	str         x8,[sp,#0x20]
	b           |$LN4@DeodhaiChe|
|$LN2@DeodhaiChe|
	ldr         x8,[sp,#0x20]
	add         x8,x8,#0x68
	ldr         x8,[x8]
	str         x8,[sp,#0x20]
|$LN4@DeodhaiChe|
	ldr         x8,[sp,#0x20]
	cmp         x8,#0
	beq         |$LN3@DeodhaiChe|

; 483  : 		WinSharedInfo* info = (WinSharedInfo*)check->sharedInfo;

	ldr         x8,[sp,#0x20]
	add         x8,x8,#0x10
	ldr         x8,[x8]
	str         x8,[sp,#0x18]

; 484  : 		if (check == win)

	ldr         x9,[sp,#0x30]
	ldr         x8,[sp,#0x20]
	cmp         x8,x9
	bne         |$LN8@DeodhaiChe|

; 485  : 			continue;

	b           |$LN2@DeodhaiChe|
|$LN8@DeodhaiChe|

; 486  : 		if (x >= info->x && x < (info->x + info->width) &&
; 487  : 			y >= info->y && y < (info->y + info->height)){

	ldr         x9,[sp,#0x18]
	mov         x8,#0x1008
	add         x8,x9,x8
	ldr         w9,[x8]
	ldr         w8,[sp,#4]
	cmp         w8,w9
	blt         |$LN9@DeodhaiChe|
	ldr         x9,[sp,#0x18]
	mov         x8,#0x1008
	add         x10,x9,x8
	ldr         x9,[sp,#0x18]
	mov         x8,#0x1010
	add         x8,x9,x8
	ldr         w9,[x10]
	ldr         w8,[x8]
	add         w9,w9,w8
	ldr         w8,[sp,#4]
	cmp         w8,w9
	bge         |$LN9@DeodhaiChe|
	ldr         x9,[sp,#0x18]
	mov         x8,#0x100C
	add         x8,x9,x8
	ldr         w9,[x8]
	ldr         w8,[sp,#8]
	cmp         w8,w9
	blt         |$LN9@DeodhaiChe|
	ldr         x9,[sp,#0x18]
	mov         x8,#0x100C
	add         x10,x9,x8
	ldr         x9,[sp,#0x18]
	mov         x8,#0x1014
	add         x8,x9,x8
	ldr         w9,[x10]
	ldr         w8,[x8]
	add         w9,w9,w8
	ldr         w8,[sp,#8]
	cmp         w8,w9
	bge         |$LN9@DeodhaiChe|

; 488  : 			occluded = true;

	mov         w8,#1
	strb        w8,[sp]

; 489  : 			break;

	b           |$LN3@DeodhaiChe|
|$LN9@DeodhaiChe|

; 490  : 		}
; 491  : 	}

	b           |$LN2@DeodhaiChe|
|$LN3@DeodhaiChe|

; 492  : 
; 493  : 	for (Window* check = alwaysOnTop; check != NULL; check = check->next){

	adrp        x8,|?alwaysOnTop@@3PEAU_win_@@EA|
	ldr         x8,[x8,PageOffset(|?alwaysOnTop@@3PEAU_win_@@EA|)]
	str         x8,[sp,#0x28]
	b           |$LN7@DeodhaiChe|
|$LN5@DeodhaiChe|
	ldr         x8,[sp,#0x28]
	add         x8,x8,#0x68
	ldr         x8,[x8]
	str         x8,[sp,#0x28]
|$LN7@DeodhaiChe|
	ldr         x8,[sp,#0x28]
	cmp         x8,#0
	beq         |$LN6@DeodhaiChe|

; 494  : 		WinSharedInfo* info = (WinSharedInfo*)check->sharedInfo;

	ldr         x8,[sp,#0x28]
	add         x8,x8,#0x10
	ldr         x8,[x8]
	str         x8,[sp,#0x10]

; 495  : 		if (check == win)

	ldr         x9,[sp,#0x30]
	ldr         x8,[sp,#0x28]
	cmp         x8,x9
	bne         |$LN10@DeodhaiChe|

; 496  : 			continue;

	b           |$LN5@DeodhaiChe|
|$LN10@DeodhaiChe|

; 497  : 		if (info->hide)

	ldr         x9,[sp,#0x10]
	mov         x8,#0x1019
	add         x8,x9,x8
	ldrsb       w8,[x8]
	mov         w8,w8
	cmp         w8,#0
	beq         |$LN11@DeodhaiChe|

; 498  : 			continue;

	b           |$LN5@DeodhaiChe|
|$LN11@DeodhaiChe|

; 499  : 		if (x >= info->x && x < (info->x + info->width) &&
; 500  : 			y >= info->y && y < (info->y + info->height)){

	ldr         x9,[sp,#0x10]
	mov         x8,#0x1008
	add         x8,x9,x8
	ldr         w9,[x8]
	ldr         w8,[sp,#4]
	cmp         w8,w9
	blt         |$LN12@DeodhaiChe|
	ldr         x9,[sp,#0x10]
	mov         x8,#0x1008
	add         x10,x9,x8
	ldr         x9,[sp,#0x10]
	mov         x8,#0x1010
	add         x8,x9,x8
	ldr         w9,[x10]
	ldr         w8,[x8]
	add         w9,w9,w8
	ldr         w8,[sp,#4]
	cmp         w8,w9
	bge         |$LN12@DeodhaiChe|
	ldr         x9,[sp,#0x10]
	mov         x8,#0x100C
	add         x8,x9,x8
	ldr         w9,[x8]
	ldr         w8,[sp,#8]
	cmp         w8,w9
	blt         |$LN12@DeodhaiChe|
	ldr         x9,[sp,#0x10]
	mov         x8,#0x100C
	add         x10,x9,x8
	ldr         x9,[sp,#0x10]
	mov         x8,#0x1014
	add         x8,x9,x8
	ldr         w9,[x10]
	ldr         w8,[x8]
	add         w9,w9,w8
	ldr         w8,[sp,#8]
	cmp         w8,w9
	bge         |$LN12@DeodhaiChe|

; 501  : 			occluded = true;

	mov         w8,#1
	strb        w8,[sp]

; 502  : 			break;

	b           |$LN6@DeodhaiChe|
|$LN12@DeodhaiChe|

; 503  : 		}
; 504  : 	}

	b           |$LN5@DeodhaiChe|
|$LN6@DeodhaiChe|

; 505  : 	return occluded;

	ldrsb       w0,[sp]
	add         sp,sp,#0x40
	ret

	ENDP  ; |?DeodhaiCheckWindowPointOcclusion@@YADPEAU_win_@@HH@Z|, DeodhaiCheckWindowPointOcclusion

; Function compile flags: /Odtpy
; File C:\Users\paras\source\repos\grep-name\XenevaOS\Process\Deodhai\deomain.cpp

	AREA	|.text$mn|, CODE, ARM64

|?DeodhaiWindowHide@@YAXPEAU_win_@@@Z| PROC		; DeodhaiWindowHide

; 451  : void DeodhaiWindowHide(Window* win) {

|$LN5|
	str         lr,[sp,#-0x10]!
	sub         sp,sp,#0x10
	str         x0,[sp,#8]

; 452  : 	WinSharedInfo *info = (WinSharedInfo*)win->sharedInfo;

	ldr         x8,[sp,#8]
	add         x8,x8,#0x10
	ldr         x8,[x8]
	str         x8,[sp]

; 453  : 	BackDirtyAdd(info->x, info->y, info->width, info->height);

	ldr         x9,[sp]
	mov         x8,#0x1014
	add         x12,x9,x8
	ldr         x9,[sp]
	mov         x8,#0x1010
	add         x11,x9,x8
	ldr         x9,[sp]
	mov         x8,#0x100C
	add         x10,x9,x8
	ldr         x9,[sp]
	mov         x8,#0x1008
	add         x8,x9,x8
	ldr         w3,[x12]
	ldr         w2,[x11]
	ldr         w1,[x10]
	ldr         w0,[x8]
	bl          |?BackDirtyAdd@@YAXHHHH@Z|

; 454  : 	if (info->hide) {

	ldr         x9,[sp]
	mov         x8,#0x1019
	add         x8,x9,x8
	ldrsb       w8,[x8]
	mov         w8,w8
	cmp         w8,#0
	beq         |$LN2@DeodhaiWin|

; 455  : 		/* UNHIDE the window , if its already hidden */
; 456  : 		info->hide = false;

	ldr         x9,[sp]
	mov         x8,#0x1019
	add         x9,x9,x8
	mov         w8,#0
	strb        w8,[x9]

; 457  : 		info->updateEntireWindow = true;

	ldr         x9,[sp]
	mov         x8,#0x1005
	add         x9,x9,x8
	mov         w8,#1
	strb        w8,[x9]

; 458  : 		info->dirty = 1;

	ldr         x9,[sp]
	mov         x8,#0x1004
	add         x9,x9,x8
	mov         w8,#1
	strb        w8,[x9]

; 459  : 		focusedWin = win;

	adrp        x9,|?focusedWin@@3PEAU_win_@@EA|
	ldr         x8,[sp,#8]
	str         x8,[x9,PageOffset(|?focusedWin@@3PEAU_win_@@EA|)]

; 460  : 	}

	b           |$LN3@DeodhaiWin|
|$LN2@DeodhaiWin|

; 461  : 	else{
; 462  : 		/* HIDE the window, if its not hidden */
; 463  : 		info->hide = true;

	ldr         x9,[sp]
	mov         x8,#0x1019
	add         x9,x9,x8
	mov         w8,#1
	strb        w8,[x9]

; 464  : 		focusedWin = NULL;

	adrp        x9,|?focusedWin@@3PEAU_win_@@EA|
	mov         x8,#0
	str         x8,[x9,PageOffset(|?focusedWin@@3PEAU_win_@@EA|)]
|$LN3@DeodhaiWin|

; 465  : 	}
; 466  : 
; 467  : 	_window_update_all_ = true;

	adrp        x9,|?_window_update_all_@@3DA|
	mov         w8,#1
	strb        w8,[x9,PageOffset(|?_window_update_all_@@3DA|)]

; 468  : 	_always_on_top_update = true;

	adrp        x9,|?_always_on_top_update@@3DA|
	mov         w8,#1
	strb        w8,[x9,PageOffset(|?_always_on_top_update@@3DA|)]
	add         sp,sp,#0x10
	ldr         lr,[sp],#0x10
	ret

	ENDP  ; |?DeodhaiWindowHide@@YAXPEAU_win_@@@Z|, DeodhaiWindowHide

; Function compile flags: /Odtpy
; File C:\Users\paras\source\repos\grep-name\XenevaOS\Process\Deodhai\deomain.cpp

	AREA	|.text$mn|, CODE, ARM64

|?DeodhaiWindowMove@@YAXPEAU_win_@@HH@Z| PROC		; DeodhaiWindowMove

; 383  : void DeodhaiWindowMove(Window* win, int x, int y) {

|$LN19|
	str         lr,[sp,#-0x10]!
	sub         sp,sp,#0x30
	str         x0,[sp,#0x20]
	str         w1,[sp,#8]
	str         w2,[sp,#0xC]

; 384  : 	if (_clients_advice)

	adrp        x8,|?_clients_advice@@3DA|
	ldrsb       w8,[x8,PageOffset(|?_clients_advice@@3DA|)]
	mov         w8,w8
	cmp         w8,#0
	beq         |$LN2@DeodhaiWin|

; 385  : 		goto _move_win;

	b           |$LN3@DeodhaiWin|
	b           |$_move_win$20|
|$LN2@DeodhaiWin|

; 386  : 
; 387  : 	if (win->flags & WINDOW_FLAG_STATIC)

	ldr         x8,[sp,#0x20]
	ldrh        w8,[x8]
	mov         w8,w8
	tbz         x8,#1,|$LN4@DeodhaiWin|

; 388  : 		return;

	b           |$LN1@DeodhaiWin|
|$LN4@DeodhaiWin|

; 389  : 
; 390  : 	if (win->flags & WINDOW_FLAG_ALWAYS_ON_TOP)

	ldr         x8,[sp,#0x20]
	ldrh        w8,[x8]
	mov         w8,w8
	tbz         x8,#2,|$LN5@DeodhaiWin|

; 391  : 		return;

	b           |$LN1@DeodhaiWin|
|$LN5@DeodhaiWin|

; 392  : 
; 393  : 	if (win->flags & WINDOW_FLAG_POPUP)

	ldr         x8,[sp,#0x20]
	ldrh        w8,[x8]
	mov         w8,w8
	tbz         x8,#0xB,|$LN6@DeodhaiWin|

; 394  : 		return;

	b           |$LN1@DeodhaiWin|
|$LN6@DeodhaiWin|

; 395  : 
; 396  : 	if (focusedWin != win)

	ldr         x9,[sp,#0x20]
	adrp        x8,|?focusedWin@@3PEAU_win_@@EA|
	ldr         x8,[x8,PageOffset(|?focusedWin@@3PEAU_win_@@EA|)]
	cmp         x8,x9
	beq         |$LN7@DeodhaiWin|

; 397  : 		DeodhaiWindowSetFocused(win, true);

	mov         w1,#1
	ldr         x0,[sp,#0x20]
	bl          |?DeodhaiWindowSetFocused@@YAXPEAU_win_@@D@Z|
|$LN7@DeodhaiWin|
|$LN3@DeodhaiWin|
|$_move_win$20|

; 398  : 
; 399  : _move_win:
; 400  : 
; 401  : 	_window_moving_ = true;

	adrp        x9,|?_window_moving_@@3DA|
	mov         w8,#1
	strb        w8,[x9,PageOffset(|?_window_moving_@@3DA|)]

; 402  : 
; 403  : 	WinSharedInfo *info = (WinSharedInfo*)win->sharedInfo;

	ldr         x8,[sp,#0x20]
	add         x8,x8,#0x10
	ldr         x8,[x8]
	str         x8,[sp,#0x18]

; 404  : 	int wx = info->x -SHADOW_SIZE;

	ldr         x9,[sp,#0x18]
	mov         x8,#0x1008
	add         x8,x9,x8
	ldr         w8,[x8]
	str         w8,[sp,#4]

; 405  : 	int wy = info->y - SHADOW_SIZE;

	ldr         x9,[sp,#0x18]
	mov         x8,#0x100C
	add         x8,x9,x8
	ldr         w8,[x8]
	str         w8,[sp]

; 406  : 	int ww = info->width +SHADOW_SIZE * 2;

	ldr         x9,[sp,#0x18]
	mov         x8,#0x1010
	add         x8,x9,x8
	ldr         w8,[x8]
	str         w8,[sp,#0x10]

; 407  : 	int wh = info->height + SHADOW_SIZE * 2;

	ldr         x9,[sp,#0x18]
	mov         x8,#0x1014
	add         x8,x9,x8
	ldr         w8,[x8]
	str         w8,[sp,#0x14]

; 408  : 
; 409  : 	if (wx > canvas->screenWidth)

	adrp        x8,|?canvas@@3PEAU_ChCanvas_@@EA|
	ldr         x8,[x8,PageOffset(|?canvas@@3PEAU_ChCanvas_@@EA|)]
	add         x8,x8,#4
	ldr         w9,[x8]
	ldr         w8,[sp,#4]
	cmp         w8,w9
	bls         |$LN8@DeodhaiWin|

; 410  : 		return;

	b           |$LN1@DeodhaiWin|
|$LN8@DeodhaiWin|

; 411  : 
; 412  : 	if (wy > canvas->screenHeight)

	adrp        x8,|?canvas@@3PEAU_ChCanvas_@@EA|
	ldr         x8,[x8,PageOffset(|?canvas@@3PEAU_ChCanvas_@@EA|)]
	add         x8,x8,#8
	ldr         w9,[x8]
	ldr         w8,[sp]
	cmp         w8,w9
	bls         |$LN9@DeodhaiWin|

; 413  : 		return;

	b           |$LN1@DeodhaiWin|
|$LN9@DeodhaiWin|

; 414  : 
; 415  : 	if (wx <= 0) 

	ldr         w8,[sp,#4]
	cmp         w8,#0
	bgt         |$LN10@DeodhaiWin|

; 416  : 		wx = SHADOW_SIZE + 5;

	mov         w8,#5
	str         w8,[sp,#4]
|$LN10@DeodhaiWin|

; 417  : 
; 418  : 
; 419  : 	if (wy <= 0) 

	ldr         w8,[sp]
	cmp         w8,#0
	bgt         |$LN11@DeodhaiWin|

; 420  : 		wy = SHADOW_SIZE + 5;

	mov         w8,#5
	str         w8,[sp]
|$LN11@DeodhaiWin|

; 421  : 
; 422  : 	if ((wx + ww) >= canvas->screenWidth)

	ldr         w9,[sp,#4]
	ldr         w8,[sp,#0x10]
	add         w9,w9,w8
	adrp        x8,|?canvas@@3PEAU_ChCanvas_@@EA|
	ldr         x8,[x8,PageOffset(|?canvas@@3PEAU_ChCanvas_@@EA|)]
	add         x8,x8,#4
	ldr         w8,[x8]
	cmp         w9,w8
	blo         |$LN12@DeodhaiWin|

; 423  : 		ww = canvas->screenWidth - info->x + SHADOW_SIZE;

	adrp        x8,|?canvas@@3PEAU_ChCanvas_@@EA|
	ldr         x8,[x8,PageOffset(|?canvas@@3PEAU_ChCanvas_@@EA|)]
	add         x10,x8,#4
	ldr         x9,[sp,#0x18]
	mov         x8,#0x1008
	add         x8,x9,x8
	ldr         w9,[x10]
	ldr         w8,[x8]
	sub         w8,w9,w8
	str         w8,[sp,#0x10]
|$LN12@DeodhaiWin|

; 424  : 
; 425  : 	if ((wy + wh) >= canvas->screenHeight)

	ldr         w9,[sp]
	ldr         w8,[sp,#0x14]
	add         w9,w9,w8
	adrp        x8,|?canvas@@3PEAU_ChCanvas_@@EA|
	ldr         x8,[x8,PageOffset(|?canvas@@3PEAU_ChCanvas_@@EA|)]
	add         x8,x8,#8
	ldr         w8,[x8]
	cmp         w9,w8
	blo         |$LN13@DeodhaiWin|

; 426  : 		wh = canvas->screenHeight - info->y + SHADOW_SIZE;

	adrp        x8,|?canvas@@3PEAU_ChCanvas_@@EA|
	ldr         x8,[x8,PageOffset(|?canvas@@3PEAU_ChCanvas_@@EA|)]
	add         x10,x8,#8
	ldr         x9,[sp,#0x18]
	mov         x8,#0x100C
	add         x8,x9,x8
	ldr         w9,[x10]
	ldr         w8,[x8]
	sub         w8,w9,w8
	str         w8,[sp,#0x14]
|$LN13@DeodhaiWin|

; 427  : 	BackDirtyAdd(wx, wy, ww, wh );

	ldr         w3,[sp,#0x14]
	ldr         w2,[sp,#0x10]
	ldr         w1,[sp]
	ldr         w0,[sp,#4]
	bl          |?BackDirtyAdd@@YAXHHHH@Z|
|$_skip$21|

; 428  : _skip:
; 429  : 	if (x <= 0)

	ldr         w8,[sp,#8]
	cmp         w8,#0
	bgt         |$LN14@DeodhaiWin|

; 430  : 		x = 0;

	mov         w8,#0
	str         w8,[sp,#8]
|$LN14@DeodhaiWin|

; 431  : 	if (y < 0)

	ldr         w8,[sp,#0xC]
	cmp         w8,#0
	bge         |$LN15@DeodhaiWin|

; 432  : 		y = 0;

	mov         w8,#0
	str         w8,[sp,#0xC]
|$LN15@DeodhaiWin|

; 433  : 	if (x >= canvas->screenWidth)

	adrp        x8,|?canvas@@3PEAU_ChCanvas_@@EA|
	ldr         x8,[x8,PageOffset(|?canvas@@3PEAU_ChCanvas_@@EA|)]
	add         x8,x8,#4
	ldr         w9,[x8]
	ldr         w8,[sp,#8]
	cmp         w8,w9
	blo         |$LN16@DeodhaiWin|

; 434  : 		x = canvas->screenWidth - ww;

	adrp        x8,|?canvas@@3PEAU_ChCanvas_@@EA|
	ldr         x8,[x8,PageOffset(|?canvas@@3PEAU_ChCanvas_@@EA|)]
	add         x8,x8,#4
	ldr         w9,[x8]
	ldr         w8,[sp,#0x10]
	sub         w8,w9,w8
	str         w8,[sp,#8]
|$LN16@DeodhaiWin|

; 435  : 	if (y >= canvas->screenHeight)

	adrp        x8,|?canvas@@3PEAU_ChCanvas_@@EA|
	ldr         x8,[x8,PageOffset(|?canvas@@3PEAU_ChCanvas_@@EA|)]
	add         x8,x8,#8
	ldr         w9,[x8]
	ldr         w8,[sp,#0xC]
	cmp         w8,w9
	blo         |$LN17@DeodhaiWin|

; 436  : 		y = canvas->screenHeight - wh;

	adrp        x8,|?canvas@@3PEAU_ChCanvas_@@EA|
	ldr         x8,[x8,PageOffset(|?canvas@@3PEAU_ChCanvas_@@EA|)]
	add         x8,x8,#8
	ldr         w9,[x8]
	ldr         w8,[sp,#0x14]
	sub         w8,w9,w8
	str         w8,[sp,#0xC]
|$LN17@DeodhaiWin|

; 437  : 
; 438  : 	info->x = x;

	ldr         x9,[sp,#0x18]
	mov         x8,#0x1008
	add         x9,x9,x8
	ldr         w8,[sp,#8]
	str         w8,[x9]

; 439  : 	info->y = y;

	ldr         x9,[sp,#0x18]
	mov         x8,#0x100C
	add         x9,x9,x8
	ldr         w8,[sp,#0xC]
	str         w8,[x9]

; 440  : 	_window_update_all_ = true;

	adrp        x9,|?_window_update_all_@@3DA|
	mov         w8,#1
	strb        w8,[x9,PageOffset(|?_window_update_all_@@3DA|)]

; 441  : 	_always_on_top_update = true;

	adrp        x9,|?_always_on_top_update@@3DA|
	mov         w8,#1
	strb        w8,[x9,PageOffset(|?_always_on_top_update@@3DA|)]

; 442  : 	_shadow_update = true;

	adrp        x9,|?_shadow_update@@3DA|
	mov         w8,#1
	strb        w8,[x9,PageOffset(|?_shadow_update@@3DA|)]

; 443  : 	_clients_advice = false;

	adrp        x9,|?_clients_advice@@3DA|
	mov         w8,#0
	strb        w8,[x9,PageOffset(|?_clients_advice@@3DA|)]
|$LN1@DeodhaiWin|
	add         sp,sp,#0x30
	ldr         lr,[sp],#0x10
	ret

	ENDP  ; |?DeodhaiWindowMove@@YAXPEAU_win_@@HH@Z|, DeodhaiWindowMove

; Function compile flags: /Odtpy
; File C:\Users\paras\source\repos\grep-name\XenevaOS\Process\Deodhai\deomain.cpp

	AREA	|.text$mn|, CODE, ARM64

|?DeodhaiRemoveShadow@@YAXPEAU_ChCanvas_@@PEAU_win_@@@Z| PROC ; DeodhaiRemoveShadow

; 370  : void DeodhaiRemoveShadow(ChCanvas* canv, Window* win) {

|$LN3|
	str         lr,[sp,#-0x10]!
	sub         sp,sp,#0x20
	str         x0,[sp,#0x18]
	str         x1,[sp,#0x10]

; 371  : 	WinSharedInfo* info = (WinSharedInfo*)win->sharedInfo;

	ldr         x8,[sp,#0x10]
	add         x8,x8,#0x10
	ldr         x8,[x8]
	str         x8,[sp,#8]

; 372  : 	int s_x = info->x - 6;

	ldr         x9,[sp,#8]
	mov         x8,#0x1008
	add         x8,x9,x8
	ldr         w8,[x8]
	sub         w8,w8,#6
	str         w8,[sp,#4]

; 373  : 	int s_y = info->y + 26;

	ldr         x9,[sp,#8]
	mov         x8,#0x100C
	add         x8,x9,x8
	ldr         w8,[x8]
	add         w8,w8,#0x1A
	str         w8,[sp]

; 374  : 	
; 375  : 	BackDirtyAdd(s_x, s_y, 6, info->height);

	ldr         x9,[sp,#8]
	mov         x8,#0x1014
	add         x8,x9,x8
	ldr         w3,[x8]
	mov         w2,#6
	ldr         w1,[sp]
	ldr         w0,[sp,#4]
	bl          |?BackDirtyAdd@@YAXHHHH@Z|
	add         sp,sp,#0x20
	ldr         lr,[sp],#0x10
	ret

	ENDP  ; |?DeodhaiRemoveShadow@@YAXPEAU_ChCanvas_@@PEAU_win_@@@Z|, DeodhaiRemoveShadow

; Function compile flags: /Odtpy
; File C:\Users\paras\source\repos\grep-name\XenevaOS\Process\Deodhai\deomain.cpp

	AREA	|.text$mn|, CODE, ARM64

|?DeodhaiDrawShadow@@YAXPEAU_ChCanvas_@@PEAU_win_@@@Z| PROC ; DeodhaiDrawShadow

; 360  : void DeodhaiDrawShadow(ChCanvas* canv, Window* win) {

|$LN3|
	sub         sp,sp,#0x20
	str         x0,[sp,#8]
	str         x1,[sp]

; 361  : 	WinSharedInfo* info = (WinSharedInfo*)win->sharedInfo;

	ldr         x8,[sp]
	add         x8,x8,#0x10
	ldr         x8,[x8]
	str         x8,[sp,#0x10]
	add         sp,sp,#0x20
	ret

	ENDP  ; |?DeodhaiDrawShadow@@YAXPEAU_ChCanvas_@@PEAU_win_@@@Z|, DeodhaiDrawShadow

; Function compile flags: /Odtpy
; File C:\Users\paras\source\repos\grep-name\XenevaOS\Process\Deodhai\deomain.cpp

	AREA	|.text$mn|, CODE, ARM64

|?DeodhaiWindowSetFocused@@YAXPEAU_win_@@D@Z| PROC	; DeodhaiWindowSetFocused

; 329  : void DeodhaiWindowSetFocused(Window* win, bool notify) {

|$LN6|
	str         lr,[sp,#-0x10]!
	sub         sp,sp,#0xD0
	str         x0,[sp,#8]
	sxtb        w8,w1
	strb        w8,[sp]

; 330  : 	if (focusedWin == win)

	ldr         x9,[sp,#8]
	adrp        x8,|?focusedWin@@3PEAU_win_@@EA|
	ldr         x8,[x8,PageOffset(|?focusedWin@@3PEAU_win_@@EA|)]
	cmp         x8,x9
	bne         |$LN2@DeodhaiWin|

; 331  : 		return;

	b           |$LN1@DeodhaiWin|
|$LN2@DeodhaiWin|

; 332  : 	focusedWin = win;

	adrp        x9,|?focusedWin@@3PEAU_win_@@EA|
	ldr         x8,[sp,#8]
	str         x8,[x9,PageOffset(|?focusedWin@@3PEAU_win_@@EA|)]

; 333  : 	_shadow_update = true;

	adrp        x9,|?_shadow_update@@3DA|
	mov         w8,#1
	strb        w8,[x9,PageOffset(|?_shadow_update@@3DA|)]

; 334  : 	WinSharedInfo* info = (WinSharedInfo*)focusedWin->sharedInfo;

	adrp        x8,|?focusedWin@@3PEAU_win_@@EA|
	ldr         x8,[x8,PageOffset(|?focusedWin@@3PEAU_win_@@EA|)]
	add         x8,x8,#0x10
	ldr         x8,[x8]
	str         x8,[sp,#0x10]

; 335  : 	if (info->hide){

	ldr         x9,[sp,#0x10]
	mov         x8,#0x1019
	add         x8,x9,x8
	ldrsb       w8,[x8]
	mov         w8,w8
	cmp         w8,#0
	beq         |$LN3@DeodhaiWin|

; 336  : 		info->hide = false;

	ldr         x9,[sp,#0x10]
	mov         x8,#0x1019
	add         x9,x9,x8
	mov         w8,#0
	strb        w8,[x9]

; 337  : 		_window_update_all_ = true;

	adrp        x9,|?_window_update_all_@@3DA|
	mov         w8,#1
	strb        w8,[x9,PageOffset(|?_window_update_all_@@3DA|)]

; 338  : 		_always_on_top_update = true;

	adrp        x9,|?_always_on_top_update@@3DA|
	mov         w8,#1
	strb        w8,[x9,PageOffset(|?_always_on_top_update@@3DA|)]
|$LN3@DeodhaiWin|

; 339  : 	}
; 340  : 
; 341  : 	if (notify && !(win->flags & WINDOW_FLAG_POPUP)) {

	ldrsb       w8,[sp]
	mov         w8,w8
	cmp         w8,#0
	beq         |$LN4@DeodhaiWin|
	ldr         x8,[sp,#8]
	ldrh        w8,[x8]
	mov         w8,w8
	tbnz        x8,#0xB,|$LN4@DeodhaiWin|

; 342  : 		PostEvent e;
; 343  : 		e.type = DEODHAI_BROADCAST_FOCUS_CHANGED;

	mov         w8,#0xAD
	strb        w8,[sp,#0x18]

; 344  : 		e.dword = focusedWin->ownerId;

	adrp        x8,|?focusedWin@@3PEAU_win_@@EA|
	ldr         x8,[x8,PageOffset(|?focusedWin@@3PEAU_win_@@EA|)]
	add         x8,x8,#2
	ldrh        w8,[x8]
	mov         w8,w8
	str         w8,[sp,#0x20]

; 345  : 		DeodhaiBroadcastMessage(&e, NULL);

	mov         x1,#0
	add         x0,sp,#0x18
	bl          |?DeodhaiBroadcastMessage@@YAXPEAU_post_event_@@PEAU_win_@@@Z|

; 346  : 
; 347  : 		//_KeProcessSleep();
; 348  : 
; 349  : 		e.type = DEODHAI_REPLY_FOCUS_CHANGED;

	mov         w8,#0x9A
	strb        w8,[sp,#0x18]

; 350  : 		DeodhaiSendFocusMessage(&e);

	add         x0,sp,#0x18
	bl          |?DeodhaiSendFocusMessage@@YAXPEAU_post_event_@@@Z|
|$LN4@DeodhaiWin|

; 351  : 	}
; 352  : 
; 353  : 	DeodhaiWindowMakeTop(win);

	ldr         x0,[sp,#8]
	bl          |?DeodhaiWindowMakeTop@@YAXPEAU_win_@@@Z|
|$LN1@DeodhaiWin|
	add         sp,sp,#0xD0
	ldr         lr,[sp],#0x10
	ret

	ENDP  ; |?DeodhaiWindowSetFocused@@YAXPEAU_win_@@D@Z|, DeodhaiWindowSetFocused

; Function compile flags: /Odtpy
; File C:\Users\paras\source\repos\grep-name\XenevaOS\Process\Deodhai\deomain.cpp

	AREA	|.text$mn|, CODE, ARM64

|?DeodhaiWindowMakeTop@@YAXPEAU_win_@@@Z| PROC		; DeodhaiWindowMakeTop

; 294  : void DeodhaiWindowMakeTop(Window* win) {

|$LN5|
	str         lr,[sp,#-0x10]!
	sub         sp,sp,#0x10
	str         x0,[sp]

; 295  : 	if (win->flags & WINDOW_FLAG_STATIC)

	ldr         x8,[sp]
	ldrh        w8,[x8]
	mov         w8,w8
	tbz         x8,#1,|$LN2@DeodhaiWin|

; 296  : 		return;

	b           |$LN1@DeodhaiWin|
|$LN2@DeodhaiWin|

; 297  : 	if (rootWin == win && lastWin == win)

	ldr         x9,[sp]
	adrp        x8,|?rootWin@@3PEAU_win_@@EA|
	ldr         x8,[x8,PageOffset(|?rootWin@@3PEAU_win_@@EA|)]
	cmp         x8,x9
	bne         |$LN3@DeodhaiWin|
	ldr         x9,[sp]
	adrp        x8,|?lastWin@@3PEAU_win_@@EA|
	ldr         x8,[x8,PageOffset(|?lastWin@@3PEAU_win_@@EA|)]
	cmp         x8,x9
	bne         |$LN3@DeodhaiWin|

; 298  : 		return;

	b           |$LN1@DeodhaiWin|
|$LN3@DeodhaiWin|

; 299  : 
; 300  : 	DeodhaiRemoveWindow(win);

	ldr         x0,[sp]
	bl          |?DeodhaiRemoveWindow@@YAXPEAU_win_@@@Z|

; 301  : 	DeodhaiAddWindow(win);

	ldr         x0,[sp]
	bl          |?DeodhaiAddWindow@@YAXPEAU_win_@@@Z|
|$LN1@DeodhaiWin|
	add         sp,sp,#0x10
	ldr         lr,[sp],#0x10
	ret

	ENDP  ; |?DeodhaiWindowMakeTop@@YAXPEAU_win_@@@Z|, DeodhaiWindowMakeTop

; Function compile flags: /Odtpy
; File C:\Users\paras\source\repos\grep-name\XenevaOS\Process\Deodhai\deomain.cpp

	AREA	|.text$mn|, CODE, ARM64

|?DeodhaiSendFocusMessage@@YAXPEAU_post_event_@@@Z| PROC ; DeodhaiSendFocusMessage

; 275  : void DeodhaiSendFocusMessage(PostEvent *e) {

|$LN8|
	str         lr,[sp,#-0x10]!
	sub         sp,sp,#0x10
	str         x0,[sp,#8]

; 276  : 	for (Window* win = rootWin; win != NULL; win = win->next) {

	adrp        x8,|?rootWin@@3PEAU_win_@@EA|
	ldr         x8,[x8,PageOffset(|?rootWin@@3PEAU_win_@@EA|)]
	str         x8,[sp]
	b           |$LN4@DeodhaiSen|
|$LN2@DeodhaiSen|
	ldr         x8,[sp]
	add         x8,x8,#0x68
	ldr         x8,[x8]
	str         x8,[sp]
|$LN4@DeodhaiSen|
	ldr         x8,[sp]
	cmp         x8,#0
	beq         |$LN3@DeodhaiSen|

; 277  : 		e->to_id = win->ownerId;

	ldr         x8,[sp]
	add         x10,x8,#2
	ldr         x8,[sp,#8]
	add         x9,x8,#2
	ldrh        w8,[x10]
	strh        w8,[x9]

; 278  : 		if (focusedWin == win){

	ldr         x9,[sp]
	adrp        x8,|?focusedWin@@3PEAU_win_@@EA|
	ldr         x8,[x8,PageOffset(|?focusedWin@@3PEAU_win_@@EA|)]
	cmp         x8,x9
	bne         |$LN5@DeodhaiSen|

; 279  : 			e->dword = 1;

	ldr         x8,[sp,#8]
	add         x9,x8,#8
	mov         w8,#1
	str         w8,[x9]

; 280  : 			e->dword2 = win->handle;

	ldr         x8,[sp]
	add         x10,x8,#0x24
	ldr         x8,[sp,#8]
	add         x9,x8,#0xC
	ldr         w8,[x10]
	str         w8,[x9]

; 281  : 		}

	b           |$LN6@DeodhaiSen|
|$LN5@DeodhaiSen|

; 282  : 		else{
; 283  : 			e->dword = 0;

	ldr         x8,[sp,#8]
	add         x9,x8,#8
	mov         w8,#0
	str         w8,[x9]

; 284  : 			e->dword2 = win->handle;

	ldr         x8,[sp]
	add         x10,x8,#0x24
	ldr         x8,[sp,#8]
	add         x9,x8,#0xC
	ldr         w8,[x10]
	str         w8,[x9]
|$LN6@DeodhaiSen|

; 285  : 		}
; 286  : 		_KeFileIoControl(postbox_fd, POSTBOX_PUT_EVENT, e);

	ldr         x2,[sp,#8]
	mov         w1,#0x193
	adrp        x8,|?postbox_fd@@3HA|
	ldr         w0,[x8,PageOffset(|?postbox_fd@@3HA|)]
	bl          _KeFileIoControl

; 287  : 		//_KeProcessSleep(1);
; 288  : 	}

	b           |$LN2@DeodhaiSen|
|$LN3@DeodhaiSen|
	add         sp,sp,#0x10
	ldr         lr,[sp],#0x10
	ret

	ENDP  ; |?DeodhaiSendFocusMessage@@YAXPEAU_post_event_@@@Z|, DeodhaiSendFocusMessage

; Function compile flags: /Odtpy
; File C:\Users\paras\source\repos\grep-name\XenevaOS\Process\Deodhai\deomain.cpp

	AREA	|.text$mn|, CODE, ARM64

|?DeodhaiBroadcastMessage@@YAXPEAU_post_event_@@PEAU_win_@@@Z| PROC ; DeodhaiBroadcastMessage

; 250  : void DeodhaiBroadcastMessage(PostEvent *e, Window* skippablewin){

|$LN13|
	str         lr,[sp,#-0x10]!
	sub         sp,sp,#0x20
	str         x0,[sp,#0x18]
	str         x1,[sp,#0x10]

; 251  : 	for (Window* win = rootWin; win != NULL; win = win->next) {

	adrp        x8,|?rootWin@@3PEAU_win_@@EA|
	ldr         x8,[x8,PageOffset(|?rootWin@@3PEAU_win_@@EA|)]
	str         x8,[sp]
	b           |$LN4@DeodhaiBro|
|$LN2@DeodhaiBro|
	ldr         x8,[sp]
	add         x8,x8,#0x68
	ldr         x8,[x8]
	str         x8,[sp]
|$LN4@DeodhaiBro|
	ldr         x8,[sp]
	cmp         x8,#0
	beq         |$LN3@DeodhaiBro|

; 252  : 		if (skippablewin && win == skippablewin)

	ldr         x8,[sp,#0x10]
	cmp         x8,#0
	beq         |$LN8@DeodhaiBro|
	ldr         x9,[sp,#0x10]
	ldr         x8,[sp]
	cmp         x8,x9
	bne         |$LN8@DeodhaiBro|

; 253  : 			continue;

	b           |$LN2@DeodhaiBro|
|$LN8@DeodhaiBro|

; 254  : 		if (win->flags & WINDOW_FLAG_BROADCAST_LISTENER){

	ldr         x8,[sp]
	ldrh        w8,[x8]
	mov         w8,w8
	tbz         x8,#4,|$LN9@DeodhaiBro|

; 255  : 			e->to_id = win->ownerId;

	ldr         x8,[sp]
	add         x10,x8,#2
	ldr         x8,[sp,#0x18]
	add         x9,x8,#2
	ldrh        w8,[x10]
	strh        w8,[x9]

; 256  : 			_KeFileIoControl(postbox_fd, POSTBOX_PUT_EVENT, e);

	ldr         x2,[sp,#0x18]
	mov         w1,#0x193
	adrp        x8,|?postbox_fd@@3HA|
	ldr         w0,[x8,PageOffset(|?postbox_fd@@3HA|)]
	bl          _KeFileIoControl
|$LN9@DeodhaiBro|

; 257  : 		}
; 258  : 	}

	b           |$LN2@DeodhaiBro|
|$LN3@DeodhaiBro|

; 259  : 
; 260  : 	for (Window* win = alwaysOnTop; win != NULL; win = win->next) {

	adrp        x8,|?alwaysOnTop@@3PEAU_win_@@EA|
	ldr         x8,[x8,PageOffset(|?alwaysOnTop@@3PEAU_win_@@EA|)]
	str         x8,[sp,#8]
	b           |$LN7@DeodhaiBro|
|$LN5@DeodhaiBro|
	ldr         x8,[sp,#8]
	add         x8,x8,#0x68
	ldr         x8,[x8]
	str         x8,[sp,#8]
|$LN7@DeodhaiBro|
	ldr         x8,[sp,#8]
	cmp         x8,#0
	beq         |$LN6@DeodhaiBro|

; 261  : 		if (skippablewin && win == skippablewin)

	ldr         x8,[sp,#0x10]
	cmp         x8,#0
	beq         |$LN10@DeodhaiBro|
	ldr         x9,[sp,#0x10]
	ldr         x8,[sp,#8]
	cmp         x8,x9
	bne         |$LN10@DeodhaiBro|

; 262  : 			continue;

	b           |$LN5@DeodhaiBro|
|$LN10@DeodhaiBro|

; 263  : 		if (win->flags & WINDOW_FLAG_BROADCAST_LISTENER){

	ldr         x8,[sp,#8]
	ldrh        w8,[x8]
	mov         w8,w8
	tbz         x8,#4,|$LN11@DeodhaiBro|

; 264  : 			e->to_id = win->ownerId;

	ldr         x8,[sp,#8]
	add         x10,x8,#2
	ldr         x8,[sp,#0x18]
	add         x9,x8,#2
	ldrh        w8,[x10]
	strh        w8,[x9]

; 265  : 			_KeFileIoControl(postbox_fd, POSTBOX_PUT_EVENT, e);

	ldr         x2,[sp,#0x18]
	mov         w1,#0x193
	adrp        x8,|?postbox_fd@@3HA|
	ldr         w0,[x8,PageOffset(|?postbox_fd@@3HA|)]
	bl          _KeFileIoControl
|$LN11@DeodhaiBro|

; 266  : 		}
; 267  : 	}

	b           |$LN5@DeodhaiBro|
|$LN6@DeodhaiBro|
	add         sp,sp,#0x20
	ldr         lr,[sp],#0x10
	ret

	ENDP  ; |?DeodhaiBroadcastMessage@@YAXPEAU_post_event_@@PEAU_win_@@@Z|, DeodhaiBroadcastMessage

; Function compile flags: /Odtpy
; File C:\Users\paras\source\repos\grep-name\XenevaOS\Process\Deodhai\deomain.cpp

	AREA	|.text$mn|, CODE, ARM64

|?DeodhaiCreateWindow@@YAPEAU_win_@@HHHHGGPEAD@Z| PROC	; DeodhaiCreateWindow

; 235  : Window* DeodhaiCreateWindow(int x, int y, int w, int h, uint16_t flags, uint16_t ownerId, char* title) {

|$LN5|
	str         lr,[sp,#-0x10]!
	sub         sp,sp,#0x30
	str         w0,[sp,#0x10]
	str         w1,[sp,#0xC]
	str         w2,[sp,#8]
	str         w3,[sp,#4]
	uxth        w8,w4
	strh        w8,[sp]
	uxth        w8,w5
	strh        w8,[sp,#2]
	str         x6,[sp,#0x20]

; 236  : 	Window* win = CreateWindow(x, y, w, h, flags, ownerId, title);

	ldr         x6,[sp,#0x20]
	ldrh        w5,[sp,#2]
	ldrh        w4,[sp]
	ldr         w3,[sp,#4]
	ldr         w2,[sp,#8]
	ldr         w1,[sp,#0xC]
	ldr         w0,[sp,#0x10]
	bl          |?CreateWindow@@YAPEAU_win_@@HHHHGGPEAD@Z|
	str         x0,[sp,#0x18]

; 237  : 	if (flags & WINDOW_FLAG_ALWAYS_ON_TOP) {

	ldrh        w8,[sp]
	mov         w8,w8
	tbz         x8,#2,|$LN2@DeodhaiCre|

; 238  : 		DeodhaiAddWindowAlwaysOnTop(win);

	ldr         x0,[sp,#0x18]
	bl          |?DeodhaiAddWindowAlwaysOnTop@@YAXPEAU_win_@@@Z|

; 239  : 	}

	b           |$LN3@DeodhaiCre|
|$LN2@DeodhaiCre|

; 240  : 	else
; 241  : 		DeodhaiAddWindow(win);

	ldr         x0,[sp,#0x18]
	bl          |?DeodhaiAddWindow@@YAXPEAU_win_@@@Z|
|$LN3@DeodhaiCre|

; 242  : 	return win;

	ldr         x0,[sp,#0x18]
	add         sp,sp,#0x30
	ldr         lr,[sp],#0x10
	ret

	ENDP  ; |?DeodhaiCreateWindow@@YAPEAU_win_@@HHHHGGPEAD@Z|, DeodhaiCreateWindow

; Function compile flags: /Odtpy
; File C:\Users\paras\source\repos\grep-name\XenevaOS\Process\Deodhai\deomain.cpp

	AREA	|.text$mn|, CODE, ARM64

|?DeodhaiBackSurfaceUpdate@@YAXPEAU_ChCanvas_@@HHHH@Z| PROC ; DeodhaiBackSurfaceUpdate

; 202  : void DeodhaiBackSurfaceUpdate(ChCanvas* canv, int x, int y, int w, int h) {

|$LN12|
	str         lr,[sp,#-0x10]!
	sub         sp,sp,#0x50
	str         x0,[sp,#8]
	str         w1,[sp,#0x10]
	str         w2,[sp,#0x14]
	str         w3,[sp,#0x1C]
	str         w4,[sp,#0x18]

; 203  : 	uint32_t *lfb = (uint32_t*)canv->buffer;

	ldr         x8,[sp,#8]
	add         x8,x8,#0x20
	ldr         x8,[x8]
	str         x8,[sp,#0x40]

; 204  : 	uint32_t* wallp = (uint32_t*)surfaceBuffer;

	adrp        x8,|?surfaceBuffer@@3PEAIEA|
	ldr         x8,[x8,PageOffset(|?surfaceBuffer@@3PEAIEA|)]
	str         x8,[sp,#0x38]

; 205  : 
; 206  : 	int64_t x_ = x, y_ = y, w_ = w, h_ = h;

	ldr         w8,[sp,#0x10]
	sxtw        x8,w8
	str         x8,[sp,#0x28]
	ldr         w8,[sp,#0x14]
	sxtw        x8,w8
	str         x8,[sp,#0x20]
	ldr         w8,[sp,#0x1C]
	sxtw        x8,w8
	str         x8,[sp,#0x30]
	ldr         w8,[sp,#0x18]
	sxtw        x8,w8
	str         x8,[sp,#0x48]

; 207  : 
; 208  : 	if (w > canv->canvasWidth)

	ldr         x8,[sp,#8]
	add         x8,x8,#0x18
	ldr         w9,[x8]
	ldr         w8,[sp,#0x1C]
	cmp         w8,w9
	bls         |$LN5@DeodhaiBac|

; 209  : 		w = canv->canvasWidth;

	ldr         x8,[sp,#8]
	add         x8,x8,#0x18
	ldr         w8,[x8]
	str         w8,[sp,#0x1C]
|$LN5@DeodhaiBac|

; 210  : 
; 211  : 	if (h > canv->canvasHeight)

	ldr         x8,[sp,#8]
	add         x8,x8,#0x1C
	ldr         w9,[x8]
	ldr         w8,[sp,#0x18]
	cmp         w8,w9
	bls         |$LN6@DeodhaiBac|

; 212  : 		h = canv->canvasHeight;

	ldr         x8,[sp,#8]
	add         x8,x8,#0x1C
	ldr         w8,[x8]
	str         w8,[sp,#0x18]
|$LN6@DeodhaiBac|

; 213  : 
; 214  : 	if (x > canv->canvasWidth)

	ldr         x8,[sp,#8]
	add         x8,x8,#0x18
	ldr         w9,[x8]
	ldr         w8,[sp,#0x10]
	cmp         w8,w9
	bls         |$LN7@DeodhaiBac|

; 215  : 		return;

	b           |$LN1@DeodhaiBac|
|$LN7@DeodhaiBac|

; 216  : 
; 217  : 	if (y > canv->canvasHeight)

	ldr         x8,[sp,#8]
	add         x8,x8,#0x1C
	ldr         w9,[x8]
	ldr         w8,[sp,#0x14]
	cmp         w8,w9
	bls         |$LN8@DeodhaiBac|

; 218  : 		return;

	b           |$LN1@DeodhaiBac|
|$LN8@DeodhaiBac|

; 219  : 
; 220  : 	if (x < 0)

	ldr         w8,[sp,#0x10]
	cmp         w8,#0
	bge         |$LN9@DeodhaiBac|

; 221  : 		x = 0;

	mov         w8,#0
	str         w8,[sp,#0x10]
|$LN9@DeodhaiBac|

; 222  : 	if (y < 0)

	ldr         w8,[sp,#0x14]
	cmp         w8,#0
	bge         |$LN10@DeodhaiBac|

; 223  : 		y = 0;

	mov         w8,#0
	str         w8,[sp,#0x14]
|$LN10@DeodhaiBac|

; 224  : 
; 225  : 	for (int j = 0; j < h; j++) {

	mov         w8,#0
	str         w8,[sp]
	b           |$LN4@DeodhaiBac|
|$LN2@DeodhaiBac|
	ldr         w8,[sp]
	add         w8,w8,#1
	str         w8,[sp]
|$LN4@DeodhaiBac|
	ldr         w9,[sp,#0x18]
	ldr         w8,[sp]
	cmp         w8,w9
	bge         |$LN3@DeodhaiBac|

; 226  : 		_fastcpy(canv->buffer + (y_ + j) * canv->canvasWidth + x_, wallp + (y_ + j) * canv->canvasWidth + x_,

	ldr         x9,[sp,#0x30]
	mov         x8,#4
	mul         x2,x9,x8
	ldr         w8,[sp]
	sxtw        x9,w8
	ldr         x8,[sp,#0x20]
	add         x9,x8,x9
	ldr         x8,[sp,#8]
	add         x8,x8,#0x18
	ldr         w8,[x8]
	uxtw        x8,w8
	mul         x9,x9,x8
	mov         x8,#4
	mul         x9,x9,x8
	ldr         x8,[sp,#0x38]
	add         x10,x8,x9
	ldr         x9,[sp,#0x28]
	mov         x8,#4
	mul         x8,x9,x8
	add         x1,x10,x8
	ldr         x8,[sp,#8]
	add         x10,x8,#0x20
	ldr         w8,[sp]
	sxtw        x9,w8
	ldr         x8,[sp,#0x20]
	add         x9,x8,x9
	ldr         x8,[sp,#8]
	add         x8,x8,#0x18
	ldr         w8,[x8]
	uxtw        x8,w8
	mul         x9,x9,x8
	mov         x8,#4
	mul         x9,x9,x8
	ldr         x8,[x10]
	add         x10,x8,x9
	ldr         x9,[sp,#0x28]
	mov         x8,#4
	mul         x8,x9,x8
	add         x0,x10,x8
	bl          _fastcpy

; 227  : 			w_ * 4);
; 228  : 	}

	b           |$LN2@DeodhaiBac|
|$LN3@DeodhaiBac|
|$LN1@DeodhaiBac|
	add         sp,sp,#0x50
	ldr         lr,[sp],#0x10
	ret

	ENDP  ; |?DeodhaiBackSurfaceUpdate@@YAXPEAU_ChCanvas_@@HHHH@Z|, DeodhaiBackSurfaceUpdate

; Function compile flags: /Odtpy
; File C:\Users\paras\source\repos\grep-name\XenevaOS\Process\Deodhai\deomain.cpp

	AREA	|.text$mn|, CODE, ARM64

|?DeodhaiRemoveWindowAlwaysOnTop@@YAXPEAU_win_@@@Z| PROC ; DeodhaiRemoveWindowAlwaysOnTop

; 184  : void DeodhaiRemoveWindowAlwaysOnTop(Window* win) {

|$LN8|
	sub         sp,sp,#0x10
	str         x0,[sp]

; 185  : 	if (alwaysOnTop == NULL)

	adrp        x8,|?alwaysOnTop@@3PEAU_win_@@EA|
	ldr         x8,[x8,PageOffset(|?alwaysOnTop@@3PEAU_win_@@EA|)]
	cmp         x8,#0
	bne         |$LN2@DeodhaiRem|

; 186  : 		return;

	b           |$LN1@DeodhaiRem|
|$LN2@DeodhaiRem|

; 187  : 
; 188  : 	if (win == alwaysOnTop)

	adrp        x8,|?alwaysOnTop@@3PEAU_win_@@EA|
	ldr         x9,[x8,PageOffset(|?alwaysOnTop@@3PEAU_win_@@EA|)]
	ldr         x8,[sp]
	cmp         x8,x9
	bne         |$LN3@DeodhaiRem|

; 189  : 		alwaysOnTop = alwaysOnTop->next;

	adrp        x8,|?alwaysOnTop@@3PEAU_win_@@EA|
	ldr         x8,[x8,PageOffset(|?alwaysOnTop@@3PEAU_win_@@EA|)]
	add         x8,x8,#0x68
	adrp        x9,|?alwaysOnTop@@3PEAU_win_@@EA|
	ldr         x8,[x8]
	str         x8,[x9,PageOffset(|?alwaysOnTop@@3PEAU_win_@@EA|)]
	b           |$LN4@DeodhaiRem|
|$LN3@DeodhaiRem|

; 190  : 	else
; 191  : 		win->prev->next = win->next;

	ldr         x8,[sp]
	add         x10,x8,#0x68
	ldr         x8,[sp]
	add         x8,x8,#0x70
	ldr         x8,[x8]
	add         x9,x8,#0x68
	ldr         x8,[x10]
	str         x8,[x9]
|$LN4@DeodhaiRem|

; 192  : 
; 193  : 	if (win == alwaysOnTopLast)

	adrp        x8,|?alwaysOnTopLast@@3PEAU_win_@@EA|
	ldr         x9,[x8,PageOffset(|?alwaysOnTopLast@@3PEAU_win_@@EA|)]
	ldr         x8,[sp]
	cmp         x8,x9
	bne         |$LN5@DeodhaiRem|

; 194  : 		alwaysOnTopLast = win->prev;

	ldr         x8,[sp]
	add         x8,x8,#0x70
	adrp        x9,|?alwaysOnTopLast@@3PEAU_win_@@EA|
	ldr         x8,[x8]
	str         x8,[x9,PageOffset(|?alwaysOnTopLast@@3PEAU_win_@@EA|)]
	b           |$LN6@DeodhaiRem|
|$LN5@DeodhaiRem|

; 195  : 	else
; 196  : 		win->next->prev = win->prev;

	ldr         x8,[sp]
	add         x10,x8,#0x70
	ldr         x8,[sp]
	add         x8,x8,#0x68
	ldr         x8,[x8]
	add         x9,x8,#0x70
	ldr         x8,[x10]
	str         x8,[x9]
|$LN6@DeodhaiRem|
|$LN1@DeodhaiRem|
	add         sp,sp,#0x10
	ret

	ENDP  ; |?DeodhaiRemoveWindowAlwaysOnTop@@YAXPEAU_win_@@@Z|, DeodhaiRemoveWindowAlwaysOnTop

; Function compile flags: /Odtpy
; File C:\Users\paras\source\repos\grep-name\XenevaOS\Process\Deodhai\deomain.cpp

	AREA	|.text$mn|, CODE, ARM64

|?DeodhaiAddWindowAlwaysOnTop@@YAXPEAU_win_@@@Z| PROC	; DeodhaiAddWindowAlwaysOnTop

; 170  : void DeodhaiAddWindowAlwaysOnTop(Window* win) {

|$LN5|
	sub         sp,sp,#0x10
	str         x0,[sp]

; 171  : 	win->next = NULL;

	ldr         x8,[sp]
	add         x9,x8,#0x68
	mov         x8,#0
	str         x8,[x9]

; 172  : 	win->prev = NULL;

	ldr         x8,[sp]
	add         x9,x8,#0x70
	mov         x8,#0
	str         x8,[x9]

; 173  : 	if (alwaysOnTop == NULL) {

	adrp        x8,|?alwaysOnTop@@3PEAU_win_@@EA|
	ldr         x8,[x8,PageOffset(|?alwaysOnTop@@3PEAU_win_@@EA|)]
	cmp         x8,#0
	bne         |$LN2@DeodhaiAdd|

; 174  : 		alwaysOnTop = win;

	adrp        x9,|?alwaysOnTop@@3PEAU_win_@@EA|
	ldr         x8,[sp]
	str         x8,[x9,PageOffset(|?alwaysOnTop@@3PEAU_win_@@EA|)]

; 175  : 		alwaysOnTopLast = win;

	adrp        x9,|?alwaysOnTopLast@@3PEAU_win_@@EA|
	ldr         x8,[sp]
	str         x8,[x9,PageOffset(|?alwaysOnTopLast@@3PEAU_win_@@EA|)]

; 176  : 	}

	b           |$LN3@DeodhaiAdd|
|$LN2@DeodhaiAdd|

; 177  : 	else {
; 178  : 		alwaysOnTopLast->next = win;

	adrp        x8,|?alwaysOnTopLast@@3PEAU_win_@@EA|
	ldr         x8,[x8,PageOffset(|?alwaysOnTopLast@@3PEAU_win_@@EA|)]
	add         x9,x8,#0x68
	ldr         x8,[sp]
	str         x8,[x9]

; 179  : 		win->prev = alwaysOnTopLast;

	ldr         x8,[sp]
	add         x9,x8,#0x70
	adrp        x8,|?alwaysOnTopLast@@3PEAU_win_@@EA|
	ldr         x8,[x8,PageOffset(|?alwaysOnTopLast@@3PEAU_win_@@EA|)]
	str         x8,[x9]

; 180  : 		alwaysOnTopLast = win;

	adrp        x9,|?alwaysOnTopLast@@3PEAU_win_@@EA|
	ldr         x8,[sp]
	str         x8,[x9,PageOffset(|?alwaysOnTopLast@@3PEAU_win_@@EA|)]
|$LN3@DeodhaiAdd|
	add         sp,sp,#0x10
	ret

	ENDP  ; |?DeodhaiAddWindowAlwaysOnTop@@YAXPEAU_win_@@@Z|, DeodhaiAddWindowAlwaysOnTop

; Function compile flags: /Odtpy
; File C:\Users\paras\source\repos\grep-name\XenevaOS\Process\Deodhai\deomain.cpp

	AREA	|.text$mn|, CODE, ARM64

|?DeodhaiRemoveWindow@@YAXPEAU_win_@@@Z| PROC		; DeodhaiRemoveWindow

; 151  : void DeodhaiRemoveWindow(Window* win) {

|$LN8|
	sub         sp,sp,#0x10
	str         x0,[sp]

; 152  : 	if (rootWin == NULL)

	adrp        x8,|?rootWin@@3PEAU_win_@@EA|
	ldr         x8,[x8,PageOffset(|?rootWin@@3PEAU_win_@@EA|)]
	cmp         x8,#0
	bne         |$LN2@DeodhaiRem|

; 153  : 		return;

	b           |$LN1@DeodhaiRem|
|$LN2@DeodhaiRem|

; 154  : 
; 155  : 	if (win == rootWin)

	adrp        x8,|?rootWin@@3PEAU_win_@@EA|
	ldr         x9,[x8,PageOffset(|?rootWin@@3PEAU_win_@@EA|)]
	ldr         x8,[sp]
	cmp         x8,x9
	bne         |$LN3@DeodhaiRem|

; 156  : 		rootWin = rootWin->next;

	adrp        x8,|?rootWin@@3PEAU_win_@@EA|
	ldr         x8,[x8,PageOffset(|?rootWin@@3PEAU_win_@@EA|)]
	add         x8,x8,#0x68
	adrp        x9,|?rootWin@@3PEAU_win_@@EA|
	ldr         x8,[x8]
	str         x8,[x9,PageOffset(|?rootWin@@3PEAU_win_@@EA|)]
	b           |$LN4@DeodhaiRem|
|$LN3@DeodhaiRem|

; 157  : 	else
; 158  : 		win->prev->next = win->next;

	ldr         x8,[sp]
	add         x10,x8,#0x68
	ldr         x8,[sp]
	add         x8,x8,#0x70
	ldr         x8,[x8]
	add         x9,x8,#0x68
	ldr         x8,[x10]
	str         x8,[x9]
|$LN4@DeodhaiRem|

; 159  : 
; 160  : 	if (win == lastWin)

	adrp        x8,|?lastWin@@3PEAU_win_@@EA|
	ldr         x9,[x8,PageOffset(|?lastWin@@3PEAU_win_@@EA|)]
	ldr         x8,[sp]
	cmp         x8,x9
	bne         |$LN5@DeodhaiRem|

; 161  : 		lastWin = win->prev;

	ldr         x8,[sp]
	add         x8,x8,#0x70
	adrp        x9,|?lastWin@@3PEAU_win_@@EA|
	ldr         x8,[x8]
	str         x8,[x9,PageOffset(|?lastWin@@3PEAU_win_@@EA|)]
	b           |$LN6@DeodhaiRem|
|$LN5@DeodhaiRem|

; 162  : 	else
; 163  : 		win->next->prev = win->prev;

	ldr         x8,[sp]
	add         x10,x8,#0x70
	ldr         x8,[sp]
	add         x8,x8,#0x68
	ldr         x8,[x8]
	add         x9,x8,#0x70
	ldr         x8,[x10]
	str         x8,[x9]
|$LN6@DeodhaiRem|
|$LN1@DeodhaiRem|
	add         sp,sp,#0x10
	ret

	ENDP  ; |?DeodhaiRemoveWindow@@YAXPEAU_win_@@@Z|, DeodhaiRemoveWindow

; Function compile flags: /Odtpy
; File C:\Users\paras\source\repos\grep-name\XenevaOS\Process\Deodhai\deomain.cpp

	AREA	|.text$mn|, CODE, ARM64

|?DeodhaiAddWindow@@YAXPEAU_win_@@@Z| PROC		; DeodhaiAddWindow

; 137  : void DeodhaiAddWindow(Window* win) {

|$LN5|
	sub         sp,sp,#0x10
	str         x0,[sp]

; 138  : 	win->next = NULL;

	ldr         x8,[sp]
	add         x9,x8,#0x68
	mov         x8,#0
	str         x8,[x9]

; 139  : 	win->prev = NULL;

	ldr         x8,[sp]
	add         x9,x8,#0x70
	mov         x8,#0
	str         x8,[x9]

; 140  : 	if (rootWin == NULL) {

	adrp        x8,|?rootWin@@3PEAU_win_@@EA|
	ldr         x8,[x8,PageOffset(|?rootWin@@3PEAU_win_@@EA|)]
	cmp         x8,#0
	bne         |$LN2@DeodhaiAdd|

; 141  : 		rootWin = win;

	adrp        x9,|?rootWin@@3PEAU_win_@@EA|
	ldr         x8,[sp]
	str         x8,[x9,PageOffset(|?rootWin@@3PEAU_win_@@EA|)]

; 142  : 		lastWin = win;

	adrp        x9,|?lastWin@@3PEAU_win_@@EA|
	ldr         x8,[sp]
	str         x8,[x9,PageOffset(|?lastWin@@3PEAU_win_@@EA|)]

; 143  : 	}

	b           |$LN3@DeodhaiAdd|
|$LN2@DeodhaiAdd|

; 144  : 	else {
; 145  : 		lastWin->next = win;

	adrp        x8,|?lastWin@@3PEAU_win_@@EA|
	ldr         x8,[x8,PageOffset(|?lastWin@@3PEAU_win_@@EA|)]
	add         x9,x8,#0x68
	ldr         x8,[sp]
	str         x8,[x9]

; 146  : 		win->prev = lastWin;

	ldr         x8,[sp]
	add         x9,x8,#0x70
	adrp        x8,|?lastWin@@3PEAU_win_@@EA|
	ldr         x8,[x8,PageOffset(|?lastWin@@3PEAU_win_@@EA|)]
	str         x8,[x9]

; 147  : 		lastWin = win;

	adrp        x9,|?lastWin@@3PEAU_win_@@EA|
	ldr         x8,[sp]
	str         x8,[x9,PageOffset(|?lastWin@@3PEAU_win_@@EA|)]
|$LN3@DeodhaiAdd|
	add         sp,sp,#0x10
	ret

	ENDP  ; |?DeodhaiAddWindow@@YAXPEAU_win_@@@Z|, DeodhaiAddWindow

; Function compile flags: /Odtpy
; File C:\Users\paras\source\repos\grep-name\XenevaOS\Process\Deodhai\deomain.cpp

	AREA	|.text$mn|, CODE, ARM64

|?DeodhaiInitialiseData@@YAXXZ| PROC			; DeodhaiInitialiseData

; 114  : 	_window_update_all_ = false;

	adrp        x9,|?_window_update_all_@@3DA|
	mov         w8,#0
	strb        w8,[x9,PageOffset(|?_window_update_all_@@3DA|)]

; 115  : 	_window_broadcast_mouse_ = false;

	adrp        x9,|?_window_broadcast_mouse_@@3DA|
	mov         w8,#0
	strb        w8,[x9,PageOffset(|?_window_broadcast_mouse_@@3DA|)]

; 116  : 	focusedWin = focusedLast = topWin = dragWin = NULL;

	adrp        x9,|?dragWin@@3PEAU_win_@@EA|
	mov         x8,#0
	str         x8,[x9,PageOffset(|?dragWin@@3PEAU_win_@@EA|)]
	adrp        x9,|?topWin@@3PEAU_win_@@EA|
	adrp        x8,|?dragWin@@3PEAU_win_@@EA|
	ldr         x8,[x8,PageOffset(|?dragWin@@3PEAU_win_@@EA|)]
	str         x8,[x9,PageOffset(|?topWin@@3PEAU_win_@@EA|)]
	adrp        x9,|?focusedLast@@3PEAU_win_@@EA|
	adrp        x8,|?topWin@@3PEAU_win_@@EA|
	ldr         x8,[x8,PageOffset(|?topWin@@3PEAU_win_@@EA|)]
	str         x8,[x9,PageOffset(|?focusedLast@@3PEAU_win_@@EA|)]
	adrp        x9,|?focusedWin@@3PEAU_win_@@EA|
	adrp        x8,|?focusedLast@@3PEAU_win_@@EA|
	ldr         x8,[x8,PageOffset(|?focusedLast@@3PEAU_win_@@EA|)]
	str         x8,[x9,PageOffset(|?focusedWin@@3PEAU_win_@@EA|)]

; 117  : 	reszWin = rootWin = lastWin = NULL;

	adrp        x9,|?lastWin@@3PEAU_win_@@EA|
	mov         x8,#0
	str         x8,[x9,PageOffset(|?lastWin@@3PEAU_win_@@EA|)]
	adrp        x9,|?rootWin@@3PEAU_win_@@EA|
	adrp        x8,|?lastWin@@3PEAU_win_@@EA|
	ldr         x8,[x8,PageOffset(|?lastWin@@3PEAU_win_@@EA|)]
	str         x8,[x9,PageOffset(|?rootWin@@3PEAU_win_@@EA|)]
	adrp        x9,|?reszWin@@3PEAU_win_@@EA|
	adrp        x8,|?rootWin@@3PEAU_win_@@EA|
	ldr         x8,[x8,PageOffset(|?rootWin@@3PEAU_win_@@EA|)]
	str         x8,[x9,PageOffset(|?reszWin@@3PEAU_win_@@EA|)]

; 118  : 	canvas = NULL;

	adrp        x9,|?canvas@@3PEAU_ChCanvas_@@EA|
	mov         x8,#0
	str         x8,[x9,PageOffset(|?canvas@@3PEAU_ChCanvas_@@EA|)]

; 119  : 	lastMouseButton = 0;

	adrp        x9,|?lastMouseButton@@3HA|
	mov         w8,#0
	str         w8,[x9,PageOffset(|?lastMouseButton@@3HA|)]

; 120  : 	alwaysOnTop = NULL;

	adrp        x9,|?alwaysOnTop@@3PEAU_win_@@EA|
	mov         x8,#0
	str         x8,[x9,PageOffset(|?alwaysOnTop@@3PEAU_win_@@EA|)]

; 121  : 	alwaysOnTopLast = NULL;

	adrp        x9,|?alwaysOnTopLast@@3PEAU_win_@@EA|
	mov         x8,#0
	str         x8,[x9,PageOffset(|?alwaysOnTopLast@@3PEAU_win_@@EA|)]

; 122  : 	winHandles = 100;

	adrp        x9,|?winHandles@@3IA|
	mov         w8,#0x64
	str         w8,[x9,PageOffset(|?winHandles@@3IA|)]
	ret

	ENDP  ; |?DeodhaiInitialiseData@@YAXXZ|, DeodhaiInitialiseData

; Function compile flags: /Odtpy
; File C:\Users\paras\source\repos\grep-name\XenevaOS\Process\Deodhai\deomain.cpp

	AREA	|.text$mn|, CODE, ARM64

|?ChangeCursor@@YAXPEAU_cursor_@@@Z| PROC		; ChangeCursor

; 576  : void ChangeCursor(Cursor* newCursor) {

|$LN4|
	str         lr,[sp,#-0x10]!
	sub         sp,sp,#0x10
	str         x0,[sp]

; 577  : 	if (!newCursor)

	ldr         x8,[sp]
	cmp         x8,#0
	bne         |$LN2@ChangeCurs|

; 578  : 		return;

	b           |$LN1@ChangeCurs|
|$LN2@ChangeCurs|

; 579  : 	newCursor->xpos = currentCursor->xpos;

	adrp        x8,|?currentCursor@@3PEAU_cursor_@@EA|
	ldr         x8,[x8,PageOffset(|?currentCursor@@3PEAU_cursor_@@EA|)]
	add         x10,x8,#0x20
	ldr         x8,[sp]
	add         x9,x8,#0x20
	ldr         w8,[x10]
	str         w8,[x9]

; 580  : 	newCursor->ypos = currentCursor->ypos;

	adrp        x8,|?currentCursor@@3PEAU_cursor_@@EA|
	ldr         x8,[x8,PageOffset(|?currentCursor@@3PEAU_cursor_@@EA|)]
	add         x10,x8,#0x24
	ldr         x8,[sp]
	add         x9,x8,#0x24
	ldr         w8,[x10]
	str         w8,[x9]

; 581  : 	newCursor->oldXPos = currentCursor->oldXPos;

	adrp        x8,|?currentCursor@@3PEAU_cursor_@@EA|
	ldr         x8,[x8,PageOffset(|?currentCursor@@3PEAU_cursor_@@EA|)]
	add         x10,x8,#0x28
	ldr         x8,[sp]
	add         x9,x8,#0x28
	ldr         w8,[x10]
	str         w8,[x9]

; 582  : 	newCursor->oldYPos = currentCursor->oldYPos;

	adrp        x8,|?currentCursor@@3PEAU_cursor_@@EA|
	ldr         x8,[x8,PageOffset(|?currentCursor@@3PEAU_cursor_@@EA|)]
	add         x10,x8,#0x2C
	ldr         x8,[sp]
	add         x9,x8,#0x2C
	ldr         w8,[x10]
	str         w8,[x9]

; 583  : 	memcpy(newCursor->cursorBack, currentCursor->cursorBack, 24 * 24 * 32);

	adrp        x8,|?currentCursor@@3PEAU_cursor_@@EA|
	ldr         x8,[x8,PageOffset(|?currentCursor@@3PEAU_cursor_@@EA|)]
	add         x9,x8,#0x38
	ldr         x8,[sp]
	add         x8,x8,#0x38
	mov         x2,#0x4800
	ldr         x1,[x9]
	ldr         x0,[x8]
	bl          memcpy

; 584  : 	currentCursor = newCursor;

	adrp        x9,|?currentCursor@@3PEAU_cursor_@@EA|
	ldr         x8,[sp]
	str         x8,[x9,PageOffset(|?currentCursor@@3PEAU_cursor_@@EA|)]
|$LN1@ChangeCurs|
	add         sp,sp,#0x10
	ldr         lr,[sp],#0x10
	ret

	ENDP  ; |?ChangeCursor@@YAXPEAU_cursor_@@@Z|, ChangeCursor

; Function compile flags: /Odtpy
; File C:\Users\paras\source\repos\grep-name\XenevaOS\Process\Deodhai\deomain.cpp

	AREA	|.text$mn|, CODE, ARM64

|?CursorDrawBack@@YAXPEAU_ChCanvas_@@PEAU_cursor_@@II@Z| PROC ; CursorDrawBack

; 568  : void CursorDrawBack(ChCanvas* canv,Cursor* cur, unsigned x, unsigned y) {

|$LN9|
	str         lr,[sp,#-0x10]!
	sub         sp,sp,#0x20
	str         x0,[sp,#0x18]
	str         x1,[sp,#0x10]
	str         w2,[sp,#0xC]
	str         w3,[sp,#8]

; 569  : 	for (int w = 0; w < 24; w++){

	mov         w8,#0
	str         w8,[sp,#4]
	b           |$LN4@CursorDraw|
|$LN2@CursorDraw|
	ldr         w8,[sp,#4]
	add         w8,w8,#1
	str         w8,[sp,#4]
|$LN4@CursorDraw|
	ldr         w8,[sp,#4]
	cmp         w8,#0x18
	bge         |$LN3@CursorDraw|

; 570  : 		for (int h = 0; h < 24; h++){

	mov         w8,#0
	str         w8,[sp]
	b           |$LN7@CursorDraw|
|$LN5@CursorDraw|
	ldr         w8,[sp]
	add         w8,w8,#1
	str         w8,[sp]
|$LN7@CursorDraw|
	ldr         w8,[sp]
	cmp         w8,#0x18
	bge         |$LN6@CursorDraw|

; 571  : 			ChDrawPixelRAW(canv, x + w, y + h, cur->cursorBack[h * 24 + w]);

	ldr         x8,[sp,#0x10]
	add         x10,x8,#0x38
	ldr         w9,[sp]
	mov         w8,#0x18
	mul         w9,w9,w8
	ldr         w8,[sp,#4]
	add         w8,w9,w8
	sxtw        x9,w8
	mov         x8,#4
	mul         x9,x9,x8
	ldr         x8,[x10]
	add         x10,x8,x9
	ldr         w9,[sp,#8]
	ldr         w8,[sp]
	add         w2,w9,w8
	ldr         w9,[sp,#0xC]
	ldr         w8,[sp,#4]
	add         w1,w9,w8
	ldr         w3,[x10]
	mov         w2,w2
	mov         w1,w1
	ldr         x0,[sp,#0x18]
	bl          ChDrawPixelRAW

; 572  : 		}

	b           |$LN5@CursorDraw|
|$LN6@CursorDraw|

; 573  : 	}

	b           |$LN2@CursorDraw|
|$LN3@CursorDraw|
	add         sp,sp,#0x20
	ldr         lr,[sp],#0x10
	ret

	ENDP  ; |?CursorDrawBack@@YAXPEAU_ChCanvas_@@PEAU_cursor_@@II@Z|, CursorDrawBack

; Function compile flags: /Odtpy
; File C:\Users\paras\source\repos\grep-name\XenevaOS\Process\Deodhai\deomain.cpp

	AREA	|.text$mn|, CODE, ARM64

|?CursorStoreBack@@YAXPEAU_ChCanvas_@@PEAU_cursor_@@II@Z| PROC ; CursorStoreBack

; 560  : void CursorStoreBack(ChCanvas* canv,Cursor* cur,unsigned x, unsigned y) {

|$LN9|
	str         lr,[sp,#-0x10]!
	sub         sp,sp,#0x20
	str         x0,[sp,#0x10]
	str         x1,[sp,#0x18]
	str         w2,[sp,#0xC]
	str         w3,[sp,#8]

; 561  : 	for (int w = 0; w < 24; w++){

	mov         w8,#0
	str         w8,[sp,#4]
	b           |$LN4@CursorStor|
|$LN2@CursorStor|
	ldr         w8,[sp,#4]
	add         w8,w8,#1
	str         w8,[sp,#4]
|$LN4@CursorStor|
	ldr         w8,[sp,#4]
	cmp         w8,#0x18
	bge         |$LN3@CursorStor|

; 562  : 		for (int h = 0; h < 24; h++){

	mov         w8,#0
	str         w8,[sp]
	b           |$LN7@CursorStor|
|$LN5@CursorStor|
	ldr         w8,[sp]
	add         w8,w8,#1
	str         w8,[sp]
|$LN7@CursorStor|
	ldr         w8,[sp]
	cmp         w8,#0x18
	bge         |$LN6@CursorStor|

; 563  : 			cur->cursorBack[h * 24 + w] = ChGetPixel(canv, x + w,y + h);

	ldr         w9,[sp,#8]
	ldr         w8,[sp]
	add         w2,w9,w8
	ldr         w9,[sp,#0xC]
	ldr         w8,[sp,#4]
	add         w1,w9,w8
	mov         w2,w2
	mov         w1,w1
	ldr         x0,[sp,#0x10]
	bl          ChGetPixel
	mov         w0,w0
	ldr         x8,[sp,#0x18]
	add         x10,x8,#0x38
	ldr         w9,[sp]
	mov         w8,#0x18
	mul         w9,w9,w8
	ldr         w8,[sp,#4]
	add         w8,w9,w8
	sxtw        x9,w8
	mov         x8,#4
	mul         x9,x9,x8
	ldr         x8,[x10]
	add         x8,x8,x9
	str         w0,[x8]

; 564  : 		}

	b           |$LN5@CursorStor|
|$LN6@CursorStor|

; 565  : 	}

	b           |$LN2@CursorStor|
|$LN3@CursorStor|
	add         sp,sp,#0x20
	ldr         lr,[sp],#0x10
	ret

	ENDP  ; |?CursorStoreBack@@YAXPEAU_ChCanvas_@@PEAU_cursor_@@II@Z|, CursorStoreBack

; Function compile flags: /Odtpy
; File C:\Users\paras\source\repos\grep-name\XenevaOS\Libs\Chitralekha\stb_image_resize.h

	AREA	|.text$mn|, CODE, ARM64

|?stbir__resize_arbitrary@@YAHPEAXPEBXHHH0HHHMMMMPEAMHHIW4stbir_datatype@@W4stbir_filter@@4W4stbir_edge@@5W4stbir_colorspace@@@Z| PROC ; stbir__resize_arbitrary

; 2429 : {

	str         lr,[sp,#-0x10]!
	sub         sp,sp,#0x190
	str         x0,[sp,#0x78]
	str         x1,[sp,#0x70]
	str         w2,[sp,#0x3C]
	str         w3,[sp,#0x38]
	str         w4,[sp,#0x50]
	str         x5,[sp,#0x68]
	str         w6,[sp,#0x34]
	str         w7,[sp,#0x30]
	str         s0,[sp,#0x4C]
	str         s1,[sp,#0x48]
	str         s2,[sp,#0x44]
	str         s3,[sp,#0x40]

; 2430 :     stbir__info info;
; 2431 :     int result;
; 2432 :     size_t memory_required;
; 2433 :     void* extra_memory;
; 2434 : 
; 2435 :     stbir__setup(&info, input_w, input_h, output_w, output_h, channels);

	ldr         w5,[sp,#0x1B0]
	ldr         w4,[sp,#0x30]
	ldr         w3,[sp,#0x34]
	ldr         w2,[sp,#0x38]
	ldr         w1,[sp,#0x3C]
	add         x0,sp,#0x80
	bl          |?stbir__setup@@YAXPEAUstbir__info@@HHHHH@Z|

; 2436 :     stbir__calculate_transform(&info, s0, t0, s1, t1, transform);

	ldr         x1,[sp,#0x1A8]
	ldr         s3,[sp,#0x40]
	ldr         s2,[sp,#0x44]
	ldr         s1,[sp,#0x48]
	ldr         s0,[sp,#0x4C]
	add         x0,sp,#0x80
	bl          |?stbir__calculate_transform@@YAXPEAUstbir__info@@MMMMPEAM@Z|

; 2437 :     stbir__choose_filter(&info, h_filter, v_filter);

	ldr         w2,[sp,#0x1D8]
	ldr         w1,[sp,#0x1D0]
	add         x0,sp,#0x80
	bl          |?stbir__choose_filter@@YAXPEAUstbir__info@@W4stbir_filter@@1@Z|

; 2438 :     memory_required = stbir__calculate_memory(&info);

	add         x0,sp,#0x80
	bl          |?stbir__calculate_memory@@YAIPEAUstbir__info@@@Z|
	mov         w0,w0
	uxtw        x8,w0
	str         x8,[sp,#0x60]

; 2439 :     extra_memory = STBIR_MALLOC(memory_required, alloc_context);

	ldr         x8,[sp,#0x60]
	mov         w0,w8
	mov         w0,w0
	bl          malloc
	str         x0,[sp,#0x58]

; 2440 : 
; 2441 :     if (!extra_memory)

	ldr         x8,[sp,#0x58]
	cmp         x8,#0
	bne         |$LN2@stbir__res|

; 2442 :         return 0;

	mov         w0,#0
	b           |$LN1@stbir__res|
|$LN2@stbir__res|

; 2443 : 
; 2444 :     result = stbir__resize_allocated(&info, input_data, input_stride_in_bytes,

	ldr         x8,[sp,#0x60]
	str         x8,[sp,#0x20]
	ldr         x8,[sp,#0x58]
	str         x8,[sp,#0x18]
	ldr         w8,[sp,#0x1F0]
	str         w8,[sp,#0x10]
	ldr         w8,[sp,#0x1E8]
	str         w8,[sp,#8]
	ldr         w8,[sp,#0x1E0]
	str         w8,[sp]
	ldr         w7,[sp,#0x1C8]
	ldr         w6,[sp,#0x1C0]
	ldr         w5,[sp,#0x1B8]
	ldr         w4,[sp,#0x1A0]
	ldr         x3,[sp,#0x68]
	ldr         w2,[sp,#0x50]
	ldr         x1,[sp,#0x70]
	add         x0,sp,#0x80
	bl          |?stbir__resize_allocated@@YAHPEAUstbir__info@@PEBXHPEAXHHIW4stbir_datatype@@W4stbir_edge@@4W4stbir_colorspace@@2_K@Z|
	mov         w0,w0
	str         w0,[sp,#0x54]

; 2445 :         output_data, output_stride_in_bytes,
; 2446 :         alpha_channel, flags, type,
; 2447 :         edge_horizontal, edge_vertical,
; 2448 :         colorspace, extra_memory, memory_required);
; 2449 : 
; 2450 :     STBIR_FREE(extra_memory, alloc_context);

	ldr         x0,[sp,#0x58]
	bl          free

; 2451 : 
; 2452 :     return result;

	ldr         w0,[sp,#0x54]
|$LN1@stbir__res|
	add         sp,sp,#0x190
	ldr         lr,[sp],#0x10
	ret

	ENDP  ; |?stbir__resize_arbitrary@@YAHPEAXPEBXHHH0HHHMMMMPEAMHHIW4stbir_datatype@@W4stbir_filter@@4W4stbir_edge@@5W4stbir_colorspace@@@Z|, stbir__resize_arbitrary

; Function compile flags: /Odtpy
; File C:\Users\paras\source\repos\grep-name\XenevaOS\Libs\Chitralekha\stb_image_resize.h

	AREA	|.text$mn|, CODE, ARM64

|?stbir__resize_allocated@@YAHPEAUstbir__info@@PEBXHPEAXHHIW4stbir_datatype@@W4stbir_edge@@4W4stbir_colorspace@@2_K@Z| PROC ; stbir__resize_allocated

; 2290 : {

	str         lr,[sp,#-0x10]!
	sub         sp,sp,#0x70
	str         x0,[sp]
	str         x1,[sp,#0x58]
	str         w2,[sp,#0x14]
	str         x3,[sp,#0x60]
	str         w4,[sp,#0x1C]
	str         w5,[sp,#8]
	str         w6,[sp,#0xC]
	str         w7,[sp,#0x10]

; 2291 :     size_t memory_required = stbir__calculate_memory(info);

	ldr         x0,[sp]
	bl          |?stbir__calculate_memory@@YAIPEAUstbir__info@@@Z|
	mov         w0,w0
	uxtw        x8,w0
	str         x8,[sp,#0x50]

; 2292 : 
; 2293 :     int width_stride_input = input_stride_in_bytes ? input_stride_in_bytes : info->channels * info->input_w * stbir__type_size[type];

	ldr         w8,[sp,#0x14]
	cmp         w8,#0
	beq         |$LN24@stbir__res|
	ldr         w8,[sp,#0x14]
	str         w8,[sp,#0x18]
	b           |$LN25@stbir__res|
|$LN24@stbir__res|
	ldr         x8,[sp]
	add         x9,x8,#0x4C
	ldr         x8,[sp]
	add         x8,x8,#8
	ldr         w9,[x9]
	ldr         w8,[x8]
	mul         w10,w9,w8
	ldr         w8,[sp,#0x10]
	sxtw        x9,w8
	mov         x8,#1
	mul         x9,x9,x8
	adrp        x8,|?stbir__type_size@@3PAEA|
	add         x8,x8,PageOffset(|?stbir__type_size@@3PAEA|)
	add         x8,x8,x9
	ldrb        w8,[x8]
	mov         w8,w8
	mul         w8,w10,w8
	str         w8,[sp,#0x18]
|$LN25@stbir__res|
	ldr         w8,[sp,#0x18]
	str         w8,[sp,#0x30]

; 2294 :     int width_stride_output = output_stride_in_bytes ? output_stride_in_bytes : info->channels * info->output_w * stbir__type_size[type];

	ldr         w8,[sp,#0x1C]
	cmp         w8,#0
	beq         |$LN26@stbir__res|
	ldr         w8,[sp,#0x1C]
	str         w8,[sp,#0x20]
	b           |$LN27@stbir__res|
|$LN26@stbir__res|
	ldr         x8,[sp]
	add         x9,x8,#0x4C
	ldr         x8,[sp]
	add         x8,x8,#0x20
	ldr         w9,[x9]
	ldr         w8,[x8]
	mul         w10,w9,w8
	ldr         w8,[sp,#0x10]
	sxtw        x9,w8
	mov         x8,#1
	mul         x9,x9,x8
	adrp        x8,|?stbir__type_size@@3PAEA|
	add         x8,x8,PageOffset(|?stbir__type_size@@3PAEA|)
	add         x8,x8,x9
	ldrb        w8,[x8]
	mov         w8,w8
	mul         w8,w10,w8
	str         w8,[sp,#0x20]
|$LN27@stbir__res|
	ldr         w8,[sp,#0x20]
	str         w8,[sp,#0x34]

; 2295 : 
; 2296 : #ifdef STBIR_DEBUG_OVERWRITE_TEST
; 2297 : #define OVERWRITE_ARRAY_SIZE 8
; 2298 :     unsigned char overwrite_output_before_pre[OVERWRITE_ARRAY_SIZE];
; 2299 :     unsigned char overwrite_tempmem_before_pre[OVERWRITE_ARRAY_SIZE];
; 2300 :     unsigned char overwrite_output_after_pre[OVERWRITE_ARRAY_SIZE];
; 2301 :     unsigned char overwrite_tempmem_after_pre[OVERWRITE_ARRAY_SIZE];
; 2302 : 
; 2303 :     size_t begin_forbidden = width_stride_output * (info->output_h - 1) + info->output_w * info->channels * stbir__type_size[type];
; 2304 :     memcpy(overwrite_output_before_pre, &((unsigned char*)output_data)[-OVERWRITE_ARRAY_SIZE], OVERWRITE_ARRAY_SIZE);
; 2305 :     memcpy(overwrite_output_after_pre, &((unsigned char*)output_data)[begin_forbidden], OVERWRITE_ARRAY_SIZE);
; 2306 :     memcpy(overwrite_tempmem_before_pre, &((unsigned char*)tempmem)[-OVERWRITE_ARRAY_SIZE], OVERWRITE_ARRAY_SIZE);
; 2307 :     memcpy(overwrite_tempmem_after_pre, &((unsigned char*)tempmem)[tempmem_size_in_bytes], OVERWRITE_ARRAY_SIZE);
; 2308 : #endif
; 2309 : 
; 2310 :     STBIR_ASSERT(info->channels >= 0);

	ldr         x8,[sp]
	add         x8,x8,#0x4C
	ldr         w8,[x8]
	cmp         w8,#0
	bne         |$LN28@stbir__res|
	mov         w8,#1
	str         w8,[sp,#0x24]
	b           |$LN29@stbir__res|
|$LN28@stbir__res|
	mov         w8,#0
	str         w8,[sp,#0x24]
|$LN29@stbir__res|
	ldr         w8,[sp,#0x24]
	cmp         w8,#0
	blt         |$LN2@stbir__res|
	bl          abort
|$LN2@stbir__res|

; 2311 :     STBIR_ASSERT(info->channels <= STBIR_MAX_CHANNELS);

	ldr         x8,[sp]
	add         x8,x8,#0x4C
	ldr         w8,[x8]
	cmp         w8,#0
	bne         |$LN30@stbir__res|
	mov         w8,#1
	str         w8,[sp,#0x28]
	b           |$LN31@stbir__res|
|$LN30@stbir__res|
	mov         w8,#0
	str         w8,[sp,#0x28]
|$LN31@stbir__res|
	ldr         w8,[sp,#0x28]
	cmp         w8,#0x40
	bgt         |$LN3@stbir__res|
	bl          abort
|$LN3@stbir__res|

; 2312 : 
; 2313 :     if (info->channels < 0 || info->channels > STBIR_MAX_CHANNELS)

	ldr         x8,[sp]
	add         x8,x8,#0x4C
	ldr         w8,[x8]
	cmp         w8,#0
	blt         |$LN5@stbir__res|
	ldr         x8,[sp]
	add         x8,x8,#0x4C
	ldr         w8,[x8]
	cmp         w8,#0x40
	ble         |$LN4@stbir__res|
|$LN5@stbir__res|

; 2314 :         return 0;

	mov         w0,#0
	b           |$LN1@stbir__res|
|$LN4@stbir__res|

; 2315 : 
; 2316 :     STBIR_ASSERT(info->horizontal_filter < STBIR__ARRAY_SIZE(stbir__filter_info_table));

	ldr         x8,[sp]
	add         x8,x8,#0x5C
	ldr         w8,[x8]
	cmp         w8,#0
	bne         |$LN32@stbir__res|
	mov         x8,#1
	str         x8,[sp,#0x38]
	b           |$LN33@stbir__res|
|$LN32@stbir__res|
	mov         x8,#0
	str         x8,[sp,#0x38]
|$LN33@stbir__res|
	ldr         x8,[sp,#0x38]
	cmp         x8,#6
	bhs         |$LN6@stbir__res|
	bl          abort
|$LN6@stbir__res|

; 2317 :     STBIR_ASSERT(info->vertical_filter < STBIR__ARRAY_SIZE(stbir__filter_info_table));

	ldr         x8,[sp]
	add         x8,x8,#0x60
	ldr         w8,[x8]
	cmp         w8,#0
	bne         |$LN34@stbir__res|
	mov         x8,#1
	str         x8,[sp,#0x40]
	b           |$LN35@stbir__res|
|$LN34@stbir__res|
	mov         x8,#0
	str         x8,[sp,#0x40]
|$LN35@stbir__res|
	ldr         x8,[sp,#0x40]
	cmp         x8,#6
	bhs         |$LN7@stbir__res|
	bl          abort
|$LN7@stbir__res|

; 2318 : 
; 2319 :     if (info->horizontal_filter >= STBIR__ARRAY_SIZE(stbir__filter_info_table))

	ldr         x8,[sp]
	add         x8,x8,#0x5C
	ldr         w8,[x8]
	sxtw        x8,w8
	cmp         x8,#6
	blo         |$LN8@stbir__res|

; 2320 :         return 0;

	mov         w0,#0
	b           |$LN1@stbir__res|
|$LN8@stbir__res|

; 2321 :     if (info->vertical_filter >= STBIR__ARRAY_SIZE(stbir__filter_info_table))

	ldr         x8,[sp]
	add         x8,x8,#0x60
	ldr         w8,[x8]
	sxtw        x8,w8
	cmp         x8,#6
	blo         |$LN9@stbir__res|

; 2322 :         return 0;

	mov         w0,#0
	b           |$LN1@stbir__res|
|$LN9@stbir__res|

; 2323 : 
; 2324 :     if (alpha_channel < 0)

	ldr         w8,[sp,#8]
	cmp         w8,#0
	bge         |$LN10@stbir__res|

; 2325 :         flags |= STBIR_FLAG_ALPHA_USES_COLORSPACE | STBIR_FLAG_ALPHA_PREMULTIPLIED;

	ldr         w8,[sp,#0xC]
	orr         w8,w8,#3
	str         w8,[sp,#0xC]
|$LN10@stbir__res|

; 2326 : 
; 2327 :     if (!(flags & STBIR_FLAG_ALPHA_USES_COLORSPACE) || !(flags & STBIR_FLAG_ALPHA_PREMULTIPLIED))

	ldr         w8,[sp,#0xC]
	tbz         x8,#1,|$LN12@stbir__res|
	ldr         w8,[sp,#0xC]
	tbnz        x8,#0,|$LN11@stbir__res|
|$LN12@stbir__res|

; 2328 :         STBIR_ASSERT(alpha_channel >= 0 && alpha_channel < info->channels);

	ldr         w8,[sp,#8]
	cmp         w8,#0
	bne         |$LN36@stbir__res|
	mov         w8,#1
	str         w8,[sp,#0x2C]
	b           |$LN37@stbir__res|
|$LN36@stbir__res|
	mov         w8,#0
	str         w8,[sp,#0x2C]
|$LN37@stbir__res|
	ldr         w8,[sp,#0x2C]
	cmp         w8,#0
	blt         |$LN13@stbir__res|
	ldr         x8,[sp]
	add         x8,x8,#0x4C
	ldr         w9,[x8]
	ldr         w8,[sp,#8]
	cmp         w8,w9
	bge         |$LN13@stbir__res|
	bl          abort
|$LN13@stbir__res|
|$LN11@stbir__res|

; 2329 : 
; 2330 :     if (alpha_channel >= info->channels)

	ldr         x8,[sp]
	add         x8,x8,#0x4C
	ldr         w9,[x8]
	ldr         w8,[sp,#8]
	cmp         w8,w9
	blt         |$LN14@stbir__res|

; 2331 :         return 0;

	mov         w0,#0
	b           |$LN1@stbir__res|
|$LN14@stbir__res|

; 2332 : 
; 2333 :     STBIR_ASSERT(tempmem);

	ldr         x8,[sp,#0x98]
	cmp         x8,#0
	bne         |$LN15@stbir__res|
	bl          abort
|$LN15@stbir__res|

; 2334 : 
; 2335 :     if (!tempmem)

	ldr         x8,[sp,#0x98]
	cmp         x8,#0
	bne         |$LN16@stbir__res|

; 2336 :         return 0;

	mov         w0,#0
	b           |$LN1@stbir__res|
|$LN16@stbir__res|

; 2337 : 
; 2338 :     STBIR_ASSERT(tempmem_size_in_bytes >= memory_required);

	ldr         x8,[sp,#0xA0]
	cmp         x8,#0
	bne         |$LN38@stbir__res|
	mov         x8,#1
	str         x8,[sp,#0x48]
	b           |$LN39@stbir__res|
|$LN38@stbir__res|
	mov         x8,#0
	str         x8,[sp,#0x48]
|$LN39@stbir__res|
	ldr         x9,[sp,#0x50]
	ldr         x8,[sp,#0x48]
	cmp         x8,x9
	blo         |$LN17@stbir__res|
	bl          abort
|$LN17@stbir__res|

; 2339 : 
; 2340 :     if (tempmem_size_in_bytes < memory_required)

	ldr         x9,[sp,#0x50]
	ldr         x8,[sp,#0xA0]
	cmp         x8,x9
	bhs         |$LN18@stbir__res|

; 2341 :         return 0;

	mov         w0,#0
	b           |$LN1@stbir__res|
|$LN18@stbir__res|

; 2342 : 
; 2343 :     memset(tempmem, 0, tempmem_size_in_bytes);

	ldr         x2,[sp,#0xA0]
	mov         w1,#0
	ldr         x0,[sp,#0x98]
	bl          memset

; 2344 : 
; 2345 :     info->input_data = input_data;

	ldr         x9,[sp]
	ldr         x8,[sp,#0x58]
	str         x8,[x9]

; 2346 :     info->input_stride_bytes = width_stride_input;

	ldr         x8,[sp]
	add         x9,x8,#0x10
	ldr         w8,[sp,#0x30]
	str         w8,[x9]

; 2347 : 
; 2348 :     info->output_data = output_data;

	ldr         x8,[sp]
	add         x9,x8,#0x18
	ldr         x8,[sp,#0x60]
	str         x8,[x9]

; 2349 :     info->output_stride_bytes = width_stride_output;

	ldr         x8,[sp]
	add         x9,x8,#0x28
	ldr         w8,[sp,#0x34]
	str         w8,[x9]

; 2350 : 
; 2351 :     info->alpha_channel = alpha_channel;

	ldr         x8,[sp]
	add         x9,x8,#0x50
	ldr         w8,[sp,#8]
	str         w8,[x9]

; 2352 :     info->flags = flags;

	ldr         x8,[sp]
	add         x9,x8,#0x54
	ldr         w8,[sp,#0xC]
	str         w8,[x9]

; 2353 :     info->type = type;

	ldr         x8,[sp]
	add         x9,x8,#0x58
	ldr         w8,[sp,#0x10]
	str         w8,[x9]

; 2354 :     info->edge_horizontal = edge_horizontal;

	ldr         x8,[sp]
	add         x9,x8,#0x64
	ldr         w8,[sp,#0x80]
	str         w8,[x9]

; 2355 :     info->edge_vertical = edge_vertical;

	ldr         x8,[sp]
	add         x9,x8,#0x68
	ldr         w8,[sp,#0x88]
	str         w8,[x9]

; 2356 :     info->colorspace = colorspace;

	ldr         x8,[sp]
	add         x9,x8,#0x6C
	ldr         w8,[sp,#0x90]
	str         w8,[x9]

; 2357 : 
; 2358 :     info->horizontal_coefficient_width = stbir__get_coefficient_width(info->horizontal_filter, info->horizontal_scale);

	ldr         x8,[sp]
	add         x9,x8,#0x44
	ldr         x8,[sp]
	add         x8,x8,#0x5C
	ldr         s0,[x9]
	ldr         w0,[x8]
	bl          |?stbir__get_coefficient_width@@YAHW4stbir_filter@@M@Z|
	mov         w0,w0
	ldr         x8,[sp]
	add         x8,x8,#0xA8
	str         w0,[x8]

; 2359 :     info->vertical_coefficient_width = stbir__get_coefficient_width(info->vertical_filter, info->vertical_scale);

	ldr         x8,[sp]
	add         x9,x8,#0x48
	ldr         x8,[sp]
	add         x8,x8,#0x60
	ldr         s0,[x9]
	ldr         w0,[x8]
	bl          |?stbir__get_coefficient_width@@YAHW4stbir_filter@@M@Z|
	mov         w0,w0
	ldr         x8,[sp]
	add         x8,x8,#0xAC
	str         w0,[x8]

; 2360 :     info->horizontal_filter_pixel_width = stbir__get_filter_pixel_width(info->horizontal_filter, info->horizontal_scale);

	ldr         x8,[sp]
	add         x9,x8,#0x44
	ldr         x8,[sp]
	add         x8,x8,#0x5C
	ldr         s0,[x9]
	ldr         w0,[x8]
	bl          |?stbir__get_filter_pixel_width@@YAHW4stbir_filter@@M@Z|
	mov         w0,w0
	ldr         x8,[sp]
	add         x8,x8,#0xB0
	str         w0,[x8]

; 2361 :     info->vertical_filter_pixel_width = stbir__get_filter_pixel_width(info->vertical_filter, info->vertical_scale);

	ldr         x8,[sp]
	add         x9,x8,#0x48
	ldr         x8,[sp]
	add         x8,x8,#0x60
	ldr         s0,[x9]
	ldr         w0,[x8]
	bl          |?stbir__get_filter_pixel_width@@YAHW4stbir_filter@@M@Z|
	mov         w0,w0
	ldr         x8,[sp]
	add         x8,x8,#0xB4
	str         w0,[x8]

; 2362 :     info->horizontal_filter_pixel_margin = stbir__get_filter_pixel_margin(info->horizontal_filter, info->horizontal_scale);

	ldr         x8,[sp]
	add         x9,x8,#0x44
	ldr         x8,[sp]
	add         x8,x8,#0x5C
	ldr         s0,[x9]
	ldr         w0,[x8]
	bl          |?stbir__get_filter_pixel_margin@@YAHW4stbir_filter@@M@Z|
	mov         w0,w0
	ldr         x8,[sp]
	add         x8,x8,#0xB8
	str         w0,[x8]

; 2363 :     info->vertical_filter_pixel_margin = stbir__get_filter_pixel_margin(info->vertical_filter, info->vertical_scale);

	ldr         x8,[sp]
	add         x9,x8,#0x48
	ldr         x8,[sp]
	add         x8,x8,#0x60
	ldr         s0,[x9]
	ldr         w0,[x8]
	bl          |?stbir__get_filter_pixel_margin@@YAHW4stbir_filter@@M@Z|
	mov         w0,w0
	ldr         x8,[sp]
	add         x8,x8,#0xBC
	str         w0,[x8]

; 2364 : 
; 2365 :     info->ring_buffer_length_bytes = info->output_w * info->channels * sizeof(float);

	ldr         x8,[sp]
	add         x9,x8,#0x20
	ldr         x8,[sp]
	add         x8,x8,#0x4C
	ldr         w9,[x9]
	ldr         w8,[x8]
	mul         w8,w9,w8
	sxtw        x9,w8
	mov         x8,#4
	mul         x8,x9,x8
	mov         w9,w8
	ldr         x8,[sp]
	add         x8,x8,#0xC8
	str         w9,[x8]

; 2366 :     info->decode_buffer_pixels = info->input_w + info->horizontal_filter_pixel_margin * 2;

	ldr         x8,[sp]
	add         x10,x8,#8
	ldr         x8,[sp]
	add         x8,x8,#0xB8
	ldr         w9,[x8]
	mov         w8,#2
	mul         w9,w9,w8
	ldr         w8,[x10]
	add         w9,w8,w9
	ldr         x8,[sp]
	add         x8,x8,#0x90
	str         w9,[x8]

; 2367 : 
; 2368 : #define STBIR__NEXT_MEMPTR(current, newtype) (newtype*)(((unsigned char*)current) + current##_size)
; 2369 : 
; 2370 :     info->horizontal_contributors = (stbir__contributors*)tempmem;

	ldr         x8,[sp]
	add         x9,x8,#0x70
	ldr         x8,[sp,#0x98]
	str         x8,[x9]

; 2371 :     info->horizontal_coefficients = STBIR__NEXT_MEMPTR(info->horizontal_contributors, float);

	ldr         x8,[sp]
	add         x10,x8,#0x70
	ldr         x8,[sp]
	add         x8,x8,#0xE8
	ldr         w8,[x8]
	sxtw        x9,w8
	ldr         x8,[x10]
	add         x9,x8,x9
	ldr         x8,[sp]
	add         x8,x8,#0x78
	str         x9,[x8]

; 2372 :     info->vertical_contributors = STBIR__NEXT_MEMPTR(info->horizontal_coefficients, stbir__contributors);

	ldr         x8,[sp]
	add         x10,x8,#0x78
	ldr         x8,[sp]
	add         x8,x8,#0xEC
	ldr         w8,[x8]
	sxtw        x9,w8
	ldr         x8,[x10]
	add         x9,x8,x9
	ldr         x8,[sp]
	add         x8,x8,#0x80
	str         x9,[x8]

; 2373 :     info->vertical_coefficients = STBIR__NEXT_MEMPTR(info->vertical_contributors, float);

	ldr         x8,[sp]
	add         x10,x8,#0x80
	ldr         x8,[sp]
	add         x8,x8,#0xF0
	ldr         w8,[x8]
	sxtw        x9,w8
	ldr         x8,[x10]
	add         x9,x8,x9
	ldr         x8,[sp]
	add         x8,x8,#0x88
	str         x9,[x8]

; 2374 :     info->decode_buffer = STBIR__NEXT_MEMPTR(info->vertical_coefficients, float);

	ldr         x8,[sp]
	add         x10,x8,#0x88
	ldr         x8,[sp]
	add         x8,x8,#0xF4
	ldr         w8,[x8]
	sxtw        x9,w8
	ldr         x8,[x10]
	add         x9,x8,x9
	ldr         x8,[sp]
	add         x8,x8,#0x98
	str         x9,[x8]

; 2375 : 
; 2376 :     if (stbir__use_height_upsampling(info))

	ldr         x0,[sp]
	bl          |?stbir__use_height_upsampling@@YAHPEAUstbir__info@@@Z|
	mov         w0,w0
	cmp         w0,#0
	beq         |$LN19@stbir__res|

; 2377 :     {
; 2378 :         info->horizontal_buffer = NULL;

	ldr         x8,[sp]
	add         x9,x8,#0xA0
	mov         x8,#0
	str         x8,[x9]

; 2379 :         info->ring_buffer = STBIR__NEXT_MEMPTR(info->decode_buffer, float);

	ldr         x8,[sp]
	add         x10,x8,#0x98
	ldr         x8,[sp]
	add         x8,x8,#0xF8
	ldr         w8,[x8]
	sxtw        x9,w8
	ldr         x8,[x10]
	add         x9,x8,x9
	ldr         x8,[sp]
	add         x8,x8,#0xD8
	str         x9,[x8]

; 2380 :         info->encode_buffer = STBIR__NEXT_MEMPTR(info->ring_buffer, float);

	ldr         x8,[sp]
	add         x10,x8,#0xD8
	ldr         x8,[sp]
	add         x8,x8,#0x100
	ldr         w8,[x8]
	sxtw        x9,w8
	ldr         x8,[x10]
	add         x9,x8,x9
	ldr         x8,[sp]
	add         x8,x8,#0xE0
	str         x9,[x8]

; 2381 : 
; 2382 :         STBIR__DEBUG_ASSERT((size_t)STBIR__NEXT_MEMPTR(info->encode_buffer, unsigned char) == (size_t)tempmem + tempmem_size_in_bytes);
; 2383 :     }

	b           |$LN20@stbir__res|
|$LN19@stbir__res|

; 2384 :     else
; 2385 :     {
; 2386 :         info->horizontal_buffer = STBIR__NEXT_MEMPTR(info->decode_buffer, float);

	ldr         x8,[sp]
	add         x10,x8,#0x98
	ldr         x8,[sp]
	add         x8,x8,#0xF8
	ldr         w8,[x8]
	sxtw        x9,w8
	ldr         x8,[x10]
	add         x9,x8,x9
	ldr         x8,[sp]
	add         x8,x8,#0xA0
	str         x9,[x8]

; 2387 :         info->ring_buffer = STBIR__NEXT_MEMPTR(info->horizontal_buffer, float);

	ldr         x8,[sp]
	add         x10,x8,#0xA0
	ldr         x8,[sp]
	add         x8,x8,#0xFC
	ldr         w8,[x8]
	sxtw        x9,w8
	ldr         x8,[x10]
	add         x9,x8,x9
	ldr         x8,[sp]
	add         x8,x8,#0xD8
	str         x9,[x8]

; 2388 :         info->encode_buffer = NULL;

	ldr         x8,[sp]
	add         x9,x8,#0xE0
	mov         x8,#0
	str         x8,[x9]
|$LN20@stbir__res|

; 2389 : 
; 2390 :         STBIR__DEBUG_ASSERT((size_t)STBIR__NEXT_MEMPTR(info->ring_buffer, unsigned char) == (size_t)tempmem + tempmem_size_in_bytes);
; 2391 :     }
; 2392 : 
; 2393 : #undef STBIR__NEXT_MEMPTR
; 2394 : 
; 2395 :     // This signals that the ring buffer is empty
; 2396 :     info->ring_buffer_begin_index = -1;

	ldr         x8,[sp]
	add         x9,x8,#0xD4
	mov         w8,#-1
	str         w8,[x9]

; 2397 : 
; 2398 :     stbir__calculate_filters(info, info->horizontal_contributors, info->horizontal_coefficients, info->horizontal_filter, info->horizontal_scale, info->horizontal_shift, info->input_w, info->output_w);

	ldr         x8,[sp]
	add         x14,x8,#0x20
	ldr         x8,[sp]
	add         x13,x8,#8
	ldr         x8,[sp]
	add         x12,x8,#0x3C
	ldr         x8,[sp]
	add         x11,x8,#0x44
	ldr         x8,[sp]
	add         x10,x8,#0x5C
	ldr         x8,[sp]
	add         x9,x8,#0x78
	ldr         x8,[sp]
	add         x8,x8,#0x70
	ldr         w5,[x14]
	ldr         w4,[x13]
	ldr         s1,[x12]
	ldr         s0,[x11]
	ldr         w3,[x10]
	ldr         x2,[x9]
	ldr         x1,[x8]
	ldr         x0,[sp]
	bl          |?stbir__calculate_filters@@YAXPEAUstbir__info@@PEAUstbir__contributors@@PEAMW4stbir_filter@@MMHH@Z|

; 2399 :     stbir__calculate_filters(info, info->vertical_contributors, info->vertical_coefficients, info->vertical_filter, info->vertical_scale, info->vertical_shift, info->input_h, info->output_h);

	ldr         x8,[sp]
	add         x14,x8,#0x24
	ldr         x8,[sp]
	add         x13,x8,#0xC
	ldr         x8,[sp]
	add         x12,x8,#0x40
	ldr         x8,[sp]
	add         x11,x8,#0x48
	ldr         x8,[sp]
	add         x10,x8,#0x60
	ldr         x8,[sp]
	add         x9,x8,#0x88
	ldr         x8,[sp]
	add         x8,x8,#0x80
	ldr         w5,[x14]
	ldr         w4,[x13]
	ldr         s1,[x12]
	ldr         s0,[x11]
	ldr         w3,[x10]
	ldr         x2,[x9]
	ldr         x1,[x8]
	ldr         x0,[sp]
	bl          |?stbir__calculate_filters@@YAXPEAUstbir__info@@PEAUstbir__contributors@@PEAMW4stbir_filter@@MMHH@Z|

; 2400 : 
; 2401 :     STBIR_PROGRESS_REPORT(0);
; 2402 : 
; 2403 :     if (stbir__use_height_upsampling(info))

	ldr         x0,[sp]
	bl          |?stbir__use_height_upsampling@@YAHPEAUstbir__info@@@Z|
	mov         w0,w0
	cmp         w0,#0
	beq         |$LN21@stbir__res|

; 2404 :         stbir__buffer_loop_upsample(info);

	ldr         x0,[sp]
	bl          |?stbir__buffer_loop_upsample@@YAXPEAUstbir__info@@@Z|
	b           |$LN22@stbir__res|
|$LN21@stbir__res|

; 2405 :     else
; 2406 :         stbir__buffer_loop_downsample(info);

	ldr         x0,[sp]
	bl          |?stbir__buffer_loop_downsample@@YAXPEAUstbir__info@@@Z|
|$LN22@stbir__res|

; 2407 : 
; 2408 :     STBIR_PROGRESS_REPORT(1);
; 2409 : 
; 2410 : #ifdef STBIR_DEBUG_OVERWRITE_TEST
; 2411 :     STBIR__DEBUG_ASSERT(memcmp(overwrite_output_before_pre, &((unsigned char*)output_data)[-OVERWRITE_ARRAY_SIZE], OVERWRITE_ARRAY_SIZE) == 0);
; 2412 :     STBIR__DEBUG_ASSERT(memcmp(overwrite_output_after_pre, &((unsigned char*)output_data)[begin_forbidden], OVERWRITE_ARRAY_SIZE) == 0);
; 2413 :     STBIR__DEBUG_ASSERT(memcmp(overwrite_tempmem_before_pre, &((unsigned char*)tempmem)[-OVERWRITE_ARRAY_SIZE], OVERWRITE_ARRAY_SIZE) == 0);
; 2414 :     STBIR__DEBUG_ASSERT(memcmp(overwrite_tempmem_after_pre, &((unsigned char*)tempmem)[tempmem_size_in_bytes], OVERWRITE_ARRAY_SIZE) == 0);
; 2415 : #endif
; 2416 : 
; 2417 :     return 1;

	mov         w0,#1
|$LN1@stbir__res|
	add         sp,sp,#0x70
	ldr         lr,[sp],#0x10
	ret

	ENDP  ; |?stbir__resize_allocated@@YAHPEAUstbir__info@@PEBXHPEAXHHIW4stbir_datatype@@W4stbir_edge@@4W4stbir_colorspace@@2_K@Z|, stbir__resize_allocated

; Function compile flags: /Odtpy
; File C:\Users\paras\source\repos\grep-name\XenevaOS\Libs\Chitralekha\stb_image_resize.h

	AREA	|.text$mn|, CODE, ARM64

|?stbir__calculate_memory@@YAIPEAUstbir__info@@@Z| PROC	; stbir__calculate_memory

; 2247 : {

	str         lr,[sp,#-0x10]!
	sub         sp,sp,#0x30
	str         x0,[sp,#0x10]

; 2248 :     int pixel_margin = stbir__get_filter_pixel_margin(info->horizontal_filter, info->horizontal_scale);

	ldr         x8,[sp,#0x10]
	add         x9,x8,#0x44
	ldr         x8,[sp,#0x10]
	add         x8,x8,#0x5C
	ldr         s0,[x9]
	ldr         w0,[x8]
	bl          |?stbir__get_filter_pixel_margin@@YAHW4stbir_filter@@M@Z|
	mov         w0,w0
	str         w0,[sp,#8]

; 2249 :     int filter_height = stbir__get_filter_pixel_width(info->vertical_filter, info->vertical_scale);

	ldr         x8,[sp,#0x10]
	add         x9,x8,#0x48
	ldr         x8,[sp,#0x10]
	add         x8,x8,#0x60
	ldr         s0,[x9]
	ldr         w0,[x8]
	bl          |?stbir__get_filter_pixel_width@@YAHW4stbir_filter@@M@Z|
	mov         w0,w0
	str         w0,[sp,#0xC]

; 2250 : 
; 2251 :     info->horizontal_num_contributors = stbir__get_contributors(info->horizontal_scale, info->horizontal_filter, info->input_w, info->output_w);

	ldr         x8,[sp,#0x10]
	add         x11,x8,#0x20
	ldr         x8,[sp,#0x10]
	add         x10,x8,#8
	ldr         x8,[sp,#0x10]
	add         x9,x8,#0x5C
	ldr         x8,[sp,#0x10]
	add         x8,x8,#0x44
	ldr         w2,[x11]
	ldr         w1,[x10]
	ldr         w0,[x9]
	ldr         s0,[x8]
	bl          |?stbir__get_contributors@@YAHMW4stbir_filter@@HH@Z|
	mov         w0,w0
	ldr         x8,[sp,#0x10]
	add         x8,x8,#0xC0
	str         w0,[x8]

; 2252 :     info->vertical_num_contributors = stbir__get_contributors(info->vertical_scale, info->vertical_filter, info->input_h, info->output_h);

	ldr         x8,[sp,#0x10]
	add         x11,x8,#0x24
	ldr         x8,[sp,#0x10]
	add         x10,x8,#0xC
	ldr         x8,[sp,#0x10]
	add         x9,x8,#0x60
	ldr         x8,[sp,#0x10]
	add         x8,x8,#0x48
	ldr         w2,[x11]
	ldr         w1,[x10]
	ldr         w0,[x9]
	ldr         s0,[x8]
	bl          |?stbir__get_contributors@@YAHMW4stbir_filter@@HH@Z|
	mov         w0,w0
	ldr         x8,[sp,#0x10]
	add         x8,x8,#0xC4
	str         w0,[x8]

; 2253 : 
; 2254 :     info->horizontal_contributors_size = info->horizontal_num_contributors * sizeof(stbir__contributors);

	ldr         x8,[sp,#0x10]
	add         x8,x8,#0xC0
	ldr         w8,[x8]
	sxtw        x9,w8
	mov         x8,#8
	mul         x8,x9,x8
	mov         w9,w8
	ldr         x8,[sp,#0x10]
	add         x8,x8,#0xE8
	str         w9,[x8]

; 2255 :     info->horizontal_coefficients_size = stbir__get_total_horizontal_coefficients(info) * sizeof(float);

	ldr         x0,[sp,#0x10]
	bl          |?stbir__get_total_horizontal_coefficients@@YAHPEAUstbir__info@@@Z|
	mov         w0,w0
	sxtw        x9,w0
	mov         x8,#4
	mul         x8,x9,x8
	mov         w9,w8
	ldr         x8,[sp,#0x10]
	add         x8,x8,#0xEC
	str         w9,[x8]

; 2256 :     info->vertical_contributors_size = info->vertical_num_contributors * sizeof(stbir__contributors);

	ldr         x8,[sp,#0x10]
	add         x8,x8,#0xC4
	ldr         w8,[x8]
	sxtw        x9,w8
	mov         x8,#8
	mul         x8,x9,x8
	mov         w9,w8
	ldr         x8,[sp,#0x10]
	add         x8,x8,#0xF0
	str         w9,[x8]

; 2257 :     info->vertical_coefficients_size = stbir__get_total_vertical_coefficients(info) * sizeof(float);

	ldr         x0,[sp,#0x10]
	bl          |?stbir__get_total_vertical_coefficients@@YAHPEAUstbir__info@@@Z|
	mov         w0,w0
	sxtw        x9,w0
	mov         x8,#4
	mul         x8,x9,x8
	mov         w9,w8
	ldr         x8,[sp,#0x10]
	add         x8,x8,#0xF4
	str         w9,[x8]

; 2258 :     info->decode_buffer_size = (info->input_w + pixel_margin * 2) * info->channels * sizeof(float);

	ldr         x8,[sp,#0x10]
	add         x10,x8,#8
	ldr         w9,[sp,#8]
	mov         w8,#2
	mul         w9,w9,w8
	ldr         w8,[x10]
	add         w9,w8,w9
	ldr         x8,[sp,#0x10]
	add         x8,x8,#0x4C
	ldr         w8,[x8]
	mul         w8,w9,w8
	sxtw        x9,w8
	mov         x8,#4
	mul         x8,x9,x8
	mov         w9,w8
	ldr         x8,[sp,#0x10]
	add         x8,x8,#0xF8
	str         w9,[x8]

; 2259 :     info->horizontal_buffer_size = info->output_w * info->channels * sizeof(float);

	ldr         x8,[sp,#0x10]
	add         x9,x8,#0x20
	ldr         x8,[sp,#0x10]
	add         x8,x8,#0x4C
	ldr         w9,[x9]
	ldr         w8,[x8]
	mul         w8,w9,w8
	sxtw        x9,w8
	mov         x8,#4
	mul         x8,x9,x8
	mov         w9,w8
	ldr         x8,[sp,#0x10]
	add         x8,x8,#0xFC
	str         w9,[x8]

; 2260 :     info->ring_buffer_size = info->output_w * info->channels * filter_height * sizeof(float);

	ldr         x8,[sp,#0x10]
	add         x9,x8,#0x20
	ldr         x8,[sp,#0x10]
	add         x8,x8,#0x4C
	ldr         w9,[x9]
	ldr         w8,[x8]
	mul         w9,w9,w8
	ldr         w8,[sp,#0xC]
	mul         w8,w9,w8
	sxtw        x9,w8
	mov         x8,#4
	mul         x8,x9,x8
	mov         w9,w8
	ldr         x8,[sp,#0x10]
	add         x8,x8,#0x100
	str         w9,[x8]

; 2261 :     info->encode_buffer_size = info->output_w * info->channels * sizeof(float);

	ldr         x8,[sp,#0x10]
	add         x9,x8,#0x20
	ldr         x8,[sp,#0x10]
	add         x8,x8,#0x4C
	ldr         w9,[x9]
	ldr         w8,[x8]
	mul         w8,w9,w8
	sxtw        x9,w8
	mov         x8,#4
	mul         x8,x9,x8
	mov         w9,w8
	ldr         x8,[sp,#0x10]
	add         x8,x8,#0x104
	str         w9,[x8]

; 2262 : 
; 2263 :     STBIR_ASSERT(info->horizontal_filter != 0);

	ldr         x8,[sp,#0x10]
	add         x8,x8,#0x5C
	ldr         w8,[x8]
	cmp         w8,#0
	bne         |$LN9@stbir__cal|
	mov         w8,#1
	str         w8,[sp]
	b           |$LN10@stbir__cal|
|$LN9@stbir__cal|
	mov         w8,#0
	str         w8,[sp]
|$LN10@stbir__cal|
	ldr         w8,[sp]
	cmp         w8,#0
	beq         |$LN2@stbir__cal|
	bl          abort
|$LN2@stbir__cal|

; 2264 :     STBIR_ASSERT(info->horizontal_filter < STBIR__ARRAY_SIZE(stbir__filter_info_table)); // this now happens too late

	ldr         x8,[sp,#0x10]
	add         x8,x8,#0x5C
	ldr         w8,[x8]
	cmp         w8,#0
	bne         |$LN11@stbir__cal|
	mov         x8,#1
	str         x8,[sp,#0x18]
	b           |$LN12@stbir__cal|
|$LN11@stbir__cal|
	mov         x8,#0
	str         x8,[sp,#0x18]
|$LN12@stbir__cal|
	ldr         x8,[sp,#0x18]
	cmp         x8,#6
	bhs         |$LN3@stbir__cal|
	bl          abort
|$LN3@stbir__cal|

; 2265 :     STBIR_ASSERT(info->vertical_filter != 0);

	ldr         x8,[sp,#0x10]
	add         x8,x8,#0x60
	ldr         w8,[x8]
	cmp         w8,#0
	bne         |$LN13@stbir__cal|
	mov         w8,#1
	str         w8,[sp,#4]
	b           |$LN14@stbir__cal|
|$LN13@stbir__cal|
	mov         w8,#0
	str         w8,[sp,#4]
|$LN14@stbir__cal|
	ldr         w8,[sp,#4]
	cmp         w8,#0
	beq         |$LN4@stbir__cal|
	bl          abort
|$LN4@stbir__cal|

; 2266 :     STBIR_ASSERT(info->vertical_filter < STBIR__ARRAY_SIZE(stbir__filter_info_table)); // this now happens too late

	ldr         x8,[sp,#0x10]
	add         x8,x8,#0x60
	ldr         w8,[x8]
	cmp         w8,#0
	bne         |$LN15@stbir__cal|
	mov         x8,#1
	str         x8,[sp,#0x20]
	b           |$LN16@stbir__cal|
|$LN15@stbir__cal|
	mov         x8,#0
	str         x8,[sp,#0x20]
|$LN16@stbir__cal|
	ldr         x8,[sp,#0x20]
	cmp         x8,#6
	bhs         |$LN5@stbir__cal|
	bl          abort
|$LN5@stbir__cal|

; 2267 : 
; 2268 :     if (stbir__use_height_upsampling(info))

	ldr         x0,[sp,#0x10]
	bl          |?stbir__use_height_upsampling@@YAHPEAUstbir__info@@@Z|
	mov         w0,w0
	cmp         w0,#0
	beq         |$LN6@stbir__cal|

; 2269 :         // The horizontal buffer is for when we're downsampling the height and we
; 2270 :         // can't output the result of sampling the decode buffer directly into the
; 2271 :         // ring buffers.
; 2272 :         info->horizontal_buffer_size = 0;

	ldr         x8,[sp,#0x10]
	add         x9,x8,#0xFC
	mov         w8,#0
	str         w8,[x9]
	b           |$LN7@stbir__cal|
|$LN6@stbir__cal|

; 2273 :     else
; 2274 :         // The encode buffer is to retain precision in the height upsampling method
; 2275 :         // and isn't used when height downsampling.
; 2276 :         info->encode_buffer_size = 0;

	ldr         x8,[sp,#0x10]
	add         x9,x8,#0x104
	mov         w8,#0
	str         w8,[x9]
|$LN7@stbir__cal|

; 2277 : 
; 2278 :     return info->horizontal_contributors_size + info->horizontal_coefficients_size

	ldr         x8,[sp,#0x10]
	add         x9,x8,#0xE8
	ldr         x8,[sp,#0x10]
	add         x8,x8,#0xEC
	ldr         w9,[x9]
	ldr         w8,[x8]
	add         w9,w9,w8
	ldr         x8,[sp,#0x10]
	add         x8,x8,#0xF0
	ldr         w8,[x8]
	add         w9,w9,w8
	ldr         x8,[sp,#0x10]
	add         x8,x8,#0xF4
	ldr         w8,[x8]
	add         w9,w9,w8
	ldr         x8,[sp,#0x10]
	add         x8,x8,#0xF8
	ldr         w8,[x8]
	add         w9,w9,w8
	ldr         x8,[sp,#0x10]
	add         x8,x8,#0xFC
	ldr         w8,[x8]
	add         w9,w9,w8
	ldr         x8,[sp,#0x10]
	add         x8,x8,#0x100
	ldr         w8,[x8]
	add         w9,w9,w8
	ldr         x8,[sp,#0x10]
	add         x8,x8,#0x104
	ldr         w8,[x8]
	add         w0,w9,w8
	mov         w0,w0
	add         sp,sp,#0x30
	ldr         lr,[sp],#0x10
	ret

	ENDP  ; |?stbir__calculate_memory@@YAIPEAUstbir__info@@@Z|, stbir__calculate_memory

; Function compile flags: /Odtpy
; File C:\Users\paras\source\repos\grep-name\XenevaOS\Libs\Chitralekha\stb_image_resize.h

	AREA	|.text$mn|, CODE, ARM64

|?stbir__choose_filter@@YAXPEAUstbir__info@@W4stbir_filter@@1@Z| PROC ; stbir__choose_filter

; 2237 : {

	str         lr,[sp,#-0x10]!
	sub         sp,sp,#0x20
	str         x0,[sp,#0x10]
	str         w1,[sp]
	str         w2,[sp,#4]

; 2238 :     if (h_filter == 0)

	ldr         w8,[sp]
	cmp         w8,#0
	bne         |$LN2@stbir__cho|

; 2239 :         h_filter = stbir__use_upsampling(info->horizontal_scale) ? STBIR_DEFAULT_FILTER_UPSAMPLE : STBIR_DEFAULT_FILTER_DOWNSAMPLE;

	ldr         x8,[sp,#0x10]
	add         x8,x8,#0x44
	ldr         s0,[x8]
	bl          |?stbir__use_upsampling@@YAHM@Z|
	mov         w0,w0
	cmp         w0,#0
	beq         |$LN5@stbir__cho|
	mov         w8,#4
	str         w8,[sp,#8]
	b           |$LN6@stbir__cho|
|$LN5@stbir__cho|
	mov         w8,#5
	str         w8,[sp,#8]
|$LN6@stbir__cho|
	ldr         w8,[sp,#8]
	str         w8,[sp]
|$LN2@stbir__cho|

; 2240 :     if (v_filter == 0)

	ldr         w8,[sp,#4]
	cmp         w8,#0
	bne         |$LN3@stbir__cho|

; 2241 :         v_filter = stbir__use_upsampling(info->vertical_scale) ? STBIR_DEFAULT_FILTER_UPSAMPLE : STBIR_DEFAULT_FILTER_DOWNSAMPLE;

	ldr         x8,[sp,#0x10]
	add         x8,x8,#0x48
	ldr         s0,[x8]
	bl          |?stbir__use_upsampling@@YAHM@Z|
	mov         w0,w0
	cmp         w0,#0
	beq         |$LN7@stbir__cho|
	mov         w8,#4
	str         w8,[sp,#0xC]
	b           |$LN8@stbir__cho|
|$LN7@stbir__cho|
	mov         w8,#5
	str         w8,[sp,#0xC]
|$LN8@stbir__cho|
	ldr         w8,[sp,#0xC]
	str         w8,[sp,#4]
|$LN3@stbir__cho|

; 2242 :     info->horizontal_filter = h_filter;

	ldr         x8,[sp,#0x10]
	add         x9,x8,#0x5C
	ldr         w8,[sp]
	str         w8,[x9]

; 2243 :     info->vertical_filter = v_filter;

	ldr         x8,[sp,#0x10]
	add         x9,x8,#0x60
	ldr         w8,[sp,#4]
	str         w8,[x9]
	add         sp,sp,#0x20
	ldr         lr,[sp],#0x10
	ret

	ENDP  ; |?stbir__choose_filter@@YAXPEAUstbir__info@@W4stbir_filter@@1@Z|, stbir__choose_filter

; Function compile flags: /Odtpy
; File C:\Users\paras\source\repos\grep-name\XenevaOS\Libs\Chitralekha\stb_image_resize.h

	AREA	|.text$mn|, CODE, ARM64

|?stbir__calculate_transform@@YAXPEAUstbir__info@@MMMMPEAM@Z| PROC ; stbir__calculate_transform

; 2213 : {

	sub         sp,sp,#0x20
	str         x0,[sp,#0x10]
	str         s0,[sp]
	str         s1,[sp,#4]
	str         s2,[sp,#8]
	str         s3,[sp,#0xC]
	str         x1,[sp,#0x18]

; 2214 :     info->s0 = s0;

	ldr         x8,[sp,#0x10]
	add         x8,x8,#0x2C
	ldr         s16,[sp]
	str         s16,[x8]

; 2215 :     info->t0 = t0;

	ldr         x8,[sp,#0x10]
	add         x8,x8,#0x30
	ldr         s16,[sp,#4]
	str         s16,[x8]

; 2216 :     info->s1 = s1;

	ldr         x8,[sp,#0x10]
	add         x8,x8,#0x34
	ldr         s16,[sp,#8]
	str         s16,[x8]

; 2217 :     info->t1 = t1;

	ldr         x8,[sp,#0x10]
	add         x8,x8,#0x38
	ldr         s16,[sp,#0xC]
	str         s16,[x8]

; 2218 : 
; 2219 :     if (transform)

	ldr         x8,[sp,#0x18]
	cmp         x8,#0
	beq         |$LN2@stbir__cal|

; 2220 :     {
; 2221 :         info->horizontal_scale = transform[0];

	ldr         x8,[sp,#0x10]
	add         x9,x8,#0x44
	ldr         x8,[sp,#0x18]
	ldr         s16,[x8]
	str         s16,[x9]

; 2222 :         info->vertical_scale = transform[1];

	ldr         x8,[sp,#0x18]
	add         x9,x8,#4
	ldr         x8,[sp,#0x10]
	add         x8,x8,#0x48
	ldr         s16,[x9]
	str         s16,[x8]

; 2223 :         info->horizontal_shift = transform[2];

	ldr         x8,[sp,#0x18]
	add         x9,x8,#8
	ldr         x8,[sp,#0x10]
	add         x8,x8,#0x3C
	ldr         s16,[x9]
	str         s16,[x8]

; 2224 :         info->vertical_shift = transform[3];

	ldr         x8,[sp,#0x18]
	add         x9,x8,#0xC
	ldr         x8,[sp,#0x10]
	add         x8,x8,#0x40
	ldr         s16,[x9]
	str         s16,[x8]

; 2225 :     }

	b           |$LN3@stbir__cal|
|$LN2@stbir__cal|

; 2226 :     else
; 2227 :     {
; 2228 :         info->horizontal_scale = ((float)info->output_w / info->input_w) / (s1 - s0);

	ldr         x8,[sp,#0x10]
	add         x8,x8,#0x20
	ldr         w8,[x8]
	scvtf       s17,w8
	ldr         x8,[sp,#0x10]
	add         x8,x8,#8
	ldr         w8,[x8]
	scvtf       s16,w8
	fdiv        s18,s17,s16
	ldr         s17,[sp,#8]
	ldr         s16,[sp]
	fsub        s16,s17,s16
	fdiv        s16,s18,s16
	ldr         x8,[sp,#0x10]
	add         x8,x8,#0x44
	str         s16,[x8]

; 2229 :         info->vertical_scale = ((float)info->output_h / info->input_h) / (t1 - t0);

	ldr         x8,[sp,#0x10]
	add         x8,x8,#0x24
	ldr         w8,[x8]
	scvtf       s17,w8
	ldr         x8,[sp,#0x10]
	add         x8,x8,#0xC
	ldr         w8,[x8]
	scvtf       s16,w8
	fdiv        s18,s17,s16
	ldr         s17,[sp,#0xC]
	ldr         s16,[sp,#4]
	fsub        s16,s17,s16
	fdiv        s16,s18,s16
	ldr         x8,[sp,#0x10]
	add         x8,x8,#0x48
	str         s16,[x8]

; 2230 : 
; 2231 :         info->horizontal_shift = s0 * info->input_w / (s1 - s0);

	ldr         x8,[sp,#0x10]
	add         x8,x8,#8
	ldr         w8,[x8]
	scvtf       s17,w8
	ldr         s16,[sp]
	fmul        s18,s16,s17
	ldr         s17,[sp,#8]
	ldr         s16,[sp]
	fsub        s16,s17,s16
	fdiv        s16,s18,s16
	ldr         x8,[sp,#0x10]
	add         x8,x8,#0x3C
	str         s16,[x8]

; 2232 :         info->vertical_shift = t0 * info->input_h / (t1 - t0);

	ldr         x8,[sp,#0x10]
	add         x8,x8,#0xC
	ldr         w8,[x8]
	scvtf       s17,w8
	ldr         s16,[sp,#4]
	fmul        s18,s16,s17
	ldr         s17,[sp,#0xC]
	ldr         s16,[sp,#4]
	fsub        s16,s17,s16
	fdiv        s16,s18,s16
	ldr         x8,[sp,#0x10]
	add         x8,x8,#0x40
	str         s16,[x8]
|$LN3@stbir__cal|
	add         sp,sp,#0x20
	ret

	ENDP  ; |?stbir__calculate_transform@@YAXPEAUstbir__info@@MMMMPEAM@Z|, stbir__calculate_transform

; Function compile flags: /Odtpy
; File C:\Users\paras\source\repos\grep-name\XenevaOS\Libs\Chitralekha\stb_image_resize.h

	AREA	|.text$mn|, CODE, ARM64

|?stbir__setup@@YAXPEAUstbir__info@@HHHHH@Z| PROC	; stbir__setup

; 2204 : {

	sub         sp,sp,#0x20
	str         x0,[sp,#0x18]
	str         w1,[sp]
	str         w2,[sp,#4]
	str         w3,[sp,#8]
	str         w4,[sp,#0xC]
	str         w5,[sp,#0x10]

; 2205 :     info->input_w = input_w;

	ldr         x8,[sp,#0x18]
	add         x9,x8,#8
	ldr         w8,[sp]
	str         w8,[x9]

; 2206 :     info->input_h = input_h;

	ldr         x8,[sp,#0x18]
	add         x9,x8,#0xC
	ldr         w8,[sp,#4]
	str         w8,[x9]

; 2207 :     info->output_w = output_w;

	ldr         x8,[sp,#0x18]
	add         x9,x8,#0x20
	ldr         w8,[sp,#8]
	str         w8,[x9]

; 2208 :     info->output_h = output_h;

	ldr         x8,[sp,#0x18]
	add         x9,x8,#0x24
	ldr         w8,[sp,#0xC]
	str         w8,[x9]

; 2209 :     info->channels = channels;

	ldr         x8,[sp,#0x18]
	add         x9,x8,#0x4C
	ldr         w8,[sp,#0x10]
	str         w8,[x9]
	add         sp,sp,#0x20
	ret

	ENDP  ; |?stbir__setup@@YAXPEAUstbir__info@@HHHHH@Z|, stbir__setup

; Function compile flags: /Odtpy
; File C:\Users\paras\source\repos\grep-name\XenevaOS\Libs\Chitralekha\stb_image_resize.h

	AREA	|.text$mn|, CODE, ARM64

|?stbir__buffer_loop_downsample@@YAXPEAUstbir__info@@@Z| PROC ; stbir__buffer_loop_downsample

; 2163 : {

	str         lr,[sp,#-0x10]!
	sub         sp,sp,#0x30
	str         x0,[sp]

; 2164 :     int y;
; 2165 :     float scale_ratio = stbir_info->vertical_scale;

	ldr         x8,[sp]
	add         x8,x8,#0x48
	ldr         s16,[x8]
	str         s16,[sp,#0x10]

; 2166 :     int output_h = stbir_info->output_h;

	ldr         x8,[sp]
	add         x8,x8,#0x24
	ldr         w8,[x8]
	str         w8,[sp,#0x24]

; 2167 :     float in_pixels_radius = stbir__filter_info_table[stbir_info->vertical_filter].support(scale_ratio) / scale_ratio;

	ldr         x8,[sp]
	add         x8,x8,#0x60
	ldr         w8,[x8]
	sxtw        x9,w8
	mov         x8,#0x10
	mul         x9,x9,x8
	adrp        x8,|?stbir__filter_info_table@@3PAUstbir__filter_info@@A|
	add         x8,x8,PageOffset(|?stbir__filter_info_table@@3PAUstbir__filter_info@@A|)
	add         x8,x8,x9
	add         x8,x8,#8
	ldr         s0,[sp,#0x10]
	ldr         x8,[x8]
	blr         x8
	ldr         s16,[sp,#0x10]
	fdiv        s16,s0,s16
	str         s16,[sp,#0x20]

; 2168 :     int pixel_margin = stbir_info->vertical_filter_pixel_margin;

	ldr         x8,[sp]
	add         x8,x8,#0xBC
	ldr         w8,[x8]
	str         w8,[sp,#0x18]

; 2169 :     int max_y = stbir_info->input_h + pixel_margin;

	ldr         x8,[sp]
	add         x8,x8,#0xC
	ldr         w9,[x8]
	ldr         w8,[sp,#0x18]
	add         w8,w9,w8
	str         w8,[sp,#0x1C]

; 2170 : 
; 2171 :     STBIR__DEBUG_ASSERT(!stbir__use_height_upsampling(stbir_info));

	ldr         x0,[sp]
	bl          |?stbir__use_height_upsampling@@YAHPEAUstbir__info@@@Z|

; 2172 : 
; 2173 :     for (y = -pixel_margin; y < max_y; y++)

	ldr         w8,[sp,#0x18]
	neg         w8,w8
	str         w8,[sp,#8]
	b           |$LN4@stbir__buf|
|$LN2@stbir__buf|
	ldr         w8,[sp,#8]
	add         w8,w8,#1
	str         w8,[sp,#8]
|$LN4@stbir__buf|
	ldr         w9,[sp,#0x1C]
	ldr         w8,[sp,#8]
	cmp         w8,w9
	bge         |$LN3@stbir__buf|

; 2174 :     {
; 2175 :         float out_center_of_in; // Center of the current out scanline in the in scanline space
; 2176 :         int out_first_scanline, out_last_scanline;
; 2177 : 
; 2178 :         stbir__calculate_sample_range_downsample(y, in_pixels_radius, scale_ratio, stbir_info->vertical_shift, &out_first_scanline, &out_last_scanline, &out_center_of_in);

	ldr         x8,[sp]
	add         x8,x8,#0x40
	add         x3,sp,#0x28
	add         x2,sp,#0x14
	add         x1,sp,#0xC
	ldr         s2,[x8]
	ldr         s1,[sp,#0x10]
	ldr         s0,[sp,#0x20]
	ldr         w0,[sp,#8]
	bl          |?stbir__calculate_sample_range_downsample@@YAXHMMMPEAH0PEAM@Z|

; 2179 : 
; 2180 :         STBIR__DEBUG_ASSERT(out_last_scanline - out_first_scanline <= stbir_info->vertical_filter_pixel_width);
; 2181 : 
; 2182 :         if (out_last_scanline < 0 || out_first_scanline >= output_h)

	ldr         w8,[sp,#0x14]
	cmp         w8,#0
	blt         |$LN8@stbir__buf|
	ldr         w9,[sp,#0x24]
	ldr         w8,[sp,#0xC]
	cmp         w8,w9
	blt         |$LN7@stbir__buf|
|$LN8@stbir__buf|

; 2183 :             continue;

	b           |$LN2@stbir__buf|
|$LN7@stbir__buf|

; 2184 : 
; 2185 :         stbir__empty_ring_buffer(stbir_info, out_first_scanline);

	ldr         w1,[sp,#0xC]
	ldr         x0,[sp]
	bl          |?stbir__empty_ring_buffer@@YAXPEAUstbir__info@@H@Z|

; 2186 : 
; 2187 :         stbir__decode_and_resample_downsample(stbir_info, y);

	ldr         w1,[sp,#8]
	ldr         x0,[sp]
	bl          |?stbir__decode_and_resample_downsample@@YAXPEAUstbir__info@@H@Z|

; 2188 : 
; 2189 :         // Load in new ones.
; 2190 :         if (stbir_info->ring_buffer_begin_index < 0)

	ldr         x8,[sp]
	add         x8,x8,#0xD4
	ldr         w8,[x8]
	cmp         w8,#0
	bge         |$LN9@stbir__buf|

; 2191 :             stbir__add_empty_ring_buffer_entry(stbir_info, out_first_scanline);

	ldr         w1,[sp,#0xC]
	ldr         x0,[sp]
	bl          |?stbir__add_empty_ring_buffer_entry@@YAPEAMPEAUstbir__info@@H@Z|
|$LN9@stbir__buf|
|$LN5@stbir__buf|

; 2192 : 
; 2193 :         while (out_last_scanline > stbir_info->ring_buffer_last_scanline)

	ldr         x8,[sp]
	add         x8,x8,#0xD0
	ldr         w9,[x8]
	ldr         w8,[sp,#0x14]
	cmp         w8,w9
	ble         |$LN6@stbir__buf|

; 2194 :             stbir__add_empty_ring_buffer_entry(stbir_info, stbir_info->ring_buffer_last_scanline + 1);

	ldr         x8,[sp]
	add         x8,x8,#0xD0
	ldr         w8,[x8]
	add         w1,w8,#1
	mov         w1,w1
	ldr         x0,[sp]
	bl          |?stbir__add_empty_ring_buffer_entry@@YAPEAMPEAUstbir__info@@H@Z|
	b           |$LN5@stbir__buf|
|$LN6@stbir__buf|

; 2195 : 
; 2196 :         // Now the horizontal buffer is ready to write to all ring buffer rows.
; 2197 :         stbir__resample_vertical_downsample(stbir_info, y, out_first_scanline, out_last_scanline, out_center_of_in);

	ldr         s0,[sp,#0x28]
	ldr         w3,[sp,#0x14]
	ldr         w2,[sp,#0xC]
	ldr         w1,[sp,#8]
	ldr         x0,[sp]
	bl          |?stbir__resample_vertical_downsample@@YAXPEAUstbir__info@@HHHM@Z|

; 2198 :     }

	b           |$LN2@stbir__buf|
|$LN3@stbir__buf|

; 2199 : 
; 2200 :     stbir__empty_ring_buffer(stbir_info, stbir_info->output_h);

	ldr         x8,[sp]
	add         x8,x8,#0x24
	ldr         w1,[x8]
	ldr         x0,[sp]
	bl          |?stbir__empty_ring_buffer@@YAXPEAUstbir__info@@H@Z|
	add         sp,sp,#0x30
	ldr         lr,[sp],#0x10
	ret

	ENDP  ; |?stbir__buffer_loop_downsample@@YAXPEAUstbir__info@@@Z|, stbir__buffer_loop_downsample

; Function compile flags: /Odtpy
; File C:\Users\paras\source\repos\grep-name\XenevaOS\Libs\Chitralekha\stb_image_resize.h

	AREA	|.text$mn|, CODE, ARM64

|?stbir__empty_ring_buffer@@YAXPEAUstbir__info@@H@Z| PROC ; stbir__empty_ring_buffer

; 2118 : {

	str         lr,[sp,#-0x10]!
	sub         sp,sp,#0x50
	str         x0,[sp]
	str         w1,[sp,#0x10]

; 2119 :     int output_stride_bytes = stbir_info->output_stride_bytes;

	ldr         x8,[sp]
	add         x8,x8,#0x28
	ldr         w8,[x8]
	str         w8,[sp,#0x14]

; 2120 :     int channels = stbir_info->channels;

	ldr         x8,[sp]
	add         x8,x8,#0x4C
	ldr         w8,[x8]
	str         w8,[sp,#0x28]

; 2121 :     int alpha_channel = stbir_info->alpha_channel;

	ldr         x8,[sp]
	add         x8,x8,#0x50
	ldr         w8,[x8]
	str         w8,[sp,#0x24]

; 2122 :     int type = stbir_info->type;

	ldr         x8,[sp]
	add         x8,x8,#0x58
	ldr         w8,[x8]
	str         w8,[sp,#8]

; 2123 :     int colorspace = stbir_info->colorspace;

	ldr         x8,[sp]
	add         x8,x8,#0x6C
	ldr         w8,[x8]
	str         w8,[sp,#0xC]

; 2124 :     int output_w = stbir_info->output_w;

	ldr         x8,[sp]
	add         x8,x8,#0x20
	ldr         w8,[x8]
	str         w8,[sp,#0x2C]

; 2125 :     void* output_data = stbir_info->output_data;

	ldr         x8,[sp]
	add         x8,x8,#0x18
	ldr         x8,[x8]
	str         x8,[sp,#0x38]

; 2126 :     int decode = STBIR__DECODE(type, colorspace);

	ldr         w9,[sp,#8]
	mov         w8,#2
	mul         w9,w9,w8
	ldr         w8,[sp,#0xC]
	add         w8,w9,w8
	str         w8,[sp,#0x20]

; 2127 : 
; 2128 :     float* ring_buffer = stbir_info->ring_buffer;

	ldr         x8,[sp]
	add         x8,x8,#0xD8
	ldr         x8,[x8]
	str         x8,[sp,#0x30]

; 2129 :     int ring_buffer_length = stbir_info->ring_buffer_length_bytes / sizeof(float);

	ldr         x8,[sp]
	add         x8,x8,#0xC8
	ldr         w8,[x8]
	sxtw        x9,w8
	mov         x8,#4
	udiv        x8,x9,x8
	mov         w8,w8
	str         w8,[sp,#0x18]

; 2130 : 
; 2131 :     if (stbir_info->ring_buffer_begin_index >= 0)

	ldr         x8,[sp]
	add         x8,x8,#0xD4
	ldr         w8,[x8]
	cmp         w8,#0
	blt         |$LN4@stbir__emp|
|$LN2@stbir__emp|

; 2132 :     {
; 2133 :         // Get rid of whatever we don't need anymore.
; 2134 :         while (first_necessary_scanline > stbir_info->ring_buffer_first_scanline)

	ldr         x8,[sp]
	add         x8,x8,#0xCC
	ldr         w9,[x8]
	ldr         w8,[sp,#0x10]
	cmp         w8,w9
	ble         |$LN3@stbir__emp|

; 2135 :         {
; 2136 :             if (stbir_info->ring_buffer_first_scanline >= 0 && stbir_info->ring_buffer_first_scanline < stbir_info->output_h)

	ldr         x8,[sp]
	add         x8,x8,#0xCC
	ldr         w8,[x8]
	cmp         w8,#0
	blt         |$LN5@stbir__emp|
	ldr         x8,[sp]
	add         x10,x8,#0xCC
	ldr         x8,[sp]
	add         x8,x8,#0x24
	ldr         w9,[x8]
	ldr         w8,[x10]
	cmp         w8,w9
	bge         |$LN5@stbir__emp|

; 2137 :             {
; 2138 :                 int output_row_start = stbir_info->ring_buffer_first_scanline * output_stride_bytes;

	ldr         x8,[sp]
	add         x8,x8,#0xCC
	ldr         w9,[x8]
	ldr         w8,[sp,#0x14]
	mul         w8,w9,w8
	str         w8,[sp,#0x1C]

; 2139 :                 float* ring_buffer_entry = stbir__get_ring_buffer_entry(ring_buffer, stbir_info->ring_buffer_begin_index, ring_buffer_length);

	ldr         x8,[sp]
	add         x8,x8,#0xD4
	ldr         w2,[sp,#0x18]
	ldr         w1,[x8]
	ldr         x0,[sp,#0x30]
	bl          |?stbir__get_ring_buffer_entry@@YAPEAMPEAMHH@Z|
	str         x0,[sp,#0x40]

; 2140 :                 stbir__encode_scanline(stbir_info, output_w, (char*)output_data + output_row_start, ring_buffer_entry, channels, alpha_channel, decode);

	ldr         w8,[sp,#0x1C]
	sxtw        x9,w8
	ldr         x8,[sp,#0x38]
	add         x2,x8,x9
	ldr         w6,[sp,#0x20]
	ldr         w5,[sp,#0x24]
	ldr         w4,[sp,#0x28]
	ldr         x3,[sp,#0x40]
	ldr         w1,[sp,#0x2C]
	ldr         x0,[sp]
	bl          |?stbir__encode_scanline@@YAXPEAUstbir__info@@HPEAXPEAMHHH@Z|
|$LN5@stbir__emp|

; 2141 :                 STBIR_PROGRESS_REPORT((float)stbir_info->ring_buffer_first_scanline / stbir_info->output_h);
; 2142 :             }
; 2143 : 
; 2144 :             if (stbir_info->ring_buffer_first_scanline == stbir_info->ring_buffer_last_scanline)

	ldr         x8,[sp]
	add         x10,x8,#0xCC
	ldr         x8,[sp]
	add         x8,x8,#0xD0
	ldr         w9,[x8]
	ldr         w8,[x10]
	cmp         w8,w9
	bne         |$LN6@stbir__emp|

; 2145 :             {
; 2146 :                 // We just popped the last scanline off the ring buffer.
; 2147 :                 // Reset it to the empty state.
; 2148 :                 stbir_info->ring_buffer_begin_index = -1;

	ldr         x8,[sp]
	add         x9,x8,#0xD4
	mov         w8,#-1
	str         w8,[x9]

; 2149 :                 stbir_info->ring_buffer_first_scanline = 0;

	ldr         x8,[sp]
	add         x9,x8,#0xCC
	mov         w8,#0
	str         w8,[x9]

; 2150 :                 stbir_info->ring_buffer_last_scanline = 0;

	ldr         x8,[sp]
	add         x9,x8,#0xD0
	mov         w8,#0
	str         w8,[x9]

; 2151 :                 break;

	b           |$LN3@stbir__emp|

; 2152 :             }

	b           |$LN7@stbir__emp|
|$LN6@stbir__emp|

; 2153 :             else
; 2154 :             {
; 2155 :                 stbir_info->ring_buffer_first_scanline++;

	ldr         x8,[sp]
	add         x8,x8,#0xCC
	ldr         w8,[x8]
	add         w9,w8,#1
	ldr         x8,[sp]
	add         x8,x8,#0xCC
	str         w9,[x8]

; 2156 :                 stbir_info->ring_buffer_begin_index = (stbir_info->ring_buffer_begin_index + 1) % stbir_info->vertical_filter_pixel_width;

	ldr         x8,[sp]
	add         x8,x8,#0xD4
	ldr         w8,[x8]
	add         w10,w8,#1
	ldr         x8,[sp]
	add         x8,x8,#0xB4
	ldr         w9,[x8]
	cbnz        w9,|$LN9@stbir__emp|
	brk         #0xF004
|$LN9@stbir__emp|
	sdiv        w8,w10,w9
	mul         w8,w8,w9
	sub         w9,w10,w8
	ldr         x8,[sp]
	add         x8,x8,#0xD4
	str         w9,[x8]
|$LN7@stbir__emp|

; 2157 :             }
; 2158 :         }

	b           |$LN2@stbir__emp|
|$LN3@stbir__emp|
|$LN4@stbir__emp|
	add         sp,sp,#0x50
	ldr         lr,[sp],#0x10
	ret

	ENDP  ; |?stbir__empty_ring_buffer@@YAXPEAUstbir__info@@H@Z|, stbir__empty_ring_buffer

; Function compile flags: /Odtpy
; File C:\Users\paras\source\repos\grep-name\XenevaOS\Libs\Chitralekha\stb_image_resize.h

	AREA	|.text$mn|, CODE, ARM64

|?stbir__buffer_loop_upsample@@YAXPEAUstbir__info@@@Z| PROC ; stbir__buffer_loop_upsample

; 2065 : {

	str         lr,[sp,#-0x10]!
	sub         sp,sp,#0x20
	str         x0,[sp,#0x18]

; 2066 :     int y;
; 2067 :     float scale_ratio = stbir_info->vertical_scale;

	ldr         x8,[sp,#0x18]
	add         x8,x8,#0x48
	ldr         s16,[x8]
	str         s16,[sp,#8]

; 2068 :     float out_scanlines_radius = stbir__filter_info_table[stbir_info->vertical_filter].support(1 / scale_ratio) * scale_ratio;

	fmov        s17,#1
	ldr         s16,[sp,#8]
	fdiv        s0,s17,s16
	ldr         x8,[sp,#0x18]
	add         x8,x8,#0x60
	ldr         w8,[x8]
	sxtw        x9,w8
	mov         x8,#0x10
	mul         x9,x9,x8
	adrp        x8,|?stbir__filter_info_table@@3PAUstbir__filter_info@@A|
	add         x8,x8,PageOffset(|?stbir__filter_info_table@@3PAUstbir__filter_info@@A|)
	add         x8,x8,x9
	add         x8,x8,#8
	ldr         x8,[x8]
	blr         x8
	ldr         s16,[sp,#8]
	fmul        s16,s0,s16
	str         s16,[sp,#0x14]

; 2069 : 
; 2070 :     STBIR__DEBUG_ASSERT(stbir__use_height_upsampling(stbir_info));

	ldr         x0,[sp,#0x18]
	bl          |?stbir__use_height_upsampling@@YAHPEAUstbir__info@@@Z|

; 2071 : 
; 2072 :     for (y = 0; y < stbir_info->output_h; y++)

	mov         w8,#0
	str         w8,[sp]
	b           |$LN4@stbir__buf|
|$LN2@stbir__buf|
	ldr         w8,[sp]
	add         w8,w8,#1
	str         w8,[sp]
|$LN4@stbir__buf|
	ldr         x8,[sp,#0x18]
	add         x8,x8,#0x24
	ldr         w9,[x8]
	ldr         w8,[sp]
	cmp         w8,w9
	bge         |$LN3@stbir__buf|

; 2073 :     {
; 2074 :         float in_center_of_out = 0; // Center of the current out scanline in the in scanline space

	movi        d16,#0
	str         s16,[sp,#0x10]

; 2075 :         int in_first_scanline = 0, in_last_scanline = 0;

	mov         w8,#0
	str         w8,[sp,#4]
	mov         w8,#0
	str         w8,[sp,#0xC]

; 2076 : 
; 2077 :         stbir__calculate_sample_range_upsample(y, out_scanlines_radius, scale_ratio, stbir_info->vertical_shift, &in_first_scanline, &in_last_scanline, &in_center_of_out);

	ldr         x8,[sp,#0x18]
	add         x8,x8,#0x40
	add         x3,sp,#0x10
	add         x2,sp,#0xC
	add         x1,sp,#4
	ldr         s2,[x8]
	ldr         s1,[sp,#8]
	ldr         s0,[sp,#0x14]
	ldr         w0,[sp]
	bl          |?stbir__calculate_sample_range_upsample@@YAXHMMMPEAH0PEAM@Z|

; 2078 : 
; 2079 :         STBIR__DEBUG_ASSERT(in_last_scanline - in_first_scanline <= stbir_info->vertical_filter_pixel_width);
; 2080 : 
; 2081 :         if (stbir_info->ring_buffer_begin_index >= 0)

	ldr         x8,[sp,#0x18]
	add         x8,x8,#0xD4
	ldr         w8,[x8]
	cmp         w8,#0
	blt         |$LN9@stbir__buf|
|$LN5@stbir__buf|

; 2082 :         {
; 2083 :             // Get rid of whatever we don't need anymore.
; 2084 :             while (in_first_scanline > stbir_info->ring_buffer_first_scanline)

	ldr         x8,[sp,#0x18]
	add         x8,x8,#0xCC
	ldr         w9,[x8]
	ldr         w8,[sp,#4]
	cmp         w8,w9
	ble         |$LN6@stbir__buf|

; 2085 :             {
; 2086 :                 if (stbir_info->ring_buffer_first_scanline == stbir_info->ring_buffer_last_scanline)

	ldr         x8,[sp,#0x18]
	add         x10,x8,#0xCC
	ldr         x8,[sp,#0x18]
	add         x8,x8,#0xD0
	ldr         w9,[x8]
	ldr         w8,[x10]
	cmp         w8,w9
	bne         |$LN10@stbir__buf|

; 2087 :                 {
; 2088 :                     // We just popped the last scanline off the ring buffer.
; 2089 :                     // Reset it to the empty state.
; 2090 :                     stbir_info->ring_buffer_begin_index = -1;

	ldr         x8,[sp,#0x18]
	add         x9,x8,#0xD4
	mov         w8,#-1
	str         w8,[x9]

; 2091 :                     stbir_info->ring_buffer_first_scanline = 0;

	ldr         x8,[sp,#0x18]
	add         x9,x8,#0xCC
	mov         w8,#0
	str         w8,[x9]

; 2092 :                     stbir_info->ring_buffer_last_scanline = 0;

	ldr         x8,[sp,#0x18]
	add         x9,x8,#0xD0
	mov         w8,#0
	str         w8,[x9]

; 2093 :                     break;

	b           |$LN6@stbir__buf|

; 2094 :                 }

	b           |$LN11@stbir__buf|
|$LN10@stbir__buf|

; 2095 :                 else
; 2096 :                 {
; 2097 :                     stbir_info->ring_buffer_first_scanline++;

	ldr         x8,[sp,#0x18]
	add         x8,x8,#0xCC
	ldr         w8,[x8]
	add         w9,w8,#1
	ldr         x8,[sp,#0x18]
	add         x8,x8,#0xCC
	str         w9,[x8]

; 2098 :                     stbir_info->ring_buffer_begin_index = (stbir_info->ring_buffer_begin_index + 1) % stbir_info->vertical_filter_pixel_width;

	ldr         x8,[sp,#0x18]
	add         x8,x8,#0xD4
	ldr         w8,[x8]
	add         w10,w8,#1
	ldr         x8,[sp,#0x18]
	add         x8,x8,#0xB4
	ldr         w9,[x8]
	cbnz        w9,|$LN14@stbir__buf|
	brk         #0xF004
|$LN14@stbir__buf|
	sdiv        w8,w10,w9
	mul         w8,w8,w9
	sub         w9,w10,w8
	ldr         x8,[sp,#0x18]
	add         x8,x8,#0xD4
	str         w9,[x8]
|$LN11@stbir__buf|

; 2099 :                 }
; 2100 :             }

	b           |$LN5@stbir__buf|
|$LN6@stbir__buf|
|$LN9@stbir__buf|

; 2101 :         }
; 2102 : 
; 2103 :         // Load in new ones.
; 2104 :         if (stbir_info->ring_buffer_begin_index < 0)

	ldr         x8,[sp,#0x18]
	add         x8,x8,#0xD4
	ldr         w8,[x8]
	cmp         w8,#0
	bge         |$LN12@stbir__buf|

; 2105 :             stbir__decode_and_resample_upsample(stbir_info, in_first_scanline);

	ldr         w1,[sp,#4]
	ldr         x0,[sp,#0x18]
	bl          |?stbir__decode_and_resample_upsample@@YAXPEAUstbir__info@@H@Z|
|$LN12@stbir__buf|
|$LN7@stbir__buf|

; 2106 : 
; 2107 :         while (in_last_scanline > stbir_info->ring_buffer_last_scanline)

	ldr         x8,[sp,#0x18]
	add         x8,x8,#0xD0
	ldr         w9,[x8]
	ldr         w8,[sp,#0xC]
	cmp         w8,w9
	ble         |$LN8@stbir__buf|

; 2108 :             stbir__decode_and_resample_upsample(stbir_info, stbir_info->ring_buffer_last_scanline + 1);

	ldr         x8,[sp,#0x18]
	add         x8,x8,#0xD0
	ldr         w8,[x8]
	add         w1,w8,#1
	mov         w1,w1
	ldr         x0,[sp,#0x18]
	bl          |?stbir__decode_and_resample_upsample@@YAXPEAUstbir__info@@H@Z|
	b           |$LN7@stbir__buf|
|$LN8@stbir__buf|

; 2109 : 
; 2110 :         // Now all buffers should be ready to write a row of vertical sampling.
; 2111 :         stbir__resample_vertical_upsample(stbir_info, y, in_first_scanline, in_last_scanline, in_center_of_out);

	ldr         s0,[sp,#0x10]
	ldr         w3,[sp,#0xC]
	ldr         w2,[sp,#4]
	ldr         w1,[sp]
	ldr         x0,[sp,#0x18]
	bl          |?stbir__resample_vertical_upsample@@YAXPEAUstbir__info@@HHHM@Z|

; 2112 : 
; 2113 :         STBIR_PROGRESS_REPORT((float)y / stbir_info->output_h);
; 2114 :     }

	b           |$LN2@stbir__buf|
|$LN3@stbir__buf|
	add         sp,sp,#0x20
	ldr         lr,[sp],#0x10
	ret

	ENDP  ; |?stbir__buffer_loop_upsample@@YAXPEAUstbir__info@@@Z|, stbir__buffer_loop_upsample

; Function compile flags: /Odtpy
; File C:\Users\paras\source\repos\grep-name\XenevaOS\Libs\Chitralekha\stb_image_resize.h

	AREA	|.text$mn|, CODE, ARM64

|?stbir__resample_vertical_downsample@@YAXPEAUstbir__info@@HHHM@Z| PROC ; stbir__resample_vertical_downsample

; 1982 : {

	str         lr,[sp,#-0x10]!
	sub         sp,sp,#0xC0
	str         x0,[sp,#0x20]
	str         w1,[sp,#0x70]
	str         w2,[sp,#0x90]
	str         w3,[sp,#0x94]
	str         s0,[sp,#0x98]

; 1983 :     int x, k;
; 1984 :     int output_w = stbir_info->output_w;

	ldr         x8,[sp,#0x20]
	add         x8,x8,#0x20
	ldr         w8,[x8]
	str         w8,[sp,#0x34]

; 1985 :     int output_h = stbir_info->output_h;

	ldr         x8,[sp,#0x20]
	add         x8,x8,#0x24
	ldr         w8,[x8]
	str         w8,[sp,#0x88]

; 1986 :     stbir__contributors* vertical_contributors = stbir_info->vertical_contributors;

	ldr         x8,[sp,#0x20]
	add         x8,x8,#0x80
	ldr         x8,[x8]
	str         x8,[sp,#0x80]

; 1987 :     float* vertical_coefficients = stbir_info->vertical_coefficients;

	ldr         x8,[sp,#0x20]
	add         x8,x8,#0x88
	ldr         x8,[x8]
	str         x8,[sp,#0xA0]

; 1988 :     int channels = stbir_info->channels;

	ldr         x8,[sp,#0x20]
	add         x8,x8,#0x4C
	ldr         w8,[x8]
	str         w8,[sp,#0x4C]

; 1989 :     int kernel_pixel_width = stbir_info->vertical_filter_pixel_width;

	ldr         x8,[sp,#0x20]
	add         x8,x8,#0xB4
	ldr         w8,[x8]
	str         w8,[sp,#0x64]

; 1990 :     void* output_data = stbir_info->output_data;

	ldr         x8,[sp,#0x20]
	add         x8,x8,#0x18
	ldr         x8,[x8]
	str         x8,[sp,#0xB0]

; 1991 :     float* horizontal_buffer = stbir_info->horizontal_buffer;

	ldr         x8,[sp,#0x20]
	add         x8,x8,#0xA0
	ldr         x8,[x8]
	str         x8,[sp,#0x38]

; 1992 :     int coefficient_width = stbir_info->vertical_coefficient_width;

	ldr         x8,[sp,#0x20]
	add         x8,x8,#0xAC
	ldr         w8,[x8]
	str         w8,[sp,#0x78]

; 1993 :     int contributor = n + stbir_info->vertical_filter_pixel_margin;

	ldr         x8,[sp,#0x20]
	add         x8,x8,#0xBC
	ldr         w9,[sp,#0x70]
	ldr         w8,[x8]
	add         w8,w9,w8
	str         w8,[sp,#0x44]

; 1994 : 
; 1995 :     float* ring_buffer = stbir_info->ring_buffer;

	ldr         x8,[sp,#0x20]
	add         x8,x8,#0xD8
	ldr         x8,[x8]
	str         x8,[sp,#0xA8]

; 1996 :     int ring_buffer_begin_index = stbir_info->ring_buffer_begin_index;

	ldr         x8,[sp,#0x20]
	add         x8,x8,#0xD4
	ldr         w8,[x8]
	str         w8,[sp,#0x6C]

; 1997 :     int ring_buffer_first_scanline = stbir_info->ring_buffer_first_scanline;

	ldr         x8,[sp,#0x20]
	add         x8,x8,#0xCC
	ldr         w8,[x8]
	str         w8,[sp,#0x68]

; 1998 :     int ring_buffer_last_scanline = stbir_info->ring_buffer_last_scanline;

	ldr         x8,[sp,#0x20]
	add         x8,x8,#0xD0
	ldr         w8,[x8]
	str         w8,[sp,#0x8C]

; 1999 :     int ring_buffer_length = stbir_info->ring_buffer_length_bytes / sizeof(float);

	ldr         x8,[sp,#0x20]
	add         x8,x8,#0xC8
	ldr         w8,[x8]
	sxtw        x9,w8
	mov         x8,#4
	udiv        x8,x9,x8
	mov         w8,w8
	str         w8,[sp,#0x60]

; 2000 :     int n0, n1;
; 2001 : 
; 2002 :     n0 = vertical_contributors[contributor].n0;

	ldr         w8,[sp,#0x44]
	sxtw        x9,w8
	mov         x8,#8
	mul         x9,x9,x8
	ldr         x8,[sp,#0x80]
	add         x8,x8,x9
	ldr         w8,[x8]
	str         w8,[sp,#0x54]

; 2003 :     n1 = vertical_contributors[contributor].n1;

	ldr         w8,[sp,#0x44]
	sxtw        x9,w8
	mov         x8,#8
	mul         x9,x9,x8
	ldr         x8,[sp,#0x80]
	add         x8,x8,x9
	add         x8,x8,#4
	ldr         w8,[x8]
	str         w8,[sp,#0x74]

; 2004 : 
; 2005 :     STBIR__DEBUG_ASSERT(!stbir__use_height_upsampling(stbir_info));

	ldr         x0,[sp,#0x20]
	bl          |?stbir__use_height_upsampling@@YAHPEAUstbir__info@@@Z|

; 2006 : 
; 2007 :     for (k = n0; k <= n1; k++)

	ldr         w8,[sp,#0x54]
	str         w8,[sp,#0x30]
	b           |$LN4@stbir__res|
|$LN2@stbir__res|
	ldr         w8,[sp,#0x30]
	add         w8,w8,#1
	str         w8,[sp,#0x30]
|$LN4@stbir__res|
	ldr         w9,[sp,#0x74]
	ldr         w8,[sp,#0x30]
	cmp         w8,w9
	bgt         |$LN3@stbir__res|

; 2008 :     {
; 2009 :         int coefficient_index = k - n0;

	ldr         w9,[sp,#0x30]
	ldr         w8,[sp,#0x54]
	sub         w8,w9,w8
	str         w8,[sp,#0x5C]

; 2010 :         int coefficient_group = coefficient_width * contributor;

	ldr         w9,[sp,#0x78]
	ldr         w8,[sp,#0x44]
	mul         w8,w9,w8
	str         w8,[sp,#0x58]

; 2011 :         float coefficient = vertical_coefficients[coefficient_group + coefficient_index];

	ldr         w9,[sp,#0x58]
	ldr         w8,[sp,#0x5C]
	add         w8,w9,w8
	sxtw        x9,w8
	mov         x8,#4
	mul         x9,x9,x8
	ldr         x8,[sp,#0xA0]
	add         x8,x8,x9
	ldr         s16,[x8]
	str         s16,[sp,#8]

; 2012 : 
; 2013 :         float* ring_buffer_entry = stbir__get_ring_buffer_scanline(k, ring_buffer, ring_buffer_begin_index, ring_buffer_first_scanline, kernel_pixel_width, ring_buffer_length);

	ldr         w5,[sp,#0x60]
	ldr         w4,[sp,#0x64]
	ldr         w3,[sp,#0x68]
	ldr         w2,[sp,#0x6C]
	ldr         x1,[sp,#0xA8]
	ldr         w0,[sp,#0x30]
	bl          |?stbir__get_ring_buffer_scanline@@YAPEAMHPEAMHHHH@Z|
	str         x0,[sp,#0x10]

; 2014 : 
; 2015 :         switch (channels) {

	ldr         w8,[sp,#0x4C]
	str         w8,[sp,#0x40]
	ldr         w8,[sp,#0x40]
	sub         w8,w8,#1
	str         w8,[sp,#0x40]
	ldr         w8,[sp,#0x40]
	cmp         w8,#3
	bhi         |$LN29@stbir__res|
	ldr         w10,[sp,#0x40]
	adr         x9,__swt
	ldrsw       x8,[x9,w10 uxtw #2]
	adr         x9,|$LN32@stbir__res|
	add         x8,x9,x8,lsl #2
	br          x8
|$LN25@stbir__res|

; 2016 :         case 1:
; 2017 :             for (x = 0; x < output_w; x++)

	mov         w8,#0
	str         w8,[sp]
	b           |$LN9@stbir__res|
|$LN7@stbir__res|
	ldr         w8,[sp]
	add         w8,w8,#1
	str         w8,[sp]
|$LN9@stbir__res|
	ldr         w9,[sp,#0x34]
	ldr         w8,[sp]
	cmp         w8,w9
	bge         |$LN8@stbir__res|

; 2018 :             {
; 2019 :                 int in_pixel_index = x * 1;

	ldr         w8,[sp]
	str         w8,[sp,#0x48]

; 2020 :                 ring_buffer_entry[in_pixel_index + 0] += horizontal_buffer[in_pixel_index + 0] * coefficient;

	ldr         w8,[sp,#0x48]
	mov         w8,w8
	sxtw        x9,w8
	mov         x8,#4
	mul         x9,x9,x8
	ldr         x8,[sp,#0x10]
	add         x10,x8,x9
	ldr         w8,[sp,#0x48]
	mov         w8,w8
	sxtw        x9,w8
	mov         x8,#4
	mul         x9,x9,x8
	ldr         x8,[sp,#0x38]
	add         x8,x8,x9
	ldr         s17,[x8]
	ldr         s16,[sp,#8]
	fmul        s17,s17,s16
	ldr         s16,[x10]
	fadd        s16,s16,s17
	ldr         w8,[sp,#0x48]
	mov         w8,w8
	sxtw        x9,w8
	mov         x8,#4
	mul         x9,x9,x8
	ldr         x8,[sp,#0x10]
	add         x8,x8,x9
	str         s16,[x8]

; 2021 :             }

	b           |$LN7@stbir__res|
|$LN8@stbir__res|

; 2022 :             break;

	b           |$LN5@stbir__res|
|$LN26@stbir__res|

; 2023 :         case 2:
; 2024 :             for (x = 0; x < output_w; x++)

	mov         w8,#0
	str         w8,[sp]
	b           |$LN12@stbir__res|
|$LN10@stbir__res|
	ldr         w8,[sp]
	add         w8,w8,#1
	str         w8,[sp]
|$LN12@stbir__res|
	ldr         w9,[sp,#0x34]
	ldr         w8,[sp]
	cmp         w8,w9
	bge         |$LN11@stbir__res|

; 2025 :             {
; 2026 :                 int in_pixel_index = x * 2;

	ldr         w9,[sp]
	mov         w8,#2
	mul         w8,w9,w8
	str         w8,[sp,#0x28]

; 2027 :                 ring_buffer_entry[in_pixel_index + 0] += horizontal_buffer[in_pixel_index + 0] * coefficient;

	ldr         w8,[sp,#0x28]
	mov         w8,w8
	sxtw        x9,w8
	mov         x8,#4
	mul         x9,x9,x8
	ldr         x8,[sp,#0x10]
	add         x10,x8,x9
	ldr         w8,[sp,#0x28]
	mov         w8,w8
	sxtw        x9,w8
	mov         x8,#4
	mul         x9,x9,x8
	ldr         x8,[sp,#0x38]
	add         x8,x8,x9
	ldr         s17,[x8]
	ldr         s16,[sp,#8]
	fmul        s17,s17,s16
	ldr         s16,[x10]
	fadd        s16,s16,s17
	ldr         w8,[sp,#0x28]
	mov         w8,w8
	sxtw        x9,w8
	mov         x8,#4
	mul         x9,x9,x8
	ldr         x8,[sp,#0x10]
	add         x8,x8,x9
	str         s16,[x8]

; 2028 :                 ring_buffer_entry[in_pixel_index + 1] += horizontal_buffer[in_pixel_index + 1] * coefficient;

	ldr         w8,[sp,#0x28]
	add         w8,w8,#1
	sxtw        x9,w8
	mov         x8,#4
	mul         x9,x9,x8
	ldr         x8,[sp,#0x10]
	add         x10,x8,x9
	ldr         w8,[sp,#0x28]
	add         w8,w8,#1
	sxtw        x9,w8
	mov         x8,#4
	mul         x9,x9,x8
	ldr         x8,[sp,#0x38]
	add         x8,x8,x9
	ldr         s17,[x8]
	ldr         s16,[sp,#8]
	fmul        s17,s17,s16
	ldr         s16,[x10]
	fadd        s16,s16,s17
	ldr         w8,[sp,#0x28]
	add         w8,w8,#1
	sxtw        x9,w8
	mov         x8,#4
	mul         x9,x9,x8
	ldr         x8,[sp,#0x10]
	add         x8,x8,x9
	str         s16,[x8]

; 2029 :             }

	b           |$LN10@stbir__res|
|$LN11@stbir__res|

; 2030 :             break;

	b           |$LN5@stbir__res|
|$LN27@stbir__res|
|$LN32@stbir__res|

; 2031 :         case 3:
; 2032 :             for (x = 0; x < output_w; x++)

	mov         w8,#0
	str         w8,[sp]
	b           |$LN15@stbir__res|
|$LN13@stbir__res|
	ldr         w8,[sp]
	add         w8,w8,#1
	str         w8,[sp]
|$LN15@stbir__res|
	ldr         w9,[sp,#0x34]
	ldr         w8,[sp]
	cmp         w8,w9
	bge         |$LN14@stbir__res|

; 2033 :             {
; 2034 :                 int in_pixel_index = x * 3;

	ldr         w9,[sp]
	mov         w8,#3
	mul         w8,w9,w8
	str         w8,[sp,#0x18]

; 2035 :                 ring_buffer_entry[in_pixel_index + 0] += horizontal_buffer[in_pixel_index + 0] * coefficient;

	ldr         w8,[sp,#0x18]
	mov         w8,w8
	sxtw        x9,w8
	mov         x8,#4
	mul         x9,x9,x8
	ldr         x8,[sp,#0x10]
	add         x10,x8,x9
	ldr         w8,[sp,#0x18]
	mov         w8,w8
	sxtw        x9,w8
	mov         x8,#4
	mul         x9,x9,x8
	ldr         x8,[sp,#0x38]
	add         x8,x8,x9
	ldr         s17,[x8]
	ldr         s16,[sp,#8]
	fmul        s17,s17,s16
	ldr         s16,[x10]
	fadd        s16,s16,s17
	ldr         w8,[sp,#0x18]
	mov         w8,w8
	sxtw        x9,w8
	mov         x8,#4
	mul         x9,x9,x8
	ldr         x8,[sp,#0x10]
	add         x8,x8,x9
	str         s16,[x8]

; 2036 :                 ring_buffer_entry[in_pixel_index + 1] += horizontal_buffer[in_pixel_index + 1] * coefficient;

	ldr         w8,[sp,#0x18]
	add         w8,w8,#1
	sxtw        x9,w8
	mov         x8,#4
	mul         x9,x9,x8
	ldr         x8,[sp,#0x10]
	add         x10,x8,x9
	ldr         w8,[sp,#0x18]
	add         w8,w8,#1
	sxtw        x9,w8
	mov         x8,#4
	mul         x9,x9,x8
	ldr         x8,[sp,#0x38]
	add         x8,x8,x9
	ldr         s17,[x8]
	ldr         s16,[sp,#8]
	fmul        s17,s17,s16
	ldr         s16,[x10]
	fadd        s16,s16,s17
	ldr         w8,[sp,#0x18]
	add         w8,w8,#1
	sxtw        x9,w8
	mov         x8,#4
	mul         x9,x9,x8
	ldr         x8,[sp,#0x10]
	add         x8,x8,x9
	str         s16,[x8]

; 2037 :                 ring_buffer_entry[in_pixel_index + 2] += horizontal_buffer[in_pixel_index + 2] * coefficient;

	ldr         w8,[sp,#0x18]
	add         w8,w8,#2
	sxtw        x9,w8
	mov         x8,#4
	mul         x9,x9,x8
	ldr         x8,[sp,#0x10]
	add         x10,x8,x9
	ldr         w8,[sp,#0x18]
	add         w8,w8,#2
	sxtw        x9,w8
	mov         x8,#4
	mul         x9,x9,x8
	ldr         x8,[sp,#0x38]
	add         x8,x8,x9
	ldr         s17,[x8]
	ldr         s16,[sp,#8]
	fmul        s17,s17,s16
	ldr         s16,[x10]
	fadd        s16,s16,s17
	ldr         w8,[sp,#0x18]
	add         w8,w8,#2
	sxtw        x9,w8
	mov         x8,#4
	mul         x9,x9,x8
	ldr         x8,[sp,#0x10]
	add         x8,x8,x9
	str         s16,[x8]

; 2038 :             }

	b           |$LN13@stbir__res|
|$LN14@stbir__res|

; 2039 :             break;

	b           |$LN5@stbir__res|
|$LN28@stbir__res|

; 2040 :         case 4:
; 2041 :             for (x = 0; x < output_w; x++)

	mov         w8,#0
	str         w8,[sp]
	b           |$LN18@stbir__res|
|$LN16@stbir__res|
	ldr         w8,[sp]
	add         w8,w8,#1
	str         w8,[sp]
|$LN18@stbir__res|
	ldr         w9,[sp,#0x34]
	ldr         w8,[sp]
	cmp         w8,w9
	bge         |$LN17@stbir__res|

; 2042 :             {
; 2043 :                 int in_pixel_index = x * 4;

	ldr         w9,[sp]
	mov         w8,#4
	mul         w8,w9,w8
	str         w8,[sp,#4]

; 2044 :                 ring_buffer_entry[in_pixel_index + 0] += horizontal_buffer[in_pixel_index + 0] * coefficient;

	ldr         w8,[sp,#4]
	mov         w8,w8
	sxtw        x9,w8
	mov         x8,#4
	mul         x9,x9,x8
	ldr         x8,[sp,#0x10]
	add         x10,x8,x9
	ldr         w8,[sp,#4]
	mov         w8,w8
	sxtw        x9,w8
	mov         x8,#4
	mul         x9,x9,x8
	ldr         x8,[sp,#0x38]
	add         x8,x8,x9
	ldr         s17,[x8]
	ldr         s16,[sp,#8]
	fmul        s17,s17,s16
	ldr         s16,[x10]
	fadd        s16,s16,s17
	ldr         w8,[sp,#4]
	mov         w8,w8
	sxtw        x9,w8
	mov         x8,#4
	mul         x9,x9,x8
	ldr         x8,[sp,#0x10]
	add         x8,x8,x9
	str         s16,[x8]

; 2045 :                 ring_buffer_entry[in_pixel_index + 1] += horizontal_buffer[in_pixel_index + 1] * coefficient;

	ldr         w8,[sp,#4]
	add         w8,w8,#1
	sxtw        x9,w8
	mov         x8,#4
	mul         x9,x9,x8
	ldr         x8,[sp,#0x10]
	add         x10,x8,x9
	ldr         w8,[sp,#4]
	add         w8,w8,#1
	sxtw        x9,w8
	mov         x8,#4
	mul         x9,x9,x8
	ldr         x8,[sp,#0x38]
	add         x8,x8,x9
	ldr         s17,[x8]
	ldr         s16,[sp,#8]
	fmul        s17,s17,s16
	ldr         s16,[x10]
	fadd        s16,s16,s17
	ldr         w8,[sp,#4]
	add         w8,w8,#1
	sxtw        x9,w8
	mov         x8,#4
	mul         x9,x9,x8
	ldr         x8,[sp,#0x10]
	add         x8,x8,x9
	str         s16,[x8]

; 2046 :                 ring_buffer_entry[in_pixel_index + 2] += horizontal_buffer[in_pixel_index + 2] * coefficient;

	ldr         w8,[sp,#4]
	add         w8,w8,#2
	sxtw        x9,w8
	mov         x8,#4
	mul         x9,x9,x8
	ldr         x8,[sp,#0x10]
	add         x10,x8,x9
	ldr         w8,[sp,#4]
	add         w8,w8,#2
	sxtw        x9,w8
	mov         x8,#4
	mul         x9,x9,x8
	ldr         x8,[sp,#0x38]
	add         x8,x8,x9
	ldr         s17,[x8]
	ldr         s16,[sp,#8]
	fmul        s17,s17,s16
	ldr         s16,[x10]
	fadd        s16,s16,s17
	ldr         w8,[sp,#4]
	add         w8,w8,#2
	sxtw        x9,w8
	mov         x8,#4
	mul         x9,x9,x8
	ldr         x8,[sp,#0x10]
	add         x8,x8,x9
	str         s16,[x8]

; 2047 :                 ring_buffer_entry[in_pixel_index + 3] += horizontal_buffer[in_pixel_index + 3] * coefficient;

	ldr         w8,[sp,#4]
	add         w8,w8,#3
	sxtw        x9,w8
	mov         x8,#4
	mul         x9,x9,x8
	ldr         x8,[sp,#0x10]
	add         x10,x8,x9
	ldr         w8,[sp,#4]
	add         w8,w8,#3
	sxtw        x9,w8
	mov         x8,#4
	mul         x9,x9,x8
	ldr         x8,[sp,#0x38]
	add         x8,x8,x9
	ldr         s17,[x8]
	ldr         s16,[sp,#8]
	fmul        s17,s17,s16
	ldr         s16,[x10]
	fadd        s16,s16,s17
	ldr         w8,[sp,#4]
	add         w8,w8,#3
	sxtw        x9,w8
	mov         x8,#4
	mul         x9,x9,x8
	ldr         x8,[sp,#0x10]
	add         x8,x8,x9
	str         s16,[x8]

; 2048 :             }

	b           |$LN16@stbir__res|
|$LN17@stbir__res|

; 2049 :             break;

	b           |$LN5@stbir__res|
|$LN29@stbir__res|

; 2050 :         default:
; 2051 :             for (x = 0; x < output_w; x++)

	mov         w8,#0
	str         w8,[sp]
	b           |$LN21@stbir__res|
|$LN19@stbir__res|
	ldr         w8,[sp]
	add         w8,w8,#1
	str         w8,[sp]
|$LN21@stbir__res|
	ldr         w9,[sp,#0x34]
	ldr         w8,[sp]
	cmp         w8,w9
	bge         |$LN20@stbir__res|

; 2052 :             {
; 2053 :                 int in_pixel_index = x * channels;

	ldr         w9,[sp]
	ldr         w8,[sp,#0x4C]
	mul         w8,w9,w8
	str         w8,[sp,#0x50]

; 2054 : 
; 2055 :                 int c;
; 2056 :                 for (c = 0; c < channels; c++)

	mov         w8,#0
	str         w8,[sp,#0x2C]
	b           |$LN24@stbir__res|
|$LN22@stbir__res|
	ldr         w8,[sp,#0x2C]
	add         w8,w8,#1
	str         w8,[sp,#0x2C]
|$LN24@stbir__res|
	ldr         w9,[sp,#0x4C]
	ldr         w8,[sp,#0x2C]
	cmp         w8,w9
	bge         |$LN23@stbir__res|

; 2057 :                     ring_buffer_entry[in_pixel_index + c] += horizontal_buffer[in_pixel_index + c] * coefficient;

	ldr         w9,[sp,#0x50]
	ldr         w8,[sp,#0x2C]
	add         w8,w9,w8
	sxtw        x9,w8
	mov         x8,#4
	mul         x9,x9,x8
	ldr         x8,[sp,#0x10]
	add         x10,x8,x9
	ldr         w9,[sp,#0x50]
	ldr         w8,[sp,#0x2C]
	add         w8,w9,w8
	sxtw        x9,w8
	mov         x8,#4
	mul         x9,x9,x8
	ldr         x8,[sp,#0x38]
	add         x8,x8,x9
	ldr         s17,[x8]
	ldr         s16,[sp,#8]
	fmul        s17,s17,s16
	ldr         s16,[x10]
	fadd        s16,s16,s17
	ldr         w9,[sp,#0x50]
	ldr         w8,[sp,#0x2C]
	add         w8,w9,w8
	sxtw        x9,w8
	mov         x8,#4
	mul         x9,x9,x8
	ldr         x8,[sp,#0x10]
	add         x8,x8,x9
	str         s16,[x8]
	b           |$LN22@stbir__res|
|$LN23@stbir__res|

; 2058 :             }

	b           |$LN19@stbir__res|
|$LN20@stbir__res|
|$LN5@stbir__res|

; 2059 :             break;
; 2060 :         }
; 2061 :     }

	b           |$LN2@stbir__res|
|$LN3@stbir__res|
	add         sp,sp,#0xC0
	ldr         lr,[sp],#0x10
	ret
|__swt|
|$LN33@stbir__res|

; 2014 : 
; 2015 :         switch (channels) {

	DCD         0xffffff91
|$LN34@stbir__res|
	DCD         0xffffffba
|$LN35@stbir__res|
	DCD         0x0
|$LN36@stbir__res|
	DCD         0x61

	ENDP  ; |?stbir__resample_vertical_downsample@@YAXPEAUstbir__info@@HHHM@Z|, stbir__resample_vertical_downsample

; Function compile flags: /Odtpy
; File C:\Users\paras\source\repos\grep-name\XenevaOS\Libs\Chitralekha\stb_image_resize.h

	AREA	|.text$mn|, CODE, ARM64

|?stbir__resample_vertical_upsample@@YAXPEAUstbir__info@@HHHM@Z| PROC ; stbir__resample_vertical_upsample

; 1864 : {

	str         lr,[sp,#-0x10]!
	sub         sp,sp,#0x110
	str         x0,[sp,#0x20]
	str         w1,[sp,#0x6C]
	str         w2,[sp,#0xEC]
	str         w3,[sp,#0xE4]
	str         s0,[sp,#0xE8]

; 1865 :     int x, k;
; 1866 :     int output_w = stbir_info->output_w;

	ldr         x8,[sp,#0x20]
	add         x8,x8,#0x20
	ldr         w8,[x8]
	str         w8,[sp,#0x28]

; 1867 :     stbir__contributors* vertical_contributors = stbir_info->vertical_contributors;

	ldr         x8,[sp,#0x20]
	add         x8,x8,#0x80
	ldr         x8,[x8]
	str         x8,[sp,#0xD0]

; 1868 :     float* vertical_coefficients = stbir_info->vertical_coefficients;

	ldr         x8,[sp,#0x20]
	add         x8,x8,#0x88
	ldr         x8,[x8]
	str         x8,[sp,#0x80]

; 1869 :     int channels = stbir_info->channels;

	ldr         x8,[sp,#0x20]
	add         x8,x8,#0x4C
	ldr         w8,[x8]
	str         w8,[sp,#0x50]

; 1870 :     int alpha_channel = stbir_info->alpha_channel;

	ldr         x8,[sp,#0x20]
	add         x8,x8,#0x50
	ldr         w8,[x8]
	str         w8,[sp,#0xAC]

; 1871 :     int type = stbir_info->type;

	ldr         x8,[sp,#0x20]
	add         x8,x8,#0x58
	ldr         w8,[x8]
	str         w8,[sp,#0xB0]

; 1872 :     int colorspace = stbir_info->colorspace;

	ldr         x8,[sp,#0x20]
	add         x8,x8,#0x6C
	ldr         w8,[x8]
	str         w8,[sp,#0xB4]

; 1873 :     int kernel_pixel_width = stbir_info->vertical_filter_pixel_width;

	ldr         x8,[sp,#0x20]
	add         x8,x8,#0xB4
	ldr         w8,[x8]
	str         w8,[sp,#0x40]

; 1874 :     void* output_data = stbir_info->output_data;

	ldr         x8,[sp,#0x20]
	add         x8,x8,#0x18
	ldr         x8,[x8]
	str         x8,[sp,#0x100]

; 1875 :     float* encode_buffer = stbir_info->encode_buffer;

	ldr         x8,[sp,#0x20]
	add         x8,x8,#0xE0
	ldr         x8,[x8]
	str         x8,[sp,#0x10]

; 1876 :     int decode = STBIR__DECODE(type, colorspace);

	ldr         w9,[sp,#0xB0]
	mov         w8,#2
	mul         w9,w9,w8
	ldr         w8,[sp,#0xB4]
	add         w8,w9,w8
	str         w8,[sp,#0xA8]

; 1877 :     int coefficient_width = stbir_info->vertical_coefficient_width;

	ldr         x8,[sp,#0x20]
	add         x8,x8,#0xAC
	ldr         w8,[x8]
	str         w8,[sp,#0xB8]

; 1878 :     int coefficient_counter;
; 1879 :     int contributor = n;

	ldr         w8,[sp,#0x6C]
	str         w8,[sp,#0x5C]

; 1880 : 
; 1881 :     float* ring_buffer = stbir_info->ring_buffer;

	ldr         x8,[sp,#0x20]
	add         x8,x8,#0xD8
	ldr         x8,[x8]
	str         x8,[sp,#0x78]

; 1882 :     int ring_buffer_begin_index = stbir_info->ring_buffer_begin_index;

	ldr         x8,[sp,#0x20]
	add         x8,x8,#0xD4
	ldr         w8,[x8]
	str         w8,[sp,#0x48]

; 1883 :     int ring_buffer_first_scanline = stbir_info->ring_buffer_first_scanline;

	ldr         x8,[sp,#0x20]
	add         x8,x8,#0xCC
	ldr         w8,[x8]
	str         w8,[sp,#0x44]

; 1884 :     int ring_buffer_last_scanline = stbir_info->ring_buffer_last_scanline;

	ldr         x8,[sp,#0x20]
	add         x8,x8,#0xD0
	ldr         w8,[x8]
	str         w8,[sp,#0xE0]

; 1885 :     int ring_buffer_length = stbir_info->ring_buffer_length_bytes / sizeof(float);

	ldr         x8,[sp,#0x20]
	add         x8,x8,#0xC8
	ldr         w8,[x8]
	sxtw        x9,w8
	mov         x8,#4
	udiv        x8,x9,x8
	mov         w8,w8
	str         w8,[sp,#0x3C]

; 1886 : 
; 1887 :     int n0, n1, output_row_start;
; 1888 :     int coefficient_group = coefficient_width * contributor;

	ldr         w9,[sp,#0xB8]
	ldr         w8,[sp,#0x5C]
	mul         w8,w9,w8
	str         w8,[sp,#0x4C]

; 1889 : 
; 1890 :     n0 = vertical_contributors[contributor].n0;

	ldr         w8,[sp,#0x5C]
	sxtw        x9,w8
	mov         x8,#8
	mul         x9,x9,x8
	ldr         x8,[sp,#0xD0]
	add         x8,x8,x9
	ldr         w8,[x8]
	str         w8,[sp,#0x34]

; 1891 :     n1 = vertical_contributors[contributor].n1;

	ldr         w8,[sp,#0x5C]
	sxtw        x9,w8
	mov         x8,#8
	mul         x9,x9,x8
	ldr         x8,[sp,#0xD0]
	add         x8,x8,x9
	add         x8,x8,#4
	ldr         w8,[x8]
	str         w8,[sp,#0x38]

; 1892 : 
; 1893 :     output_row_start = n * stbir_info->output_stride_bytes;

	ldr         x8,[sp,#0x20]
	add         x8,x8,#0x28
	ldr         w9,[sp,#0x6C]
	ldr         w8,[x8]
	mul         w8,w9,w8
	str         w8,[sp,#0xA4]

; 1894 : 
; 1895 :     STBIR__DEBUG_ASSERT(stbir__use_height_upsampling(stbir_info));

	ldr         x0,[sp,#0x20]
	bl          |?stbir__use_height_upsampling@@YAHPEAUstbir__info@@@Z|

; 1896 : 
; 1897 :     memset(encode_buffer, 0, output_w * sizeof(float) * channels);

	ldr         w8,[sp,#0x28]
	sxtw        x9,w8
	mov         x8,#4
	mul         x9,x9,x8
	ldr         w8,[sp,#0x50]
	sxtw        x8,w8
	mul         x2,x9,x8
	mov         w1,#0
	ldr         x0,[sp,#0x10]
	bl          memset

; 1898 : 
; 1899 :     // I tried reblocking this for better cache usage of encode_buffer
; 1900 :     // (using x_outer, k, x_inner), but it lost speed. -- stb
; 1901 : 
; 1902 :     coefficient_counter = 0;

	mov         w8,#0
	str         w8,[sp,#8]

; 1903 :     switch (channels) {

	ldr         w8,[sp,#0x50]
	str         w8,[sp,#0x54]
	ldr         w8,[sp,#0x54]
	sub         w8,w8,#1
	str         w8,[sp,#0x54]
	ldr         w8,[sp,#0x54]
	cmp         w8,#3
	bhi         |$LN41@stbir__res|
	ldr         w10,[sp,#0x54]
	adr         x9,__swt
	ldrsw       x8,[x9,w10 uxtw #2]
	adr         x9,|$LN44@stbir__res|
	add         x8,x9,x8,lsl #2
	br          x8
|$LN37@stbir__res|

; 1904 :     case 1:
; 1905 :         for (k = n0; k <= n1; k++)

	ldr         w8,[sp,#0x34]
	str         w8,[sp]
	b           |$LN6@stbir__res|
|$LN4@stbir__res|
	ldr         w8,[sp]
	add         w8,w8,#1
	str         w8,[sp]
|$LN6@stbir__res|
	ldr         w9,[sp,#0x38]
	ldr         w8,[sp]
	cmp         w8,w9
	bgt         |$LN5@stbir__res|

; 1906 :         {
; 1907 :             int coefficient_index = coefficient_counter++;

	ldr         w8,[sp,#8]
	str         w8,[sp,#0xBC]
	ldr         w8,[sp,#8]
	add         w8,w8,#1
	str         w8,[sp,#8]

; 1908 :             float* ring_buffer_entry = stbir__get_ring_buffer_scanline(k, ring_buffer, ring_buffer_begin_index, ring_buffer_first_scanline, kernel_pixel_width, ring_buffer_length);

	ldr         w5,[sp,#0x3C]
	ldr         w4,[sp,#0x40]
	ldr         w3,[sp,#0x44]
	ldr         w2,[sp,#0x48]
	ldr         x1,[sp,#0x78]
	ldr         w0,[sp]
	bl          |?stbir__get_ring_buffer_scanline@@YAPEAMHPEAMHHHH@Z|
	str         x0,[sp,#0xF0]

; 1909 :             float coefficient = vertical_coefficients[coefficient_group + coefficient_index];

	ldr         w9,[sp,#0x4C]
	ldr         w8,[sp,#0xBC]
	add         w8,w9,w8
	sxtw        x9,w8
	mov         x8,#4
	mul         x9,x9,x8
	ldr         x8,[sp,#0x80]
	add         x8,x8,x9
	ldr         s16,[x8]
	str         s16,[sp,#0xC0]

; 1910 :             for (x = 0; x < output_w; ++x)

	mov         w8,#0
	str         w8,[sp,#4]
	b           |$LN9@stbir__res|
|$LN7@stbir__res|
	ldr         w8,[sp,#4]
	add         w8,w8,#1
	str         w8,[sp,#4]
|$LN9@stbir__res|
	ldr         w9,[sp,#0x28]
	ldr         w8,[sp,#4]
	cmp         w8,w9
	bge         |$LN8@stbir__res|

; 1911 :             {
; 1912 :                 int in_pixel_index = x * 1;

	ldr         w8,[sp,#4]
	str         w8,[sp,#0x60]

; 1913 :                 encode_buffer[in_pixel_index + 0] += ring_buffer_entry[in_pixel_index + 0] * coefficient;

	ldr         w8,[sp,#0x60]
	mov         w8,w8
	sxtw        x9,w8
	mov         x8,#4
	mul         x9,x9,x8
	ldr         x8,[sp,#0x10]
	add         x10,x8,x9
	ldr         w8,[sp,#0x60]
	mov         w8,w8
	sxtw        x9,w8
	mov         x8,#4
	mul         x9,x9,x8
	ldr         x8,[sp,#0xF0]
	add         x8,x8,x9
	ldr         s17,[x8]
	ldr         s16,[sp,#0xC0]
	fmul        s17,s17,s16
	ldr         s16,[x10]
	fadd        s16,s16,s17
	ldr         w8,[sp,#0x60]
	mov         w8,w8
	sxtw        x9,w8
	mov         x8,#4
	mul         x9,x9,x8
	ldr         x8,[sp,#0x10]
	add         x8,x8,x9
	str         s16,[x8]

; 1914 :             }

	b           |$LN7@stbir__res|
|$LN8@stbir__res|

; 1915 :         }

	b           |$LN4@stbir__res|
|$LN5@stbir__res|

; 1916 :         break;

	b           |$LN2@stbir__res|
|$LN38@stbir__res|

; 1917 :     case 2:
; 1918 :         for (k = n0; k <= n1; k++)

	ldr         w8,[sp,#0x34]
	str         w8,[sp]
	b           |$LN12@stbir__res|
|$LN10@stbir__res|
	ldr         w8,[sp]
	add         w8,w8,#1
	str         w8,[sp]
|$LN12@stbir__res|
	ldr         w9,[sp,#0x38]
	ldr         w8,[sp]
	cmp         w8,w9
	bgt         |$LN11@stbir__res|

; 1919 :         {
; 1920 :             int coefficient_index = coefficient_counter++;

	ldr         w8,[sp,#8]
	str         w8,[sp,#0x90]
	ldr         w8,[sp,#8]
	add         w8,w8,#1
	str         w8,[sp,#8]

; 1921 :             float* ring_buffer_entry = stbir__get_ring_buffer_scanline(k, ring_buffer, ring_buffer_begin_index, ring_buffer_first_scanline, kernel_pixel_width, ring_buffer_length);

	ldr         w5,[sp,#0x3C]
	ldr         w4,[sp,#0x40]
	ldr         w3,[sp,#0x44]
	ldr         w2,[sp,#0x48]
	ldr         x1,[sp,#0x78]
	ldr         w0,[sp]
	bl          |?stbir__get_ring_buffer_scanline@@YAPEAMHPEAMHHHH@Z|
	str         x0,[sp,#0xD8]

; 1922 :             float coefficient = vertical_coefficients[coefficient_group + coefficient_index];

	ldr         w9,[sp,#0x4C]
	ldr         w8,[sp,#0x90]
	add         w8,w9,w8
	sxtw        x9,w8
	mov         x8,#4
	mul         x9,x9,x8
	ldr         x8,[sp,#0x80]
	add         x8,x8,x9
	ldr         s16,[x8]
	str         s16,[sp,#0x70]

; 1923 :             for (x = 0; x < output_w; ++x)

	mov         w8,#0
	str         w8,[sp,#4]
	b           |$LN15@stbir__res|
|$LN13@stbir__res|
	ldr         w8,[sp,#4]
	add         w8,w8,#1
	str         w8,[sp,#4]
|$LN15@stbir__res|
	ldr         w9,[sp,#0x28]
	ldr         w8,[sp,#4]
	cmp         w8,w9
	bge         |$LN14@stbir__res|

; 1924 :             {
; 1925 :                 int in_pixel_index = x * 2;

	ldr         w9,[sp,#4]
	mov         w8,#2
	mul         w8,w9,w8
	str         w8,[sp,#0x2C]

; 1926 :                 encode_buffer[in_pixel_index + 0] += ring_buffer_entry[in_pixel_index + 0] * coefficient;

	ldr         w8,[sp,#0x2C]
	mov         w8,w8
	sxtw        x9,w8
	mov         x8,#4
	mul         x9,x9,x8
	ldr         x8,[sp,#0x10]
	add         x10,x8,x9
	ldr         w8,[sp,#0x2C]
	mov         w8,w8
	sxtw        x9,w8
	mov         x8,#4
	mul         x9,x9,x8
	ldr         x8,[sp,#0xD8]
	add         x8,x8,x9
	ldr         s17,[x8]
	ldr         s16,[sp,#0x70]
	fmul        s17,s17,s16
	ldr         s16,[x10]
	fadd        s16,s16,s17
	ldr         w8,[sp,#0x2C]
	mov         w8,w8
	sxtw        x9,w8
	mov         x8,#4
	mul         x9,x9,x8
	ldr         x8,[sp,#0x10]
	add         x8,x8,x9
	str         s16,[x8]

; 1927 :                 encode_buffer[in_pixel_index + 1] += ring_buffer_entry[in_pixel_index + 1] * coefficient;

	ldr         w8,[sp,#0x2C]
	add         w8,w8,#1
	sxtw        x9,w8
	mov         x8,#4
	mul         x9,x9,x8
	ldr         x8,[sp,#0x10]
	add         x10,x8,x9
	ldr         w8,[sp,#0x2C]
	add         w8,w8,#1
	sxtw        x9,w8
	mov         x8,#4
	mul         x9,x9,x8
	ldr         x8,[sp,#0xD8]
	add         x8,x8,x9
	ldr         s17,[x8]
	ldr         s16,[sp,#0x70]
	fmul        s17,s17,s16
	ldr         s16,[x10]
	fadd        s16,s16,s17
	ldr         w8,[sp,#0x2C]
	add         w8,w8,#1
	sxtw        x9,w8
	mov         x8,#4
	mul         x9,x9,x8
	ldr         x8,[sp,#0x10]
	add         x8,x8,x9
	str         s16,[x8]

; 1928 :             }

	b           |$LN13@stbir__res|
|$LN14@stbir__res|

; 1929 :         }

	b           |$LN10@stbir__res|
|$LN11@stbir__res|

; 1930 :         break;

	b           |$LN2@stbir__res|
|$LN39@stbir__res|
|$LN44@stbir__res|

; 1931 :     case 3:
; 1932 :         for (k = n0; k <= n1; k++)

	ldr         w8,[sp,#0x34]
	str         w8,[sp]
	b           |$LN18@stbir__res|
|$LN16@stbir__res|
	ldr         w8,[sp]
	add         w8,w8,#1
	str         w8,[sp]
|$LN18@stbir__res|
	ldr         w9,[sp,#0x38]
	ldr         w8,[sp]
	cmp         w8,w9
	bgt         |$LN17@stbir__res|

; 1933 :         {
; 1934 :             int coefficient_index = coefficient_counter++;

	ldr         w8,[sp,#8]
	str         w8,[sp,#0x94]
	ldr         w8,[sp,#8]
	add         w8,w8,#1
	str         w8,[sp,#8]

; 1935 :             float* ring_buffer_entry = stbir__get_ring_buffer_scanline(k, ring_buffer, ring_buffer_begin_index, ring_buffer_first_scanline, kernel_pixel_width, ring_buffer_length);

	ldr         w5,[sp,#0x3C]
	ldr         w4,[sp,#0x40]
	ldr         w3,[sp,#0x44]
	ldr         w2,[sp,#0x48]
	ldr         x1,[sp,#0x78]
	ldr         w0,[sp]
	bl          |?stbir__get_ring_buffer_scanline@@YAPEAMHPEAMHHHH@Z|
	str         x0,[sp,#0xC8]

; 1936 :             float coefficient = vertical_coefficients[coefficient_group + coefficient_index];

	ldr         w9,[sp,#0x4C]
	ldr         w8,[sp,#0x94]
	add         w8,w9,w8
	sxtw        x9,w8
	mov         x8,#4
	mul         x9,x9,x8
	ldr         x8,[sp,#0x80]
	add         x8,x8,x9
	ldr         s16,[x8]
	str         s16,[sp,#0x64]

; 1937 :             for (x = 0; x < output_w; ++x)

	mov         w8,#0
	str         w8,[sp,#4]
	b           |$LN21@stbir__res|
|$LN19@stbir__res|
	ldr         w8,[sp,#4]
	add         w8,w8,#1
	str         w8,[sp,#4]
|$LN21@stbir__res|
	ldr         w9,[sp,#0x28]
	ldr         w8,[sp,#4]
	cmp         w8,w9
	bge         |$LN20@stbir__res|

; 1938 :             {
; 1939 :                 int in_pixel_index = x * 3;

	ldr         w9,[sp,#4]
	mov         w8,#3
	mul         w8,w9,w8
	str         w8,[sp,#0x18]

; 1940 :                 encode_buffer[in_pixel_index + 0] += ring_buffer_entry[in_pixel_index + 0] * coefficient;

	ldr         w8,[sp,#0x18]
	mov         w8,w8
	sxtw        x9,w8
	mov         x8,#4
	mul         x9,x9,x8
	ldr         x8,[sp,#0x10]
	add         x10,x8,x9
	ldr         w8,[sp,#0x18]
	mov         w8,w8
	sxtw        x9,w8
	mov         x8,#4
	mul         x9,x9,x8
	ldr         x8,[sp,#0xC8]
	add         x8,x8,x9
	ldr         s17,[x8]
	ldr         s16,[sp,#0x64]
	fmul        s17,s17,s16
	ldr         s16,[x10]
	fadd        s16,s16,s17
	ldr         w8,[sp,#0x18]
	mov         w8,w8
	sxtw        x9,w8
	mov         x8,#4
	mul         x9,x9,x8
	ldr         x8,[sp,#0x10]
	add         x8,x8,x9
	str         s16,[x8]

; 1941 :                 encode_buffer[in_pixel_index + 1] += ring_buffer_entry[in_pixel_index + 1] * coefficient;

	ldr         w8,[sp,#0x18]
	add         w8,w8,#1
	sxtw        x9,w8
	mov         x8,#4
	mul         x9,x9,x8
	ldr         x8,[sp,#0x10]
	add         x10,x8,x9
	ldr         w8,[sp,#0x18]
	add         w8,w8,#1
	sxtw        x9,w8
	mov         x8,#4
	mul         x9,x9,x8
	ldr         x8,[sp,#0xC8]
	add         x8,x8,x9
	ldr         s17,[x8]
	ldr         s16,[sp,#0x64]
	fmul        s17,s17,s16
	ldr         s16,[x10]
	fadd        s16,s16,s17
	ldr         w8,[sp,#0x18]
	add         w8,w8,#1
	sxtw        x9,w8
	mov         x8,#4
	mul         x9,x9,x8
	ldr         x8,[sp,#0x10]
	add         x8,x8,x9
	str         s16,[x8]

; 1942 :                 encode_buffer[in_pixel_index + 2] += ring_buffer_entry[in_pixel_index + 2] * coefficient;

	ldr         w8,[sp,#0x18]
	add         w8,w8,#2
	sxtw        x9,w8
	mov         x8,#4
	mul         x9,x9,x8
	ldr         x8,[sp,#0x10]
	add         x10,x8,x9
	ldr         w8,[sp,#0x18]
	add         w8,w8,#2
	sxtw        x9,w8
	mov         x8,#4
	mul         x9,x9,x8
	ldr         x8,[sp,#0xC8]
	add         x8,x8,x9
	ldr         s17,[x8]
	ldr         s16,[sp,#0x64]
	fmul        s17,s17,s16
	ldr         s16,[x10]
	fadd        s16,s16,s17
	ldr         w8,[sp,#0x18]
	add         w8,w8,#2
	sxtw        x9,w8
	mov         x8,#4
	mul         x9,x9,x8
	ldr         x8,[sp,#0x10]
	add         x8,x8,x9
	str         s16,[x8]

; 1943 :             }

	b           |$LN19@stbir__res|
|$LN20@stbir__res|

; 1944 :         }

	b           |$LN16@stbir__res|
|$LN17@stbir__res|

; 1945 :         break;

	b           |$LN2@stbir__res|
|$LN40@stbir__res|

; 1946 :     case 4:
; 1947 :         for (k = n0; k <= n1; k++)

	ldr         w8,[sp,#0x34]
	str         w8,[sp]
	b           |$LN24@stbir__res|
|$LN22@stbir__res|
	ldr         w8,[sp]
	add         w8,w8,#1
	str         w8,[sp]
|$LN24@stbir__res|
	ldr         w9,[sp,#0x38]
	ldr         w8,[sp]
	cmp         w8,w9
	bgt         |$LN23@stbir__res|

; 1948 :         {
; 1949 :             int coefficient_index = coefficient_counter++;

	ldr         w8,[sp,#8]
	str         w8,[sp,#0x98]
	ldr         w8,[sp,#8]
	add         w8,w8,#1
	str         w8,[sp,#8]

; 1950 :             float* ring_buffer_entry = stbir__get_ring_buffer_scanline(k, ring_buffer, ring_buffer_begin_index, ring_buffer_first_scanline, kernel_pixel_width, ring_buffer_length);

	ldr         w5,[sp,#0x3C]
	ldr         w4,[sp,#0x40]
	ldr         w3,[sp,#0x44]
	ldr         w2,[sp,#0x48]
	ldr         x1,[sp,#0x78]
	ldr         w0,[sp]
	bl          |?stbir__get_ring_buffer_scanline@@YAPEAMHPEAMHHHH@Z|
	str         x0,[sp,#0x88]

; 1951 :             float coefficient = vertical_coefficients[coefficient_group + coefficient_index];

	ldr         w9,[sp,#0x4C]
	ldr         w8,[sp,#0x98]
	add         w8,w9,w8
	sxtw        x9,w8
	mov         x8,#4
	mul         x9,x9,x8
	ldr         x8,[sp,#0x80]
	add         x8,x8,x9
	ldr         s16,[x8]
	str         s16,[sp,#0x58]

; 1952 :             for (x = 0; x < output_w; ++x)

	mov         w8,#0
	str         w8,[sp,#4]
	b           |$LN27@stbir__res|
|$LN25@stbir__res|
	ldr         w8,[sp,#4]
	add         w8,w8,#1
	str         w8,[sp,#4]
|$LN27@stbir__res|
	ldr         w9,[sp,#0x28]
	ldr         w8,[sp,#4]
	cmp         w8,w9
	bge         |$LN26@stbir__res|

; 1953 :             {
; 1954 :                 int in_pixel_index = x * 4;

	ldr         w9,[sp,#4]
	mov         w8,#4
	mul         w8,w9,w8
	str         w8,[sp,#0xC]

; 1955 :                 encode_buffer[in_pixel_index + 0] += ring_buffer_entry[in_pixel_index + 0] * coefficient;

	ldr         w8,[sp,#0xC]
	mov         w8,w8
	sxtw        x9,w8
	mov         x8,#4
	mul         x9,x9,x8
	ldr         x8,[sp,#0x10]
	add         x10,x8,x9
	ldr         w8,[sp,#0xC]
	mov         w8,w8
	sxtw        x9,w8
	mov         x8,#4
	mul         x9,x9,x8
	ldr         x8,[sp,#0x88]
	add         x8,x8,x9
	ldr         s17,[x8]
	ldr         s16,[sp,#0x58]
	fmul        s17,s17,s16
	ldr         s16,[x10]
	fadd        s16,s16,s17
	ldr         w8,[sp,#0xC]
	mov         w8,w8
	sxtw        x9,w8
	mov         x8,#4
	mul         x9,x9,x8
	ldr         x8,[sp,#0x10]
	add         x8,x8,x9
	str         s16,[x8]

; 1956 :                 encode_buffer[in_pixel_index + 1] += ring_buffer_entry[in_pixel_index + 1] * coefficient;

	ldr         w8,[sp,#0xC]
	add         w8,w8,#1
	sxtw        x9,w8
	mov         x8,#4
	mul         x9,x9,x8
	ldr         x8,[sp,#0x10]
	add         x10,x8,x9
	ldr         w8,[sp,#0xC]
	add         w8,w8,#1
	sxtw        x9,w8
	mov         x8,#4
	mul         x9,x9,x8
	ldr         x8,[sp,#0x88]
	add         x8,x8,x9
	ldr         s17,[x8]
	ldr         s16,[sp,#0x58]
	fmul        s17,s17,s16
	ldr         s16,[x10]
	fadd        s16,s16,s17
	ldr         w8,[sp,#0xC]
	add         w8,w8,#1
	sxtw        x9,w8
	mov         x8,#4
	mul         x9,x9,x8
	ldr         x8,[sp,#0x10]
	add         x8,x8,x9
	str         s16,[x8]

; 1957 :                 encode_buffer[in_pixel_index + 2] += ring_buffer_entry[in_pixel_index + 2] * coefficient;

	ldr         w8,[sp,#0xC]
	add         w8,w8,#2
	sxtw        x9,w8
	mov         x8,#4
	mul         x9,x9,x8
	ldr         x8,[sp,#0x10]
	add         x10,x8,x9
	ldr         w8,[sp,#0xC]
	add         w8,w8,#2
	sxtw        x9,w8
	mov         x8,#4
	mul         x9,x9,x8
	ldr         x8,[sp,#0x88]
	add         x8,x8,x9
	ldr         s17,[x8]
	ldr         s16,[sp,#0x58]
	fmul        s17,s17,s16
	ldr         s16,[x10]
	fadd        s16,s16,s17
	ldr         w8,[sp,#0xC]
	add         w8,w8,#2
	sxtw        x9,w8
	mov         x8,#4
	mul         x9,x9,x8
	ldr         x8,[sp,#0x10]
	add         x8,x8,x9
	str         s16,[x8]

; 1958 :                 encode_buffer[in_pixel_index + 3] += ring_buffer_entry[in_pixel_index + 3] * coefficient;

	ldr         w8,[sp,#0xC]
	add         w8,w8,#3
	sxtw        x9,w8
	mov         x8,#4
	mul         x9,x9,x8
	ldr         x8,[sp,#0x10]
	add         x10,x8,x9
	ldr         w8,[sp,#0xC]
	add         w8,w8,#3
	sxtw        x9,w8
	mov         x8,#4
	mul         x9,x9,x8
	ldr         x8,[sp,#0x88]
	add         x8,x8,x9
	ldr         s17,[x8]
	ldr         s16,[sp,#0x58]
	fmul        s17,s17,s16
	ldr         s16,[x10]
	fadd        s16,s16,s17
	ldr         w8,[sp,#0xC]
	add         w8,w8,#3
	sxtw        x9,w8
	mov         x8,#4
	mul         x9,x9,x8
	ldr         x8,[sp,#0x10]
	add         x8,x8,x9
	str         s16,[x8]

; 1959 :             }

	b           |$LN25@stbir__res|
|$LN26@stbir__res|

; 1960 :         }

	b           |$LN22@stbir__res|
|$LN23@stbir__res|

; 1961 :         break;

	b           |$LN2@stbir__res|
|$LN41@stbir__res|

; 1962 :     default:
; 1963 :         for (k = n0; k <= n1; k++)

	ldr         w8,[sp,#0x34]
	str         w8,[sp]
	b           |$LN30@stbir__res|
|$LN28@stbir__res|
	ldr         w8,[sp]
	add         w8,w8,#1
	str         w8,[sp]
|$LN30@stbir__res|
	ldr         w9,[sp,#0x38]
	ldr         w8,[sp]
	cmp         w8,w9
	bgt         |$LN29@stbir__res|

; 1964 :         {
; 1965 :             int coefficient_index = coefficient_counter++;

	ldr         w8,[sp,#8]
	str         w8,[sp,#0x9C]
	ldr         w8,[sp,#8]
	add         w8,w8,#1
	str         w8,[sp,#8]

; 1966 :             float* ring_buffer_entry = stbir__get_ring_buffer_scanline(k, ring_buffer, ring_buffer_begin_index, ring_buffer_first_scanline, kernel_pixel_width, ring_buffer_length);

	ldr         w5,[sp,#0x3C]
	ldr         w4,[sp,#0x40]
	ldr         w3,[sp,#0x44]
	ldr         w2,[sp,#0x48]
	ldr         x1,[sp,#0x78]
	ldr         w0,[sp]
	bl          |?stbir__get_ring_buffer_scanline@@YAPEAMHPEAMHHHH@Z|
	str         x0,[sp,#0xF8]

; 1967 :             float coefficient = vertical_coefficients[coefficient_group + coefficient_index];

	ldr         w9,[sp,#0x4C]
	ldr         w8,[sp,#0x9C]
	add         w8,w9,w8
	sxtw        x9,w8
	mov         x8,#4
	mul         x9,x9,x8
	ldr         x8,[sp,#0x80]
	add         x8,x8,x9
	ldr         s16,[x8]
	str         s16,[sp,#0xA0]

; 1968 :             for (x = 0; x < output_w; ++x)

	mov         w8,#0
	str         w8,[sp,#4]
	b           |$LN33@stbir__res|
|$LN31@stbir__res|
	ldr         w8,[sp,#4]
	add         w8,w8,#1
	str         w8,[sp,#4]
|$LN33@stbir__res|
	ldr         w9,[sp,#0x28]
	ldr         w8,[sp,#4]
	cmp         w8,w9
	bge         |$LN32@stbir__res|

; 1969 :             {
; 1970 :                 int in_pixel_index = x * channels;

	ldr         w9,[sp,#4]
	ldr         w8,[sp,#0x50]
	mul         w8,w9,w8
	str         w8,[sp,#0x68]

; 1971 :                 int c;
; 1972 :                 for (c = 0; c < channels; c++)

	mov         w8,#0
	str         w8,[sp,#0x30]
	b           |$LN36@stbir__res|
|$LN34@stbir__res|
	ldr         w8,[sp,#0x30]
	add         w8,w8,#1
	str         w8,[sp,#0x30]
|$LN36@stbir__res|
	ldr         w9,[sp,#0x50]
	ldr         w8,[sp,#0x30]
	cmp         w8,w9
	bge         |$LN35@stbir__res|

; 1973 :                     encode_buffer[in_pixel_index + c] += ring_buffer_entry[in_pixel_index + c] * coefficient;

	ldr         w9,[sp,#0x68]
	ldr         w8,[sp,#0x30]
	add         w8,w9,w8
	sxtw        x9,w8
	mov         x8,#4
	mul         x9,x9,x8
	ldr         x8,[sp,#0x10]
	add         x10,x8,x9
	ldr         w9,[sp,#0x68]
	ldr         w8,[sp,#0x30]
	add         w8,w9,w8
	sxtw        x9,w8
	mov         x8,#4
	mul         x9,x9,x8
	ldr         x8,[sp,#0xF8]
	add         x8,x8,x9
	ldr         s17,[x8]
	ldr         s16,[sp,#0xA0]
	fmul        s17,s17,s16
	ldr         s16,[x10]
	fadd        s16,s16,s17
	ldr         w9,[sp,#0x68]
	ldr         w8,[sp,#0x30]
	add         w8,w9,w8
	sxtw        x9,w8
	mov         x8,#4
	mul         x9,x9,x8
	ldr         x8,[sp,#0x10]
	add         x8,x8,x9
	str         s16,[x8]
	b           |$LN34@stbir__res|
|$LN35@stbir__res|

; 1974 :             }

	b           |$LN31@stbir__res|
|$LN32@stbir__res|

; 1975 :         }

	b           |$LN28@stbir__res|
|$LN29@stbir__res|
|$LN2@stbir__res|

; 1976 :         break;
; 1977 :     }
; 1978 :     stbir__encode_scanline(stbir_info, output_w, (char*)output_data + output_row_start, encode_buffer, channels, alpha_channel, decode);

	ldr         w8,[sp,#0xA4]
	sxtw        x9,w8
	ldr         x8,[sp,#0x100]
	add         x2,x8,x9
	ldr         w6,[sp,#0xA8]
	ldr         w5,[sp,#0xAC]
	ldr         w4,[sp,#0x50]
	ldr         x3,[sp,#0x10]
	ldr         w1,[sp,#0x28]
	ldr         x0,[sp,#0x20]
	bl          |?stbir__encode_scanline@@YAXPEAUstbir__info@@HPEAXPEAMHHH@Z|
	add         sp,sp,#0x110
	ldr         lr,[sp],#0x10
	ret
|__swt|
|$LN45@stbir__res|

; 1903 :     switch (channels) {

	DCD         0xffffff4d
|$LN46@stbir__res|
	DCD         0xffffff98
|$LN47@stbir__res|
	DCD         0x0
|$LN48@stbir__res|
	DCD         0x83

	ENDP  ; |?stbir__resample_vertical_upsample@@YAXPEAUstbir__info@@HHHM@Z|, stbir__resample_vertical_upsample

; Function compile flags: /Odtpy
; File C:\Users\paras\source\repos\grep-name\XenevaOS\Libs\Chitralekha\stb_image_resize.h

	AREA	|.text$mn|, CODE, ARM64

|?stbir__encode_scanline@@YAXPEAUstbir__info@@HPEAXPEAMHHH@Z| PROC ; stbir__encode_scanline

; 1694 : {

	str         lr,[sp,#-0x10]!
	sub         sp,sp,#0x110
	str         x0,[sp,#0x40]
	str         w1,[sp,#0x10]
	str         x2,[sp,#0x20]
	str         x3,[sp,#0x18]
	str         w4,[sp,#8]
	str         w5,[sp,#0xC]
	str         w6,[sp,#0x78]

; 1695 :     int x;
; 1696 :     int n;
; 1697 :     int num_nonalpha;
; 1698 :     stbir_uint16 nonalpha[STBIR_MAX_CHANNELS];
; 1699 : 
; 1700 :     if (!(stbir_info->flags & STBIR_FLAG_ALPHA_PREMULTIPLIED))

	ldr         x8,[sp,#0x40]
	add         x8,x8,#0x54
	ldr         w8,[x8]
	tbnz        x8,#0,|$LN61@stbir__enc|

; 1701 :     {
; 1702 :         for (x = 0; x < num_pixels; ++x)

	mov         w8,#0
	str         w8,[sp]
	b           |$LN4@stbir__enc|
|$LN2@stbir__enc|
	ldr         w8,[sp]
	add         w8,w8,#1
	str         w8,[sp]
|$LN4@stbir__enc|
	ldr         w9,[sp,#0x10]
	ldr         w8,[sp]
	cmp         w8,w9
	bge         |$LN3@stbir__enc|

; 1703 :         {
; 1704 :             int pixel_index = x * channels;

	ldr         w9,[sp]
	ldr         w8,[sp,#8]
	mul         w8,w9,w8
	str         w8,[sp,#0x28]

; 1705 : 
; 1706 :             float alpha = encode_buffer[pixel_index + alpha_channel];

	ldr         w9,[sp,#0x28]
	ldr         w8,[sp,#0xC]
	add         w8,w9,w8
	sxtw        x9,w8
	mov         x8,#4
	mul         x9,x9,x8
	ldr         x8,[sp,#0x18]
	add         x8,x8,x9
	ldr         s16,[x8]
	str         s16,[sp,#0x48]

; 1707 :             float reciprocal_alpha = alpha ? 1.0f / alpha : 0;

	ldr         s16,[sp,#0x48]
	fcmp        s16,#0
	beq         |$LN80@stbir__enc|
	fmov        s17,#1
	ldr         s16,[sp,#0x48]
	fdiv        s16,s17,s16
	str         s16,[sp,#0x4C]
	b           |$LN81@stbir__enc|
|$LN80@stbir__enc|
	movi        d16,#0
	str         s16,[sp,#0x4C]
|$LN81@stbir__enc|
	ldr         s16,[sp,#0x4C]
	str         s16,[sp,#0x74]

; 1708 : 
; 1709 :             // unrolling this produced a 1% slowdown upscaling a large RGBA linear-space image on my machine - stb
; 1710 :             for (n = 0; n < channels; n++)

	mov         w8,#0
	str         w8,[sp,#4]
	b           |$LN7@stbir__enc|
|$LN5@stbir__enc|
	ldr         w8,[sp,#4]
	add         w8,w8,#1
	str         w8,[sp,#4]
|$LN7@stbir__enc|
	ldr         w9,[sp,#8]
	ldr         w8,[sp,#4]
	cmp         w8,w9
	bge         |$LN6@stbir__enc|

; 1711 :                 if (n != alpha_channel)

	ldr         w9,[sp,#0xC]
	ldr         w8,[sp,#4]
	cmp         w8,w9
	beq         |$LN62@stbir__enc|

; 1712 :                     encode_buffer[pixel_index + n] *= reciprocal_alpha;

	ldr         w9,[sp,#0x28]
	ldr         w8,[sp,#4]
	add         w8,w9,w8
	sxtw        x9,w8
	mov         x8,#4
	mul         x9,x9,x8
	ldr         x8,[sp,#0x18]
	add         x8,x8,x9
	ldr         s17,[x8]
	ldr         s16,[sp,#0x74]
	fmul        s16,s17,s16
	ldr         w9,[sp,#0x28]
	ldr         w8,[sp,#4]
	add         w8,w9,w8
	sxtw        x9,w8
	mov         x8,#4
	mul         x9,x9,x8
	ldr         x8,[sp,#0x18]
	add         x8,x8,x9
	str         s16,[x8]
|$LN62@stbir__enc|
	b           |$LN5@stbir__enc|
|$LN6@stbir__enc|

; 1713 : 
; 1714 :             // We added in a small epsilon to prevent the color channel from being deleted with zero alpha.
; 1715 :             // Because we only add it for integer types, it will automatically be discarded on integer
; 1716 :             // conversion, so we don't need to subtract it back out (which would be problematic for
; 1717 :             // numeric precision reasons).
; 1718 :         }

	b           |$LN2@stbir__enc|
|$LN3@stbir__enc|
|$LN61@stbir__enc|

; 1719 :     }
; 1720 : 
; 1721 :     // build a table of all channels that need colorspace correction, so
; 1722 :     // we don't perform colorspace correction on channels that don't need it.
; 1723 :     for (x = 0, num_nonalpha = 0; x < channels; ++x)

	mov         w8,#0
	str         w8,[sp]
	mov         w8,#0
	str         w8,[sp,#0x14]
	b           |$LN10@stbir__enc|
|$LN8@stbir__enc|
	ldr         w8,[sp]
	add         w8,w8,#1
	str         w8,[sp]
|$LN10@stbir__enc|
	ldr         w9,[sp,#8]
	ldr         w8,[sp]
	cmp         w8,w9
	bge         |$LN9@stbir__enc|

; 1724 :         if (x != alpha_channel || (stbir_info->flags & STBIR_FLAG_ALPHA_USES_COLORSPACE))

	ldr         w9,[sp,#0xC]
	ldr         w8,[sp]
	cmp         w8,w9
	bne         |$LN64@stbir__enc|
	ldr         x8,[sp,#0x40]
	add         x8,x8,#0x54
	ldr         w8,[x8]
	tbz         x8,#1,|$LN63@stbir__enc|
|$LN64@stbir__enc|

; 1725 :             nonalpha[num_nonalpha++] = x;

	ldr         w8,[sp]
	uxth        w10,w8
	ldr         w8,[sp,#0x14]
	sxtw        x9,w8
	mov         x8,#2
	mul         x9,x9,x8
	add         x8,sp,#0x90
	add         x8,x8,x9
	strh        w10,[x8]
	ldr         w8,[sp,#0x14]
	add         w8,w8,#1
	str         w8,[sp,#0x14]
|$LN63@stbir__enc|
	b           |$LN8@stbir__enc|
|$LN9@stbir__enc|

; 1726 : 
; 1727 : #define STBIR__ROUND_INT(f)    ((int)          ((f)+0.5))
; 1728 : #define STBIR__ROUND_UINT(f)   ((stbir_uint32) ((f)+0.5))
; 1729 : 
; 1730 : #ifdef STBIR__SATURATE_INT
; 1731 : #define STBIR__ENCODE_LINEAR8(f)   stbir__saturate8 (STBIR__ROUND_INT((f) * 255  ))
; 1732 : #define STBIR__ENCODE_LINEAR16(f)  stbir__saturate16(STBIR__ROUND_INT((f) * 65535))
; 1733 : #else
; 1734 : #define STBIR__ENCODE_LINEAR8(f)   (unsigned char ) STBIR__ROUND_INT(stbir__saturate(f) * 255  )
; 1735 : #define STBIR__ENCODE_LINEAR16(f)  (unsigned short) STBIR__ROUND_INT(stbir__saturate(f) * 65535)
; 1736 : #endif
; 1737 : 
; 1738 :     switch (decode)

	ldr         w8,[sp,#0x78]
	str         w8,[sp,#0x50]
	ldr         w8,[sp,#0x50]
	cmp         w8,#7
	bhi         |$LN77@stbir__enc|
	ldr         w10,[sp,#0x50]
	adr         x9,__swt
	ldrsw       x8,[x9,w10 uxtw #2]
	adr         x9,|$LN83@stbir__enc|
	add         x8,x9,x8,lsl #2
	br          x8
|$LN65@stbir__enc|

; 1739 :     {
; 1740 :     case STBIR__DECODE(STBIR_TYPE_UINT8, STBIR_COLORSPACE_LINEAR):
; 1741 :         for (x = 0; x < num_pixels; ++x)

	mov         w8,#0
	str         w8,[sp]
	b           |$LN15@stbir__enc|
|$LN13@stbir__enc|
	ldr         w8,[sp]
	add         w8,w8,#1
	str         w8,[sp]
|$LN15@stbir__enc|
	ldr         w9,[sp,#0x10]
	ldr         w8,[sp]
	cmp         w8,w9
	bge         |$LN14@stbir__enc|

; 1742 :         {
; 1743 :             int pixel_index = x * channels;

	ldr         w9,[sp]
	ldr         w8,[sp,#8]
	mul         w8,w9,w8
	str         w8,[sp,#0x7C]

; 1744 : 
; 1745 :             for (n = 0; n < channels; n++)

	mov         w8,#0
	str         w8,[sp,#4]
	b           |$LN18@stbir__enc|
|$LN16@stbir__enc|
	ldr         w8,[sp,#4]
	add         w8,w8,#1
	str         w8,[sp,#4]
|$LN18@stbir__enc|
	ldr         w9,[sp,#8]
	ldr         w8,[sp,#4]
	cmp         w8,w9
	bge         |$LN17@stbir__enc|

; 1746 :             {
; 1747 :                 int index = pixel_index + n;

	ldr         w9,[sp,#0x7C]
	ldr         w8,[sp,#4]
	add         w8,w9,w8
	str         w8,[sp,#0x54]

; 1748 :                 ((unsigned char*)output_buffer)[index] = STBIR__ENCODE_LINEAR8(encode_buffer[index]);

	ldr         w8,[sp,#0x54]
	sxtw        x9,w8
	mov         x8,#4
	mul         x9,x9,x8
	ldr         x8,[sp,#0x18]
	add         x8,x8,x9
	ldr         s0,[x8]
	bl          |?stbir__saturate@@YAMM@Z|
	ldr         s16,|$LN92@stbir__enc|
	fmul        s16,s0,s16
	fcvt        d17,s16
	fmov        d16,#0.5
	fadd        d16,d17,d16
	fcvtzs      w8,d16
	uxtb        w10,w8
	ldr         w8,[sp,#0x54]
	sxtw        x9,w8
	mov         x8,#1
	mul         x9,x9,x8
	ldr         x8,[sp,#0x20]
	add         x8,x8,x9
	strb        w10,[x8]

; 1749 :             }

	b           |$LN16@stbir__enc|
|$LN17@stbir__enc|

; 1750 :         }

	b           |$LN13@stbir__enc|
|$LN14@stbir__enc|

; 1751 :         break;

	b           |$LN11@stbir__enc|
|$LN66@stbir__enc|

; 1752 : 
; 1753 :     case STBIR__DECODE(STBIR_TYPE_UINT8, STBIR_COLORSPACE_SRGB):
; 1754 :         for (x = 0; x < num_pixels; ++x)

	mov         w8,#0
	str         w8,[sp]
	b           |$LN21@stbir__enc|
|$LN19@stbir__enc|
	ldr         w8,[sp]
	add         w8,w8,#1
	str         w8,[sp]
|$LN21@stbir__enc|
	ldr         w9,[sp,#0x10]
	ldr         w8,[sp]
	cmp         w8,w9
	bge         |$LN20@stbir__enc|

; 1755 :         {
; 1756 :             int pixel_index = x * channels;

	ldr         w9,[sp]
	ldr         w8,[sp,#8]
	mul         w8,w9,w8
	str         w8,[sp,#0x2C]

; 1757 : 
; 1758 :             for (n = 0; n < num_nonalpha; n++)

	mov         w8,#0
	str         w8,[sp,#4]
	b           |$LN24@stbir__enc|
|$LN22@stbir__enc|
	ldr         w8,[sp,#4]
	add         w8,w8,#1
	str         w8,[sp,#4]
|$LN24@stbir__enc|
	ldr         w9,[sp,#0x14]
	ldr         w8,[sp,#4]
	cmp         w8,w9
	bge         |$LN23@stbir__enc|

; 1759 :             {
; 1760 :                 int index = pixel_index + nonalpha[n];

	ldr         w8,[sp,#4]
	sxtw        x9,w8
	mov         x8,#2
	mul         x9,x9,x8
	add         x8,sp,#0x90
	add         x8,x8,x9
	ldrh        w9,[x8]
	mov         w9,w9
	ldr         w8,[sp,#0x2C]
	add         w8,w8,w9
	str         w8,[sp,#0x58]

; 1761 :                 ((unsigned char*)output_buffer)[index] = stbir__linear_to_srgb_uchar(encode_buffer[index]);

	ldr         w8,[sp,#0x58]
	sxtw        x9,w8
	mov         x8,#4
	mul         x9,x9,x8
	ldr         x8,[sp,#0x18]
	add         x8,x8,x9
	ldr         s0,[x8]
	bl          |?stbir__linear_to_srgb_uchar@@YAEM@Z|
	uxtb        w10,w0
	ldr         w8,[sp,#0x58]
	sxtw        x9,w8
	mov         x8,#1
	mul         x9,x9,x8
	ldr         x8,[sp,#0x20]
	add         x8,x8,x9
	strb        w10,[x8]

; 1762 :             }

	b           |$LN22@stbir__enc|
|$LN23@stbir__enc|

; 1763 : 
; 1764 :             if (!(stbir_info->flags & STBIR_FLAG_ALPHA_USES_COLORSPACE))

	ldr         x8,[sp,#0x40]
	add         x8,x8,#0x54
	ldr         w8,[x8]
	tbnz        x8,#1,|$LN67@stbir__enc|

; 1765 :                 ((unsigned char*)output_buffer)[pixel_index + alpha_channel] = STBIR__ENCODE_LINEAR8(encode_buffer[pixel_index + alpha_channel]);

	ldr         w9,[sp,#0x2C]
	ldr         w8,[sp,#0xC]
	add         w8,w9,w8
	sxtw        x9,w8
	mov         x8,#4
	mul         x9,x9,x8
	ldr         x8,[sp,#0x18]
	add         x8,x8,x9
	ldr         s0,[x8]
	bl          |?stbir__saturate@@YAMM@Z|
	ldr         s16,|$LN92@stbir__enc|
	fmul        s16,s0,s16
	fcvt        d17,s16
	fmov        d16,#0.5
	fadd        d16,d17,d16
	fcvtzs      w8,d16
	uxtb        w10,w8
	ldr         w9,[sp,#0x2C]
	ldr         w8,[sp,#0xC]
	add         w8,w9,w8
	sxtw        x9,w8
	mov         x8,#1
	mul         x9,x9,x8
	ldr         x8,[sp,#0x20]
	add         x8,x8,x9
	strb        w10,[x8]
|$LN67@stbir__enc|

; 1766 :         }

	b           |$LN19@stbir__enc|
|$LN20@stbir__enc|

; 1767 :         break;

	b           |$LN11@stbir__enc|
|$LN68@stbir__enc|

; 1768 : 
; 1769 :     case STBIR__DECODE(STBIR_TYPE_UINT16, STBIR_COLORSPACE_LINEAR):
; 1770 :         for (x = 0; x < num_pixels; ++x)

	mov         w8,#0
	str         w8,[sp]
	b           |$LN27@stbir__enc|
|$LN25@stbir__enc|
	ldr         w8,[sp]
	add         w8,w8,#1
	str         w8,[sp]
|$LN27@stbir__enc|
	ldr         w9,[sp,#0x10]
	ldr         w8,[sp]
	cmp         w8,w9
	bge         |$LN26@stbir__enc|

; 1771 :         {
; 1772 :             int pixel_index = x * channels;

	ldr         w9,[sp]
	ldr         w8,[sp,#8]
	mul         w8,w9,w8
	str         w8,[sp,#0x80]

; 1773 : 
; 1774 :             for (n = 0; n < channels; n++)

	mov         w8,#0
	str         w8,[sp,#4]
	b           |$LN30@stbir__enc|
|$LN28@stbir__enc|
	ldr         w8,[sp,#4]
	add         w8,w8,#1
	str         w8,[sp,#4]
|$LN30@stbir__enc|
	ldr         w9,[sp,#8]
	ldr         w8,[sp,#4]
	cmp         w8,w9
	bge         |$LN29@stbir__enc|

; 1775 :             {
; 1776 :                 int index = pixel_index + n;

	ldr         w9,[sp,#0x80]
	ldr         w8,[sp,#4]
	add         w8,w9,w8
	str         w8,[sp,#0x5C]

; 1777 :                 ((unsigned short*)output_buffer)[index] = STBIR__ENCODE_LINEAR16(encode_buffer[index]);

	ldr         w8,[sp,#0x5C]
	sxtw        x9,w8
	mov         x8,#4
	mul         x9,x9,x8
	ldr         x8,[sp,#0x18]
	add         x8,x8,x9
	ldr         s0,[x8]
	bl          |?stbir__saturate@@YAMM@Z|
	ldr         s16,|$LN93@stbir__enc|
	fmul        s16,s0,s16
	fcvt        d17,s16
	fmov        d16,#0.5
	fadd        d16,d17,d16
	fcvtzs      w8,d16
	uxth        w10,w8
	ldr         w8,[sp,#0x5C]
	sxtw        x9,w8
	mov         x8,#2
	mul         x9,x9,x8
	ldr         x8,[sp,#0x20]
	add         x8,x8,x9
	strh        w10,[x8]

; 1778 :             }

	b           |$LN28@stbir__enc|
|$LN29@stbir__enc|

; 1779 :         }

	b           |$LN25@stbir__enc|
|$LN26@stbir__enc|

; 1780 :         break;

	b           |$LN11@stbir__enc|
|$LN69@stbir__enc|

; 1781 : 
; 1782 :     case STBIR__DECODE(STBIR_TYPE_UINT16, STBIR_COLORSPACE_SRGB):
; 1783 :         for (x = 0; x < num_pixels; ++x)

	mov         w8,#0
	str         w8,[sp]
	b           |$LN33@stbir__enc|
|$LN31@stbir__enc|
	ldr         w8,[sp]
	add         w8,w8,#1
	str         w8,[sp]
|$LN33@stbir__enc|
	ldr         w9,[sp,#0x10]
	ldr         w8,[sp]
	cmp         w8,w9
	bge         |$LN32@stbir__enc|

; 1784 :         {
; 1785 :             int pixel_index = x * channels;

	ldr         w9,[sp]
	ldr         w8,[sp,#8]
	mul         w8,w9,w8
	str         w8,[sp,#0x30]

; 1786 : 
; 1787 :             for (n = 0; n < num_nonalpha; n++)

	mov         w8,#0
	str         w8,[sp,#4]
	b           |$LN36@stbir__enc|
|$LN34@stbir__enc|
	ldr         w8,[sp,#4]
	add         w8,w8,#1
	str         w8,[sp,#4]
|$LN36@stbir__enc|
	ldr         w9,[sp,#0x14]
	ldr         w8,[sp,#4]
	cmp         w8,w9
	bge         |$LN35@stbir__enc|

; 1788 :             {
; 1789 :                 int index = pixel_index + nonalpha[n];

	ldr         w8,[sp,#4]
	sxtw        x9,w8
	mov         x8,#2
	mul         x9,x9,x8
	add         x8,sp,#0x90
	add         x8,x8,x9
	ldrh        w9,[x8]
	mov         w9,w9
	ldr         w8,[sp,#0x30]
	add         w8,w8,w9
	str         w8,[sp,#0x60]

; 1790 :                 ((unsigned short*)output_buffer)[index] = (unsigned short)STBIR__ROUND_INT(stbir__linear_to_srgb(stbir__saturate(encode_buffer[index])) * 65535);

	ldr         w8,[sp,#0x60]
	sxtw        x9,w8
	mov         x8,#4
	mul         x9,x9,x8
	ldr         x8,[sp,#0x18]
	add         x8,x8,x9
	ldr         s0,[x8]
	bl          |?stbir__saturate@@YAMM@Z|
	bl          |?stbir__linear_to_srgb@@YAMM@Z|
	ldr         s16,|$LN93@stbir__enc|
	fmul        s16,s0,s16
	fcvt        d17,s16
	fmov        d16,#0.5
	fadd        d16,d17,d16
	fcvtzs      w8,d16
	uxth        w10,w8
	ldr         w8,[sp,#0x60]
	sxtw        x9,w8
	mov         x8,#2
	mul         x9,x9,x8
	ldr         x8,[sp,#0x20]
	add         x8,x8,x9
	strh        w10,[x8]

; 1791 :             }

	b           |$LN34@stbir__enc|
|$LN35@stbir__enc|

; 1792 : 
; 1793 :             if (!(stbir_info->flags & STBIR_FLAG_ALPHA_USES_COLORSPACE))

	ldr         x8,[sp,#0x40]
	add         x8,x8,#0x54
	ldr         w8,[x8]
	tbnz        x8,#1,|$LN70@stbir__enc|

; 1794 :                 ((unsigned short*)output_buffer)[pixel_index + alpha_channel] = STBIR__ENCODE_LINEAR16(encode_buffer[pixel_index + alpha_channel]);

	ldr         w9,[sp,#0x30]
	ldr         w8,[sp,#0xC]
	add         w8,w9,w8
	sxtw        x9,w8
	mov         x8,#4
	mul         x9,x9,x8
	ldr         x8,[sp,#0x18]
	add         x8,x8,x9
	ldr         s0,[x8]
	bl          |?stbir__saturate@@YAMM@Z|
	ldr         s16,|$LN93@stbir__enc|
	fmul        s16,s0,s16
	fcvt        d17,s16
	fmov        d16,#0.5
	fadd        d16,d17,d16
	fcvtzs      w8,d16
	uxth        w10,w8
	ldr         w9,[sp,#0x30]
	ldr         w8,[sp,#0xC]
	add         w8,w9,w8
	sxtw        x9,w8
	mov         x8,#2
	mul         x9,x9,x8
	ldr         x8,[sp,#0x20]
	add         x8,x8,x9
	strh        w10,[x8]
|$LN70@stbir__enc|

; 1795 :         }

	b           |$LN31@stbir__enc|
|$LN32@stbir__enc|

; 1796 : 
; 1797 :         break;

	b           |$LN11@stbir__enc|
|$LN71@stbir__enc|
|$LN83@stbir__enc|

; 1798 : 
; 1799 :     case STBIR__DECODE(STBIR_TYPE_UINT32, STBIR_COLORSPACE_LINEAR):
; 1800 :         for (x = 0; x < num_pixels; ++x)

	mov         w8,#0
	str         w8,[sp]
	b           |$LN39@stbir__enc|
|$LN37@stbir__enc|
	ldr         w8,[sp]
	add         w8,w8,#1
	str         w8,[sp]
|$LN39@stbir__enc|
	ldr         w9,[sp,#0x10]
	ldr         w8,[sp]
	cmp         w8,w9
	bge         |$LN38@stbir__enc|

; 1801 :         {
; 1802 :             int pixel_index = x * channels;

	ldr         w9,[sp]
	ldr         w8,[sp,#8]
	mul         w8,w9,w8
	str         w8,[sp,#0x84]

; 1803 : 
; 1804 :             for (n = 0; n < channels; n++)

	mov         w8,#0
	str         w8,[sp,#4]
	b           |$LN42@stbir__enc|
|$LN40@stbir__enc|
	ldr         w8,[sp,#4]
	add         w8,w8,#1
	str         w8,[sp,#4]
|$LN42@stbir__enc|
	ldr         w9,[sp,#8]
	ldr         w8,[sp,#4]
	cmp         w8,w9
	bge         |$LN41@stbir__enc|

; 1805 :             {
; 1806 :                 int index = pixel_index + n;

	ldr         w9,[sp,#0x84]
	ldr         w8,[sp,#4]
	add         w8,w9,w8
	str         w8,[sp,#0x64]

; 1807 :                 ((unsigned int*)output_buffer)[index] = (unsigned int)STBIR__ROUND_UINT(((double)stbir__saturate(encode_buffer[index])) * 4294967295);

	ldr         w8,[sp,#0x64]
	sxtw        x9,w8
	mov         x8,#4
	mul         x9,x9,x8
	ldr         x8,[sp,#0x18]
	add         x8,x8,x9
	ldr         s0,[x8]
	bl          |?stbir__saturate@@YAMM@Z|
	fcvt        d17,s0
	ldr         d16,|$LN94@stbir__enc|
	fmul        d17,d17,d16
	fmov        d16,#0.5
	fadd        d16,d17,d16
	fcvtzu      w10,d16
	ldr         w8,[sp,#0x64]
	sxtw        x9,w8
	mov         x8,#4
	mul         x9,x9,x8
	ldr         x8,[sp,#0x20]
	add         x8,x8,x9
	str         w10,[x8]

; 1808 :             }

	b           |$LN40@stbir__enc|
|$LN41@stbir__enc|

; 1809 :         }

	b           |$LN37@stbir__enc|
|$LN38@stbir__enc|

; 1810 :         break;

	b           |$LN11@stbir__enc|
|$LN72@stbir__enc|

; 1811 : 
; 1812 :     case STBIR__DECODE(STBIR_TYPE_UINT32, STBIR_COLORSPACE_SRGB):
; 1813 :         for (x = 0; x < num_pixels; ++x)

	mov         w8,#0
	str         w8,[sp]
	b           |$LN45@stbir__enc|
|$LN43@stbir__enc|
	ldr         w8,[sp]
	add         w8,w8,#1
	str         w8,[sp]
|$LN45@stbir__enc|
	ldr         w9,[sp,#0x10]
	ldr         w8,[sp]
	cmp         w8,w9
	bge         |$LN44@stbir__enc|

; 1814 :         {
; 1815 :             int pixel_index = x * channels;

	ldr         w9,[sp]
	ldr         w8,[sp,#8]
	mul         w8,w9,w8
	str         w8,[sp,#0x34]

; 1816 : 
; 1817 :             for (n = 0; n < num_nonalpha; n++)

	mov         w8,#0
	str         w8,[sp,#4]
	b           |$LN48@stbir__enc|
|$LN46@stbir__enc|
	ldr         w8,[sp,#4]
	add         w8,w8,#1
	str         w8,[sp,#4]
|$LN48@stbir__enc|
	ldr         w9,[sp,#0x14]
	ldr         w8,[sp,#4]
	cmp         w8,w9
	bge         |$LN47@stbir__enc|

; 1818 :             {
; 1819 :                 int index = pixel_index + nonalpha[n];

	ldr         w8,[sp,#4]
	sxtw        x9,w8
	mov         x8,#2
	mul         x9,x9,x8
	add         x8,sp,#0x90
	add         x8,x8,x9
	ldrh        w9,[x8]
	mov         w9,w9
	ldr         w8,[sp,#0x34]
	add         w8,w8,w9
	str         w8,[sp,#0x68]

; 1820 :                 ((unsigned int*)output_buffer)[index] = (unsigned int)STBIR__ROUND_UINT(((double)stbir__linear_to_srgb(stbir__saturate(encode_buffer[index]))) * 4294967295);

	ldr         w8,[sp,#0x68]
	sxtw        x9,w8
	mov         x8,#4
	mul         x9,x9,x8
	ldr         x8,[sp,#0x18]
	add         x8,x8,x9
	ldr         s0,[x8]
	bl          |?stbir__saturate@@YAMM@Z|
	bl          |?stbir__linear_to_srgb@@YAMM@Z|
	fcvt        d17,s0
	ldr         d16,|$LN94@stbir__enc|
	fmul        d17,d17,d16
	fmov        d16,#0.5
	fadd        d16,d17,d16
	fcvtzu      w10,d16
	ldr         w8,[sp,#0x68]
	sxtw        x9,w8
	mov         x8,#4
	mul         x9,x9,x8
	ldr         x8,[sp,#0x20]
	add         x8,x8,x9
	str         w10,[x8]

; 1821 :             }

	b           |$LN46@stbir__enc|
|$LN47@stbir__enc|

; 1822 : 
; 1823 :             if (!(stbir_info->flags & STBIR_FLAG_ALPHA_USES_COLORSPACE))

	ldr         x8,[sp,#0x40]
	add         x8,x8,#0x54
	ldr         w8,[x8]
	tbnz        x8,#1,|$LN73@stbir__enc|

; 1824 :                 ((unsigned int*)output_buffer)[pixel_index + alpha_channel] = (unsigned int)STBIR__ROUND_INT(((double)stbir__saturate(encode_buffer[pixel_index + alpha_channel])) * 4294967295);

	ldr         w9,[sp,#0x34]
	ldr         w8,[sp,#0xC]
	add         w8,w9,w8
	sxtw        x9,w8
	mov         x8,#4
	mul         x9,x9,x8
	ldr         x8,[sp,#0x18]
	add         x8,x8,x9
	ldr         s0,[x8]
	bl          |?stbir__saturate@@YAMM@Z|
	fcvt        d17,s0
	ldr         d16,|$LN94@stbir__enc|
	fmul        d17,d17,d16
	fmov        d16,#0.5
	fadd        d16,d17,d16
	fcvtzs      w10,d16
	ldr         w9,[sp,#0x34]
	ldr         w8,[sp,#0xC]
	add         w8,w9,w8
	sxtw        x9,w8
	mov         x8,#4
	mul         x9,x9,x8
	ldr         x8,[sp,#0x20]
	add         x8,x8,x9
	str         w10,[x8]
|$LN73@stbir__enc|

; 1825 :         }

	b           |$LN43@stbir__enc|
|$LN44@stbir__enc|

; 1826 :         break;

	b           |$LN11@stbir__enc|
|$LN74@stbir__enc|

; 1827 : 
; 1828 :     case STBIR__DECODE(STBIR_TYPE_FLOAT, STBIR_COLORSPACE_LINEAR):
; 1829 :         for (x = 0; x < num_pixels; ++x)

	mov         w8,#0
	str         w8,[sp]
	b           |$LN51@stbir__enc|
|$LN49@stbir__enc|
	ldr         w8,[sp]
	add         w8,w8,#1
	str         w8,[sp]
|$LN51@stbir__enc|
	ldr         w9,[sp,#0x10]
	ldr         w8,[sp]
	cmp         w8,w9
	bge         |$LN50@stbir__enc|

; 1830 :         {
; 1831 :             int pixel_index = x * channels;

	ldr         w9,[sp]
	ldr         w8,[sp,#8]
	mul         w8,w9,w8
	str         w8,[sp,#0x88]

; 1832 : 
; 1833 :             for (n = 0; n < channels; n++)

	mov         w8,#0
	str         w8,[sp,#4]
	b           |$LN54@stbir__enc|
|$LN52@stbir__enc|
	ldr         w8,[sp,#4]
	add         w8,w8,#1
	str         w8,[sp,#4]
|$LN54@stbir__enc|
	ldr         w9,[sp,#8]
	ldr         w8,[sp,#4]
	cmp         w8,w9
	bge         |$LN53@stbir__enc|

; 1834 :             {
; 1835 :                 int index = pixel_index + n;

	ldr         w9,[sp,#0x88]
	ldr         w8,[sp,#4]
	add         w8,w9,w8
	str         w8,[sp,#0x6C]

; 1836 :                 ((float*)output_buffer)[index] = encode_buffer[index];

	ldr         w8,[sp,#0x6C]
	sxtw        x9,w8
	mov         x8,#4
	mul         x9,x9,x8
	ldr         x8,[sp,#0x18]
	add         x10,x8,x9
	ldr         w8,[sp,#0x6C]
	sxtw        x9,w8
	mov         x8,#4
	mul         x9,x9,x8
	ldr         x8,[sp,#0x20]
	add         x8,x8,x9
	ldr         s16,[x10]
	str         s16,[x8]

; 1837 :             }

	b           |$LN52@stbir__enc|
|$LN53@stbir__enc|

; 1838 :         }

	b           |$LN49@stbir__enc|
|$LN50@stbir__enc|

; 1839 :         break;

	b           |$LN11@stbir__enc|
|$LN75@stbir__enc|

; 1840 : 
; 1841 :     case STBIR__DECODE(STBIR_TYPE_FLOAT, STBIR_COLORSPACE_SRGB):
; 1842 :         for (x = 0; x < num_pixels; ++x)

	mov         w8,#0
	str         w8,[sp]
	b           |$LN57@stbir__enc|
|$LN55@stbir__enc|
	ldr         w8,[sp]
	add         w8,w8,#1
	str         w8,[sp]
|$LN57@stbir__enc|
	ldr         w9,[sp,#0x10]
	ldr         w8,[sp]
	cmp         w8,w9
	bge         |$LN56@stbir__enc|

; 1843 :         {
; 1844 :             int pixel_index = x * channels;

	ldr         w9,[sp]
	ldr         w8,[sp,#8]
	mul         w8,w9,w8
	str         w8,[sp,#0x38]

; 1845 : 
; 1846 :             for (n = 0; n < num_nonalpha; n++)

	mov         w8,#0
	str         w8,[sp,#4]
	b           |$LN60@stbir__enc|
|$LN58@stbir__enc|
	ldr         w8,[sp,#4]
	add         w8,w8,#1
	str         w8,[sp,#4]
|$LN60@stbir__enc|
	ldr         w9,[sp,#0x14]
	ldr         w8,[sp,#4]
	cmp         w8,w9
	bge         |$LN59@stbir__enc|

; 1847 :             {
; 1848 :                 int index = pixel_index + nonalpha[n];

	ldr         w8,[sp,#4]
	sxtw        x9,w8
	mov         x8,#2
	mul         x9,x9,x8
	add         x8,sp,#0x90
	add         x8,x8,x9
	ldrh        w9,[x8]
	mov         w9,w9
	ldr         w8,[sp,#0x38]
	add         w8,w8,w9
	str         w8,[sp,#0x70]

; 1849 :                 ((float*)output_buffer)[index] = stbir__linear_to_srgb(encode_buffer[index]);

	ldr         w8,[sp,#0x70]
	sxtw        x9,w8
	mov         x8,#4
	mul         x9,x9,x8
	ldr         x8,[sp,#0x18]
	add         x8,x8,x9
	ldr         s0,[x8]
	bl          |?stbir__linear_to_srgb@@YAMM@Z|
	ldr         w8,[sp,#0x70]
	sxtw        x9,w8
	mov         x8,#4
	mul         x9,x9,x8
	ldr         x8,[sp,#0x20]
	add         x8,x8,x9
	str         s0,[x8]

; 1850 :             }

	b           |$LN58@stbir__enc|
|$LN59@stbir__enc|

; 1851 : 
; 1852 :             if (!(stbir_info->flags & STBIR_FLAG_ALPHA_USES_COLORSPACE))

	ldr         x8,[sp,#0x40]
	add         x8,x8,#0x54
	ldr         w8,[x8]
	tbnz        x8,#1,|$LN76@stbir__enc|

; 1853 :                 ((float*)output_buffer)[pixel_index + alpha_channel] = encode_buffer[pixel_index + alpha_channel];

	ldr         w9,[sp,#0x38]
	ldr         w8,[sp,#0xC]
	add         w8,w9,w8
	sxtw        x9,w8
	mov         x8,#4
	mul         x9,x9,x8
	ldr         x8,[sp,#0x18]
	add         x10,x8,x9
	ldr         w9,[sp,#0x38]
	ldr         w8,[sp,#0xC]
	add         w8,w9,w8
	sxtw        x9,w8
	mov         x8,#4
	mul         x9,x9,x8
	ldr         x8,[sp,#0x20]
	add         x8,x8,x9
	ldr         s16,[x10]
	str         s16,[x8]
|$LN76@stbir__enc|

; 1854 :         }

	b           |$LN55@stbir__enc|
|$LN56@stbir__enc|

; 1855 :         break;

	b           |$LN11@stbir__enc|
|$LN77@stbir__enc|

; 1856 : 
; 1857 :     default:
; 1858 :         STBIR__UNIMPLEMENTED("Unknown type/colorspace/channels combination.");

	adrp        x8,|$SG7425|
	add         x8,x8,PageOffset(|$SG7425|)
	cmp         x8,#0
	beq         |$LN78@stbir__enc|
	bl          abort
|$LN78@stbir__enc|
|$LN11@stbir__enc|
	add         sp,sp,#0x110
	ldr         lr,[sp],#0x10
	ret
|__swt|
|$LN84@stbir__enc|

; 1726 : 
; 1727 : #define STBIR__ROUND_INT(f)    ((int)          ((f)+0.5))
; 1728 : #define STBIR__ROUND_UINT(f)   ((stbir_uint32) ((f)+0.5))
; 1729 : 
; 1730 : #ifdef STBIR__SATURATE_INT
; 1731 : #define STBIR__ENCODE_LINEAR8(f)   stbir__saturate8 (STBIR__ROUND_INT((f) * 255  ))
; 1732 : #define STBIR__ENCODE_LINEAR16(f)  stbir__saturate16(STBIR__ROUND_INT((f) * 65535))
; 1733 : #else
; 1734 : #define STBIR__ENCODE_LINEAR8(f)   (unsigned char ) STBIR__ROUND_INT(stbir__saturate(f) * 255  )
; 1735 : #define STBIR__ENCODE_LINEAR16(f)  (unsigned short) STBIR__ROUND_INT(stbir__saturate(f) * 65535)
; 1736 : #endif
; 1737 : 
; 1738 :     switch (decode)

	DCD         0xfffffee7
|$LN85@stbir__enc|
	DCD         0xffffff1c
|$LN86@stbir__enc|
	DCD         0xffffff70
|$LN87@stbir__enc|
	DCD         0xffffffa5
|$LN88@stbir__enc|
	DCD         0x0
|$LN89@stbir__enc|
	DCD         0x34
|$LN90@stbir__enc|
	DCD         0x8d
|$LN91@stbir__enc|
	DCD         0xba
	nop
|$LN94@stbir__enc|
	DCFD         4.29497e+09
|$LN92@stbir__enc|
	DCFS         255
|$LN93@stbir__enc|
	DCFS         65535

	ENDP  ; |?stbir__encode_scanline@@YAXPEAUstbir__info@@HPEAXPEAMHHH@Z|, stbir__encode_scanline

; Function compile flags: /Odtpy
; File C:\Users\paras\source\repos\grep-name\XenevaOS\Libs\Chitralekha\stb_image_resize.h

	AREA	|.text$mn|, CODE, ARM64

|?stbir__get_ring_buffer_scanline@@YAPEAMHPEAMHHHH@Z| PROC ; stbir__get_ring_buffer_scanline

; 1687 : {

	str         lr,[sp,#-0x10]!
	sub         sp,sp,#0x20
	str         w0,[sp]
	str         x1,[sp,#0x18]
	str         w2,[sp,#8]
	str         w3,[sp,#4]
	str         w4,[sp,#0xC]
	str         w5,[sp,#0x10]

; 1688 :     int ring_buffer_index = (begin_index + (get_scanline - first_scanline)) % ring_buffer_size;

	ldr         w9,[sp]
	ldr         w8,[sp,#4]
	sub         w9,w9,w8
	ldr         w8,[sp,#8]
	add         w10,w8,w9
	ldr         w9,[sp,#0xC]
	cbnz        w9,|$LN3@stbir__get|
	brk         #0xF004
|$LN3@stbir__get|
	sdiv        w8,w10,w9
	mul         w8,w8,w9
	sub         w8,w10,w8
	str         w8,[sp,#0x14]

; 1689 :     return stbir__get_ring_buffer_entry(ring_buffer, ring_buffer_index, ring_buffer_length);

	ldr         w2,[sp,#0x10]
	ldr         w1,[sp,#0x14]
	ldr         x0,[sp,#0x18]
	bl          |?stbir__get_ring_buffer_entry@@YAPEAMPEAMHH@Z|
	add         sp,sp,#0x20
	ldr         lr,[sp],#0x10
	ret

	ENDP  ; |?stbir__get_ring_buffer_scanline@@YAPEAMHPEAMHHHH@Z|, stbir__get_ring_buffer_scanline

; Function compile flags: /Odtpy
; File C:\Users\paras\source\repos\grep-name\XenevaOS\Libs\Chitralekha\stb_image_resize.h

	AREA	|.text$mn|, CODE, ARM64

|?stbir__decode_and_resample_downsample@@YAXPEAUstbir__info@@H@Z| PROC ; stbir__decode_and_resample_downsample

; 1670 : {

	str         lr,[sp,#-0x10]!
	sub         sp,sp,#0x10
	str         x0,[sp,#8]
	str         w1,[sp]

; 1671 :     // Decode the nth scanline from the source image into the decode buffer.
; 1672 :     stbir__decode_scanline(stbir_info, n);

	ldr         w1,[sp]
	ldr         x0,[sp,#8]
	bl          |?stbir__decode_scanline@@YAXPEAUstbir__info@@H@Z|

; 1673 : 
; 1674 :     memset(stbir_info->horizontal_buffer, 0, stbir_info->output_w * stbir_info->channels * sizeof(float));

	ldr         x8,[sp,#8]
	add         x9,x8,#0x20
	ldr         x8,[sp,#8]
	add         x8,x8,#0x4C
	ldr         w9,[x9]
	ldr         w8,[x8]
	mul         w8,w9,w8
	sxtw        x9,w8
	mov         x8,#4
	mul         x2,x9,x8
	ldr         x8,[sp,#8]
	add         x8,x8,#0xA0
	mov         w1,#0
	ldr         x0,[x8]
	bl          memset

; 1675 : 
; 1676 :     // Now resample it into the horizontal buffer.
; 1677 :     if (stbir__use_width_upsampling(stbir_info))

	ldr         x0,[sp,#8]
	bl          |?stbir__use_width_upsampling@@YAHPEAUstbir__info@@@Z|
	mov         w0,w0
	cmp         w0,#0
	beq         |$LN2@stbir__dec|

; 1678 :         stbir__resample_horizontal_upsample(stbir_info, n, stbir_info->horizontal_buffer);

	ldr         x8,[sp,#8]
	add         x8,x8,#0xA0
	ldr         x2,[x8]
	ldr         w1,[sp]
	ldr         x0,[sp,#8]
	bl          |?stbir__resample_horizontal_upsample@@YAXPEAUstbir__info@@HPEAM@Z|
	b           |$LN3@stbir__dec|
|$LN2@stbir__dec|

; 1679 :     else
; 1680 :         stbir__resample_horizontal_downsample(stbir_info, n, stbir_info->horizontal_buffer);

	ldr         x8,[sp,#8]
	add         x8,x8,#0xA0
	ldr         x2,[x8]
	ldr         w1,[sp]
	ldr         x0,[sp,#8]
	bl          |?stbir__resample_horizontal_downsample@@YAXPEAUstbir__info@@HPEAM@Z|
|$LN3@stbir__dec|
	add         sp,sp,#0x10
	ldr         lr,[sp],#0x10
	ret

	ENDP  ; |?stbir__decode_and_resample_downsample@@YAXPEAUstbir__info@@H@Z|, stbir__decode_and_resample_downsample

; Function compile flags: /Odtpy
; File C:\Users\paras\source\repos\grep-name\XenevaOS\Libs\Chitralekha\stb_image_resize.h

	AREA	|.text$mn|, CODE, ARM64

|?stbir__decode_and_resample_upsample@@YAXPEAUstbir__info@@H@Z| PROC ; stbir__decode_and_resample_upsample

; 1656 : {

	str         lr,[sp,#-0x10]!
	sub         sp,sp,#0x10
	str         x0,[sp,#8]
	str         w1,[sp]

; 1657 :     // Decode the nth scanline from the source image into the decode buffer.
; 1658 :     stbir__decode_scanline(stbir_info, n);

	ldr         w1,[sp]
	ldr         x0,[sp,#8]
	bl          |?stbir__decode_scanline@@YAXPEAUstbir__info@@H@Z|

; 1659 : 
; 1660 :     // Now resample it into the ring buffer.
; 1661 :     if (stbir__use_width_upsampling(stbir_info))

	ldr         x0,[sp,#8]
	bl          |?stbir__use_width_upsampling@@YAHPEAUstbir__info@@@Z|
	mov         w0,w0
	cmp         w0,#0
	beq         |$LN2@stbir__dec|

; 1662 :         stbir__resample_horizontal_upsample(stbir_info, n, stbir__add_empty_ring_buffer_entry(stbir_info, n));

	ldr         w1,[sp]
	ldr         x0,[sp,#8]
	bl          |?stbir__add_empty_ring_buffer_entry@@YAPEAMPEAUstbir__info@@H@Z|
	mov         x2,x0
	ldr         w1,[sp]
	ldr         x0,[sp,#8]
	bl          |?stbir__resample_horizontal_upsample@@YAXPEAUstbir__info@@HPEAM@Z|
	b           |$LN3@stbir__dec|
|$LN2@stbir__dec|

; 1663 :     else
; 1664 :         stbir__resample_horizontal_downsample(stbir_info, n, stbir__add_empty_ring_buffer_entry(stbir_info, n));

	ldr         w1,[sp]
	ldr         x0,[sp,#8]
	bl          |?stbir__add_empty_ring_buffer_entry@@YAPEAMPEAUstbir__info@@H@Z|
	mov         x2,x0
	ldr         w1,[sp]
	ldr         x0,[sp,#8]
	bl          |?stbir__resample_horizontal_downsample@@YAXPEAUstbir__info@@HPEAM@Z|
|$LN3@stbir__dec|
	add         sp,sp,#0x10
	ldr         lr,[sp],#0x10
	ret

	ENDP  ; |?stbir__decode_and_resample_upsample@@YAXPEAUstbir__info@@H@Z|, stbir__decode_and_resample_upsample

; Function compile flags: /Odtpy
; File C:\Users\paras\source\repos\grep-name\XenevaOS\Libs\Chitralekha\stb_image_resize.h

	AREA	|.text$mn|, CODE, ARM64

|?stbir__resample_horizontal_downsample@@YAXPEAUstbir__info@@HPEAM@Z| PROC ; stbir__resample_horizontal_downsample

; 1524 : {

	str         lr,[sp,#-0x10]!
	sub         sp,sp,#0x100
	str         x0,[sp,#0x30]
	str         w1,[sp,#0xF4]
	str         x2,[sp,#8]

; 1525 :     int x, k;
; 1526 :     int input_w = stbir_info->input_w;

	ldr         x8,[sp,#0x30]
	add         x8,x8,#8
	ldr         w8,[x8]
	str         w8,[sp,#0xBC]

; 1527 :     int output_w = stbir_info->output_w;

	ldr         x8,[sp,#0x30]
	add         x8,x8,#0x20
	ldr         w8,[x8]
	str         w8,[sp,#0xEC]

; 1528 :     int kernel_pixel_width = stbir_info->horizontal_filter_pixel_width;

	ldr         x8,[sp,#0x30]
	add         x8,x8,#0xB0
	ldr         w8,[x8]
	str         w8,[sp,#0xF0]

; 1529 :     int channels = stbir_info->channels;

	ldr         x8,[sp,#0x30]
	add         x8,x8,#0x4C
	ldr         w8,[x8]
	str         w8,[sp,#0x50]

; 1530 :     float* decode_buffer = stbir__get_decode_buffer(stbir_info);

	ldr         x0,[sp,#0x30]
	bl          |?stbir__get_decode_buffer@@YAPEAMPEAUstbir__info@@@Z|
	str         x0,[sp,#0x28]

; 1531 :     stbir__contributors* horizontal_contributors = stbir_info->horizontal_contributors;

	ldr         x8,[sp,#0x30]
	add         x8,x8,#0x70
	ldr         x8,[x8]
	str         x8,[sp,#0x38]

; 1532 :     float* horizontal_coefficients = stbir_info->horizontal_coefficients;

	ldr         x8,[sp,#0x30]
	add         x8,x8,#0x78
	ldr         x8,[x8]
	str         x8,[sp,#0x80]

; 1533 :     int coefficient_width = stbir_info->horizontal_coefficient_width;

	ldr         x8,[sp,#0x30]
	add         x8,x8,#0xA8
	ldr         w8,[x8]
	str         w8,[sp,#0x24]

; 1534 :     int filter_pixel_margin = stbir_info->horizontal_filter_pixel_margin;

	ldr         x8,[sp,#0x30]
	add         x8,x8,#0xB8
	ldr         w8,[x8]
	str         w8,[sp,#0x18]

; 1535 :     int max_x = input_w + filter_pixel_margin * 2;

	ldr         w9,[sp,#0x18]
	mov         w8,#2
	mul         w9,w9,w8
	ldr         w8,[sp,#0xBC]
	add         w8,w8,w9
	str         w8,[sp,#0x20]

; 1536 : 
; 1537 :     STBIR__DEBUG_ASSERT(!stbir__use_width_upsampling(stbir_info));

	ldr         x0,[sp,#0x30]
	bl          |?stbir__use_width_upsampling@@YAHPEAUstbir__info@@@Z|

; 1538 : 
; 1539 :     switch (channels) {

	ldr         w8,[sp,#0x50]
	str         w8,[sp,#0x40]
	ldr         w8,[sp,#0x40]
	sub         w8,w8,#1
	str         w8,[sp,#0x40]
	ldr         w8,[sp,#0x40]
	cmp         w8,#3
	bhi         |$LN41@stbir__res|
	ldr         w10,[sp,#0x40]
	adr         x9,__swt
	ldrsw       x8,[x9,w10 uxtw #2]
	adr         x9,|$LN44@stbir__res|
	add         x8,x9,x8,lsl #2
	br          x8
|$LN37@stbir__res|

; 1540 :     case 1:
; 1541 :         for (x = 0; x < max_x; x++)

	mov         w8,#0
	str         w8,[sp]
	b           |$LN6@stbir__res|
|$LN4@stbir__res|
	ldr         w8,[sp]
	add         w8,w8,#1
	str         w8,[sp]
|$LN6@stbir__res|
	ldr         w9,[sp,#0x20]
	ldr         w8,[sp]
	cmp         w8,w9
	bge         |$LN5@stbir__res|

; 1542 :         {
; 1543 :             int n0 = horizontal_contributors[x].n0;

	ldr         w8,[sp]
	sxtw        x9,w8
	mov         x8,#8
	mul         x9,x9,x8
	ldr         x8,[sp,#0x38]
	add         x8,x8,x9
	ldr         w8,[x8]
	str         w8,[sp,#0x5C]

; 1544 :             int n1 = horizontal_contributors[x].n1;

	ldr         w8,[sp]
	sxtw        x9,w8
	mov         x8,#8
	mul         x9,x9,x8
	ldr         x8,[sp,#0x38]
	add         x8,x8,x9
	add         x8,x8,#4
	ldr         w8,[x8]
	str         w8,[sp,#0xE0]

; 1545 : 
; 1546 :             int in_x = x - filter_pixel_margin;

	ldr         w9,[sp]
	ldr         w8,[sp,#0x18]
	sub         w8,w9,w8
	str         w8,[sp,#0xDC]

; 1547 :             int in_pixel_index = in_x * 1;

	ldr         w8,[sp,#0xDC]
	str         w8,[sp,#0x88]

; 1548 :             int max_n = n1;

	ldr         w8,[sp,#0xE0]
	str         w8,[sp,#0xE4]

; 1549 :             int coefficient_group = coefficient_width * x;

	ldr         w9,[sp,#0x24]
	ldr         w8,[sp]
	mul         w8,w9,w8
	str         w8,[sp,#0xE8]

; 1550 : 
; 1551 :             for (k = n0; k <= max_n; k++)

	ldr         w8,[sp,#0x5C]
	str         w8,[sp,#4]
	b           |$LN9@stbir__res|
|$LN7@stbir__res|
	ldr         w8,[sp,#4]
	add         w8,w8,#1
	str         w8,[sp,#4]
|$LN9@stbir__res|
	ldr         w9,[sp,#0xE4]
	ldr         w8,[sp,#4]
	cmp         w8,w9
	bgt         |$LN8@stbir__res|

; 1552 :             {
; 1553 :                 int out_pixel_index = k * 1;

	ldr         w8,[sp,#4]
	str         w8,[sp,#0x60]

; 1554 :                 float coefficient = horizontal_coefficients[coefficient_group + k - n0];

	ldr         w9,[sp,#0xE8]
	ldr         w8,[sp,#4]
	add         w9,w9,w8
	ldr         w8,[sp,#0x5C]
	sub         w8,w9,w8
	sxtw        x9,w8
	mov         x8,#4
	mul         x9,x9,x8
	ldr         x8,[sp,#0x80]
	add         x8,x8,x9
	ldr         s16,[x8]
	str         s16,[sp,#0x8C]

; 1555 :                 STBIR__DEBUG_ASSERT(coefficient != 0);
; 1556 :                 output_buffer[out_pixel_index + 0] += decode_buffer[in_pixel_index + 0] * coefficient;

	ldr         w8,[sp,#0x60]
	mov         w8,w8
	sxtw        x9,w8
	mov         x8,#4
	mul         x9,x9,x8
	ldr         x8,[sp,#8]
	add         x10,x8,x9
	ldr         w8,[sp,#0x88]
	mov         w8,w8
	sxtw        x9,w8
	mov         x8,#4
	mul         x9,x9,x8
	ldr         x8,[sp,#0x28]
	add         x8,x8,x9
	ldr         s17,[x8]
	ldr         s16,[sp,#0x8C]
	fmul        s17,s17,s16
	ldr         s16,[x10]
	fadd        s16,s16,s17
	ldr         w8,[sp,#0x60]
	mov         w8,w8
	sxtw        x9,w8
	mov         x8,#4
	mul         x9,x9,x8
	ldr         x8,[sp,#8]
	add         x8,x8,x9
	str         s16,[x8]

; 1557 :             }

	b           |$LN7@stbir__res|
|$LN8@stbir__res|

; 1558 :         }

	b           |$LN4@stbir__res|
|$LN5@stbir__res|

; 1559 :         break;

	b           |$LN2@stbir__res|
|$LN38@stbir__res|

; 1560 : 
; 1561 :     case 2:
; 1562 :         for (x = 0; x < max_x; x++)

	mov         w8,#0
	str         w8,[sp]
	b           |$LN12@stbir__res|
|$LN10@stbir__res|
	ldr         w8,[sp]
	add         w8,w8,#1
	str         w8,[sp]
|$LN12@stbir__res|
	ldr         w9,[sp,#0x20]
	ldr         w8,[sp]
	cmp         w8,w9
	bge         |$LN11@stbir__res|

; 1563 :         {
; 1564 :             int n0 = horizontal_contributors[x].n0;

	ldr         w8,[sp]
	sxtw        x9,w8
	mov         x8,#8
	mul         x9,x9,x8
	ldr         x8,[sp,#0x38]
	add         x8,x8,x9
	ldr         w8,[x8]
	str         w8,[sp,#0x64]

; 1565 :             int n1 = horizontal_contributors[x].n1;

	ldr         w8,[sp]
	sxtw        x9,w8
	mov         x8,#8
	mul         x9,x9,x8
	ldr         x8,[sp,#0x38]
	add         x8,x8,x9
	add         x8,x8,#4
	ldr         w8,[x8]
	str         w8,[sp,#0x94]

; 1566 : 
; 1567 :             int in_x = x - filter_pixel_margin;

	ldr         w9,[sp]
	ldr         w8,[sp,#0x18]
	sub         w8,w9,w8
	str         w8,[sp,#0x90]

; 1568 :             int in_pixel_index = in_x * 2;

	ldr         w9,[sp,#0x90]
	mov         w8,#2
	mul         w8,w9,w8
	str         w8,[sp,#0x68]

; 1569 :             int max_n = n1;

	ldr         w8,[sp,#0x94]
	str         w8,[sp,#0x98]

; 1570 :             int coefficient_group = coefficient_width * x;

	ldr         w9,[sp,#0x24]
	ldr         w8,[sp]
	mul         w8,w9,w8
	str         w8,[sp,#0x9C]

; 1571 : 
; 1572 :             for (k = n0; k <= max_n; k++)

	ldr         w8,[sp,#0x64]
	str         w8,[sp,#4]
	b           |$LN15@stbir__res|
|$LN13@stbir__res|
	ldr         w8,[sp,#4]
	add         w8,w8,#1
	str         w8,[sp,#4]
|$LN15@stbir__res|
	ldr         w9,[sp,#0x98]
	ldr         w8,[sp,#4]
	cmp         w8,w9
	bgt         |$LN14@stbir__res|

; 1573 :             {
; 1574 :                 int out_pixel_index = k * 2;

	ldr         w9,[sp,#4]
	mov         w8,#2
	mul         w8,w9,w8
	str         w8,[sp,#0x44]

; 1575 :                 float coefficient = horizontal_coefficients[coefficient_group + k - n0];

	ldr         w9,[sp,#0x9C]
	ldr         w8,[sp,#4]
	add         w9,w9,w8
	ldr         w8,[sp,#0x64]
	sub         w8,w9,w8
	sxtw        x9,w8
	mov         x8,#4
	mul         x9,x9,x8
	ldr         x8,[sp,#0x80]
	add         x8,x8,x9
	ldr         s16,[x8]
	str         s16,[sp,#0x6C]

; 1576 :                 STBIR__DEBUG_ASSERT(coefficient != 0);
; 1577 :                 output_buffer[out_pixel_index + 0] += decode_buffer[in_pixel_index + 0] * coefficient;

	ldr         w8,[sp,#0x44]
	mov         w8,w8
	sxtw        x9,w8
	mov         x8,#4
	mul         x9,x9,x8
	ldr         x8,[sp,#8]
	add         x10,x8,x9
	ldr         w8,[sp,#0x68]
	mov         w8,w8
	sxtw        x9,w8
	mov         x8,#4
	mul         x9,x9,x8
	ldr         x8,[sp,#0x28]
	add         x8,x8,x9
	ldr         s17,[x8]
	ldr         s16,[sp,#0x6C]
	fmul        s17,s17,s16
	ldr         s16,[x10]
	fadd        s16,s16,s17
	ldr         w8,[sp,#0x44]
	mov         w8,w8
	sxtw        x9,w8
	mov         x8,#4
	mul         x9,x9,x8
	ldr         x8,[sp,#8]
	add         x8,x8,x9
	str         s16,[x8]

; 1578 :                 output_buffer[out_pixel_index + 1] += decode_buffer[in_pixel_index + 1] * coefficient;

	ldr         w8,[sp,#0x44]
	add         w8,w8,#1
	sxtw        x9,w8
	mov         x8,#4
	mul         x9,x9,x8
	ldr         x8,[sp,#8]
	add         x10,x8,x9
	ldr         w8,[sp,#0x68]
	add         w8,w8,#1
	sxtw        x9,w8
	mov         x8,#4
	mul         x9,x9,x8
	ldr         x8,[sp,#0x28]
	add         x8,x8,x9
	ldr         s17,[x8]
	ldr         s16,[sp,#0x6C]
	fmul        s17,s17,s16
	ldr         s16,[x10]
	fadd        s16,s16,s17
	ldr         w8,[sp,#0x44]
	add         w8,w8,#1
	sxtw        x9,w8
	mov         x8,#4
	mul         x9,x9,x8
	ldr         x8,[sp,#8]
	add         x8,x8,x9
	str         s16,[x8]

; 1579 :             }

	b           |$LN13@stbir__res|
|$LN14@stbir__res|

; 1580 :         }

	b           |$LN10@stbir__res|
|$LN11@stbir__res|

; 1581 :         break;

	b           |$LN2@stbir__res|
|$LN39@stbir__res|
|$LN44@stbir__res|

; 1582 : 
; 1583 :     case 3:
; 1584 :         for (x = 0; x < max_x; x++)

	mov         w8,#0
	str         w8,[sp]
	b           |$LN18@stbir__res|
|$LN16@stbir__res|
	ldr         w8,[sp]
	add         w8,w8,#1
	str         w8,[sp]
|$LN18@stbir__res|
	ldr         w9,[sp,#0x20]
	ldr         w8,[sp]
	cmp         w8,w9
	bge         |$LN17@stbir__res|

; 1585 :         {
; 1586 :             int n0 = horizontal_contributors[x].n0;

	ldr         w8,[sp]
	sxtw        x9,w8
	mov         x8,#8
	mul         x9,x9,x8
	ldr         x8,[sp,#0x38]
	add         x8,x8,x9
	ldr         w8,[x8]
	str         w8,[sp,#0x70]

; 1587 :             int n1 = horizontal_contributors[x].n1;

	ldr         w8,[sp]
	sxtw        x9,w8
	mov         x8,#8
	mul         x9,x9,x8
	ldr         x8,[sp,#0x38]
	add         x8,x8,x9
	add         x8,x8,#4
	ldr         w8,[x8]
	str         w8,[sp,#0xA4]

; 1588 : 
; 1589 :             int in_x = x - filter_pixel_margin;

	ldr         w9,[sp]
	ldr         w8,[sp,#0x18]
	sub         w8,w9,w8
	str         w8,[sp,#0xA0]

; 1590 :             int in_pixel_index = in_x * 3;

	ldr         w9,[sp,#0xA0]
	mov         w8,#3
	mul         w8,w9,w8
	str         w8,[sp,#0x54]

; 1591 :             int max_n = n1;

	ldr         w8,[sp,#0xA4]
	str         w8,[sp,#0xA8]

; 1592 :             int coefficient_group = coefficient_width * x;

	ldr         w9,[sp,#0x24]
	ldr         w8,[sp]
	mul         w8,w9,w8
	str         w8,[sp,#0xAC]

; 1593 : 
; 1594 :             for (k = n0; k <= max_n; k++)

	ldr         w8,[sp,#0x70]
	str         w8,[sp,#4]
	b           |$LN21@stbir__res|
|$LN19@stbir__res|
	ldr         w8,[sp,#4]
	add         w8,w8,#1
	str         w8,[sp,#4]
|$LN21@stbir__res|
	ldr         w9,[sp,#0xA8]
	ldr         w8,[sp,#4]
	cmp         w8,w9
	bgt         |$LN20@stbir__res|

; 1595 :             {
; 1596 :                 int out_pixel_index = k * 3;

	ldr         w9,[sp,#4]
	mov         w8,#3
	mul         w8,w9,w8
	str         w8,[sp,#0x14]

; 1597 :                 float coefficient = horizontal_coefficients[coefficient_group + k - n0];

	ldr         w9,[sp,#0xAC]
	ldr         w8,[sp,#4]
	add         w9,w9,w8
	ldr         w8,[sp,#0x70]
	sub         w8,w9,w8
	sxtw        x9,w8
	mov         x8,#4
	mul         x9,x9,x8
	ldr         x8,[sp,#0x80]
	add         x8,x8,x9
	ldr         s16,[x8]
	str         s16,[sp,#0x58]

; 1598 :                 STBIR__DEBUG_ASSERT(coefficient != 0);
; 1599 :                 output_buffer[out_pixel_index + 0] += decode_buffer[in_pixel_index + 0] * coefficient;

	ldr         w8,[sp,#0x14]
	mov         w8,w8
	sxtw        x9,w8
	mov         x8,#4
	mul         x9,x9,x8
	ldr         x8,[sp,#8]
	add         x10,x8,x9
	ldr         w8,[sp,#0x54]
	mov         w8,w8
	sxtw        x9,w8
	mov         x8,#4
	mul         x9,x9,x8
	ldr         x8,[sp,#0x28]
	add         x8,x8,x9
	ldr         s17,[x8]
	ldr         s16,[sp,#0x58]
	fmul        s17,s17,s16
	ldr         s16,[x10]
	fadd        s16,s16,s17
	ldr         w8,[sp,#0x14]
	mov         w8,w8
	sxtw        x9,w8
	mov         x8,#4
	mul         x9,x9,x8
	ldr         x8,[sp,#8]
	add         x8,x8,x9
	str         s16,[x8]

; 1600 :                 output_buffer[out_pixel_index + 1] += decode_buffer[in_pixel_index + 1] * coefficient;

	ldr         w8,[sp,#0x14]
	add         w8,w8,#1
	sxtw        x9,w8
	mov         x8,#4
	mul         x9,x9,x8
	ldr         x8,[sp,#8]
	add         x10,x8,x9
	ldr         w8,[sp,#0x54]
	add         w8,w8,#1
	sxtw        x9,w8
	mov         x8,#4
	mul         x9,x9,x8
	ldr         x8,[sp,#0x28]
	add         x8,x8,x9
	ldr         s17,[x8]
	ldr         s16,[sp,#0x58]
	fmul        s17,s17,s16
	ldr         s16,[x10]
	fadd        s16,s16,s17
	ldr         w8,[sp,#0x14]
	add         w8,w8,#1
	sxtw        x9,w8
	mov         x8,#4
	mul         x9,x9,x8
	ldr         x8,[sp,#8]
	add         x8,x8,x9
	str         s16,[x8]

; 1601 :                 output_buffer[out_pixel_index + 2] += decode_buffer[in_pixel_index + 2] * coefficient;

	ldr         w8,[sp,#0x14]
	add         w8,w8,#2
	sxtw        x9,w8
	mov         x8,#4
	mul         x9,x9,x8
	ldr         x8,[sp,#8]
	add         x10,x8,x9
	ldr         w8,[sp,#0x54]
	add         w8,w8,#2
	sxtw        x9,w8
	mov         x8,#4
	mul         x9,x9,x8
	ldr         x8,[sp,#0x28]
	add         x8,x8,x9
	ldr         s17,[x8]
	ldr         s16,[sp,#0x58]
	fmul        s17,s17,s16
	ldr         s16,[x10]
	fadd        s16,s16,s17
	ldr         w8,[sp,#0x14]
	add         w8,w8,#2
	sxtw        x9,w8
	mov         x8,#4
	mul         x9,x9,x8
	ldr         x8,[sp,#8]
	add         x8,x8,x9
	str         s16,[x8]

; 1602 :             }

	b           |$LN19@stbir__res|
|$LN20@stbir__res|

; 1603 :         }

	b           |$LN16@stbir__res|
|$LN17@stbir__res|

; 1604 :         break;

	b           |$LN2@stbir__res|
|$LN40@stbir__res|

; 1605 : 
; 1606 :     case 4:
; 1607 :         for (x = 0; x < max_x; x++)

	mov         w8,#0
	str         w8,[sp]
	b           |$LN24@stbir__res|
|$LN22@stbir__res|
	ldr         w8,[sp]
	add         w8,w8,#1
	str         w8,[sp]
|$LN24@stbir__res|
	ldr         w9,[sp,#0x20]
	ldr         w8,[sp]
	cmp         w8,w9
	bge         |$LN23@stbir__res|

; 1608 :         {
; 1609 :             int n0 = horizontal_contributors[x].n0;

	ldr         w8,[sp]
	sxtw        x9,w8
	mov         x8,#8
	mul         x9,x9,x8
	ldr         x8,[sp,#0x38]
	add         x8,x8,x9
	ldr         w8,[x8]
	str         w8,[sp,#0x74]

; 1610 :             int n1 = horizontal_contributors[x].n1;

	ldr         w8,[sp]
	sxtw        x9,w8
	mov         x8,#8
	mul         x9,x9,x8
	ldr         x8,[sp,#0x38]
	add         x8,x8,x9
	add         x8,x8,#4
	ldr         w8,[x8]
	str         w8,[sp,#0xB4]

; 1611 : 
; 1612 :             int in_x = x - filter_pixel_margin;

	ldr         w9,[sp]
	ldr         w8,[sp,#0x18]
	sub         w8,w9,w8
	str         w8,[sp,#0xB0]

; 1613 :             int in_pixel_index = in_x * 4;

	ldr         w9,[sp,#0xB0]
	mov         w8,#4
	mul         w8,w9,w8
	str         w8,[sp,#0x48]

; 1614 :             int max_n = n1;

	ldr         w8,[sp,#0xB4]
	str         w8,[sp,#0xB8]

; 1615 :             int coefficient_group = coefficient_width * x;

	ldr         w9,[sp,#0x24]
	ldr         w8,[sp]
	mul         w8,w9,w8
	str         w8,[sp,#0xD8]

; 1616 : 
; 1617 :             for (k = n0; k <= max_n; k++)

	ldr         w8,[sp,#0x74]
	str         w8,[sp,#4]
	b           |$LN27@stbir__res|
|$LN25@stbir__res|
	ldr         w8,[sp,#4]
	add         w8,w8,#1
	str         w8,[sp,#4]
|$LN27@stbir__res|
	ldr         w9,[sp,#0xB8]
	ldr         w8,[sp,#4]
	cmp         w8,w9
	bgt         |$LN26@stbir__res|

; 1618 :             {
; 1619 :                 int out_pixel_index = k * 4;

	ldr         w9,[sp,#4]
	mov         w8,#4
	mul         w8,w9,w8
	str         w8,[sp,#0x10]

; 1620 :                 float coefficient = horizontal_coefficients[coefficient_group + k - n0];

	ldr         w9,[sp,#0xD8]
	ldr         w8,[sp,#4]
	add         w9,w9,w8
	ldr         w8,[sp,#0x74]
	sub         w8,w9,w8
	sxtw        x9,w8
	mov         x8,#4
	mul         x9,x9,x8
	ldr         x8,[sp,#0x80]
	add         x8,x8,x9
	ldr         s16,[x8]
	str         s16,[sp,#0x4C]

; 1621 :                 STBIR__DEBUG_ASSERT(coefficient != 0);
; 1622 :                 output_buffer[out_pixel_index + 0] += decode_buffer[in_pixel_index + 0] * coefficient;

	ldr         w8,[sp,#0x10]
	mov         w8,w8
	sxtw        x9,w8
	mov         x8,#4
	mul         x9,x9,x8
	ldr         x8,[sp,#8]
	add         x10,x8,x9
	ldr         w8,[sp,#0x48]
	mov         w8,w8
	sxtw        x9,w8
	mov         x8,#4
	mul         x9,x9,x8
	ldr         x8,[sp,#0x28]
	add         x8,x8,x9
	ldr         s17,[x8]
	ldr         s16,[sp,#0x4C]
	fmul        s17,s17,s16
	ldr         s16,[x10]
	fadd        s16,s16,s17
	ldr         w8,[sp,#0x10]
	mov         w8,w8
	sxtw        x9,w8
	mov         x8,#4
	mul         x9,x9,x8
	ldr         x8,[sp,#8]
	add         x8,x8,x9
	str         s16,[x8]

; 1623 :                 output_buffer[out_pixel_index + 1] += decode_buffer[in_pixel_index + 1] * coefficient;

	ldr         w8,[sp,#0x10]
	add         w8,w8,#1
	sxtw        x9,w8
	mov         x8,#4
	mul         x9,x9,x8
	ldr         x8,[sp,#8]
	add         x10,x8,x9
	ldr         w8,[sp,#0x48]
	add         w8,w8,#1
	sxtw        x9,w8
	mov         x8,#4
	mul         x9,x9,x8
	ldr         x8,[sp,#0x28]
	add         x8,x8,x9
	ldr         s17,[x8]
	ldr         s16,[sp,#0x4C]
	fmul        s17,s17,s16
	ldr         s16,[x10]
	fadd        s16,s16,s17
	ldr         w8,[sp,#0x10]
	add         w8,w8,#1
	sxtw        x9,w8
	mov         x8,#4
	mul         x9,x9,x8
	ldr         x8,[sp,#8]
	add         x8,x8,x9
	str         s16,[x8]

; 1624 :                 output_buffer[out_pixel_index + 2] += decode_buffer[in_pixel_index + 2] * coefficient;

	ldr         w8,[sp,#0x10]
	add         w8,w8,#2
	sxtw        x9,w8
	mov         x8,#4
	mul         x9,x9,x8
	ldr         x8,[sp,#8]
	add         x10,x8,x9
	ldr         w8,[sp,#0x48]
	add         w8,w8,#2
	sxtw        x9,w8
	mov         x8,#4
	mul         x9,x9,x8
	ldr         x8,[sp,#0x28]
	add         x8,x8,x9
	ldr         s17,[x8]
	ldr         s16,[sp,#0x4C]
	fmul        s17,s17,s16
	ldr         s16,[x10]
	fadd        s16,s16,s17
	ldr         w8,[sp,#0x10]
	add         w8,w8,#2
	sxtw        x9,w8
	mov         x8,#4
	mul         x9,x9,x8
	ldr         x8,[sp,#8]
	add         x8,x8,x9
	str         s16,[x8]

; 1625 :                 output_buffer[out_pixel_index + 3] += decode_buffer[in_pixel_index + 3] * coefficient;

	ldr         w8,[sp,#0x10]
	add         w8,w8,#3
	sxtw        x9,w8
	mov         x8,#4
	mul         x9,x9,x8
	ldr         x8,[sp,#8]
	add         x10,x8,x9
	ldr         w8,[sp,#0x48]
	add         w8,w8,#3
	sxtw        x9,w8
	mov         x8,#4
	mul         x9,x9,x8
	ldr         x8,[sp,#0x28]
	add         x8,x8,x9
	ldr         s17,[x8]
	ldr         s16,[sp,#0x4C]
	fmul        s17,s17,s16
	ldr         s16,[x10]
	fadd        s16,s16,s17
	ldr         w8,[sp,#0x10]
	add         w8,w8,#3
	sxtw        x9,w8
	mov         x8,#4
	mul         x9,x9,x8
	ldr         x8,[sp,#8]
	add         x8,x8,x9
	str         s16,[x8]

; 1626 :             }

	b           |$LN25@stbir__res|
|$LN26@stbir__res|

; 1627 :         }

	b           |$LN22@stbir__res|
|$LN23@stbir__res|

; 1628 :         break;

	b           |$LN2@stbir__res|
|$LN41@stbir__res|

; 1629 : 
; 1630 :     default:
; 1631 :         for (x = 0; x < max_x; x++)

	mov         w8,#0
	str         w8,[sp]
	b           |$LN30@stbir__res|
|$LN28@stbir__res|
	ldr         w8,[sp]
	add         w8,w8,#1
	str         w8,[sp]
|$LN30@stbir__res|
	ldr         w9,[sp,#0x20]
	ldr         w8,[sp]
	cmp         w8,w9
	bge         |$LN29@stbir__res|

; 1632 :         {
; 1633 :             int n0 = horizontal_contributors[x].n0;

	ldr         w8,[sp]
	sxtw        x9,w8
	mov         x8,#8
	mul         x9,x9,x8
	ldr         x8,[sp,#0x38]
	add         x8,x8,x9
	ldr         w8,[x8]
	str         w8,[sp,#0x78]

; 1634 :             int n1 = horizontal_contributors[x].n1;

	ldr         w8,[sp]
	sxtw        x9,w8
	mov         x8,#8
	mul         x9,x9,x8
	ldr         x8,[sp,#0x38]
	add         x8,x8,x9
	add         x8,x8,#4
	ldr         w8,[x8]
	str         w8,[sp,#0xC4]

; 1635 : 
; 1636 :             int in_x = x - filter_pixel_margin;

	ldr         w9,[sp]
	ldr         w8,[sp,#0x18]
	sub         w8,w9,w8
	str         w8,[sp,#0xC0]

; 1637 :             int in_pixel_index = in_x * channels;

	ldr         w9,[sp,#0xC0]
	ldr         w8,[sp,#0x50]
	mul         w8,w9,w8
	str         w8,[sp,#0xD0]

; 1638 :             int max_n = n1;

	ldr         w8,[sp,#0xC4]
	str         w8,[sp,#0xC8]

; 1639 :             int coefficient_group = coefficient_width * x;

	ldr         w9,[sp,#0x24]
	ldr         w8,[sp]
	mul         w8,w9,w8
	str         w8,[sp,#0xCC]

; 1640 : 
; 1641 :             for (k = n0; k <= max_n; k++)

	ldr         w8,[sp,#0x78]
	str         w8,[sp,#4]
	b           |$LN33@stbir__res|
|$LN31@stbir__res|
	ldr         w8,[sp,#4]
	add         w8,w8,#1
	str         w8,[sp,#4]
|$LN33@stbir__res|
	ldr         w9,[sp,#0xC8]
	ldr         w8,[sp,#4]
	cmp         w8,w9
	bgt         |$LN32@stbir__res|

; 1642 :             {
; 1643 :                 int c;
; 1644 :                 int out_pixel_index = k * channels;

	ldr         w9,[sp,#4]
	ldr         w8,[sp,#0x50]
	mul         w8,w9,w8
	str         w8,[sp,#0x7C]

; 1645 :                 float coefficient = horizontal_coefficients[coefficient_group + k - n0];

	ldr         w9,[sp,#0xCC]
	ldr         w8,[sp,#4]
	add         w9,w9,w8
	ldr         w8,[sp,#0x78]
	sub         w8,w9,w8
	sxtw        x9,w8
	mov         x8,#4
	mul         x9,x9,x8
	ldr         x8,[sp,#0x80]
	add         x8,x8,x9
	ldr         s16,[x8]
	str         s16,[sp,#0xD4]

; 1646 :                 STBIR__DEBUG_ASSERT(coefficient != 0);
; 1647 :                 for (c = 0; c < channels; c++)

	mov         w8,#0
	str         w8,[sp,#0x1C]
	b           |$LN36@stbir__res|
|$LN34@stbir__res|
	ldr         w8,[sp,#0x1C]
	add         w8,w8,#1
	str         w8,[sp,#0x1C]
|$LN36@stbir__res|
	ldr         w9,[sp,#0x50]
	ldr         w8,[sp,#0x1C]
	cmp         w8,w9
	bge         |$LN35@stbir__res|

; 1648 :                     output_buffer[out_pixel_index + c] += decode_buffer[in_pixel_index + c] * coefficient;

	ldr         w9,[sp,#0x7C]
	ldr         w8,[sp,#0x1C]
	add         w8,w9,w8
	sxtw        x9,w8
	mov         x8,#4
	mul         x9,x9,x8
	ldr         x8,[sp,#8]
	add         x10,x8,x9
	ldr         w9,[sp,#0xD0]
	ldr         w8,[sp,#0x1C]
	add         w8,w9,w8
	sxtw        x9,w8
	mov         x8,#4
	mul         x9,x9,x8
	ldr         x8,[sp,#0x28]
	add         x8,x8,x9
	ldr         s17,[x8]
	ldr         s16,[sp,#0xD4]
	fmul        s17,s17,s16
	ldr         s16,[x10]
	fadd        s16,s16,s17
	ldr         w9,[sp,#0x7C]
	ldr         w8,[sp,#0x1C]
	add         w8,w9,w8
	sxtw        x9,w8
	mov         x8,#4
	mul         x9,x9,x8
	ldr         x8,[sp,#8]
	add         x8,x8,x9
	str         s16,[x8]
	b           |$LN34@stbir__res|
|$LN35@stbir__res|

; 1649 :             }

	b           |$LN31@stbir__res|
|$LN32@stbir__res|

; 1650 :         }

	b           |$LN28@stbir__res|
|$LN29@stbir__res|
|$LN2@stbir__res|
	add         sp,sp,#0x100
	ldr         lr,[sp],#0x10
	ret
|__swt|
|$LN45@stbir__res|

; 1538 : 
; 1539 :     switch (channels) {

	DCD         0xffffff27
|$LN46@stbir__res|
	DCD         0xffffff84
|$LN47@stbir__res|
	DCD         0x0
|$LN48@stbir__res|
	DCD         0x97

	ENDP  ; |?stbir__resample_horizontal_downsample@@YAXPEAUstbir__info@@HPEAM@Z|, stbir__resample_horizontal_downsample

; Function compile flags: /Odtpy
; File C:\Users\paras\source\repos\grep-name\XenevaOS\Libs\Chitralekha\stb_image_resize.h

	AREA	|.text$mn|, CODE, ARM64

|?stbir__resample_horizontal_upsample@@YAXPEAUstbir__info@@HPEAM@Z| PROC ; stbir__resample_horizontal_upsample

; 1440 : {

	str         lr,[sp,#-0x10]!
	sub         sp,sp,#0x90
	str         x0,[sp,#0x50]
	str         w1,[sp,#0x88]
	str         x2,[sp,#0x10]

; 1441 :     int x, k;
; 1442 :     int output_w = stbir_info->output_w;

	ldr         x8,[sp,#0x50]
	add         x8,x8,#0x20
	ldr         w8,[x8]
	str         w8,[sp,#0x68]

; 1443 :     int kernel_pixel_width = stbir_info->horizontal_filter_pixel_width;

	ldr         x8,[sp,#0x50]
	add         x8,x8,#0xB0
	ldr         w8,[x8]
	str         w8,[sp,#0x8C]

; 1444 :     int channels = stbir_info->channels;

	ldr         x8,[sp,#0x50]
	add         x8,x8,#0x4C
	ldr         w8,[x8]
	str         w8,[sp,#0x44]

; 1445 :     float* decode_buffer = stbir__get_decode_buffer(stbir_info);

	ldr         x0,[sp,#0x50]
	bl          |?stbir__get_decode_buffer@@YAPEAMPEAUstbir__info@@@Z|
	str         x0,[sp,#0x30]

; 1446 :     stbir__contributors* horizontal_contributors = stbir_info->horizontal_contributors;

	ldr         x8,[sp,#0x50]
	add         x8,x8,#0x70
	ldr         x8,[x8]
	str         x8,[sp,#0x80]

; 1447 :     float* horizontal_coefficients = stbir_info->horizontal_coefficients;

	ldr         x8,[sp,#0x50]
	add         x8,x8,#0x78
	ldr         x8,[x8]
	str         x8,[sp,#0x60]

; 1448 :     int coefficient_width = stbir_info->horizontal_coefficient_width;

	ldr         x8,[sp,#0x50]
	add         x8,x8,#0xA8
	ldr         w8,[x8]
	str         w8,[sp,#0x6C]

; 1449 : 
; 1450 :     for (x = 0; x < output_w; x++)

	mov         w8,#0
	str         w8,[sp,#0x18]
	b           |$LN4@stbir__res|
|$LN2@stbir__res|
	ldr         w8,[sp,#0x18]
	add         w8,w8,#1
	str         w8,[sp,#0x18]
|$LN4@stbir__res|
	ldr         w9,[sp,#0x68]
	ldr         w8,[sp,#0x18]
	cmp         w8,w9
	bge         |$LN3@stbir__res|

; 1451 :     {
; 1452 :         int n0 = horizontal_contributors[x].n0;

	ldr         w8,[sp,#0x18]
	sxtw        x9,w8
	mov         x8,#8
	mul         x9,x9,x8
	ldr         x8,[sp,#0x80]
	add         x8,x8,x9
	ldr         w8,[x8]
	str         w8,[sp,#0x20]

; 1453 :         int n1 = horizontal_contributors[x].n1;

	ldr         w8,[sp,#0x18]
	sxtw        x9,w8
	mov         x8,#8
	mul         x9,x9,x8
	ldr         x8,[sp,#0x80]
	add         x8,x8,x9
	add         x8,x8,#4
	ldr         w8,[x8]
	str         w8,[sp,#0x24]

; 1454 : 
; 1455 :         int out_pixel_index = x * channels;

	ldr         w9,[sp,#0x18]
	ldr         w8,[sp,#0x44]
	mul         w8,w9,w8
	str         w8,[sp,#4]

; 1456 :         int coefficient_group = coefficient_width * x;

	ldr         w9,[sp,#0x6C]
	ldr         w8,[sp,#0x18]
	mul         w8,w9,w8
	str         w8,[sp,#0x28]

; 1457 :         int coefficient_counter = 0;

	mov         w8,#0
	str         w8,[sp,#8]

; 1458 : 
; 1459 :         STBIR__DEBUG_ASSERT(n1 >= n0);
; 1460 :         STBIR__DEBUG_ASSERT(n0 >= -stbir_info->horizontal_filter_pixel_margin);
; 1461 :         STBIR__DEBUG_ASSERT(n1 >= -stbir_info->horizontal_filter_pixel_margin);
; 1462 :         STBIR__DEBUG_ASSERT(n0 < stbir_info->input_w + stbir_info->horizontal_filter_pixel_margin);
; 1463 :         STBIR__DEBUG_ASSERT(n1 < stbir_info->input_w + stbir_info->horizontal_filter_pixel_margin);
; 1464 : 
; 1465 :         switch (channels) {

	ldr         w8,[sp,#0x44]
	str         w8,[sp,#0x38]
	ldr         w8,[sp,#0x38]
	sub         w8,w8,#1
	str         w8,[sp,#0x38]
	ldr         w8,[sp,#0x38]
	cmp         w8,#3
	bhi         |$LN29@stbir__res|
	ldr         w10,[sp,#0x38]
	adr         x9,__swt
	ldrsw       x8,[x9,w10 uxtw #2]
	adr         x9,|$LN32@stbir__res|
	add         x8,x9,x8,lsl #2
	br          x8
|$LN25@stbir__res|

; 1466 :         case 1:
; 1467 :             for (k = n0; k <= n1; k++)

	ldr         w8,[sp,#0x20]
	str         w8,[sp]
	b           |$LN9@stbir__res|
|$LN7@stbir__res|
	ldr         w8,[sp]
	add         w8,w8,#1
	str         w8,[sp]
|$LN9@stbir__res|
	ldr         w9,[sp,#0x24]
	ldr         w8,[sp]
	cmp         w8,w9
	bgt         |$LN8@stbir__res|

; 1468 :             {
; 1469 :                 int in_pixel_index = k * 1;

	ldr         w8,[sp]
	str         w8,[sp,#0x70]

; 1470 :                 float coefficient = horizontal_coefficients[coefficient_group + coefficient_counter++];

	ldr         w9,[sp,#0x28]
	ldr         w8,[sp,#8]
	add         w8,w9,w8
	sxtw        x9,w8
	mov         x8,#4
	mul         x9,x9,x8
	ldr         x8,[sp,#0x60]
	add         x8,x8,x9
	ldr         s16,[x8]
	str         s16,[sp,#0x74]
	ldr         w8,[sp,#8]
	add         w8,w8,#1
	str         w8,[sp,#8]

; 1471 :                 STBIR__DEBUG_ASSERT(coefficient != 0);
; 1472 :                 output_buffer[out_pixel_index + 0] += decode_buffer[in_pixel_index + 0] * coefficient;

	ldr         w8,[sp,#4]
	mov         w8,w8
	sxtw        x9,w8
	mov         x8,#4
	mul         x9,x9,x8
	ldr         x8,[sp,#0x10]
	add         x10,x8,x9
	ldr         w8,[sp,#0x70]
	mov         w8,w8
	sxtw        x9,w8
	mov         x8,#4
	mul         x9,x9,x8
	ldr         x8,[sp,#0x30]
	add         x8,x8,x9
	ldr         s17,[x8]
	ldr         s16,[sp,#0x74]
	fmul        s17,s17,s16
	ldr         s16,[x10]
	fadd        s16,s16,s17
	ldr         w8,[sp,#4]
	mov         w8,w8
	sxtw        x9,w8
	mov         x8,#4
	mul         x9,x9,x8
	ldr         x8,[sp,#0x10]
	add         x8,x8,x9
	str         s16,[x8]

; 1473 :             }

	b           |$LN7@stbir__res|
|$LN8@stbir__res|

; 1474 :             break;

	b           |$LN5@stbir__res|
|$LN26@stbir__res|

; 1475 :         case 2:
; 1476 :             for (k = n0; k <= n1; k++)

	ldr         w8,[sp,#0x20]
	str         w8,[sp]
	b           |$LN12@stbir__res|
|$LN10@stbir__res|
	ldr         w8,[sp]
	add         w8,w8,#1
	str         w8,[sp]
|$LN12@stbir__res|
	ldr         w9,[sp,#0x24]
	ldr         w8,[sp]
	cmp         w8,w9
	bgt         |$LN11@stbir__res|

; 1477 :             {
; 1478 :                 int in_pixel_index = k * 2;

	ldr         w9,[sp]
	mov         w8,#2
	mul         w8,w9,w8
	str         w8,[sp,#0x58]

; 1479 :                 float coefficient = horizontal_coefficients[coefficient_group + coefficient_counter++];

	ldr         w9,[sp,#0x28]
	ldr         w8,[sp,#8]
	add         w8,w9,w8
	sxtw        x9,w8
	mov         x8,#4
	mul         x9,x9,x8
	ldr         x8,[sp,#0x60]
	add         x8,x8,x9
	ldr         s16,[x8]
	str         s16,[sp,#0x5C]
	ldr         w8,[sp,#8]
	add         w8,w8,#1
	str         w8,[sp,#8]

; 1480 :                 STBIR__DEBUG_ASSERT(coefficient != 0);
; 1481 :                 output_buffer[out_pixel_index + 0] += decode_buffer[in_pixel_index + 0] * coefficient;

	ldr         w8,[sp,#4]
	mov         w8,w8
	sxtw        x9,w8
	mov         x8,#4
	mul         x9,x9,x8
	ldr         x8,[sp,#0x10]
	add         x10,x8,x9
	ldr         w8,[sp,#0x58]
	mov         w8,w8
	sxtw        x9,w8
	mov         x8,#4
	mul         x9,x9,x8
	ldr         x8,[sp,#0x30]
	add         x8,x8,x9
	ldr         s17,[x8]
	ldr         s16,[sp,#0x5C]
	fmul        s17,s17,s16
	ldr         s16,[x10]
	fadd        s16,s16,s17
	ldr         w8,[sp,#4]
	mov         w8,w8
	sxtw        x9,w8
	mov         x8,#4
	mul         x9,x9,x8
	ldr         x8,[sp,#0x10]
	add         x8,x8,x9
	str         s16,[x8]

; 1482 :                 output_buffer[out_pixel_index + 1] += decode_buffer[in_pixel_index + 1] * coefficient;

	ldr         w8,[sp,#4]
	add         w8,w8,#1
	sxtw        x9,w8
	mov         x8,#4
	mul         x9,x9,x8
	ldr         x8,[sp,#0x10]
	add         x10,x8,x9
	ldr         w8,[sp,#0x58]
	add         w8,w8,#1
	sxtw        x9,w8
	mov         x8,#4
	mul         x9,x9,x8
	ldr         x8,[sp,#0x30]
	add         x8,x8,x9
	ldr         s17,[x8]
	ldr         s16,[sp,#0x5C]
	fmul        s17,s17,s16
	ldr         s16,[x10]
	fadd        s16,s16,s17
	ldr         w8,[sp,#4]
	add         w8,w8,#1
	sxtw        x9,w8
	mov         x8,#4
	mul         x9,x9,x8
	ldr         x8,[sp,#0x10]
	add         x8,x8,x9
	str         s16,[x8]

; 1483 :             }

	b           |$LN10@stbir__res|
|$LN11@stbir__res|

; 1484 :             break;

	b           |$LN5@stbir__res|
|$LN27@stbir__res|
|$LN32@stbir__res|

; 1485 :         case 3:
; 1486 :             for (k = n0; k <= n1; k++)

	ldr         w8,[sp,#0x20]
	str         w8,[sp]
	b           |$LN15@stbir__res|
|$LN13@stbir__res|
	ldr         w8,[sp]
	add         w8,w8,#1
	str         w8,[sp]
|$LN15@stbir__res|
	ldr         w9,[sp,#0x24]
	ldr         w8,[sp]
	cmp         w8,w9
	bgt         |$LN14@stbir__res|

; 1487 :             {
; 1488 :                 int in_pixel_index = k * 3;

	ldr         w9,[sp]
	mov         w8,#3
	mul         w8,w9,w8
	str         w8,[sp,#0x48]

; 1489 :                 float coefficient = horizontal_coefficients[coefficient_group + coefficient_counter++];

	ldr         w9,[sp,#0x28]
	ldr         w8,[sp,#8]
	add         w8,w9,w8
	sxtw        x9,w8
	mov         x8,#4
	mul         x9,x9,x8
	ldr         x8,[sp,#0x60]
	add         x8,x8,x9
	ldr         s16,[x8]
	str         s16,[sp,#0x4C]
	ldr         w8,[sp,#8]
	add         w8,w8,#1
	str         w8,[sp,#8]

; 1490 :                 STBIR__DEBUG_ASSERT(coefficient != 0);
; 1491 :                 output_buffer[out_pixel_index + 0] += decode_buffer[in_pixel_index + 0] * coefficient;

	ldr         w8,[sp,#4]
	mov         w8,w8
	sxtw        x9,w8
	mov         x8,#4
	mul         x9,x9,x8
	ldr         x8,[sp,#0x10]
	add         x10,x8,x9
	ldr         w8,[sp,#0x48]
	mov         w8,w8
	sxtw        x9,w8
	mov         x8,#4
	mul         x9,x9,x8
	ldr         x8,[sp,#0x30]
	add         x8,x8,x9
	ldr         s17,[x8]
	ldr         s16,[sp,#0x4C]
	fmul        s17,s17,s16
	ldr         s16,[x10]
	fadd        s16,s16,s17
	ldr         w8,[sp,#4]
	mov         w8,w8
	sxtw        x9,w8
	mov         x8,#4
	mul         x9,x9,x8
	ldr         x8,[sp,#0x10]
	add         x8,x8,x9
	str         s16,[x8]

; 1492 :                 output_buffer[out_pixel_index + 1] += decode_buffer[in_pixel_index + 1] * coefficient;

	ldr         w8,[sp,#4]
	add         w8,w8,#1
	sxtw        x9,w8
	mov         x8,#4
	mul         x9,x9,x8
	ldr         x8,[sp,#0x10]
	add         x10,x8,x9
	ldr         w8,[sp,#0x48]
	add         w8,w8,#1
	sxtw        x9,w8
	mov         x8,#4
	mul         x9,x9,x8
	ldr         x8,[sp,#0x30]
	add         x8,x8,x9
	ldr         s17,[x8]
	ldr         s16,[sp,#0x4C]
	fmul        s17,s17,s16
	ldr         s16,[x10]
	fadd        s16,s16,s17
	ldr         w8,[sp,#4]
	add         w8,w8,#1
	sxtw        x9,w8
	mov         x8,#4
	mul         x9,x9,x8
	ldr         x8,[sp,#0x10]
	add         x8,x8,x9
	str         s16,[x8]

; 1493 :                 output_buffer[out_pixel_index + 2] += decode_buffer[in_pixel_index + 2] * coefficient;

	ldr         w8,[sp,#4]
	add         w8,w8,#2
	sxtw        x9,w8
	mov         x8,#4
	mul         x9,x9,x8
	ldr         x8,[sp,#0x10]
	add         x10,x8,x9
	ldr         w8,[sp,#0x48]
	add         w8,w8,#2
	sxtw        x9,w8
	mov         x8,#4
	mul         x9,x9,x8
	ldr         x8,[sp,#0x30]
	add         x8,x8,x9
	ldr         s17,[x8]
	ldr         s16,[sp,#0x4C]
	fmul        s17,s17,s16
	ldr         s16,[x10]
	fadd        s16,s16,s17
	ldr         w8,[sp,#4]
	add         w8,w8,#2
	sxtw        x9,w8
	mov         x8,#4
	mul         x9,x9,x8
	ldr         x8,[sp,#0x10]
	add         x8,x8,x9
	str         s16,[x8]

; 1494 :             }

	b           |$LN13@stbir__res|
|$LN14@stbir__res|

; 1495 :             break;

	b           |$LN5@stbir__res|
|$LN28@stbir__res|

; 1496 :         case 4:
; 1497 :             for (k = n0; k <= n1; k++)

	ldr         w8,[sp,#0x20]
	str         w8,[sp]
	b           |$LN18@stbir__res|
|$LN16@stbir__res|
	ldr         w8,[sp]
	add         w8,w8,#1
	str         w8,[sp]
|$LN18@stbir__res|
	ldr         w9,[sp,#0x24]
	ldr         w8,[sp]
	cmp         w8,w9
	bgt         |$LN17@stbir__res|

; 1498 :             {
; 1499 :                 int in_pixel_index = k * 4;

	ldr         w9,[sp]
	mov         w8,#4
	mul         w8,w9,w8
	str         w8,[sp,#0x3C]

; 1500 :                 float coefficient = horizontal_coefficients[coefficient_group + coefficient_counter++];

	ldr         w9,[sp,#0x28]
	ldr         w8,[sp,#8]
	add         w8,w9,w8
	sxtw        x9,w8
	mov         x8,#4
	mul         x9,x9,x8
	ldr         x8,[sp,#0x60]
	add         x8,x8,x9
	ldr         s16,[x8]
	str         s16,[sp,#0x40]
	ldr         w8,[sp,#8]
	add         w8,w8,#1
	str         w8,[sp,#8]

; 1501 :                 STBIR__DEBUG_ASSERT(coefficient != 0);
; 1502 :                 output_buffer[out_pixel_index + 0] += decode_buffer[in_pixel_index + 0] * coefficient;

	ldr         w8,[sp,#4]
	mov         w8,w8
	sxtw        x9,w8
	mov         x8,#4
	mul         x9,x9,x8
	ldr         x8,[sp,#0x10]
	add         x10,x8,x9
	ldr         w8,[sp,#0x3C]
	mov         w8,w8
	sxtw        x9,w8
	mov         x8,#4
	mul         x9,x9,x8
	ldr         x8,[sp,#0x30]
	add         x8,x8,x9
	ldr         s17,[x8]
	ldr         s16,[sp,#0x40]
	fmul        s17,s17,s16
	ldr         s16,[x10]
	fadd        s16,s16,s17
	ldr         w8,[sp,#4]
	mov         w8,w8
	sxtw        x9,w8
	mov         x8,#4
	mul         x9,x9,x8
	ldr         x8,[sp,#0x10]
	add         x8,x8,x9
	str         s16,[x8]

; 1503 :                 output_buffer[out_pixel_index + 1] += decode_buffer[in_pixel_index + 1] * coefficient;

	ldr         w8,[sp,#4]
	add         w8,w8,#1
	sxtw        x9,w8
	mov         x8,#4
	mul         x9,x9,x8
	ldr         x8,[sp,#0x10]
	add         x10,x8,x9
	ldr         w8,[sp,#0x3C]
	add         w8,w8,#1
	sxtw        x9,w8
	mov         x8,#4
	mul         x9,x9,x8
	ldr         x8,[sp,#0x30]
	add         x8,x8,x9
	ldr         s17,[x8]
	ldr         s16,[sp,#0x40]
	fmul        s17,s17,s16
	ldr         s16,[x10]
	fadd        s16,s16,s17
	ldr         w8,[sp,#4]
	add         w8,w8,#1
	sxtw        x9,w8
	mov         x8,#4
	mul         x9,x9,x8
	ldr         x8,[sp,#0x10]
	add         x8,x8,x9
	str         s16,[x8]

; 1504 :                 output_buffer[out_pixel_index + 2] += decode_buffer[in_pixel_index + 2] * coefficient;

	ldr         w8,[sp,#4]
	add         w8,w8,#2
	sxtw        x9,w8
	mov         x8,#4
	mul         x9,x9,x8
	ldr         x8,[sp,#0x10]
	add         x10,x8,x9
	ldr         w8,[sp,#0x3C]
	add         w8,w8,#2
	sxtw        x9,w8
	mov         x8,#4
	mul         x9,x9,x8
	ldr         x8,[sp,#0x30]
	add         x8,x8,x9
	ldr         s17,[x8]
	ldr         s16,[sp,#0x40]
	fmul        s17,s17,s16
	ldr         s16,[x10]
	fadd        s16,s16,s17
	ldr         w8,[sp,#4]
	add         w8,w8,#2
	sxtw        x9,w8
	mov         x8,#4
	mul         x9,x9,x8
	ldr         x8,[sp,#0x10]
	add         x8,x8,x9
	str         s16,[x8]

; 1505 :                 output_buffer[out_pixel_index + 3] += decode_buffer[in_pixel_index + 3] * coefficient;

	ldr         w8,[sp,#4]
	add         w8,w8,#3
	sxtw        x9,w8
	mov         x8,#4
	mul         x9,x9,x8
	ldr         x8,[sp,#0x10]
	add         x10,x8,x9
	ldr         w8,[sp,#0x3C]
	add         w8,w8,#3
	sxtw        x9,w8
	mov         x8,#4
	mul         x9,x9,x8
	ldr         x8,[sp,#0x30]
	add         x8,x8,x9
	ldr         s17,[x8]
	ldr         s16,[sp,#0x40]
	fmul        s17,s17,s16
	ldr         s16,[x10]
	fadd        s16,s16,s17
	ldr         w8,[sp,#4]
	add         w8,w8,#3
	sxtw        x9,w8
	mov         x8,#4
	mul         x9,x9,x8
	ldr         x8,[sp,#0x10]
	add         x8,x8,x9
	str         s16,[x8]

; 1506 :             }

	b           |$LN16@stbir__res|
|$LN17@stbir__res|

; 1507 :             break;

	b           |$LN5@stbir__res|
|$LN29@stbir__res|

; 1508 :         default:
; 1509 :             for (k = n0; k <= n1; k++)

	ldr         w8,[sp,#0x20]
	str         w8,[sp]
	b           |$LN21@stbir__res|
|$LN19@stbir__res|
	ldr         w8,[sp]
	add         w8,w8,#1
	str         w8,[sp]
|$LN21@stbir__res|
	ldr         w9,[sp,#0x24]
	ldr         w8,[sp]
	cmp         w8,w9
	bgt         |$LN20@stbir__res|

; 1510 :             {
; 1511 :                 int in_pixel_index = k * channels;

	ldr         w9,[sp]
	ldr         w8,[sp,#0x44]
	mul         w8,w9,w8
	str         w8,[sp,#0x78]

; 1512 :                 float coefficient = horizontal_coefficients[coefficient_group + coefficient_counter++];

	ldr         w9,[sp,#0x28]
	ldr         w8,[sp,#8]
	add         w8,w9,w8
	sxtw        x9,w8
	mov         x8,#4
	mul         x9,x9,x8
	ldr         x8,[sp,#0x60]
	add         x8,x8,x9
	ldr         s16,[x8]
	str         s16,[sp,#0x7C]
	ldr         w8,[sp,#8]
	add         w8,w8,#1
	str         w8,[sp,#8]

; 1513 :                 int c;
; 1514 :                 STBIR__DEBUG_ASSERT(coefficient != 0);
; 1515 :                 for (c = 0; c < channels; c++)

	mov         w8,#0
	str         w8,[sp,#0x1C]
	b           |$LN24@stbir__res|
|$LN22@stbir__res|
	ldr         w8,[sp,#0x1C]
	add         w8,w8,#1
	str         w8,[sp,#0x1C]
|$LN24@stbir__res|
	ldr         w9,[sp,#0x44]
	ldr         w8,[sp,#0x1C]
	cmp         w8,w9
	bge         |$LN23@stbir__res|

; 1516 :                     output_buffer[out_pixel_index + c] += decode_buffer[in_pixel_index + c] * coefficient;

	ldr         w9,[sp,#4]
	ldr         w8,[sp,#0x1C]
	add         w8,w9,w8
	sxtw        x9,w8
	mov         x8,#4
	mul         x9,x9,x8
	ldr         x8,[sp,#0x10]
	add         x10,x8,x9
	ldr         w9,[sp,#0x78]
	ldr         w8,[sp,#0x1C]
	add         w8,w9,w8
	sxtw        x9,w8
	mov         x8,#4
	mul         x9,x9,x8
	ldr         x8,[sp,#0x30]
	add         x8,x8,x9
	ldr         s17,[x8]
	ldr         s16,[sp,#0x7C]
	fmul        s17,s17,s16
	ldr         s16,[x10]
	fadd        s16,s16,s17
	ldr         w9,[sp,#4]
	ldr         w8,[sp,#0x1C]
	add         w8,w9,w8
	sxtw        x9,w8
	mov         x8,#4
	mul         x9,x9,x8
	ldr         x8,[sp,#0x10]
	add         x8,x8,x9
	str         s16,[x8]
	b           |$LN22@stbir__res|
|$LN23@stbir__res|

; 1517 :             }

	b           |$LN19@stbir__res|
|$LN20@stbir__res|
|$LN5@stbir__res|

; 1518 :             break;
; 1519 :         }
; 1520 :     }

	b           |$LN2@stbir__res|
|$LN3@stbir__res|
	add         sp,sp,#0x90
	ldr         lr,[sp],#0x10
	ret
|__swt|
|$LN33@stbir__res|

; 1458 : 
; 1459 :         STBIR__DEBUG_ASSERT(n1 >= n0);
; 1460 :         STBIR__DEBUG_ASSERT(n0 >= -stbir_info->horizontal_filter_pixel_margin);
; 1461 :         STBIR__DEBUG_ASSERT(n1 >= -stbir_info->horizontal_filter_pixel_margin);
; 1462 :         STBIR__DEBUG_ASSERT(n0 < stbir_info->input_w + stbir_info->horizontal_filter_pixel_margin);
; 1463 :         STBIR__DEBUG_ASSERT(n1 < stbir_info->input_w + stbir_info->horizontal_filter_pixel_margin);
; 1464 : 
; 1465 :         switch (channels) {

	DCD         0xffffff77
|$LN34@stbir__res|
	DCD         0xffffffad
|$LN35@stbir__res|
	DCD         0x0
|$LN36@stbir__res|
	DCD         0x6e

	ENDP  ; |?stbir__resample_horizontal_upsample@@YAXPEAUstbir__info@@HPEAM@Z|, stbir__resample_horizontal_upsample

; Function compile flags: /Odtpy
; File C:\Users\paras\source\repos\grep-name\XenevaOS\Libs\Chitralekha\stb_image_resize.h

	AREA	|.text$mn|, CODE, ARM64

|?stbir__add_empty_ring_buffer_entry@@YAPEAMPEAUstbir__info@@H@Z| PROC ; stbir__add_empty_ring_buffer_entry

; 1415 : {

	str         lr,[sp,#-0x10]!
	sub         sp,sp,#0x20
	str         x0,[sp,#8]
	str         w1,[sp,#4]

; 1416 :     int ring_buffer_index;
; 1417 :     float* ring_buffer;
; 1418 : 
; 1419 :     if (stbir_info->ring_buffer_begin_index < 0)

	ldr         x8,[sp,#8]
	add         x8,x8,#0xD4
	ldr         w8,[x8]
	cmp         w8,#0
	bge         |$LN2@stbir__add|

; 1420 :     {
; 1421 :         ring_buffer_index = stbir_info->ring_buffer_begin_index = 0;

	ldr         x8,[sp,#8]
	add         x9,x8,#0xD4
	mov         w8,#0
	str         w8,[x9]
	mov         w8,#0
	str         w8,[sp]

; 1422 :         stbir_info->ring_buffer_first_scanline = n;

	ldr         x8,[sp,#8]
	add         x9,x8,#0xCC
	ldr         w8,[sp,#4]
	str         w8,[x9]

; 1423 :     }

	b           |$LN3@stbir__add|
|$LN2@stbir__add|

; 1424 :     else
; 1425 :     {
; 1426 :         ring_buffer_index = (stbir_info->ring_buffer_begin_index + (stbir_info->ring_buffer_last_scanline - stbir_info->ring_buffer_first_scanline) + 1) % stbir_info->vertical_filter_pixel_width;

	ldr         x8,[sp,#8]
	add         x10,x8,#0xD4
	ldr         x8,[sp,#8]
	add         x9,x8,#0xD0
	ldr         x8,[sp,#8]
	add         x8,x8,#0xCC
	ldr         w9,[x9]
	ldr         w8,[x8]
	sub         w9,w9,w8
	ldr         w8,[x10]
	add         w8,w8,w9
	add         w10,w8,#1
	ldr         x8,[sp,#8]
	add         x8,x8,#0xB4
	ldr         w9,[x8]
	cbnz        w9,|$LN5@stbir__add|
	brk         #0xF004
|$LN5@stbir__add|
	sdiv        w8,w10,w9
	mul         w8,w8,w9
	sub         w8,w10,w8
	str         w8,[sp]
|$LN3@stbir__add|

; 1427 :         STBIR__DEBUG_ASSERT(ring_buffer_index != stbir_info->ring_buffer_begin_index);
; 1428 :     }
; 1429 : 
; 1430 :     ring_buffer = stbir__get_ring_buffer_entry(stbir_info->ring_buffer, ring_buffer_index, stbir_info->ring_buffer_length_bytes / sizeof(float));

	ldr         x8,[sp,#8]
	add         x8,x8,#0xC8
	ldr         w8,[x8]
	sxtw        x9,w8
	mov         x8,#4
	udiv        x8,x9,x8
	mov         w2,w8
	ldr         x8,[sp,#8]
	add         x8,x8,#0xD8
	mov         w2,w2
	ldr         w1,[sp]
	ldr         x0,[x8]
	bl          |?stbir__get_ring_buffer_entry@@YAPEAMPEAMHH@Z|
	str         x0,[sp,#0x10]

; 1431 :     memset(ring_buffer, 0, stbir_info->ring_buffer_length_bytes);

	ldr         x8,[sp,#8]
	add         x8,x8,#0xC8
	ldr         w8,[x8]
	sxtw        x2,w8
	mov         w1,#0
	ldr         x0,[sp,#0x10]
	bl          memset

; 1432 : 
; 1433 :     stbir_info->ring_buffer_last_scanline = n;

	ldr         x8,[sp,#8]
	add         x9,x8,#0xD0
	ldr         w8,[sp,#4]
	str         w8,[x9]

; 1434 : 
; 1435 :     return ring_buffer;

	ldr         x0,[sp,#0x10]
	add         sp,sp,#0x20
	ldr         lr,[sp],#0x10
	ret

	ENDP  ; |?stbir__add_empty_ring_buffer_entry@@YAPEAMPEAUstbir__info@@H@Z|, stbir__add_empty_ring_buffer_entry

; Function compile flags: /Odtpy
; File C:\Users\paras\source\repos\grep-name\XenevaOS\Libs\Chitralekha\stb_image_resize.h

	AREA	|.text$mn|, CODE, ARM64

|?stbir__get_ring_buffer_entry@@YAPEAMPEAMHH@Z| PROC	; stbir__get_ring_buffer_entry

; 1410 : {

	sub         sp,sp,#0x10
	str         x0,[sp,#8]
	str         w1,[sp]
	str         w2,[sp,#4]

; 1411 :     return &ring_buffer[index * ring_buffer_length];

	ldr         w9,[sp]
	ldr         w8,[sp,#4]
	mul         w8,w9,w8
	sxtw        x9,w8
	mov         x8,#4
	mul         x9,x9,x8
	ldr         x8,[sp,#8]
	add         x0,x8,x9
	add         sp,sp,#0x10
	ret

	ENDP  ; |?stbir__get_ring_buffer_entry@@YAPEAMPEAMHH@Z|, stbir__get_ring_buffer_entry

; Function compile flags: /Odtpy
; File C:\Users\paras\source\repos\grep-name\XenevaOS\Libs\Chitralekha\stb_image_resize.h

	AREA	|.text$mn|, CODE, ARM64

|?stbir__decode_scanline@@YAXPEAUstbir__info@@H@Z| PROC	; stbir__decode_scanline

; 1242 : {

	str         lr,[sp,#-0x10]!
	sub         sp,sp,#0xA0
	str         x0,[sp,#0x18]
	str         w1,[sp,#0x40]

; 1243 :     int c;
; 1244 :     int channels = stbir_info->channels;

	ldr         x8,[sp,#0x18]
	add         x8,x8,#0x4C
	ldr         w8,[x8]
	str         w8,[sp,#8]

; 1245 :     int alpha_channel = stbir_info->alpha_channel;

	ldr         x8,[sp,#0x18]
	add         x8,x8,#0x50
	ldr         w8,[x8]
	str         w8,[sp,#0xC]

; 1246 :     int type = stbir_info->type;

	ldr         x8,[sp,#0x18]
	add         x8,x8,#0x58
	ldr         w8,[x8]
	str         w8,[sp,#0x74]

; 1247 :     int colorspace = stbir_info->colorspace;

	ldr         x8,[sp,#0x18]
	add         x8,x8,#0x6C
	ldr         w8,[x8]
	str         w8,[sp,#0x78]

; 1248 :     int input_w = stbir_info->input_w;

	ldr         x8,[sp,#0x18]
	add         x8,x8,#8
	ldr         w8,[x8]
	str         w8,[sp,#0x20]

; 1249 :     int input_stride_bytes = stbir_info->input_stride_bytes;

	ldr         x8,[sp,#0x18]
	add         x8,x8,#0x10
	ldr         w8,[x8]
	str         w8,[sp,#0x6C]

; 1250 :     float* decode_buffer = stbir__get_decode_buffer(stbir_info);

	ldr         x0,[sp,#0x18]
	bl          |?stbir__get_decode_buffer@@YAPEAMPEAUstbir__info@@@Z|
	str         x0,[sp,#0x28]

; 1251 :     stbir_edge edge_horizontal = stbir_info->edge_horizontal;

	ldr         x8,[sp,#0x18]
	add         x8,x8,#0x64
	ldr         w8,[x8]
	str         w8,[sp,#0x24]

; 1252 :     stbir_edge edge_vertical = stbir_info->edge_vertical;

	ldr         x8,[sp,#0x18]
	add         x8,x8,#0x68
	ldr         w8,[x8]
	str         w8,[sp,#0x44]

; 1253 :     int in_buffer_row_offset = stbir__edge_wrap(edge_vertical, n, stbir_info->input_h) * input_stride_bytes;

	ldr         x8,[sp,#0x18]
	add         x8,x8,#0xC
	ldr         w2,[x8]
	ldr         w1,[sp,#0x40]
	ldr         w0,[sp,#0x44]
	bl          |?stbir__edge_wrap@@YAHW4stbir_edge@@HH@Z|
	mov         w0,w0
	ldr         w8,[sp,#0x6C]
	mul         w8,w0,w8
	str         w8,[sp,#0x70]

; 1254 :     const void* input_data = (char*)stbir_info->input_data + in_buffer_row_offset;

	ldr         x10,[sp,#0x18]
	ldr         w8,[sp,#0x70]
	sxtw        x9,w8
	ldr         x8,[x10]
	add         x8,x8,x9
	str         x8,[sp,#0x30]

; 1255 :     int max_x = input_w + stbir_info->horizontal_filter_pixel_margin;

	ldr         x8,[sp,#0x18]
	add         x8,x8,#0xB8
	ldr         w9,[sp,#0x20]
	ldr         w8,[x8]
	add         w8,w9,w8
	str         w8,[sp,#0x10]

; 1256 :     int decode = STBIR__DECODE(type, colorspace);

	ldr         w9,[sp,#0x74]
	mov         w8,#2
	mul         w9,w9,w8
	ldr         w8,[sp,#0x78]
	add         w8,w9,w8
	str         w8,[sp,#0x7C]

; 1257 : 
; 1258 :     int x = -stbir_info->horizontal_filter_pixel_margin;

	ldr         x8,[sp,#0x18]
	add         x8,x8,#0xB8
	ldr         w8,[x8]
	neg         w8,w8
	str         w8,[sp,#4]

; 1259 : 
; 1260 :     // special handling for STBIR_EDGE_ZERO because it needs to return an item that doesn't appear in the input,
; 1261 :     // and we want to avoid paying overhead on every pixel if not STBIR_EDGE_ZERO
; 1262 :     if (edge_vertical == STBIR_EDGE_ZERO && (n < 0 || n >= stbir_info->input_h))

	ldr         w8,[sp,#0x44]
	cmp         w8,#4
	bne         |$LN76@stbir__dec|
	ldr         w8,[sp,#0x40]
	cmp         w8,#0
	blt         |$LN77@stbir__dec|
	ldr         x8,[sp,#0x18]
	add         x8,x8,#0xC
	ldr         w9,[x8]
	ldr         w8,[sp,#0x40]
	cmp         w8,w9
	blt         |$LN76@stbir__dec|
|$LN77@stbir__dec|

; 1263 :     {
; 1264 :         for (; x < max_x; x++)

	b           |$LN4@stbir__dec|
|$LN2@stbir__dec|
	ldr         w8,[sp,#4]
	add         w8,w8,#1
	str         w8,[sp,#4]
|$LN4@stbir__dec|
	ldr         w9,[sp,#0x10]
	ldr         w8,[sp,#4]
	cmp         w8,w9
	bge         |$LN3@stbir__dec|

; 1265 :             for (c = 0; c < channels; c++)

	mov         w8,#0
	str         w8,[sp]
	b           |$LN7@stbir__dec|
|$LN5@stbir__dec|
	ldr         w8,[sp]
	add         w8,w8,#1
	str         w8,[sp]
|$LN7@stbir__dec|
	ldr         w9,[sp,#8]
	ldr         w8,[sp]
	cmp         w8,w9
	bge         |$LN6@stbir__dec|

; 1266 :                 decode_buffer[x * channels + c] = 0;

	ldr         w9,[sp,#4]
	ldr         w8,[sp,#8]
	mul         w9,w9,w8
	ldr         w8,[sp]
	add         w8,w9,w8
	sxtw        x9,w8
	mov         x8,#4
	mul         x9,x9,x8
	ldr         x8,[sp,#0x28]
	add         x8,x8,x9
	movi        d16,#0
	str         s16,[x8]
	b           |$LN5@stbir__dec|
|$LN6@stbir__dec|
	b           |$LN2@stbir__dec|
|$LN3@stbir__dec|

; 1267 :         return;

	b           |$LN1@stbir__dec|
|$LN76@stbir__dec|

; 1268 :     }
; 1269 : 
; 1270 :     switch (decode)

	ldr         w8,[sp,#0x7C]
	str         w8,[sp,#0x48]
	ldr         w8,[sp,#0x48]
	cmp         w8,#7
	bhi         |$LN90@stbir__dec|
	ldr         w10,[sp,#0x48]
	adr         x9,__swt
	ldrsw       x8,[x9,w10 uxtw #2]
	adr         x9,|$LN98@stbir__dec|
	add         x8,x9,x8,lsl #2
	br          x8
|$LN78@stbir__dec|

; 1271 :     {
; 1272 :     case STBIR__DECODE(STBIR_TYPE_UINT8, STBIR_COLORSPACE_LINEAR):
; 1273 :         for (; x < max_x; x++)

	b           |$LN12@stbir__dec|
|$LN10@stbir__dec|
	ldr         w8,[sp,#4]
	add         w8,w8,#1
	str         w8,[sp,#4]
|$LN12@stbir__dec|
	ldr         w9,[sp,#0x10]
	ldr         w8,[sp,#4]
	cmp         w8,w9
	bge         |$LN11@stbir__dec|

; 1274 :         {
; 1275 :             int decode_pixel_index = x * channels;

	ldr         w9,[sp,#4]
	ldr         w8,[sp,#8]
	mul         w8,w9,w8
	str         w8,[sp,#0x84]

; 1276 :             int input_pixel_index = stbir__edge_wrap(edge_horizontal, x, input_w) * channels;

	ldr         w2,[sp,#0x20]
	ldr         w1,[sp,#4]
	ldr         w0,[sp,#0x24]
	bl          |?stbir__edge_wrap@@YAHW4stbir_edge@@HH@Z|
	mov         w0,w0
	ldr         w8,[sp,#8]
	mul         w8,w0,w8
	str         w8,[sp,#0x80]

; 1277 :             for (c = 0; c < channels; c++)

	mov         w8,#0
	str         w8,[sp]
	b           |$LN15@stbir__dec|
|$LN13@stbir__dec|
	ldr         w8,[sp]
	add         w8,w8,#1
	str         w8,[sp]
|$LN15@stbir__dec|
	ldr         w9,[sp,#8]
	ldr         w8,[sp]
	cmp         w8,w9
	bge         |$LN14@stbir__dec|

; 1278 :                 decode_buffer[decode_pixel_index + c] = ((float)((const unsigned char*)input_data)[input_pixel_index + c]) / 255;

	ldr         w9,[sp,#0x80]
	ldr         w8,[sp]
	add         w8,w9,w8
	sxtw        x9,w8
	mov         x8,#1
	mul         x9,x9,x8
	ldr         x8,[sp,#0x30]
	add         x8,x8,x9
	ldrb        w8,[x8]
	mov         w8,w8
	scvtf       s17,w8
	ldr         s16,|$LN107@stbir__dec|
	fdiv        s16,s17,s16
	ldr         w9,[sp,#0x84]
	ldr         w8,[sp]
	add         w8,w9,w8
	sxtw        x9,w8
	mov         x8,#4
	mul         x9,x9,x8
	ldr         x8,[sp,#0x28]
	add         x8,x8,x9
	str         s16,[x8]
	b           |$LN13@stbir__dec|
|$LN14@stbir__dec|

; 1279 :         }

	b           |$LN10@stbir__dec|
|$LN11@stbir__dec|

; 1280 :         break;

	b           |$LN8@stbir__dec|
|$LN79@stbir__dec|

; 1281 : 
; 1282 :     case STBIR__DECODE(STBIR_TYPE_UINT8, STBIR_COLORSPACE_SRGB):
; 1283 :         for (; x < max_x; x++)

	b           |$LN18@stbir__dec|
|$LN16@stbir__dec|
	ldr         w8,[sp,#4]
	add         w8,w8,#1
	str         w8,[sp,#4]
|$LN18@stbir__dec|
	ldr         w9,[sp,#0x10]
	ldr         w8,[sp,#4]
	cmp         w8,w9
	bge         |$LN17@stbir__dec|

; 1284 :         {
; 1285 :             int decode_pixel_index = x * channels;

	ldr         w9,[sp,#4]
	ldr         w8,[sp,#8]
	mul         w8,w9,w8
	str         w8,[sp,#0x50]

; 1286 :             int input_pixel_index = stbir__edge_wrap(edge_horizontal, x, input_w) * channels;

	ldr         w2,[sp,#0x20]
	ldr         w1,[sp,#4]
	ldr         w0,[sp,#0x24]
	bl          |?stbir__edge_wrap@@YAHW4stbir_edge@@HH@Z|
	mov         w0,w0
	ldr         w8,[sp,#8]
	mul         w8,w0,w8
	str         w8,[sp,#0x4C]

; 1287 :             for (c = 0; c < channels; c++)

	mov         w8,#0
	str         w8,[sp]
	b           |$LN21@stbir__dec|
|$LN19@stbir__dec|
	ldr         w8,[sp]
	add         w8,w8,#1
	str         w8,[sp]
|$LN21@stbir__dec|
	ldr         w9,[sp,#8]
	ldr         w8,[sp]
	cmp         w8,w9
	bge         |$LN20@stbir__dec|

; 1288 :                 decode_buffer[decode_pixel_index + c] = stbir__srgb_uchar_to_linear_float[((const unsigned char*)input_data)[input_pixel_index + c]];

	ldr         w9,[sp,#0x4C]
	ldr         w8,[sp]
	add         w8,w9,w8
	sxtw        x9,w8
	mov         x8,#1
	mul         x9,x9,x8
	ldr         x8,[sp,#0x30]
	add         x8,x8,x9
	ldrb        w8,[x8]
	mov         w9,w8
	mov         x8,#4
	mul         x9,x9,x8
	adrp        x8,|?stbir__srgb_uchar_to_linear_float@@3PAMA|
	add         x8,x8,PageOffset(|?stbir__srgb_uchar_to_linear_float@@3PAMA|)
	add         x10,x8,x9
	ldr         w9,[sp,#0x50]
	ldr         w8,[sp]
	add         w8,w9,w8
	sxtw        x9,w8
	mov         x8,#4
	mul         x9,x9,x8
	ldr         x8,[sp,#0x28]
	add         x8,x8,x9
	ldr         s16,[x10]
	str         s16,[x8]
	b           |$LN19@stbir__dec|
|$LN20@stbir__dec|

; 1289 : 
; 1290 :             if (!(stbir_info->flags & STBIR_FLAG_ALPHA_USES_COLORSPACE))

	ldr         x8,[sp,#0x18]
	add         x8,x8,#0x54
	ldr         w8,[x8]
	tbnz        x8,#1,|$LN80@stbir__dec|

; 1291 :                 decode_buffer[decode_pixel_index + alpha_channel] = ((float)((const unsigned char*)input_data)[input_pixel_index + alpha_channel]) / 255;

	ldr         w9,[sp,#0x4C]
	ldr         w8,[sp,#0xC]
	add         w8,w9,w8
	sxtw        x9,w8
	mov         x8,#1
	mul         x9,x9,x8
	ldr         x8,[sp,#0x30]
	add         x8,x8,x9
	ldrb        w8,[x8]
	mov         w8,w8
	scvtf       s17,w8
	ldr         s16,|$LN107@stbir__dec|
	fdiv        s16,s17,s16
	ldr         w9,[sp,#0x50]
	ldr         w8,[sp,#0xC]
	add         w8,w9,w8
	sxtw        x9,w8
	mov         x8,#4
	mul         x9,x9,x8
	ldr         x8,[sp,#0x28]
	add         x8,x8,x9
	str         s16,[x8]
|$LN80@stbir__dec|

; 1292 :         }

	b           |$LN16@stbir__dec|
|$LN17@stbir__dec|

; 1293 :         break;

	b           |$LN8@stbir__dec|
|$LN81@stbir__dec|

; 1294 : 
; 1295 :     case STBIR__DECODE(STBIR_TYPE_UINT16, STBIR_COLORSPACE_LINEAR):
; 1296 :         for (; x < max_x; x++)

	b           |$LN24@stbir__dec|
|$LN22@stbir__dec|
	ldr         w8,[sp,#4]
	add         w8,w8,#1
	str         w8,[sp,#4]
|$LN24@stbir__dec|
	ldr         w9,[sp,#0x10]
	ldr         w8,[sp,#4]
	cmp         w8,w9
	bge         |$LN23@stbir__dec|

; 1297 :         {
; 1298 :             int decode_pixel_index = x * channels;

	ldr         w9,[sp,#4]
	ldr         w8,[sp,#8]
	mul         w8,w9,w8
	str         w8,[sp,#0x8C]

; 1299 :             int input_pixel_index = stbir__edge_wrap(edge_horizontal, x, input_w) * channels;

	ldr         w2,[sp,#0x20]
	ldr         w1,[sp,#4]
	ldr         w0,[sp,#0x24]
	bl          |?stbir__edge_wrap@@YAHW4stbir_edge@@HH@Z|
	mov         w0,w0
	ldr         w8,[sp,#8]
	mul         w8,w0,w8
	str         w8,[sp,#0x88]

; 1300 :             for (c = 0; c < channels; c++)

	mov         w8,#0
	str         w8,[sp]
	b           |$LN27@stbir__dec|
|$LN25@stbir__dec|
	ldr         w8,[sp]
	add         w8,w8,#1
	str         w8,[sp]
|$LN27@stbir__dec|
	ldr         w9,[sp,#8]
	ldr         w8,[sp]
	cmp         w8,w9
	bge         |$LN26@stbir__dec|

; 1301 :                 decode_buffer[decode_pixel_index + c] = ((float)((const unsigned short*)input_data)[input_pixel_index + c]) / 65535;

	ldr         w9,[sp,#0x88]
	ldr         w8,[sp]
	add         w8,w9,w8
	sxtw        x9,w8
	mov         x8,#2
	mul         x9,x9,x8
	ldr         x8,[sp,#0x30]
	add         x8,x8,x9
	ldrh        w8,[x8]
	mov         w8,w8
	scvtf       s17,w8
	ldr         s16,|$LN108@stbir__dec|
	fdiv        s16,s17,s16
	ldr         w9,[sp,#0x8C]
	ldr         w8,[sp]
	add         w8,w9,w8
	sxtw        x9,w8
	mov         x8,#4
	mul         x9,x9,x8
	ldr         x8,[sp,#0x28]
	add         x8,x8,x9
	str         s16,[x8]
	b           |$LN25@stbir__dec|
|$LN26@stbir__dec|

; 1302 :         }

	b           |$LN22@stbir__dec|
|$LN23@stbir__dec|

; 1303 :         break;

	b           |$LN8@stbir__dec|
|$LN82@stbir__dec|

; 1304 : 
; 1305 :     case STBIR__DECODE(STBIR_TYPE_UINT16, STBIR_COLORSPACE_SRGB):
; 1306 :         for (; x < max_x; x++)

	b           |$LN30@stbir__dec|
|$LN28@stbir__dec|
	ldr         w8,[sp,#4]
	add         w8,w8,#1
	str         w8,[sp,#4]
|$LN30@stbir__dec|
	ldr         w9,[sp,#0x10]
	ldr         w8,[sp,#4]
	cmp         w8,w9
	bge         |$LN29@stbir__dec|

; 1307 :         {
; 1308 :             int decode_pixel_index = x * channels;

	ldr         w9,[sp,#4]
	ldr         w8,[sp,#8]
	mul         w8,w9,w8
	str         w8,[sp,#0x58]

; 1309 :             int input_pixel_index = stbir__edge_wrap(edge_horizontal, x, input_w) * channels;

	ldr         w2,[sp,#0x20]
	ldr         w1,[sp,#4]
	ldr         w0,[sp,#0x24]
	bl          |?stbir__edge_wrap@@YAHW4stbir_edge@@HH@Z|
	mov         w0,w0
	ldr         w8,[sp,#8]
	mul         w8,w0,w8
	str         w8,[sp,#0x54]

; 1310 :             for (c = 0; c < channels; c++)

	mov         w8,#0
	str         w8,[sp]
	b           |$LN33@stbir__dec|
|$LN31@stbir__dec|
	ldr         w8,[sp]
	add         w8,w8,#1
	str         w8,[sp]
|$LN33@stbir__dec|
	ldr         w9,[sp,#8]
	ldr         w8,[sp]
	cmp         w8,w9
	bge         |$LN32@stbir__dec|

; 1311 :                 decode_buffer[decode_pixel_index + c] = stbir__srgb_to_linear(((float)((const unsigned short*)input_data)[input_pixel_index + c]) / 65535);

	ldr         w9,[sp,#0x54]
	ldr         w8,[sp]
	add         w8,w9,w8
	sxtw        x9,w8
	mov         x8,#2
	mul         x9,x9,x8
	ldr         x8,[sp,#0x30]
	add         x8,x8,x9
	ldrh        w8,[x8]
	mov         w8,w8
	scvtf       s17,w8
	ldr         s16,|$LN108@stbir__dec|
	fdiv        s0,s17,s16
	bl          |?stbir__srgb_to_linear@@YAMM@Z|
	ldr         w9,[sp,#0x58]
	ldr         w8,[sp]
	add         w8,w9,w8
	sxtw        x9,w8
	mov         x8,#4
	mul         x9,x9,x8
	ldr         x8,[sp,#0x28]
	add         x8,x8,x9
	str         s0,[x8]
	b           |$LN31@stbir__dec|
|$LN32@stbir__dec|

; 1312 : 
; 1313 :             if (!(stbir_info->flags & STBIR_FLAG_ALPHA_USES_COLORSPACE))

	ldr         x8,[sp,#0x18]
	add         x8,x8,#0x54
	ldr         w8,[x8]
	tbnz        x8,#1,|$LN83@stbir__dec|

; 1314 :                 decode_buffer[decode_pixel_index + alpha_channel] = ((float)((const unsigned short*)input_data)[input_pixel_index + alpha_channel]) / 65535;

	ldr         w9,[sp,#0x54]
	ldr         w8,[sp,#0xC]
	add         w8,w9,w8
	sxtw        x9,w8
	mov         x8,#2
	mul         x9,x9,x8
	ldr         x8,[sp,#0x30]
	add         x8,x8,x9
	ldrh        w8,[x8]
	mov         w8,w8
	scvtf       s17,w8
	ldr         s16,|$LN108@stbir__dec|
	fdiv        s16,s17,s16
	ldr         w9,[sp,#0x58]
	ldr         w8,[sp,#0xC]
	add         w8,w9,w8
	sxtw        x9,w8
	mov         x8,#4
	mul         x9,x9,x8
	ldr         x8,[sp,#0x28]
	add         x8,x8,x9
	str         s16,[x8]
|$LN83@stbir__dec|

; 1315 :         }

	b           |$LN28@stbir__dec|
|$LN29@stbir__dec|

; 1316 :         break;

	b           |$LN8@stbir__dec|
|$LN84@stbir__dec|
|$LN98@stbir__dec|

; 1317 : 
; 1318 :     case STBIR__DECODE(STBIR_TYPE_UINT32, STBIR_COLORSPACE_LINEAR):
; 1319 :         for (; x < max_x; x++)

	b           |$LN36@stbir__dec|
|$LN34@stbir__dec|
	ldr         w8,[sp,#4]
	add         w8,w8,#1
	str         w8,[sp,#4]
|$LN36@stbir__dec|
	ldr         w9,[sp,#0x10]
	ldr         w8,[sp,#4]
	cmp         w8,w9
	bge         |$LN35@stbir__dec|

; 1320 :         {
; 1321 :             int decode_pixel_index = x * channels;

	ldr         w9,[sp,#4]
	ldr         w8,[sp,#8]
	mul         w8,w9,w8
	str         w8,[sp,#0x94]

; 1322 :             int input_pixel_index = stbir__edge_wrap(edge_horizontal, x, input_w) * channels;

	ldr         w2,[sp,#0x20]
	ldr         w1,[sp,#4]
	ldr         w0,[sp,#0x24]
	bl          |?stbir__edge_wrap@@YAHW4stbir_edge@@HH@Z|
	mov         w0,w0
	ldr         w8,[sp,#8]
	mul         w8,w0,w8
	str         w8,[sp,#0x90]

; 1323 :             for (c = 0; c < channels; c++)

	mov         w8,#0
	str         w8,[sp]
	b           |$LN39@stbir__dec|
|$LN37@stbir__dec|
	ldr         w8,[sp]
	add         w8,w8,#1
	str         w8,[sp]
|$LN39@stbir__dec|
	ldr         w9,[sp,#8]
	ldr         w8,[sp]
	cmp         w8,w9
	bge         |$LN38@stbir__dec|

; 1324 :                 decode_buffer[decode_pixel_index + c] = (float)(((double)((const unsigned int*)input_data)[input_pixel_index + c]) / 4294967295);

	ldr         w9,[sp,#0x90]
	ldr         w8,[sp]
	add         w8,w9,w8
	sxtw        x9,w8
	mov         x8,#4
	mul         x9,x9,x8
	ldr         x8,[sp,#0x30]
	add         x8,x8,x9
	ldr         w8,[x8]
	ucvtf       d17,w8
	ldr         d16,|$LN109@stbir__dec|
	fdiv        d16,d17,d16
	fcvt        s16,d16
	ldr         w9,[sp,#0x94]
	ldr         w8,[sp]
	add         w8,w9,w8
	sxtw        x9,w8
	mov         x8,#4
	mul         x9,x9,x8
	ldr         x8,[sp,#0x28]
	add         x8,x8,x9
	str         s16,[x8]
	b           |$LN37@stbir__dec|
|$LN38@stbir__dec|

; 1325 :         }

	b           |$LN34@stbir__dec|
|$LN35@stbir__dec|

; 1326 :         break;

	b           |$LN8@stbir__dec|
|$LN85@stbir__dec|

; 1327 : 
; 1328 :     case STBIR__DECODE(STBIR_TYPE_UINT32, STBIR_COLORSPACE_SRGB):
; 1329 :         for (; x < max_x; x++)

	b           |$LN42@stbir__dec|
|$LN40@stbir__dec|
	ldr         w8,[sp,#4]
	add         w8,w8,#1
	str         w8,[sp,#4]
|$LN42@stbir__dec|
	ldr         w9,[sp,#0x10]
	ldr         w8,[sp,#4]
	cmp         w8,w9
	bge         |$LN41@stbir__dec|

; 1330 :         {
; 1331 :             int decode_pixel_index = x * channels;

	ldr         w9,[sp,#4]
	ldr         w8,[sp,#8]
	mul         w8,w9,w8
	str         w8,[sp,#0x60]

; 1332 :             int input_pixel_index = stbir__edge_wrap(edge_horizontal, x, input_w) * channels;

	ldr         w2,[sp,#0x20]
	ldr         w1,[sp,#4]
	ldr         w0,[sp,#0x24]
	bl          |?stbir__edge_wrap@@YAHW4stbir_edge@@HH@Z|
	mov         w0,w0
	ldr         w8,[sp,#8]
	mul         w8,w0,w8
	str         w8,[sp,#0x64]

; 1333 :             for (c = 0; c < channels; c++)

	mov         w8,#0
	str         w8,[sp]
	b           |$LN45@stbir__dec|
|$LN43@stbir__dec|
	ldr         w8,[sp]
	add         w8,w8,#1
	str         w8,[sp]
|$LN45@stbir__dec|
	ldr         w9,[sp,#8]
	ldr         w8,[sp]
	cmp         w8,w9
	bge         |$LN44@stbir__dec|

; 1334 :                 decode_buffer[decode_pixel_index + c] = stbir__srgb_to_linear((float)(((double)((const unsigned int*)input_data)[input_pixel_index + c]) / 4294967295));

	ldr         w9,[sp,#0x64]
	ldr         w8,[sp]
	add         w8,w9,w8
	sxtw        x9,w8
	mov         x8,#4
	mul         x9,x9,x8
	ldr         x8,[sp,#0x30]
	add         x8,x8,x9
	ldr         w8,[x8]
	ucvtf       d17,w8
	ldr         d16,|$LN109@stbir__dec|
	fdiv        d16,d17,d16
	fcvt        s0,d16
	bl          |?stbir__srgb_to_linear@@YAMM@Z|
	ldr         w9,[sp,#0x60]
	ldr         w8,[sp]
	add         w8,w9,w8
	sxtw        x9,w8
	mov         x8,#4
	mul         x9,x9,x8
	ldr         x8,[sp,#0x28]
	add         x8,x8,x9
	str         s0,[x8]
	b           |$LN43@stbir__dec|
|$LN44@stbir__dec|

; 1335 : 
; 1336 :             if (!(stbir_info->flags & STBIR_FLAG_ALPHA_USES_COLORSPACE))

	ldr         x8,[sp,#0x18]
	add         x8,x8,#0x54
	ldr         w8,[x8]
	tbnz        x8,#1,|$LN86@stbir__dec|

; 1337 :                 decode_buffer[decode_pixel_index + alpha_channel] = (float)(((double)((const unsigned int*)input_data)[input_pixel_index + alpha_channel]) / 4294967295);

	ldr         w9,[sp,#0x64]
	ldr         w8,[sp,#0xC]
	add         w8,w9,w8
	sxtw        x9,w8
	mov         x8,#4
	mul         x9,x9,x8
	ldr         x8,[sp,#0x30]
	add         x8,x8,x9
	ldr         w8,[x8]
	ucvtf       d17,w8
	ldr         d16,|$LN109@stbir__dec|
	fdiv        d16,d17,d16
	fcvt        s16,d16
	ldr         w9,[sp,#0x60]
	ldr         w8,[sp,#0xC]
	add         w8,w9,w8
	sxtw        x9,w8
	mov         x8,#4
	mul         x9,x9,x8
	ldr         x8,[sp,#0x28]
	add         x8,x8,x9
	str         s16,[x8]
|$LN86@stbir__dec|

; 1338 :         }

	b           |$LN40@stbir__dec|
|$LN41@stbir__dec|

; 1339 :         break;

	b           |$LN8@stbir__dec|
|$LN87@stbir__dec|

; 1340 : 
; 1341 :     case STBIR__DECODE(STBIR_TYPE_FLOAT, STBIR_COLORSPACE_LINEAR):
; 1342 :         for (; x < max_x; x++)

	b           |$LN48@stbir__dec|
|$LN46@stbir__dec|
	ldr         w8,[sp,#4]
	add         w8,w8,#1
	str         w8,[sp,#4]
|$LN48@stbir__dec|
	ldr         w9,[sp,#0x10]
	ldr         w8,[sp,#4]
	cmp         w8,w9
	bge         |$LN47@stbir__dec|

; 1343 :         {
; 1344 :             int decode_pixel_index = x * channels;

	ldr         w9,[sp,#4]
	ldr         w8,[sp,#8]
	mul         w8,w9,w8
	str         w8,[sp,#0x9C]

; 1345 :             int input_pixel_index = stbir__edge_wrap(edge_horizontal, x, input_w) * channels;

	ldr         w2,[sp,#0x20]
	ldr         w1,[sp,#4]
	ldr         w0,[sp,#0x24]
	bl          |?stbir__edge_wrap@@YAHW4stbir_edge@@HH@Z|
	mov         w0,w0
	ldr         w8,[sp,#8]
	mul         w8,w0,w8
	str         w8,[sp,#0x98]

; 1346 :             for (c = 0; c < channels; c++)

	mov         w8,#0
	str         w8,[sp]
	b           |$LN51@stbir__dec|
|$LN49@stbir__dec|
	ldr         w8,[sp]
	add         w8,w8,#1
	str         w8,[sp]
|$LN51@stbir__dec|
	ldr         w9,[sp,#8]
	ldr         w8,[sp]
	cmp         w8,w9
	bge         |$LN50@stbir__dec|

; 1347 :                 decode_buffer[decode_pixel_index + c] = ((const float*)input_data)[input_pixel_index + c];

	ldr         w9,[sp,#0x98]
	ldr         w8,[sp]
	add         w8,w9,w8
	sxtw        x9,w8
	mov         x8,#4
	mul         x9,x9,x8
	ldr         x8,[sp,#0x30]
	add         x10,x8,x9
	ldr         w9,[sp,#0x9C]
	ldr         w8,[sp]
	add         w8,w9,w8
	sxtw        x9,w8
	mov         x8,#4
	mul         x9,x9,x8
	ldr         x8,[sp,#0x28]
	add         x8,x8,x9
	ldr         s16,[x10]
	str         s16,[x8]
	b           |$LN49@stbir__dec|
|$LN50@stbir__dec|

; 1348 :         }

	b           |$LN46@stbir__dec|
|$LN47@stbir__dec|

; 1349 :         break;

	b           |$LN8@stbir__dec|
|$LN88@stbir__dec|

; 1350 : 
; 1351 :     case STBIR__DECODE(STBIR_TYPE_FLOAT, STBIR_COLORSPACE_SRGB):
; 1352 :         for (; x < max_x; x++)

	b           |$LN54@stbir__dec|
|$LN52@stbir__dec|
	ldr         w8,[sp,#4]
	add         w8,w8,#1
	str         w8,[sp,#4]
|$LN54@stbir__dec|
	ldr         w9,[sp,#0x10]
	ldr         w8,[sp,#4]
	cmp         w8,w9
	bge         |$LN53@stbir__dec|

; 1353 :         {
; 1354 :             int decode_pixel_index = x * channels;

	ldr         w9,[sp,#4]
	ldr         w8,[sp,#8]
	mul         w8,w9,w8
	str         w8,[sp,#0x5C]

; 1355 :             int input_pixel_index = stbir__edge_wrap(edge_horizontal, x, input_w) * channels;

	ldr         w2,[sp,#0x20]
	ldr         w1,[sp,#4]
	ldr         w0,[sp,#0x24]
	bl          |?stbir__edge_wrap@@YAHW4stbir_edge@@HH@Z|
	mov         w0,w0
	ldr         w8,[sp,#8]
	mul         w8,w0,w8
	str         w8,[sp,#0x68]

; 1356 :             for (c = 0; c < channels; c++)

	mov         w8,#0
	str         w8,[sp]
	b           |$LN57@stbir__dec|
|$LN55@stbir__dec|
	ldr         w8,[sp]
	add         w8,w8,#1
	str         w8,[sp]
|$LN57@stbir__dec|
	ldr         w9,[sp,#8]
	ldr         w8,[sp]
	cmp         w8,w9
	bge         |$LN56@stbir__dec|

; 1357 :                 decode_buffer[decode_pixel_index + c] = stbir__srgb_to_linear(((const float*)input_data)[input_pixel_index + c]);

	ldr         w9,[sp,#0x68]
	ldr         w8,[sp]
	add         w8,w9,w8
	sxtw        x9,w8
	mov         x8,#4
	mul         x9,x9,x8
	ldr         x8,[sp,#0x30]
	add         x8,x8,x9
	ldr         s0,[x8]
	bl          |?stbir__srgb_to_linear@@YAMM@Z|
	ldr         w9,[sp,#0x5C]
	ldr         w8,[sp]
	add         w8,w9,w8
	sxtw        x9,w8
	mov         x8,#4
	mul         x9,x9,x8
	ldr         x8,[sp,#0x28]
	add         x8,x8,x9
	str         s0,[x8]
	b           |$LN55@stbir__dec|
|$LN56@stbir__dec|

; 1358 : 
; 1359 :             if (!(stbir_info->flags & STBIR_FLAG_ALPHA_USES_COLORSPACE))

	ldr         x8,[sp,#0x18]
	add         x8,x8,#0x54
	ldr         w8,[x8]
	tbnz        x8,#1,|$LN89@stbir__dec|

; 1360 :                 decode_buffer[decode_pixel_index + alpha_channel] = ((const float*)input_data)[input_pixel_index + alpha_channel];

	ldr         w9,[sp,#0x68]
	ldr         w8,[sp,#0xC]
	add         w8,w9,w8
	sxtw        x9,w8
	mov         x8,#4
	mul         x9,x9,x8
	ldr         x8,[sp,#0x30]
	add         x10,x8,x9
	ldr         w9,[sp,#0x5C]
	ldr         w8,[sp,#0xC]
	add         w8,w9,w8
	sxtw        x9,w8
	mov         x8,#4
	mul         x9,x9,x8
	ldr         x8,[sp,#0x28]
	add         x8,x8,x9
	ldr         s16,[x10]
	str         s16,[x8]
|$LN89@stbir__dec|

; 1361 :         }

	b           |$LN52@stbir__dec|
|$LN53@stbir__dec|

; 1362 : 
; 1363 :         break;

	b           |$LN8@stbir__dec|
|$LN90@stbir__dec|

; 1364 : 
; 1365 :     default:
; 1366 :         STBIR__UNIMPLEMENTED("Unknown type/colorspace/channels combination.");

	adrp        x8,|$SG7088|
	add         x8,x8,PageOffset(|$SG7088|)
	cmp         x8,#0
	beq         |$LN91@stbir__dec|
	bl          abort
|$LN91@stbir__dec|
|$LN8@stbir__dec|

; 1367 :         break;
; 1368 :     }
; 1369 : 
; 1370 :     if (!(stbir_info->flags & STBIR_FLAG_ALPHA_PREMULTIPLIED))

	ldr         x8,[sp,#0x18]
	add         x8,x8,#0x54
	ldr         w8,[x8]
	tbnz        x8,#0,|$LN92@stbir__dec|

; 1371 :     {
; 1372 :         for (x = -stbir_info->horizontal_filter_pixel_margin; x < max_x; x++)

	ldr         x8,[sp,#0x18]
	add         x8,x8,#0xB8
	ldr         w8,[x8]
	neg         w8,w8
	str         w8,[sp,#4]
	b           |$LN60@stbir__dec|
|$LN58@stbir__dec|
	ldr         w8,[sp,#4]
	add         w8,w8,#1
	str         w8,[sp,#4]
|$LN60@stbir__dec|
	ldr         w9,[sp,#0x10]
	ldr         w8,[sp,#4]
	cmp         w8,w9
	bge         |$LN59@stbir__dec|

; 1373 :         {
; 1374 :             int decode_pixel_index = x * channels;

	ldr         w9,[sp,#4]
	ldr         w8,[sp,#8]
	mul         w8,w9,w8
	str         w8,[sp,#0x3C]

; 1375 : 
; 1376 :             // If the alpha value is 0 it will clobber the color values. Make sure it's not.
; 1377 :             float alpha = decode_buffer[decode_pixel_index + alpha_channel];

	ldr         w9,[sp,#0x3C]
	ldr         w8,[sp,#0xC]
	add         w8,w9,w8
	sxtw        x9,w8
	mov         x8,#4
	mul         x9,x9,x8
	ldr         x8,[sp,#0x28]
	add         x8,x8,x9
	ldr         s16,[x8]
	str         s16,[sp,#0x38]

; 1378 : #ifndef STBIR_NO_ALPHA_EPSILON
; 1379 :             if (stbir_info->type != STBIR_TYPE_FLOAT) {

	ldr         x8,[sp,#0x18]
	add         x8,x8,#0x58
	ldr         w8,[x8]
	cmp         w8,#3
	beq         |$LN93@stbir__dec|

; 1380 :                 alpha += STBIR_ALPHA_EPSILON;

	ldr         s17,[sp,#0x38]
	ldr         s16,|$LN110@stbir__dec|
	fadd        s16,s17,s16
	str         s16,[sp,#0x38]

; 1381 :                 decode_buffer[decode_pixel_index + alpha_channel] = alpha;

	ldr         w9,[sp,#0x3C]
	ldr         w8,[sp,#0xC]
	add         w8,w9,w8
	sxtw        x9,w8
	mov         x8,#4
	mul         x9,x9,x8
	ldr         x8,[sp,#0x28]
	add         x8,x8,x9
	ldr         s16,[sp,#0x38]
	str         s16,[x8]
|$LN93@stbir__dec|

; 1382 :             }
; 1383 : #endif
; 1384 :             for (c = 0; c < channels; c++)

	mov         w8,#0
	str         w8,[sp]
	b           |$LN63@stbir__dec|
|$LN61@stbir__dec|
	ldr         w8,[sp]
	add         w8,w8,#1
	str         w8,[sp]
|$LN63@stbir__dec|
	ldr         w9,[sp,#8]
	ldr         w8,[sp]
	cmp         w8,w9
	bge         |$LN62@stbir__dec|

; 1385 :             {
; 1386 :                 if (c == alpha_channel)

	ldr         w9,[sp,#0xC]
	ldr         w8,[sp]
	cmp         w8,w9
	bne         |$LN94@stbir__dec|

; 1387 :                     continue;

	b           |$LN61@stbir__dec|
|$LN94@stbir__dec|

; 1388 : 
; 1389 :                 decode_buffer[decode_pixel_index + c] *= alpha;

	ldr         w9,[sp,#0x3C]
	ldr         w8,[sp]
	add         w8,w9,w8
	sxtw        x9,w8
	mov         x8,#4
	mul         x9,x9,x8
	ldr         x8,[sp,#0x28]
	add         x8,x8,x9
	ldr         s17,[x8]
	ldr         s16,[sp,#0x38]
	fmul        s16,s17,s16
	ldr         w9,[sp,#0x3C]
	ldr         w8,[sp]
	add         w8,w9,w8
	sxtw        x9,w8
	mov         x8,#4
	mul         x9,x9,x8
	ldr         x8,[sp,#0x28]
	add         x8,x8,x9
	str         s16,[x8]

; 1390 :             }

	b           |$LN61@stbir__dec|
|$LN62@stbir__dec|

; 1391 :         }

	b           |$LN58@stbir__dec|
|$LN59@stbir__dec|
|$LN92@stbir__dec|

; 1392 :     }
; 1393 : 
; 1394 :     if (edge_horizontal == STBIR_EDGE_ZERO)

	ldr         w8,[sp,#0x24]
	cmp         w8,#4
	bne         |$LN95@stbir__dec|

; 1395 :     {
; 1396 :         for (x = -stbir_info->horizontal_filter_pixel_margin; x < 0; x++)

	ldr         x8,[sp,#0x18]
	add         x8,x8,#0xB8
	ldr         w8,[x8]
	neg         w8,w8
	str         w8,[sp,#4]
	b           |$LN66@stbir__dec|
|$LN64@stbir__dec|
	ldr         w8,[sp,#4]
	add         w8,w8,#1
	str         w8,[sp,#4]
|$LN66@stbir__dec|
	ldr         w8,[sp,#4]
	cmp         w8,#0
	bge         |$LN65@stbir__dec|

; 1397 :         {
; 1398 :             for (c = 0; c < channels; c++)

	mov         w8,#0
	str         w8,[sp]
	b           |$LN69@stbir__dec|
|$LN67@stbir__dec|
	ldr         w8,[sp]
	add         w8,w8,#1
	str         w8,[sp]
|$LN69@stbir__dec|
	ldr         w9,[sp,#8]
	ldr         w8,[sp]
	cmp         w8,w9
	bge         |$LN68@stbir__dec|

; 1399 :                 decode_buffer[x * channels + c] = 0;

	ldr         w9,[sp,#4]
	ldr         w8,[sp,#8]
	mul         w9,w9,w8
	ldr         w8,[sp]
	add         w8,w9,w8
	sxtw        x9,w8
	mov         x8,#4
	mul         x9,x9,x8
	ldr         x8,[sp,#0x28]
	add         x8,x8,x9
	movi        d16,#0
	str         s16,[x8]
	b           |$LN67@stbir__dec|
|$LN68@stbir__dec|

; 1400 :         }

	b           |$LN64@stbir__dec|
|$LN65@stbir__dec|

; 1401 :         for (x = input_w; x < max_x; x++)

	ldr         w8,[sp,#0x20]
	str         w8,[sp,#4]
	b           |$LN72@stbir__dec|
|$LN70@stbir__dec|
	ldr         w8,[sp,#4]
	add         w8,w8,#1
	str         w8,[sp,#4]
|$LN72@stbir__dec|
	ldr         w9,[sp,#0x10]
	ldr         w8,[sp,#4]
	cmp         w8,w9
	bge         |$LN71@stbir__dec|

; 1402 :         {
; 1403 :             for (c = 0; c < channels; c++)

	mov         w8,#0
	str         w8,[sp]
	b           |$LN75@stbir__dec|
|$LN73@stbir__dec|
	ldr         w8,[sp]
	add         w8,w8,#1
	str         w8,[sp]
|$LN75@stbir__dec|
	ldr         w9,[sp,#8]
	ldr         w8,[sp]
	cmp         w8,w9
	bge         |$LN74@stbir__dec|

; 1404 :                 decode_buffer[x * channels + c] = 0;

	ldr         w9,[sp,#4]
	ldr         w8,[sp,#8]
	mul         w9,w9,w8
	ldr         w8,[sp]
	add         w8,w9,w8
	sxtw        x9,w8
	mov         x8,#4
	mul         x9,x9,x8
	ldr         x8,[sp,#0x28]
	add         x8,x8,x9
	movi        d16,#0
	str         s16,[x8]
	b           |$LN73@stbir__dec|
|$LN74@stbir__dec|

; 1405 :         }

	b           |$LN70@stbir__dec|
|$LN71@stbir__dec|
|$LN95@stbir__dec|
|$LN1@stbir__dec|
	add         sp,sp,#0xA0
	ldr         lr,[sp],#0x10
	ret
|__swt|
|$LN99@stbir__dec|

; 1268 :     }
; 1269 : 
; 1270 :     switch (decode)

	DCD         0xfffffeec
|$LN100@stbir__dec|
	DCD         0xffffff23
|$LN101@stbir__dec|
	DCD         0xffffff77
|$LN102@stbir__dec|
	DCD         0xffffffae
|$LN103@stbir__dec|
	DCD         0x0
|$LN104@stbir__dec|
	DCD         0x37
|$LN105@stbir__dec|
	DCD         0x89
|$LN106@stbir__dec|
	DCD         0xbc
|$LN109@stbir__dec|
	DCFD         4.29497e+09
|$LN107@stbir__dec|
	DCFS         255
|$LN108@stbir__dec|
	DCFS         65535
|$LN110@stbir__dec|
	DCFS         8.27181e-25

	ENDP  ; |?stbir__decode_scanline@@YAXPEAUstbir__info@@H@Z|, stbir__decode_scanline

; Function compile flags: /Odtpy
; File C:\Users\paras\source\repos\grep-name\XenevaOS\Libs\Chitralekha\stb_image_resize.h

	AREA	|.text$mn|, CODE, ARM64

|?stbir__get_decode_buffer@@YAPEAMPEAUstbir__info@@@Z| PROC ; stbir__get_decode_buffer

; 1233 : {

	sub         sp,sp,#0x10
	str         x0,[sp]

; 1234 :     // The 0 index of the decode buffer starts after the margin. This makes
; 1235 :     // it okay to use negative indexes on the decode buffer.
; 1236 :     return &stbir_info->decode_buffer[stbir_info->horizontal_filter_pixel_margin * stbir_info->channels];

	ldr         x8,[sp]
	add         x10,x8,#0x98
	ldr         x8,[sp]
	add         x9,x8,#0xB8
	ldr         x8,[sp]
	add         x8,x8,#0x4C
	ldr         w9,[x9]
	ldr         w8,[x8]
	mul         w8,w9,w8
	sxtw        x9,w8
	mov         x8,#4
	mul         x9,x9,x8
	ldr         x8,[x10]
	add         x0,x8,x9
	add         sp,sp,#0x10
	ret

	ENDP  ; |?stbir__get_decode_buffer@@YAPEAMPEAUstbir__info@@@Z|, stbir__get_decode_buffer

; Function compile flags: /Odtpy
; File C:\Users\paras\source\repos\grep-name\XenevaOS\Libs\Chitralekha\stb_image_resize.h

	AREA	|.text$mn|, CODE, ARM64

|?stbir__calculate_filters@@YAXPEAUstbir__info@@PEAUstbir__contributors@@PEAMW4stbir_filter@@MMHH@Z| PROC ; stbir__calculate_filters

; 1193 : {

	sub         sp,sp,#0x10
	stp         x19,lr,[sp]
	sub         sp,sp,#0x60
	str         x0,[sp,#0x50]
	str         x1,[sp,#0x48]
	str         x2,[sp,#0x40]
	str         w3,[sp,#8]
	str         s0,[sp]
	str         s1,[sp,#0xC]
	str         w4,[sp,#0x18]
	str         w5,[sp,#0x14]

; 1194 :     int n;
; 1195 :     int total_contributors = stbir__get_contributors(scale_ratio, filter, input_size, output_size);

	ldr         w2,[sp,#0x14]
	ldr         w1,[sp,#0x18]
	ldr         w0,[sp,#8]
	ldr         s0,[sp]
	bl          |?stbir__get_contributors@@YAHMW4stbir_filter@@HH@Z|
	mov         w0,w0
	str         w0,[sp,#0x10]

; 1196 : 
; 1197 :     if (stbir__use_upsampling(scale_ratio))

	ldr         s0,[sp]
	bl          |?stbir__use_upsampling@@YAHM@Z|
	mov         w0,w0
	cmp         w0,#0
	beq         |$LN8@stbir__cal|

; 1198 :     {
; 1199 :         float out_pixels_radius = stbir__filter_info_table[filter].support(1 / scale_ratio) * scale_ratio;

	fmov        s17,#1
	ldr         s16,[sp]
	fdiv        s0,s17,s16
	ldr         w8,[sp,#8]
	sxtw        x9,w8
	mov         x8,#0x10
	mul         x9,x9,x8
	adrp        x8,|?stbir__filter_info_table@@3PAUstbir__filter_info@@A|
	add         x8,x8,PageOffset(|?stbir__filter_info_table@@3PAUstbir__filter_info@@A|)
	add         x8,x8,x9
	add         x8,x8,#8
	ldr         x8,[x8]
	blr         x8
	ldr         s16,[sp]
	fmul        s16,s0,s16
	str         s16,[sp,#0x1C]

; 1200 : 
; 1201 :         // Looping through out pixels
; 1202 :         for (n = 0; n < total_contributors; n++)

	mov         w8,#0
	str         w8,[sp,#4]
	b           |$LN4@stbir__cal|
|$LN2@stbir__cal|
	ldr         w8,[sp,#4]
	add         w8,w8,#1
	str         w8,[sp,#4]
|$LN4@stbir__cal|
	ldr         w9,[sp,#0x10]
	ldr         w8,[sp,#4]
	cmp         w8,w9
	bge         |$LN3@stbir__cal|

; 1203 :         {
; 1204 :             float in_center_of_out; // Center of the current out pixel in the in pixel space
; 1205 :             int in_first_pixel, in_last_pixel;
; 1206 : 
; 1207 :             stbir__calculate_sample_range_upsample(n, out_pixels_radius, scale_ratio, shift, &in_first_pixel, &in_last_pixel, &in_center_of_out);

	add         x3,sp,#0x20
	add         x2,sp,#0x24
	add         x1,sp,#0x28
	ldr         s2,[sp,#0xC]
	ldr         s1,[sp]
	ldr         s0,[sp,#0x1C]
	ldr         w0,[sp,#4]
	bl          |?stbir__calculate_sample_range_upsample@@YAXHMMMPEAH0PEAM@Z|

; 1208 : 
; 1209 :             stbir__calculate_coefficients_upsample(stbir_info, filter, scale_ratio, in_first_pixel, in_last_pixel, in_center_of_out, stbir__get_contributor(contributors, n), stbir__get_coefficient(coefficients, filter, scale_ratio, n, 0));

	mov         w3,#0
	ldr         w2,[sp,#4]
	ldr         s0,[sp]
	ldr         w1,[sp,#8]
	ldr         x0,[sp,#0x40]
	bl          |?stbir__get_coefficient@@YAPEAMPEAMW4stbir_filter@@MHH@Z|
	mov         x19,x0
	ldr         w1,[sp,#4]
	ldr         x0,[sp,#0x48]
	bl          |?stbir__get_contributor@@YAPEAUstbir__contributors@@PEAU1@H@Z|
	mov         x5,x19
	mov         x4,x0
	ldr         s1,[sp,#0x20]
	ldr         w3,[sp,#0x24]
	ldr         w2,[sp,#0x28]
	ldr         s0,[sp]
	ldr         w1,[sp,#8]
	ldr         x0,[sp,#0x50]
	bl          |?stbir__calculate_coefficients_upsample@@YAXPEAUstbir__info@@W4stbir_filter@@MHHMPEAUstbir__contributors@@PEAM@Z|

; 1210 :         }

	b           |$LN2@stbir__cal|
|$LN3@stbir__cal|

; 1211 :     }

	b           |$LN9@stbir__cal|
|$LN8@stbir__cal|

; 1212 :     else
; 1213 :     {
; 1214 :         float in_pixels_radius = stbir__filter_info_table[filter].support(scale_ratio) / scale_ratio;

	ldr         w8,[sp,#8]
	sxtw        x9,w8
	mov         x8,#0x10
	mul         x9,x9,x8
	adrp        x8,|?stbir__filter_info_table@@3PAUstbir__filter_info@@A|
	add         x8,x8,PageOffset(|?stbir__filter_info_table@@3PAUstbir__filter_info@@A|)
	add         x8,x8,x9
	add         x8,x8,#8
	ldr         s0,[sp]
	ldr         x8,[x8]
	blr         x8
	ldr         s16,[sp]
	fdiv        s16,s0,s16
	str         s16,[sp,#0x2C]

; 1215 : 
; 1216 :         // Looping through in pixels
; 1217 :         for (n = 0; n < total_contributors; n++)

	mov         w8,#0
	str         w8,[sp,#4]
	b           |$LN7@stbir__cal|
|$LN5@stbir__cal|
	ldr         w8,[sp,#4]
	add         w8,w8,#1
	str         w8,[sp,#4]
|$LN7@stbir__cal|
	ldr         w9,[sp,#0x10]
	ldr         w8,[sp,#4]
	cmp         w8,w9
	bge         |$LN6@stbir__cal|

; 1218 :         {
; 1219 :             float out_center_of_in; // Center of the current out pixel in the in pixel space
; 1220 :             int out_first_pixel, out_last_pixel;
; 1221 :             int n_adjusted = n - stbir__get_filter_pixel_margin(filter, scale_ratio);

	ldr         s0,[sp]
	ldr         w0,[sp,#8]
	bl          |?stbir__get_filter_pixel_margin@@YAHW4stbir_filter@@M@Z|
	mov         w0,w0
	ldr         w8,[sp,#4]
	sub         w8,w8,w0
	str         w8,[sp,#0x30]

; 1222 : 
; 1223 :             stbir__calculate_sample_range_downsample(n_adjusted, in_pixels_radius, scale_ratio, shift, &out_first_pixel, &out_last_pixel, &out_center_of_in);

	add         x3,sp,#0x34
	add         x2,sp,#0x38
	add         x1,sp,#0x3C
	ldr         s2,[sp,#0xC]
	ldr         s1,[sp]
	ldr         s0,[sp,#0x2C]
	ldr         w0,[sp,#0x30]
	bl          |?stbir__calculate_sample_range_downsample@@YAXHMMMPEAH0PEAM@Z|

; 1224 : 
; 1225 :             stbir__calculate_coefficients_downsample(stbir_info, filter, scale_ratio, out_first_pixel, out_last_pixel, out_center_of_in, stbir__get_contributor(contributors, n), stbir__get_coefficient(coefficients, filter, scale_ratio, n, 0));

	mov         w3,#0
	ldr         w2,[sp,#4]
	ldr         s0,[sp]
	ldr         w1,[sp,#8]
	ldr         x0,[sp,#0x40]
	bl          |?stbir__get_coefficient@@YAPEAMPEAMW4stbir_filter@@MHH@Z|
	mov         x19,x0
	ldr         w1,[sp,#4]
	ldr         x0,[sp,#0x48]
	bl          |?stbir__get_contributor@@YAPEAUstbir__contributors@@PEAU1@H@Z|
	mov         x5,x19
	mov         x4,x0
	ldr         s1,[sp,#0x34]
	ldr         w3,[sp,#0x38]
	ldr         w2,[sp,#0x3C]
	ldr         s0,[sp]
	ldr         w1,[sp,#8]
	ldr         x0,[sp,#0x50]
	bl          |?stbir__calculate_coefficients_downsample@@YAXPEAUstbir__info@@W4stbir_filter@@MHHMPEAUstbir__contributors@@PEAM@Z|

; 1226 :         }

	b           |$LN5@stbir__cal|
|$LN6@stbir__cal|

; 1227 : 
; 1228 :         stbir__normalize_downsample_coefficients(stbir_info, contributors, coefficients, filter, scale_ratio, shift, input_size, output_size);

	ldr         w5,[sp,#0x14]
	ldr         w4,[sp,#0x18]
	ldr         s1,[sp,#0xC]
	ldr         s0,[sp]
	ldr         w3,[sp,#8]
	ldr         x2,[sp,#0x40]
	ldr         x1,[sp,#0x48]
	ldr         x0,[sp,#0x50]
	bl          |?stbir__normalize_downsample_coefficients@@YAXPEAUstbir__info@@PEAUstbir__contributors@@PEAMW4stbir_filter@@MMHH@Z|
|$LN9@stbir__cal|
	add         sp,sp,#0x60
	ldp         x19,lr,[sp]
	add         sp,sp,#0x10
	ret

	ENDP  ; |?stbir__calculate_filters@@YAXPEAUstbir__info@@PEAUstbir__contributors@@PEAMW4stbir_filter@@MMHH@Z|, stbir__calculate_filters

; Function compile flags: /Odtpy
; File C:\Users\paras\source\repos\grep-name\XenevaOS\Libs\Chitralekha\stb_image_resize.h

	AREA	|.text$mn|, CODE, ARM64

|?stbir__normalize_downsample_coefficients@@YAXPEAUstbir__info@@PEAUstbir__contributors@@PEAMW4stbir_filter@@MMHH@Z| PROC ; stbir__normalize_downsample_coefficients

; 1116 : {

	sub         sp,sp,#0x10
	stp         x19,lr,[sp]
	sub         sp,sp,#0x70
	str         x0,[sp,#0x68]
	str         x1,[sp,#0x18]
	str         x2,[sp,#0x30]
	str         w3,[sp,#0x10]
	str         s0,[sp,#0xC]
	str         s1,[sp,#0x60]
	str         w4,[sp,#0x38]
	str         w5,[sp,#0x28]

; 1117 :     int num_contributors = stbir__get_contributors(scale_ratio, filter, input_size, output_size);

	ldr         w2,[sp,#0x28]
	ldr         w1,[sp,#0x38]
	ldr         w0,[sp,#0x10]
	ldr         s0,[sp,#0xC]
	bl          |?stbir__get_contributors@@YAHMW4stbir_filter@@HH@Z|
	mov         w0,w0
	str         w0,[sp,#0x20]

; 1118 :     int num_coefficients = stbir__get_coefficient_width(filter, scale_ratio);

	ldr         s0,[sp,#0xC]
	ldr         w0,[sp,#0x10]
	bl          |?stbir__get_coefficient_width@@YAHW4stbir_filter@@M@Z|
	mov         w0,w0
	str         w0,[sp,#0x48]

; 1119 :     int i, j;
; 1120 :     int skip;
; 1121 : 
; 1122 :     for (i = 0; i < output_size; i++)

	mov         w8,#0
	str         w8,[sp,#4]
	b           |$LN4@stbir__nor|
|$LN2@stbir__nor|
	ldr         w8,[sp,#4]
	add         w8,w8,#1
	str         w8,[sp,#4]
|$LN4@stbir__nor|
	ldr         w9,[sp,#0x28]
	ldr         w8,[sp,#4]
	cmp         w8,w9
	bge         |$LN3@stbir__nor|

; 1123 :     {
; 1124 :         float scale;
; 1125 :         float total = 0;

	movi        d16,#0
	str         s16,[sp,#0x24]

; 1126 : 
; 1127 :         for (j = 0; j < num_contributors; j++)

	mov         w8,#0
	str         w8,[sp]
	b           |$LN7@stbir__nor|
|$LN5@stbir__nor|
	ldr         w8,[sp]
	add         w8,w8,#1
	str         w8,[sp]
|$LN7@stbir__nor|
	ldr         w9,[sp,#0x20]
	ldr         w8,[sp]
	cmp         w8,w9
	bge         |$LN6@stbir__nor|

; 1128 :         {
; 1129 :             if (i >= contributors[j].n0 && i <= contributors[j].n1)

	ldr         w8,[sp]
	sxtw        x9,w8
	mov         x8,#8
	mul         x9,x9,x8
	ldr         x8,[sp,#0x18]
	add         x8,x8,x9
	ldr         w9,[x8]
	ldr         w8,[sp,#4]
	cmp         w8,w9
	blt         |$LN24@stbir__nor|
	ldr         w8,[sp]
	sxtw        x9,w8
	mov         x8,#8
	mul         x9,x9,x8
	ldr         x8,[sp,#0x18]
	add         x8,x8,x9
	add         x8,x8,#4
	ldr         w9,[x8]
	ldr         w8,[sp,#4]
	cmp         w8,w9
	bgt         |$LN24@stbir__nor|

; 1130 :             {
; 1131 :                 float coefficient = *stbir__get_coefficient(coefficients, filter, scale_ratio, j, i - contributors[j].n0);

	ldr         w8,[sp]
	sxtw        x9,w8
	mov         x8,#8
	mul         x9,x9,x8
	ldr         x8,[sp,#0x18]
	add         x8,x8,x9
	ldr         w9,[sp,#4]
	ldr         w8,[x8]
	sub         w3,w9,w8
	mov         w3,w3
	ldr         w2,[sp]
	ldr         s0,[sp,#0xC]
	ldr         w1,[sp,#0x10]
	ldr         x0,[sp,#0x30]
	bl          |?stbir__get_coefficient@@YAPEAMPEAMW4stbir_filter@@MHH@Z|
	ldr         s16,[x0]
	str         s16,[sp,#0x3C]

; 1132 :                 total += coefficient;

	ldr         s17,[sp,#0x24]
	ldr         s16,[sp,#0x3C]
	fadd        s16,s17,s16
	str         s16,[sp,#0x24]

; 1133 :             }

	b           |$LN25@stbir__nor|
|$LN24@stbir__nor|

; 1134 :             else if (i < contributors[j].n0)

	ldr         w8,[sp]
	sxtw        x9,w8
	mov         x8,#8
	mul         x9,x9,x8
	ldr         x8,[sp,#0x18]
	add         x8,x8,x9
	ldr         w9,[x8]
	ldr         w8,[sp,#4]
	cmp         w8,w9
	bge         |$LN26@stbir__nor|

; 1135 :                 break;

	b           |$LN6@stbir__nor|
|$LN26@stbir__nor|
|$LN25@stbir__nor|

; 1136 :         }

	b           |$LN5@stbir__nor|
|$LN6@stbir__nor|

; 1137 : 
; 1138 :         STBIR__DEBUG_ASSERT(total > 0.9f);
; 1139 :         STBIR__DEBUG_ASSERT(total < 1.1f);
; 1140 : 
; 1141 :         scale = 1 / total;

	fmov        s17,#1
	ldr         s16,[sp,#0x24]
	fdiv        s16,s17,s16
	str         s16,[sp,#0x40]

; 1142 : 
; 1143 :         for (j = 0; j < num_contributors; j++)

	mov         w8,#0
	str         w8,[sp]
	b           |$LN10@stbir__nor|
|$LN8@stbir__nor|
	ldr         w8,[sp]
	add         w8,w8,#1
	str         w8,[sp]
|$LN10@stbir__nor|
	ldr         w9,[sp,#0x20]
	ldr         w8,[sp]
	cmp         w8,w9
	bge         |$LN9@stbir__nor|

; 1144 :         {
; 1145 :             if (i >= contributors[j].n0 && i <= contributors[j].n1)

	ldr         w8,[sp]
	sxtw        x9,w8
	mov         x8,#8
	mul         x9,x9,x8
	ldr         x8,[sp,#0x18]
	add         x8,x8,x9
	ldr         w9,[x8]
	ldr         w8,[sp,#4]
	cmp         w8,w9
	blt         |$LN27@stbir__nor|
	ldr         w8,[sp]
	sxtw        x9,w8
	mov         x8,#8
	mul         x9,x9,x8
	ldr         x8,[sp,#0x18]
	add         x8,x8,x9
	add         x8,x8,#4
	ldr         w9,[x8]
	ldr         w8,[sp,#4]
	cmp         w8,w9
	bgt         |$LN27@stbir__nor|

; 1146 :                 *stbir__get_coefficient(coefficients, filter, scale_ratio, j, i - contributors[j].n0) *= scale;

	ldr         w8,[sp]
	sxtw        x9,w8
	mov         x8,#8
	mul         x9,x9,x8
	ldr         x8,[sp,#0x18]
	add         x8,x8,x9
	ldr         w9,[sp,#4]
	ldr         w8,[x8]
	sub         w3,w9,w8
	mov         w3,w3
	ldr         w2,[sp]
	ldr         s0,[sp,#0xC]
	ldr         w1,[sp,#0x10]
	ldr         x0,[sp,#0x30]
	bl          |?stbir__get_coefficient@@YAPEAMPEAMW4stbir_filter@@MHH@Z|
	str         x0,[sp,#0x58]
	ldr         x8,[sp,#0x58]
	ldr         s17,[x8]
	ldr         s16,[sp,#0x40]
	fmul        s16,s17,s16
	ldr         x8,[sp,#0x58]
	str         s16,[x8]
	b           |$LN28@stbir__nor|
|$LN27@stbir__nor|

; 1147 :             else if (i < contributors[j].n0)

	ldr         w8,[sp]
	sxtw        x9,w8
	mov         x8,#8
	mul         x9,x9,x8
	ldr         x8,[sp,#0x18]
	add         x8,x8,x9
	ldr         w9,[x8]
	ldr         w8,[sp,#4]
	cmp         w8,w9
	bge         |$LN29@stbir__nor|

; 1148 :                 break;

	b           |$LN9@stbir__nor|
|$LN29@stbir__nor|
|$LN28@stbir__nor|

; 1149 :         }

	b           |$LN8@stbir__nor|
|$LN9@stbir__nor|

; 1150 :     }

	b           |$LN2@stbir__nor|
|$LN3@stbir__nor|

; 1151 : 
; 1152 :     // Optimize: Skip zero coefficients and contributions outside of image bounds.
; 1153 :     // Do this after normalizing because normalization depends on the n0/n1 values.
; 1154 :     for (j = 0; j < num_contributors; j++)

	mov         w8,#0
	str         w8,[sp]
	b           |$LN13@stbir__nor|
|$LN11@stbir__nor|
	ldr         w8,[sp]
	add         w8,w8,#1
	str         w8,[sp]
|$LN13@stbir__nor|
	ldr         w9,[sp,#0x20]
	ldr         w8,[sp]
	cmp         w8,w9
	bge         |$LN12@stbir__nor|

; 1155 :     {
; 1156 :         int range, max, width;
; 1157 : 
; 1158 :         skip = 0;

	mov         w8,#0
	str         w8,[sp,#8]
|$LN14@stbir__nor|

; 1159 :         while (*stbir__get_coefficient(coefficients, filter, scale_ratio, j, skip) == 0)

	ldr         w3,[sp,#8]
	ldr         w2,[sp]
	ldr         s0,[sp,#0xC]
	ldr         w1,[sp,#0x10]
	ldr         x0,[sp,#0x30]
	bl          |?stbir__get_coefficient@@YAPEAMPEAMW4stbir_filter@@MHH@Z|
	ldr         s16,[x0]
	fcmp        s16,#0
	bne         |$LN15@stbir__nor|

; 1160 :             skip++;

	ldr         w8,[sp,#8]
	add         w8,w8,#1
	str         w8,[sp,#8]
	b           |$LN14@stbir__nor|
|$LN15@stbir__nor|

; 1161 : 
; 1162 :         contributors[j].n0 += skip;

	ldr         w8,[sp]
	sxtw        x9,w8
	mov         x8,#8
	mul         x9,x9,x8
	ldr         x8,[sp,#0x18]
	add         x8,x8,x9
	ldr         w9,[x8]
	ldr         w8,[sp,#8]
	add         w10,w9,w8
	ldr         w8,[sp]
	sxtw        x9,w8
	mov         x8,#8
	mul         x9,x9,x8
	ldr         x8,[sp,#0x18]
	add         x8,x8,x9
	str         w10,[x8]
|$LN16@stbir__nor|

; 1163 : 
; 1164 :         while (contributors[j].n0 < 0)

	ldr         w8,[sp]
	sxtw        x9,w8
	mov         x8,#8
	mul         x9,x9,x8
	ldr         x8,[sp,#0x18]
	add         x8,x8,x9
	ldr         w8,[x8]
	cmp         w8,#0
	bge         |$LN17@stbir__nor|

; 1165 :         {
; 1166 :             contributors[j].n0++;

	ldr         w8,[sp]
	sxtw        x9,w8
	mov         x8,#8
	mul         x9,x9,x8
	ldr         x8,[sp,#0x18]
	add         x8,x8,x9
	ldr         w8,[x8]
	add         w10,w8,#1
	ldr         w8,[sp]
	sxtw        x9,w8
	mov         x8,#8
	mul         x9,x9,x8
	ldr         x8,[sp,#0x18]
	add         x8,x8,x9
	str         w10,[x8]

; 1167 :             skip++;

	ldr         w8,[sp,#8]
	add         w8,w8,#1
	str         w8,[sp,#8]

; 1168 :         }

	b           |$LN16@stbir__nor|
|$LN17@stbir__nor|

; 1169 : 
; 1170 :         range = contributors[j].n1 - contributors[j].n0 + 1;

	ldr         w8,[sp]
	sxtw        x9,w8
	mov         x8,#8
	mul         x9,x9,x8
	ldr         x8,[sp,#0x18]
	add         x8,x8,x9
	add         x10,x8,#4
	ldr         w8,[sp]
	sxtw        x9,w8
	mov         x8,#8
	mul         x9,x9,x8
	ldr         x8,[sp,#0x18]
	add         x8,x8,x9
	ldr         w9,[x10]
	ldr         w8,[x8]
	sub         w8,w9,w8
	add         w8,w8,#1
	str         w8,[sp,#0x44]

; 1171 :         max = stbir__min(num_coefficients, range);

	ldr         w1,[sp,#0x44]
	ldr         w0,[sp,#0x48]
	bl          |?stbir__min@@YAHHH@Z|
	mov         w0,w0
	str         w0,[sp,#0x4C]

; 1172 : 
; 1173 :         width = stbir__get_coefficient_width(filter, scale_ratio);

	ldr         s0,[sp,#0xC]
	ldr         w0,[sp,#0x10]
	bl          |?stbir__get_coefficient_width@@YAHW4stbir_filter@@M@Z|
	mov         w0,w0
	str         w0,[sp,#0x50]

; 1174 :         for (i = 0; i < max; i++)

	mov         w8,#0
	str         w8,[sp,#4]
	b           |$LN20@stbir__nor|
|$LN18@stbir__nor|
	ldr         w8,[sp,#4]
	add         w8,w8,#1
	str         w8,[sp,#4]
|$LN20@stbir__nor|
	ldr         w9,[sp,#0x4C]
	ldr         w8,[sp,#4]
	cmp         w8,w9
	bge         |$LN19@stbir__nor|

; 1175 :         {
; 1176 :             if (i + skip >= width)

	ldr         w9,[sp,#4]
	ldr         w8,[sp,#8]
	add         w9,w9,w8
	ldr         w8,[sp,#0x50]
	cmp         w9,w8
	blt         |$LN30@stbir__nor|

; 1177 :                 break;

	b           |$LN19@stbir__nor|
|$LN30@stbir__nor|

; 1178 : 
; 1179 :             *stbir__get_coefficient(coefficients, filter, scale_ratio, j, i) = *stbir__get_coefficient(coefficients, filter, scale_ratio, j, i + skip);

	ldr         w9,[sp,#4]
	ldr         w8,[sp,#8]
	add         w3,w9,w8
	mov         w3,w3
	ldr         w2,[sp]
	ldr         s0,[sp,#0xC]
	ldr         w1,[sp,#0x10]
	ldr         x0,[sp,#0x30]
	bl          |?stbir__get_coefficient@@YAPEAMPEAMW4stbir_filter@@MHH@Z|
	mov         x19,x0
	ldr         w3,[sp,#4]
	ldr         w2,[sp]
	ldr         s0,[sp,#0xC]
	ldr         w1,[sp,#0x10]
	ldr         x0,[sp,#0x30]
	bl          |?stbir__get_coefficient@@YAPEAMPEAMW4stbir_filter@@MHH@Z|
	ldr         s16,[x19]
	str         s16,[x0]

; 1180 :         }

	b           |$LN18@stbir__nor|
|$LN19@stbir__nor|

; 1181 : 
; 1182 :         continue;

	b           |$LN11@stbir__nor|

; 1183 :     }

	b           |$LN11@stbir__nor|
|$LN12@stbir__nor|

; 1184 : 
; 1185 :     // Using min to avoid writing into invalid pixels.
; 1186 :     for (i = 0; i < num_contributors; i++)

	mov         w8,#0
	str         w8,[sp,#4]
	b           |$LN23@stbir__nor|
|$LN21@stbir__nor|
	ldr         w8,[sp,#4]
	add         w8,w8,#1
	str         w8,[sp,#4]
|$LN23@stbir__nor|
	ldr         w9,[sp,#0x20]
	ldr         w8,[sp,#4]
	cmp         w8,w9
	bge         |$LN22@stbir__nor|

; 1187 :         contributors[i].n1 = stbir__min(contributors[i].n1, output_size - 1);

	ldr         w8,[sp,#0x28]
	sub         w1,w8,#1
	ldr         w8,[sp,#4]
	sxtw        x9,w8
	mov         x8,#8
	mul         x9,x9,x8
	ldr         x8,[sp,#0x18]
	add         x8,x8,x9
	add         x8,x8,#4
	mov         w1,w1
	ldr         w0,[x8]
	bl          |?stbir__min@@YAHHH@Z|
	mov         w0,w0
	ldr         w8,[sp,#4]
	sxtw        x9,w8
	mov         x8,#8
	mul         x9,x9,x8
	ldr         x8,[sp,#0x18]
	add         x8,x8,x9
	add         x8,x8,#4
	str         w0,[x8]
	b           |$LN21@stbir__nor|
|$LN22@stbir__nor|
	add         sp,sp,#0x70
	ldp         x19,lr,[sp]
	add         sp,sp,#0x10
	ret

	ENDP  ; |?stbir__normalize_downsample_coefficients@@YAXPEAUstbir__info@@PEAUstbir__contributors@@PEAMW4stbir_filter@@MMHH@Z|, stbir__normalize_downsample_coefficients

; Function compile flags: /Odtpy
; File C:\Users\paras\source\repos\grep-name\XenevaOS\Libs\Chitralekha\stb_image_resize.h

	AREA	|.text$mn|, CODE, ARM64

|?stbir__calculate_coefficients_downsample@@YAXPEAUstbir__info@@W4stbir_filter@@MHHMPEAUstbir__contributors@@PEAM@Z| PROC ; stbir__calculate_coefficients_downsample

; 1086 : {

	str         lr,[sp,#-0x10]!
	sub         sp,sp,#0x40
	str         x0,[sp,#0x30]
	str         w1,[sp,#0x10]
	str         s0,[sp,#4]
	str         w2,[sp,#0xC]
	str         w3,[sp,#8]
	str         s1,[sp,#0x14]
	str         x4,[sp,#0x18]
	str         x5,[sp,#0x28]

; 1087 :     int i;
; 1088 : 
; 1089 :     STBIR__DEBUG_ASSERT(out_last_pixel - out_first_pixel <= (int)ceil(stbir__filter_info_table[filter].support(scale_ratio) * 2)); // Taken directly from stbir__get_coefficient_width() which we can't call because we don't know if we're horizontal or vertical.

	ldr         w8,[sp,#0x10]
	sxtw        x9,w8
	mov         x8,#0x10
	mul         x9,x9,x8
	adrp        x8,|?stbir__filter_info_table@@3PAUstbir__filter_info@@A|
	add         x8,x8,PageOffset(|?stbir__filter_info_table@@3PAUstbir__filter_info@@A|)
	add         x8,x8,x9
	add         x8,x8,#8
	ldr         s0,[sp,#4]
	ldr         x8,[x8]
	blr         x8
	fmov        s16,#2
	fmul        s16,s0,s16
	fcvt        d0,s16
	bl          ceil

; 1090 : 
; 1091 :     contributor->n0 = out_first_pixel;

	ldr         x9,[sp,#0x18]
	ldr         w8,[sp,#0xC]
	str         w8,[x9]

; 1092 :     contributor->n1 = out_last_pixel;

	ldr         x8,[sp,#0x18]
	add         x9,x8,#4
	ldr         w8,[sp,#8]
	str         w8,[x9]

; 1093 : 
; 1094 :     STBIR__DEBUG_ASSERT(contributor->n1 >= contributor->n0);
; 1095 : 
; 1096 :     for (i = 0; i <= out_last_pixel - out_first_pixel; i++)

	mov         w8,#0
	str         w8,[sp]
	b           |$LN4@stbir__cal|
|$LN2@stbir__cal|
	ldr         w8,[sp]
	add         w8,w8,#1
	str         w8,[sp]
|$LN4@stbir__cal|
	ldr         w9,[sp,#8]
	ldr         w8,[sp,#0xC]
	sub         w9,w9,w8
	ldr         w8,[sp]
	cmp         w8,w9
	bgt         |$LN3@stbir__cal|

; 1097 :     {
; 1098 :         float out_pixel_center = (float)(i + out_first_pixel) + 0.5f;

	ldr         w9,[sp]
	ldr         w8,[sp,#0xC]
	add         w8,w9,w8
	scvtf       s17,w8
	fmov        s16,#0.5
	fadd        s16,s17,s16
	str         s16,[sp,#0x20]

; 1099 :         float x = out_pixel_center - out_center_of_in;

	ldr         s17,[sp,#0x20]
	ldr         s16,[sp,#0x14]
	fsub        s16,s17,s16
	str         s16,[sp,#0x24]

; 1100 :         coefficient_group[i] = stbir__filter_info_table[filter].kernel(x, scale_ratio) * scale_ratio;

	ldr         w8,[sp,#0x10]
	sxtw        x9,w8
	mov         x8,#0x10
	mul         x9,x9,x8
	adrp        x8,|?stbir__filter_info_table@@3PAUstbir__filter_info@@A|
	add         x8,x8,PageOffset(|?stbir__filter_info_table@@3PAUstbir__filter_info@@A|)
	add         x8,x8,x9
	ldr         s1,[sp,#4]
	ldr         s0,[sp,#0x24]
	ldr         x8,[x8]
	blr         x8
	ldr         s16,[sp,#4]
	fmul        s16,s0,s16
	ldr         w8,[sp]
	sxtw        x9,w8
	mov         x8,#4
	mul         x9,x9,x8
	ldr         x8,[sp,#0x28]
	add         x8,x8,x9
	str         s16,[x8]

; 1101 :     }

	b           |$LN2@stbir__cal|
|$LN3@stbir__cal|

; 1102 : 
; 1103 :     STBIR__DEBUG_ASSERT(stbir__filter_info_table[filter].kernel((float)(out_last_pixel + 1) + 0.5f - out_center_of_in, scale_ratio) == 0);

	ldr         w8,[sp,#8]
	add         w8,w8,#1
	scvtf       s17,w8
	fmov        s16,#0.5
	fadd        s17,s17,s16
	ldr         s16,[sp,#0x14]
	fsub        s0,s17,s16
	ldr         w8,[sp,#0x10]
	sxtw        x9,w8
	mov         x8,#0x10
	mul         x9,x9,x8
	adrp        x8,|?stbir__filter_info_table@@3PAUstbir__filter_info@@A|
	add         x8,x8,PageOffset(|?stbir__filter_info_table@@3PAUstbir__filter_info@@A|)
	add         x8,x8,x9
	ldr         s1,[sp,#4]
	ldr         x8,[x8]
	blr         x8

; 1104 : 
; 1105 :     for (i = out_last_pixel - out_first_pixel; i >= 0; i--)

	ldr         w9,[sp,#8]
	ldr         w8,[sp,#0xC]
	sub         w8,w9,w8
	str         w8,[sp]
	b           |$LN7@stbir__cal|
|$LN5@stbir__cal|
	ldr         w8,[sp]
	sub         w8,w8,#1
	str         w8,[sp]
|$LN7@stbir__cal|
	ldr         w8,[sp]
	cmp         w8,#0
	blt         |$LN6@stbir__cal|

; 1106 :     {
; 1107 :         if (coefficient_group[i])

	ldr         w8,[sp]
	sxtw        x9,w8
	mov         x8,#4
	mul         x9,x9,x8
	ldr         x8,[sp,#0x28]
	add         x8,x8,x9
	ldr         s16,[x8]
	fcmp        s16,#0
	beq         |$LN8@stbir__cal|

; 1108 :             break;

	b           |$LN6@stbir__cal|
|$LN8@stbir__cal|

; 1109 : 
; 1110 :         // This line has no weight. We can skip it.
; 1111 :         contributor->n1 = contributor->n0 + i - 1;

	ldr         x8,[sp,#0x18]
	ldr         w9,[x8]
	ldr         w8,[sp]
	add         w8,w9,w8
	sub         w9,w8,#1
	ldr         x8,[sp,#0x18]
	add         x8,x8,#4
	str         w9,[x8]

; 1112 :     }

	b           |$LN5@stbir__cal|
|$LN6@stbir__cal|
	add         sp,sp,#0x40
	ldr         lr,[sp],#0x10
	ret

	ENDP  ; |?stbir__calculate_coefficients_downsample@@YAXPEAUstbir__info@@W4stbir_filter@@MHHMPEAUstbir__contributors@@PEAM@Z|, stbir__calculate_coefficients_downsample

; Function compile flags: /Odtpy
; File C:\Users\paras\source\repos\grep-name\XenevaOS\Libs\Chitralekha\stb_image_resize.h

	AREA	|.text$mn|, CODE, ARM64

|?stbir__calculate_coefficients_upsample@@YAXPEAUstbir__info@@W4stbir_filter@@MHHMPEAUstbir__contributors@@PEAM@Z| PROC ; stbir__calculate_coefficients_upsample

; 1036 : {

	str         lr,[sp,#-0x10]!
	sub         sp,sp,#0x40
	str         x0,[sp,#0x38]
	str         w1,[sp,#0x10]
	str         s0,[sp,#0xC]
	str         w2,[sp,#4]
	str         w3,[sp,#8]
	str         s1,[sp,#0x20]
	str         x4,[sp,#0x28]
	str         x5,[sp,#0x18]

; 1037 :     int i;
; 1038 :     float total_filter = 0;

	movi        d16,#0
	str         s16,[sp,#0x14]

; 1039 :     float filter_scale;
; 1040 : 
; 1041 :     STBIR__DEBUG_ASSERT(in_last_pixel - in_first_pixel <= (int)ceil(stbir__filter_info_table[filter].support(1 / scale) * 2)); // Taken directly from stbir__get_coefficient_width() which we can't call because we don't know if we're horizontal or vertical.

	fmov        s17,#1
	ldr         s16,[sp,#0xC]
	fdiv        s0,s17,s16
	ldr         w8,[sp,#0x10]
	sxtw        x9,w8
	mov         x8,#0x10
	mul         x9,x9,x8
	adrp        x8,|?stbir__filter_info_table@@3PAUstbir__filter_info@@A|
	add         x8,x8,PageOffset(|?stbir__filter_info_table@@3PAUstbir__filter_info@@A|)
	add         x8,x8,x9
	add         x8,x8,#8
	ldr         x8,[x8]
	blr         x8
	fmov        s16,#2
	fmul        s16,s0,s16
	fcvt        d0,s16
	bl          ceil

; 1042 : 
; 1043 :     contributor->n0 = in_first_pixel;

	ldr         x9,[sp,#0x28]
	ldr         w8,[sp,#4]
	str         w8,[x9]

; 1044 :     contributor->n1 = in_last_pixel;

	ldr         x8,[sp,#0x28]
	add         x9,x8,#4
	ldr         w8,[sp,#8]
	str         w8,[x9]

; 1045 : 
; 1046 :     STBIR__DEBUG_ASSERT(contributor->n1 >= contributor->n0);
; 1047 : 
; 1048 :     for (i = 0; i <= in_last_pixel - in_first_pixel; i++)

	mov         w8,#0
	str         w8,[sp]
	b           |$LN4@stbir__cal|
|$LN2@stbir__cal|
	ldr         w8,[sp]
	add         w8,w8,#1
	str         w8,[sp]
|$LN4@stbir__cal|
	ldr         w9,[sp,#8]
	ldr         w8,[sp,#4]
	sub         w9,w9,w8
	ldr         w8,[sp]
	cmp         w8,w9
	bgt         |$LN3@stbir__cal|

; 1049 :     {
; 1050 :         float in_pixel_center = (float)(i + in_first_pixel) + 0.5f;

	ldr         w9,[sp]
	ldr         w8,[sp,#4]
	add         w8,w9,w8
	scvtf       s17,w8
	fmov        s16,#0.5
	fadd        s16,s17,s16
	str         s16,[sp,#0x30]

; 1051 :         coefficient_group[i] = stbir__filter_info_table[filter].kernel(in_center_of_out - in_pixel_center, 1 / scale);

	fmov        s17,#1
	ldr         s16,[sp,#0xC]
	fdiv        s1,s17,s16
	ldr         s17,[sp,#0x20]
	ldr         s16,[sp,#0x30]
	fsub        s0,s17,s16
	ldr         w8,[sp,#0x10]
	sxtw        x9,w8
	mov         x8,#0x10
	mul         x9,x9,x8
	adrp        x8,|?stbir__filter_info_table@@3PAUstbir__filter_info@@A|
	add         x8,x8,PageOffset(|?stbir__filter_info_table@@3PAUstbir__filter_info@@A|)
	add         x8,x8,x9
	ldr         x8,[x8]
	blr         x8
	ldr         w8,[sp]
	sxtw        x9,w8
	mov         x8,#4
	mul         x9,x9,x8
	ldr         x8,[sp,#0x18]
	add         x8,x8,x9
	str         s0,[x8]

; 1052 : 
; 1053 :         // If the coefficient is zero, skip it. (Don't do the <0 check here, we want the influence of those outside pixels.)
; 1054 :         if (i == 0 && !coefficient_group[i])

	ldr         w8,[sp]
	cmp         w8,#0
	bne         |$LN11@stbir__cal|
	ldr         w8,[sp]
	sxtw        x9,w8
	mov         x8,#4
	mul         x9,x9,x8
	ldr         x8,[sp,#0x18]
	add         x8,x8,x9
	ldr         s16,[x8]
	fcmp        s16,#0
	bne         |$LN11@stbir__cal|

; 1055 :         {
; 1056 :             contributor->n0 = ++in_first_pixel;

	ldr         w8,[sp,#4]
	add         w8,w8,#1
	str         w8,[sp,#4]
	ldr         x9,[sp,#0x28]
	ldr         w8,[sp,#4]
	str         w8,[x9]

; 1057 :             i--;

	ldr         w8,[sp]
	sub         w8,w8,#1
	str         w8,[sp]

; 1058 :             continue;

	b           |$LN2@stbir__cal|
|$LN11@stbir__cal|

; 1059 :         }
; 1060 : 
; 1061 :         total_filter += coefficient_group[i];

	ldr         w8,[sp]
	sxtw        x9,w8
	mov         x8,#4
	mul         x9,x9,x8
	ldr         x8,[sp,#0x18]
	add         x8,x8,x9
	ldr         s17,[sp,#0x14]
	ldr         s16,[x8]
	fadd        s16,s17,s16
	str         s16,[sp,#0x14]

; 1062 :     }

	b           |$LN2@stbir__cal|
|$LN3@stbir__cal|

; 1063 : 
; 1064 :     STBIR__DEBUG_ASSERT(stbir__filter_info_table[filter].kernel((float)(in_last_pixel + 1) + 0.5f - in_center_of_out, 1 / scale) == 0);

	fmov        s17,#1
	ldr         s16,[sp,#0xC]
	fdiv        s1,s17,s16
	ldr         w8,[sp,#8]
	add         w8,w8,#1
	scvtf       s17,w8
	fmov        s16,#0.5
	fadd        s17,s17,s16
	ldr         s16,[sp,#0x20]
	fsub        s0,s17,s16
	ldr         w8,[sp,#0x10]
	sxtw        x9,w8
	mov         x8,#0x10
	mul         x9,x9,x8
	adrp        x8,|?stbir__filter_info_table@@3PAUstbir__filter_info@@A|
	add         x8,x8,PageOffset(|?stbir__filter_info_table@@3PAUstbir__filter_info@@A|)
	add         x8,x8,x9
	ldr         x8,[x8]
	blr         x8

; 1065 : 
; 1066 :     STBIR__DEBUG_ASSERT(total_filter > 0.9);
; 1067 :     STBIR__DEBUG_ASSERT(total_filter < 1.1f); // Make sure it's not way off.
; 1068 : 
; 1069 :     // Make sure the sum of all coefficients is 1.
; 1070 :     filter_scale = 1 / total_filter;

	fmov        s17,#1
	ldr         s16,[sp,#0x14]
	fdiv        s16,s17,s16
	str         s16,[sp,#0x34]

; 1071 : 
; 1072 :     for (i = 0; i <= in_last_pixel - in_first_pixel; i++)

	mov         w8,#0
	str         w8,[sp]
	b           |$LN7@stbir__cal|
|$LN5@stbir__cal|
	ldr         w8,[sp]
	add         w8,w8,#1
	str         w8,[sp]
|$LN7@stbir__cal|
	ldr         w9,[sp,#8]
	ldr         w8,[sp,#4]
	sub         w9,w9,w8
	ldr         w8,[sp]
	cmp         w8,w9
	bgt         |$LN6@stbir__cal|

; 1073 :         coefficient_group[i] *= filter_scale;

	ldr         w8,[sp]
	sxtw        x9,w8
	mov         x8,#4
	mul         x9,x9,x8
	ldr         x8,[sp,#0x18]
	add         x8,x8,x9
	ldr         s17,[x8]
	ldr         s16,[sp,#0x34]
	fmul        s16,s17,s16
	ldr         w8,[sp]
	sxtw        x9,w8
	mov         x8,#4
	mul         x9,x9,x8
	ldr         x8,[sp,#0x18]
	add         x8,x8,x9
	str         s16,[x8]
	b           |$LN5@stbir__cal|
|$LN6@stbir__cal|

; 1074 : 
; 1075 :     for (i = in_last_pixel - in_first_pixel; i >= 0; i--)

	ldr         w9,[sp,#8]
	ldr         w8,[sp,#4]
	sub         w8,w9,w8
	str         w8,[sp]
	b           |$LN10@stbir__cal|
|$LN8@stbir__cal|
	ldr         w8,[sp]
	sub         w8,w8,#1
	str         w8,[sp]
|$LN10@stbir__cal|
	ldr         w8,[sp]
	cmp         w8,#0
	blt         |$LN9@stbir__cal|

; 1076 :     {
; 1077 :         if (coefficient_group[i])

	ldr         w8,[sp]
	sxtw        x9,w8
	mov         x8,#4
	mul         x9,x9,x8
	ldr         x8,[sp,#0x18]
	add         x8,x8,x9
	ldr         s16,[x8]
	fcmp        s16,#0
	beq         |$LN12@stbir__cal|

; 1078 :             break;

	b           |$LN9@stbir__cal|
|$LN12@stbir__cal|

; 1079 : 
; 1080 :         // This line has no weight. We can skip it.
; 1081 :         contributor->n1 = contributor->n0 + i - 1;

	ldr         x8,[sp,#0x28]
	ldr         w9,[x8]
	ldr         w8,[sp]
	add         w8,w9,w8
	sub         w9,w8,#1
	ldr         x8,[sp,#0x28]
	add         x8,x8,#4
	str         w9,[x8]

; 1082 :     }

	b           |$LN8@stbir__cal|
|$LN9@stbir__cal|
	add         sp,sp,#0x40
	ldr         lr,[sp],#0x10
	ret

	ENDP  ; |?stbir__calculate_coefficients_upsample@@YAXPEAUstbir__info@@W4stbir_filter@@MHHMPEAUstbir__contributors@@PEAM@Z|, stbir__calculate_coefficients_upsample

; Function compile flags: /Odtpy
; File C:\Users\paras\source\repos\grep-name\XenevaOS\Libs\Chitralekha\stb_image_resize.h

	AREA	|.text$mn|, CODE, ARM64

|?stbir__calculate_sample_range_downsample@@YAXHMMMPEAH0PEAM@Z| PROC ; stbir__calculate_sample_range_downsample

; 1022 : {

	str         lr,[sp,#-0x10]!
	sub         sp,sp,#0x40
	str         w0,[sp,#0x10]
	str         s0,[sp,#0xC]
	str         s1,[sp,#4]
	str         s2,[sp,#8]
	str         x1,[sp,#0x30]
	str         x2,[sp,#0x38]
	str         x3,[sp,#0x28]

; 1023 :     float in_pixel_center = (float)n + 0.5f;

	ldr         w8,[sp,#0x10]
	scvtf       s17,w8
	fmov        s16,#0.5
	fadd        s16,s17,s16
	str         s16,[sp]

; 1024 :     float in_pixel_influence_lowerbound = in_pixel_center - in_pixels_radius;

	ldr         s17,[sp]
	ldr         s16,[sp,#0xC]
	fsub        s16,s17,s16
	str         s16,[sp,#0x14]

; 1025 :     float in_pixel_influence_upperbound = in_pixel_center + in_pixels_radius;

	ldr         s17,[sp]
	ldr         s16,[sp,#0xC]
	fadd        s16,s17,s16
	str         s16,[sp,#0x18]

; 1026 : 
; 1027 :     float out_pixel_influence_lowerbound = in_pixel_influence_lowerbound * scale_ratio - out_shift;

	ldr         s17,[sp,#0x14]
	ldr         s16,[sp,#4]
	fmul        s17,s17,s16
	ldr         s16,[sp,#8]
	fsub        s16,s17,s16
	str         s16,[sp,#0x1C]

; 1028 :     float out_pixel_influence_upperbound = in_pixel_influence_upperbound * scale_ratio - out_shift;

	ldr         s17,[sp,#0x18]
	ldr         s16,[sp,#4]
	fmul        s17,s17,s16
	ldr         s16,[sp,#8]
	fsub        s16,s17,s16
	str         s16,[sp,#0x20]

; 1029 : 
; 1030 :     *out_center_of_in = in_pixel_center * scale_ratio - out_shift;

	ldr         s17,[sp]
	ldr         s16,[sp,#4]
	fmul        s17,s17,s16
	ldr         s16,[sp,#8]
	fsub        s16,s17,s16
	ldr         x8,[sp,#0x28]
	str         s16,[x8]

; 1031 :     *out_first_pixel = (int)(floor(out_pixel_influence_lowerbound + 0.5));

	ldr         s16,[sp,#0x1C]
	fcvt        d17,s16
	fmov        d16,#0.5
	fadd        d0,d17,d16
	bl          floor
	fcvtzs      w9,d0
	ldr         x8,[sp,#0x30]
	str         w9,[x8]

; 1032 :     *out_last_pixel = (int)(floor(out_pixel_influence_upperbound - 0.5));

	ldr         s16,[sp,#0x20]
	fcvt        d17,s16
	fmov        d16,#0.5
	fsub        d0,d17,d16
	bl          floor
	fcvtzs      w9,d0
	ldr         x8,[sp,#0x38]
	str         w9,[x8]
	add         sp,sp,#0x40
	ldr         lr,[sp],#0x10
	ret

	ENDP  ; |?stbir__calculate_sample_range_downsample@@YAXHMMMPEAH0PEAM@Z|, stbir__calculate_sample_range_downsample

; Function compile flags: /Odtpy
; File C:\Users\paras\source\repos\grep-name\XenevaOS\Libs\Chitralekha\stb_image_resize.h

	AREA	|.text$mn|, CODE, ARM64

|?stbir__calculate_sample_range_upsample@@YAXHMMMPEAH0PEAM@Z| PROC ; stbir__calculate_sample_range_upsample

; 1007 : {

	str         lr,[sp,#-0x10]!
	sub         sp,sp,#0x40
	str         w0,[sp,#0x10]
	str         s0,[sp,#0xC]
	str         s1,[sp,#8]
	str         s2,[sp,#4]
	str         x1,[sp,#0x30]
	str         x2,[sp,#0x38]
	str         x3,[sp,#0x28]

; 1008 :     float out_pixel_center = (float)n + 0.5f;

	ldr         w8,[sp,#0x10]
	scvtf       s17,w8
	fmov        s16,#0.5
	fadd        s16,s17,s16
	str         s16,[sp]

; 1009 :     float out_pixel_influence_lowerbound = out_pixel_center - out_filter_radius;

	ldr         s17,[sp]
	ldr         s16,[sp,#0xC]
	fsub        s16,s17,s16
	str         s16,[sp,#0x14]

; 1010 :     float out_pixel_influence_upperbound = out_pixel_center + out_filter_radius;

	ldr         s17,[sp]
	ldr         s16,[sp,#0xC]
	fadd        s16,s17,s16
	str         s16,[sp,#0x18]

; 1011 : 
; 1012 :     float in_pixel_influence_lowerbound = (out_pixel_influence_lowerbound + out_shift) / scale_ratio;

	ldr         s17,[sp,#0x14]
	ldr         s16,[sp,#4]
	fadd        s17,s17,s16
	ldr         s16,[sp,#8]
	fdiv        s16,s17,s16
	str         s16,[sp,#0x1C]

; 1013 :     float in_pixel_influence_upperbound = (out_pixel_influence_upperbound + out_shift) / scale_ratio;

	ldr         s17,[sp,#0x18]
	ldr         s16,[sp,#4]
	fadd        s17,s17,s16
	ldr         s16,[sp,#8]
	fdiv        s16,s17,s16
	str         s16,[sp,#0x20]

; 1014 : 
; 1015 :     *in_center_of_out = (out_pixel_center + out_shift) / scale_ratio;

	ldr         s17,[sp]
	ldr         s16,[sp,#4]
	fadd        s17,s17,s16
	ldr         s16,[sp,#8]
	fdiv        s16,s17,s16
	ldr         x8,[sp,#0x28]
	str         s16,[x8]

; 1016 :     *in_first_pixel = (int)(floor(in_pixel_influence_lowerbound + 0.5));

	ldr         s16,[sp,#0x1C]
	fcvt        d17,s16
	fmov        d16,#0.5
	fadd        d0,d17,d16
	bl          floor
	fcvtzs      w9,d0
	ldr         x8,[sp,#0x30]
	str         w9,[x8]

; 1017 :     *in_last_pixel = (int)(floor(in_pixel_influence_upperbound - 0.5));

	ldr         s16,[sp,#0x20]
	fcvt        d17,s16
	fmov        d16,#0.5
	fsub        d0,d17,d16
	bl          floor
	fcvtzs      w9,d0
	ldr         x8,[sp,#0x38]
	str         w9,[x8]
	add         sp,sp,#0x40
	ldr         lr,[sp],#0x10
	ret

	ENDP  ; |?stbir__calculate_sample_range_upsample@@YAXHMMMPEAH0PEAM@Z|, stbir__calculate_sample_range_upsample

; Function compile flags: /Odtpy
; File C:\Users\paras\source\repos\grep-name\XenevaOS\Libs\Chitralekha\stb_image_resize.h

	AREA	|.text$mn|, CODE, ARM64

|?stbir__edge_wrap@@YAHW4stbir_edge@@HH@Z| PROC		; stbir__edge_wrap

; 998  : {

	str         lr,[sp,#-0x10]!
	sub         sp,sp,#0x10
	str         w0,[sp,#8]
	str         w1,[sp]
	str         w2,[sp,#4]

; 999  :     // avoid per-pixel switch
; 1000 :     if (n >= 0 && n < max)

	ldr         w8,[sp]
	cmp         w8,#0
	blt         |$LN2@stbir__edg|
	ldr         w9,[sp,#4]
	ldr         w8,[sp]
	cmp         w8,w9
	bge         |$LN2@stbir__edg|

; 1001 :         return n;

	ldr         w0,[sp]
	b           |$LN1@stbir__edg|
|$LN2@stbir__edg|

; 1002 :     return stbir__edge_wrap_slow(edge, n, max);

	ldr         w2,[sp,#4]
	ldr         w1,[sp]
	ldr         w0,[sp,#8]
	bl          |?stbir__edge_wrap_slow@@YAHW4stbir_edge@@HH@Z|
	mov         w0,w0
	mov         w0,w0
|$LN1@stbir__edg|
	add         sp,sp,#0x10
	ldr         lr,[sp],#0x10
	ret

	ENDP  ; |?stbir__edge_wrap@@YAHW4stbir_edge@@HH@Z|, stbir__edge_wrap

; Function compile flags: /Odtpy
; File C:\Users\paras\source\repos\grep-name\XenevaOS\Libs\Chitralekha\stb_image_resize.h

	AREA	|.text$mn|, CODE, ARM64

|?stbir__edge_wrap_slow@@YAHW4stbir_edge@@HH@Z| PROC	; stbir__edge_wrap_slow

; 940  : {

	str         lr,[sp,#-0x10]!
	sub         sp,sp,#0x20
	str         w0,[sp,#0x14]
	str         w1,[sp]
	str         w2,[sp,#4]

; 941  :     switch (edge)

	ldr         w8,[sp,#0x14]
	str         w8,[sp,#8]
	ldr         w8,[sp,#8]
	sub         w8,w8,#1
	str         w8,[sp,#8]
	ldr         w8,[sp,#8]
	cmp         w8,#3
	bhi         |$LN19@stbir__edg|
	ldr         w10,[sp,#8]
	adr         x9,__swt
	ldrsb       x8,[x9,w10 uxtw #0]
	add         x8,x9,x8,lsl #2
	br          x8
|$LN4@stbir__edg|

; 942  :     {
; 943  :     case STBIR_EDGE_ZERO:
; 944  :         return 0; // we'll decode the wrong pixel here, and then overwrite with 0s later

	mov         w0,#0
	b           |$LN1@stbir__edg|
|$LN5@stbir__edg|

; 945  : 
; 946  :     case STBIR_EDGE_CLAMP:
; 947  :         if (n < 0)

	ldr         w8,[sp]
	cmp         w8,#0
	bge         |$LN6@stbir__edg|

; 948  :             return 0;

	mov         w0,#0
	b           |$LN1@stbir__edg|
|$LN6@stbir__edg|

; 949  : 
; 950  :         if (n >= max)

	ldr         w9,[sp,#4]
	ldr         w8,[sp]
	cmp         w8,w9
	blt         |$LN7@stbir__edg|

; 951  :             return max - 1;

	ldr         w8,[sp,#4]
	sub         w0,w8,#1
	mov         w0,w0
	b           |$LN1@stbir__edg|
|$LN7@stbir__edg|

; 952  : 
; 953  :         return n; // NOTREACHED

	ldr         w0,[sp]
	b           |$LN1@stbir__edg|
|$LN8@stbir__edg|

; 954  : 
; 955  :     case STBIR_EDGE_REFLECT:
; 956  :     {
; 957  :         if (n < 0)

	ldr         w8,[sp]
	cmp         w8,#0
	bge         |$LN9@stbir__edg|

; 958  :         {
; 959  :             if (n < max)

	ldr         w9,[sp,#4]
	ldr         w8,[sp]
	cmp         w8,w9
	bge         |$LN10@stbir__edg|

; 960  :                 return -n;

	ldr         w8,[sp]
	neg         w0,w8
	mov         w0,w0
	b           |$LN1@stbir__edg|
	b           |$LN11@stbir__edg|
|$LN10@stbir__edg|

; 961  :             else
; 962  :                 return max - 1;

	ldr         w8,[sp,#4]
	sub         w0,w8,#1
	mov         w0,w0
	b           |$LN1@stbir__edg|
|$LN11@stbir__edg|
|$LN9@stbir__edg|

; 963  :         }
; 964  : 
; 965  :         if (n >= max)

	ldr         w9,[sp,#4]
	ldr         w8,[sp]
	cmp         w8,w9
	blt         |$LN12@stbir__edg|

; 966  :         {
; 967  :             int max2 = max * 2;

	ldr         w9,[sp,#4]
	mov         w8,#2
	mul         w8,w9,w8
	str         w8,[sp,#0x10]

; 968  :             if (n >= max2)

	ldr         w9,[sp,#0x10]
	ldr         w8,[sp]
	cmp         w8,w9
	blt         |$LN13@stbir__edg|

; 969  :                 return 0;

	mov         w0,#0
	b           |$LN1@stbir__edg|
	b           |$LN14@stbir__edg|
|$LN13@stbir__edg|

; 970  :             else
; 971  :                 return max2 - n - 1;

	ldr         w9,[sp,#0x10]
	ldr         w8,[sp]
	sub         w8,w9,w8
	sub         w0,w8,#1
	mov         w0,w0
	b           |$LN1@stbir__edg|
|$LN14@stbir__edg|
|$LN12@stbir__edg|

; 972  :         }
; 973  : 
; 974  :         return n; // NOTREACHED

	ldr         w0,[sp]
	b           |$LN1@stbir__edg|
|$LN15@stbir__edg|

; 975  :     }
; 976  : 
; 977  :     case STBIR_EDGE_WRAP:
; 978  :         if (n >= 0)

	ldr         w8,[sp]
	cmp         w8,#0
	blt         |$LN16@stbir__edg|

; 979  :             return (n % max);

	ldr         w10,[sp]
	ldr         w9,[sp,#4]
	cbnz        w9,|$LN22@stbir__edg|
	brk         #0xF004
|$LN22@stbir__edg|
	sdiv        w8,w10,w9
	mul         w8,w8,w9
	sub         w0,w10,w8
	mov         w0,w0
	b           |$LN1@stbir__edg|
	b           |$LN17@stbir__edg|
|$LN16@stbir__edg|

; 980  :         else
; 981  :         {
; 982  :             int m = (-n) % max;

	ldr         w8,[sp]
	neg         w10,w8
	ldr         w9,[sp,#4]
	cbnz        w9,|$LN23@stbir__edg|
	brk         #0xF004
|$LN23@stbir__edg|
	sdiv        w8,w10,w9
	mul         w8,w8,w9
	sub         w8,w10,w8
	str         w8,[sp,#0xC]

; 983  : 
; 984  :             if (m != 0)

	ldr         w8,[sp,#0xC]
	cmp         w8,#0
	beq         |$LN18@stbir__edg|

; 985  :                 m = max - m;

	ldr         w9,[sp,#4]
	ldr         w8,[sp,#0xC]
	sub         w8,w9,w8
	str         w8,[sp,#0xC]
|$LN18@stbir__edg|

; 986  : 
; 987  :             return (m);

	ldr         w0,[sp,#0xC]
	b           |$LN1@stbir__edg|
|$LN17@stbir__edg|

; 988  :         }
; 989  :         return n;  // NOTREACHED

	ldr         w0,[sp]
	b           |$LN1@stbir__edg|
|$LN19@stbir__edg|

; 990  : 
; 991  :     default:
; 992  :         STBIR__UNIMPLEMENTED("Unimplemented edge type");

	adrp        x8,|$SG6762|
	add         x8,x8,PageOffset(|$SG6762|)
	cmp         x8,#0
	beq         |$LN20@stbir__edg|
	bl          abort
|$LN20@stbir__edg|

; 993  :         return 0;

	mov         w0,#0
|$LN1@stbir__edg|
	add         sp,sp,#0x20
	ldr         lr,[sp],#0x10
	ret
|__swt|
|$LN25@stbir__edg|

; 941  :     switch (edge)

	DCB         0xa0
|$LN26@stbir__edg|
	DCB         0xaf
|$LN27@stbir__edg|
	DCB         0xd6
|$LN28@stbir__edg|
	DCB         0x9e

	ENDP  ; |?stbir__edge_wrap_slow@@YAHW4stbir_edge@@HH@Z|, stbir__edge_wrap_slow

; Function compile flags: /Odtpy
; File C:\Users\paras\source\repos\grep-name\XenevaOS\Libs\Chitralekha\stb_image_resize.h

	AREA	|.text$mn|, CODE, ARM64

|?stbir__get_coefficient@@YAPEAMPEAMW4stbir_filter@@MHH@Z| PROC ; stbir__get_coefficient

; 934  : {

	str         lr,[sp,#-0x10]!
	sub         sp,sp,#0x20
	str         x0,[sp,#0x18]
	str         w1,[sp,#4]
	str         s0,[sp]
	str         w2,[sp,#0xC]
	str         w3,[sp,#0x10]

; 935  :     int width = stbir__get_coefficient_width(filter, scale);

	ldr         s0,[sp]
	ldr         w0,[sp,#4]
	bl          |?stbir__get_coefficient_width@@YAHW4stbir_filter@@M@Z|
	mov         w0,w0
	str         w0,[sp,#8]

; 936  :     return &coefficients[width * n + c];

	ldr         w9,[sp,#8]
	ldr         w8,[sp,#0xC]
	mul         w9,w9,w8
	ldr         w8,[sp,#0x10]
	add         w8,w9,w8
	sxtw        x9,w8
	mov         x8,#4
	mul         x9,x9,x8
	ldr         x8,[sp,#0x18]
	add         x0,x8,x9
	add         sp,sp,#0x20
	ldr         lr,[sp],#0x10
	ret

	ENDP  ; |?stbir__get_coefficient@@YAPEAMPEAMW4stbir_filter@@MHH@Z|, stbir__get_coefficient

; Function compile flags: /Odtpy
; File C:\Users\paras\source\repos\grep-name\XenevaOS\Libs\Chitralekha\stb_image_resize.h

	AREA	|.text$mn|, CODE, ARM64

|?stbir__get_contributor@@YAPEAUstbir__contributors@@PEAU1@H@Z| PROC ; stbir__get_contributor

; 927  : {

	sub         sp,sp,#0x10
	str         x0,[sp,#8]
	str         w1,[sp]

; 928  :     return &contributors[n];

	ldr         w8,[sp]
	sxtw        x9,w8
	mov         x8,#8
	mul         x9,x9,x8
	ldr         x8,[sp,#8]
	add         x0,x8,x9
	add         sp,sp,#0x10
	ret

	ENDP  ; |?stbir__get_contributor@@YAPEAUstbir__contributors@@PEAU1@H@Z|, stbir__get_contributor

; Function compile flags: /Odtpy
; File C:\Users\paras\source\repos\grep-name\XenevaOS\Libs\Chitralekha\stb_image_resize.h

	AREA	|.text$mn|, CODE, ARM64

|?stbir__get_total_vertical_coefficients@@YAHPEAUstbir__info@@@Z| PROC ; stbir__get_total_vertical_coefficients

; 921  : {

	sub         sp,sp,#0x10
	stp         x19,lr,[sp]
	sub         sp,sp,#0x10
	str         x0,[sp]

; 922  :     return info->vertical_num_contributors

	ldr         x8,[sp]
	add         x19,x8,#0xC4
	ldr         x8,[sp]
	add         x9,x8,#0x48
	ldr         x8,[sp]
	add         x8,x8,#0x60
	ldr         s0,[x9]
	ldr         w0,[x8]
	bl          |?stbir__get_coefficient_width@@YAHW4stbir_filter@@M@Z|
	mov         w0,w0
	ldr         w8,[x19]
	mul         w0,w8,w0
	mov         w0,w0
	add         sp,sp,#0x10
	ldp         x19,lr,[sp]
	add         sp,sp,#0x10
	ret

	ENDP  ; |?stbir__get_total_vertical_coefficients@@YAHPEAUstbir__info@@@Z|, stbir__get_total_vertical_coefficients

; Function compile flags: /Odtpy
; File C:\Users\paras\source\repos\grep-name\XenevaOS\Libs\Chitralekha\stb_image_resize.h

	AREA	|.text$mn|, CODE, ARM64

|?stbir__get_total_horizontal_coefficients@@YAHPEAUstbir__info@@@Z| PROC ; stbir__get_total_horizontal_coefficients

; 915  : {

	sub         sp,sp,#0x10
	stp         x19,lr,[sp]
	sub         sp,sp,#0x10
	str         x0,[sp]

; 916  :     return info->horizontal_num_contributors

	ldr         x8,[sp]
	add         x19,x8,#0xC0
	ldr         x8,[sp]
	add         x9,x8,#0x44
	ldr         x8,[sp]
	add         x8,x8,#0x5C
	ldr         s0,[x9]
	ldr         w0,[x8]
	bl          |?stbir__get_coefficient_width@@YAHW4stbir_filter@@M@Z|
	mov         w0,w0
	ldr         w8,[x19]
	mul         w0,w8,w0
	mov         w0,w0
	add         sp,sp,#0x10
	ldp         x19,lr,[sp]
	add         sp,sp,#0x10
	ret

	ENDP  ; |?stbir__get_total_horizontal_coefficients@@YAHPEAUstbir__info@@@Z|, stbir__get_total_horizontal_coefficients

; Function compile flags: /Odtpy
; File C:\Users\paras\source\repos\grep-name\XenevaOS\Libs\Chitralekha\stb_image_resize.h

	AREA	|.text$mn|, CODE, ARM64

|?stbir__get_contributors@@YAHMW4stbir_filter@@HH@Z| PROC ; stbir__get_contributors

; 907  : {

	str         lr,[sp,#-0x10]!
	sub         sp,sp,#0x10
	str         s0,[sp]
	str         w0,[sp,#8]
	str         w1,[sp,#0xC]
	str         w2,[sp,#4]

; 908  :     if (stbir__use_upsampling(scale))

	ldr         s0,[sp]
	bl          |?stbir__use_upsampling@@YAHM@Z|
	mov         w0,w0
	cmp         w0,#0
	beq         |$LN2@stbir__get|

; 909  :         return output_size;

	ldr         w0,[sp,#4]
	b           |$LN1@stbir__get|
	b           |$LN3@stbir__get|
|$LN2@stbir__get|

; 910  :     else
; 911  :         return (input_size + stbir__get_filter_pixel_margin(filter, scale) * 2);

	ldr         s0,[sp]
	ldr         w0,[sp,#8]
	bl          |?stbir__get_filter_pixel_margin@@YAHW4stbir_filter@@M@Z|
	mov         w0,w0
	mov         w8,#2
	mul         w9,w0,w8
	ldr         w8,[sp,#0xC]
	add         w0,w8,w9
	mov         w0,w0
|$LN3@stbir__get|
|$LN1@stbir__get|
	add         sp,sp,#0x10
	ldr         lr,[sp],#0x10
	ret

	ENDP  ; |?stbir__get_contributors@@YAHMW4stbir_filter@@HH@Z|, stbir__get_contributors

; Function compile flags: /Odtpy
; File C:\Users\paras\source\repos\grep-name\XenevaOS\Libs\Chitralekha\stb_image_resize.h

	AREA	|.text$mn|, CODE, ARM64

|?stbir__get_coefficient_width@@YAHW4stbir_filter@@M@Z| PROC ; stbir__get_coefficient_width

; 899  : {

	str         lr,[sp,#-0x10]!
	sub         sp,sp,#0x10
	str         w0,[sp,#4]
	str         s0,[sp]

; 900  :     if (stbir__use_upsampling(scale))

	ldr         s0,[sp]
	bl          |?stbir__use_upsampling@@YAHM@Z|
	mov         w0,w0
	cmp         w0,#0
	beq         |$LN2@stbir__get|

; 901  :         return (int)ceil(stbir__filter_info_table[filter].support(1 / scale) * 2);

	fmov        s17,#1
	ldr         s16,[sp]
	fdiv        s0,s17,s16
	ldr         w8,[sp,#4]
	sxtw        x9,w8
	mov         x8,#0x10
	mul         x9,x9,x8
	adrp        x8,|?stbir__filter_info_table@@3PAUstbir__filter_info@@A|
	add         x8,x8,PageOffset(|?stbir__filter_info_table@@3PAUstbir__filter_info@@A|)
	add         x8,x8,x9
	add         x8,x8,#8
	ldr         x8,[x8]
	blr         x8
	fmov        s16,#2
	fmul        s16,s0,s16
	fcvt        d0,s16
	bl          ceil
	fcvtzs      w0,d0
	mov         w0,w0
	b           |$LN1@stbir__get|
	b           |$LN3@stbir__get|
|$LN2@stbir__get|

; 902  :     else
; 903  :         return (int)ceil(stbir__filter_info_table[filter].support(scale) * 2);

	ldr         w8,[sp,#4]
	sxtw        x9,w8
	mov         x8,#0x10
	mul         x9,x9,x8
	adrp        x8,|?stbir__filter_info_table@@3PAUstbir__filter_info@@A|
	add         x8,x8,PageOffset(|?stbir__filter_info_table@@3PAUstbir__filter_info@@A|)
	add         x8,x8,x9
	add         x8,x8,#8
	ldr         s0,[sp]
	ldr         x8,[x8]
	blr         x8
	fmov        s16,#2
	fmul        s16,s0,s16
	fcvt        d0,s16
	bl          ceil
	fcvtzs      w0,d0
	mov         w0,w0
|$LN3@stbir__get|
|$LN1@stbir__get|
	add         sp,sp,#0x10
	ldr         lr,[sp],#0x10
	ret

	ENDP  ; |?stbir__get_coefficient_width@@YAHW4stbir_filter@@M@Z|, stbir__get_coefficient_width

; Function compile flags: /Odtpy
; File C:\Users\paras\source\repos\grep-name\XenevaOS\Libs\Chitralekha\stb_image_resize.h

	AREA	|.text$mn|, CODE, ARM64

|?stbir__get_filter_pixel_margin@@YAHW4stbir_filter@@M@Z| PROC ; stbir__get_filter_pixel_margin

; 894  : {

	str         lr,[sp,#-0x10]!
	sub         sp,sp,#0x10
	str         w0,[sp,#4]
	str         s0,[sp]

; 895  :     return stbir__get_filter_pixel_width(filter, scale) / 2;

	ldr         s0,[sp]
	ldr         w0,[sp,#4]
	bl          |?stbir__get_filter_pixel_width@@YAHW4stbir_filter@@M@Z|
	mov         w0,w0
	mov         w8,#2
	sdiv        w0,w0,w8
	mov         w0,w0
	add         sp,sp,#0x10
	ldr         lr,[sp],#0x10
	ret

	ENDP  ; |?stbir__get_filter_pixel_margin@@YAHW4stbir_filter@@M@Z|, stbir__get_filter_pixel_margin

; Function compile flags: /Odtpy
; File C:\Users\paras\source\repos\grep-name\XenevaOS\Libs\Chitralekha\stb_image_resize.h

	AREA	|.text$mn|, CODE, ARM64

|?stbir__get_filter_pixel_width@@YAHW4stbir_filter@@M@Z| PROC ; stbir__get_filter_pixel_width

; 881  : {

	str         lr,[sp,#-0x10]!
	sub         sp,sp,#0x20
	str         w0,[sp]
	str         s0,[sp,#4]

; 882  :     STBIR_ASSERT(filter != 0);

	ldr         w8,[sp]
	cmp         w8,#0
	bne         |$LN7@stbir__get|
	mov         w8,#1
	str         w8,[sp,#8]
	b           |$LN8@stbir__get|
|$LN7@stbir__get|
	mov         w8,#0
	str         w8,[sp,#8]
|$LN8@stbir__get|
	ldr         w8,[sp,#8]
	cmp         w8,#0
	beq         |$LN2@stbir__get|
	bl          abort
|$LN2@stbir__get|

; 883  :     STBIR_ASSERT(filter < STBIR__ARRAY_SIZE(stbir__filter_info_table));

	ldr         w8,[sp]
	cmp         w8,#0
	bne         |$LN9@stbir__get|
	mov         x8,#1
	str         x8,[sp,#0x10]
	b           |$LN10@stbir__get|
|$LN9@stbir__get|
	mov         x8,#0
	str         x8,[sp,#0x10]
|$LN10@stbir__get|
	ldr         x8,[sp,#0x10]
	cmp         x8,#6
	bhs         |$LN3@stbir__get|
	bl          abort
|$LN3@stbir__get|

; 884  : 
; 885  :     if (stbir__use_upsampling(scale))

	ldr         s0,[sp,#4]
	bl          |?stbir__use_upsampling@@YAHM@Z|
	mov         w0,w0
	cmp         w0,#0
	beq         |$LN4@stbir__get|

; 886  :         return (int)ceil(stbir__filter_info_table[filter].support(1 / scale) * 2);

	fmov        s17,#1
	ldr         s16,[sp,#4]
	fdiv        s0,s17,s16
	ldr         w8,[sp]
	sxtw        x9,w8
	mov         x8,#0x10
	mul         x9,x9,x8
	adrp        x8,|?stbir__filter_info_table@@3PAUstbir__filter_info@@A|
	add         x8,x8,PageOffset(|?stbir__filter_info_table@@3PAUstbir__filter_info@@A|)
	add         x8,x8,x9
	add         x8,x8,#8
	ldr         x8,[x8]
	blr         x8
	fmov        s16,#2
	fmul        s16,s0,s16
	fcvt        d0,s16
	bl          ceil
	fcvtzs      w0,d0
	mov         w0,w0
	b           |$LN1@stbir__get|
	b           |$LN5@stbir__get|
|$LN4@stbir__get|

; 887  :     else
; 888  :         return (int)ceil(stbir__filter_info_table[filter].support(scale) * 2 / scale);

	ldr         w8,[sp]
	sxtw        x9,w8
	mov         x8,#0x10
	mul         x9,x9,x8
	adrp        x8,|?stbir__filter_info_table@@3PAUstbir__filter_info@@A|
	add         x8,x8,PageOffset(|?stbir__filter_info_table@@3PAUstbir__filter_info@@A|)
	add         x8,x8,x9
	add         x8,x8,#8
	ldr         s0,[sp,#4]
	ldr         x8,[x8]
	blr         x8
	fmov        s16,#2
	fmul        s17,s0,s16
	ldr         s16,[sp,#4]
	fdiv        s16,s17,s16
	fcvt        d0,s16
	bl          ceil
	fcvtzs      w0,d0
	mov         w0,w0
|$LN5@stbir__get|
|$LN1@stbir__get|
	add         sp,sp,#0x20
	ldr         lr,[sp],#0x10
	ret

	ENDP  ; |?stbir__get_filter_pixel_width@@YAHW4stbir_filter@@M@Z|, stbir__get_filter_pixel_width

; Function compile flags: /Odtpy
; File C:\Users\paras\source\repos\grep-name\XenevaOS\Libs\Chitralekha\stb_image_resize.h

	AREA	|.text$mn|, CODE, ARM64

|?stbir__use_height_upsampling@@YAHPEAUstbir__info@@@Z| PROC ; stbir__use_height_upsampling

; 874  : {

	str         lr,[sp,#-0x10]!
	sub         sp,sp,#0x10
	str         x0,[sp]

; 875  :     return stbir__use_upsampling(stbir_info->vertical_scale);

	ldr         x8,[sp]
	add         x8,x8,#0x48
	ldr         s0,[x8]
	bl          |?stbir__use_upsampling@@YAHM@Z|
	mov         w0,w0
	mov         w0,w0
	add         sp,sp,#0x10
	ldr         lr,[sp],#0x10
	ret

	ENDP  ; |?stbir__use_height_upsampling@@YAHPEAUstbir__info@@@Z|, stbir__use_height_upsampling

; Function compile flags: /Odtpy
; File C:\Users\paras\source\repos\grep-name\XenevaOS\Libs\Chitralekha\stb_image_resize.h

	AREA	|.text$mn|, CODE, ARM64

|?stbir__use_width_upsampling@@YAHPEAUstbir__info@@@Z| PROC ; stbir__use_width_upsampling

; 869  : {

	str         lr,[sp,#-0x10]!
	sub         sp,sp,#0x10
	str         x0,[sp]

; 870  :     return stbir__use_upsampling(stbir_info->horizontal_scale);

	ldr         x8,[sp]
	add         x8,x8,#0x44
	ldr         s0,[x8]
	bl          |?stbir__use_upsampling@@YAHM@Z|
	mov         w0,w0
	mov         w0,w0
	add         sp,sp,#0x10
	ldr         lr,[sp],#0x10
	ret

	ENDP  ; |?stbir__use_width_upsampling@@YAHPEAUstbir__info@@@Z|, stbir__use_width_upsampling

; Function compile flags: /Odtpy
; File C:\Users\paras\source\repos\grep-name\XenevaOS\Libs\Chitralekha\stb_image_resize.h

	AREA	|.text$mn|, CODE, ARM64

|?stbir__use_upsampling@@YAHM@Z| PROC			; stbir__use_upsampling

; 864  : {

	sub         sp,sp,#0x10
	str         s0,[sp,#4]

; 865  :     return ratio > 1;

	fmov        s17,#1
	ldr         s16,[sp,#4]
	fcmpe       s16,s17
	ble         |$LN3@stbir__use|
	mov         w8,#1
	str         w8,[sp]
	b           |$LN4@stbir__use|
|$LN3@stbir__use|
	mov         w8,#0
	str         w8,[sp]
|$LN4@stbir__use|
	ldr         w0,[sp]
	add         sp,sp,#0x10
	ret

	ENDP  ; |?stbir__use_upsampling@@YAHM@Z|, stbir__use_upsampling

; Function compile flags: /Odtpy
; File C:\Users\paras\source\repos\grep-name\XenevaOS\Libs\Chitralekha\stb_image_resize.h

	AREA	|.text$mn|, CODE, ARM64

|?stbir__support_two@@YAMM@Z| PROC			; stbir__support_two

; 849  : {

	sub         sp,sp,#0x10
	str         s0,[sp]

; 850  :     STBIR__UNUSED_PARAM(s);
; 851  :     return 2;

	fmov        s0,#2
	add         sp,sp,#0x10
	ret

	ENDP  ; |?stbir__support_two@@YAMM@Z|, stbir__support_two

; Function compile flags: /Odtpy
; File C:\Users\paras\source\repos\grep-name\XenevaOS\Libs\Chitralekha\stb_image_resize.h

	AREA	|.text$mn|, CODE, ARM64

|?stbir__support_one@@YAMM@Z| PROC			; stbir__support_one

; 843  : {

	sub         sp,sp,#0x10
	str         s0,[sp]

; 844  :     STBIR__UNUSED_PARAM(s);
; 845  :     return 1;

	fmov        s0,#1
	add         sp,sp,#0x10
	ret

	ENDP  ; |?stbir__support_one@@YAMM@Z|, stbir__support_one

; Function compile flags: /Odtpy
; File C:\Users\paras\source\repos\grep-name\XenevaOS\Libs\Chitralekha\stb_image_resize.h

	AREA	|.text$mn|, CODE, ARM64

|?stbir__support_zero@@YAMM@Z| PROC			; stbir__support_zero

; 837  : {

	sub         sp,sp,#0x10
	str         s0,[sp]

; 838  :     STBIR__UNUSED_PARAM(s);
; 839  :     return 0;

	movi        d0,#0
	add         sp,sp,#0x10
	ret

	ENDP  ; |?stbir__support_zero@@YAMM@Z|, stbir__support_zero

; Function compile flags: /Odtpy
; File C:\Users\paras\source\repos\grep-name\XenevaOS\Libs\Chitralekha\stb_image_resize.h

	AREA	|.text$mn|, CODE, ARM64

|?stbir__filter_mitchell@@YAMMM@Z| PROC			; stbir__filter_mitchell

; 823  : {

	str         lr,[sp,#-0x10]!
	sub         sp,sp,#0x10
	str         s0,[sp]
	str         s1,[sp,#4]

; 824  :     STBIR__UNUSED_PARAM(s);
; 825  : 
; 826  :     x = (float)fabs(x);

	ldr         s16,[sp]
	fcvt        d0,s16
	bl          fabs
	fcvt        s16,d0
	str         s16,[sp]

; 827  : 
; 828  :     if (x < 1.0f)

	fmov        s17,#1
	ldr         s16,[sp]
	fcmpe       s16,s17
	bhs         |$LN2@stbir__fil|

; 829  :         return (16 + x * x * (21 * x - 36)) / 18;

	ldr         s17,[sp]
	ldr         s16,[sp]
	fmul        s18,s17,s16
	fmov        s17,#21
	ldr         s16,[sp]
	fmul        s17,s17,s16
	ldr         s16,|$LN6@stbir__fil|
	fsub        s16,s17,s16
	fmul        s17,s18,s16
	fmov        s16,#16
	fadd        s17,s16,s17
	fmov        s16,#18
	fdiv        s0,s17,s16
	b           |$LN1@stbir__fil|
	b           |$LN3@stbir__fil|
|$LN2@stbir__fil|

; 830  :     else if (x < 2.0f)

	fmov        s17,#2
	ldr         s16,[sp]
	fcmpe       s16,s17
	bhs         |$LN4@stbir__fil|

; 831  :         return (32 + x * (-60 + x * (36 - 7 * x))) / 18;

	fmov        s17,#7
	ldr         s16,[sp]
	fmul        s17,s17,s16
	ldr         s16,|$LN6@stbir__fil|
	fsub        s17,s16,s17
	ldr         s16,[sp]
	fmul        s17,s16,s17
	ldr         s16,|$LN7@stbir__fil|
	fadd        s17,s16,s17
	ldr         s16,[sp]
	fmul        s17,s16,s17
	ldr         s16,|$LN8@stbir__fil|
	fadd        s17,s16,s17
	fmov        s16,#18
	fdiv        s0,s17,s16
	b           |$LN1@stbir__fil|
|$LN4@stbir__fil|
|$LN3@stbir__fil|

; 832  : 
; 833  :     return (0.0f);

	movi        d0,#0
|$LN1@stbir__fil|
	add         sp,sp,#0x10
	ldr         lr,[sp],#0x10
	ret
|$LN6@stbir__fil|
	DCFS         36
|$LN7@stbir__fil|
	DCFS         -60
|$LN8@stbir__fil|
	DCFS         32

	ENDP  ; |?stbir__filter_mitchell@@YAMMM@Z|, stbir__filter_mitchell

; Function compile flags: /Odtpy
; File C:\Users\paras\source\repos\grep-name\XenevaOS\Libs\Chitralekha\stb_image_resize.h

	AREA	|.text$mn|, CODE, ARM64

|?stbir__filter_catmullrom@@YAMMM@Z| PROC		; stbir__filter_catmullrom

; 809  : {

	str         lr,[sp,#-0x10]!
	sub         sp,sp,#0x10
	str         s0,[sp]
	str         s1,[sp,#4]

; 810  :     STBIR__UNUSED_PARAM(s);
; 811  : 
; 812  :     x = (float)fabs(x);

	ldr         s16,[sp]
	fcvt        d0,s16
	bl          fabs
	fcvt        s16,d0
	str         s16,[sp]

; 813  : 
; 814  :     if (x < 1.0f)

	fmov        s17,#1
	ldr         s16,[sp]
	fcmpe       s16,s17
	bhs         |$LN2@stbir__fil|

; 815  :         return 1 - x * x * (2.5f - 1.5f * x);

	ldr         s17,[sp]
	ldr         s16,[sp]
	fmul        s18,s17,s16
	fmov        s17,#1.5
	ldr         s16,[sp]
	fmul        s17,s17,s16
	fmov        s16,#2.5
	fsub        s16,s16,s17
	fmul        s17,s18,s16
	fmov        s16,#1
	fsub        s0,s16,s17
	b           |$LN1@stbir__fil|
	b           |$LN3@stbir__fil|
|$LN2@stbir__fil|

; 816  :     else if (x < 2.0f)

	fmov        s17,#2
	ldr         s16,[sp]
	fcmpe       s16,s17
	bhs         |$LN4@stbir__fil|

; 817  :         return 2 - x * (4 + x * (0.5f * x - 2.5f));

	fmov        s17,#0.5
	ldr         s16,[sp]
	fmul        s17,s17,s16
	fmov        s16,#2.5
	fsub        s17,s17,s16
	ldr         s16,[sp]
	fmul        s17,s16,s17
	fmov        s16,#4
	fadd        s17,s16,s17
	ldr         s16,[sp]
	fmul        s17,s16,s17
	fmov        s16,#2
	fsub        s0,s16,s17
	b           |$LN1@stbir__fil|
|$LN4@stbir__fil|
|$LN3@stbir__fil|

; 818  : 
; 819  :     return (0.0f);

	movi        d0,#0
|$LN1@stbir__fil|
	add         sp,sp,#0x10
	ldr         lr,[sp],#0x10
	ret

	ENDP  ; |?stbir__filter_catmullrom@@YAMMM@Z|, stbir__filter_catmullrom

; Function compile flags: /Odtpy
; File C:\Users\paras\source\repos\grep-name\XenevaOS\Libs\Chitralekha\stb_image_resize.h

	AREA	|.text$mn|, CODE, ARM64

|?stbir__filter_cubic@@YAMMM@Z| PROC			; stbir__filter_cubic

; 795  : {

	str         lr,[sp,#-0x10]!
	sub         sp,sp,#0x10
	str         s0,[sp]
	str         s1,[sp,#4]

; 796  :     STBIR__UNUSED_PARAM(s);
; 797  : 
; 798  :     x = (float)fabs(x);

	ldr         s16,[sp]
	fcvt        d0,s16
	bl          fabs
	fcvt        s16,d0
	str         s16,[sp]

; 799  : 
; 800  :     if (x < 1.0f)

	fmov        s17,#1
	ldr         s16,[sp]
	fcmpe       s16,s17
	bhs         |$LN2@stbir__fil|

; 801  :         return (4 + x * x * (3 * x - 6)) / 6;

	ldr         s17,[sp]
	ldr         s16,[sp]
	fmul        s18,s17,s16
	fmov        s17,#3
	ldr         s16,[sp]
	fmul        s17,s17,s16
	fmov        s16,#6
	fsub        s16,s17,s16
	fmul        s17,s18,s16
	fmov        s16,#4
	fadd        s17,s16,s17
	fmov        s16,#6
	fdiv        s0,s17,s16
	b           |$LN1@stbir__fil|
	b           |$LN3@stbir__fil|
|$LN2@stbir__fil|

; 802  :     else if (x < 2.0f)

	fmov        s17,#2
	ldr         s16,[sp]
	fcmpe       s16,s17
	bhs         |$LN4@stbir__fil|

; 803  :         return (8 + x * (-12 + x * (6 - x))) / 6;

	fmov        s17,#6
	ldr         s16,[sp]
	fsub        s17,s17,s16
	ldr         s16,[sp]
	fmul        s17,s16,s17
	fmov        s16,#-12
	fadd        s17,s16,s17
	ldr         s16,[sp]
	fmul        s17,s16,s17
	fmov        s16,#8
	fadd        s17,s16,s17
	fmov        s16,#6
	fdiv        s0,s17,s16
	b           |$LN1@stbir__fil|
|$LN4@stbir__fil|
|$LN3@stbir__fil|

; 804  : 
; 805  :     return (0.0f);

	movi        d0,#0
|$LN1@stbir__fil|
	add         sp,sp,#0x10
	ldr         lr,[sp],#0x10
	ret

	ENDP  ; |?stbir__filter_cubic@@YAMMM@Z|, stbir__filter_cubic

; Function compile flags: /Odtpy
; File C:\Users\paras\source\repos\grep-name\XenevaOS\Libs\Chitralekha\stb_image_resize.h

	AREA	|.text$mn|, CODE, ARM64

|?stbir__filter_triangle@@YAMMM@Z| PROC			; stbir__filter_triangle

; 783  : {

	str         lr,[sp,#-0x10]!
	sub         sp,sp,#0x10
	str         s0,[sp]
	str         s1,[sp,#4]

; 784  :     STBIR__UNUSED_PARAM(s);
; 785  : 
; 786  :     x = (float)fabs(x);

	ldr         s16,[sp]
	fcvt        d0,s16
	bl          fabs
	fcvt        s16,d0
	str         s16,[sp]

; 787  : 
; 788  :     if (x <= 1.0f)

	fmov        s17,#1
	ldr         s16,[sp]
	fcmpe       s16,s17
	bhi         |$LN2@stbir__fil|

; 789  :         return 1 - x;

	fmov        s17,#1
	ldr         s16,[sp]
	fsub        s0,s17,s16
	b           |$LN1@stbir__fil|
	b           |$LN3@stbir__fil|
|$LN2@stbir__fil|

; 790  :     else
; 791  :         return 0;

	movi        d0,#0
|$LN3@stbir__fil|
|$LN1@stbir__fil|
	add         sp,sp,#0x10
	ldr         lr,[sp],#0x10
	ret

	ENDP  ; |?stbir__filter_triangle@@YAMMM@Z|, stbir__filter_triangle

; Function compile flags: /Odtpy
; File C:\Users\paras\source\repos\grep-name\XenevaOS\Libs\Chitralekha\stb_image_resize.h

	AREA	|.text$mn|, CODE, ARM64

|?stbir__support_trapezoid@@YAMM@Z| PROC		; stbir__support_trapezoid

; 777  : {

	sub         sp,sp,#0x10
	str         s0,[sp]

; 778  :     STBIR__DEBUG_ASSERT(scale <= 1);
; 779  :     return 0.5f + scale / 2;

	ldr         s17,[sp]
	fmov        s16,#2
	fdiv        s17,s17,s16
	fmov        s16,#0.5
	fadd        s0,s16,s17
	add         sp,sp,#0x10
	ret

	ENDP  ; |?stbir__support_trapezoid@@YAMM@Z|, stbir__support_trapezoid

; Function compile flags: /Odtpy
; File C:\Users\paras\source\repos\grep-name\XenevaOS\Libs\Chitralekha\stb_image_resize.h

	AREA	|.text$mn|, CODE, ARM64

|?stbir__filter_trapezoid@@YAMMM@Z| PROC		; stbir__filter_trapezoid

; 757  : {

	str         lr,[sp,#-0x10]!
	sub         sp,sp,#0x20
	str         s0,[sp]
	str         s1,[sp,#0xC]

; 758  :     float halfscale = scale / 2;

	ldr         s17,[sp,#0xC]
	fmov        s16,#2
	fdiv        s16,s17,s16
	str         s16,[sp,#4]

; 759  :     float t = 0.5f + halfscale;

	fmov        s17,#0.5
	ldr         s16,[sp,#4]
	fadd        s16,s17,s16
	str         s16,[sp,#8]

; 760  :     STBIR__DEBUG_ASSERT(scale <= 1);
; 761  : 
; 762  :     x = (float)fabs(x);

	ldr         s16,[sp]
	fcvt        d0,s16
	bl          fabs
	fcvt        s16,d0
	str         s16,[sp]

; 763  : 
; 764  :     if (x >= t)

	ldr         s17,[sp,#8]
	ldr         s16,[sp]
	fcmpe       s16,s17
	blt         |$LN2@stbir__fil|

; 765  :         return 0;

	movi        d0,#0
	b           |$LN1@stbir__fil|
	b           |$LN3@stbir__fil|
|$LN2@stbir__fil|

; 766  :     else
; 767  :     {
; 768  :         float r = 0.5f - halfscale;

	fmov        s17,#0.5
	ldr         s16,[sp,#4]
	fsub        s16,s17,s16
	str         s16,[sp,#0x10]

; 769  :         if (x <= r)

	ldr         s17,[sp,#0x10]
	ldr         s16,[sp]
	fcmpe       s16,s17
	bhi         |$LN4@stbir__fil|

; 770  :             return 1;

	fmov        s0,#1
	b           |$LN1@stbir__fil|
	b           |$LN5@stbir__fil|
|$LN4@stbir__fil|

; 771  :         else
; 772  :             return (t - x) / scale;

	ldr         s17,[sp,#8]
	ldr         s16,[sp]
	fsub        s17,s17,s16
	ldr         s16,[sp,#0xC]
	fdiv        s0,s17,s16
|$LN5@stbir__fil|
|$LN3@stbir__fil|
|$LN1@stbir__fil|
	add         sp,sp,#0x20
	ldr         lr,[sp],#0x10
	ret

	ENDP  ; |?stbir__filter_trapezoid@@YAMMM@Z|, stbir__filter_trapezoid

; Function compile flags: /Odtpy
; File C:\Users\paras\source\repos\grep-name\XenevaOS\Libs\Chitralekha\stb_image_resize.h

	AREA	|.text$mn|, CODE, ARM64

|?stbir__linear_to_srgb_uchar@@YAEM@Z| PROC		; stbir__linear_to_srgb_uchar

; 673  : {

	sub         sp,sp,#0x20
	str         s0,[sp]

; 674  :     static const stbir__FP32 almostone = { 0x3f7fffff }; // 1-eps
; 675  :     static const stbir__FP32 minval = { (127 - 13) << 23 };
; 676  :     stbir_uint32 tab, bias, scale, t;
; 677  :     stbir__FP32 f;
; 678  : 
; 679  :     // Clamp to [2^(-13), 1-eps]; these two values map to 0 and 1, respectively.
; 680  :     // The tests are carefully written so that NaNs map to 0, same as in the reference
; 681  :     // implementation.
; 682  :     if (!(in > minval.f)) // written this way to catch NaNs

	adrp        x8,|?minval@?1??stbir__linear_to_srgb_uchar@@YAEM@Z@4Tstbir__FP32@@B|
	ldr         s17,[x8,PageOffset(|?minval@?1??stbir__linear_to_srgb_uchar@@YAEM@Z@4Tstbir__FP32@@B|)]
	ldr         s16,[sp]
	fcmpe       s16,s17
	bgt         |$LN2@stbir__lin|

; 683  :         in = minval.f;

	adrp        x8,|?minval@?1??stbir__linear_to_srgb_uchar@@YAEM@Z@4Tstbir__FP32@@B|
	ldr         s16,[x8,PageOffset(|?minval@?1??stbir__linear_to_srgb_uchar@@YAEM@Z@4Tstbir__FP32@@B|)]
	str         s16,[sp]
|$LN2@stbir__lin|

; 684  :     if (in > almostone.f)

	adrp        x8,|?almostone@?1??stbir__linear_to_srgb_uchar@@YAEM@Z@4Tstbir__FP32@@B|
	ldr         s17,[x8,PageOffset(|?almostone@?1??stbir__linear_to_srgb_uchar@@YAEM@Z@4Tstbir__FP32@@B|)]
	ldr         s16,[sp]
	fcmpe       s16,s17
	ble         |$LN3@stbir__lin|

; 685  :         in = almostone.f;

	adrp        x8,|?almostone@?1??stbir__linear_to_srgb_uchar@@YAEM@Z@4Tstbir__FP32@@B|
	ldr         s16,[x8,PageOffset(|?almostone@?1??stbir__linear_to_srgb_uchar@@YAEM@Z@4Tstbir__FP32@@B|)]
	str         s16,[sp]
|$LN3@stbir__lin|

; 686  : 
; 687  :     // Do the table lookup and unpack bias, scale
; 688  :     f.f = in;

	ldr         s16,[sp]
	str         s16,[sp,#8]

; 689  :     tab = fp32_to_srgb8_tab4[(f.u - minval.u) >> 20];

	ldr         w9,[sp,#8]
	adrp        x8,|?minval@?1??stbir__linear_to_srgb_uchar@@YAEM@Z@4Tstbir__FP32@@B|
	ldr         w8,[x8,PageOffset(|?minval@?1??stbir__linear_to_srgb_uchar@@YAEM@Z@4Tstbir__FP32@@B|)]
	sub         w8,w9,w8
	lsr         w8,w8,#0x14
	uxtw        x9,w8
	mov         x8,#4
	mul         x9,x9,x8
	adrp        x8,|?fp32_to_srgb8_tab4@@3QBIB|
	add         x8,x8,PageOffset(|?fp32_to_srgb8_tab4@@3QBIB|)
	add         x8,x8,x9
	ldr         w8,[x8]
	str         w8,[sp,#4]

; 690  :     bias = (tab >> 16) << 9;

	ldr         w8,[sp,#4]
	lsr         w8,w8,#0x10
	lsl         w8,w8,#9
	str         w8,[sp,#0x14]

; 691  :     scale = tab & 0xffff;

	ldr         w8,[sp,#4]
	and         w8,w8,#0xFFFF
	str         w8,[sp,#0xC]

; 692  : 
; 693  :     // Grab next-highest mantissa bits and perform linear interpolation
; 694  :     t = (f.u >> 12) & 0xff;

	ldr         w8,[sp,#8]
	ubfx        w8,w8,#0xC,#8
	str         w8,[sp,#0x10]

; 695  :     return (unsigned char)((bias + scale * t) >> 16);

	ldr         w9,[sp,#0xC]
	ldr         w8,[sp,#0x10]
	mul         w9,w9,w8
	ldr         w8,[sp,#0x14]
	add         w8,w8,w9
	lsr         w8,w8,#0x10
	uxtb        w0,w8
	mov         w0,w0
	add         sp,sp,#0x20
	ret

	ENDP  ; |?stbir__linear_to_srgb_uchar@@YAEM@Z|, stbir__linear_to_srgb_uchar

; Function compile flags: /Odtpy
; File C:\Users\paras\source\repos\grep-name\XenevaOS\Libs\Chitralekha\stb_image_resize.h

	AREA	|.text$mn|, CODE, ARM64

|?stbir__linear_to_srgb@@YAMM@Z| PROC			; stbir__linear_to_srgb

; 640  : {

	str         lr,[sp,#-0x10]!
	sub         sp,sp,#0x10
	str         s0,[sp]

; 641  :     if (f <= 0.0031308f)

	ldr         s17,|$LN5@stbir__lin|
	ldr         s16,[sp]
	fcmpe       s16,s17
	bhi         |$LN2@stbir__lin|

; 642  :         return f * 12.92f;

	ldr         s17,[sp]
	ldr         s16,|$LN6@stbir__lin|
	fmul        s0,s17,s16
	b           |$LN1@stbir__lin|
	b           |$LN3@stbir__lin|
|$LN2@stbir__lin|

; 643  :     else
; 644  :         return 1.055f * (float)pow(f, 1 / 2.4f) - 0.055f;

	ldr         s16,[sp]
	fcvt        d0,s16
	ldr         d1,|$LN7@stbir__lin|
	bl          pow
	fcvt        s17,d0
	ldr         s16,|$LN8@stbir__lin|
	fmul        s17,s16,s17
	ldr         s16,|$LN9@stbir__lin|
	fsub        s0,s17,s16
|$LN3@stbir__lin|
|$LN1@stbir__lin|
	add         sp,sp,#0x10
	ldr         lr,[sp],#0x10
	ret
|$LN7@stbir__lin|
	DCFD         0.416667
|$LN5@stbir__lin|
	DCFS         0.0031308
|$LN6@stbir__lin|
	DCFS         12.92
|$LN8@stbir__lin|
	DCFS         1.055
|$LN9@stbir__lin|
	DCFS         0.055

	ENDP  ; |?stbir__linear_to_srgb@@YAMM@Z|, stbir__linear_to_srgb

; Function compile flags: /Odtpy
; File C:\Users\paras\source\repos\grep-name\XenevaOS\Libs\Chitralekha\stb_image_resize.h

	AREA	|.text$mn|, CODE, ARM64

|?stbir__srgb_to_linear@@YAMM@Z| PROC			; stbir__srgb_to_linear

; 632  : {

	str         lr,[sp,#-0x10]!
	sub         sp,sp,#0x10
	str         s0,[sp]

; 633  :     if (f <= 0.04045f)

	ldr         s17,|$LN5@stbir__srg|
	ldr         s16,[sp]
	fcmpe       s16,s17
	bhi         |$LN2@stbir__srg|

; 634  :         return f / 12.92f;

	ldr         s17,[sp]
	ldr         s16,|$LN6@stbir__srg|
	fdiv        s0,s17,s16
	b           |$LN1@stbir__srg|
	b           |$LN3@stbir__srg|
|$LN2@stbir__srg|

; 635  :     else
; 636  :         return (float)pow((f + 0.055f) / 1.055f, 2.4f);

	ldr         s17,[sp]
	ldr         s16,|$LN7@stbir__srg|
	fadd        s17,s17,s16
	ldr         s16,|$LN8@stbir__srg|
	fdiv        s16,s17,s16
	fcvt        d0,s16
	ldr         d1,|$LN9@stbir__srg|
	bl          pow
	fcvt        s0,d0
|$LN3@stbir__srg|
|$LN1@stbir__srg|
	add         sp,sp,#0x10
	ldr         lr,[sp],#0x10
	ret
|$LN9@stbir__srg|
	DCFD         2.4
|$LN5@stbir__srg|
	DCFS         0.04045
|$LN6@stbir__srg|
	DCFS         12.92
|$LN7@stbir__srg|
	DCFS         0.055
|$LN8@stbir__srg|
	DCFS         1.055

	ENDP  ; |?stbir__srgb_to_linear@@YAMM@Z|, stbir__srgb_to_linear

; Function compile flags: /Odtpy
; File C:\Users\paras\source\repos\grep-name\XenevaOS\Libs\Chitralekha\stb_image_resize.h

	AREA	|.text$mn|, CODE, ARM64

|?stbir__saturate@@YAMM@Z| PROC				; stbir__saturate

; 570  : {

	sub         sp,sp,#0x10
	str         s0,[sp]

; 571  :     if (x < 0)

	ldr         s16,[sp]
	fcmpe       s16,#0
	bhs         |$LN2@stbir__sat|

; 572  :         return 0;

	movi        d0,#0
	b           |$LN1@stbir__sat|
|$LN2@stbir__sat|

; 573  : 
; 574  :     if (x > 1)

	fmov        s17,#1
	ldr         s16,[sp]
	fcmpe       s16,s17
	ble         |$LN3@stbir__sat|

; 575  :         return 1;

	fmov        s0,#1
	b           |$LN1@stbir__sat|
|$LN3@stbir__sat|

; 576  : 
; 577  :     return x;

	ldr         s0,[sp]
|$LN1@stbir__sat|
	add         sp,sp,#0x10
	ret

	ENDP  ; |?stbir__saturate@@YAMM@Z|, stbir__saturate

; Function compile flags: /Odtpy
; File C:\Users\paras\source\repos\grep-name\XenevaOS\Libs\Chitralekha\stb_image_resize.h

	AREA	|.text$mn|, CODE, ARM64

|?stbir__min@@YAHHH@Z| PROC				; stbir__min

; 560  : {

	sub         sp,sp,#0x10
	str         w0,[sp]
	str         w1,[sp,#4]

; 561  :     return a < b ? a : b;

	ldr         w9,[sp,#4]
	ldr         w8,[sp]
	cmp         w8,w9
	bge         |$LN3@stbir__min|
	ldr         w8,[sp]
	str         w8,[sp,#8]
	b           |$LN4@stbir__min|
|$LN3@stbir__min|
	ldr         w8,[sp,#4]
	str         w8,[sp,#8]
|$LN4@stbir__min|
	ldr         w0,[sp,#8]
	add         sp,sp,#0x10
	ret

	ENDP  ; |?stbir__min@@YAHHH@Z|, stbir__min

; Function compile flags: /Odtpy
; File C:\Users\paras\source\repos\grep-name\XenevaOS\Libs\Chitralekha\stb_image_resize.h

	AREA	|.text$mn|, CODE, ARM64

|stbir_resize_region| PROC

; 2578 : {

|$LN3|
	str         lr,[sp,#-0x10]!
	sub         sp,sp,#0xA0
	str         x0,[sp,#0x90]
	str         w1,[sp,#0x84]
	str         w2,[sp,#0x80]
	str         w3,[sp,#0x7C]
	str         x4,[sp,#0x88]
	str         w5,[sp,#0x78]
	str         w6,[sp,#0x74]
	str         w7,[sp,#0x70]
	str         s0,[sp,#0x6C]
	str         s1,[sp,#0x68]
	str         s2,[sp,#0x64]
	str         s3,[sp,#0x60]

; 2579 :     return stbir__resize_arbitrary(alloc_context, input_pixels, input_w, input_h, input_stride_in_bytes,

	ldr         w8,[sp,#0xF0]
	str         w8,[sp,#0x50]
	ldr         w8,[sp,#0xD8]
	str         w8,[sp,#0x48]
	ldr         w8,[sp,#0xD0]
	str         w8,[sp,#0x40]
	ldr         w8,[sp,#0xE8]
	str         w8,[sp,#0x38]
	ldr         w8,[sp,#0xE0]
	str         w8,[sp,#0x30]
	ldr         w8,[sp,#0xB0]
	str         w8,[sp,#0x28]
	ldr         w8,[sp,#0xC8]
	str         w8,[sp,#0x20]
	ldr         w8,[sp,#0xC0]
	str         w8,[sp,#0x18]
	ldr         w8,[sp,#0xB8]
	str         w8,[sp,#0x10]
	mov         x8,#0
	str         x8,[sp,#8]
	ldr         s3,[sp,#0x60]
	ldr         s2,[sp,#0x64]
	ldr         s1,[sp,#0x68]
	ldr         s0,[sp,#0x6C]
	ldr         w8,[sp,#0x70]
	str         w8,[sp]
	ldr         w7,[sp,#0x74]
	ldr         w6,[sp,#0x78]
	ldr         x5,[sp,#0x88]
	ldr         w4,[sp,#0x7C]
	ldr         w3,[sp,#0x80]
	ldr         w2,[sp,#0x84]
	ldr         x1,[sp,#0x90]
	ldr         x0,[sp,#0xF8]
	bl          |?stbir__resize_arbitrary@@YAHPEAXPEBXHHH0HHHMMMMPEAMHHIW4stbir_datatype@@W4stbir_filter@@4W4stbir_edge@@5W4stbir_colorspace@@@Z|
	mov         w0,w0
	mov         w0,w0
	add         sp,sp,#0xA0
	ldr         lr,[sp],#0x10
	ret

	ENDP  ; |stbir_resize_region|

; Function compile flags: /Odtpy
; File C:\Users\paras\source\repos\grep-name\XenevaOS\Libs\Chitralekha\stb_image_resize.h

	AREA	|.text$mn|, CODE, ARM64

|stbir_resize_subpixel| PROC

; 2558 : {

|$LN3|
	str         lr,[sp,#-0x10]!
	sub         sp,sp,#0xB0
	str         x0,[sp,#0xA0]
	str         w1,[sp,#0x84]
	str         w2,[sp,#0x80]
	str         w3,[sp,#0x7C]
	str         x4,[sp,#0x98]
	str         w5,[sp,#0x78]
	str         w6,[sp,#0x74]
	str         w7,[sp,#0x70]
	str         s0,[sp,#0x60]
	str         s1,[sp,#0x64]
	str         s2,[sp,#0x68]
	str         s3,[sp,#0x6C]

; 2559 :     float transform[4];
; 2560 :     transform[0] = x_scale;

	ldr         s16,[sp,#0x60]
	str         s16,[sp,#0x88]

; 2561 :     transform[1] = y_scale;

	ldr         s16,[sp,#0x64]
	str         s16,[sp,#0x8C]

; 2562 :     transform[2] = x_offset;

	ldr         s16,[sp,#0x68]
	str         s16,[sp,#0x90]

; 2563 :     transform[3] = y_offset;

	ldr         s16,[sp,#0x6C]
	str         s16,[sp,#0x94]

; 2564 :     return stbir__resize_arbitrary(alloc_context, input_pixels, input_w, input_h, input_stride_in_bytes,

	ldr         w8,[sp,#0x100]
	str         w8,[sp,#0x50]
	ldr         w8,[sp,#0xE8]
	str         w8,[sp,#0x48]
	ldr         w8,[sp,#0xE0]
	str         w8,[sp,#0x40]
	ldr         w8,[sp,#0xF8]
	str         w8,[sp,#0x38]
	ldr         w8,[sp,#0xF0]
	str         w8,[sp,#0x30]
	ldr         w8,[sp,#0xC0]
	str         w8,[sp,#0x28]
	ldr         w8,[sp,#0xD8]
	str         w8,[sp,#0x20]
	ldr         w8,[sp,#0xD0]
	str         w8,[sp,#0x18]
	ldr         w8,[sp,#0xC8]
	str         w8,[sp,#0x10]
	add         x8,sp,#0x88
	str         x8,[sp,#8]
	fmov        s3,#1
	fmov        s2,#1
	movi        d1,#0
	movi        d0,#0
	ldr         w8,[sp,#0x70]
	str         w8,[sp]
	ldr         w7,[sp,#0x74]
	ldr         w6,[sp,#0x78]
	ldr         x5,[sp,#0x98]
	ldr         w4,[sp,#0x7C]
	ldr         w3,[sp,#0x80]
	ldr         w2,[sp,#0x84]
	ldr         x1,[sp,#0xA0]
	ldr         x0,[sp,#0x108]
	bl          |?stbir__resize_arbitrary@@YAHPEAXPEBXHHH0HHHMMMMPEAMHHIW4stbir_datatype@@W4stbir_filter@@4W4stbir_edge@@5W4stbir_colorspace@@@Z|
	mov         w0,w0
	mov         w0,w0
	add         sp,sp,#0xB0
	ldr         lr,[sp],#0x10
	ret

	ENDP  ; |stbir_resize_subpixel|

; Function compile flags: /Odtpy
; File C:\Users\paras\source\repos\grep-name\XenevaOS\Libs\Chitralekha\stb_image_resize.h

	AREA	|.text$mn|, CODE, ARM64

|stbir_resize| PROC

; 2541 : {

|$LN3|
	str         lr,[sp,#-0x10]!
	sub         sp,sp,#0x90
	str         x0,[sp,#0x80]
	str         w1,[sp,#0x74]
	str         w2,[sp,#0x70]
	str         w3,[sp,#0x6C]
	str         x4,[sp,#0x78]
	str         w5,[sp,#0x68]
	str         w6,[sp,#0x64]
	str         w7,[sp,#0x60]

; 2542 :     return stbir__resize_arbitrary(alloc_context, input_pixels, input_w, input_h, input_stride_in_bytes,

	ldr         w8,[sp,#0xE0]
	str         w8,[sp,#0x50]
	ldr         w8,[sp,#0xC8]
	str         w8,[sp,#0x48]
	ldr         w8,[sp,#0xC0]
	str         w8,[sp,#0x40]
	ldr         w8,[sp,#0xD8]
	str         w8,[sp,#0x38]
	ldr         w8,[sp,#0xD0]
	str         w8,[sp,#0x30]
	ldr         w8,[sp,#0xA0]
	str         w8,[sp,#0x28]
	ldr         w8,[sp,#0xB8]
	str         w8,[sp,#0x20]
	ldr         w8,[sp,#0xB0]
	str         w8,[sp,#0x18]
	ldr         w8,[sp,#0xA8]
	str         w8,[sp,#0x10]
	mov         x8,#0
	str         x8,[sp,#8]
	fmov        s3,#1
	fmov        s2,#1
	movi        d1,#0
	movi        d0,#0
	ldr         w8,[sp,#0x60]
	str         w8,[sp]
	ldr         w7,[sp,#0x64]
	ldr         w6,[sp,#0x68]
	ldr         x5,[sp,#0x78]
	ldr         w4,[sp,#0x6C]
	ldr         w3,[sp,#0x70]
	ldr         w2,[sp,#0x74]
	ldr         x1,[sp,#0x80]
	ldr         x0,[sp,#0xE8]
	bl          |?stbir__resize_arbitrary@@YAHPEAXPEBXHHH0HHHMMMMPEAMHHIW4stbir_datatype@@W4stbir_filter@@4W4stbir_edge@@5W4stbir_colorspace@@@Z|
	mov         w0,w0
	mov         w0,w0
	add         sp,sp,#0x90
	ldr         lr,[sp],#0x10
	ret

	ENDP  ; |stbir_resize|

; Function compile flags: /Odtpy
; File C:\Users\paras\source\repos\grep-name\XenevaOS\Libs\Chitralekha\stb_image_resize.h

	AREA	|.text$mn|, CODE, ARM64

|stbir_resize_float_generic| PROC

; 2526 : {

|$LN3|
	str         lr,[sp,#-0x10]!
	sub         sp,sp,#0x90
	str         x0,[sp,#0x80]
	str         w1,[sp,#0x74]
	str         w2,[sp,#0x70]
	str         w3,[sp,#0x6C]
	str         x4,[sp,#0x78]
	str         w5,[sp,#0x68]
	str         w6,[sp,#0x64]
	str         w7,[sp,#0x60]

; 2527 :     return stbir__resize_arbitrary(alloc_context, input_pixels, input_w, input_h, input_stride_in_bytes,

	ldr         w8,[sp,#0xC8]
	str         w8,[sp,#0x50]
	ldr         w8,[sp,#0xB8]
	str         w8,[sp,#0x48]
	ldr         w8,[sp,#0xB8]
	str         w8,[sp,#0x40]
	ldr         w8,[sp,#0xC0]
	str         w8,[sp,#0x38]
	ldr         w8,[sp,#0xC0]
	str         w8,[sp,#0x30]
	mov         w8,#3
	str         w8,[sp,#0x28]
	ldr         w8,[sp,#0xB0]
	str         w8,[sp,#0x20]
	ldr         w8,[sp,#0xA8]
	str         w8,[sp,#0x18]
	ldr         w8,[sp,#0xA0]
	str         w8,[sp,#0x10]
	mov         x8,#0
	str         x8,[sp,#8]
	fmov        s3,#1
	fmov        s2,#1
	movi        d1,#0
	movi        d0,#0
	ldr         w8,[sp,#0x60]
	str         w8,[sp]
	ldr         w7,[sp,#0x64]
	ldr         w6,[sp,#0x68]
	ldr         x5,[sp,#0x78]
	ldr         w4,[sp,#0x6C]
	ldr         w3,[sp,#0x70]
	ldr         w2,[sp,#0x74]
	ldr         x1,[sp,#0x80]
	ldr         x0,[sp,#0xD0]
	bl          |?stbir__resize_arbitrary@@YAHPEAXPEBXHHH0HHHMMMMPEAMHHIW4stbir_datatype@@W4stbir_filter@@4W4stbir_edge@@5W4stbir_colorspace@@@Z|
	mov         w0,w0
	mov         w0,w0
	add         sp,sp,#0x90
	ldr         lr,[sp],#0x10
	ret

	ENDP  ; |stbir_resize_float_generic|

; Function compile flags: /Odtpy
; File C:\Users\paras\source\repos\grep-name\XenevaOS\Libs\Chitralekha\stb_image_resize.h

	AREA	|.text$mn|, CODE, ARM64

|stbir_resize_uint16_generic| PROC

; 2513 : {

|$LN3|
	str         lr,[sp,#-0x10]!
	sub         sp,sp,#0x90
	str         x0,[sp,#0x80]
	str         w1,[sp,#0x74]
	str         w2,[sp,#0x70]
	str         w3,[sp,#0x6C]
	str         x4,[sp,#0x78]
	str         w5,[sp,#0x68]
	str         w6,[sp,#0x64]
	str         w7,[sp,#0x60]

; 2514 :     return stbir__resize_arbitrary(alloc_context, input_pixels, input_w, input_h, input_stride_in_bytes,

	ldr         w8,[sp,#0xC8]
	str         w8,[sp,#0x50]
	ldr         w8,[sp,#0xB8]
	str         w8,[sp,#0x48]
	ldr         w8,[sp,#0xB8]
	str         w8,[sp,#0x40]
	ldr         w8,[sp,#0xC0]
	str         w8,[sp,#0x38]
	ldr         w8,[sp,#0xC0]
	str         w8,[sp,#0x30]
	mov         w8,#1
	str         w8,[sp,#0x28]
	ldr         w8,[sp,#0xB0]
	str         w8,[sp,#0x20]
	ldr         w8,[sp,#0xA8]
	str         w8,[sp,#0x18]
	ldr         w8,[sp,#0xA0]
	str         w8,[sp,#0x10]
	mov         x8,#0
	str         x8,[sp,#8]
	fmov        s3,#1
	fmov        s2,#1
	movi        d1,#0
	movi        d0,#0
	ldr         w8,[sp,#0x60]
	str         w8,[sp]
	ldr         w7,[sp,#0x64]
	ldr         w6,[sp,#0x68]
	ldr         x5,[sp,#0x78]
	ldr         w4,[sp,#0x6C]
	ldr         w3,[sp,#0x70]
	ldr         w2,[sp,#0x74]
	ldr         x1,[sp,#0x80]
	ldr         x0,[sp,#0xD0]
	bl          |?stbir__resize_arbitrary@@YAHPEAXPEBXHHH0HHHMMMMPEAMHHIW4stbir_datatype@@W4stbir_filter@@4W4stbir_edge@@5W4stbir_colorspace@@@Z|
	mov         w0,w0
	mov         w0,w0
	add         sp,sp,#0x90
	ldr         lr,[sp],#0x10
	ret

	ENDP  ; |stbir_resize_uint16_generic|

; Function compile flags: /Odtpy
; File C:\Users\paras\source\repos\grep-name\XenevaOS\Libs\Chitralekha\stb_image_resize.h

	AREA	|.text$mn|, CODE, ARM64

|stbir_resize_uint8_generic| PROC

; 2501 : {

|$LN3|
	str         lr,[sp,#-0x10]!
	sub         sp,sp,#0x90
	str         x0,[sp,#0x80]
	str         w1,[sp,#0x74]
	str         w2,[sp,#0x70]
	str         w3,[sp,#0x6C]
	str         x4,[sp,#0x78]
	str         w5,[sp,#0x68]
	str         w6,[sp,#0x64]
	str         w7,[sp,#0x60]

; 2502 :     return stbir__resize_arbitrary(alloc_context, input_pixels, input_w, input_h, input_stride_in_bytes,

	ldr         w8,[sp,#0xC8]
	str         w8,[sp,#0x50]
	ldr         w8,[sp,#0xB8]
	str         w8,[sp,#0x48]
	ldr         w8,[sp,#0xB8]
	str         w8,[sp,#0x40]
	ldr         w8,[sp,#0xC0]
	str         w8,[sp,#0x38]
	ldr         w8,[sp,#0xC0]
	str         w8,[sp,#0x30]
	mov         w8,#0
	str         w8,[sp,#0x28]
	ldr         w8,[sp,#0xB0]
	str         w8,[sp,#0x20]
	ldr         w8,[sp,#0xA8]
	str         w8,[sp,#0x18]
	ldr         w8,[sp,#0xA0]
	str         w8,[sp,#0x10]
	mov         x8,#0
	str         x8,[sp,#8]
	fmov        s3,#1
	fmov        s2,#1
	movi        d1,#0
	movi        d0,#0
	ldr         w8,[sp,#0x60]
	str         w8,[sp]
	ldr         w7,[sp,#0x64]
	ldr         w6,[sp,#0x68]
	ldr         x5,[sp,#0x78]
	ldr         w4,[sp,#0x6C]
	ldr         w3,[sp,#0x70]
	ldr         w2,[sp,#0x74]
	ldr         x1,[sp,#0x80]
	ldr         x0,[sp,#0xD0]
	bl          |?stbir__resize_arbitrary@@YAHPEAXPEBXHHH0HHHMMMMPEAMHHIW4stbir_datatype@@W4stbir_filter@@4W4stbir_edge@@5W4stbir_colorspace@@@Z|
	mov         w0,w0
	mov         w0,w0
	add         sp,sp,#0x90
	ldr         lr,[sp],#0x10
	ret

	ENDP  ; |stbir_resize_uint8_generic|

; Function compile flags: /Odtpy
; File C:\Users\paras\source\repos\grep-name\XenevaOS\Libs\Chitralekha\stb_image_resize.h

	AREA	|.text$mn|, CODE, ARM64

|stbir_resize_uint8_srgb_edgemode| PROC

; 2489 : {

|$LN3|
	str         lr,[sp,#-0x10]!
	sub         sp,sp,#0x90
	str         x0,[sp,#0x80]
	str         w1,[sp,#0x74]
	str         w2,[sp,#0x70]
	str         w3,[sp,#0x6C]
	str         x4,[sp,#0x78]
	str         w5,[sp,#0x68]
	str         w6,[sp,#0x64]
	str         w7,[sp,#0x60]

; 2490 :     return stbir__resize_arbitrary(NULL, input_pixels, input_w, input_h, input_stride_in_bytes,

	mov         w8,#1
	str         w8,[sp,#0x50]
	ldr         w8,[sp,#0xB8]
	str         w8,[sp,#0x48]
	ldr         w8,[sp,#0xB8]
	str         w8,[sp,#0x40]
	mov         w8,#0
	str         w8,[sp,#0x38]
	mov         w8,#0
	str         w8,[sp,#0x30]
	mov         w8,#0
	str         w8,[sp,#0x28]
	ldr         w8,[sp,#0xB0]
	str         w8,[sp,#0x20]
	ldr         w8,[sp,#0xA8]
	str         w8,[sp,#0x18]
	ldr         w8,[sp,#0xA0]
	str         w8,[sp,#0x10]
	mov         x8,#0
	str         x8,[sp,#8]
	fmov        s3,#1
	fmov        s2,#1
	movi        d1,#0
	movi        d0,#0
	ldr         w8,[sp,#0x60]
	str         w8,[sp]
	ldr         w7,[sp,#0x64]
	ldr         w6,[sp,#0x68]
	ldr         x5,[sp,#0x78]
	ldr         w4,[sp,#0x6C]
	ldr         w3,[sp,#0x70]
	ldr         w2,[sp,#0x74]
	ldr         x1,[sp,#0x80]
	mov         x0,#0
	bl          |?stbir__resize_arbitrary@@YAHPEAXPEBXHHH0HHHMMMMPEAMHHIW4stbir_datatype@@W4stbir_filter@@4W4stbir_edge@@5W4stbir_colorspace@@@Z|
	mov         w0,w0
	mov         w0,w0
	add         sp,sp,#0x90
	ldr         lr,[sp],#0x10
	ret

	ENDP  ; |stbir_resize_uint8_srgb_edgemode|

; Function compile flags: /Odtpy
; File C:\Users\paras\source\repos\grep-name\XenevaOS\Libs\Chitralekha\stb_image_resize.h

	AREA	|.text$mn|, CODE, ARM64

|stbir_resize_uint8_srgb| PROC

; 2478 : {

|$LN3|
	str         lr,[sp,#-0x10]!
	sub         sp,sp,#0x90
	str         x0,[sp,#0x80]
	str         w1,[sp,#0x74]
	str         w2,[sp,#0x70]
	str         w3,[sp,#0x6C]
	str         x4,[sp,#0x78]
	str         w5,[sp,#0x68]
	str         w6,[sp,#0x64]
	str         w7,[sp,#0x60]

; 2479 :     return stbir__resize_arbitrary(NULL, input_pixels, input_w, input_h, input_stride_in_bytes,

	mov         w8,#1
	str         w8,[sp,#0x50]
	mov         w8,#1
	str         w8,[sp,#0x48]
	mov         w8,#1
	str         w8,[sp,#0x40]
	mov         w8,#0
	str         w8,[sp,#0x38]
	mov         w8,#0
	str         w8,[sp,#0x30]
	mov         w8,#0
	str         w8,[sp,#0x28]
	ldr         w8,[sp,#0xB0]
	str         w8,[sp,#0x20]
	ldr         w8,[sp,#0xA8]
	str         w8,[sp,#0x18]
	ldr         w8,[sp,#0xA0]
	str         w8,[sp,#0x10]
	mov         x8,#0
	str         x8,[sp,#8]
	fmov        s3,#1
	fmov        s2,#1
	movi        d1,#0
	movi        d0,#0
	ldr         w8,[sp,#0x60]
	str         w8,[sp]
	ldr         w7,[sp,#0x64]
	ldr         w6,[sp,#0x68]
	ldr         x5,[sp,#0x78]
	ldr         w4,[sp,#0x6C]
	ldr         w3,[sp,#0x70]
	ldr         w2,[sp,#0x74]
	ldr         x1,[sp,#0x80]
	mov         x0,#0
	bl          |?stbir__resize_arbitrary@@YAHPEAXPEBXHHH0HHHMMMMPEAMHHIW4stbir_datatype@@W4stbir_filter@@4W4stbir_edge@@5W4stbir_colorspace@@@Z|
	mov         w0,w0
	mov         w0,w0
	add         sp,sp,#0x90
	ldr         lr,[sp],#0x10
	ret

	ENDP  ; |stbir_resize_uint8_srgb|

; Function compile flags: /Odtpy
; File C:\Users\paras\source\repos\grep-name\XenevaOS\Libs\Chitralekha\stb_image_resize.h

	AREA	|.text$mn|, CODE, ARM64

|stbir_resize_float| PROC

; 2468 : {

|$LN3|
	str         lr,[sp,#-0x10]!
	sub         sp,sp,#0x90
	str         x0,[sp,#0x80]
	str         w1,[sp,#0x74]
	str         w2,[sp,#0x70]
	str         w3,[sp,#0x6C]
	str         x4,[sp,#0x78]
	str         w5,[sp,#0x68]
	str         w6,[sp,#0x64]
	str         w7,[sp,#0x60]

; 2469 :     return stbir__resize_arbitrary(NULL, input_pixels, input_w, input_h, input_stride_in_bytes,

	mov         w8,#0
	str         w8,[sp,#0x50]
	mov         w8,#1
	str         w8,[sp,#0x48]
	mov         w8,#1
	str         w8,[sp,#0x40]
	mov         w8,#0
	str         w8,[sp,#0x38]
	mov         w8,#0
	str         w8,[sp,#0x30]
	mov         w8,#3
	str         w8,[sp,#0x28]
	mov         w8,#0
	str         w8,[sp,#0x20]
	mov         w8,#-1
	str         w8,[sp,#0x18]
	ldr         w8,[sp,#0xA0]
	str         w8,[sp,#0x10]
	mov         x8,#0
	str         x8,[sp,#8]
	fmov        s3,#1
	fmov        s2,#1
	movi        d1,#0
	movi        d0,#0
	ldr         w8,[sp,#0x60]
	str         w8,[sp]
	ldr         w7,[sp,#0x64]
	ldr         w6,[sp,#0x68]
	ldr         x5,[sp,#0x78]
	ldr         w4,[sp,#0x6C]
	ldr         w3,[sp,#0x70]
	ldr         w2,[sp,#0x74]
	ldr         x1,[sp,#0x80]
	mov         x0,#0
	bl          |?stbir__resize_arbitrary@@YAHPEAXPEBXHHH0HHHMMMMPEAMHHIW4stbir_datatype@@W4stbir_filter@@4W4stbir_edge@@5W4stbir_colorspace@@@Z|
	mov         w0,w0
	mov         w0,w0
	add         sp,sp,#0x90
	ldr         lr,[sp],#0x10
	ret

	ENDP  ; |stbir_resize_float|

; Function compile flags: /Odtpy
; File C:\Users\paras\source\repos\grep-name\XenevaOS\Libs\Chitralekha\stb_image_resize.h

	AREA	|.text$mn|, CODE, ARM64

|stbir_resize_uint8| PROC

; 2458 : {

|$LN3|
	str         lr,[sp,#-0x10]!
	sub         sp,sp,#0x90
	str         x0,[sp,#0x80]
	str         w1,[sp,#0x74]
	str         w2,[sp,#0x70]
	str         w3,[sp,#0x6C]
	str         x4,[sp,#0x78]
	str         w5,[sp,#0x68]
	str         w6,[sp,#0x64]
	str         w7,[sp,#0x60]

; 2459 :     return stbir__resize_arbitrary(NULL, input_pixels, input_w, input_h, input_stride_in_bytes,

	mov         w8,#0
	str         w8,[sp,#0x50]
	mov         w8,#1
	str         w8,[sp,#0x48]
	mov         w8,#1
	str         w8,[sp,#0x40]
	mov         w8,#0
	str         w8,[sp,#0x38]
	mov         w8,#0
	str         w8,[sp,#0x30]
	mov         w8,#0
	str         w8,[sp,#0x28]
	mov         w8,#0
	str         w8,[sp,#0x20]
	mov         w8,#-1
	str         w8,[sp,#0x18]
	ldr         w8,[sp,#0xA0]
	str         w8,[sp,#0x10]
	mov         x8,#0
	str         x8,[sp,#8]
	fmov        s3,#1
	fmov        s2,#1
	movi        d1,#0
	movi        d0,#0
	ldr         w8,[sp,#0x60]
	str         w8,[sp]
	ldr         w7,[sp,#0x64]
	ldr         w6,[sp,#0x68]
	ldr         x5,[sp,#0x78]
	ldr         w4,[sp,#0x6C]
	ldr         w3,[sp,#0x70]
	ldr         w2,[sp,#0x74]
	ldr         x1,[sp,#0x80]
	mov         x0,#0
	bl          |?stbir__resize_arbitrary@@YAHPEAXPEBXHHH0HHHMMMMPEAMHHIW4stbir_datatype@@W4stbir_filter@@4W4stbir_edge@@5W4stbir_colorspace@@@Z|
	mov         w0,w0
	mov         w0,w0
	add         sp,sp,#0x90
	ldr         lr,[sp],#0x10
	ret

	ENDP  ; |stbir_resize_uint8|

; Function compile flags: /Odtpy
; File C:\Users\paras\source\repos\grep-name\XenevaOS\Libs\Chitralekha\nanojpg.h

	AREA	|.text$mn|, CODE, ARM64

|?_Decode@Decoder@Jpeg@@AEAA?AW4DecodeResult@12@PEBEH@Z| PROC ; Jpeg::Decoder::_Decode

; 628  : 		DecodeResult _Decode(const unsigned char* jpeg, const int size) {

|$LN22|
	str         lr,[sp,#-0x10]!
	sub         sp,sp,#0x20
	str         x0,[sp,#8]
	str         x1,[sp,#0x10]
	str         w2,[sp,#4]

; 629  : 			ctx.pos = (const unsigned char*)jpeg;

	ldr         x8,[sp,#8]
	add         x9,x8,#8
	ldr         x8,[sp,#0x10]
	str         x8,[x9]

; 630  : 			ctx.size = size & 0x7FFFFFFF;

	ldr         w8,[sp,#4]
	and         w9,w8,#0x7FFFFFFF
	ldr         x8,[sp,#8]
	add         x8,x8,#0x10
	str         w9,[x8]

; 631  : 			if (ctx.size < 2) return NotAJpeg;

	ldr         x8,[sp,#8]
	add         x8,x8,#0x10
	ldr         w8,[x8]
	cmp         w8,#2
	bge         |$LN6@Decode|
	mov         w0,#1
	b           |$LN1@Decode|
|$LN6@Decode|

; 632  : 			if ((ctx.pos[0] ^ 0xFF) | (ctx.pos[1] ^ 0xD8)) return NotAJpeg;

	ldr         x8,[sp,#8]
	add         x8,x8,#8
	ldr         x8,[x8]
	ldrb        w8,[x8]
	mov         w8,w8
	eor         w10,w8,#0xFF
	ldr         x8,[sp,#8]
	add         x8,x8,#8
	ldr         x8,[x8]
	add         x8,x8,#1
	ldrb        w9,[x8]
	mov         w9,w9
	mov         w8,#0xD8
	eor         w8,w9,w8
	orr         w8,w10,w8
	cmp         w8,#0
	beq         |$LN7@Decode|
	mov         w0,#1
	b           |$LN1@Decode|
|$LN7@Decode|

; 633  : 			_Skip(2);

	mov         w1,#2
	ldr         x0,[sp,#8]
	bl          |?_Skip@Decoder@Jpeg@@AEAAXH@Z|
|$LN2@Decode|

; 634  : 			while (!ctx.error) {

	ldr         x8,[sp,#8]
	ldr         w8,[x8]
	cmp         w8,#0
	bne         |$LN3@Decode|

; 635  : 				if ((ctx.size < 2) || (ctx.pos[0] != 0xFF)) return SyntaxError;

	ldr         x8,[sp,#8]
	add         x8,x8,#0x10
	ldr         w8,[x8]
	cmp         w8,#2
	blt         |$LN9@Decode|
	ldr         x8,[sp,#8]
	add         x8,x8,#8
	ldr         x8,[x8]
	ldrb        w8,[x8]
	mov         w8,w8
	cmp         w8,#0xFF
	beq         |$LN8@Decode|
|$LN9@Decode|
	mov         w0,#5
	b           |$LN1@Decode|
|$LN8@Decode|

; 636  : 				_Skip(2);

	mov         w1,#2
	ldr         x0,[sp,#8]
	bl          |?_Skip@Decoder@Jpeg@@AEAAXH@Z|

; 637  : 				switch (ctx.pos[-1]) {	

	ldr         x8,[sp,#8]
	add         x8,x8,#8
	ldr         x9,[x8]
	mov         x8,#-1
	add         x8,x9,x8
	ldrb        w8,[x8]
	mov         w8,w8
	str         w8,[sp]
	ldr         w8,[sp]
	cmp         w8,#0xDB
	bgt         |$LN21@Decode|
	ldr         w8,[sp]
	cmp         w8,#0xDB
	beq         |$LN12@Decode|
	ldr         w8,[sp]
	cmp         w8,#0xC0
	beq         |$LN10@Decode|
	ldr         w8,[sp]
	cmp         w8,#0xC4
	beq         |$LN11@Decode|
	ldr         w8,[sp]
	cmp         w8,#0xDA
	beq         |$LN14@Decode|
	b           |$LN16@Decode|
|$LN21@Decode|
	ldr         w8,[sp]
	cmp         w8,#0xDD
	beq         |$LN13@Decode|
	ldr         w8,[sp]
	cmp         w8,#0xFE
	beq         |$LN15@Decode|
	b           |$LN16@Decode|
|$LN10@Decode|

; 638  : 				case 0xC0:  _DecodeSOF();  break;

	ldr         x0,[sp,#8]
	bl          |?_DecodeSOF@Decoder@Jpeg@@AEAAXXZ|
	b           |$LN4@Decode|
|$LN11@Decode|

; 639  : 				case 0xC4:  _DecodeDHT();  break;

	ldr         x0,[sp,#8]
	bl          |?_DecodeDHT@Decoder@Jpeg@@AEAAXXZ|
	b           |$LN4@Decode|
|$LN12@Decode|

; 640  : 				case 0xDB:  _DecodeDQT();  break;

	ldr         x0,[sp,#8]
	bl          |?_DecodeDQT@Decoder@Jpeg@@AEAAXXZ|
	b           |$LN4@Decode|
|$LN13@Decode|

; 641  : 				case 0xDD:  _DecodeDRI();  break;

	ldr         x0,[sp,#8]
	bl          |?_DecodeDRI@Decoder@Jpeg@@AEAAXXZ|
	b           |$LN4@Decode|
|$LN14@Decode|

; 642  : 				case 0xDA:  _DecodeScan(); break;

	ldr         x0,[sp,#8]
	bl          |?_DecodeScan@Decoder@Jpeg@@AEAAXXZ|
	b           |$LN4@Decode|
|$LN15@Decode|

; 643  : 				case 0xFE:  _SkipMarker(); break;

	ldr         x0,[sp,#8]
	bl          |?_SkipMarker@Decoder@Jpeg@@AEAAXXZ|
	b           |$LN4@Decode|
|$LN16@Decode|

; 644  : 				default:
; 645  : 					if ((ctx.pos[-1] & 0xF0) == 0xE0){

	ldr         x8,[sp,#8]
	add         x8,x8,#8
	ldr         x9,[x8]
	mov         x8,#-1
	add         x8,x9,x8
	ldrb        w8,[x8]
	mov         w8,w8
	and         w8,w8,#0xF0
	cmp         w8,#0xE0
	bne         |$LN17@Decode|

; 646  : 						_SkipMarker();

	ldr         x0,[sp,#8]
	bl          |?_SkipMarker@Decoder@Jpeg@@AEAAXXZ|

; 647  : 					}

	b           |$LN18@Decode|
|$LN17@Decode|

; 648  : 					else
; 649  : 						return Unsupported;

	mov         w0,#2
	b           |$LN1@Decode|
|$LN18@Decode|
|$LN4@Decode|

; 650  : 				}
; 651  : 			}

	b           |$LN2@Decode|
|$LN3@Decode|

; 652  : 			if (ctx.error != Internal_Finished) return ctx.error;

	ldr         x8,[sp,#8]
	ldr         w8,[x8]
	cmp         w8,#6
	beq         |$LN19@Decode|
	ldr         x8,[sp,#8]
	ldr         w0,[x8]
	b           |$LN1@Decode|
|$LN19@Decode|

; 653  : 			ctx.error = OK;

	ldr         x9,[sp,#8]
	mov         w8,#0
	str         w8,[x9]

; 654  : 			_Convert();

	ldr         x0,[sp,#8]
	bl          |?_Convert@Decoder@Jpeg@@AEAAXXZ|

; 655  : 			return ctx.error;

	ldr         x8,[sp,#8]
	ldr         w0,[x8]
|$LN1@Decode|
	add         sp,sp,#0x20
	ldr         lr,[sp],#0x10
	ret

	ENDP  ; |?_Decode@Decoder@Jpeg@@AEAA?AW4DecodeResult@12@PEBEH@Z|, Jpeg::Decoder::_Decode

; Function compile flags: /Odtpy
; File C:\Users\paras\source\repos\grep-name\XenevaOS\Libs\Chitralekha\nanojpg.h

	AREA	|.text$mn|, CODE, ARM64

|?_Convert@Decoder@Jpeg@@AEAAXXZ| PROC			; Jpeg::Decoder::_Convert

; 580  : 		inline void _Convert() {

|$LN30|
	str         lr,[sp,#-0x10]!
	sub         sp,sp,#0x60
	str         x0,[sp]

; 581  : 			int i;
; 582  : 			Component* c;
; 583  : 			for (i = 0, c = ctx.comp; i < ctx.ncomp; ++i, ++c) {

	mov         w8,#0
	str         w8,[sp,#0x20]
	ldr         x8,[sp]
	add         x8,x8,#0x34
	str         x8,[sp,#0x10]
	b           |$LN4@Convert|
|$LN2@Convert|
	ldr         w8,[sp,#0x20]
	add         w8,w8,#1
	str         w8,[sp,#0x20]
	ldr         x8,[sp,#0x10]
	add         x8,x8,#0x30
	str         x8,[sp,#0x10]
|$LN4@Convert|
	ldr         x8,[sp]
	add         x8,x8,#0x30
	ldr         w9,[x8]
	ldr         w8,[sp,#0x20]
	cmp         w8,w9
	bge         |$LN3@Convert|
|$LN5@Convert|

; 584  : 				while ((c->width < ctx.width) || (c->height < ctx.height)) {

	ldr         x8,[sp,#0x10]
	add         x10,x8,#0xC
	ldr         x8,[sp]
	add         x8,x8,#0x18
	ldr         w9,[x8]
	ldr         w8,[x10]
	cmp         w8,w9
	blt         |$LN19@Convert|
	ldr         x8,[sp,#0x10]
	add         x10,x8,#0x10
	ldr         x8,[sp]
	add         x8,x8,#0x1C
	ldr         w9,[x8]
	ldr         w8,[x10]
	cmp         w8,w9
	bge         |$LN6@Convert|
|$LN19@Convert|

; 585  : 					if (c->width < ctx.width) _UpsampleH(c);

	ldr         x8,[sp,#0x10]
	add         x10,x8,#0xC
	ldr         x8,[sp]
	add         x8,x8,#0x18
	ldr         w9,[x8]
	ldr         w8,[x10]
	cmp         w8,w9
	bge         |$LN20@Convert|
	ldr         x1,[sp,#0x10]
	ldr         x0,[sp]
	bl          |?_UpsampleH@Decoder@Jpeg@@AEAAXPEAUComponent@12@@Z|
|$LN20@Convert|

; 586  : 					if (ctx.error) return;

	ldr         x8,[sp]
	ldr         w8,[x8]
	cmp         w8,#0
	beq         |$LN21@Convert|
	b           |$LN1@Convert|
|$LN21@Convert|

; 587  : 					if (c->height < ctx.height) _UpsampleV(c);

	ldr         x8,[sp,#0x10]
	add         x10,x8,#0x10
	ldr         x8,[sp]
	add         x8,x8,#0x1C
	ldr         w9,[x8]
	ldr         w8,[x10]
	cmp         w8,w9
	bge         |$LN22@Convert|
	ldr         x1,[sp,#0x10]
	ldr         x0,[sp]
	bl          |?_UpsampleV@Decoder@Jpeg@@AEAAXPEAUComponent@12@@Z|
|$LN22@Convert|

; 588  : 					if (ctx.error) return;

	ldr         x8,[sp]
	ldr         w8,[x8]
	cmp         w8,#0
	beq         |$LN23@Convert|
	b           |$LN1@Convert|
|$LN23@Convert|

; 589  : 				}

	b           |$LN5@Convert|
|$LN6@Convert|

; 590  : 				if ((c->width < ctx.width) || (c->height < ctx.height)) JPEG_DECODER_THROW(InternalError);

	ldr         x8,[sp,#0x10]
	add         x10,x8,#0xC
	ldr         x8,[sp]
	add         x8,x8,#0x18
	ldr         w9,[x8]
	ldr         w8,[x10]
	cmp         w8,w9
	blt         |$LN25@Convert|
	ldr         x8,[sp,#0x10]
	add         x10,x8,#0x10
	ldr         x8,[sp]
	add         x8,x8,#0x1C
	ldr         w9,[x8]
	ldr         w8,[x10]
	cmp         w8,w9
	bge         |$LN24@Convert|
|$LN25@Convert|
|$LN9@Convert|
	ldr         x9,[sp]
	mov         w8,#4
	str         w8,[x9]
	b           |$LN1@Convert|
	mov         w8,#0
	cmp         w8,#0
	bne         |$LN9@Convert|
|$LN24@Convert|

; 591  : 			}

	b           |$LN2@Convert|
|$LN3@Convert|

; 592  : 			
; 593  : 			if (ctx.ncomp == 3) {

	ldr         x8,[sp]
	add         x8,x8,#0x30
	ldr         w8,[x8]
	cmp         w8,#3
	bne         |$LN26@Convert|

; 594  : 				// convert to RGB
; 595  : 				int x, yy;
; 596  : 				unsigned char *prgb = ctx.rgb;

	ldr         x8,[sp]
	add         x8,x8,#0x80,lsl #0xC
	add         x8,x8,#0x2D8
	ldr         x8,[x8]
	str         x8,[sp,#0x18]

; 597  : 				const unsigned char *py = ctx.comp[0].pixels;

	ldr         x8,[sp]
	add         x8,x8,#0x34
	add         x8,x8,#0x28
	ldr         x8,[x8]
	str         x8,[sp,#0x38]

; 598  : 				const unsigned char *pcb = ctx.comp[1].pixels;

	ldr         x8,[sp]
	add         x8,x8,#0x64
	add         x8,x8,#0x28
	ldr         x8,[x8]
	str         x8,[sp,#0x40]

; 599  : 				const unsigned char *pcr = ctx.comp[2].pixels;

	ldr         x8,[sp]
	add         x8,x8,#0x94
	add         x8,x8,#0x28
	ldr         x8,[x8]
	str         x8,[sp,#0x48]

; 600  : 				for (yy = ctx.height; yy; --yy) {

	ldr         x8,[sp]
	add         x8,x8,#0x1C
	ldr         w8,[x8]
	str         w8,[sp,#0x24]
	b           |$LN12@Convert|
|$LN10@Convert|
	ldr         w8,[sp,#0x24]
	sub         w8,w8,#1
	str         w8,[sp,#0x24]
|$LN12@Convert|
	ldr         w8,[sp,#0x24]
	cmp         w8,#0
	beq         |$LN11@Convert|

; 601  : 					for (x = 0; x < ctx.width; ++x) {

	mov         w8,#0
	str         w8,[sp,#8]
	b           |$LN15@Convert|
|$LN13@Convert|
	ldr         w8,[sp,#8]
	add         w8,w8,#1
	str         w8,[sp,#8]
|$LN15@Convert|
	ldr         x8,[sp]
	add         x8,x8,#0x18
	ldr         w9,[x8]
	ldr         w8,[sp,#8]
	cmp         w8,w9
	bge         |$LN14@Convert|

; 602  : 						register int y = py[x] << 8;

	ldr         w8,[sp,#8]
	sxtw        x9,w8
	mov         x8,#1
	mul         x9,x9,x8
	ldr         x8,[sp,#0x38]
	add         x8,x8,x9
	ldrb        w8,[x8]
	mov         w8,w8
	lsl         w8,w8,#8
	str         w8,[sp,#0x28]

; 603  : 						register int cb = pcb[x] - 128;

	ldr         w8,[sp,#8]
	sxtw        x9,w8
	mov         x8,#1
	mul         x9,x9,x8
	ldr         x8,[sp,#0x40]
	add         x8,x8,x9
	ldrb        w8,[x8]
	mov         w8,w8
	sub         w8,w8,#0x80
	str         w8,[sp,#0x34]

; 604  : 						register int cr = pcr[x] - 128;

	ldr         w8,[sp,#8]
	sxtw        x9,w8
	mov         x8,#1
	mul         x9,x9,x8
	ldr         x8,[sp,#0x48]
	add         x8,x8,x9
	ldrb        w8,[x8]
	mov         w8,w8
	sub         w8,w8,#0x80
	str         w8,[sp,#0x30]

; 605  : 						*prgb++ = _Clip((y + 359 * cr + 128) >> 8);

	ldr         w9,[sp,#0x30]
	mov         w8,#0x167
	mul         w9,w9,w8
	ldr         w8,[sp,#0x28]
	add         w8,w8,w9
	add         w8,w8,#0x80
	asr         w1,w8,#8
	mov         w1,w1
	ldr         x0,[sp]
	bl          |?_Clip@Decoder@Jpeg@@AEAAEH@Z|
	uxtb        w9,w0
	ldr         x8,[sp,#0x18]
	strb        w9,[x8]
	ldr         x8,[sp,#0x18]
	add         x8,x8,#1
	str         x8,[sp,#0x18]

; 606  : 						*prgb++ = _Clip((y - 88 * cb - 183 * cr + 128) >> 8);

	ldr         w9,[sp,#0x34]
	mov         w8,#0x58
	mul         w9,w9,w8
	ldr         w8,[sp,#0x28]
	sub         w10,w8,w9
	ldr         w9,[sp,#0x30]
	mov         w8,#0xB7
	mul         w8,w9,w8
	sub         w8,w10,w8
	add         w8,w8,#0x80
	asr         w1,w8,#8
	mov         w1,w1
	ldr         x0,[sp]
	bl          |?_Clip@Decoder@Jpeg@@AEAAEH@Z|
	uxtb        w9,w0
	ldr         x8,[sp,#0x18]
	strb        w9,[x8]
	ldr         x8,[sp,#0x18]
	add         x8,x8,#1
	str         x8,[sp,#0x18]

; 607  : 						*prgb++ = _Clip((y + 454 * cb + 128) >> 8);

	ldr         w9,[sp,#0x34]
	mov         w8,#0x1C6
	mul         w9,w9,w8
	ldr         w8,[sp,#0x28]
	add         w8,w8,w9
	add         w8,w8,#0x80
	asr         w1,w8,#8
	mov         w1,w1
	ldr         x0,[sp]
	bl          |?_Clip@Decoder@Jpeg@@AEAAEH@Z|
	uxtb        w9,w0
	ldr         x8,[sp,#0x18]
	strb        w9,[x8]
	ldr         x8,[sp,#0x18]
	add         x8,x8,#1
	str         x8,[sp,#0x18]

; 608  : 					}

	b           |$LN13@Convert|
|$LN14@Convert|

; 609  : 					py += ctx.comp[0].stride;

	ldr         x8,[sp]
	add         x8,x8,#0x34
	add         x8,x8,#0x14
	ldr         w8,[x8]
	sxtw        x9,w8
	ldr         x8,[sp,#0x38]
	add         x8,x8,x9
	str         x8,[sp,#0x38]

; 610  : 					pcb += ctx.comp[1].stride;

	ldr         x8,[sp]
	add         x8,x8,#0x64
	add         x8,x8,#0x14
	ldr         w8,[x8]
	sxtw        x9,w8
	ldr         x8,[sp,#0x40]
	add         x8,x8,x9
	str         x8,[sp,#0x40]

; 611  : 					pcr += ctx.comp[2].stride;

	ldr         x8,[sp]
	add         x8,x8,#0x94
	add         x8,x8,#0x14
	ldr         w8,[x8]
	sxtw        x9,w8
	ldr         x8,[sp,#0x48]
	add         x8,x8,x9
	str         x8,[sp,#0x48]

; 612  : 				}

	b           |$LN10@Convert|
|$LN11@Convert|

; 613  : 			}

	b           |$LN27@Convert|
|$LN26@Convert|

; 614  : 			else if (ctx.comp[0].width != ctx.comp[0].stride) {

	ldr         x8,[sp]
	add         x8,x8,#0x34
	add         x10,x8,#0xC
	ldr         x8,[sp]
	add         x8,x8,#0x34
	add         x8,x8,#0x14
	ldr         w9,[x8]
	ldr         w8,[x10]
	cmp         w8,w9
	beq         |$LN28@Convert|

; 615  : 				// grayscale -> only remove stride
; 616  : 				unsigned char *pin = &ctx.comp[0].pixels[ctx.comp[0].stride];

	ldr         x8,[sp]
	add         x8,x8,#0x34
	add         x10,x8,#0x28
	ldr         x8,[sp]
	add         x8,x8,#0x34
	add         x8,x8,#0x14
	ldr         w8,[x8]
	sxtw        x9,w8
	mov         x8,#1
	mul         x9,x9,x8
	ldr         x8,[x10]
	add         x8,x8,x9
	str         x8,[sp,#0x50]

; 617  : 				unsigned char *pout = &ctx.comp[0].pixels[ctx.comp[0].width];

	ldr         x8,[sp]
	add         x8,x8,#0x34
	add         x10,x8,#0x28
	ldr         x8,[sp]
	add         x8,x8,#0x34
	add         x8,x8,#0xC
	ldr         w8,[x8]
	sxtw        x9,w8
	mov         x8,#1
	mul         x9,x9,x8
	ldr         x8,[x10]
	add         x8,x8,x9
	str         x8,[sp,#0x58]

; 618  : 				int y;
; 619  : 				for (y = ctx.comp[0].height - 1; y; --y) {

	ldr         x8,[sp]
	add         x8,x8,#0x34
	add         x8,x8,#0x10
	ldr         w8,[x8]
	sub         w8,w8,#1
	str         w8,[sp,#0x2C]
	b           |$LN18@Convert|
|$LN16@Convert|
	ldr         w8,[sp,#0x2C]
	sub         w8,w8,#1
	str         w8,[sp,#0x2C]
|$LN18@Convert|
	ldr         w8,[sp,#0x2C]
	cmp         w8,#0
	beq         |$LN17@Convert|

; 620  : 					memcpy(pout, pin, ctx.comp[0].width);

	ldr         x8,[sp]
	add         x8,x8,#0x34
	add         x8,x8,#0xC
	ldr         w8,[x8]
	sxtw        x2,w8
	ldr         x1,[sp,#0x50]
	ldr         x0,[sp,#0x58]
	bl          memcpy

; 621  : 					pin += ctx.comp[0].stride;

	ldr         x8,[sp]
	add         x8,x8,#0x34
	add         x8,x8,#0x14
	ldr         w8,[x8]
	sxtw        x9,w8
	ldr         x8,[sp,#0x50]
	add         x8,x8,x9
	str         x8,[sp,#0x50]

; 622  : 					pout += ctx.comp[0].width;

	ldr         x8,[sp]
	add         x8,x8,#0x34
	add         x8,x8,#0xC
	ldr         w8,[x8]
	sxtw        x9,w8
	ldr         x8,[sp,#0x58]
	add         x8,x8,x9
	str         x8,[sp,#0x58]

; 623  : 				}

	b           |$LN16@Convert|
|$LN17@Convert|

; 624  : 				ctx.comp[0].stride = ctx.comp[0].width;

	ldr         x8,[sp]
	add         x8,x8,#0x34
	add         x10,x8,#0xC
	ldr         x8,[sp]
	add         x8,x8,#0x34
	add         x9,x8,#0x14
	ldr         w8,[x10]
	str         w8,[x9]
|$LN28@Convert|
|$LN27@Convert|
|$LN1@Convert|
	add         sp,sp,#0x60
	ldr         lr,[sp],#0x10
	ret

	ENDP  ; |?_Convert@Decoder@Jpeg@@AEAAXXZ|, Jpeg::Decoder::_Convert

; Function compile flags: /Odtpy
; File C:\Users\paras\source\repos\grep-name\XenevaOS\Libs\Chitralekha\nanojpg.h

	AREA	|.text$mn|, CODE, ARM64

|?_UpsampleV@Decoder@Jpeg@@AEAAXPEAUComponent@12@@Z| PROC ; Jpeg::Decoder::_UpsampleV

; 551  : 		inline void _UpsampleV(Component* c) {

|$LN13|
	str         lr,[sp,#-0x10]!
	sub         sp,sp,#0x50
	str         x0,[sp,#0x30]
	str         x1,[sp,#0x20]

; 552  : 			const int w = c->width, s1 = c->stride, s2 = s1 + s1;

	ldr         x8,[sp,#0x20]
	add         x8,x8,#0xC
	ldr         w8,[x8]
	str         w8,[sp,#0x18]
	ldr         x8,[sp,#0x20]
	add         x8,x8,#0x14
	ldr         w8,[x8]
	str         w8,[sp]
	ldr         w9,[sp]
	ldr         w8,[sp]
	add         w8,w9,w8
	str         w8,[sp,#0x1C]

; 553  : 			unsigned char *out, *cin, *cout;
; 554  : 			int x, y;
; 555  : 			out = (unsigned char*)AllocMem((c->width * c->height) << 1);

	ldr         x8,[sp,#0x20]
	add         x9,x8,#0xC
	ldr         x8,[sp,#0x20]
	add         x8,x8,#0x10
	ldr         w9,[x9]
	ldr         w8,[x8]
	mul         w8,w9,w8
	lsl         w0,w8,#1
	ldr         x8,[sp,#0x30]
	add         x8,x8,#0x80,lsl #0xC
	add         x8,x8,#0x320
	mov         w0,w0
	ldr         x8,[x8]
	blr         x8
	str         x0,[sp,#0x40]

; 556  : 			if (!out) JPEG_DECODER_THROW(OutOfMemory);

	ldr         x8,[sp,#0x40]
	cmp         x8,#0
	bne         |$LN11@UpsampleV|
|$LN4@UpsampleV|
	ldr         x9,[sp,#0x30]
	mov         w8,#3
	str         w8,[x9]
	b           |$LN1@UpsampleV|
	mov         w8,#0
	cmp         w8,#0
	bne         |$LN4@UpsampleV|
|$LN11@UpsampleV|

; 557  : 			for (x = 0; x < w; ++x) {

	mov         w8,#0
	str         w8,[sp,#0x28]
	b           |$LN7@UpsampleV|
|$LN5@UpsampleV|
	ldr         w8,[sp,#0x28]
	add         w8,w8,#1
	str         w8,[sp,#0x28]
|$LN7@UpsampleV|
	ldr         w9,[sp,#0x18]
	ldr         w8,[sp,#0x28]
	cmp         w8,w9
	bge         |$LN6@UpsampleV|

; 558  : 				cin = &c->pixels[x];

	ldr         x8,[sp,#0x20]
	add         x10,x8,#0x28
	ldr         w8,[sp,#0x28]
	sxtw        x9,w8
	mov         x8,#1
	mul         x9,x9,x8
	ldr         x8,[x10]
	add         x8,x8,x9
	str         x8,[sp,#8]

; 559  : 				cout = &out[x];

	ldr         w8,[sp,#0x28]
	sxtw        x9,w8
	mov         x8,#1
	mul         x9,x9,x8
	ldr         x8,[sp,#0x40]
	add         x8,x8,x9
	str         x8,[sp,#0x10]

; 560  : 				*cout = CF(CF2A * cin[0] + CF2B * cin[s1]);  cout += w;

	ldr         x8,[sp,#8]
	ldrb        w9,[x8]
	mov         w9,w9
	mov         w8,#0x8B
	mul         w10,w9,w8
	ldr         w8,[sp]
	sxtw        x9,w8
	mov         x8,#1
	mul         x9,x9,x8
	ldr         x8,[sp,#8]
	add         x8,x8,x9
	ldrb        w9,[x8]
	mov         w9,w9
	mov         w8,#-0xB
	mul         w8,w9,w8
	add         w1,w10,w8
	mov         w1,w1
	ldr         x0,[sp,#0x30]
	bl          |?CF@Decoder@Jpeg@@AEAAEH@Z|
	uxtb        w9,w0
	ldr         x8,[sp,#0x10]
	strb        w9,[x8]
	ldr         w8,[sp,#0x18]
	sxtw        x9,w8
	ldr         x8,[sp,#0x10]
	add         x8,x8,x9
	str         x8,[sp,#0x10]

; 561  : 				*cout = CF(CF3X * cin[0] + CF3Y * cin[s1] + CF3Z * cin[s2]);  cout += w;

	ldr         x8,[sp,#8]
	ldrb        w9,[x8]
	mov         w9,w9
	mov         w8,#0x68
	mul         w10,w9,w8
	ldr         w8,[sp]
	sxtw        x9,w8
	mov         x8,#1
	mul         x9,x9,x8
	ldr         x8,[sp,#8]
	add         x8,x8,x9
	ldrb        w9,[x8]
	mov         w9,w9
	mov         w8,#0x1B
	mul         w8,w9,w8
	add         w10,w10,w8
	ldr         w8,[sp,#0x1C]
	sxtw        x9,w8
	mov         x8,#1
	mul         x9,x9,x8
	ldr         x8,[sp,#8]
	add         x8,x8,x9
	ldrb        w9,[x8]
	mov         w9,w9
	mov         w8,#-3
	mul         w8,w9,w8
	add         w1,w10,w8
	mov         w1,w1
	ldr         x0,[sp,#0x30]
	bl          |?CF@Decoder@Jpeg@@AEAAEH@Z|
	uxtb        w9,w0
	ldr         x8,[sp,#0x10]
	strb        w9,[x8]
	ldr         w8,[sp,#0x18]
	sxtw        x9,w8
	ldr         x8,[sp,#0x10]
	add         x8,x8,x9
	str         x8,[sp,#0x10]

; 562  : 				*cout = CF(CF3A * cin[0] + CF3B * cin[s1] + CF3C * cin[s2]);  cout += w;

	ldr         x8,[sp,#8]
	ldrb        w9,[x8]
	mov         w9,w9
	mov         w8,#0x1C
	mul         w10,w9,w8
	ldr         w8,[sp]
	sxtw        x9,w8
	mov         x8,#1
	mul         x9,x9,x8
	ldr         x8,[sp,#8]
	add         x8,x8,x9
	ldrb        w9,[x8]
	mov         w9,w9
	mov         w8,#0x6D
	mul         w8,w9,w8
	add         w10,w10,w8
	ldr         w8,[sp,#0x1C]
	sxtw        x9,w8
	mov         x8,#1
	mul         x9,x9,x8
	ldr         x8,[sp,#8]
	add         x8,x8,x9
	ldrb        w9,[x8]
	mov         w9,w9
	mov         w8,#-9
	mul         w8,w9,w8
	add         w1,w10,w8
	mov         w1,w1
	ldr         x0,[sp,#0x30]
	bl          |?CF@Decoder@Jpeg@@AEAAEH@Z|
	uxtb        w9,w0
	ldr         x8,[sp,#0x10]
	strb        w9,[x8]
	ldr         w8,[sp,#0x18]
	sxtw        x9,w8
	ldr         x8,[sp,#0x10]
	add         x8,x8,x9
	str         x8,[sp,#0x10]

; 563  : 				cin += s1;

	ldr         w8,[sp]
	sxtw        x9,w8
	ldr         x8,[sp,#8]
	add         x8,x8,x9
	str         x8,[sp,#8]

; 564  : 				for (y = c->height - 3; y; --y) {

	ldr         x8,[sp,#0x20]
	add         x8,x8,#0x10
	ldr         w8,[x8]
	sub         w8,w8,#3
	str         w8,[sp,#0x38]
	b           |$LN10@UpsampleV|
|$LN8@UpsampleV|
	ldr         w8,[sp,#0x38]
	sub         w8,w8,#1
	str         w8,[sp,#0x38]
|$LN10@UpsampleV|
	ldr         w8,[sp,#0x38]
	cmp         w8,#0
	beq         |$LN9@UpsampleV|

; 565  : 					*cout = CF(CF4A * cin[-s1] + CF4B * cin[0] + CF4C * cin[s1] + CF4D * cin[s2]);  cout += w;

	ldr         w8,[sp]
	neg         w8,w8
	sxtw        x9,w8
	mov         x8,#1
	mul         x9,x9,x8
	ldr         x8,[sp,#8]
	add         x8,x8,x9
	ldrb        w9,[x8]
	mov         w9,w9
	mov         w8,#-9
	mul         w10,w9,w8
	ldr         x8,[sp,#8]
	ldrb        w9,[x8]
	mov         w9,w9
	mov         w8,#0x6F
	mul         w8,w9,w8
	add         w10,w10,w8
	ldr         w8,[sp]
	sxtw        x9,w8
	mov         x8,#1
	mul         x9,x9,x8
	ldr         x8,[sp,#8]
	add         x8,x8,x9
	ldrb        w9,[x8]
	mov         w9,w9
	mov         w8,#0x1D
	mul         w8,w9,w8
	add         w10,w10,w8
	ldr         w8,[sp,#0x1C]
	sxtw        x9,w8
	mov         x8,#1
	mul         x9,x9,x8
	ldr         x8,[sp,#8]
	add         x8,x8,x9
	ldrb        w9,[x8]
	mov         w9,w9
	mov         w8,#-3
	mul         w8,w9,w8
	add         w1,w10,w8
	mov         w1,w1
	ldr         x0,[sp,#0x30]
	bl          |?CF@Decoder@Jpeg@@AEAAEH@Z|
	uxtb        w9,w0
	ldr         x8,[sp,#0x10]
	strb        w9,[x8]
	ldr         w8,[sp,#0x18]
	sxtw        x9,w8
	ldr         x8,[sp,#0x10]
	add         x8,x8,x9
	str         x8,[sp,#0x10]

; 566  : 					*cout = CF(CF4D * cin[-s1] + CF4C * cin[0] + CF4B * cin[s1] + CF4A * cin[s2]);  cout += w;

	ldr         w8,[sp]
	neg         w8,w8
	sxtw        x9,w8
	mov         x8,#1
	mul         x9,x9,x8
	ldr         x8,[sp,#8]
	add         x8,x8,x9
	ldrb        w9,[x8]
	mov         w9,w9
	mov         w8,#-3
	mul         w10,w9,w8
	ldr         x8,[sp,#8]
	ldrb        w9,[x8]
	mov         w9,w9
	mov         w8,#0x1D
	mul         w8,w9,w8
	add         w10,w10,w8
	ldr         w8,[sp]
	sxtw        x9,w8
	mov         x8,#1
	mul         x9,x9,x8
	ldr         x8,[sp,#8]
	add         x8,x8,x9
	ldrb        w9,[x8]
	mov         w9,w9
	mov         w8,#0x6F
	mul         w8,w9,w8
	add         w10,w10,w8
	ldr         w8,[sp,#0x1C]
	sxtw        x9,w8
	mov         x8,#1
	mul         x9,x9,x8
	ldr         x8,[sp,#8]
	add         x8,x8,x9
	ldrb        w9,[x8]
	mov         w9,w9
	mov         w8,#-9
	mul         w8,w9,w8
	add         w1,w10,w8
	mov         w1,w1
	ldr         x0,[sp,#0x30]
	bl          |?CF@Decoder@Jpeg@@AEAAEH@Z|
	uxtb        w9,w0
	ldr         x8,[sp,#0x10]
	strb        w9,[x8]
	ldr         w8,[sp,#0x18]
	sxtw        x9,w8
	ldr         x8,[sp,#0x10]
	add         x8,x8,x9
	str         x8,[sp,#0x10]

; 567  : 					cin += s1;

	ldr         w8,[sp]
	sxtw        x9,w8
	ldr         x8,[sp,#8]
	add         x8,x8,x9
	str         x8,[sp,#8]

; 568  : 				}

	b           |$LN8@UpsampleV|
|$LN9@UpsampleV|

; 569  : 				cin += s1;

	ldr         w8,[sp]
	sxtw        x9,w8
	ldr         x8,[sp,#8]
	add         x8,x8,x9
	str         x8,[sp,#8]

; 570  : 				*cout = CF(CF3A * cin[0] + CF3B * cin[-s1] + CF3C * cin[-s2]);  cout += w;

	ldr         x8,[sp,#8]
	ldrb        w9,[x8]
	mov         w9,w9
	mov         w8,#0x1C
	mul         w10,w9,w8
	ldr         w8,[sp]
	neg         w8,w8
	sxtw        x9,w8
	mov         x8,#1
	mul         x9,x9,x8
	ldr         x8,[sp,#8]
	add         x8,x8,x9
	ldrb        w9,[x8]
	mov         w9,w9
	mov         w8,#0x6D
	mul         w8,w9,w8
	add         w10,w10,w8
	ldr         w8,[sp,#0x1C]
	neg         w8,w8
	sxtw        x9,w8
	mov         x8,#1
	mul         x9,x9,x8
	ldr         x8,[sp,#8]
	add         x8,x8,x9
	ldrb        w9,[x8]
	mov         w9,w9
	mov         w8,#-9
	mul         w8,w9,w8
	add         w1,w10,w8
	mov         w1,w1
	ldr         x0,[sp,#0x30]
	bl          |?CF@Decoder@Jpeg@@AEAAEH@Z|
	uxtb        w9,w0
	ldr         x8,[sp,#0x10]
	strb        w9,[x8]
	ldr         w8,[sp,#0x18]
	sxtw        x9,w8
	ldr         x8,[sp,#0x10]
	add         x8,x8,x9
	str         x8,[sp,#0x10]

; 571  : 				*cout = CF(CF3X * cin[0] + CF3Y * cin[-s1] + CF3Z * cin[-s2]);  cout += w;

	ldr         x8,[sp,#8]
	ldrb        w9,[x8]
	mov         w9,w9
	mov         w8,#0x68
	mul         w10,w9,w8
	ldr         w8,[sp]
	neg         w8,w8
	sxtw        x9,w8
	mov         x8,#1
	mul         x9,x9,x8
	ldr         x8,[sp,#8]
	add         x8,x8,x9
	ldrb        w9,[x8]
	mov         w9,w9
	mov         w8,#0x1B
	mul         w8,w9,w8
	add         w10,w10,w8
	ldr         w8,[sp,#0x1C]
	neg         w8,w8
	sxtw        x9,w8
	mov         x8,#1
	mul         x9,x9,x8
	ldr         x8,[sp,#8]
	add         x8,x8,x9
	ldrb        w9,[x8]
	mov         w9,w9
	mov         w8,#-3
	mul         w8,w9,w8
	add         w1,w10,w8
	mov         w1,w1
	ldr         x0,[sp,#0x30]
	bl          |?CF@Decoder@Jpeg@@AEAAEH@Z|
	uxtb        w9,w0
	ldr         x8,[sp,#0x10]
	strb        w9,[x8]
	ldr         w8,[sp,#0x18]
	sxtw        x9,w8
	ldr         x8,[sp,#0x10]
	add         x8,x8,x9
	str         x8,[sp,#0x10]

; 572  : 				*cout = CF(CF2A * cin[0] + CF2B * cin[-s1]);

	ldr         x8,[sp,#8]
	ldrb        w9,[x8]
	mov         w9,w9
	mov         w8,#0x8B
	mul         w10,w9,w8
	ldr         w8,[sp]
	neg         w8,w8
	sxtw        x9,w8
	mov         x8,#1
	mul         x9,x9,x8
	ldr         x8,[sp,#8]
	add         x8,x8,x9
	ldrb        w9,[x8]
	mov         w9,w9
	mov         w8,#-0xB
	mul         w8,w9,w8
	add         w1,w10,w8
	mov         w1,w1
	ldr         x0,[sp,#0x30]
	bl          |?CF@Decoder@Jpeg@@AEAAEH@Z|
	uxtb        w9,w0
	ldr         x8,[sp,#0x10]
	strb        w9,[x8]

; 573  : 			}

	b           |$LN5@UpsampleV|
|$LN6@UpsampleV|

; 574  : 			c->height <<= 1;

	ldr         x8,[sp,#0x20]
	add         x8,x8,#0x10
	ldr         w8,[x8]
	lsl         w9,w8,#1
	ldr         x8,[sp,#0x20]
	add         x8,x8,#0x10
	str         w9,[x8]

; 575  : 			c->stride = c->width;

	ldr         x8,[sp,#0x20]
	add         x10,x8,#0xC
	ldr         x8,[sp,#0x20]
	add         x9,x8,#0x14
	ldr         w8,[x10]
	str         w8,[x9]

; 576  : 			FreeMem(c->pixels);

	ldr         x8,[sp,#0x20]
	add         x9,x8,#0x28
	ldr         x8,[sp,#0x30]
	add         x8,x8,#0x80,lsl #0xC
	add         x8,x8,#0x328
	ldr         x0,[x9]
	ldr         x8,[x8]
	blr         x8

; 577  : 			c->pixels = out;

	ldr         x8,[sp,#0x20]
	add         x9,x8,#0x28
	ldr         x8,[sp,#0x40]
	str         x8,[x9]
|$LN1@UpsampleV|
	add         sp,sp,#0x50
	ldr         lr,[sp],#0x10
	ret

	ENDP  ; |?_UpsampleV@Decoder@Jpeg@@AEAAXPEAUComponent@12@@Z|, Jpeg::Decoder::_UpsampleV

; Function compile flags: /Odtpy
; File C:\Users\paras\source\repos\grep-name\XenevaOS\Libs\Chitralekha\nanojpg.h

	AREA	|.text$mn|, CODE, ARM64

|?_UpsampleH@Decoder@Jpeg@@AEAAXPEAUComponent@12@@Z| PROC ; Jpeg::Decoder::_UpsampleH

; 523  : 		inline void _UpsampleH(Component* c) {

|$LN13|
	str         lr,[sp,#-0x10]!
	sub         sp,sp,#0x40
	str         x0,[sp,#0x20]
	str         x1,[sp,#0x18]

; 524  : 			const int xmax = c->width - 3;

	ldr         x8,[sp,#0x18]
	add         x8,x8,#0xC
	ldr         w8,[x8]
	sub         w8,w8,#3
	str         w8,[sp,#8]

; 525  : 			unsigned char *out, *lin, *lout;
; 526  : 			int x, y;
; 527  : 			out = (unsigned char*)AllocMem((c->width * c->height) << 1);

	ldr         x8,[sp,#0x18]
	add         x9,x8,#0xC
	ldr         x8,[sp,#0x18]
	add         x8,x8,#0x10
	ldr         w9,[x9]
	ldr         w8,[x8]
	mul         w8,w9,w8
	lsl         w0,w8,#1
	ldr         x8,[sp,#0x20]
	add         x8,x8,#0x80,lsl #0xC
	add         x8,x8,#0x320
	mov         w0,w0
	ldr         x8,[x8]
	blr         x8
	str         x0,[sp,#0x30]

; 528  : 			if (!out) JPEG_DECODER_THROW(OutOfMemory);

	ldr         x8,[sp,#0x30]
	cmp         x8,#0
	bne         |$LN11@UpsampleH|
|$LN4@UpsampleH|
	ldr         x9,[sp,#0x20]
	mov         w8,#3
	str         w8,[x9]
	b           |$LN1@UpsampleH|
	mov         w8,#0
	cmp         w8,#0
	bne         |$LN4@UpsampleH|
|$LN11@UpsampleH|

; 529  : 			lin = c->pixels;

	ldr         x8,[sp,#0x18]
	add         x8,x8,#0x28
	ldr         x8,[x8]
	str         x8,[sp,#0x10]

; 530  : 			lout = out;

	ldr         x8,[sp,#0x30]
	str         x8,[sp,#0x28]

; 531  : 			for (y = c->height; y; --y) {

	ldr         x8,[sp,#0x18]
	add         x8,x8,#0x10
	ldr         w8,[x8]
	str         w8,[sp,#4]
	b           |$LN7@UpsampleH|
|$LN5@UpsampleH|
	ldr         w8,[sp,#4]
	sub         w8,w8,#1
	str         w8,[sp,#4]
|$LN7@UpsampleH|
	ldr         w8,[sp,#4]
	cmp         w8,#0
	beq         |$LN6@UpsampleH|

; 532  : 				lout[0] = CF(CF2A * lin[0] + CF2B * lin[1]);

	ldr         x8,[sp,#0x10]
	ldrb        w9,[x8]
	mov         w9,w9
	mov         w8,#0x8B
	mul         w10,w9,w8
	ldr         x8,[sp,#0x10]
	add         x8,x8,#1
	ldrb        w9,[x8]
	mov         w9,w9
	mov         w8,#-0xB
	mul         w8,w9,w8
	add         w1,w10,w8
	mov         w1,w1
	ldr         x0,[sp,#0x20]
	bl          |?CF@Decoder@Jpeg@@AEAAEH@Z|
	uxtb        w9,w0
	ldr         x8,[sp,#0x28]
	strb        w9,[x8]

; 533  : 				lout[1] = CF(CF3X * lin[0] + CF3Y * lin[1] + CF3Z * lin[2]);

	ldr         x8,[sp,#0x10]
	ldrb        w9,[x8]
	mov         w9,w9
	mov         w8,#0x68
	mul         w10,w9,w8
	ldr         x8,[sp,#0x10]
	add         x8,x8,#1
	ldrb        w9,[x8]
	mov         w9,w9
	mov         w8,#0x1B
	mul         w8,w9,w8
	add         w10,w10,w8
	ldr         x8,[sp,#0x10]
	add         x8,x8,#2
	ldrb        w9,[x8]
	mov         w9,w9
	mov         w8,#-3
	mul         w8,w9,w8
	add         w1,w10,w8
	mov         w1,w1
	ldr         x0,[sp,#0x20]
	bl          |?CF@Decoder@Jpeg@@AEAAEH@Z|
	uxtb        w9,w0
	ldr         x8,[sp,#0x28]
	add         x8,x8,#1
	strb        w9,[x8]

; 534  : 				lout[2] = CF(CF3A * lin[0] + CF3B * lin[1] + CF3C * lin[2]);

	ldr         x8,[sp,#0x10]
	ldrb        w9,[x8]
	mov         w9,w9
	mov         w8,#0x1C
	mul         w10,w9,w8
	ldr         x8,[sp,#0x10]
	add         x8,x8,#1
	ldrb        w9,[x8]
	mov         w9,w9
	mov         w8,#0x6D
	mul         w8,w9,w8
	add         w10,w10,w8
	ldr         x8,[sp,#0x10]
	add         x8,x8,#2
	ldrb        w9,[x8]
	mov         w9,w9
	mov         w8,#-9
	mul         w8,w9,w8
	add         w1,w10,w8
	mov         w1,w1
	ldr         x0,[sp,#0x20]
	bl          |?CF@Decoder@Jpeg@@AEAAEH@Z|
	uxtb        w9,w0
	ldr         x8,[sp,#0x28]
	add         x8,x8,#2
	strb        w9,[x8]

; 535  : 				for (x = 0; x < xmax; ++x) {

	mov         w8,#0
	str         w8,[sp]
	b           |$LN10@UpsampleH|
|$LN8@UpsampleH|
	ldr         w8,[sp]
	add         w8,w8,#1
	str         w8,[sp]
|$LN10@UpsampleH|
	ldr         w9,[sp,#8]
	ldr         w8,[sp]
	cmp         w8,w9
	bge         |$LN9@UpsampleH|

; 536  : 					lout[(x << 1) + 3] = CF(CF4A * lin[x] + CF4B * lin[x + 1] + CF4C * lin[x + 2] + CF4D * lin[x + 3]);

	ldr         w8,[sp]
	sxtw        x9,w8
	mov         x8,#1
	mul         x9,x9,x8
	ldr         x8,[sp,#0x10]
	add         x8,x8,x9
	ldrb        w9,[x8]
	mov         w9,w9
	mov         w8,#-9
	mul         w10,w9,w8
	ldr         w8,[sp]
	add         w8,w8,#1
	sxtw        x9,w8
	mov         x8,#1
	mul         x9,x9,x8
	ldr         x8,[sp,#0x10]
	add         x8,x8,x9
	ldrb        w9,[x8]
	mov         w9,w9
	mov         w8,#0x6F
	mul         w8,w9,w8
	add         w10,w10,w8
	ldr         w8,[sp]
	add         w8,w8,#2
	sxtw        x9,w8
	mov         x8,#1
	mul         x9,x9,x8
	ldr         x8,[sp,#0x10]
	add         x8,x8,x9
	ldrb        w9,[x8]
	mov         w9,w9
	mov         w8,#0x1D
	mul         w8,w9,w8
	add         w10,w10,w8
	ldr         w8,[sp]
	add         w8,w8,#3
	sxtw        x9,w8
	mov         x8,#1
	mul         x9,x9,x8
	ldr         x8,[sp,#0x10]
	add         x8,x8,x9
	ldrb        w9,[x8]
	mov         w9,w9
	mov         w8,#-3
	mul         w8,w9,w8
	add         w1,w10,w8
	mov         w1,w1
	ldr         x0,[sp,#0x20]
	bl          |?CF@Decoder@Jpeg@@AEAAEH@Z|
	uxtb        w10,w0
	ldr         w8,[sp]
	lsl         w8,w8,#1
	add         w8,w8,#3
	sxtw        x9,w8
	mov         x8,#1
	mul         x9,x9,x8
	ldr         x8,[sp,#0x28]
	add         x8,x8,x9
	strb        w10,[x8]

; 537  : 					lout[(x << 1) + 4] = CF(CF4D * lin[x] + CF4C * lin[x + 1] + CF4B * lin[x + 2] + CF4A * lin[x + 3]);

	ldr         w8,[sp]
	sxtw        x9,w8
	mov         x8,#1
	mul         x9,x9,x8
	ldr         x8,[sp,#0x10]
	add         x8,x8,x9
	ldrb        w9,[x8]
	mov         w9,w9
	mov         w8,#-3
	mul         w10,w9,w8
	ldr         w8,[sp]
	add         w8,w8,#1
	sxtw        x9,w8
	mov         x8,#1
	mul         x9,x9,x8
	ldr         x8,[sp,#0x10]
	add         x8,x8,x9
	ldrb        w9,[x8]
	mov         w9,w9
	mov         w8,#0x1D
	mul         w8,w9,w8
	add         w10,w10,w8
	ldr         w8,[sp]
	add         w8,w8,#2
	sxtw        x9,w8
	mov         x8,#1
	mul         x9,x9,x8
	ldr         x8,[sp,#0x10]
	add         x8,x8,x9
	ldrb        w9,[x8]
	mov         w9,w9
	mov         w8,#0x6F
	mul         w8,w9,w8
	add         w10,w10,w8
	ldr         w8,[sp]
	add         w8,w8,#3
	sxtw        x9,w8
	mov         x8,#1
	mul         x9,x9,x8
	ldr         x8,[sp,#0x10]
	add         x8,x8,x9
	ldrb        w9,[x8]
	mov         w9,w9
	mov         w8,#-9
	mul         w8,w9,w8
	add         w1,w10,w8
	mov         w1,w1
	ldr         x0,[sp,#0x20]
	bl          |?CF@Decoder@Jpeg@@AEAAEH@Z|
	uxtb        w10,w0
	ldr         w8,[sp]
	lsl         w8,w8,#1
	add         w8,w8,#4
	sxtw        x9,w8
	mov         x8,#1
	mul         x9,x9,x8
	ldr         x8,[sp,#0x28]
	add         x8,x8,x9
	strb        w10,[x8]

; 538  : 				}

	b           |$LN8@UpsampleH|
|$LN9@UpsampleH|

; 539  : 				lin += c->stride;

	ldr         x8,[sp,#0x18]
	add         x8,x8,#0x14
	ldr         w8,[x8]
	sxtw        x9,w8
	ldr         x8,[sp,#0x10]
	add         x8,x8,x9
	str         x8,[sp,#0x10]

; 540  : 				lout += c->width << 1;

	ldr         x8,[sp,#0x18]
	add         x8,x8,#0xC
	ldr         w8,[x8]
	lsl         w8,w8,#1
	sxtw        x9,w8
	ldr         x8,[sp,#0x28]
	add         x8,x8,x9
	str         x8,[sp,#0x28]

; 541  : 				lout[-3] = CF(CF3A * lin[-1] + CF3B * lin[-2] + CF3C * lin[-3]);

	ldr         x9,[sp,#0x10]
	mov         x8,#-1
	add         x8,x9,x8
	ldrb        w9,[x8]
	mov         w9,w9
	mov         w8,#0x1C
	mul         w10,w9,w8
	ldr         x9,[sp,#0x10]
	mov         x8,#-2
	add         x8,x9,x8
	ldrb        w9,[x8]
	mov         w9,w9
	mov         w8,#0x6D
	mul         w8,w9,w8
	add         w10,w10,w8
	ldr         x9,[sp,#0x10]
	mov         x8,#-3
	add         x8,x9,x8
	ldrb        w9,[x8]
	mov         w9,w9
	mov         w8,#-9
	mul         w8,w9,w8
	add         w1,w10,w8
	mov         w1,w1
	ldr         x0,[sp,#0x20]
	bl          |?CF@Decoder@Jpeg@@AEAAEH@Z|
	uxtb        w10,w0
	ldr         x9,[sp,#0x28]
	mov         x8,#-3
	add         x8,x9,x8
	strb        w10,[x8]

; 542  : 				lout[-2] = CF(CF3X * lin[-1] + CF3Y * lin[-2] + CF3Z * lin[-3]);

	ldr         x9,[sp,#0x10]
	mov         x8,#-1
	add         x8,x9,x8
	ldrb        w9,[x8]
	mov         w9,w9
	mov         w8,#0x68
	mul         w10,w9,w8
	ldr         x9,[sp,#0x10]
	mov         x8,#-2
	add         x8,x9,x8
	ldrb        w9,[x8]
	mov         w9,w9
	mov         w8,#0x1B
	mul         w8,w9,w8
	add         w10,w10,w8
	ldr         x9,[sp,#0x10]
	mov         x8,#-3
	add         x8,x9,x8
	ldrb        w9,[x8]
	mov         w9,w9
	mov         w8,#-3
	mul         w8,w9,w8
	add         w1,w10,w8
	mov         w1,w1
	ldr         x0,[sp,#0x20]
	bl          |?CF@Decoder@Jpeg@@AEAAEH@Z|
	uxtb        w10,w0
	ldr         x9,[sp,#0x28]
	mov         x8,#-2
	add         x8,x9,x8
	strb        w10,[x8]

; 543  : 				lout[-1] = CF(CF2A * lin[-1] + CF2B * lin[-2]);

	ldr         x9,[sp,#0x10]
	mov         x8,#-1
	add         x8,x9,x8
	ldrb        w9,[x8]
	mov         w9,w9
	mov         w8,#0x8B
	mul         w10,w9,w8
	ldr         x9,[sp,#0x10]
	mov         x8,#-2
	add         x8,x9,x8
	ldrb        w9,[x8]
	mov         w9,w9
	mov         w8,#-0xB
	mul         w8,w9,w8
	add         w1,w10,w8
	mov         w1,w1
	ldr         x0,[sp,#0x20]
	bl          |?CF@Decoder@Jpeg@@AEAAEH@Z|
	uxtb        w10,w0
	ldr         x9,[sp,#0x28]
	mov         x8,#-1
	add         x8,x9,x8
	strb        w10,[x8]

; 544  : 			}

	b           |$LN5@UpsampleH|
|$LN6@UpsampleH|

; 545  : 			c->width <<= 1;

	ldr         x8,[sp,#0x18]
	add         x8,x8,#0xC
	ldr         w8,[x8]
	lsl         w9,w8,#1
	ldr         x8,[sp,#0x18]
	add         x8,x8,#0xC
	str         w9,[x8]

; 546  : 			c->stride = c->width;

	ldr         x8,[sp,#0x18]
	add         x10,x8,#0xC
	ldr         x8,[sp,#0x18]
	add         x9,x8,#0x14
	ldr         w8,[x10]
	str         w8,[x9]

; 547  : 			FreeMem(c->pixels);

	ldr         x8,[sp,#0x18]
	add         x9,x8,#0x28
	ldr         x8,[sp,#0x20]
	add         x8,x8,#0x80,lsl #0xC
	add         x8,x8,#0x328
	ldr         x0,[x9]
	ldr         x8,[x8]
	blr         x8

; 548  : 			c->pixels = out;

	ldr         x8,[sp,#0x18]
	add         x9,x8,#0x28
	ldr         x8,[sp,#0x30]
	str         x8,[x9]
|$LN1@UpsampleH|
	add         sp,sp,#0x40
	ldr         lr,[sp],#0x10
	ret

	ENDP  ; |?_UpsampleH@Decoder@Jpeg@@AEAAXPEAUComponent@12@@Z|, Jpeg::Decoder::_UpsampleH

; Function compile flags: /Odtpy
; File C:\Users\paras\source\repos\grep-name\XenevaOS\Libs\Chitralekha\nanojpg.h

	AREA	|.text$mn|, CODE, ARM64

|?CF@Decoder@Jpeg@@AEAAEH@Z| PROC			; Jpeg::Decoder::CF

; 519  : 		inline unsigned char CF(const int x) {

|$LN3|
	str         lr,[sp,#-0x10]!
	sub         sp,sp,#0x10
	str         x0,[sp,#8]
	str         w1,[sp]

; 520  : 			return _Clip((x + 64) >> 7);

	ldr         w8,[sp]
	add         w8,w8,#0x40
	asr         w1,w8,#7
	mov         w1,w1
	ldr         x0,[sp,#8]
	bl          |?_Clip@Decoder@Jpeg@@AEAAEH@Z|
	uxtb        w0,w0
	mov         w0,w0
	add         sp,sp,#0x10
	ldr         lr,[sp],#0x10
	ret

	ENDP  ; |?CF@Decoder@Jpeg@@AEAAEH@Z|, Jpeg::Decoder::CF

; Function compile flags: /Odtpy
; File C:\Users\paras\source\repos\grep-name\XenevaOS\Libs\Chitralekha\nanojpg.h

	AREA	|.text$mn|, CODE, ARM64

|?_DecodeScan@Decoder@Jpeg@@AEAAXXZ| PROC		; Jpeg::Decoder::_DecodeScan

; 465  : 		inline void _DecodeScan(void) {

|$LN52|
	str         lr,[sp,#-0x10]!
	sub         sp,sp,#0x30
	str         x0,[sp]

; 466  : 			int i, mbx, mby, sbx, sby;
; 467  : 			int rstcount = ctx.rstinterval, nextrst = 0;

	ldr         x8,[sp]
	add         x8,x8,#0x80,lsl #0xC
	add         x8,x8,#0x2D4
	ldr         w8,[x8]
	str         w8,[sp,#0x28]
	mov         w8,#0
	str         w8,[sp,#0x2C]

; 468  : 			Component* c;
; 469  : 			_DecodeLength();

	ldr         x0,[sp]
	bl          |?_DecodeLength@Decoder@Jpeg@@AEAAXXZ|

; 470  : 			if (ctx.length < (4 + 2 * ctx.ncomp)) JPEG_DECODER_THROW(SyntaxError);

	ldr         x8,[sp]
	add         x10,x8,#0x14
	ldr         x8,[sp]
	add         x8,x8,#0x30
	ldr         w9,[x8]
	mov         w8,#2
	mul         w8,w9,w8
	add         w9,w8,#4
	ldr         w8,[x10]
	cmp         w8,w9
	bge         |$LN41@DecodeScan|
|$LN4@DecodeScan|
	ldr         x9,[sp]
	mov         w8,#5
	str         w8,[x9]
	b           |$LN1@DecodeScan|
	mov         w8,#0
	cmp         w8,#0
	bne         |$LN4@DecodeScan|
|$LN41@DecodeScan|

; 471  : 			if (ctx.pos[0] != ctx.ncomp) JPEG_DECODER_THROW(Unsupported);

	ldr         x8,[sp]
	add         x8,x8,#8
	ldr         x8,[x8]
	ldrb        w9,[x8]
	mov         w9,w9
	ldr         x8,[sp]
	add         x8,x8,#0x30
	ldr         w8,[x8]
	cmp         w9,w8
	beq         |$LN42@DecodeScan|
|$LN7@DecodeScan|
	ldr         x9,[sp]
	mov         w8,#2
	str         w8,[x9]
	b           |$LN1@DecodeScan|
	mov         w8,#0
	cmp         w8,#0
	bne         |$LN7@DecodeScan|
|$LN42@DecodeScan|

; 472  : 			_Skip(1);

	mov         w1,#1
	ldr         x0,[sp]
	bl          |?_Skip@Decoder@Jpeg@@AEAAXH@Z|

; 473  : 			for (i = 0, c = ctx.comp; i < ctx.ncomp; ++i, ++c) {

	mov         w8,#0
	str         w8,[sp,#8]
	ldr         x8,[sp]
	add         x8,x8,#0x34
	str         x8,[sp,#0x10]
	b           |$LN10@DecodeScan|
|$LN8@DecodeScan|
	ldr         w8,[sp,#8]
	add         w8,w8,#1
	str         w8,[sp,#8]
	ldr         x8,[sp,#0x10]
	add         x8,x8,#0x30
	str         x8,[sp,#0x10]
|$LN10@DecodeScan|
	ldr         x8,[sp]
	add         x8,x8,#0x30
	ldr         w9,[x8]
	ldr         w8,[sp,#8]
	cmp         w8,w9
	bge         |$LN9@DecodeScan|

; 474  : 				if (ctx.pos[0] != c->cid) JPEG_DECODER_THROW(SyntaxError);

	ldr         x8,[sp]
	add         x8,x8,#8
	ldr         x8,[x8]
	ldrb        w9,[x8]
	mov         w9,w9
	ldr         x8,[sp,#0x10]
	ldr         w8,[x8]
	cmp         w9,w8
	beq         |$LN43@DecodeScan|
|$LN13@DecodeScan|
	ldr         x9,[sp]
	mov         w8,#5
	str         w8,[x9]
	b           |$LN1@DecodeScan|
	mov         w8,#0
	cmp         w8,#0
	bne         |$LN13@DecodeScan|
|$LN43@DecodeScan|

; 475  : 				if (ctx.pos[1] & 0xEE) JPEG_DECODER_THROW(SyntaxError);

	ldr         x8,[sp]
	add         x8,x8,#8
	ldr         x8,[x8]
	add         x8,x8,#1
	ldrb        w9,[x8]
	mov         w9,w9
	mov         w8,#0xEE
	and         w8,w9,w8
	cmp         w8,#0
	beq         |$LN44@DecodeScan|
|$LN16@DecodeScan|
	ldr         x9,[sp]
	mov         w8,#5
	str         w8,[x9]
	b           |$LN1@DecodeScan|
	mov         w8,#0
	cmp         w8,#0
	bne         |$LN16@DecodeScan|
|$LN44@DecodeScan|

; 476  : 				c->dctabsel = ctx.pos[1] >> 4;

	ldr         x8,[sp]
	add         x8,x8,#8
	ldr         x8,[x8]
	add         x8,x8,#1
	ldrb        w8,[x8]
	mov         w8,w8
	asr         w9,w8,#4
	ldr         x8,[sp,#0x10]
	add         x8,x8,#0x20
	str         w9,[x8]

; 477  : 				c->actabsel = (ctx.pos[1] & 1) | 2;

	ldr         x8,[sp]
	add         x8,x8,#8
	ldr         x8,[x8]
	add         x8,x8,#1
	ldrb        w8,[x8]
	mov         w8,w8
	and         w8,w8,#1
	orr         w9,w8,#2
	ldr         x8,[sp,#0x10]
	add         x8,x8,#0x1C
	str         w9,[x8]

; 478  : 				_Skip(2);

	mov         w1,#2
	ldr         x0,[sp]
	bl          |?_Skip@Decoder@Jpeg@@AEAAXH@Z|

; 479  : 			}

	b           |$LN8@DecodeScan|
|$LN9@DecodeScan|

; 480  : 			if (ctx.pos[0] || (ctx.pos[1] != 63) || ctx.pos[2]) JPEG_DECODER_THROW(Unsupported);

	ldr         x8,[sp]
	add         x8,x8,#8
	ldr         x8,[x8]
	ldrb        w8,[x8]
	mov         w8,w8
	cmp         w8,#0
	bne         |$LN46@DecodeScan|
	ldr         x8,[sp]
	add         x8,x8,#8
	ldr         x8,[x8]
	add         x8,x8,#1
	ldrb        w8,[x8]
	mov         w8,w8
	cmp         w8,#0x3F
	bne         |$LN46@DecodeScan|
	ldr         x8,[sp]
	add         x8,x8,#8
	ldr         x8,[x8]
	add         x8,x8,#2
	ldrb        w8,[x8]
	mov         w8,w8
	cmp         w8,#0
	beq         |$LN45@DecodeScan|
|$LN46@DecodeScan|
|$LN19@DecodeScan|
	ldr         x9,[sp]
	mov         w8,#2
	str         w8,[x9]
	b           |$LN1@DecodeScan|
	mov         w8,#0
	cmp         w8,#0
	bne         |$LN19@DecodeScan|
|$LN45@DecodeScan|

; 481  : 			_Skip(ctx.length);

	ldr         x8,[sp]
	add         x8,x8,#0x14
	ldr         w1,[x8]
	ldr         x0,[sp]
	bl          |?_Skip@Decoder@Jpeg@@AEAAXH@Z|

; 482  : 			for (mby = 0; mby < ctx.mbheight; ++mby)

	mov         w8,#0
	str         w8,[sp,#0x18]
	b           |$LN22@DecodeScan|
|$LN20@DecodeScan|
	ldr         w8,[sp,#0x18]
	add         w8,w8,#1
	str         w8,[sp,#0x18]
|$LN22@DecodeScan|
	ldr         x8,[sp]
	add         x8,x8,#0x24
	ldr         w9,[x8]
	ldr         w8,[sp,#0x18]
	cmp         w8,w9
	bge         |$LN21@DecodeScan|

; 483  : 			for (mbx = 0; mbx < ctx.mbwidth; ++mbx) {

	mov         w8,#0
	str         w8,[sp,#0x20]
	b           |$LN25@DecodeScan|
|$LN23@DecodeScan|
	ldr         w8,[sp,#0x20]
	add         w8,w8,#1
	str         w8,[sp,#0x20]
|$LN25@DecodeScan|
	ldr         x8,[sp]
	add         x8,x8,#0x20
	ldr         w9,[x8]
	ldr         w8,[sp,#0x20]
	cmp         w8,w9
	bge         |$LN24@DecodeScan|

; 484  : 				for (i = 0, c = ctx.comp; i < ctx.ncomp; ++i, ++c)

	mov         w8,#0
	str         w8,[sp,#8]
	ldr         x8,[sp]
	add         x8,x8,#0x34
	str         x8,[sp,#0x10]
	b           |$LN28@DecodeScan|
|$LN26@DecodeScan|
	ldr         w8,[sp,#8]
	add         w8,w8,#1
	str         w8,[sp,#8]
	ldr         x8,[sp,#0x10]
	add         x8,x8,#0x30
	str         x8,[sp,#0x10]
|$LN28@DecodeScan|
	ldr         x8,[sp]
	add         x8,x8,#0x30
	ldr         w9,[x8]
	ldr         w8,[sp,#8]
	cmp         w8,w9
	bge         |$LN27@DecodeScan|

; 485  : 				for (sby = 0; sby < c->ssy; ++sby)

	mov         w8,#0
	str         w8,[sp,#0x1C]
	b           |$LN31@DecodeScan|
|$LN29@DecodeScan|
	ldr         w8,[sp,#0x1C]
	add         w8,w8,#1
	str         w8,[sp,#0x1C]
|$LN31@DecodeScan|
	ldr         x8,[sp,#0x10]
	add         x8,x8,#8
	ldr         w9,[x8]
	ldr         w8,[sp,#0x1C]
	cmp         w8,w9
	bge         |$LN30@DecodeScan|

; 486  : 				for (sbx = 0; sbx < c->ssx; ++sbx) {

	mov         w8,#0
	str         w8,[sp,#0x24]
	b           |$LN34@DecodeScan|
|$LN32@DecodeScan|
	ldr         w8,[sp,#0x24]
	add         w8,w8,#1
	str         w8,[sp,#0x24]
|$LN34@DecodeScan|
	ldr         x8,[sp,#0x10]
	add         x8,x8,#4
	ldr         w9,[x8]
	ldr         w8,[sp,#0x24]
	cmp         w8,w9
	bge         |$LN33@DecodeScan|

; 487  : 					_DecodeBlock(c, &c->pixels[((mby * c->ssy + sby) * c->stride + mbx * c->ssx + sbx) << 3]);

	ldr         x8,[sp,#0x10]
	add         x11,x8,#0x28
	ldr         x8,[sp,#0x10]
	add         x8,x8,#8
	ldr         w9,[sp,#0x18]
	ldr         w8,[x8]
	mul         w9,w9,w8
	ldr         w8,[sp,#0x1C]
	add         w9,w9,w8
	ldr         x8,[sp,#0x10]
	add         x8,x8,#0x14
	ldr         w8,[x8]
	mul         w10,w9,w8
	ldr         x8,[sp,#0x10]
	add         x8,x8,#4
	ldr         w9,[sp,#0x20]
	ldr         w8,[x8]
	mul         w8,w9,w8
	add         w9,w10,w8
	ldr         w8,[sp,#0x24]
	add         w8,w9,w8
	lsl         w8,w8,#3
	sxtw        x9,w8
	mov         x8,#1
	mul         x9,x9,x8
	ldr         x8,[x11]
	add         x2,x8,x9
	ldr         x1,[sp,#0x10]
	ldr         x0,[sp]
	bl          |?_DecodeBlock@Decoder@Jpeg@@AEAAXPEAUComponent@12@PEAE@Z|

; 488  : 					if (ctx.error)

	ldr         x8,[sp]
	ldr         w8,[x8]
	cmp         w8,#0
	beq         |$LN47@DecodeScan|

; 489  : 						return;

	b           |$LN1@DecodeScan|
|$LN47@DecodeScan|

; 490  : 				}

	b           |$LN32@DecodeScan|
|$LN33@DecodeScan|
	b           |$LN29@DecodeScan|
|$LN30@DecodeScan|
	b           |$LN26@DecodeScan|
|$LN27@DecodeScan|

; 491  : 				if (ctx.rstinterval && !(--rstcount)) {

	ldr         x8,[sp]
	add         x8,x8,#0x80,lsl #0xC
	add         x8,x8,#0x2D4
	ldr         w8,[x8]
	cmp         w8,#0
	beq         |$LN48@DecodeScan|
	ldr         w8,[sp,#0x28]
	sub         w8,w8,#1
	str         w8,[sp,#0x28]
	ldr         w8,[sp,#0x28]
	cmp         w8,#0
	bne         |$LN48@DecodeScan|

; 492  : 					_ByteAlign();

	ldr         x0,[sp]
	bl          |?_ByteAlign@Decoder@Jpeg@@AEAAXXZ|

; 493  : 					i = _GetBits(16);

	mov         w1,#0x10
	ldr         x0,[sp]
	bl          |?_GetBits@Decoder@Jpeg@@AEAAHH@Z|
	mov         w0,w0
	str         w0,[sp,#8]

; 494  : 					if (((i & 0xFFF8) != 0xFFD0) || ((i & 7) != nextrst)) JPEG_DECODER_THROW(SyntaxError);

	ldr         w8,[sp,#8]
	and         w9,w8,#0xFFF8
	mov         w8,#0xFFD0
	cmp         w9,w8
	bne         |$LN50@DecodeScan|
	ldr         w8,[sp,#8]
	and         w9,w8,#7
	ldr         w8,[sp,#0x2C]
	cmp         w9,w8
	beq         |$LN49@DecodeScan|
|$LN50@DecodeScan|
|$LN37@DecodeScan|
	ldr         x9,[sp]
	mov         w8,#5
	str         w8,[x9]
	b           |$LN1@DecodeScan|
	mov         w8,#0
	cmp         w8,#0
	bne         |$LN37@DecodeScan|
|$LN49@DecodeScan|

; 495  : 					nextrst = (nextrst + 1) & 7;

	ldr         w8,[sp,#0x2C]
	add         w8,w8,#1
	and         w8,w8,#7
	str         w8,[sp,#0x2C]

; 496  : 					rstcount = ctx.rstinterval;

	ldr         x8,[sp]
	add         x8,x8,#0x80,lsl #0xC
	add         x8,x8,#0x2D4
	ldr         w8,[x8]
	str         w8,[sp,#0x28]

; 497  : 					for (i = 0; i < 3; ++i)

	mov         w8,#0
	str         w8,[sp,#8]
	b           |$LN40@DecodeScan|
|$LN38@DecodeScan|
	ldr         w8,[sp,#8]
	add         w8,w8,#1
	str         w8,[sp,#8]
|$LN40@DecodeScan|
	ldr         w8,[sp,#8]
	cmp         w8,#3
	bge         |$LN39@DecodeScan|

; 498  : 						ctx.comp[i].dcpred = 0;

	ldr         x8,[sp]
	add         x10,x8,#0x34
	ldr         w8,[sp,#8]
	sxtw        x9,w8
	mov         x8,#0x30
	mul         x8,x9,x8
	add         x8,x10,x8
	add         x9,x8,#0x24
	mov         w8,#0
	str         w8,[x9]
	b           |$LN38@DecodeScan|
|$LN39@DecodeScan|
|$LN48@DecodeScan|

; 499  : 				}
; 500  : 			}

	b           |$LN23@DecodeScan|
|$LN24@DecodeScan|
	b           |$LN20@DecodeScan|
|$LN21@DecodeScan|

; 501  : 			ctx.error = Internal_Finished;

	ldr         x9,[sp]
	mov         w8,#6
	str         w8,[x9]
|$LN1@DecodeScan|
	add         sp,sp,#0x30
	ldr         lr,[sp],#0x10
	ret

	ENDP  ; |?_DecodeScan@Decoder@Jpeg@@AEAAXXZ|, Jpeg::Decoder::_DecodeScan

; Function compile flags: /Odtpy
; File C:\Users\paras\source\repos\grep-name\XenevaOS\Libs\Chitralekha\nanojpg.h

	AREA	|.text$mn|, CODE, ARM64

|?_DecodeBlock@Decoder@Jpeg@@AEAAXPEAUComponent@12@PEAE@Z| PROC ; Jpeg::Decoder::_DecodeBlock

; 445  : 		inline void _DecodeBlock(Component* c, unsigned char* out) {

|$LN21|
	sub         sp,sp,#0x10
	stp         x19,lr,[sp]
	sub         sp,sp,#0x30
	str         x0,[sp,#0x10]
	str         x1,[sp,#0x18]
	str         x2,[sp,#0x20]

; 446  : 			unsigned char code;
; 447  : 			int value, coef = 0;

	mov         w8,#0
	str         w8,[sp,#4]

; 448  : 			memset(ctx.block, 0, sizeof(ctx.block));

	ldr         x8,[sp,#0x10]
	add         x8,x8,#0x80,lsl #0xC
	add         x0,x8,#0x1D4
	mov         x2,#0x100
	mov         w1,#0
	bl          memset

; 449  : 			c->dcpred += _GetVLC(&ctx.vlctab[c->dctabsel][0], NULL);

	ldr         x8,[sp,#0x18]
	add         x19,x8,#0x24
	ldr         x8,[sp,#0x10]
	add         x10,x8,#0x1CC
	ldr         x8,[sp,#0x18]
	add         x8,x8,#0x20
	ldr         w8,[x8]
	sxtw        x9,w8
	mov         x8,#0x20000
	mul         x8,x9,x8
	add         x1,x10,x8
	mov         x2,#0
	ldr         x0,[sp,#0x10]
	bl          |?_GetVLC@Decoder@Jpeg@@AEAAHPEAUVlcCode@12@PEAE@Z|
	mov         w0,w0
	ldr         w8,[x19]
	add         w9,w8,w0
	ldr         x8,[sp,#0x18]
	add         x8,x8,#0x24
	str         w9,[x8]

; 450  : 			ctx.block[0] = (c->dcpred) * ctx.qtab[c->qtsel][0];

	ldr         x8,[sp,#0x18]
	add         x11,x8,#0x24
	ldr         x8,[sp,#0x10]
	add         x10,x8,#0xCC
	ldr         x8,[sp,#0x18]
	add         x8,x8,#0x18
	ldr         w8,[x8]
	sxtw        x9,w8
	mov         x8,#0x40
	mul         x8,x9,x8
	add         x8,x10,x8
	ldrb        w9,[x8]
	mov         w9,w9
	ldr         w8,[x11]
	mul         w9,w8,w9
	ldr         x8,[sp,#0x10]
	add         x8,x8,#0x80,lsl #0xC
	add         x8,x8,#0x1D4
	str         w9,[x8]
|$LN4@DecodeBloc|

; 451  : 			do {
; 452  : 				value = _GetVLC(&ctx.vlctab[c->actabsel][0], &code);

	ldr         x8,[sp,#0x10]
	add         x10,x8,#0x1CC
	ldr         x8,[sp,#0x18]
	add         x8,x8,#0x1C
	ldr         w8,[x8]
	sxtw        x9,w8
	mov         x8,#0x20000
	mul         x8,x9,x8
	add         x1,x10,x8
	mov         x2,sp
	ldr         x0,[sp,#0x10]
	bl          |?_GetVLC@Decoder@Jpeg@@AEAAHPEAUVlcCode@12@PEAE@Z|
	mov         w0,w0
	str         w0,[sp,#8]

; 453  : 				if (!code) break;  // EOB

	ldrb        w8,[sp]
	mov         w8,w8
	cmp         w8,#0
	bne         |$LN17@DecodeBloc|
	b           |$LN3@DecodeBloc|
|$LN17@DecodeBloc|

; 454  : 				if (!(code & 0x0F) && (code != 0xF0)) JPEG_DECODER_THROW(SyntaxError);

	ldrb        w8,[sp]
	mov         w8,w8
	and         w8,w8,#0xF
	cmp         w8,#0
	bne         |$LN18@DecodeBloc|
	ldrb        w8,[sp]
	mov         w8,w8
	cmp         w8,#0xF0
	beq         |$LN18@DecodeBloc|
|$LN7@DecodeBloc|
	ldr         x9,[sp,#0x10]
	mov         w8,#5
	str         w8,[x9]
	b           |$LN1@DecodeBloc|
	mov         w8,#0
	cmp         w8,#0
	bne         |$LN7@DecodeBloc|
|$LN18@DecodeBloc|

; 455  : 				coef += (code >> 4) + 1;

	ldrb        w8,[sp]
	mov         w8,w8
	asr         w8,w8,#4
	add         w9,w8,#1
	ldr         w8,[sp,#4]
	add         w8,w8,w9
	str         w8,[sp,#4]

; 456  : 				if (coef > 63) JPEG_DECODER_THROW(SyntaxError);

	ldr         w8,[sp,#4]
	cmp         w8,#0x3F
	ble         |$LN19@DecodeBloc|
|$LN10@DecodeBloc|
	ldr         x9,[sp,#0x10]
	mov         w8,#5
	str         w8,[x9]
	b           |$LN1@DecodeBloc|
	mov         w8,#0
	cmp         w8,#0
	bne         |$LN10@DecodeBloc|
|$LN19@DecodeBloc|

; 457  : 				ctx.block[(int)ZZ[coef]] = value * ctx.qtab[c->qtsel][coef];

	ldr         x8,[sp,#0x10]
	add         x10,x8,#0xCC
	ldr         x8,[sp,#0x18]
	add         x8,x8,#0x18
	ldr         w8,[x8]
	sxtw        x9,w8
	mov         x8,#0x40
	mul         x8,x9,x8
	add         x10,x10,x8
	ldr         w8,[sp,#4]
	sxtw        x9,w8
	mov         x8,#1
	mul         x8,x9,x8
	add         x8,x10,x8
	ldrb        w9,[x8]
	mov         w9,w9
	ldr         w8,[sp,#8]
	mul         w12,w8,w9
	ldr         x8,[sp,#0x10]
	add         x8,x8,#0x80,lsl #0xC
	add         x11,x8,#0x1D4
	ldr         x8,[sp,#0x10]
	add         x8,x8,#0x80,lsl #0xC
	add         x10,x8,#0x2E0
	ldr         w8,[sp,#4]
	sxtw        x9,w8
	mov         x8,#1
	mul         x8,x9,x8
	add         x8,x10,x8
	ldrsb       w8,[x8]
	sxtw        x9,w8
	mov         x8,#4
	mul         x8,x9,x8
	add         x8,x11,x8
	str         w12,[x8]

; 458  : 			} while (coef < 63);

	ldr         w8,[sp,#4]
	cmp         w8,#0x3F
	blt         |$LN4@DecodeBloc|
|$LN3@DecodeBloc|

; 459  : 			for (coef = 0; coef < 64; coef += 8)

	mov         w8,#0
	str         w8,[sp,#4]
	b           |$LN13@DecodeBloc|
|$LN11@DecodeBloc|
	ldr         w8,[sp,#4]
	add         w8,w8,#8
	str         w8,[sp,#4]
|$LN13@DecodeBloc|
	ldr         w8,[sp,#4]
	cmp         w8,#0x40
	bge         |$LN12@DecodeBloc|

; 460  : 				_RowIDCT(&ctx.block[coef]);

	ldr         x8,[sp,#0x10]
	add         x8,x8,#0x80,lsl #0xC
	add         x10,x8,#0x1D4
	ldr         w8,[sp,#4]
	sxtw        x9,w8
	mov         x8,#4
	mul         x8,x9,x8
	add         x1,x10,x8
	ldr         x0,[sp,#0x10]
	bl          |?_RowIDCT@Decoder@Jpeg@@AEAAXPEAH@Z|
	b           |$LN11@DecodeBloc|
|$LN12@DecodeBloc|

; 461  : 			for (coef = 0; coef < 8; ++coef)

	mov         w8,#0
	str         w8,[sp,#4]
	b           |$LN16@DecodeBloc|
|$LN14@DecodeBloc|
	ldr         w8,[sp,#4]
	add         w8,w8,#1
	str         w8,[sp,#4]
|$LN16@DecodeBloc|
	ldr         w8,[sp,#4]
	cmp         w8,#8
	bge         |$LN15@DecodeBloc|

; 462  : 				_ColIDCT(&ctx.block[coef], &out[coef], c->stride);

	ldr         x8,[sp,#0x18]
	add         x11,x8,#0x14
	ldr         w8,[sp,#4]
	sxtw        x9,w8
	mov         x8,#1
	mul         x9,x9,x8
	ldr         x8,[sp,#0x20]
	add         x2,x8,x9
	ldr         x8,[sp,#0x10]
	add         x8,x8,#0x80,lsl #0xC
	add         x10,x8,#0x1D4
	ldr         w8,[sp,#4]
	sxtw        x9,w8
	mov         x8,#4
	mul         x8,x9,x8
	add         x1,x10,x8
	ldr         w3,[x11]
	ldr         x0,[sp,#0x10]
	bl          |?_ColIDCT@Decoder@Jpeg@@AEAAXPEBHPEAEH@Z|
	b           |$LN14@DecodeBloc|
|$LN15@DecodeBloc|
|$LN1@DecodeBloc|
	add         sp,sp,#0x30
	ldp         x19,lr,[sp]
	add         sp,sp,#0x10
	ret

	ENDP  ; |?_DecodeBlock@Decoder@Jpeg@@AEAAXPEAUComponent@12@PEAE@Z|, Jpeg::Decoder::_DecodeBlock

; Function compile flags: /Odtpy
; File C:\Users\paras\source\repos\grep-name\XenevaOS\Libs\Chitralekha\nanojpg.h

	AREA	|.text$mn|, CODE, ARM64

|?_GetVLC@Decoder@Jpeg@@AEAAHPEAUVlcCode@12@PEAE@Z| PROC ; Jpeg::Decoder::_GetVLC

; 430  : 		inline int _GetVLC(VlcCode* vlc, unsigned char* code) {

|$LN7|
	str         lr,[sp,#-0x10]!
	sub         sp,sp,#0x20
	str         x0,[sp,#8]
	str         x1,[sp,#0x10]
	str         x2,[sp,#0x18]

; 431  : 			int value = _ShowBits(16);

	mov         w1,#0x10
	ldr         x0,[sp,#8]
	bl          |?_ShowBits@Decoder@Jpeg@@AEAAHH@Z|
	mov         w0,w0
	str         w0,[sp]

; 432  : 			int bits = vlc[value].bits;

	ldr         w8,[sp]
	sxtw        x9,w8
	mov         x8,#2
	mul         x9,x9,x8
	ldr         x8,[sp,#0x10]
	add         x8,x8,x9
	ldrb        w8,[x8]
	mov         w8,w8
	str         w8,[sp,#4]

; 433  : 			if (!bits) { ctx.error = SyntaxError; return 0; }

	ldr         w8,[sp,#4]
	cmp         w8,#0
	bne         |$LN2@GetVLC|
	ldr         x9,[sp,#8]
	mov         w8,#5
	str         w8,[x9]
	mov         w0,#0
	b           |$LN1@GetVLC|
|$LN2@GetVLC|

; 434  : 			_SkipBits(bits);

	ldr         w1,[sp,#4]
	ldr         x0,[sp,#8]
	bl          |?_SkipBits@Decoder@Jpeg@@AEAAXH@Z|

; 435  : 			value = vlc[value].code;

	ldr         w8,[sp]
	sxtw        x9,w8
	mov         x8,#2
	mul         x9,x9,x8
	ldr         x8,[sp,#0x10]
	add         x8,x8,x9
	add         x8,x8,#1
	ldrb        w8,[x8]
	mov         w8,w8
	str         w8,[sp]

; 436  : 			if (code) *code = (unsigned char)value;

	ldr         x8,[sp,#0x18]
	cmp         x8,#0
	beq         |$LN3@GetVLC|
	ldr         w8,[sp]
	uxtb        w9,w8
	ldr         x8,[sp,#0x18]
	strb        w9,[x8]
|$LN3@GetVLC|

; 437  : 			bits = value & 15;

	ldr         w8,[sp]
	and         w8,w8,#0xF
	str         w8,[sp,#4]

; 438  : 			if (!bits) return 0;

	ldr         w8,[sp,#4]
	cmp         w8,#0
	bne         |$LN4@GetVLC|
	mov         w0,#0
	b           |$LN1@GetVLC|
|$LN4@GetVLC|

; 439  : 			value = _GetBits(bits);

	ldr         w1,[sp,#4]
	ldr         x0,[sp,#8]
	bl          |?_GetBits@Decoder@Jpeg@@AEAAHH@Z|
	mov         w0,w0
	str         w0,[sp]

; 440  : 			if (value < (1 << (bits - 1)))

	ldr         w8,[sp,#4]
	sub         w9,w8,#1
	mov         w8,#1
	lsl         w9,w8,w9
	ldr         w8,[sp]
	cmp         w8,w9
	bge         |$LN5@GetVLC|

; 441  : 				value += ((-1) << bits) + 1;

	mov         w9,#-1
	ldr         w8,[sp,#4]
	lsl         w8,w9,w8
	add         w9,w8,#1
	ldr         w8,[sp]
	add         w8,w8,w9
	str         w8,[sp]
|$LN5@GetVLC|

; 442  : 			return value;

	ldr         w0,[sp]
|$LN1@GetVLC|
	add         sp,sp,#0x20
	ldr         lr,[sp],#0x10
	ret

	ENDP  ; |?_GetVLC@Decoder@Jpeg@@AEAAHPEAUVlcCode@12@PEAE@Z|, Jpeg::Decoder::_GetVLC

; Function compile flags: /Odtpy
; File C:\Users\paras\source\repos\grep-name\XenevaOS\Libs\Chitralekha\nanojpg.h

	AREA	|.text$mn|, CODE, ARM64

|?_DecodeDRI@Decoder@Jpeg@@AEAAXXZ| PROC		; Jpeg::Decoder::_DecodeDRI

; 423  : 		inline void _DecodeDRI(void) {

|$LN7|
	str         lr,[sp,#-0x10]!
	sub         sp,sp,#0x10
	str         x0,[sp]

; 424  : 			_DecodeLength();

	ldr         x0,[sp]
	bl          |?_DecodeLength@Decoder@Jpeg@@AEAAXXZ|

; 425  : 			if (ctx.length < 2) JPEG_DECODER_THROW(SyntaxError);

	ldr         x8,[sp]
	add         x8,x8,#0x14
	ldr         w8,[x8]
	cmp         w8,#2
	bge         |$LN5@DecodeDRI|
|$LN4@DecodeDRI|
	ldr         x9,[sp]
	mov         w8,#5
	str         w8,[x9]
	b           |$LN1@DecodeDRI|
	mov         w8,#0
	cmp         w8,#0
	bne         |$LN4@DecodeDRI|
|$LN5@DecodeDRI|

; 426  : 			ctx.rstinterval = _Decode16(ctx.pos);

	ldr         x8,[sp]
	add         x8,x8,#8
	ldr         x1,[x8]
	ldr         x0,[sp]
	bl          |?_Decode16@Decoder@Jpeg@@AEAAGPEBE@Z|
	uxth        w9,w0
	mov         w9,w9
	ldr         x8,[sp]
	add         x8,x8,#0x80,lsl #0xC
	add         x8,x8,#0x2D4
	str         w9,[x8]

; 427  : 			_Skip(ctx.length);

	ldr         x8,[sp]
	add         x8,x8,#0x14
	ldr         w1,[x8]
	ldr         x0,[sp]
	bl          |?_Skip@Decoder@Jpeg@@AEAAXH@Z|
|$LN1@DecodeDRI|
	add         sp,sp,#0x10
	ldr         lr,[sp],#0x10
	ret

	ENDP  ; |?_DecodeDRI@Decoder@Jpeg@@AEAAXXZ|, Jpeg::Decoder::_DecodeDRI

; Function compile flags: /Odtpy
; File C:\Users\paras\source\repos\grep-name\XenevaOS\Libs\Chitralekha\nanojpg.h

	AREA	|.text$mn|, CODE, ARM64

|?_DecodeDQT@Decoder@Jpeg@@AEAAXXZ| PROC		; Jpeg::Decoder::_DecodeDQT

; 407  : 		inline void _DecodeDQT(void) {

|$LN16|
	str         lr,[sp,#-0x10]!
	sub         sp,sp,#0x20
	str         x0,[sp,#8]

; 408  : 			int i;
; 409  : 			unsigned char *t;
; 410  : 			_DecodeLength();

	ldr         x0,[sp,#8]
	bl          |?_DecodeLength@Decoder@Jpeg@@AEAAXXZ|
|$LN2@DecodeDQT|

; 411  : 			while (ctx.length >= 65) {

	ldr         x8,[sp,#8]
	add         x8,x8,#0x14
	ldr         w8,[x8]
	cmp         w8,#0x41
	blt         |$LN3@DecodeDQT|

; 412  : 				i = ctx.pos[0];

	ldr         x8,[sp,#8]
	add         x8,x8,#8
	ldr         x8,[x8]
	ldrb        w8,[x8]
	mov         w8,w8
	str         w8,[sp]

; 413  : 				if (i & 0xFC) JPEG_DECODER_THROW(SyntaxError);

	ldr         w8,[sp]
	and         w8,w8,#0xFC
	cmp         w8,#0
	beq         |$LN13@DecodeDQT|
|$LN6@DecodeDQT|
	ldr         x9,[sp,#8]
	mov         w8,#5
	str         w8,[x9]
	b           |$LN1@DecodeDQT|
	mov         w8,#0
	cmp         w8,#0
	bne         |$LN6@DecodeDQT|
|$LN13@DecodeDQT|

; 414  : 				ctx.qtavail |= 1 << i;

	ldr         x8,[sp,#8]
	add         x10,x8,#0xC8
	mov         w9,#1
	ldr         w8,[sp]
	lsl         w9,w9,w8
	ldr         w8,[x10]
	orr         w9,w8,w9
	ldr         x8,[sp,#8]
	add         x8,x8,#0xC8
	str         w9,[x8]

; 415  : 				t = &ctx.qtab[i][0];

	ldr         x8,[sp,#8]
	add         x10,x8,#0xCC
	ldr         w8,[sp]
	sxtw        x9,w8
	mov         x8,#0x40
	mul         x8,x9,x8
	add         x8,x10,x8
	str         x8,[sp,#0x10]

; 416  : 				for (i = 0; i < 64; ++i)

	mov         w8,#0
	str         w8,[sp]
	b           |$LN9@DecodeDQT|
|$LN7@DecodeDQT|
	ldr         w8,[sp]
	add         w8,w8,#1
	str         w8,[sp]
|$LN9@DecodeDQT|
	ldr         w8,[sp]
	cmp         w8,#0x40
	bge         |$LN8@DecodeDQT|

; 417  : 					t[i] = ctx.pos[i + 1];

	ldr         x8,[sp,#8]
	add         x10,x8,#8
	ldr         w8,[sp]
	add         w8,w8,#1
	sxtw        x9,w8
	mov         x8,#1
	mul         x9,x9,x8
	ldr         x8,[x10]
	add         x10,x8,x9
	ldr         w8,[sp]
	sxtw        x9,w8
	mov         x8,#1
	mul         x9,x9,x8
	ldr         x8,[sp,#0x10]
	add         x9,x8,x9
	ldrb        w8,[x10]
	strb        w8,[x9]
	b           |$LN7@DecodeDQT|
|$LN8@DecodeDQT|

; 418  : 				_Skip(65);

	mov         w1,#0x41
	ldr         x0,[sp,#8]
	bl          |?_Skip@Decoder@Jpeg@@AEAAXH@Z|

; 419  : 			}

	b           |$LN2@DecodeDQT|
|$LN3@DecodeDQT|

; 420  : 			if (ctx.length) JPEG_DECODER_THROW(SyntaxError);

	ldr         x8,[sp,#8]
	add         x8,x8,#0x14
	ldr         w8,[x8]
	cmp         w8,#0
	beq         |$LN14@DecodeDQT|
|$LN12@DecodeDQT|
	ldr         x9,[sp,#8]
	mov         w8,#5
	str         w8,[x9]
	b           |$LN1@DecodeDQT|
	mov         w8,#0
	cmp         w8,#0
	bne         |$LN12@DecodeDQT|
|$LN14@DecodeDQT|
|$LN1@DecodeDQT|
	add         sp,sp,#0x20
	ldr         lr,[sp],#0x10
	ret

	ENDP  ; |?_DecodeDQT@Decoder@Jpeg@@AEAAXXZ|, Jpeg::Decoder::_DecodeDQT

; Function compile flags: /Odtpy
; File C:\Users\paras\source\repos\grep-name\XenevaOS\Libs\Chitralekha\nanojpg.h

	AREA	|.text$mn|, CODE, ARM64

|?_DecodeDHT@Decoder@Jpeg@@AEAAXXZ| PROC		; Jpeg::Decoder::_DecodeDHT

; 367  : 		inline void _DecodeDHT(void) {

|$LN40|
	str         lr,[sp,#-0x10]!
	sub         sp,sp,#0x50
	str         x0,[sp,#0x10]

; 368  : 			int codelen, currcnt, remain, spread, i, j;
; 369  : 			VlcCode *vlc;
; 370  : 			unsigned char counts[16];
; 371  : 			_DecodeLength();

	ldr         x0,[sp,#0x10]
	bl          |?_DecodeLength@Decoder@Jpeg@@AEAAXXZ|
|$LN2@DecodeDHT|

; 372  : 			while (ctx.length >= 17) {

	ldr         x8,[sp,#0x10]
	add         x8,x8,#0x14
	ldr         w8,[x8]
	cmp         w8,#0x11
	blt         |$LN3@DecodeDHT|

; 373  : 				i = ctx.pos[0];

	ldr         x8,[sp,#0x10]
	add         x8,x8,#8
	ldr         x8,[x8]
	ldrb        w8,[x8]
	mov         w8,w8
	str         w8,[sp,#4]

; 374  : 				if (i & 0xEC) JPEG_DECODER_THROW(SyntaxError);

	ldr         w9,[sp,#4]
	mov         w8,#0xEC
	and         w8,w9,w8
	cmp         w8,#0
	beq         |$LN33@DecodeDHT|
|$LN6@DecodeDHT|
	ldr         x9,[sp,#0x10]
	mov         w8,#5
	str         w8,[x9]
	b           |$LN1@DecodeDHT|
	mov         w8,#0
	cmp         w8,#0
	bne         |$LN6@DecodeDHT|
|$LN33@DecodeDHT|

; 375  : 				if (i & 0x02) JPEG_DECODER_THROW(Unsupported);

	ldr         w8,[sp,#4]
	tbz         x8,#1,|$LN34@DecodeDHT|
|$LN9@DecodeDHT|
	ldr         x9,[sp,#0x10]
	mov         w8,#2
	str         w8,[x9]
	b           |$LN1@DecodeDHT|
	mov         w8,#0
	cmp         w8,#0
	bne         |$LN9@DecodeDHT|
|$LN34@DecodeDHT|

; 376  : 				i = (i | (i >> 3)) & 3;  // combined DC/AC + tableid value

	ldr         w8,[sp,#4]
	asr         w9,w8,#3
	ldr         w8,[sp,#4]
	orr         w8,w8,w9
	and         w8,w8,#3
	str         w8,[sp,#4]

; 377  : 				for (codelen = 1; codelen <= 16; ++codelen)

	mov         w8,#1
	str         w8,[sp]
	b           |$LN12@DecodeDHT|
|$LN10@DecodeDHT|
	ldr         w8,[sp]
	add         w8,w8,#1
	str         w8,[sp]
|$LN12@DecodeDHT|
	ldr         w8,[sp]
	cmp         w8,#0x10
	bgt         |$LN11@DecodeDHT|

; 378  : 					counts[codelen - 1] = ctx.pos[codelen];

	ldr         x8,[sp,#0x10]
	add         x10,x8,#8
	ldr         w8,[sp]
	sxtw        x9,w8
	mov         x8,#1
	mul         x9,x9,x8
	ldr         x8,[x10]
	add         x10,x8,x9
	ldr         w8,[sp]
	sub         w8,w8,#1
	sxtw        x9,w8
	mov         x8,#1
	mul         x9,x9,x8
	add         x8,sp,#0x38
	add         x9,x8,x9
	ldrb        w8,[x10]
	strb        w8,[x9]
	b           |$LN10@DecodeDHT|
|$LN11@DecodeDHT|

; 379  : 				_Skip(17);

	mov         w1,#0x11
	ldr         x0,[sp,#0x10]
	bl          |?_Skip@Decoder@Jpeg@@AEAAXH@Z|

; 380  : 				vlc = &ctx.vlctab[i][0];

	ldr         x8,[sp,#0x10]
	add         x10,x8,#0x1CC
	ldr         w8,[sp,#4]
	sxtw        x9,w8
	mov         x8,#0x20000
	mul         x8,x9,x8
	add         x8,x10,x8
	str         x8,[sp,#0x28]

; 381  : 				remain = spread = 65536;

	mov         w8,#0x10000
	str         w8,[sp,#0x20]
	ldr         w8,[sp,#0x20]
	str         w8,[sp,#0x18]

; 382  : 				for (codelen = 1; codelen <= 16; ++codelen) {

	mov         w8,#1
	str         w8,[sp]
	b           |$LN15@DecodeDHT|
|$LN13@DecodeDHT|
	ldr         w8,[sp]
	add         w8,w8,#1
	str         w8,[sp]
|$LN15@DecodeDHT|
	ldr         w8,[sp]
	cmp         w8,#0x10
	bgt         |$LN14@DecodeDHT|

; 383  : 					spread >>= 1;

	ldr         w8,[sp,#0x20]
	asr         w8,w8,#1
	str         w8,[sp,#0x20]

; 384  : 					currcnt = counts[codelen - 1];

	ldr         w8,[sp]
	sub         w8,w8,#1
	sxtw        x9,w8
	mov         x8,#1
	mul         x9,x9,x8
	add         x8,sp,#0x38
	add         x8,x8,x9
	ldrb        w8,[x8]
	mov         w8,w8
	str         w8,[sp,#0x1C]

; 385  : 					if (!currcnt) continue;

	ldr         w8,[sp,#0x1C]
	cmp         w8,#0
	bne         |$LN35@DecodeDHT|
	b           |$LN13@DecodeDHT|
|$LN35@DecodeDHT|

; 386  : 					if (ctx.length < currcnt) JPEG_DECODER_THROW(SyntaxError);

	ldr         x8,[sp,#0x10]
	add         x8,x8,#0x14
	ldr         w9,[sp,#0x1C]
	ldr         w8,[x8]
	cmp         w8,w9
	bge         |$LN36@DecodeDHT|
|$LN18@DecodeDHT|
	ldr         x9,[sp,#0x10]
	mov         w8,#5
	str         w8,[x9]
	b           |$LN1@DecodeDHT|
	mov         w8,#0
	cmp         w8,#0
	bne         |$LN18@DecodeDHT|
|$LN36@DecodeDHT|

; 387  : 					remain -= currcnt << (16 - codelen);

	mov         w9,#0x10
	ldr         w8,[sp]
	sub         w9,w9,w8
	ldr         w8,[sp,#0x1C]
	lsl         w9,w8,w9
	ldr         w8,[sp,#0x18]
	sub         w8,w8,w9
	str         w8,[sp,#0x18]

; 388  : 					if (remain < 0) JPEG_DECODER_THROW(SyntaxError);

	ldr         w8,[sp,#0x18]
	cmp         w8,#0
	bge         |$LN37@DecodeDHT|
|$LN21@DecodeDHT|
	ldr         x9,[sp,#0x10]
	mov         w8,#5
	str         w8,[x9]
	b           |$LN1@DecodeDHT|
	mov         w8,#0
	cmp         w8,#0
	bne         |$LN21@DecodeDHT|
|$LN37@DecodeDHT|

; 389  : 					for (i = 0; i < currcnt; ++i) {

	mov         w8,#0
	str         w8,[sp,#4]
	b           |$LN24@DecodeDHT|
|$LN22@DecodeDHT|
	ldr         w8,[sp,#4]
	add         w8,w8,#1
	str         w8,[sp,#4]
|$LN24@DecodeDHT|
	ldr         w9,[sp,#0x1C]
	ldr         w8,[sp,#4]
	cmp         w8,w9
	bge         |$LN23@DecodeDHT|

; 390  : 						register unsigned char code = ctx.pos[i];

	ldr         x8,[sp,#0x10]
	add         x10,x8,#8
	ldr         w8,[sp,#4]
	sxtw        x9,w8
	mov         x8,#1
	mul         x9,x9,x8
	ldr         x8,[x10]
	add         x8,x8,x9
	ldrb        w8,[x8]
	strb        w8,[sp,#8]

; 391  : 						for (j = spread; j; --j) {

	ldr         w8,[sp,#0x20]
	str         w8,[sp,#0x24]
	b           |$LN27@DecodeDHT|
|$LN25@DecodeDHT|
	ldr         w8,[sp,#0x24]
	sub         w8,w8,#1
	str         w8,[sp,#0x24]
|$LN27@DecodeDHT|
	ldr         w8,[sp,#0x24]
	cmp         w8,#0
	beq         |$LN26@DecodeDHT|

; 392  : 							vlc->bits = (unsigned char)codelen;

	ldr         w8,[sp]
	uxtb        w9,w8
	ldr         x8,[sp,#0x28]
	strb        w9,[x8]

; 393  : 							vlc->code = code;

	ldr         x8,[sp,#0x28]
	add         x9,x8,#1
	ldrb        w8,[sp,#8]
	strb        w8,[x9]

; 394  : 							++vlc;

	ldr         x8,[sp,#0x28]
	add         x8,x8,#2
	str         x8,[sp,#0x28]

; 395  : 						}

	b           |$LN25@DecodeDHT|
|$LN26@DecodeDHT|

; 396  : 					}

	b           |$LN22@DecodeDHT|
|$LN23@DecodeDHT|

; 397  : 					_Skip(currcnt);

	ldr         w1,[sp,#0x1C]
	ldr         x0,[sp,#0x10]
	bl          |?_Skip@Decoder@Jpeg@@AEAAXH@Z|

; 398  : 				}

	b           |$LN13@DecodeDHT|
|$LN14@DecodeDHT|
|$LN28@DecodeDHT|

; 399  : 				while (remain--) {

	ldr         w8,[sp,#0x18]
	str         w8,[sp,#0x30]
	ldr         w8,[sp,#0x18]
	sub         w8,w8,#1
	str         w8,[sp,#0x18]
	ldr         w8,[sp,#0x30]
	cmp         w8,#0
	beq         |$LN29@DecodeDHT|

; 400  : 					vlc->bits = 0;

	ldr         x9,[sp,#0x28]
	mov         w8,#0
	strb        w8,[x9]

; 401  : 					++vlc;

	ldr         x8,[sp,#0x28]
	add         x8,x8,#2
	str         x8,[sp,#0x28]

; 402  : 				}

	b           |$LN28@DecodeDHT|
|$LN29@DecodeDHT|

; 403  : 			}

	b           |$LN2@DecodeDHT|
|$LN3@DecodeDHT|

; 404  : 			if (ctx.length) JPEG_DECODER_THROW(SyntaxError);

	ldr         x8,[sp,#0x10]
	add         x8,x8,#0x14
	ldr         w8,[x8]
	cmp         w8,#0
	beq         |$LN38@DecodeDHT|
|$LN32@DecodeDHT|
	ldr         x9,[sp,#0x10]
	mov         w8,#5
	str         w8,[x9]
	b           |$LN1@DecodeDHT|
	mov         w8,#0
	cmp         w8,#0
	bne         |$LN32@DecodeDHT|
|$LN38@DecodeDHT|
|$LN1@DecodeDHT|
	add         sp,sp,#0x50
	ldr         lr,[sp],#0x10
	ret

	ENDP  ; |?_DecodeDHT@Decoder@Jpeg@@AEAAXXZ|, Jpeg::Decoder::_DecodeDHT

; Function compile flags: /Odtpy
; File C:\Users\paras\source\repos\grep-name\XenevaOS\Libs\Chitralekha\nanojpg.h

	AREA	|.text$mn|, CODE, ARM64

|?_DecodeSOF@Decoder@Jpeg@@AEAAXXZ| PROC		; Jpeg::Decoder::_DecodeSOF

; 313  : 		inline void _DecodeSOF(void) {

|$LN73|
	str         lr,[sp,#-0x10]!
	sub         sp,sp,#0x50
	str         x0,[sp]

; 314  : 			int i, ssxmax = 0, ssymax = 0;

	mov         w8,#0
	str         w8,[sp,#0x18]
	mov         w8,#0
	str         w8,[sp,#0x10]

; 315  : 			Component* c;
; 316  : 			_DecodeLength();

	ldr         x0,[sp]
	bl          |?_DecodeLength@Decoder@Jpeg@@AEAAXXZ|

; 317  : 			if (ctx.length < 9) JPEG_DECODER_THROW(SyntaxError);

	ldr         x8,[sp]
	add         x8,x8,#0x14
	ldr         w8,[x8]
	cmp         w8,#9
	bge         |$LN46@DecodeSOF|
|$LN4@DecodeSOF|
	ldr         x9,[sp]
	mov         w8,#5
	str         w8,[x9]
	b           |$LN1@DecodeSOF|
	mov         w8,#0
	cmp         w8,#0
	bne         |$LN4@DecodeSOF|
|$LN46@DecodeSOF|

; 318  : 			if (ctx.pos[0] != 8) JPEG_DECODER_THROW(Unsupported);

	ldr         x8,[sp]
	add         x8,x8,#8
	ldr         x8,[x8]
	ldrb        w8,[x8]
	mov         w8,w8
	cmp         w8,#8
	beq         |$LN47@DecodeSOF|
|$LN7@DecodeSOF|
	ldr         x9,[sp]
	mov         w8,#2
	str         w8,[x9]
	b           |$LN1@DecodeSOF|
	mov         w8,#0
	cmp         w8,#0
	bne         |$LN7@DecodeSOF|
|$LN47@DecodeSOF|

; 319  : 			ctx.height = _Decode16(ctx.pos + 1);

	ldr         x8,[sp]
	add         x8,x8,#8
	ldr         x8,[x8]
	add         x1,x8,#1
	ldr         x0,[sp]
	bl          |?_Decode16@Decoder@Jpeg@@AEAAGPEBE@Z|
	uxth        w9,w0
	mov         w9,w9
	ldr         x8,[sp]
	add         x8,x8,#0x1C
	str         w9,[x8]

; 320  : 			ctx.width = _Decode16(ctx.pos + 3);

	ldr         x8,[sp]
	add         x8,x8,#8
	ldr         x8,[x8]
	add         x1,x8,#3
	ldr         x0,[sp]
	bl          |?_Decode16@Decoder@Jpeg@@AEAAGPEBE@Z|
	uxth        w9,w0
	mov         w9,w9
	ldr         x8,[sp]
	add         x8,x8,#0x18
	str         w9,[x8]

; 321  : 			ctx.ncomp = ctx.pos[5];

	ldr         x8,[sp]
	add         x8,x8,#8
	ldr         x8,[x8]
	add         x8,x8,#5
	ldrb        w9,[x8]
	mov         w9,w9
	ldr         x8,[sp]
	add         x8,x8,#0x30
	str         w9,[x8]

; 322  : 			_Skip(6);

	mov         w1,#6
	ldr         x0,[sp]
	bl          |?_Skip@Decoder@Jpeg@@AEAAXH@Z|

; 323  : 			switch (ctx.ncomp) {

	ldr         x8,[sp]
	add         x8,x8,#0x30
	ldr         w8,[x8]
	str         w8,[sp,#0x1C]
	ldr         w8,[sp,#0x1C]
	cmp         w8,#1
	beq         |$LN48@DecodeSOF|
	ldr         w8,[sp,#0x1C]
	cmp         w8,#3
	beq         |$LN49@DecodeSOF|
	b           |$LN50@DecodeSOF|
|$LN48@DecodeSOF|
|$LN49@DecodeSOF|

; 324  : 			case 1:
; 325  : 			case 3:
; 326  : 				break;

	b           |$LN8@DecodeSOF|
|$LN50@DecodeSOF|
|$LN12@DecodeSOF|

; 327  : 			default:
; 328  : 				JPEG_DECODER_THROW(Unsupported);

	ldr         x9,[sp]
	mov         w8,#2
	str         w8,[x9]
	b           |$LN1@DecodeSOF|
	mov         w8,#0
	cmp         w8,#0
	bne         |$LN12@DecodeSOF|
|$LN8@DecodeSOF|

; 329  : 			}
; 330  : 			if (ctx.length < (ctx.ncomp * 3)) JPEG_DECODER_THROW(SyntaxError);

	ldr         x8,[sp]
	add         x10,x8,#0x14
	ldr         x8,[sp]
	add         x8,x8,#0x30
	ldr         w9,[x8]
	mov         w8,#3
	mul         w9,w9,w8
	ldr         w8,[x10]
	cmp         w8,w9
	bge         |$LN51@DecodeSOF|
|$LN15@DecodeSOF|
	ldr         x9,[sp]
	mov         w8,#5
	str         w8,[x9]
	b           |$LN1@DecodeSOF|
	mov         w8,#0
	cmp         w8,#0
	bne         |$LN15@DecodeSOF|
|$LN51@DecodeSOF|

; 331  : 			for (i = 0, c = ctx.comp; i < ctx.ncomp; ++i, ++c) {

	mov         w8,#0
	str         w8,[sp,#0x14]
	ldr         x8,[sp]
	add         x8,x8,#0x34
	str         x8,[sp,#8]
	b           |$LN18@DecodeSOF|
|$LN16@DecodeSOF|
	ldr         w8,[sp,#0x14]
	add         w8,w8,#1
	str         w8,[sp,#0x14]
	ldr         x8,[sp,#8]
	add         x8,x8,#0x30
	str         x8,[sp,#8]
|$LN18@DecodeSOF|
	ldr         x8,[sp]
	add         x8,x8,#0x30
	ldr         w9,[x8]
	ldr         w8,[sp,#0x14]
	cmp         w8,w9
	bge         |$LN17@DecodeSOF|

; 332  : 				c->cid = ctx.pos[0];

	ldr         x8,[sp]
	add         x8,x8,#8
	ldr         x8,[x8]
	ldrb        w9,[x8]
	mov         w9,w9
	ldr         x8,[sp,#8]
	str         w9,[x8]

; 333  : 				if (!(c->ssx = ctx.pos[1] >> 4)) JPEG_DECODER_THROW(SyntaxError);

	ldr         x8,[sp]
	add         x8,x8,#8
	ldr         x8,[x8]
	add         x8,x8,#1
	ldrb        w8,[x8]
	mov         w8,w8
	asr         w8,w8,#4
	str         w8,[sp,#0x20]
	ldr         x8,[sp,#8]
	add         x9,x8,#4
	ldr         w8,[sp,#0x20]
	str         w8,[x9]
	ldr         w8,[sp,#0x20]
	cmp         w8,#0
	bne         |$LN52@DecodeSOF|
|$LN21@DecodeSOF|
	ldr         x9,[sp]
	mov         w8,#5
	str         w8,[x9]
	b           |$LN1@DecodeSOF|
	mov         w8,#0
	cmp         w8,#0
	bne         |$LN21@DecodeSOF|
|$LN52@DecodeSOF|

; 334  : 				if (c->ssx & (c->ssx - 1)) JPEG_DECODER_THROW(Unsupported);  // non-power of two

	ldr         x8,[sp,#8]
	add         x10,x8,#4
	ldr         x8,[sp,#8]
	add         x8,x8,#4
	ldr         w8,[x8]
	sub         w9,w8,#1
	ldr         w8,[x10]
	and         w8,w8,w9
	cmp         w8,#0
	beq         |$LN53@DecodeSOF|
|$LN24@DecodeSOF|
	ldr         x9,[sp]
	mov         w8,#2
	str         w8,[x9]
	b           |$LN1@DecodeSOF|
	mov         w8,#0
	cmp         w8,#0
	bne         |$LN24@DecodeSOF|
|$LN53@DecodeSOF|

; 335  : 				if (!(c->ssy = ctx.pos[1] & 15)) JPEG_DECODER_THROW(SyntaxError);

	ldr         x8,[sp]
	add         x8,x8,#8
	ldr         x8,[x8]
	add         x8,x8,#1
	ldrb        w8,[x8]
	mov         w8,w8
	and         w8,w8,#0xF
	str         w8,[sp,#0x24]
	ldr         x8,[sp,#8]
	add         x9,x8,#8
	ldr         w8,[sp,#0x24]
	str         w8,[x9]
	ldr         w8,[sp,#0x24]
	cmp         w8,#0
	bne         |$LN54@DecodeSOF|
|$LN27@DecodeSOF|
	ldr         x9,[sp]
	mov         w8,#5
	str         w8,[x9]
	b           |$LN1@DecodeSOF|
	mov         w8,#0
	cmp         w8,#0
	bne         |$LN27@DecodeSOF|
|$LN54@DecodeSOF|

; 336  : 				if (c->ssy & (c->ssy - 1)) JPEG_DECODER_THROW(Unsupported);  // non-power of two

	ldr         x8,[sp,#8]
	add         x10,x8,#8
	ldr         x8,[sp,#8]
	add         x8,x8,#8
	ldr         w8,[x8]
	sub         w9,w8,#1
	ldr         w8,[x10]
	and         w8,w8,w9
	cmp         w8,#0
	beq         |$LN55@DecodeSOF|
|$LN30@DecodeSOF|
	ldr         x9,[sp]
	mov         w8,#2
	str         w8,[x9]
	b           |$LN1@DecodeSOF|
	mov         w8,#0
	cmp         w8,#0
	bne         |$LN30@DecodeSOF|
|$LN55@DecodeSOF|

; 337  : 				if ((c->qtsel = ctx.pos[2]) & 0xFC) JPEG_DECODER_THROW(SyntaxError);

	ldr         x8,[sp]
	add         x8,x8,#8
	ldr         x8,[x8]
	add         x8,x8,#2
	ldrb        w8,[x8]
	mov         w8,w8
	str         w8,[sp,#0x28]
	ldr         x8,[sp,#8]
	add         x9,x8,#0x18
	ldr         w8,[sp,#0x28]
	str         w8,[x9]
	ldr         w8,[sp,#0x28]
	and         w8,w8,#0xFC
	cmp         w8,#0
	beq         |$LN56@DecodeSOF|
|$LN33@DecodeSOF|
	ldr         x9,[sp]
	mov         w8,#5
	str         w8,[x9]
	b           |$LN1@DecodeSOF|
	mov         w8,#0
	cmp         w8,#0
	bne         |$LN33@DecodeSOF|
|$LN56@DecodeSOF|

; 338  : 				_Skip(3);

	mov         w1,#3
	ldr         x0,[sp]
	bl          |?_Skip@Decoder@Jpeg@@AEAAXH@Z|

; 339  : 				ctx.qtused |= 1 << c->qtsel;

	ldr         x8,[sp]
	add         x10,x8,#0xC4
	ldr         x8,[sp,#8]
	add         x8,x8,#0x18
	mov         w9,#1
	ldr         w8,[x8]
	lsl         w9,w9,w8
	ldr         w8,[x10]
	orr         w9,w8,w9
	ldr         x8,[sp]
	add         x8,x8,#0xC4
	str         w9,[x8]

; 340  : 				if (c->ssx > ssxmax) ssxmax = c->ssx;

	ldr         x8,[sp,#8]
	add         x8,x8,#4
	ldr         w9,[sp,#0x18]
	ldr         w8,[x8]
	cmp         w8,w9
	ble         |$LN57@DecodeSOF|
	ldr         x8,[sp,#8]
	add         x8,x8,#4
	ldr         w8,[x8]
	str         w8,[sp,#0x18]
|$LN57@DecodeSOF|

; 341  : 				if (c->ssy > ssymax) ssymax = c->ssy;

	ldr         x8,[sp,#8]
	add         x8,x8,#8
	ldr         w9,[sp,#0x10]
	ldr         w8,[x8]
	cmp         w8,w9
	ble         |$LN58@DecodeSOF|
	ldr         x8,[sp,#8]
	add         x8,x8,#8
	ldr         w8,[x8]
	str         w8,[sp,#0x10]
|$LN58@DecodeSOF|

; 342  : 			}

	b           |$LN16@DecodeSOF|
|$LN17@DecodeSOF|

; 343  : 			ctx.mbsizex = ssxmax << 3;

	ldr         w8,[sp,#0x18]
	lsl         w9,w8,#3
	ldr         x8,[sp]
	add         x8,x8,#0x28
	str         w9,[x8]

; 344  : 			ctx.mbsizey = ssymax << 3;

	ldr         w8,[sp,#0x10]
	lsl         w9,w8,#3
	ldr         x8,[sp]
	add         x8,x8,#0x2C
	str         w9,[x8]

; 345  : 			ctx.mbwidth = (ctx.width + ctx.mbsizex - 1) / ctx.mbsizex;

	ldr         x8,[sp]
	add         x9,x8,#0x18
	ldr         x8,[sp]
	add         x8,x8,#0x28
	ldr         w9,[x9]
	ldr         w8,[x8]
	add         w8,w9,w8
	sub         w9,w8,#1
	ldr         x8,[sp]
	add         x8,x8,#0x28
	ldr         w8,[x8]
	cbnz        w8,|$LN66@DecodeSOF|
	brk         #0xF004
|$LN66@DecodeSOF|
	sdiv        w9,w9,w8
	ldr         x8,[sp]
	add         x8,x8,#0x20
	str         w9,[x8]

; 346  : 			ctx.mbheight = (ctx.height + ctx.mbsizey - 1) / ctx.mbsizey;

	ldr         x8,[sp]
	add         x9,x8,#0x1C
	ldr         x8,[sp]
	add         x8,x8,#0x2C
	ldr         w9,[x9]
	ldr         w8,[x8]
	add         w8,w9,w8
	sub         w9,w8,#1
	ldr         x8,[sp]
	add         x8,x8,#0x2C
	ldr         w8,[x8]
	cbnz        w8,|$LN67@DecodeSOF|
	brk         #0xF004
|$LN67@DecodeSOF|
	sdiv        w9,w9,w8
	ldr         x8,[sp]
	add         x8,x8,#0x24
	str         w9,[x8]

; 347  : 			for (i = 0, c = ctx.comp; i < ctx.ncomp; ++i, ++c) {

	mov         w8,#0
	str         w8,[sp,#0x14]
	ldr         x8,[sp]
	add         x8,x8,#0x34
	str         x8,[sp,#8]
	b           |$LN36@DecodeSOF|
|$LN34@DecodeSOF|
	ldr         w8,[sp,#0x14]
	add         w8,w8,#1
	str         w8,[sp,#0x14]
	ldr         x8,[sp,#8]
	add         x8,x8,#0x30
	str         x8,[sp,#8]
|$LN36@DecodeSOF|
	ldr         x8,[sp]
	add         x8,x8,#0x30
	ldr         w9,[x8]
	ldr         w8,[sp,#0x14]
	cmp         w8,w9
	bge         |$LN35@DecodeSOF|

; 348  : 				c->width = (ctx.width * c->ssx + ssxmax - 1) / ssxmax;

	ldr         x8,[sp]
	add         x9,x8,#0x18
	ldr         x8,[sp,#8]
	add         x8,x8,#4
	ldr         w9,[x9]
	ldr         w8,[x8]
	mul         w9,w9,w8
	ldr         w8,[sp,#0x18]
	add         w8,w9,w8
	sub         w9,w8,#1
	ldr         w8,[sp,#0x18]
	cbnz        w8,|$LN68@DecodeSOF|
	brk         #0xF004
|$LN68@DecodeSOF|
	sdiv        w9,w9,w8
	ldr         x8,[sp,#8]
	add         x8,x8,#0xC
	str         w9,[x8]

; 349  : 				c->stride = (c->width + 7) & 0x7FFFFFF8;

	ldr         x8,[sp,#8]
	add         x8,x8,#0xC
	ldr         w8,[x8]
	add         w8,w8,#7
	and         w9,w8,#0x7FFFFFF8
	ldr         x8,[sp,#8]
	add         x8,x8,#0x14
	str         w9,[x8]

; 350  : 				c->height = (ctx.height * c->ssy + ssymax - 1) / ssymax;

	ldr         x8,[sp]
	add         x9,x8,#0x1C
	ldr         x8,[sp,#8]
	add         x8,x8,#8
	ldr         w9,[x9]
	ldr         w8,[x8]
	mul         w9,w9,w8
	ldr         w8,[sp,#0x10]
	add         w8,w9,w8
	sub         w9,w8,#1
	ldr         w8,[sp,#0x10]
	cbnz        w8,|$LN69@DecodeSOF|
	brk         #0xF004
|$LN69@DecodeSOF|
	sdiv        w9,w9,w8
	ldr         x8,[sp,#8]
	add         x8,x8,#0x10
	str         w9,[x8]

; 351  : 				c->stride = ctx.mbwidth * ctx.mbsizex * c->ssx / ssxmax;

	ldr         x8,[sp]
	add         x9,x8,#0x20
	ldr         x8,[sp]
	add         x8,x8,#0x28
	ldr         w9,[x9]
	ldr         w8,[x8]
	mul         w9,w9,w8
	ldr         x8,[sp,#8]
	add         x8,x8,#4
	ldr         w8,[x8]
	mul         w9,w9,w8
	ldr         w8,[sp,#0x18]
	cbnz        w8,|$LN70@DecodeSOF|
	brk         #0xF004
|$LN70@DecodeSOF|
	sdiv        w9,w9,w8
	ldr         x8,[sp,#8]
	add         x8,x8,#0x14
	str         w9,[x8]

; 352  : 				if (((c->width < 3) && (c->ssx != ssxmax)) || ((c->height < 3) && (c->ssy != ssymax))) JPEG_DECODER_THROW(Unsupported);

	ldr         x8,[sp,#8]
	add         x8,x8,#0xC
	ldr         w8,[x8]
	cmp         w8,#3
	bge         |$LN61@DecodeSOF|
	ldr         x8,[sp,#8]
	add         x8,x8,#4
	ldr         w9,[sp,#0x18]
	ldr         w8,[x8]
	cmp         w8,w9
	bne         |$LN60@DecodeSOF|
|$LN61@DecodeSOF|
	ldr         x8,[sp,#8]
	add         x8,x8,#0x10
	ldr         w8,[x8]
	cmp         w8,#3
	bge         |$LN59@DecodeSOF|
	ldr         x8,[sp,#8]
	add         x8,x8,#8
	ldr         w9,[sp,#0x10]
	ldr         w8,[x8]
	cmp         w8,w9
	beq         |$LN59@DecodeSOF|
|$LN60@DecodeSOF|
|$LN39@DecodeSOF|
	ldr         x9,[sp]
	mov         w8,#2
	str         w8,[x9]
	b           |$LN1@DecodeSOF|
	mov         w8,#0
	cmp         w8,#0
	bne         |$LN39@DecodeSOF|
|$LN59@DecodeSOF|

; 353  : 				uint32_t step1 = ctx.mbheight * ctx.mbsizey;

	ldr         x8,[sp]
	add         x9,x8,#0x24
	ldr         x8,[sp]
	add         x8,x8,#0x2C
	ldr         w9,[x9]
	ldr         w8,[x8]
	mul         w8,w9,w8
	str         w8,[sp,#0x2C]

; 354  : 				uint32_t step2 = step1 * c->ssy;

	ldr         x8,[sp,#8]
	add         x8,x8,#8
	ldr         w9,[sp,#0x2C]
	ldr         w8,[x8]
	mul         w8,w9,w8
	str         w8,[sp,#0x30]

; 355  : 				uint32_t step3 = step2 / ssymax;

	ldr         w9,[sp,#0x30]
	ldr         w8,[sp,#0x10]
	cbnz        w8,|$LN71@DecodeSOF|
	brk         #0xF004
|$LN71@DecodeSOF|
	udiv        w8,w9,w8
	str         w8,[sp,#0x34]

; 356  : 				uint32_t total = c->stride * step3;

	ldr         x8,[sp,#8]
	add         x8,x8,#0x14
	ldr         w9,[x8]
	ldr         w8,[sp,#0x34]
	mul         w8,w9,w8
	str         w8,[sp,#0x40]

; 357  : 
; 358  : 				if (!(c->pixels = (unsigned char*)AllocMem(c->stride * (ctx.mbheight * ctx.mbsizey * c->ssy / ssymax)))) JPEG_DECODER_THROW(OutOfMemory);

	ldr         x8,[sp,#8]
	add         x10,x8,#0x14
	ldr         x8,[sp]
	add         x9,x8,#0x24
	ldr         x8,[sp]
	add         x8,x8,#0x2C
	ldr         w9,[x9]
	ldr         w8,[x8]
	mul         w9,w9,w8
	ldr         x8,[sp,#8]
	add         x8,x8,#8
	ldr         w8,[x8]
	mul         w9,w9,w8
	ldr         w8,[sp,#0x10]
	cbnz        w8,|$LN72@DecodeSOF|
	brk         #0xF004
|$LN72@DecodeSOF|
	sdiv        w9,w9,w8
	ldr         w8,[x10]
	mul         w0,w8,w9
	ldr         x8,[sp]
	add         x8,x8,#0x80,lsl #0xC
	add         x8,x8,#0x320
	mov         w0,w0
	ldr         x8,[x8]
	blr         x8
	str         x0,[sp,#0x38]
	ldr         x8,[sp,#8]
	add         x9,x8,#0x28
	ldr         x8,[sp,#0x38]
	str         x8,[x9]
	ldr         x8,[sp,#0x38]
	cmp         x8,#0
	bne         |$LN62@DecodeSOF|
|$LN42@DecodeSOF|
	ldr         x9,[sp]
	mov         w8,#3
	str         w8,[x9]
	b           |$LN1@DecodeSOF|
	mov         w8,#0
	cmp         w8,#0
	bne         |$LN42@DecodeSOF|
|$LN62@DecodeSOF|

; 359  : 			}

	b           |$LN34@DecodeSOF|
|$LN35@DecodeSOF|

; 360  : 			if (ctx.ncomp == 3) {

	ldr         x8,[sp]
	add         x8,x8,#0x30
	ldr         w8,[x8]
	cmp         w8,#3
	bne         |$LN63@DecodeSOF|

; 361  : 				ctx.rgb = (unsigned char*)AllocMem(ctx.width * ctx.height * ctx.ncomp);

	ldr         x8,[sp]
	add         x9,x8,#0x18
	ldr         x8,[sp]
	add         x8,x8,#0x1C
	ldr         w9,[x9]
	ldr         w8,[x8]
	mul         w9,w9,w8
	ldr         x8,[sp]
	add         x8,x8,#0x30
	ldr         w8,[x8]
	mul         w0,w9,w8
	ldr         x8,[sp]
	add         x8,x8,#0x80,lsl #0xC
	add         x8,x8,#0x320
	mov         w0,w0
	ldr         x8,[x8]
	blr         x8
	ldr         x8,[sp]
	add         x8,x8,#0x80,lsl #0xC
	add         x8,x8,#0x2D8
	str         x0,[x8]

; 362  : 				if (!ctx.rgb) JPEG_DECODER_THROW(OutOfMemory);

	ldr         x8,[sp]
	add         x8,x8,#0x80,lsl #0xC
	add         x8,x8,#0x2D8
	ldr         x8,[x8]
	cmp         x8,#0
	bne         |$LN64@DecodeSOF|
|$LN45@DecodeSOF|
	ldr         x9,[sp]
	mov         w8,#3
	str         w8,[x9]
	b           |$LN1@DecodeSOF|
	mov         w8,#0
	cmp         w8,#0
	bne         |$LN45@DecodeSOF|
|$LN64@DecodeSOF|
|$LN63@DecodeSOF|

; 363  : 			}
; 364  : 			_Skip(ctx.length);

	ldr         x8,[sp]
	add         x8,x8,#0x14
	ldr         w1,[x8]
	ldr         x0,[sp]
	bl          |?_Skip@Decoder@Jpeg@@AEAAXH@Z|
|$LN1@DecodeSOF|
	add         sp,sp,#0x50
	ldr         lr,[sp],#0x10
	ret

	ENDP  ; |?_DecodeSOF@Decoder@Jpeg@@AEAAXXZ|, Jpeg::Decoder::_DecodeSOF

; Function compile flags: /Odtpy
; File C:\Users\paras\source\repos\grep-name\XenevaOS\Libs\Chitralekha\nanojpg.h

	AREA	|.text$mn|, CODE, ARM64

|?_SkipMarker@Decoder@Jpeg@@AEAAXXZ| PROC		; Jpeg::Decoder::_SkipMarker

; 308  : 		inline void _SkipMarker(void) {

|$LN3|
	str         lr,[sp,#-0x10]!
	sub         sp,sp,#0x10
	str         x0,[sp]

; 309  : 			_DecodeLength();

	ldr         x0,[sp]
	bl          |?_DecodeLength@Decoder@Jpeg@@AEAAXXZ|

; 310  : 			_Skip(ctx.length);

	ldr         x8,[sp]
	add         x8,x8,#0x14
	ldr         w1,[x8]
	ldr         x0,[sp]
	bl          |?_Skip@Decoder@Jpeg@@AEAAXH@Z|
	add         sp,sp,#0x10
	ldr         lr,[sp],#0x10
	ret

	ENDP  ; |?_SkipMarker@Decoder@Jpeg@@AEAAXXZ|, Jpeg::Decoder::_SkipMarker

; Function compile flags: /Odtpy
; File C:\Users\paras\source\repos\grep-name\XenevaOS\Libs\Chitralekha\nanojpg.h

	AREA	|.text$mn|, CODE, ARM64

|?_DecodeLength@Decoder@Jpeg@@AEAAXXZ| PROC		; Jpeg::Decoder::_DecodeLength

; 301  : 		inline void _DecodeLength(void) {

|$LN11|
	str         lr,[sp,#-0x10]!
	sub         sp,sp,#0x10
	str         x0,[sp]

; 302  : 			if (ctx.size < 2) JPEG_DECODER_THROW(SyntaxError);

	ldr         x8,[sp]
	add         x8,x8,#0x10
	ldr         w8,[x8]
	cmp         w8,#2
	bge         |$LN8@DecodeLeng|
|$LN4@DecodeLeng|
	ldr         x9,[sp]
	mov         w8,#5
	str         w8,[x9]
	b           |$LN1@DecodeLeng|
	mov         w8,#0
	cmp         w8,#0
	bne         |$LN4@DecodeLeng|
|$LN8@DecodeLeng|

; 303  : 			ctx.length = _Decode16(ctx.pos);

	ldr         x8,[sp]
	add         x8,x8,#8
	ldr         x1,[x8]
	ldr         x0,[sp]
	bl          |?_Decode16@Decoder@Jpeg@@AEAAGPEBE@Z|
	uxth        w9,w0
	mov         w9,w9
	ldr         x8,[sp]
	add         x8,x8,#0x14
	str         w9,[x8]

; 304  : 			if (ctx.length > ctx.size) JPEG_DECODER_THROW(SyntaxError);

	ldr         x8,[sp]
	add         x10,x8,#0x14
	ldr         x8,[sp]
	add         x8,x8,#0x10
	ldr         w9,[x8]
	ldr         w8,[x10]
	cmp         w8,w9
	ble         |$LN9@DecodeLeng|
|$LN7@DecodeLeng|
	ldr         x9,[sp]
	mov         w8,#5
	str         w8,[x9]
	b           |$LN1@DecodeLeng|
	mov         w8,#0
	cmp         w8,#0
	bne         |$LN7@DecodeLeng|
|$LN9@DecodeLeng|

; 305  : 			_Skip(2);

	mov         w1,#2
	ldr         x0,[sp]
	bl          |?_Skip@Decoder@Jpeg@@AEAAXH@Z|
|$LN1@DecodeLeng|
	add         sp,sp,#0x10
	ldr         lr,[sp],#0x10
	ret

	ENDP  ; |?_DecodeLength@Decoder@Jpeg@@AEAAXXZ|, Jpeg::Decoder::_DecodeLength

; Function compile flags: /Odtpy
; File C:\Users\paras\source\repos\grep-name\XenevaOS\Libs\Chitralekha\nanojpg.h

	AREA	|.text$mn|, CODE, ARM64

|?_Decode16@Decoder@Jpeg@@AEAAGPEBE@Z| PROC		; Jpeg::Decoder::_Decode16

; 297  : 		inline unsigned short _Decode16(const unsigned char *pos) {

|$LN3|
	sub         sp,sp,#0x10
	str         x0,[sp,#8]
	str         x1,[sp]

; 298  : 			return (pos[0] << 8) | pos[1];

	ldr         x8,[sp]
	ldrb        w8,[x8]
	mov         w8,w8
	lsl         w9,w8,#8
	ldr         x8,[sp]
	add         x8,x8,#1
	ldrb        w8,[x8]
	mov         w8,w8
	orr         w8,w9,w8
	uxth        w0,w8
	mov         w0,w0
	add         sp,sp,#0x10
	ret

	ENDP  ; |?_Decode16@Decoder@Jpeg@@AEAAGPEBE@Z|, Jpeg::Decoder::_Decode16

; Function compile flags: /Odtpy
; File C:\Users\paras\source\repos\grep-name\XenevaOS\Libs\Chitralekha\nanojpg.h

	AREA	|.text$mn|, CODE, ARM64

|?_Skip@Decoder@Jpeg@@AEAAXH@Z| PROC			; Jpeg::Decoder::_Skip

; 290  : 		inline void _Skip(int count) {

|$LN4|
	sub         sp,sp,#0x10
	str         x0,[sp,#8]
	str         w1,[sp]

; 291  : 			ctx.pos += count;

	ldr         x8,[sp,#8]
	add         x10,x8,#8
	ldr         w8,[sp]
	sxtw        x9,w8
	ldr         x8,[x10]
	add         x9,x8,x9
	ldr         x8,[sp,#8]
	add         x8,x8,#8
	str         x9,[x8]

; 292  : 			ctx.size -= count;

	ldr         x8,[sp,#8]
	add         x8,x8,#0x10
	ldr         w9,[x8]
	ldr         w8,[sp]
	sub         w9,w9,w8
	ldr         x8,[sp,#8]
	add         x8,x8,#0x10
	str         w9,[x8]

; 293  : 			ctx.length -= count;

	ldr         x8,[sp,#8]
	add         x8,x8,#0x14
	ldr         w9,[x8]
	ldr         w8,[sp]
	sub         w9,w9,w8
	ldr         x8,[sp,#8]
	add         x8,x8,#0x14
	str         w9,[x8]

; 294  : 			if (ctx.size < 0) ctx.error = SyntaxError;

	ldr         x8,[sp,#8]
	add         x8,x8,#0x10
	ldr         w8,[x8]
	cmp         w8,#0
	bge         |$LN2@Skip|
	ldr         x9,[sp,#8]
	mov         w8,#5
	str         w8,[x9]
|$LN2@Skip|
	add         sp,sp,#0x10
	ret

	ENDP  ; |?_Skip@Decoder@Jpeg@@AEAAXH@Z|, Jpeg::Decoder::_Skip

; Function compile flags: /Odtpy
; File C:\Users\paras\source\repos\grep-name\XenevaOS\Libs\Chitralekha\nanojpg.h

	AREA	|.text$mn|, CODE, ARM64

|?_ByteAlign@Decoder@Jpeg@@AEAAXXZ| PROC		; Jpeg::Decoder::_ByteAlign

; 286  : 		inline void _ByteAlign(void) {

|$LN3|
	sub         sp,sp,#0x10
	str         x0,[sp]

; 287  : 			ctx.bufbits &= 0xF8;

	ldr         x8,[sp]
	add         x8,x8,#0x80,lsl #0xC
	add         x8,x8,#0x1D0
	ldr         w8,[x8]
	and         w9,w8,#0xF8
	ldr         x8,[sp]
	add         x8,x8,#0x80,lsl #0xC
	add         x8,x8,#0x1D0
	str         w9,[x8]
	add         sp,sp,#0x10
	ret

	ENDP  ; |?_ByteAlign@Decoder@Jpeg@@AEAAXXZ|, Jpeg::Decoder::_ByteAlign

; Function compile flags: /Odtpy
; File C:\Users\paras\source\repos\grep-name\XenevaOS\Libs\Chitralekha\nanojpg.h

	AREA	|.text$mn|, CODE, ARM64

|?_GetBits@Decoder@Jpeg@@AEAAHH@Z| PROC			; Jpeg::Decoder::_GetBits

; 280  : 		inline int _GetBits(int bits) {

|$LN3|
	str         lr,[sp,#-0x10]!
	sub         sp,sp,#0x10
	str         x0,[sp,#8]
	str         w1,[sp]

; 281  : 			int res = _ShowBits(bits);

	ldr         w1,[sp]
	ldr         x0,[sp,#8]
	bl          |?_ShowBits@Decoder@Jpeg@@AEAAHH@Z|
	mov         w0,w0
	str         w0,[sp,#4]

; 282  : 			_SkipBits(bits);

	ldr         w1,[sp]
	ldr         x0,[sp,#8]
	bl          |?_SkipBits@Decoder@Jpeg@@AEAAXH@Z|

; 283  : 			return res;

	ldr         w0,[sp,#4]
	add         sp,sp,#0x10
	ldr         lr,[sp],#0x10
	ret

	ENDP  ; |?_GetBits@Decoder@Jpeg@@AEAAHH@Z|, Jpeg::Decoder::_GetBits

; Function compile flags: /Odtpy
; File C:\Users\paras\source\repos\grep-name\XenevaOS\Libs\Chitralekha\nanojpg.h

	AREA	|.text$mn|, CODE, ARM64

|?_SkipBits@Decoder@Jpeg@@AEAAXH@Z| PROC		; Jpeg::Decoder::_SkipBits

; 274  : 		inline void _SkipBits(int bits) {

|$LN4|
	str         lr,[sp,#-0x10]!
	sub         sp,sp,#0x10
	str         x0,[sp,#8]
	str         w1,[sp]

; 275  : 			if (ctx.bufbits < bits)

	ldr         x8,[sp,#8]
	add         x8,x8,#0x80,lsl #0xC
	add         x8,x8,#0x1D0
	ldr         w9,[sp]
	ldr         w8,[x8]
	cmp         w8,w9
	bge         |$LN2@SkipBits|

; 276  : 				(void)_ShowBits(bits);

	ldr         w1,[sp]
	ldr         x0,[sp,#8]
	bl          |?_ShowBits@Decoder@Jpeg@@AEAAHH@Z|
|$LN2@SkipBits|

; 277  : 			ctx.bufbits -= bits;

	ldr         x8,[sp,#8]
	add         x8,x8,#0x80,lsl #0xC
	add         x8,x8,#0x1D0
	ldr         w9,[x8]
	ldr         w8,[sp]
	sub         w9,w9,w8
	ldr         x8,[sp,#8]
	add         x8,x8,#0x80,lsl #0xC
	add         x8,x8,#0x1D0
	str         w9,[x8]
	add         sp,sp,#0x10
	ldr         lr,[sp],#0x10
	ret

	ENDP  ; |?_SkipBits@Decoder@Jpeg@@AEAAXH@Z|, Jpeg::Decoder::_SkipBits

; Function compile flags: /Odtpy
; File C:\Users\paras\source\repos\grep-name\XenevaOS\Libs\Chitralekha\nanojpg.h

	AREA	|.text$mn|, CODE, ARM64

|?_ShowBits@Decoder@Jpeg@@AEAAHH@Z| PROC		; Jpeg::Decoder::_ShowBits

; 238  : 		inline int _ShowBits(int bits) {

|$LN18|
	sub         sp,sp,#0x20
	str         x0,[sp,#0x10]
	str         w1,[sp,#4]

; 239  : 			unsigned char newbyte;
; 240  : 			if (!bits) return 0;

	ldr         w8,[sp,#4]
	cmp         w8,#0
	bne         |$LN6@ShowBits|
	mov         w0,#0
	b           |$LN1@ShowBits|
|$LN6@ShowBits|
|$LN17@ShowBits|
|$LN2@ShowBits|

; 241  : 			while (ctx.bufbits < bits) {

	ldr         x8,[sp,#0x10]
	add         x8,x8,#0x80,lsl #0xC
	add         x8,x8,#0x1D0
	ldr         w9,[sp,#4]
	ldr         w8,[x8]
	cmp         w8,w9
	bge         |$LN3@ShowBits|

; 242  : 				if (ctx.size <= 0) {

	ldr         x8,[sp,#0x10]
	add         x8,x8,#0x10
	ldr         w8,[x8]
	cmp         w8,#0
	bgt         |$LN7@ShowBits|

; 243  : 					ctx.buf = (ctx.buf << 8) | 0xFF;

	ldr         x8,[sp,#0x10]
	add         x8,x8,#0x80,lsl #0xC
	add         x8,x8,#0x1CC
	ldr         w8,[x8]
	lsl         w8,w8,#8
	orr         w9,w8,#0xFF
	ldr         x8,[sp,#0x10]
	add         x8,x8,#0x80,lsl #0xC
	add         x8,x8,#0x1CC
	str         w9,[x8]

; 244  : 					ctx.bufbits += 8;

	ldr         x8,[sp,#0x10]
	add         x8,x8,#0x80,lsl #0xC
	add         x8,x8,#0x1D0
	ldr         w8,[x8]
	add         w9,w8,#8
	ldr         x8,[sp,#0x10]
	add         x8,x8,#0x80,lsl #0xC
	add         x8,x8,#0x1D0
	str         w9,[x8]

; 245  : 					continue;

	b           |$LN2@ShowBits|
|$LN7@ShowBits|

; 246  : 				}
; 247  : 				newbyte = *ctx.pos++;

	ldr         x8,[sp,#0x10]
	add         x8,x8,#8
	ldr         x8,[x8]
	ldrb        w8,[x8]
	strb        w8,[sp,#1]
	ldr         x8,[sp,#0x10]
	add         x8,x8,#8
	ldr         x8,[x8]
	add         x9,x8,#1
	ldr         x8,[sp,#0x10]
	add         x8,x8,#8
	str         x9,[x8]

; 248  : 				ctx.size--;

	ldr         x8,[sp,#0x10]
	add         x8,x8,#0x10
	ldr         w8,[x8]
	sub         w9,w8,#1
	ldr         x8,[sp,#0x10]
	add         x8,x8,#0x10
	str         w9,[x8]

; 249  : 				ctx.bufbits += 8;

	ldr         x8,[sp,#0x10]
	add         x8,x8,#0x80,lsl #0xC
	add         x8,x8,#0x1D0
	ldr         w8,[x8]
	add         w9,w8,#8
	ldr         x8,[sp,#0x10]
	add         x8,x8,#0x80,lsl #0xC
	add         x8,x8,#0x1D0
	str         w9,[x8]

; 250  : 				ctx.buf = (ctx.buf << 8) | newbyte;

	ldr         x8,[sp,#0x10]
	add         x8,x8,#0x80,lsl #0xC
	add         x8,x8,#0x1CC
	ldr         w8,[x8]
	lsl         w9,w8,#8
	ldrb        w8,[sp,#1]
	mov         w8,w8
	orr         w9,w9,w8
	ldr         x8,[sp,#0x10]
	add         x8,x8,#0x80,lsl #0xC
	add         x8,x8,#0x1CC
	str         w9,[x8]

; 251  : 				if (newbyte == 0xFF) {

	ldrb        w8,[sp,#1]
	mov         w8,w8
	cmp         w8,#0xFF
	bne         |$LN8@ShowBits|

; 252  : 					if (ctx.size) {

	ldr         x8,[sp,#0x10]
	add         x8,x8,#0x10
	ldr         w8,[x8]
	cmp         w8,#0
	beq         |$LN9@ShowBits|

; 253  : 						unsigned char marker = *ctx.pos++;

	ldr         x8,[sp,#0x10]
	add         x8,x8,#8
	ldr         x8,[x8]
	ldrb        w8,[x8]
	strb        w8,[sp]
	ldr         x8,[sp,#0x10]
	add         x8,x8,#8
	ldr         x8,[x8]
	add         x9,x8,#1
	ldr         x8,[sp,#0x10]
	add         x8,x8,#8
	str         x9,[x8]

; 254  : 						ctx.size--;

	ldr         x8,[sp,#0x10]
	add         x8,x8,#0x10
	ldr         w8,[x8]
	sub         w9,w8,#1
	ldr         x8,[sp,#0x10]
	add         x8,x8,#0x10
	str         w9,[x8]

; 255  : 						switch (marker) {

	ldrb        w8,[sp]
	mov         w8,w8
	str         w8,[sp,#8]
	ldr         w8,[sp,#8]
	cmp         w8,#0
	beq         |$LN11@ShowBits|
	ldr         w8,[sp,#8]
	cmp         w8,#0xD9
	beq         |$LN12@ShowBits|
	b           |$LN13@ShowBits|
|$LN11@ShowBits|

; 256  : 						case 0:    break;

	b           |$LN4@ShowBits|
|$LN12@ShowBits|

; 257  : 						case 0xD9: ctx.size = 0; break;

	ldr         x8,[sp,#0x10]
	add         x9,x8,#0x10
	mov         w8,#0
	str         w8,[x9]
	b           |$LN4@ShowBits|
|$LN13@ShowBits|

; 258  : 						default:
; 259  : 							if ((marker & 0xF8) != 0xD0)

	ldrb        w8,[sp]
	mov         w8,w8
	and         w8,w8,#0xF8
	cmp         w8,#0xD0
	beq         |$LN14@ShowBits|

; 260  : 								ctx.error = SyntaxError;

	ldr         x9,[sp,#0x10]
	mov         w8,#5
	str         w8,[x9]
	b           |$LN15@ShowBits|
|$LN14@ShowBits|

; 261  : 							else {
; 262  : 								ctx.buf = (ctx.buf << 8) | marker;

	ldr         x8,[sp,#0x10]
	add         x8,x8,#0x80,lsl #0xC
	add         x8,x8,#0x1CC
	ldr         w8,[x8]
	lsl         w9,w8,#8
	ldrb        w8,[sp]
	mov         w8,w8
	orr         w9,w9,w8
	ldr         x8,[sp,#0x10]
	add         x8,x8,#0x80,lsl #0xC
	add         x8,x8,#0x1CC
	str         w9,[x8]

; 263  : 								ctx.bufbits += 8;

	ldr         x8,[sp,#0x10]
	add         x8,x8,#0x80,lsl #0xC
	add         x8,x8,#0x1D0
	ldr         w8,[x8]
	add         w9,w8,#8
	ldr         x8,[sp,#0x10]
	add         x8,x8,#0x80,lsl #0xC
	add         x8,x8,#0x1D0
	str         w9,[x8]
|$LN15@ShowBits|
|$LN4@ShowBits|

; 264  : 							}
; 265  : 						}
; 266  : 					}

	b           |$LN10@ShowBits|
|$LN9@ShowBits|

; 267  : 					else
; 268  : 						ctx.error = SyntaxError;

	ldr         x9,[sp,#0x10]
	mov         w8,#5
	str         w8,[x9]
|$LN10@ShowBits|
|$LN8@ShowBits|

; 269  : 				}
; 270  : 			}

	b           |$LN17@ShowBits|
|$LN3@ShowBits|

; 271  : 			return (ctx.buf >> (ctx.bufbits - bits)) & ((1 << bits) - 1);

	ldr         x8,[sp,#0x10]
	add         x8,x8,#0x80,lsl #0xC
	add         x10,x8,#0x1CC
	ldr         x8,[sp,#0x10]
	add         x8,x8,#0x80,lsl #0xC
	add         x8,x8,#0x1D0
	ldr         w9,[x8]
	ldr         w8,[sp,#4]
	sub         w9,w9,w8
	ldr         w8,[x10]
	asr         w10,w8,w9
	mov         w9,#1
	ldr         w8,[sp,#4]
	lsl         w8,w9,w8
	sub         w8,w8,#1
	and         w0,w10,w8
	mov         w0,w0
|$LN1@ShowBits|
	add         sp,sp,#0x20
	ret

	ENDP  ; |?_ShowBits@Decoder@Jpeg@@AEAAHH@Z|, Jpeg::Decoder::_ShowBits

; Function compile flags: /Odtpy
; File C:\Users\paras\source\repos\grep-name\XenevaOS\Libs\Chitralekha\nanojpg.h

	AREA	|.text$mn|, CODE, ARM64

|?_ColIDCT@Decoder@Jpeg@@AEAAXPEBHPEAEH@Z| PROC		; Jpeg::Decoder::_ColIDCT

; 187  : 		inline void _ColIDCT(const int* blk, unsigned char *out, int stride) {

|$LN7|
	str         lr,[sp,#-0x10]!
	sub         sp,sp,#0x40
	str         x0,[sp,#0x38]
	str         x1,[sp,#0x30]
	str         x2,[sp,#8]
	str         w3,[sp,#0x2C]

; 188  : 			int x0, x1, x2, x3, x4, x5, x6, x7, x8;
; 189  : 			if (!((x1 = blk[8 * 4] << 8)

	ldr         x8,[sp,#0x30]
	add         x8,x8,#0x80
	ldr         w8,[x8]
	lsl         w8,w8,#8
	str         w8,[sp,#0x14]
	ldr         x8,[sp,#0x30]
	add         x8,x8,#0xC0
	ldr         w8,[x8]
	str         w8,[sp,#0x24]
	ldr         x8,[sp,#0x30]
	add         x8,x8,#0x40
	ldr         w8,[x8]
	str         w8,[sp,#0x20]
	ldr         x8,[sp,#0x30]
	add         x8,x8,#0x20
	ldr         w8,[x8]
	str         w8,[sp,#4]
	ldr         x8,[sp,#0x30]
	add         x8,x8,#0xE0
	ldr         w8,[x8]
	str         w8,[sp,#0x18]
	ldr         x8,[sp,#0x30]
	add         x8,x8,#0xA0
	ldr         w8,[x8]
	str         w8,[sp,#0x1C]
	ldr         x8,[sp,#0x30]
	add         x8,x8,#0x60
	ldr         w8,[x8]
	str         w8,[sp,#0x28]
	ldr         w9,[sp,#0x14]
	ldr         w8,[sp,#0x24]
	orr         w9,w9,w8
	ldr         w8,[sp,#0x20]
	orr         w9,w9,w8
	ldr         w8,[sp,#4]
	orr         w9,w9,w8
	ldr         w8,[sp,#0x18]
	orr         w9,w9,w8
	ldr         w8,[sp,#0x1C]
	orr         w9,w9,w8
	ldr         w8,[sp,#0x28]
	orr         w8,w9,w8
	cmp         w8,#0
	bne         |$LN5@ColIDCT|

; 190  : 				| (x2 = blk[8 * 6])
; 191  : 				| (x3 = blk[8 * 2])
; 192  : 				| (x4 = blk[8 * 1])
; 193  : 				| (x5 = blk[8 * 7])
; 194  : 				| (x6 = blk[8 * 5])
; 195  : 				| (x7 = blk[8 * 3])))
; 196  : 			{
; 197  : 				x1 = _Clip(((blk[0] + 32) >> 6) + 128);

	ldr         x8,[sp,#0x30]
	ldr         w8,[x8]
	add         w8,w8,#0x20
	asr         w8,w8,#6
	add         w1,w8,#0x80
	mov         w1,w1
	ldr         x0,[sp,#0x38]
	bl          |?_Clip@Decoder@Jpeg@@AEAAEH@Z|
	uxtb        w8,w0
	mov         w8,w8
	str         w8,[sp,#0x14]

; 198  : 				for (x0 = 8; x0; --x0) {

	mov         w8,#8
	str         w8,[sp]
	b           |$LN4@ColIDCT|
|$LN2@ColIDCT|
	ldr         w8,[sp]
	sub         w8,w8,#1
	str         w8,[sp]
|$LN4@ColIDCT|
	ldr         w8,[sp]
	cmp         w8,#0
	beq         |$LN3@ColIDCT|

; 199  : 					*out = (unsigned char)x1;

	ldr         w8,[sp,#0x14]
	uxtb        w9,w8
	ldr         x8,[sp,#8]
	strb        w9,[x8]

; 200  : 					out += stride;

	ldr         w8,[sp,#0x2C]
	sxtw        x9,w8
	ldr         x8,[sp,#8]
	add         x8,x8,x9
	str         x8,[sp,#8]

; 201  : 				}

	b           |$LN2@ColIDCT|
|$LN3@ColIDCT|

; 202  : 				return;

	b           |$LN1@ColIDCT|
|$LN5@ColIDCT|

; 203  : 			}
; 204  : 			x0 = (blk[0] << 8) + 8192;

	ldr         x8,[sp,#0x30]
	ldr         w8,[x8]
	lsl         w8,w8,#8
	add         w8,w8,#2,lsl #0xC
	str         w8,[sp]

; 205  : 			x8 = W7 * (x4 + x5) + 4;

	ldr         w9,[sp,#4]
	ldr         w8,[sp,#0x18]
	add         w9,w9,w8
	mov         w8,#0x235
	mul         w8,w9,w8
	add         w8,w8,#4
	str         w8,[sp,#0x10]

; 206  : 			x4 = (x8 + (W1 - W7) * x4) >> 3;

	ldr         w9,[sp,#4]
	mov         w8,#0x8E4
	mul         w9,w9,w8
	ldr         w8,[sp,#0x10]
	add         w8,w8,w9
	asr         w8,w8,#3
	str         w8,[sp,#4]

; 207  : 			x5 = (x8 - (W1 + W7) * x5) >> 3;

	ldr         w9,[sp,#0x18]
	mov         w8,#0xD4E
	mul         w9,w9,w8
	ldr         w8,[sp,#0x10]
	sub         w8,w8,w9
	asr         w8,w8,#3
	str         w8,[sp,#0x18]

; 208  : 			x8 = W3 * (x6 + x7) + 4;

	ldr         w9,[sp,#0x1C]
	ldr         w8,[sp,#0x28]
	add         w9,w9,w8
	mov         w8,#0x968
	mul         w8,w9,w8
	add         w8,w8,#4
	str         w8,[sp,#0x10]

; 209  : 			x6 = (x8 - (W3 - W5) * x6) >> 3;

	ldr         w9,[sp,#0x1C]
	mov         w8,#0x31F
	mul         w9,w9,w8
	ldr         w8,[sp,#0x10]
	sub         w8,w8,w9
	asr         w8,w8,#3
	str         w8,[sp,#0x1C]

; 210  : 			x7 = (x8 - (W3 + W5) * x7) >> 3;

	ldr         w9,[sp,#0x28]
	mov         w8,#0xFB1
	mul         w9,w9,w8
	ldr         w8,[sp,#0x10]
	sub         w8,w8,w9
	asr         w8,w8,#3
	str         w8,[sp,#0x28]

; 211  : 			x8 = x0 + x1;

	ldr         w9,[sp]
	ldr         w8,[sp,#0x14]
	add         w8,w9,w8
	str         w8,[sp,#0x10]

; 212  : 			x0 -= x1;

	ldr         w9,[sp]
	ldr         w8,[sp,#0x14]
	sub         w8,w9,w8
	str         w8,[sp]

; 213  : 			x1 = W6 * (x3 + x2) + 4;

	ldr         w9,[sp,#0x20]
	ldr         w8,[sp,#0x24]
	add         w9,w9,w8
	mov         w8,#0x454
	mul         w8,w9,w8
	add         w8,w8,#4
	str         w8,[sp,#0x14]

; 214  : 			x2 = (x1 - (W2 + W6) * x2) >> 3;

	ldr         w9,[sp,#0x24]
	mov         w8,#0xEC8
	mul         w9,w9,w8
	ldr         w8,[sp,#0x14]
	sub         w8,w8,w9
	asr         w8,w8,#3
	str         w8,[sp,#0x24]

; 215  : 			x3 = (x1 + (W2 - W6) * x3) >> 3;

	ldr         w9,[sp,#0x20]
	mov         w8,#0x620
	mul         w9,w9,w8
	ldr         w8,[sp,#0x14]
	add         w8,w8,w9
	asr         w8,w8,#3
	str         w8,[sp,#0x20]

; 216  : 			x1 = x4 + x6;

	ldr         w9,[sp,#4]
	ldr         w8,[sp,#0x1C]
	add         w8,w9,w8
	str         w8,[sp,#0x14]

; 217  : 			x4 -= x6;

	ldr         w9,[sp,#4]
	ldr         w8,[sp,#0x1C]
	sub         w8,w9,w8
	str         w8,[sp,#4]

; 218  : 			x6 = x5 + x7;

	ldr         w9,[sp,#0x18]
	ldr         w8,[sp,#0x28]
	add         w8,w9,w8
	str         w8,[sp,#0x1C]

; 219  : 			x5 -= x7;

	ldr         w9,[sp,#0x18]
	ldr         w8,[sp,#0x28]
	sub         w8,w9,w8
	str         w8,[sp,#0x18]

; 220  : 			x7 = x8 + x3;

	ldr         w9,[sp,#0x10]
	ldr         w8,[sp,#0x20]
	add         w8,w9,w8
	str         w8,[sp,#0x28]

; 221  : 			x8 -= x3;

	ldr         w9,[sp,#0x10]
	ldr         w8,[sp,#0x20]
	sub         w8,w9,w8
	str         w8,[sp,#0x10]

; 222  : 			x3 = x0 + x2;

	ldr         w9,[sp]
	ldr         w8,[sp,#0x24]
	add         w8,w9,w8
	str         w8,[sp,#0x20]

; 223  : 			x0 -= x2;

	ldr         w9,[sp]
	ldr         w8,[sp,#0x24]
	sub         w8,w9,w8
	str         w8,[sp]

; 224  : 			x2 = (181 * (x4 + x5) + 128) >> 8;

	ldr         w9,[sp,#4]
	ldr         w8,[sp,#0x18]
	add         w9,w9,w8
	mov         w8,#0xB5
	mul         w8,w9,w8
	add         w8,w8,#0x80
	asr         w8,w8,#8
	str         w8,[sp,#0x24]

; 225  : 			x4 = (181 * (x4 - x5) + 128) >> 8;

	ldr         w9,[sp,#4]
	ldr         w8,[sp,#0x18]
	sub         w9,w9,w8
	mov         w8,#0xB5
	mul         w8,w9,w8
	add         w8,w8,#0x80
	asr         w8,w8,#8
	str         w8,[sp,#4]

; 226  : 			*out = _Clip(((x7 + x1) >> 14) + 128);  out += stride;

	ldr         w9,[sp,#0x28]
	ldr         w8,[sp,#0x14]
	add         w8,w9,w8
	asr         w8,w8,#0xE
	add         w1,w8,#0x80
	mov         w1,w1
	ldr         x0,[sp,#0x38]
	bl          |?_Clip@Decoder@Jpeg@@AEAAEH@Z|
	uxtb        w9,w0
	ldr         x8,[sp,#8]
	strb        w9,[x8]
	ldr         w8,[sp,#0x2C]
	sxtw        x9,w8
	ldr         x8,[sp,#8]
	add         x8,x8,x9
	str         x8,[sp,#8]

; 227  : 			*out = _Clip(((x3 + x2) >> 14) + 128);  out += stride;

	ldr         w9,[sp,#0x20]
	ldr         w8,[sp,#0x24]
	add         w8,w9,w8
	asr         w8,w8,#0xE
	add         w1,w8,#0x80
	mov         w1,w1
	ldr         x0,[sp,#0x38]
	bl          |?_Clip@Decoder@Jpeg@@AEAAEH@Z|
	uxtb        w9,w0
	ldr         x8,[sp,#8]
	strb        w9,[x8]
	ldr         w8,[sp,#0x2C]
	sxtw        x9,w8
	ldr         x8,[sp,#8]
	add         x8,x8,x9
	str         x8,[sp,#8]

; 228  : 			*out = _Clip(((x0 + x4) >> 14) + 128);  out += stride;

	ldr         w9,[sp]
	ldr         w8,[sp,#4]
	add         w8,w9,w8
	asr         w8,w8,#0xE
	add         w1,w8,#0x80
	mov         w1,w1
	ldr         x0,[sp,#0x38]
	bl          |?_Clip@Decoder@Jpeg@@AEAAEH@Z|
	uxtb        w9,w0
	ldr         x8,[sp,#8]
	strb        w9,[x8]
	ldr         w8,[sp,#0x2C]
	sxtw        x9,w8
	ldr         x8,[sp,#8]
	add         x8,x8,x9
	str         x8,[sp,#8]

; 229  : 			*out = _Clip(((x8 + x6) >> 14) + 128);  out += stride;

	ldr         w9,[sp,#0x10]
	ldr         w8,[sp,#0x1C]
	add         w8,w9,w8
	asr         w8,w8,#0xE
	add         w1,w8,#0x80
	mov         w1,w1
	ldr         x0,[sp,#0x38]
	bl          |?_Clip@Decoder@Jpeg@@AEAAEH@Z|
	uxtb        w9,w0
	ldr         x8,[sp,#8]
	strb        w9,[x8]
	ldr         w8,[sp,#0x2C]
	sxtw        x9,w8
	ldr         x8,[sp,#8]
	add         x8,x8,x9
	str         x8,[sp,#8]

; 230  : 			*out = _Clip(((x8 - x6) >> 14) + 128);  out += stride;

	ldr         w9,[sp,#0x10]
	ldr         w8,[sp,#0x1C]
	sub         w8,w9,w8
	asr         w8,w8,#0xE
	add         w1,w8,#0x80
	mov         w1,w1
	ldr         x0,[sp,#0x38]
	bl          |?_Clip@Decoder@Jpeg@@AEAAEH@Z|
	uxtb        w9,w0
	ldr         x8,[sp,#8]
	strb        w9,[x8]
	ldr         w8,[sp,#0x2C]
	sxtw        x9,w8
	ldr         x8,[sp,#8]
	add         x8,x8,x9
	str         x8,[sp,#8]

; 231  : 			*out = _Clip(((x0 - x4) >> 14) + 128);  out += stride;

	ldr         w9,[sp]
	ldr         w8,[sp,#4]
	sub         w8,w9,w8
	asr         w8,w8,#0xE
	add         w1,w8,#0x80
	mov         w1,w1
	ldr         x0,[sp,#0x38]
	bl          |?_Clip@Decoder@Jpeg@@AEAAEH@Z|
	uxtb        w9,w0
	ldr         x8,[sp,#8]
	strb        w9,[x8]
	ldr         w8,[sp,#0x2C]
	sxtw        x9,w8
	ldr         x8,[sp,#8]
	add         x8,x8,x9
	str         x8,[sp,#8]

; 232  : 			*out = _Clip(((x3 - x2) >> 14) + 128);  out += stride;

	ldr         w9,[sp,#0x20]
	ldr         w8,[sp,#0x24]
	sub         w8,w9,w8
	asr         w8,w8,#0xE
	add         w1,w8,#0x80
	mov         w1,w1
	ldr         x0,[sp,#0x38]
	bl          |?_Clip@Decoder@Jpeg@@AEAAEH@Z|
	uxtb        w9,w0
	ldr         x8,[sp,#8]
	strb        w9,[x8]
	ldr         w8,[sp,#0x2C]
	sxtw        x9,w8
	ldr         x8,[sp,#8]
	add         x8,x8,x9
	str         x8,[sp,#8]

; 233  : 			*out = _Clip(((x7 - x1) >> 14) + 128);

	ldr         w9,[sp,#0x28]
	ldr         w8,[sp,#0x14]
	sub         w8,w9,w8
	asr         w8,w8,#0xE
	add         w1,w8,#0x80
	mov         w1,w1
	ldr         x0,[sp,#0x38]
	bl          |?_Clip@Decoder@Jpeg@@AEAAEH@Z|
	uxtb        w9,w0
	ldr         x8,[sp,#8]
	strb        w9,[x8]
|$LN1@ColIDCT|
	add         sp,sp,#0x40
	ldr         lr,[sp],#0x10
	ret

	ENDP  ; |?_ColIDCT@Decoder@Jpeg@@AEAAXPEBHPEAEH@Z|, Jpeg::Decoder::_ColIDCT

; Function compile flags: /Odtpy
; File C:\Users\paras\source\repos\grep-name\XenevaOS\Libs\Chitralekha\nanojpg.h

	AREA	|.text$mn|, CODE, ARM64

|?_RowIDCT@Decoder@Jpeg@@AEAAXPEAH@Z| PROC		; Jpeg::Decoder::_RowIDCT

; 142  : 		inline void _RowIDCT(int* blk) {

|$LN4|
	sub         sp,sp,#0x40
	str         x0,[sp,#0x38]
	str         x1,[sp,#8]

; 143  : 			int x0, x1, x2, x3, x4, x5, x6, x7, x8;
; 144  : 			if (!((x1 = blk[4] << 11)

	ldr         x8,[sp,#8]
	add         x8,x8,#0x10
	ldr         w8,[x8]
	lsl         w8,w8,#0xB
	str         w8,[sp,#0x28]
	ldr         x8,[sp,#8]
	add         x8,x8,#0x18
	ldr         w8,[x8]
	str         w8,[sp,#0x20]
	ldr         x8,[sp,#8]
	add         x8,x8,#8
	ldr         w8,[x8]
	str         w8,[sp,#0x1C]
	ldr         x8,[sp,#8]
	add         x8,x8,#4
	ldr         w8,[x8]
	str         w8,[sp]
	ldr         x8,[sp,#8]
	add         x8,x8,#0x1C
	ldr         w8,[x8]
	str         w8,[sp,#0x14]
	ldr         x8,[sp,#8]
	add         x8,x8,#0x14
	ldr         w8,[x8]
	str         w8,[sp,#0x18]
	ldr         x8,[sp,#8]
	add         x8,x8,#0xC
	ldr         w8,[x8]
	str         w8,[sp,#0x24]
	ldr         w9,[sp,#0x28]
	ldr         w8,[sp,#0x20]
	orr         w9,w9,w8
	ldr         w8,[sp,#0x1C]
	orr         w9,w9,w8
	ldr         w8,[sp]
	orr         w9,w9,w8
	ldr         w8,[sp,#0x14]
	orr         w9,w9,w8
	ldr         w8,[sp,#0x18]
	orr         w9,w9,w8
	ldr         w8,[sp,#0x24]
	orr         w8,w9,w8
	cmp         w8,#0
	bne         |$LN2@RowIDCT|

; 145  : 				| (x2 = blk[6])
; 146  : 				| (x3 = blk[2])
; 147  : 				| (x4 = blk[1])
; 148  : 				| (x5 = blk[7])
; 149  : 				| (x6 = blk[5])
; 150  : 				| (x7 = blk[3])))
; 151  : 			{
; 152  : 				blk[0] = blk[1] = blk[2] = blk[3] = blk[4] = blk[5] = blk[6] = blk[7] = blk[0] << 3;

	ldr         x8,[sp,#8]
	ldr         w8,[x8]
	lsl         w8,w8,#3
	str         w8,[sp,#0x2C]
	ldr         x8,[sp,#8]
	add         x9,x8,#0x1C
	ldr         w8,[sp,#0x2C]
	str         w8,[x9]
	ldr         x8,[sp,#8]
	add         x9,x8,#0x18
	ldr         w8,[sp,#0x2C]
	str         w8,[x9]
	ldr         x8,[sp,#8]
	add         x9,x8,#0x14
	ldr         w8,[sp,#0x2C]
	str         w8,[x9]
	ldr         x8,[sp,#8]
	add         x9,x8,#0x10
	ldr         w8,[sp,#0x2C]
	str         w8,[x9]
	ldr         x8,[sp,#8]
	add         x9,x8,#0xC
	ldr         w8,[sp,#0x2C]
	str         w8,[x9]
	ldr         x8,[sp,#8]
	add         x9,x8,#8
	ldr         w8,[sp,#0x2C]
	str         w8,[x9]
	ldr         x8,[sp,#8]
	add         x9,x8,#4
	ldr         w8,[sp,#0x2C]
	str         w8,[x9]
	ldr         x9,[sp,#8]
	ldr         w8,[sp,#0x2C]
	str         w8,[x9]

; 153  : 				return;

	b           |$LN1@RowIDCT|
|$LN2@RowIDCT|

; 154  : 			}
; 155  : 			x0 = (blk[0] << 11) + 128;

	ldr         x8,[sp,#8]
	ldr         w8,[x8]
	lsl         w8,w8,#0xB
	add         w8,w8,#0x80
	str         w8,[sp,#0x30]

; 156  : 			x8 = W7 * (x4 + x5);

	ldr         w9,[sp]
	ldr         w8,[sp,#0x14]
	add         w9,w9,w8
	mov         w8,#0x235
	mul         w8,w9,w8
	str         w8,[sp,#0x10]

; 157  : 			x4 = x8 + (W1 - W7) * x4;

	ldr         w9,[sp]
	mov         w8,#0x8E4
	mul         w9,w9,w8
	ldr         w8,[sp,#0x10]
	add         w8,w8,w9
	str         w8,[sp]

; 158  : 			x5 = x8 - (W1 + W7) * x5;

	ldr         w9,[sp,#0x14]
	mov         w8,#0xD4E
	mul         w9,w9,w8
	ldr         w8,[sp,#0x10]
	sub         w8,w8,w9
	str         w8,[sp,#0x14]

; 159  : 			x8 = W3 * (x6 + x7);

	ldr         w9,[sp,#0x18]
	ldr         w8,[sp,#0x24]
	add         w9,w9,w8
	mov         w8,#0x968
	mul         w8,w9,w8
	str         w8,[sp,#0x10]

; 160  : 			x6 = x8 - (W3 - W5) * x6;

	ldr         w9,[sp,#0x18]
	mov         w8,#0x31F
	mul         w9,w9,w8
	ldr         w8,[sp,#0x10]
	sub         w8,w8,w9
	str         w8,[sp,#0x18]

; 161  : 			x7 = x8 - (W3 + W5) * x7;

	ldr         w9,[sp,#0x24]
	mov         w8,#0xFB1
	mul         w9,w9,w8
	ldr         w8,[sp,#0x10]
	sub         w8,w8,w9
	str         w8,[sp,#0x24]

; 162  : 			x8 = x0 + x1;

	ldr         w9,[sp,#0x30]
	ldr         w8,[sp,#0x28]
	add         w8,w9,w8
	str         w8,[sp,#0x10]

; 163  : 			x0 -= x1;

	ldr         w9,[sp,#0x30]
	ldr         w8,[sp,#0x28]
	sub         w8,w9,w8
	str         w8,[sp,#0x30]

; 164  : 			x1 = W6 * (x3 + x2);

	ldr         w9,[sp,#0x1C]
	ldr         w8,[sp,#0x20]
	add         w9,w9,w8
	mov         w8,#0x454
	mul         w8,w9,w8
	str         w8,[sp,#0x28]

; 165  : 			x2 = x1 - (W2 + W6) * x2;

	ldr         w9,[sp,#0x20]
	mov         w8,#0xEC8
	mul         w9,w9,w8
	ldr         w8,[sp,#0x28]
	sub         w8,w8,w9
	str         w8,[sp,#0x20]

; 166  : 			x3 = x1 + (W2 - W6) * x3;

	ldr         w9,[sp,#0x1C]
	mov         w8,#0x620
	mul         w9,w9,w8
	ldr         w8,[sp,#0x28]
	add         w8,w8,w9
	str         w8,[sp,#0x1C]

; 167  : 			x1 = x4 + x6;

	ldr         w9,[sp]
	ldr         w8,[sp,#0x18]
	add         w8,w9,w8
	str         w8,[sp,#0x28]

; 168  : 			x4 -= x6;

	ldr         w9,[sp]
	ldr         w8,[sp,#0x18]
	sub         w8,w9,w8
	str         w8,[sp]

; 169  : 			x6 = x5 + x7;

	ldr         w9,[sp,#0x14]
	ldr         w8,[sp,#0x24]
	add         w8,w9,w8
	str         w8,[sp,#0x18]

; 170  : 			x5 -= x7;

	ldr         w9,[sp,#0x14]
	ldr         w8,[sp,#0x24]
	sub         w8,w9,w8
	str         w8,[sp,#0x14]

; 171  : 			x7 = x8 + x3;

	ldr         w9,[sp,#0x10]
	ldr         w8,[sp,#0x1C]
	add         w8,w9,w8
	str         w8,[sp,#0x24]

; 172  : 			x8 -= x3;

	ldr         w9,[sp,#0x10]
	ldr         w8,[sp,#0x1C]
	sub         w8,w9,w8
	str         w8,[sp,#0x10]

; 173  : 			x3 = x0 + x2;

	ldr         w9,[sp,#0x30]
	ldr         w8,[sp,#0x20]
	add         w8,w9,w8
	str         w8,[sp,#0x1C]

; 174  : 			x0 -= x2;

	ldr         w9,[sp,#0x30]
	ldr         w8,[sp,#0x20]
	sub         w8,w9,w8
	str         w8,[sp,#0x30]

; 175  : 			x2 = (181 * (x4 + x5) + 128) >> 8;

	ldr         w9,[sp]
	ldr         w8,[sp,#0x14]
	add         w9,w9,w8
	mov         w8,#0xB5
	mul         w8,w9,w8
	add         w8,w8,#0x80
	asr         w8,w8,#8
	str         w8,[sp,#0x20]

; 176  : 			x4 = (181 * (x4 - x5) + 128) >> 8;

	ldr         w9,[sp]
	ldr         w8,[sp,#0x14]
	sub         w9,w9,w8
	mov         w8,#0xB5
	mul         w8,w9,w8
	add         w8,w8,#0x80
	asr         w8,w8,#8
	str         w8,[sp]

; 177  : 			blk[0] = (x7 + x1) >> 8;

	ldr         w9,[sp,#0x24]
	ldr         w8,[sp,#0x28]
	add         w8,w9,w8
	asr         w9,w8,#8
	ldr         x8,[sp,#8]
	str         w9,[x8]

; 178  : 			blk[1] = (x3 + x2) >> 8;

	ldr         w9,[sp,#0x1C]
	ldr         w8,[sp,#0x20]
	add         w8,w9,w8
	asr         w9,w8,#8
	ldr         x8,[sp,#8]
	add         x8,x8,#4
	str         w9,[x8]

; 179  : 			blk[2] = (x0 + x4) >> 8;

	ldr         w9,[sp,#0x30]
	ldr         w8,[sp]
	add         w8,w9,w8
	asr         w9,w8,#8
	ldr         x8,[sp,#8]
	add         x8,x8,#8
	str         w9,[x8]

; 180  : 			blk[3] = (x8 + x6) >> 8;

	ldr         w9,[sp,#0x10]
	ldr         w8,[sp,#0x18]
	add         w8,w9,w8
	asr         w9,w8,#8
	ldr         x8,[sp,#8]
	add         x8,x8,#0xC
	str         w9,[x8]

; 181  : 			blk[4] = (x8 - x6) >> 8;

	ldr         w9,[sp,#0x10]
	ldr         w8,[sp,#0x18]
	sub         w8,w9,w8
	asr         w9,w8,#8
	ldr         x8,[sp,#8]
	add         x8,x8,#0x10
	str         w9,[x8]

; 182  : 			blk[5] = (x0 - x4) >> 8;

	ldr         w9,[sp,#0x30]
	ldr         w8,[sp]
	sub         w8,w9,w8
	asr         w9,w8,#8
	ldr         x8,[sp,#8]
	add         x8,x8,#0x14
	str         w9,[x8]

; 183  : 			blk[6] = (x3 - x2) >> 8;

	ldr         w9,[sp,#0x1C]
	ldr         w8,[sp,#0x20]
	sub         w8,w9,w8
	asr         w9,w8,#8
	ldr         x8,[sp,#8]
	add         x8,x8,#0x18
	str         w9,[x8]

; 184  : 			blk[7] = (x7 - x1) >> 8;

	ldr         w9,[sp,#0x24]
	ldr         w8,[sp,#0x28]
	sub         w8,w9,w8
	asr         w9,w8,#8
	ldr         x8,[sp,#8]
	add         x8,x8,#0x1C
	str         w9,[x8]
|$LN1@RowIDCT|
	add         sp,sp,#0x40
	ret

	ENDP  ; |?_RowIDCT@Decoder@Jpeg@@AEAAXPEAH@Z|, Jpeg::Decoder::_RowIDCT

; Function compile flags: /Odtpy
; File C:\Users\paras\source\repos\grep-name\XenevaOS\Libs\Chitralekha\nanojpg.h

	AREA	|.text$mn|, CODE, ARM64

|?_Clip@Decoder@Jpeg@@AEAAEH@Z| PROC			; Jpeg::Decoder::_Clip

; 129  : 		inline unsigned char _Clip(const int x) {

|$LN7|
	sub         sp,sp,#0x20
	str         x0,[sp,#0x10]
	str         w1,[sp]

; 130  : 			return (x < 0) ? 0 : ((x > 0xFF) ? 0xFF : (unsigned char)x);

	ldr         w8,[sp]
	cmp         w8,#0
	bge         |$LN5@Clip|
	mov         w8,#0
	str         w8,[sp,#8]
	b           |$LN6@Clip|
|$LN5@Clip|
	ldr         w8,[sp]
	cmp         w8,#0xFF
	ble         |$LN3@Clip|
	mov         w8,#0xFF
	str         w8,[sp,#4]
	b           |$LN4@Clip|
|$LN3@Clip|
	ldr         w8,[sp]
	uxtb        w8,w8
	mov         w8,w8
	str         w8,[sp,#4]
|$LN4@Clip|
	ldr         w8,[sp,#4]
	str         w8,[sp,#8]
|$LN6@Clip|
	ldr         w8,[sp,#8]
	uxtb        w0,w8
	mov         w0,w0
	add         sp,sp,#0x20
	ret

	ENDP  ; |?_Clip@Decoder@Jpeg@@AEAAEH@Z|, Jpeg::Decoder::_Clip

; Function compile flags: /Odtpy
; File C:\Users\paras\source\repos\grep-name\XenevaOS\Libs\Chitralekha\nanojpg.h

	AREA	|.text$mn|, CODE, ARM64

|?GetImage@Decoder@Jpeg@@QEBAPEAEXZ| PROC		; Jpeg::Decoder::GetImage

; 680  : 	inline unsigned char* Decoder::GetImage() const { return (ctx.ncomp == 1) ? ctx.comp[0].pixels : ctx.rgb; }

|$LN5|
	sub         sp,sp,#0x10
	str         x0,[sp]
	ldr         x8,[sp]
	add         x8,x8,#0x30
	ldr         w8,[x8]
	cmp         w8,#1
	bne         |$LN3@GetImage|
	ldr         x8,[sp]
	add         x8,x8,#0x34
	add         x8,x8,#0x28
	ldr         x8,[x8]
	str         x8,[sp,#8]
	b           |$LN4@GetImage|
|$LN3@GetImage|
	ldr         x8,[sp]
	add         x8,x8,#0x80,lsl #0xC
	add         x8,x8,#0x2D8
	ldr         x8,[x8]
	str         x8,[sp,#8]
|$LN4@GetImage|
	ldr         x0,[sp,#8]
	add         sp,sp,#0x10
	ret

	ENDP  ; |?GetImage@Decoder@Jpeg@@QEBAPEAEXZ|, Jpeg::Decoder::GetImage

; Function compile flags: /Odtpy
; File C:\Users\paras\source\repos\grep-name\XenevaOS\Libs\Chitralekha\nanojpg.h

	AREA	|.text$mn|, CODE, ARM64

|?GetHeight@Decoder@Jpeg@@QEBAHXZ| PROC			; Jpeg::Decoder::GetHeight

; 678  : 	inline int Decoder::GetHeight() const { return ctx.height; }

|$LN3|
	sub         sp,sp,#0x10
	str         x0,[sp]
	ldr         x8,[sp]
	add         x8,x8,#0x1C
	ldr         w0,[x8]
	add         sp,sp,#0x10
	ret

	ENDP  ; |?GetHeight@Decoder@Jpeg@@QEBAHXZ|, Jpeg::Decoder::GetHeight

; Function compile flags: /Odtpy
; File C:\Users\paras\source\repos\grep-name\XenevaOS\Libs\Chitralekha\nanojpg.h

	AREA	|.text$mn|, CODE, ARM64

|?GetWidth@Decoder@Jpeg@@QEBAHXZ| PROC			; Jpeg::Decoder::GetWidth

; 677  : 	inline int Decoder::GetWidth() const { return ctx.width; }

|$LN3|
	sub         sp,sp,#0x10
	str         x0,[sp]
	ldr         x8,[sp]
	add         x8,x8,#0x18
	ldr         w0,[x8]
	add         sp,sp,#0x10
	ret

	ENDP  ; |?GetWidth@Decoder@Jpeg@@QEBAHXZ|, Jpeg::Decoder::GetWidth

; Function compile flags: /Odtpy
; File C:\Users\paras\source\repos\grep-name\XenevaOS\Libs\Chitralekha\nanojpg.h

	AREA	|.text$mn|, CODE, ARM64

|?GetResult@Decoder@Jpeg@@QEBA?AW4DecodeResult@12@XZ| PROC ; Jpeg::Decoder::GetResult

; 676  : 	inline Decoder::DecodeResult Decoder::GetResult() const { return ctx.error; }

|$LN3|
	sub         sp,sp,#0x10
	str         x0,[sp]
	ldr         x8,[sp]
	ldr         w0,[x8]
	add         sp,sp,#0x10
	ret

	ENDP  ; |?GetResult@Decoder@Jpeg@@QEBA?AW4DecodeResult@12@XZ|, Jpeg::Decoder::GetResult

; Function compile flags: /Odtpy
; File C:\Users\paras\source\repos\grep-name\XenevaOS\Libs\Chitralekha\nanojpg.h

	AREA	|.text$mn|, CODE, ARM64

|??0Decoder@Jpeg@@QEAA@PEBEIP6APEAXI@ZP6AXPEAX@Z@Z| PROC ; Jpeg::Decoder::Decoder

; 663  : 	{

|$LN4|
	str         lr,[sp,#-0x10]!
	sub         sp,sp,#0x70
	str         x0,[sp,#0x40]
	str         x1,[sp,#0x60]
	str         w2,[sp,#0x48]
	str         x3,[sp,#0x50]
	str         x4,[sp,#0x58]

; 661  : 		: AllocMem(allocFunc)

	ldr         x8,[sp,#0x40]
	add         x8,x8,#0x80,lsl #0xC
	add         x9,x8,#0x320
	ldr         x8,[sp,#0x50]
	str         x8,[x9]

; 662  : 		, FreeMem(freeFunc)

	ldr         x8,[sp,#0x40]
	add         x8,x8,#0x80,lsl #0xC
	add         x9,x8,#0x328
	ldr         x8,[sp,#0x58]
	str         x8,[x9]

; 664  : 		// should be static data, but this keeps us as a header
; 665  : 		char temp[64] = { 0, 1, 8, 16, 9, 2, 3, 10, 17, 24, 32, 25, 18,

	mov         w8,#0
	strb        w8,[sp]
	mov         w8,#1
	strb        w8,[sp,#1]
	mov         w8,#8
	strb        w8,[sp,#2]
	mov         w8,#0x10
	strb        w8,[sp,#3]
	mov         w8,#9
	strb        w8,[sp,#4]
	mov         w8,#2
	strb        w8,[sp,#5]
	mov         w8,#3
	strb        w8,[sp,#6]
	mov         w8,#0xA
	strb        w8,[sp,#7]
	mov         w8,#0x11
	strb        w8,[sp,#8]
	mov         w8,#0x18
	strb        w8,[sp,#9]
	mov         w8,#0x20
	strb        w8,[sp,#0xA]
	mov         w8,#0x19
	strb        w8,[sp,#0xB]
	mov         w8,#0x12
	strb        w8,[sp,#0xC]

; 666  : 			11, 4, 5, 12, 19, 26, 33, 40, 48, 41, 34, 27, 20, 13, 6, 7, 14, 21, 28, 35,

	mov         w8,#0xB
	strb        w8,[sp,#0xD]
	mov         w8,#4
	strb        w8,[sp,#0xE]
	mov         w8,#5
	strb        w8,[sp,#0xF]
	mov         w8,#0xC
	strb        w8,[sp,#0x10]
	mov         w8,#0x13
	strb        w8,[sp,#0x11]
	mov         w8,#0x1A
	strb        w8,[sp,#0x12]
	mov         w8,#0x21
	strb        w8,[sp,#0x13]
	mov         w8,#0x28
	strb        w8,[sp,#0x14]
	mov         w8,#0x30
	strb        w8,[sp,#0x15]
	mov         w8,#0x29
	strb        w8,[sp,#0x16]
	mov         w8,#0x22
	strb        w8,[sp,#0x17]
	mov         w8,#0x1B
	strb        w8,[sp,#0x18]
	mov         w8,#0x14
	strb        w8,[sp,#0x19]
	mov         w8,#0xD
	strb        w8,[sp,#0x1A]
	mov         w8,#6
	strb        w8,[sp,#0x1B]
	mov         w8,#7
	strb        w8,[sp,#0x1C]
	mov         w8,#0xE
	strb        w8,[sp,#0x1D]
	mov         w8,#0x15
	strb        w8,[sp,#0x1E]
	mov         w8,#0x1C
	strb        w8,[sp,#0x1F]
	mov         w8,#0x23
	strb        w8,[sp,#0x20]

; 667  : 			42, 49, 56, 57, 50, 43, 36, 29, 22, 15, 23, 30, 37, 44, 51, 58, 59, 52, 45,

	mov         w8,#0x2A
	strb        w8,[sp,#0x21]
	mov         w8,#0x31
	strb        w8,[sp,#0x22]
	mov         w8,#0x38
	strb        w8,[sp,#0x23]
	mov         w8,#0x39
	strb        w8,[sp,#0x24]
	mov         w8,#0x32
	strb        w8,[sp,#0x25]
	mov         w8,#0x2B
	strb        w8,[sp,#0x26]
	mov         w8,#0x24
	strb        w8,[sp,#0x27]
	mov         w8,#0x1D
	strb        w8,[sp,#0x28]
	mov         w8,#0x16
	strb        w8,[sp,#0x29]
	mov         w8,#0xF
	strb        w8,[sp,#0x2A]
	mov         w8,#0x17
	strb        w8,[sp,#0x2B]
	mov         w8,#0x1E
	strb        w8,[sp,#0x2C]
	mov         w8,#0x25
	strb        w8,[sp,#0x2D]
	mov         w8,#0x2C
	strb        w8,[sp,#0x2E]
	mov         w8,#0x33
	strb        w8,[sp,#0x2F]
	mov         w8,#0x3A
	strb        w8,[sp,#0x30]
	mov         w8,#0x3B
	strb        w8,[sp,#0x31]
	mov         w8,#0x34
	strb        w8,[sp,#0x32]
	mov         w8,#0x2D
	strb        w8,[sp,#0x33]

; 668  : 			38, 31, 39, 46, 53, 60, 61, 54, 47, 55, 62, 63 };

	mov         w8,#0x26
	strb        w8,[sp,#0x34]
	mov         w8,#0x1F
	strb        w8,[sp,#0x35]
	mov         w8,#0x27
	strb        w8,[sp,#0x36]
	mov         w8,#0x2E
	strb        w8,[sp,#0x37]
	mov         w8,#0x35
	strb        w8,[sp,#0x38]
	mov         w8,#0x3C
	strb        w8,[sp,#0x39]
	mov         w8,#0x3D
	strb        w8,[sp,#0x3A]
	mov         w8,#0x36
	strb        w8,[sp,#0x3B]
	mov         w8,#0x2F
	strb        w8,[sp,#0x3C]
	mov         w8,#0x37
	strb        w8,[sp,#0x3D]
	mov         w8,#0x3E
	strb        w8,[sp,#0x3E]
	mov         w8,#0x3F
	strb        w8,[sp,#0x3F]

; 669  : 		memcpy(ZZ, temp, sizeof(ZZ));

	ldr         x8,[sp,#0x40]
	add         x8,x8,#0x80,lsl #0xC
	add         x0,x8,#0x2E0
	mov         x2,#0x40
	mov         x1,sp
	bl          memcpy

; 670  : 		memset(&ctx, 0, sizeof(Context));

	ldr         x0,[sp,#0x40]
	ldr         x2,|$LN3@Decoder|
	mov         w1,#0
	bl          memset

; 671  : 	/*	_KePrint("ctx -> %x calling decoder, %x\r\n", &ctx, data);
; 672  : 		_KePrint("size : %d _Decode %x\r\n", size, &Decoder::_Decode);*/
; 673  : 		_Decode(data, size);

	ldr         w2,[sp,#0x48]
	ldr         x1,[sp,#0x60]
	ldr         x0,[sp,#0x40]
	bl          |?_Decode@Decoder@Jpeg@@AEAA?AW4DecodeResult@12@PEBEH@Z|

; 674  : 	}

	ldr         x0,[sp,#0x40]
	add         sp,sp,#0x70
	ldr         lr,[sp],#0x10
	ret
	nop
|$LN3@Decoder|
	DCQ         0x802e0

	ENDP  ; |??0Decoder@Jpeg@@QEAA@PEBEIP6APEAXI@ZP6AXPEAX@Z@Z|, Jpeg::Decoder::Decoder

; Function compile flags: /Odtpy
; File C:\Users\paras\source\repos\grep-name\XenevaOS\Process\Deodhai\deomain.cpp

	AREA	|.text$mn|, CODE, ARM64

|?DeodhaiUpdateBits@@YAXDD@Z| PROC			; DeodhaiUpdateBits

; 1628 : void DeodhaiUpdateBits(bool window_update, bool skip_disable) {

|$LN3|
	sub         sp,sp,#0x10
	sxtb        w8,w0
	strb        w8,[sp]
	sxtb        w8,w1
	strb        w8,[sp,#1]

; 1629 : 	_window_update_all_ = window_update;

	adrp        x9,|?_window_update_all_@@3DA|
	ldrsb       w8,[sp]
	strb        w8,[x9,PageOffset(|?_window_update_all_@@3DA|)]

; 1630 : 	_skip_disable_ = skip_disable;

	adrp        x9,|?_skip_disable_@@3DA|
	ldrsb       w8,[sp,#1]
	strb        w8,[x9,PageOffset(|?_skip_disable_@@3DA|)]
	add         sp,sp,#0x10
	ret

	ENDP  ; |?DeodhaiUpdateBits@@YAXDD@Z|, DeodhaiUpdateBits

; Function compile flags: /Odtpy
; File C:\Users\paras\source\repos\grep-name\XenevaOS\Process\Deodhai\deomain.cpp

	AREA	|.text$mn|, CODE, ARM64

|?DeodhaiGetMainCanvas@@YAPEAU_ChCanvas_@@XZ| PROC	; DeodhaiGetMainCanvas

; 1587 : 	return canvas;

	adrp        x8,|?canvas@@3PEAU_ChCanvas_@@EA|
	ldr         x0,[x8,PageOffset(|?canvas@@3PEAU_ChCanvas_@@EA|)]
	ret

	ENDP  ; |?DeodhaiGetMainCanvas@@YAPEAU_ChCanvas_@@XZ|, DeodhaiGetMainCanvas

; Function compile flags: /Odtpy
; File C:\Users\paras\source\repos\grep-name\XenevaOS\Process\Deodhai\deomain.cpp

	AREA	|.text$mn|, CODE, ARM64

|?DeodhaiAllocateNewHandle@@YAIXZ| PROC			; DeodhaiAllocateNewHandle

; 128  : uint32_t DeodhaiAllocateNewHandle() {

|$LN3|
	sub         sp,sp,#0x10

; 129  : 	uint32_t handle = winHandles;

	adrp        x8,|?winHandles@@3IA|
	ldr         w8,[x8,PageOffset(|?winHandles@@3IA|)]
	str         w8,[sp]

; 130  : 	winHandles += 1;

	adrp        x8,|?winHandles@@3IA|
	ldr         w8,[x8,PageOffset(|?winHandles@@3IA|)]
	add         w9,w8,#1
	adrp        x8,|?winHandles@@3IA|
	str         w9,[x8,PageOffset(|?winHandles@@3IA|)]

; 131  : 	return handle;

	ldr         w0,[sp]
	add         sp,sp,#0x10
	ret

	ENDP  ; |?DeodhaiAllocateNewHandle@@YAIXZ|, DeodhaiAllocateNewHandle

	END
