; Listing generated by Microsoft (R) Optimizing Compiler Version 19.29.30159.0 

	TTL	C:\Users\paras\source\repos\grep-name\XenevaOS\Process\Deodhai\ARM64\Debug\deomain.obj
	ARM64

	AREA	|.drectve|, DRECTVE

	EXPORT	|?currentCursor@@3PEAU_cursor_@@EA| [ DATA ] ; currentCursor
	EXPORT	|?mouse_fd@@3HA| [ DATA ]		; mouse_fd
	EXPORT	|?kybrd_fd@@3HA| [ DATA ]		; kybrd_fd
	EXPORT	|?postbox_fd@@3HA| [ DATA ]		; postbox_fd
	EXPORT	|?lastMouseButton@@3HA| [ DATA ]	; lastMouseButton
	EXPORT	|?winHandles@@3IA| [ DATA ]		; winHandles
	EXPORT	|?CursorBack@@3PEAIEA| [ DATA ]		; CursorBack
	EXPORT	|?_window_update_all_@@3DA| [ DATA ]	; _window_update_all_
	EXPORT	|?_window_broadcast_mouse_@@3DA| [ DATA ] ; _window_broadcast_mouse_
	EXPORT	|?_skip_disable_@@3DA| [ DATA ]		; _skip_disable_
	EXPORT	|?_always_on_top_update@@3DA| [ DATA ]	; _always_on_top_update
	EXPORT	|?_window_moving_@@3DA| [ DATA ]	; _window_moving_
	EXPORT	|?focusedWin@@3PEAU_win_@@EA| [ DATA ]	; focusedWin
	EXPORT	|?focusedLast@@3PEAU_win_@@EA| [ DATA ]	; focusedLast
	EXPORT	|?topWin@@3PEAU_win_@@EA| [ DATA ]	; topWin
	EXPORT	|?dragWin@@3PEAU_win_@@EA| [ DATA ]	; dragWin
	EXPORT	|?reszWin@@3PEAU_win_@@EA| [ DATA ]	; reszWin
	EXPORT	|?rootWin@@3PEAU_win_@@EA| [ DATA ]	; rootWin
	EXPORT	|?lastWin@@3PEAU_win_@@EA| [ DATA ]	; lastWin
	EXPORT	|?alwaysOnTop@@3PEAU_win_@@EA| [ DATA ]	; alwaysOnTop
	EXPORT	|?alwaysOnTopLast@@3PEAU_win_@@EA| [ DATA ] ; alwaysOnTopLast
	EXPORT	|?mouseLastHovered@@3PEAU_win_@@EA| [ DATA ] ; mouseLastHovered
	EXPORT	|?canvas@@3PEAU_ChCanvas_@@EA| [ DATA ]	; canvas
	EXPORT	|?arrow@@3PEAU_cursor_@@EA| [ DATA ]	; arrow
	EXPORT	|?move@@3PEAU_cursor_@@EA| [ DATA ]	; move
	EXPORT	|?resizeUpDown@@3PEAU_cursor_@@EA| [ DATA ] ; resizeUpDown
	EXPORT	|?resizeLeftRight@@3PEAU_cursor_@@EA| [ DATA ] ; resizeLeftRight
	EXPORT	|?surfaceBuffer@@3PEAIEA| [ DATA ]	; surfaceBuffer
	EXPORT	|?_shadow_update@@3DA| [ DATA ]		; _shadow_update
	EXPORT	|?_clients_advice@@3DA| [ DATA ]	; _clients_advice
	EXPORT	|?gpu_fd@@3HA| [ DATA ]			; gpu_fd
	EXPORT	|?gpu_display_id@@3HA| [ DATA ]		; gpu_display_id
	EXPORT	|?_gpu_enabled@@3DA| [ DATA ]		; _gpu_enabled
	EXPORT	|?startTime@@3_KA| [ DATA ]		; startTime
	EXPORT	|?startSubTime@@3_KA| [ DATA ]		; startSubTime

	AREA	|.bss|, NOINIT
|?currentCursor@@3PEAU_cursor_@@EA| % 0x8		; currentCursor
|?mouse_fd@@3HA| % 0x4					; mouse_fd
|?kybrd_fd@@3HA| % 0x4					; kybrd_fd
|?postbox_fd@@3HA| % 0x4				; postbox_fd
|?lastMouseButton@@3HA| % 0x4				; lastMouseButton
|?winHandles@@3IA| % 0x4				; winHandles
|?CursorBack@@3PEAIEA| % 0x8				; CursorBack
|?_window_update_all_@@3DA| % 0x1			; _window_update_all_
|?_window_broadcast_mouse_@@3DA| % 0x1			; _window_broadcast_mouse_
|?_skip_disable_@@3DA| % 0x1				; _skip_disable_
|?_always_on_top_update@@3DA| % 0x1			; _always_on_top_update
|?_window_moving_@@3DA| % 0x1				; _window_moving_
|?focusedWin@@3PEAU_win_@@EA| % 0x8			; focusedWin
|?focusedLast@@3PEAU_win_@@EA| % 0x8			; focusedLast
|?topWin@@3PEAU_win_@@EA| % 0x8				; topWin
|?dragWin@@3PEAU_win_@@EA| % 0x8			; dragWin
|?reszWin@@3PEAU_win_@@EA| % 0x8			; reszWin
|?rootWin@@3PEAU_win_@@EA| % 0x8			; rootWin
|?lastWin@@3PEAU_win_@@EA| % 0x8			; lastWin
|?alwaysOnTop@@3PEAU_win_@@EA| % 0x8			; alwaysOnTop
|?alwaysOnTopLast@@3PEAU_win_@@EA| % 0x8		; alwaysOnTopLast
|?mouseLastHovered@@3PEAU_win_@@EA| % 0x8		; mouseLastHovered
|?canvas@@3PEAU_ChCanvas_@@EA| % 0x8			; canvas
|?arrow@@3PEAU_cursor_@@EA| % 0x8			; arrow
|?move@@3PEAU_cursor_@@EA| % 0x8			; move
|?resizeUpDown@@3PEAU_cursor_@@EA| % 0x8		; resizeUpDown
|?resizeLeftRight@@3PEAU_cursor_@@EA| % 0x8		; resizeLeftRight
|?surfaceBuffer@@3PEAIEA| % 0x8				; surfaceBuffer
|?_shadow_update@@3DA| % 0x1				; _shadow_update
|?_clients_advice@@3DA| % 0x1				; _clients_advice
|?gpu_fd@@3HA| % 0x4					; gpu_fd
|?gpu_display_id@@3HA| % 0x4				; gpu_display_id
|?_gpu_enabled@@3DA| % 0x1				; _gpu_enabled
|?startTime@@3_KA| % 0x8				; startTime
|?startSubTime@@3_KA| % 0x8				; startSubTime

	AREA	|.rdata|, DATA, READONLY
|$SG8750| DCB	"[Deodhai]:CloseWindow : %s ", 0xd, 0xa, 0x0
	%	2
|$SG8751| DCB	"Unmapping shared mems ", 0xd, 0xa, 0x0
	%	3
|$SG8985| DCB	"xelnch", 0x0
	%	5
|$SG8752| DCB	"Unmapped all shared mems from deodhai side for process", 0xd
	DCB	0xa, 0x0
	%	7
|$SG8753| DCB	"Removing window ", 0xd, 0xa, 0x0
	%	5
|$SG8754| DCB	"Putting post box event ", 0xd, 0xa, 0x0
	%	6
|$SG8792| DCB	"Wallpaper sz : %d ", 0xd, 0xa, 0x0
	%	3
|$SG8794| DCB	"Decoder error ", 0xa, 0x0
|$SG8795| DCB	"Wallpaper width : %d ", 0xd, 0xa, 0x0
|$SG8796| DCB	"Wallpaper height : %d ", 0xd, 0xa, 0x0
	%	7
|$SG8962| DCB	"Argc == 10 %x", 0xd, 0xa, 0x0
|$SG8963| DCB	"Deodhai v1.0 running %d", 0xd, 0xa, 0x0
	%	6
|$SG8964| DCB	"Deodhai : Till here we're initialized ", 0xd, 0xa, 0x0
	%	7
|$SG8965| DCB	"/dev/virtiogpu", 0x0
	%	1
|$SG8967| DCB	"Canv->screen_w -> %d, screenh -> %d ", 0xd, 0xa, 0x0
	%	1
|$SG8970| DCB	"/mtnr1.jpg", 0x0
	%	5
|$SG8973| DCB	"/mtnr2.jpg", 0x0
	%	5
|$SG8976| DCB	"/mntr1.jpg", 0x0
	%	5
|$SG8978| DCB	"/flora1.jpg", 0x0
	%	4
|$SG8980| DCB	"/pointer.bmp", 0x0
	%	3
|$SG8981| DCB	"/dev/mice", 0x0
	%	6
|$SG8982| DCB	"/dev/kybrd", 0x0
	%	5
|$SG8983| DCB	"/dev/postbox", 0x0
	%	3
|$SG8984| DCB	"postboxfd : %d ", 0xd, 0xa, 0x0
	%	6
|$SG8986| DCB	"/xelnch.exe", 0x0
	%	4
|$SG8987| DCB	"nmdapha", 0x0
|$SG8988| DCB	"/nmdapha.exe", 0x0
	%	3
|$SG8989| DCB	"Postbox created for deodhai ", 0xd, 0xa, 0x0
	%	1
|$SG9014| DCB	"[Deodhai]: keyinput : %x ", 0xd, 0xa, 0x0
	%	4
|$SG9016| DCB	"[Deodhai]: create win message received ", 0xd, 0xa, 0x0
	%	6
|$SG9017| DCB	"[Deodhai]: x : %d y : %d ", 0xd, 0xa, 0x0
	%	4
|$SG9018| DCB	"[Doedhai]: from id : %d ", 0xd, 0xa, 0x0
	%	5
|$SG9021| DCB	"[Deodhai]: popup added ", 0xd, 0xa, 0x0
	%	6
|$SG9022| DCB	"[Deodhai]:Popup window created ", 0xd, 0xa, 0x0
	%	6
|$SG9023| DCB	"Msg sent to e.toid : %d ", 0xa, 0x0
	%	6
|$SG9026| DCB	"[Deodhai]: Window created ", 0xd, 0xa, 0x0
	%	3
|?fp32_to_srgb8_tab4@@3QBIB| DCD 0x73000d		; fp32_to_srgb8_tab4
	DCD	0x7a000d
	DCD	0x80000d
	DCD	0x87000d
	DCD	0x8d000d
	DCD	0x94000d
	DCD	0x9a000d
	DCD	0xa1000d
	DCD	0xa7001a
	DCD	0xb4001a
	DCD	0xc1001a
	DCD	0xce001a
	DCD	0xda001a
	DCD	0xe7001a
	DCD	0xf4001a
	DCD	0x101001a
	DCD	0x10e0033
	DCD	0x1280033
	DCD	0x1410033
	DCD	0x15b0033
	DCD	0x1750033
	DCD	0x18f0033
	DCD	0x1a80033
	DCD	0x1c20033
	DCD	0x1dc0067
	DCD	0x20f0067
	DCD	0x2430067
	DCD	0x2760067
	DCD	0x2aa0067
	DCD	0x2dd0067
	DCD	0x3110067
	DCD	0x3440067
	DCD	0x37800ce
	DCD	0x3df00ce
	DCD	0x44600ce
	DCD	0x4ad00ce
	DCD	0x51400ce
	DCD	0x57b00c5
	DCD	0x5dd00bc
	DCD	0x63b00b5
	DCD	0x6970158
	DCD	0x7420142
	DCD	0x7e30130
	DCD	0x87b0120
	DCD	0x90b0112
	DCD	0x9940106
	DCD	0xa1700fc
	DCD	0xa9500f2
	DCD	0xb0f01cb
	DCD	0xbf401ae
	DCD	0xccb0195
	DCD	0xd950180
	DCD	0xe56016e
	DCD	0xf0d015e
	DCD	0xfbc0150
	DCD	0x10630143
	DCD	0x11070264
	DCD	0x1238023e
	DCD	0x1357021d
	DCD	0x14660201
	DCD	0x156601e9
	DCD	0x165a01d3
	DCD	0x174401c0
	DCD	0x182401af
	DCD	0x18fe0331
	DCD	0x1a9602fe
	DCD	0x1c1502d2
	DCD	0x1d7e02ad
	DCD	0x1ed4028d
	DCD	0x201a0270
	DCD	0x21520256
	DCD	0x227d0240
	DCD	0x239f0443
	DCD	0x25c003fe
	DCD	0x27bf03c4
	DCD	0x29a10392
	DCD	0x2b6a0367
	DCD	0x2d1d0341
	DCD	0x2ebe031f
	DCD	0x304d0300
	DCD	0x31d105b0
	DCD	0x34a80555
	DCD	0x37520507
	DCD	0x39d504c5
	DCD	0x3c37048b
	DCD	0x3e7c0458
	DCD	0x40a8042a
	DCD	0x42bd0401
	DCD	0x44c20798
	DCD	0x488e071e
	DCD	0x4c1c06b6
	DCD	0x4f76065d
	DCD	0x52a50610
	DCD	0x55ac05cc
	DCD	0x5892058f
	DCD	0x5b590559
	DCD	0x5e0c0a23
	DCD	0x631c0980
	DCD	0x67db08f6
	DCD	0x6c55087f
	DCD	0x70940818
	DCD	0x74a007bd
	DCD	0x787d076c
	DCD	0x7c330723
|$SG6762| DCB	"Unimplemented edge type", 0x0
|$SG7088| DCB	"Unknown type/colorspace/channels combination.", 0x0
	%	2
|$SG7425| DCB	"Unknown type/colorspace/channels combination.", 0x0
	EXPORT	|?DeodhaiAllocateNewHandle@@YAIXZ|	; DeodhaiAllocateNewHandle
	EXPORT	|?DeodhaiGetMainCanvas@@YAPEAU_ChCanvas_@@XZ| ; DeodhaiGetMainCanvas
	EXPORT	|?DeodhaiUpdateBits@@YAXDD@Z|		; DeodhaiUpdateBits
	EXPORT	|??0Decoder@Jpeg@@QEAA@PEBEIP6APEAXI@ZP6AXPEAX@Z@Z| ; Jpeg::Decoder::Decoder
	EXPORT	|?GetResult@Decoder@Jpeg@@QEBA?AW4DecodeResult@12@XZ| ; Jpeg::Decoder::GetResult
	EXPORT	|?GetWidth@Decoder@Jpeg@@QEBAHXZ|	; Jpeg::Decoder::GetWidth
	EXPORT	|?GetHeight@Decoder@Jpeg@@QEBAHXZ|	; Jpeg::Decoder::GetHeight
	EXPORT	|?GetImage@Decoder@Jpeg@@QEBAPEAEXZ|	; Jpeg::Decoder::GetImage
	EXPORT	|?_Clip@Decoder@Jpeg@@AEAAEH@Z|		; Jpeg::Decoder::_Clip
	EXPORT	|?_RowIDCT@Decoder@Jpeg@@AEAAXPEAH@Z|	; Jpeg::Decoder::_RowIDCT
	EXPORT	|?_ColIDCT@Decoder@Jpeg@@AEAAXPEBHPEAEH@Z| ; Jpeg::Decoder::_ColIDCT
	EXPORT	|?_ShowBits@Decoder@Jpeg@@AEAAHH@Z|	; Jpeg::Decoder::_ShowBits
	EXPORT	|?_SkipBits@Decoder@Jpeg@@AEAAXH@Z|	; Jpeg::Decoder::_SkipBits
	EXPORT	|?_GetBits@Decoder@Jpeg@@AEAAHH@Z|	; Jpeg::Decoder::_GetBits
	EXPORT	|?_ByteAlign@Decoder@Jpeg@@AEAAXXZ|	; Jpeg::Decoder::_ByteAlign
	EXPORT	|?_Skip@Decoder@Jpeg@@AEAAXH@Z|		; Jpeg::Decoder::_Skip
	EXPORT	|?_Decode16@Decoder@Jpeg@@AEAAGPEBE@Z|	; Jpeg::Decoder::_Decode16
	EXPORT	|?_DecodeLength@Decoder@Jpeg@@AEAAXXZ|	; Jpeg::Decoder::_DecodeLength
	EXPORT	|?_SkipMarker@Decoder@Jpeg@@AEAAXXZ|	; Jpeg::Decoder::_SkipMarker
	EXPORT	|?_DecodeSOF@Decoder@Jpeg@@AEAAXXZ|	; Jpeg::Decoder::_DecodeSOF
	EXPORT	|?_DecodeDHT@Decoder@Jpeg@@AEAAXXZ|	; Jpeg::Decoder::_DecodeDHT
	EXPORT	|?_DecodeDQT@Decoder@Jpeg@@AEAAXXZ|	; Jpeg::Decoder::_DecodeDQT
	EXPORT	|?_DecodeDRI@Decoder@Jpeg@@AEAAXXZ|	; Jpeg::Decoder::_DecodeDRI
	EXPORT	|?_GetVLC@Decoder@Jpeg@@AEAAHPEAUVlcCode@12@PEAE@Z| ; Jpeg::Decoder::_GetVLC
	EXPORT	|?_DecodeBlock@Decoder@Jpeg@@AEAAXPEAUComponent@12@PEAE@Z| ; Jpeg::Decoder::_DecodeBlock
	EXPORT	|?_DecodeScan@Decoder@Jpeg@@AEAAXXZ|	; Jpeg::Decoder::_DecodeScan
	EXPORT	|?CF@Decoder@Jpeg@@AEAAEH@Z|		; Jpeg::Decoder::CF
	EXPORT	|?_UpsampleH@Decoder@Jpeg@@AEAAXPEAUComponent@12@@Z| ; Jpeg::Decoder::_UpsampleH
	EXPORT	|?_UpsampleV@Decoder@Jpeg@@AEAAXPEAUComponent@12@@Z| ; Jpeg::Decoder::_UpsampleV
	EXPORT	|?_Convert@Decoder@Jpeg@@AEAAXXZ|	; Jpeg::Decoder::_Convert
	EXPORT	|?_Decode@Decoder@Jpeg@@AEAA?AW4DecodeResult@12@PEBEH@Z| ; Jpeg::Decoder::_Decode
	EXPORT	|stbir_resize_uint8|
	EXPORT	|stbir_resize_float|
	EXPORT	|stbir_resize_uint8_srgb|
	EXPORT	|stbir_resize_uint8_srgb_edgemode|
	EXPORT	|stbir_resize_uint8_generic|
	EXPORT	|stbir_resize_uint16_generic|
	EXPORT	|stbir_resize_float_generic|
	EXPORT	|stbir_resize|
	EXPORT	|stbir_resize_subpixel|
	EXPORT	|stbir_resize_region|
	EXPORT	|?CursorStoreBack@@YAXPEAU_ChCanvas_@@PEAU_cursor_@@II@Z| ; CursorStoreBack
	EXPORT	|?CursorDrawBack@@YAXPEAU_ChCanvas_@@PEAU_cursor_@@II@Z| ; CursorDrawBack
	EXPORT	|?ChangeCursor@@YAXPEAU_cursor_@@@Z|	; ChangeCursor
	EXPORT	|?DeodhaiInitialiseData@@YAXXZ|		; DeodhaiInitialiseData
	EXPORT	|?DeodhaiAddWindow@@YAXPEAU_win_@@@Z|	; DeodhaiAddWindow
	EXPORT	|?DeodhaiRemoveWindow@@YAXPEAU_win_@@@Z| ; DeodhaiRemoveWindow
	EXPORT	|?DeodhaiAddWindowAlwaysOnTop@@YAXPEAU_win_@@@Z| ; DeodhaiAddWindowAlwaysOnTop
	EXPORT	|?DeodhaiRemoveWindowAlwaysOnTop@@YAXPEAU_win_@@@Z| ; DeodhaiRemoveWindowAlwaysOnTop
	EXPORT	|?DeodhaiBackSurfaceUpdate@@YAXPEAU_ChCanvas_@@HHHH@Z| ; DeodhaiBackSurfaceUpdate
	EXPORT	|?DeodhaiCreateWindow@@YAPEAU_win_@@HHHHGGPEAD@Z| ; DeodhaiCreateWindow
	EXPORT	|?DeodhaiBroadcastMessage@@YAXPEAU_post_event_@@PEAU_win_@@@Z| ; DeodhaiBroadcastMessage
	EXPORT	|?DeodhaiSendFocusMessage@@YAXPEAU_post_event_@@@Z| ; DeodhaiSendFocusMessage
	EXPORT	|?DeodhaiWindowMakeTop@@YAXPEAU_win_@@@Z| ; DeodhaiWindowMakeTop
	EXPORT	|?DeodhaiWindowSetFocused@@YAXPEAU_win_@@D@Z| ; DeodhaiWindowSetFocused
	EXPORT	|?DeodhaiDrawShadow@@YAXPEAU_ChCanvas_@@PEAU_win_@@@Z| ; DeodhaiDrawShadow
	EXPORT	|?DeodhaiRemoveShadow@@YAXPEAU_ChCanvas_@@PEAU_win_@@@Z| ; DeodhaiRemoveShadow
	EXPORT	|?DeodhaiWindowMove@@YAXPEAU_win_@@HH@Z| ; DeodhaiWindowMove
	EXPORT	|?DeodhaiWindowHide@@YAXPEAU_win_@@@Z|	; DeodhaiWindowHide
	EXPORT	|?DeodhaiCheckWindowPointOcclusion@@YADPEAU_win_@@HH@Z| ; DeodhaiCheckWindowPointOcclusion
	EXPORT	|?DeodhaiWindowCheckDraggable@@YAXHHH@Z| ; DeodhaiWindowCheckDraggable
	EXPORT	|?ComposeFrame@@YAXPEAU_ChCanvas_@@@Z|	; ComposeFrame
	EXPORT	|?DeodhaiSendMouseEvent@@YAXHHEEHHH@Z|	; DeodhaiSendMouseEvent
	EXPORT	|?DeodhaiResizeCursorUpdate@@YAXHHPEAU_win_info_@@@Z| ; DeodhaiResizeCursorUpdate
	EXPORT	|?DeodhaiBroadcastMouse@@YAXHHH@Z|	; DeodhaiBroadcastMouse
	EXPORT	|?DeodhaiBroadcastTouch@@YAXHH@Z|	; DeodhaiBroadcastTouch
	EXPORT	|?DeodhaiBroadcastKey@@YAXH@Z|		; DeodhaiBroadcastKey
	EXPORT	|?DeodhaiCloseWindow@@YAXPEAU_win_@@@Z|	; DeodhaiCloseWindow
	EXPORT	|?DrawWallpaper@@YAXPEAU_ChCanvas_@@PEAD@Z| ; DrawWallpaper
	EXPORT	|?DeodhaiCurrentTime@@YA_KXZ|		; DeodhaiCurrentTime
	EXPORT	|?DeodhaiTimeSince@@YA_K_K@Z|		; DeodhaiTimeSince
	EXPORT	|?DeodhaiClickCurrentTime@@YA_KXZ|	; DeodhaiClickCurrentTime
	EXPORT	|?DeodhaiClickTimeSince@@YA_K_K@Z|	; DeodhaiClickTimeSince
	EXPORT	|main|
	EXPORT	|?_get_gpu_fd@@YAHXZ|			; _get_gpu_fd
	EXPORT	|?_get_gpu_display_id@@YAHXZ|		; _get_gpu_display_id
	EXPORT	|?_is_gpu_enabled@@YADXZ|		; _is_gpu_enabled
	IMPORT	|??2@YAPEAX_K@Z|			; operator new
	IMPORT	|_KePrint|
	IMPORT	|_KeGetThreadID|
	IMPORT	|_KeCreateProcess|
	IMPORT	|_KeProcessLoadExec|
	IMPORT	|_KeProcessSleep|
	IMPORT	|_KeOpenFile|
	IMPORT	|_KeReadFile|
	IMPORT	|_KeFileIoControl|
	IMPORT	|_KeFileStat|
	IMPORT	|_KeMemMap|
	IMPORT	|_KeUnmapSharedMem|
	IMPORT	|malloc|
	IMPORT	|free|
	IMPORT	|abort|
	IMPORT	|gettimeofday|
	IMPORT	|strcmp|
	IMPORT	|strcpy|
	IMPORT	|memset|
	IMPORT	|memcpy|
	IMPORT	|ChCreateCanvas|
	IMPORT	|ChAllocateBuffer|
	IMPORT	|ChCanvasScreenUpdate|
	IMPORT	|ChDrawPixelRAW|
	IMPORT	|ChGetPixel|
	IMPORT	|?CursorOpen@@YAPEAU_cursor_@@PEADE@Z|	; CursorOpen
	IMPORT	|?CursorRead@@YAXPEAU_cursor_@@@Z|	; CursorRead
	IMPORT	|?CursorDraw@@YAXPEAU_ChCanvas_@@PEAU_cursor_@@II@Z| ; CursorDraw
	IMPORT	|?InitialiseDirtyClipList@@YAXXZ|	; InitialiseDirtyClipList
	IMPORT	|?AddDirtyClip@@YAXHHHH@Z|		; AddDirtyClip
	IMPORT	|?DirtyScreenUpdate@@YAXPEAU_ChCanvas_@@@Z| ; DirtyScreenUpdate
	IMPORT	|ChColorAlphaBlend|
	IMPORT	|ChColorAlphaBlend2|
	IMPORT	|?CreateWindow@@YAPEAU_win_@@HHHHGGPEAD@Z| ; CreateWindow
	IMPORT	|_fastcpy|
	IMPORT	|?ClipCheckIntersect@@YADPEAU_rect_@@0@Z| ; ClipCheckIntersect
	IMPORT	|?ClipCalculateRect@@YAXPEAU_rect_@@00PEAH@Z| ; ClipCalculateRect
	IMPORT	|?ClipSubtractRect@@YAXPEAU_rect_@@00H@Z| ; ClipSubtractRect
	IMPORT	|?BackDirtyInitialise@@YAXXZ|		; BackDirtyInitialise
	IMPORT	|?BackDirtyAdd@@YAXHHHH@Z|		; BackDirtyAdd
	IMPORT	|?BackDirtyGetRect@@YAXPEAH000H@Z|	; BackDirtyGetRect
	IMPORT	|?BackDirtyGetDirtyCount@@YAHXZ|	; BackDirtyGetDirtyCount
	IMPORT	|?BackDirtyCountReset@@YAXXZ|		; BackDirtyCountReset
	IMPORT	|?FadeInAnimationWindow@@YAXPEAU_ChCanvas_@@PEAU_win_@@PEAU_win_info_@@_J333@Z| ; FadeInAnimationWindow
	IMPORT	|?FadeOutAnimationWindow@@YAXPEAU_ChCanvas_@@PEAU_win_@@PEAU_win_info_@@_J333@Z| ; FadeOutAnimationWindow
	IMPORT	|ceil|
	IMPORT	|fabs|
	IMPORT	|floor|
	IMPORT	|pow|
	IMPORT	|__chkstk|
	IMPORT	|_fltused|

	AREA	|.pdata|, PDATA
|$pdata$?DeodhaiAllocateNewHandle@@YAIXZ| DCD imagerel |$LN3|
	DCD	0x800031
	;Flags[SingleProEpi] functionLength[48] RegF[0] RegI[0] H[0] frameChainReturn[UnChained] frameSize[16]
|$pdata$?DeodhaiUpdateBits@@YAXDD@Z| DCD imagerel |$LN3|
	DCD	0x800035
	;Flags[SingleProEpi] functionLength[52] RegF[0] RegI[0] H[0] frameChainReturn[UnChained] frameSize[16]

	AREA	|.pdata|, PDATA
|$pdata$??0Decoder@Jpeg@@QEAA@PEBEIP6APEAXI@ZP6AXPEAX@Z@Z| DCD imagerel |$LN4|
	DCD	0x420028d
	;Flags[SingleProEpi] functionLength[652] RegF[0] RegI[0] H[0] frameChainReturn[UnChainedSavedLR] frameSize[128]

	AREA	|.pdata|, PDATA
|$pdata$?GetResult@Decoder@Jpeg@@QEBA?AW4DecodeResult@12@XZ| DCD imagerel |$LN3|
	DCD	0x800019
	;Flags[SingleProEpi] functionLength[24] RegF[0] RegI[0] H[0] frameChainReturn[UnChained] frameSize[16]

	AREA	|.pdata|, PDATA
|$pdata$?GetWidth@Decoder@Jpeg@@QEBAHXZ| DCD imagerel |$LN3|
	DCD	0x80001d
	;Flags[SingleProEpi] functionLength[28] RegF[0] RegI[0] H[0] frameChainReturn[UnChained] frameSize[16]

	AREA	|.pdata|, PDATA
|$pdata$?GetHeight@Decoder@Jpeg@@QEBAHXZ| DCD imagerel |$LN3|
	DCD	0x80001d
	;Flags[SingleProEpi] functionLength[28] RegF[0] RegI[0] H[0] frameChainReturn[UnChained] frameSize[16]

	AREA	|.pdata|, PDATA
|$pdata$?GetImage@Decoder@Jpeg@@QEBAPEAEXZ| DCD imagerel |$LN5|
	DCD	0x800055
	;Flags[SingleProEpi] functionLength[84] RegF[0] RegI[0] H[0] frameChainReturn[UnChained] frameSize[16]

	AREA	|.pdata|, PDATA
|$pdata$?_Clip@Decoder@Jpeg@@AEAAEH@Z| DCD imagerel |$LN7|
	DCD	0x1000069
	;Flags[SingleProEpi] functionLength[104] RegF[0] RegI[0] H[0] frameChainReturn[UnChained] frameSize[32]

	AREA	|.pdata|, PDATA
|$pdata$?_RowIDCT@Decoder@Jpeg@@AEAAXPEAH@Z| DCD imagerel |$LN4|
	DCD	0x20003fd
	;Flags[SingleProEpi] functionLength[1020] RegF[0] RegI[0] H[0] frameChainReturn[UnChained] frameSize[64]

	AREA	|.pdata|, PDATA
|$pdata$?_ColIDCT@Decoder@Jpeg@@AEAAXPEBHPEAEH@Z| DCD imagerel |$LN7|
	DCD	0x2a0052d
	;Flags[SingleProEpi] functionLength[1324] RegF[0] RegI[0] H[0] frameChainReturn[UnChainedSavedLR] frameSize[80]

	AREA	|.pdata|, PDATA
|$pdata$?_ShowBits@Decoder@Jpeg@@AEAAHH@Z| DCD imagerel |$LN18|
	DCD	0x10002c9
	;Flags[SingleProEpi] functionLength[712] RegF[0] RegI[0] H[0] frameChainReturn[UnChained] frameSize[32]

	AREA	|.pdata|, PDATA
|$pdata$?_SkipBits@Decoder@Jpeg@@AEAAXH@Z| DCD imagerel |$LN4|
	DCD	0x120006d
	;Flags[SingleProEpi] functionLength[108] RegF[0] RegI[0] H[0] frameChainReturn[UnChainedSavedLR] frameSize[32]

	AREA	|.pdata|, PDATA
|$pdata$?_GetBits@Decoder@Jpeg@@AEAAHH@Z| DCD imagerel |$LN3|
	DCD	0x1200041
	;Flags[SingleProEpi] functionLength[64] RegF[0] RegI[0] H[0] frameChainReturn[UnChainedSavedLR] frameSize[32]

	AREA	|.pdata|, PDATA
|$pdata$?_ByteAlign@Decoder@Jpeg@@AEAAXXZ| DCD imagerel |$LN3|
	DCD	0x800035
	;Flags[SingleProEpi] functionLength[52] RegF[0] RegI[0] H[0] frameChainReturn[UnChained] frameSize[16]

	AREA	|.pdata|, PDATA
|$pdata$?_Skip@Decoder@Jpeg@@AEAAXH@Z| DCD imagerel |$LN4|
	DCD	0x800099
	;Flags[SingleProEpi] functionLength[152] RegF[0] RegI[0] H[0] frameChainReturn[UnChained] frameSize[16]

	AREA	|.pdata|, PDATA
|$pdata$?_Decode16@Decoder@Jpeg@@AEAAGPEBE@Z| DCD imagerel |$LN3|
	DCD	0x800041
	;Flags[SingleProEpi] functionLength[64] RegF[0] RegI[0] H[0] frameChainReturn[UnChained] frameSize[16]

	AREA	|.pdata|, PDATA
|$pdata$?_DecodeLength@Decoder@Jpeg@@AEAAXXZ| DCD imagerel |$LN11|
	DCD	0x12000b9
	;Flags[SingleProEpi] functionLength[184] RegF[0] RegI[0] H[0] frameChainReturn[UnChainedSavedLR] frameSize[32]

	AREA	|.pdata|, PDATA
|$pdata$?_SkipMarker@Decoder@Jpeg@@AEAAXXZ| DCD imagerel |$LN3|
	DCD	0x1200035
	;Flags[SingleProEpi] functionLength[52] RegF[0] RegI[0] H[0] frameChainReturn[UnChainedSavedLR] frameSize[32]

	AREA	|.pdata|, PDATA
|$pdata$?_DecodeSOF@Decoder@Jpeg@@AEAAXXZ| DCD imagerel |$LN73|
	DCD	0x320084d
	;Flags[SingleProEpi] functionLength[2124] RegF[0] RegI[0] H[0] frameChainReturn[UnChainedSavedLR] frameSize[96]

	AREA	|.pdata|, PDATA
|$pdata$?_DecodeDHT@Decoder@Jpeg@@AEAAXXZ| DCD imagerel |$LN40|
	DCD	0x320036d
	;Flags[SingleProEpi] functionLength[876] RegF[0] RegI[0] H[0] frameChainReturn[UnChainedSavedLR] frameSize[96]

	AREA	|.pdata|, PDATA
|$pdata$?_DecodeDQT@Decoder@Jpeg@@AEAAXXZ| DCD imagerel |$LN16|
	DCD	0x1a0016d
	;Flags[SingleProEpi] functionLength[364] RegF[0] RegI[0] H[0] frameChainReturn[UnChainedSavedLR] frameSize[48]

	AREA	|.pdata|, PDATA
|$pdata$?_DecodeDRI@Decoder@Jpeg@@AEAAXXZ| DCD imagerel |$LN7|
	DCD	0x1200091
	;Flags[SingleProEpi] functionLength[144] RegF[0] RegI[0] H[0] frameChainReturn[UnChainedSavedLR] frameSize[32]

	AREA	|.pdata|, PDATA
|$pdata$?_GetVLC@Decoder@Jpeg@@AEAAHPEAUVlcCode@12@PEAE@Z| DCD imagerel |$LN7|
	DCD	0x1a00139
	;Flags[SingleProEpi] functionLength[312] RegF[0] RegI[0] H[0] frameChainReturn[UnChainedSavedLR] frameSize[48]

	AREA	|.pdata|, PDATA
|$pdata$?_DecodeBlock@Decoder@Jpeg@@AEAAXPEAUComponent@12@PEAE@Z| DCD imagerel |$LN21|
	DCD	0x2210311
	;Flags[SingleProEpi] functionLength[784] RegF[0] RegI[1] H[0] frameChainReturn[UnChainedSavedLR] frameSize[64]

	AREA	|.pdata|, PDATA
|$pdata$?_DecodeScan@Decoder@Jpeg@@AEAAXXZ| DCD imagerel |$LN52|
	DCD	0x2200549
	;Flags[SingleProEpi] functionLength[1352] RegF[0] RegI[0] H[0] frameChainReturn[UnChainedSavedLR] frameSize[64]

	AREA	|.pdata|, PDATA
|$pdata$?CF@Decoder@Jpeg@@AEAAEH@Z| DCD imagerel |$LN3|
	DCD	0x120003d
	;Flags[SingleProEpi] functionLength[60] RegF[0] RegI[0] H[0] frameChainReturn[UnChainedSavedLR] frameSize[32]

	AREA	|.pdata|, PDATA
|$pdata$?_UpsampleH@Decoder@Jpeg@@AEAAXPEAUComponent@12@@Z| DCD imagerel |$LN13|
	DCD	0x2a005ed
	;Flags[SingleProEpi] functionLength[1516] RegF[0] RegI[0] H[0] frameChainReturn[UnChainedSavedLR] frameSize[80]

	AREA	|.pdata|, PDATA
|$pdata$?_UpsampleV@Decoder@Jpeg@@AEAAXPEAUComponent@12@@Z| DCD imagerel |$LN13|
	DCD	0x32006b9
	;Flags[SingleProEpi] functionLength[1720] RegF[0] RegI[0] H[0] frameChainReturn[UnChainedSavedLR] frameSize[96]

	AREA	|.pdata|, PDATA
|$pdata$?_Convert@Decoder@Jpeg@@AEAAXXZ| DCD imagerel |$LN30|
	DCD	0x3a00541
	;Flags[SingleProEpi] functionLength[1344] RegF[0] RegI[0] H[0] frameChainReturn[UnChainedSavedLR] frameSize[112]

	AREA	|.pdata|, PDATA
|$pdata$?_Decode@Decoder@Jpeg@@AEAA?AW4DecodeResult@12@PEBEH@Z| DCD imagerel |$LN22|
	DCD	0x1a00249
	;Flags[SingleProEpi] functionLength[584] RegF[0] RegI[0] H[0] frameChainReturn[UnChainedSavedLR] frameSize[48]

	AREA	|.pdata|, PDATA
|$pdata$stbir_resize_uint8| DCD imagerel |$LN3|
	DCD	0x52000c9
	;Flags[SingleProEpi] functionLength[200] RegF[0] RegI[0] H[0] frameChainReturn[UnChainedSavedLR] frameSize[160]
|$pdata$stbir_resize_float| DCD imagerel |$LN3|
	DCD	0x52000c9
	;Flags[SingleProEpi] functionLength[200] RegF[0] RegI[0] H[0] frameChainReturn[UnChainedSavedLR] frameSize[160]
|$pdata$stbir_resize_uint8_srgb| DCD imagerel |$LN3|
	DCD	0x52000c9
	;Flags[SingleProEpi] functionLength[200] RegF[0] RegI[0] H[0] frameChainReturn[UnChainedSavedLR] frameSize[160]
|$pdata$stbir_resize_uint8_srgb_edgemode| DCD imagerel |$LN3|
	DCD	0x52000c9
	;Flags[SingleProEpi] functionLength[200] RegF[0] RegI[0] H[0] frameChainReturn[UnChainedSavedLR] frameSize[160]
|$pdata$stbir_resize_uint8_generic| DCD imagerel |$LN3|
	DCD	0x52000c9
	;Flags[SingleProEpi] functionLength[200] RegF[0] RegI[0] H[0] frameChainReturn[UnChainedSavedLR] frameSize[160]
|$pdata$stbir_resize_uint16_generic| DCD imagerel |$LN3|
	DCD	0x52000c9
	;Flags[SingleProEpi] functionLength[200] RegF[0] RegI[0] H[0] frameChainReturn[UnChainedSavedLR] frameSize[160]
|$pdata$stbir_resize_float_generic| DCD imagerel |$LN3|
	DCD	0x52000c9
	;Flags[SingleProEpi] functionLength[200] RegF[0] RegI[0] H[0] frameChainReturn[UnChainedSavedLR] frameSize[160]
|$pdata$stbir_resize| DCD imagerel |$LN3|
	DCD	0x52000c9
	;Flags[SingleProEpi] functionLength[200] RegF[0] RegI[0] H[0] frameChainReturn[UnChainedSavedLR] frameSize[160]
|$pdata$stbir_resize_subpixel| DCD imagerel |$LN3|
	DCD	0x62000f9
	;Flags[SingleProEpi] functionLength[248] RegF[0] RegI[0] H[0] frameChainReturn[UnChainedSavedLR] frameSize[192]
|$pdata$stbir_resize_region| DCD imagerel |$LN3|
	DCD	0x5a000d9
	;Flags[SingleProEpi] functionLength[216] RegF[0] RegI[0] H[0] frameChainReturn[UnChainedSavedLR] frameSize[176]
|$pdata$?stbir__min@@YAHHH@Z| DCD imagerel |?stbir__min@@YAHHH@Z|
	DCD	0x80003d
	;Flags[SingleProEpi] functionLength[60] RegF[0] RegI[0] H[0] frameChainReturn[UnChained] frameSize[16]
|$pdata$?stbir__saturate@@YAMM@Z| DCD imagerel |?stbir__saturate@@YAMM@Z|
	DCD	0x800041
	;Flags[SingleProEpi] functionLength[64] RegF[0] RegI[0] H[0] frameChainReturn[UnChained] frameSize[16]
|$pdata$?stbir__srgb_to_linear@@YAMM@Z| DCD imagerel |?stbir__srgb_to_linear@@YAMM@Z|
	DCD	0x1200061
	;Flags[SingleProEpi] functionLength[96] RegF[0] RegI[0] H[0] frameChainReturn[UnChainedSavedLR] frameSize[32]
|$pdata$?stbir__linear_to_srgb@@YAMM@Z| DCD imagerel |?stbir__linear_to_srgb@@YAMM@Z|
	DCD	0x1200061
	;Flags[SingleProEpi] functionLength[96] RegF[0] RegI[0] H[0] frameChainReturn[UnChainedSavedLR] frameSize[32]
|$pdata$?stbir__linear_to_srgb_uchar@@YAEM@Z| DCD imagerel |?stbir__linear_to_srgb_uchar@@YAEM@Z|
	DCD	0x10000d5
	;Flags[SingleProEpi] functionLength[212] RegF[0] RegI[0] H[0] frameChainReturn[UnChained] frameSize[32]
|$pdata$?stbir__filter_trapezoid@@YAMMM@Z| DCD imagerel |?stbir__filter_trapezoid@@YAMMM@Z|
	DCD	0x1a000ad
	;Flags[SingleProEpi] functionLength[172] RegF[0] RegI[0] H[0] frameChainReturn[UnChainedSavedLR] frameSize[48]
|$pdata$?stbir__support_trapezoid@@YAMM@Z| DCD imagerel |?stbir__support_trapezoid@@YAMM@Z|
	DCD	0x800025
	;Flags[SingleProEpi] functionLength[36] RegF[0] RegI[0] H[0] frameChainReturn[UnChained] frameSize[16]
|$pdata$?stbir__filter_triangle@@YAMMM@Z| DCD imagerel |?stbir__filter_triangle@@YAMMM@Z|
	DCD	0x1200059
	;Flags[SingleProEpi] functionLength[88] RegF[0] RegI[0] H[0] frameChainReturn[UnChainedSavedLR] frameSize[32]
|$pdata$?stbir__filter_cubic@@YAMMM@Z| DCD imagerel |?stbir__filter_cubic@@YAMMM@Z|
	DCD	0x12000c9
	;Flags[SingleProEpi] functionLength[200] RegF[0] RegI[0] H[0] frameChainReturn[UnChainedSavedLR] frameSize[32]
|$pdata$?stbir__filter_catmullrom@@YAMMM@Z| DCD imagerel |?stbir__filter_catmullrom@@YAMMM@Z|
	DCD	0x12000c1
	;Flags[SingleProEpi] functionLength[192] RegF[0] RegI[0] H[0] frameChainReturn[UnChainedSavedLR] frameSize[32]
|$pdata$?stbir__filter_mitchell@@YAMMM@Z| DCD imagerel |?stbir__filter_mitchell@@YAMMM@Z|
	DCD	0x12000d1
	;Flags[SingleProEpi] functionLength[208] RegF[0] RegI[0] H[0] frameChainReturn[UnChainedSavedLR] frameSize[32]
|$pdata$?stbir__support_zero@@YAMM@Z| DCD imagerel |?stbir__support_zero@@YAMM@Z|
	DCD	0x800015
	;Flags[SingleProEpi] functionLength[20] RegF[0] RegI[0] H[0] frameChainReturn[UnChained] frameSize[16]
|$pdata$?stbir__support_one@@YAMM@Z| DCD imagerel |?stbir__support_one@@YAMM@Z|
	DCD	0x800015
	;Flags[SingleProEpi] functionLength[20] RegF[0] RegI[0] H[0] frameChainReturn[UnChained] frameSize[16]
|$pdata$?stbir__support_two@@YAMM@Z| DCD imagerel |?stbir__support_two@@YAMM@Z|
	DCD	0x800015
	;Flags[SingleProEpi] functionLength[20] RegF[0] RegI[0] H[0] frameChainReturn[UnChained] frameSize[16]
|$pdata$?stbir__use_upsampling@@YAHM@Z| DCD imagerel |?stbir__use_upsampling@@YAHM@Z|
	DCD	0x800039
	;Flags[SingleProEpi] functionLength[56] RegF[0] RegI[0] H[0] frameChainReturn[UnChained] frameSize[16]
|$pdata$?stbir__use_width_upsampling@@YAHPEAUstbir__info@@@Z| DCD imagerel |?stbir__use_width_upsampling@@YAHPEAUstbir__info@@@Z|
	DCD	0x1200031
	;Flags[SingleProEpi] functionLength[48] RegF[0] RegI[0] H[0] frameChainReturn[UnChainedSavedLR] frameSize[32]
|$pdata$?stbir__use_height_upsampling@@YAHPEAUstbir__info@@@Z| DCD imagerel |?stbir__use_height_upsampling@@YAHPEAUstbir__info@@@Z|
	DCD	0x1200031
	;Flags[SingleProEpi] functionLength[48] RegF[0] RegI[0] H[0] frameChainReturn[UnChainedSavedLR] frameSize[32]
|$pdata$?stbir__get_filter_pixel_width@@YAHW4stbir_filter@@M@Z| DCD imagerel |?stbir__get_filter_pixel_width@@YAHW4stbir_filter@@M@Z|
	DCD	0x1a00131
	;Flags[SingleProEpi] functionLength[304] RegF[0] RegI[0] H[0] frameChainReturn[UnChainedSavedLR] frameSize[48]
|$pdata$?stbir__get_filter_pixel_margin@@YAHW4stbir_filter@@M@Z| DCD imagerel |?stbir__get_filter_pixel_margin@@YAHW4stbir_filter@@M@Z|
	DCD	0x1200039
	;Flags[SingleProEpi] functionLength[56] RegF[0] RegI[0] H[0] frameChainReturn[UnChainedSavedLR] frameSize[32]
|$pdata$?stbir__get_coefficient_width@@YAHW4stbir_filter@@M@Z| DCD imagerel |?stbir__get_coefficient_width@@YAHW4stbir_filter@@M@Z|
	DCD	0x12000c9
	;Flags[SingleProEpi] functionLength[200] RegF[0] RegI[0] H[0] frameChainReturn[UnChainedSavedLR] frameSize[32]
|$pdata$?stbir__get_contributors@@YAHMW4stbir_filter@@HH@Z| DCD imagerel |?stbir__get_contributors@@YAHMW4stbir_filter@@HH@Z|
	DCD	0x1200069
	;Flags[SingleProEpi] functionLength[104] RegF[0] RegI[0] H[0] frameChainReturn[UnChainedSavedLR] frameSize[32]
|$pdata$?stbir__get_total_horizontal_coefficients@@YAHPEAUstbir__info@@@Z| DCD imagerel |?stbir__get_total_horizontal_coefficients@@YAHPEAUstbir__info@@@Z|
	DCD	0x1210055
	;Flags[SingleProEpi] functionLength[84] RegF[0] RegI[1] H[0] frameChainReturn[UnChainedSavedLR] frameSize[32]
|$pdata$?stbir__get_total_vertical_coefficients@@YAHPEAUstbir__info@@@Z| DCD imagerel |?stbir__get_total_vertical_coefficients@@YAHPEAUstbir__info@@@Z|
	DCD	0x1210055
	;Flags[SingleProEpi] functionLength[84] RegF[0] RegI[1] H[0] frameChainReturn[UnChainedSavedLR] frameSize[32]
|$pdata$?stbir__get_contributor@@YAPEAUstbir__contributors@@PEAU1@H@Z| DCD imagerel |?stbir__get_contributor@@YAPEAUstbir__contributors@@PEAU1@H@Z|
	DCD	0x80002d
	;Flags[SingleProEpi] functionLength[44] RegF[0] RegI[0] H[0] frameChainReturn[UnChained] frameSize[16]
|$pdata$?stbir__get_coefficient@@YAPEAMPEAMW4stbir_filter@@MHH@Z| DCD imagerel |?stbir__get_coefficient@@YAPEAMPEAMW4stbir_filter@@MHH@Z|
	DCD	0x1a00065
	;Flags[SingleProEpi] functionLength[100] RegF[0] RegI[0] H[0] frameChainReturn[UnChainedSavedLR] frameSize[48]
|$pdata$?stbir__edge_wrap_slow@@YAHW4stbir_edge@@HH@Z| DCD imagerel |?stbir__edge_wrap_slow@@YAHW4stbir_edge@@HH@Z|
	DCD	0x1a001d1
	;Flags[SingleProEpi] functionLength[464] RegF[0] RegI[0] H[0] frameChainReturn[UnChainedSavedLR] frameSize[48]
|$pdata$?stbir__edge_wrap@@YAHW4stbir_edge@@HH@Z| DCD imagerel |?stbir__edge_wrap@@YAHW4stbir_edge@@HH@Z|
	DCD	0x120005d
	;Flags[SingleProEpi] functionLength[92] RegF[0] RegI[0] H[0] frameChainReturn[UnChainedSavedLR] frameSize[32]
|$pdata$?stbir__calculate_sample_range_upsample@@YAXHMMMPEAH0PEAM@Z| DCD imagerel |?stbir__calculate_sample_range_upsample@@YAXHMMMPEAH0PEAM@Z|
	DCD	0x2a000f1
	;Flags[SingleProEpi] functionLength[240] RegF[0] RegI[0] H[0] frameChainReturn[UnChainedSavedLR] frameSize[80]
|$pdata$?stbir__calculate_sample_range_downsample@@YAXHMMMPEAH0PEAM@Z| DCD imagerel |?stbir__calculate_sample_range_downsample@@YAXHMMMPEAH0PEAM@Z|
	DCD	0x2a000f1
	;Flags[SingleProEpi] functionLength[240] RegF[0] RegI[0] H[0] frameChainReturn[UnChainedSavedLR] frameSize[80]
|$pdata$?stbir__calculate_coefficients_upsample@@YAXPEAUstbir__info@@W4stbir_filter@@MHHMPEAUstbir__contributors@@PEAM@Z| DCD imagerel |?stbir__calculate_coefficients_upsample@@YAXPEAUstbir__info@@W4stbir_filter@@MHHMPEAUstbir__contributors@@PEAM@Z|
	DCD	0x2a0030d
	;Flags[SingleProEpi] functionLength[780] RegF[0] RegI[0] H[0] frameChainReturn[UnChainedSavedLR] frameSize[80]
|$pdata$?stbir__calculate_coefficients_downsample@@YAXPEAUstbir__info@@W4stbir_filter@@MHHMPEAUstbir__contributors@@PEAM@Z| DCD imagerel |?stbir__calculate_coefficients_downsample@@YAXPEAUstbir__info@@W4stbir_filter@@MHHMPEAUstbir__contributors@@PEAM@Z|
	DCD	0x2a001f9
	;Flags[SingleProEpi] functionLength[504] RegF[0] RegI[0] H[0] frameChainReturn[UnChainedSavedLR] frameSize[80]
|$pdata$?stbir__normalize_downsample_coefficients@@YAXPEAUstbir__info@@PEAUstbir__contributors@@PEAMW4stbir_filter@@MMHH@Z| DCD imagerel |?stbir__normalize_downsample_coefficients@@YAXPEAUstbir__info@@PEAUstbir__contributors@@PEAMW4stbir_filter@@MMHH@Z|
	DCD	0x4210559
	;Flags[SingleProEpi] functionLength[1368] RegF[0] RegI[1] H[0] frameChainReturn[UnChainedSavedLR] frameSize[128]
|$pdata$?stbir__calculate_filters@@YAXPEAUstbir__info@@PEAUstbir__contributors@@PEAMW4stbir_filter@@MMHH@Z| DCD imagerel |?stbir__calculate_filters@@YAXPEAUstbir__info@@PEAUstbir__contributors@@PEAMW4stbir_filter@@MMHH@Z|
	DCD	0x3a10259
	;Flags[SingleProEpi] functionLength[600] RegF[0] RegI[1] H[0] frameChainReturn[UnChainedSavedLR] frameSize[112]
|$pdata$?stbir__get_decode_buffer@@YAPEAMPEAUstbir__info@@@Z| DCD imagerel |?stbir__get_decode_buffer@@YAPEAMPEAUstbir__info@@@Z|
	DCD	0x800049
	;Flags[SingleProEpi] functionLength[72] RegF[0] RegI[0] H[0] frameChainReturn[UnChained] frameSize[16]
|$pdata$?stbir__decode_scanline@@YAXPEAUstbir__info@@H@Z| DCD imagerel |?stbir__decode_scanline@@YAXPEAUstbir__info@@H@Z|
	DCD	0x5a00d09
	;Flags[SingleProEpi] functionLength[3336] RegF[0] RegI[0] H[0] frameChainReturn[UnChainedSavedLR] frameSize[176]
|$pdata$?stbir__get_ring_buffer_entry@@YAPEAMPEAMHH@Z| DCD imagerel |?stbir__get_ring_buffer_entry@@YAPEAMPEAMHH@Z|
	DCD	0x800039
	;Flags[SingleProEpi] functionLength[56] RegF[0] RegI[0] H[0] frameChainReturn[UnChained] frameSize[16]
|$pdata$?stbir__add_empty_ring_buffer_entry@@YAPEAMPEAUstbir__info@@H@Z| DCD imagerel |?stbir__add_empty_ring_buffer_entry@@YAPEAMPEAUstbir__info@@H@Z|
	DCD	0x1a00119
	;Flags[SingleProEpi] functionLength[280] RegF[0] RegI[0] H[0] frameChainReturn[UnChainedSavedLR] frameSize[48]
|$pdata$?stbir__resample_horizontal_upsample@@YAXPEAUstbir__info@@HPEAM@Z| DCD imagerel |?stbir__resample_horizontal_upsample@@YAXPEAUstbir__info@@HPEAM@Z|
	DCD	0x5200871
	;Flags[SingleProEpi] functionLength[2160] RegF[0] RegI[0] H[0] frameChainReturn[UnChainedSavedLR] frameSize[160]
|$pdata$?stbir__resample_horizontal_downsample@@YAXPEAUstbir__info@@HPEAM@Z| DCD imagerel |?stbir__resample_horizontal_downsample@@YAXPEAUstbir__info@@HPEAM@Z|
	DCD	0x8a00b45
	;Flags[SingleProEpi] functionLength[2884] RegF[0] RegI[0] H[0] frameChainReturn[UnChainedSavedLR] frameSize[272]
|$pdata$?stbir__decode_and_resample_upsample@@YAXPEAUstbir__info@@H@Z| DCD imagerel |?stbir__decode_and_resample_upsample@@YAXPEAUstbir__info@@H@Z|
	DCD	0x1200079
	;Flags[SingleProEpi] functionLength[120] RegF[0] RegI[0] H[0] frameChainReturn[UnChainedSavedLR] frameSize[32]
|$pdata$?stbir__decode_and_resample_downsample@@YAXPEAUstbir__info@@H@Z| DCD imagerel |?stbir__decode_and_resample_downsample@@YAXPEAUstbir__info@@H@Z|
	DCD	0x12000ad
	;Flags[SingleProEpi] functionLength[172] RegF[0] RegI[0] H[0] frameChainReturn[UnChainedSavedLR] frameSize[32]
|$pdata$?stbir__get_ring_buffer_scanline@@YAPEAMHPEAMHHHH@Z| DCD imagerel |?stbir__get_ring_buffer_scanline@@YAPEAMHPEAMHHHH@Z|
	DCD	0x1a0006d
	;Flags[SingleProEpi] functionLength[108] RegF[0] RegI[0] H[0] frameChainReturn[UnChainedSavedLR] frameSize[48]
|$pdata$?stbir__encode_scanline@@YAXPEAUstbir__info@@HPEAXPEAMHHH@Z| DCD imagerel |?stbir__encode_scanline@@YAXPEAUstbir__info@@HPEAXPEAMHHH@Z|
	DCD	0x9200a9d
	;Flags[SingleProEpi] functionLength[2716] RegF[0] RegI[0] H[0] frameChainReturn[UnChainedSavedLR] frameSize[288]
|$pdata$?stbir__resample_vertical_upsample@@YAXPEAUstbir__info@@HHHM@Z| DCD imagerel |?stbir__resample_vertical_upsample@@YAXPEAUstbir__info@@HHHM@Z|
	DCD	0x9200b19
	;Flags[SingleProEpi] functionLength[2840] RegF[0] RegI[0] H[0] frameChainReturn[UnChainedSavedLR] frameSize[288]
|$pdata$?stbir__resample_vertical_downsample@@YAXPEAUstbir__info@@HHHM@Z| DCD imagerel |?stbir__resample_vertical_downsample@@YAXPEAUstbir__info@@HHHM@Z|
	DCD	0x6a00859
	;Flags[SingleProEpi] functionLength[2136] RegF[0] RegI[0] H[0] frameChainReturn[UnChainedSavedLR] frameSize[208]
|$pdata$?stbir__buffer_loop_upsample@@YAXPEAUstbir__info@@@Z| DCD imagerel |?stbir__buffer_loop_upsample@@YAXPEAUstbir__info@@@Z|
	DCD	0x1a0023d
	;Flags[SingleProEpi] functionLength[572] RegF[0] RegI[0] H[0] frameChainReturn[UnChainedSavedLR] frameSize[48]
|$pdata$?stbir__empty_ring_buffer@@YAXPEAUstbir__info@@H@Z| DCD imagerel |?stbir__empty_ring_buffer@@YAXPEAUstbir__info@@H@Z|
	DCD	0x3200249
	;Flags[SingleProEpi] functionLength[584] RegF[0] RegI[0] H[0] frameChainReturn[UnChainedSavedLR] frameSize[96]
|$pdata$?stbir__buffer_loop_downsample@@YAXPEAUstbir__info@@@Z| DCD imagerel |?stbir__buffer_loop_downsample@@YAXPEAUstbir__info@@@Z|
	DCD	0x22001bd
	;Flags[SingleProEpi] functionLength[444] RegF[0] RegI[0] H[0] frameChainReturn[UnChainedSavedLR] frameSize[64]
|$pdata$?stbir__setup@@YAXPEAUstbir__info@@HHHHH@Z| DCD imagerel |?stbir__setup@@YAXPEAUstbir__info@@HHHHH@Z|
	DCD	0x1000075
	;Flags[SingleProEpi] functionLength[116] RegF[0] RegI[0] H[0] frameChainReturn[UnChained] frameSize[32]
|$pdata$?stbir__calculate_transform@@YAXPEAUstbir__info@@MMMMPEAM@Z| DCD imagerel |?stbir__calculate_transform@@YAXPEAUstbir__info@@MMMMPEAM@Z|
	DCD	0x10001b9
	;Flags[SingleProEpi] functionLength[440] RegF[0] RegI[0] H[0] frameChainReturn[UnChained] frameSize[32]
|$pdata$?stbir__choose_filter@@YAXPEAUstbir__info@@W4stbir_filter@@1@Z| DCD imagerel |?stbir__choose_filter@@YAXPEAUstbir__info@@W4stbir_filter@@1@Z|
	DCD	0x1a000c9
	;Flags[SingleProEpi] functionLength[200] RegF[0] RegI[0] H[0] frameChainReturn[UnChainedSavedLR] frameSize[48]
|$pdata$?stbir__calculate_memory@@YAIPEAUstbir__info@@@Z| DCD imagerel |?stbir__calculate_memory@@YAIPEAUstbir__info@@@Z|
	DCD	0x2200419
	;Flags[SingleProEpi] functionLength[1048] RegF[0] RegI[0] H[0] frameChainReturn[UnChainedSavedLR] frameSize[64]
|$pdata$?stbir__resize_allocated@@YAHPEAUstbir__info@@PEBXHPEAXHHIW4stbir_datatype@@W4stbir_edge@@4W4stbir_colorspace@@2_K@Z| DCD imagerel |?stbir__resize_allocated@@YAHPEAUstbir__info@@PEBXHPEAXHHIW4stbir_datatype@@W4stbir_edge@@4W4stbir_colorspace@@2_K@Z|
	DCD	0x4200821
	;Flags[SingleProEpi] functionLength[2080] RegF[0] RegI[0] H[0] frameChainReturn[UnChainedSavedLR] frameSize[128]
|$pdata$?stbir__resize_arbitrary@@YAHPEAXPEBXHHH0HHHMMMMPEAMHHIW4stbir_datatype@@W4stbir_filter@@4W4stbir_edge@@5W4stbir_colorspace@@@Z| DCD imagerel |?stbir__resize_arbitrary@@YAHPEAXPEBXHHH0HHHMMMMPEAMHHIW4stbir_datatype@@W4stbir_filter@@4W4stbir_edge@@5W4stbir_colorspace@@@Z|
	DCD	0xd200129
	;Flags[SingleProEpi] functionLength[296] RegF[0] RegI[0] H[0] frameChainReturn[UnChainedSavedLR] frameSize[416]
|$pdata$?CursorStoreBack@@YAXPEAU_ChCanvas_@@PEAU_cursor_@@II@Z| DCD imagerel |$LN9|
	DCD	0x1a000d5
	;Flags[SingleProEpi] functionLength[212] RegF[0] RegI[0] H[0] frameChainReturn[UnChainedSavedLR] frameSize[48]
|$pdata$?CursorDrawBack@@YAXPEAU_ChCanvas_@@PEAU_cursor_@@II@Z| DCD imagerel |$LN9|
	DCD	0x1a000d1
	;Flags[SingleProEpi] functionLength[208] RegF[0] RegI[0] H[0] frameChainReturn[UnChainedSavedLR] frameSize[48]
|$pdata$?ChangeCursor@@YAXPEAU_cursor_@@@Z| DCD imagerel |$LN4|
	DCD	0x12000c9
	;Flags[SingleProEpi] functionLength[200] RegF[0] RegI[0] H[0] frameChainReturn[UnChainedSavedLR] frameSize[32]
|$pdata$?DeodhaiAddWindow@@YAXPEAU_win_@@@Z| DCD imagerel |$LN5|
	DCD	0x800091
	;Flags[SingleProEpi] functionLength[144] RegF[0] RegI[0] H[0] frameChainReturn[UnChained] frameSize[16]
|$pdata$?DeodhaiRemoveWindow@@YAXPEAU_win_@@@Z| DCD imagerel |$LN8|
	DCD	0x8000c1
	;Flags[SingleProEpi] functionLength[192] RegF[0] RegI[0] H[0] frameChainReturn[UnChained] frameSize[16]
|$pdata$?DeodhaiAddWindowAlwaysOnTop@@YAXPEAU_win_@@@Z| DCD imagerel |$LN5|
	DCD	0x800091
	;Flags[SingleProEpi] functionLength[144] RegF[0] RegI[0] H[0] frameChainReturn[UnChained] frameSize[16]
|$pdata$?DeodhaiRemoveWindowAlwaysOnTop@@YAXPEAU_win_@@@Z| DCD imagerel |$LN8|
	DCD	0x8000c1
	;Flags[SingleProEpi] functionLength[192] RegF[0] RegI[0] H[0] frameChainReturn[UnChained] frameSize[16]
|$pdata$?DeodhaiBackSurfaceUpdate@@YAXPEAU_ChCanvas_@@HHHH@Z| DCD imagerel |$LN12|
	DCD	0x32001f1
	;Flags[SingleProEpi] functionLength[496] RegF[0] RegI[0] H[0] frameChainReturn[UnChainedSavedLR] frameSize[96]
|$pdata$?DeodhaiCreateWindow@@YAPEAU_win_@@HHHHGGPEAD@Z| DCD imagerel |$LN5|
	DCD	0x2200081
	;Flags[SingleProEpi] functionLength[128] RegF[0] RegI[0] H[0] frameChainReturn[UnChainedSavedLR] frameSize[64]
|$pdata$?DeodhaiBroadcastMessage@@YAXPEAU_post_event_@@PEAU_win_@@@Z| DCD imagerel |$LN13|
	DCD	0x1a00135
	;Flags[SingleProEpi] functionLength[308] RegF[0] RegI[0] H[0] frameChainReturn[UnChainedSavedLR] frameSize[48]
|$pdata$?DeodhaiSendFocusMessage@@YAXPEAU_post_event_@@@Z| DCD imagerel |$LN8|
	DCD	0x12000dd
	;Flags[SingleProEpi] functionLength[220] RegF[0] RegI[0] H[0] frameChainReturn[UnChainedSavedLR] frameSize[32]
|$pdata$?DeodhaiWindowMakeTop@@YAXPEAU_win_@@@Z| DCD imagerel |$LN5|
	DCD	0x1200069
	;Flags[SingleProEpi] functionLength[104] RegF[0] RegI[0] H[0] frameChainReturn[UnChainedSavedLR] frameSize[32]
|$pdata$?DeodhaiWindowSetFocused@@YAXPEAU_win_@@D@Z| DCD imagerel |$LN6|
	DCD	0x7200111
	;Flags[SingleProEpi] functionLength[272] RegF[0] RegI[0] H[0] frameChainReturn[UnChainedSavedLR] frameSize[224]
|$pdata$?DeodhaiDrawShadow@@YAXPEAU_ChCanvas_@@PEAU_win_@@@Z| DCD imagerel |$LN3|
	DCD	0x1000025
	;Flags[SingleProEpi] functionLength[36] RegF[0] RegI[0] H[0] frameChainReturn[UnChained] frameSize[32]
|$pdata$?DeodhaiRemoveShadow@@YAXPEAU_ChCanvas_@@PEAU_win_@@@Z| DCD imagerel |$LN3|
	DCD	0x1a0007d
	;Flags[SingleProEpi] functionLength[124] RegF[0] RegI[0] H[0] frameChainReturn[UnChainedSavedLR] frameSize[48]
|$pdata$?DeodhaiWindowMove@@YAXPEAU_win_@@HH@Z| DCD imagerel |$LN19|
	DCD	0x2200309
	;Flags[SingleProEpi] functionLength[776] RegF[0] RegI[0] H[0] frameChainReturn[UnChainedSavedLR] frameSize[64]
|$pdata$?DeodhaiWindowHide@@YAXPEAU_win_@@@Z| DCD imagerel |$LN5|
	DCD	0x120010d
	;Flags[SingleProEpi] functionLength[268] RegF[0] RegI[0] H[0] frameChainReturn[UnChainedSavedLR] frameSize[32]
|$pdata$?DeodhaiCheckWindowPointOcclusion@@YADPEAU_win_@@HH@Z| DCD imagerel |$LN14|
	DCD	0x2000231
	;Flags[SingleProEpi] functionLength[560] RegF[0] RegI[0] H[0] frameChainReturn[UnChained] frameSize[64]
|$pdata$?DeodhaiWindowCheckDraggable@@YAXHHH@Z| DCD imagerel |$LN15|
	DCD	0x22002e1
	;Flags[SingleProEpi] functionLength[736] RegF[0] RegI[0] H[0] frameChainReturn[UnChainedSavedLR] frameSize[64]
|$pdata$?ComposeFrame@@YAXPEAU_ChCanvas_@@@Z| DCD imagerel |$LN193|
	DCD	imagerel |$unwind$?ComposeFrame@@YAXPEAU_ChCanvas_@@@Z|
|$pdata$?DeodhaiSendMouseEvent@@YAXHHEEHHH@Z| DCD imagerel |$LN3|
	DCD	0x72000a5
	;Flags[SingleProEpi] functionLength[164] RegF[0] RegI[0] H[0] frameChainReturn[UnChainedSavedLR] frameSize[224]
|$pdata$?DeodhaiResizeCursorUpdate@@YAXHHPEAU_win_info_@@@Z| DCD imagerel |$LN17|
	DCD	0x2200205
	;Flags[SingleProEpi] functionLength[516] RegF[0] RegI[0] H[0] frameChainReturn[UnChainedSavedLR] frameSize[64]
|$pdata$?DeodhaiBroadcastMouse@@YAXHHH@Z| DCD imagerel |$LN29|
	DCD	0x3a00515
	;Flags[SingleProEpi] functionLength[1300] RegF[0] RegI[0] H[0] frameChainReturn[UnChainedSavedLR] frameSize[112]
|$pdata$?DeodhaiBroadcastTouch@@YAXHH@Z| DCD imagerel |$LN23|
	DCD	0x3200411
	;Flags[SingleProEpi] functionLength[1040] RegF[0] RegI[0] H[0] frameChainReturn[UnChainedSavedLR] frameSize[96]
|$pdata$?DeodhaiBroadcastKey@@YAXH@Z| DCD imagerel |$LN4|
	DCD	0x6a00091
	;Flags[SingleProEpi] functionLength[144] RegF[0] RegI[0] H[0] frameChainReturn[UnChainedSavedLR] frameSize[208]
|$pdata$?DeodhaiCloseWindow@@YAXPEAU_win_@@@Z| DCD imagerel |$LN7|
	DCD	0x8200221
	;Flags[SingleProEpi] functionLength[544] RegF[0] RegI[0] H[0] frameChainReturn[UnChainedSavedLR] frameSize[256]
|$pdata$?DrawWallpaper@@YAXPEAU_ChCanvas_@@PEAD@Z| DCD imagerel |$LN16|
	DCD	0x5a00361
	;Flags[SingleProEpi] functionLength[864] RegF[0] RegI[0] H[0] frameChainReturn[UnChainedSavedLR] frameSize[176]
|$pdata$?DeodhaiCurrentTime@@YA_KXZ| DCD imagerel |$LN4|
	DCD	0x12000c1
	;Flags[SingleProEpi] functionLength[192] RegF[0] RegI[0] H[0] frameChainReturn[UnChainedSavedLR] frameSize[32]
|$pdata$?DeodhaiTimeSince@@YA_K_K@Z| DCD imagerel |$LN3|
	DCD	0x1a00035
	;Flags[SingleProEpi] functionLength[52] RegF[0] RegI[0] H[0] frameChainReturn[UnChainedSavedLR] frameSize[48]
|$pdata$?DeodhaiClickCurrentTime@@YA_KXZ| DCD imagerel |$LN3|
	DCD	0x1200051
	;Flags[SingleProEpi] functionLength[80] RegF[0] RegI[0] H[0] frameChainReturn[UnChainedSavedLR] frameSize[32]
|$pdata$?DeodhaiClickTimeSince@@YA_K_K@Z| DCD imagerel |$LN3|
	DCD	0x1a00035
	;Flags[SingleProEpi] functionLength[52] RegF[0] RegI[0] H[0] frameChainReturn[UnChainedSavedLR] frameSize[48]
|$pdata$main| DCD imagerel |$LN112|
	DCD	0x20a01691
	;Flags[SingleProEpi] functionLength[5776] RegF[0] RegI[0] H[0] frameChainReturn[UnChainedSavedLR] frameSize[1040]

	AREA	|.rdata|, DATA, READONLY
|?minval@?1??stbir__linear_to_srgb_uchar@@YAEM@Z@4Tstbir__FP32@@B| DCD 0x39000000 ; `stbir__linear_to_srgb_uchar'::`2'::minval

	AREA	|.rdata|, DATA, READONLY
|?almostone@?1??stbir__linear_to_srgb_uchar@@YAEM@Z@4Tstbir__FP32@@B| DCD 0x3f7fffff ; `stbir__linear_to_srgb_uchar'::`2'::almostone

	AREA	|.data|, DATA
|?stbir__type_size@@3PAEA| DCB 0x1			; stbir__type_size
	DCB	0x2
	DCB	0x4
	DCB	0x4
	%	12
|?stbir__srgb_uchar_to_linear_float@@3PAMA| DCD 0x0	; 0 ; stbir__srgb_uchar_to_linear_float
	DCD	0x399f6230				; 0.000304
	DCD	0x3a1f1f15				; 0.000607
	DCD	0x3a6ed02d				; 0.000911
	DCD	0x3a9f1f15				; 0.001214
	DCD	0x3ac6f7a1				; 0.001518
	DCD	0x3aeeae9f				; 0.001821
	DCD	0x3b0b4396				; 0.002125
	DCD	0x3b1f1f15				; 0.002428
	DCD	0x3b330b5b				; 0.002732
	DCD	0x3b46e6da				; 0.003035
	DCD	0x3b5b5958				; 0.003347
	DCD	0x3b70f9d3				; 0.003677
	DCD	0x3b83e426				; 0.004025
	DCD	0x3b8fe261				; 0.004391
	DCD	0x3b9c8861				; 0.004777
	DCD	0x3ba9cdc4				; 0.005182
	DCD	0x3bb7aa26				; 0.005605
	DCD	0x3bc636b1				; 0.006049
	DCD	0x3bd5629e				; 0.006512
	DCD	0x3be53650				; 0.006995
	DCD	0x3bf5ba2c				; 0.007499
	DCD	0x3c0372e7				; 0.008023
	DCD	0x3c0c60cc				; 0.008568
	DCD	0x3c15a6c6				; 0.009134
	DCD	0x3c1f44d4				; 0.009721
	DCD	0x3c293f29				; 0.01033
	DCD	0x3c339192				; 0.01096
	DCD	0x3c3e4042				; 0.011612
	DCD	0x3c494b38				; 0.012286
	DCD	0x3c54b6a6				; 0.012983
	DCD	0x3c607e5a				; 0.013702
	DCD	0x3c6ca687				; 0.014444
	DCD	0x3c792f2b				; 0.015209
	DCD	0x3c830a0b				; 0.015996
	DCD	0x3c89aed5				; 0.016807
	DCD	0x3c9085f5				; 0.017642
	DCD	0x3c978d50				; 0.0185
	DCD	0x3c9ec700				; 0.019382
	DCD	0x3ca6351e				; 0.020289
	DCD	0x3cadd378				; 0.021219
	DCD	0x3cb5a640				; 0.022174
	DCD	0x3cbdab5c				; 0.023153
	DCD	0x3cc5e6ff				; 0.024158
	DCD	0x3cce54f8				; 0.025187
	DCD	0x3cd6f75e				; 0.026241
	DCD	0x3cdfd04a				; 0.027321
	DCD	0x3ce8dda5				; 0.028426
	DCD	0x3cf22186				; 0.029557
	DCD	0x3cfb99d4				; 0.030713
	DCD	0x3d02a561				; 0.031896
	DCD	0x3d07991c				; 0.033105
	DCD	0x3d0ca81a				; 0.03434
	DCD	0x3d11d25b				; 0.035601
	DCD	0x3d1718ec				; 0.036889
	DCD	0x3d1c7bcc				; 0.038204
	DCD	0x3d21fafd				; 0.039546
	DCD	0x3d27967d				; 0.040915
	DCD	0x3d2d4e4d				; 0.042311
	DCD	0x3d332379				; 0.043735
	DCD	0x3d3914f5				; 0.045186
	DCD	0x3d3f23cd				; 0.046665
	DCD	0x3d455001				; 0.048172
	DCD	0x3d4b9991				; 0.049707
	DCD	0x3d51ff71				; 0.051269
	DCD	0x3d5884c7				; 0.052861
	DCD	0x3d5f266c				; 0.05448
	DCD	0x3d65e679				; 0.056128
	DCD	0x3d6cc4f0				; 0.057805
	DCD	0x3d73c1ce				; 0.059511
	DCD	0x3d7add16				; 0.061246
	DCD	0x3d810b63				; 0.06301
	DCD	0x3d84b76f				; 0.064803
	DCD	0x3d887336				; 0.066626
	DCD	0x3d8c3e32				; 0.068478
	DCD	0x3d9018e7				; 0.07036
	DCD	0x3d940358				; 0.072272
	DCD	0x3d97fd82				; 0.074214
	DCD	0x3d9c06e2				; 0.076185
	DCD	0x3da02081				; 0.078187
	DCD	0x3da44a62				; 0.08022
	DCD	0x3da883fd				; 0.082283
	DCD	0x3daccd53				; 0.084376
	DCD	0x3db126e9				; 0.0865
	DCD	0x3db59147				; 0.088656
	DCD	0x3dba0b5f				; 0.090842
	DCD	0x3dbe95b8				; 0.093059
	DCD	0x3dc33051				; 0.095307
	DCD	0x3dc7dbb1				; 0.097587
	DCD	0x3dcc97d9				; 0.099899
	DCD	0x3dd16441				; 0.102242
	DCD	0x3dd640ea				; 0.104616
	DCD	0x3ddb2ee0				; 0.107023
	DCD	0x3de02d9d				; 0.109462
	DCD	0x3de53c9b				; 0.111932
	DCD	0x3dea5ce6				; 0.114435
	DCD	0x3def8e7e				; 0.116971
	DCD	0x3df4d057				; 0.119538
	DCD	0x3dfa2403				; 0.122139
	DCD	0x3dff8876				; 0.124772
	DCD	0x3e027f1b				; 0.127438
	DCD	0x3e05425f				; 0.130136
	DCD	0x3e080e8d				; 0.132868
	DCD	0x3e0ae361				; 0.135633
	DCD	0x3e0dc11e				; 0.138432
	DCD	0x3e10a73f				; 0.141263
	DCD	0x3e13964a				; 0.144128
	DCD	0x3e168e3f				; 0.147027
	DCD	0x3e198f1d				; 0.14996
	DCD	0x3e1c98a2				; 0.152926
	DCD	0x3e1fab11				; 0.155926
	DCD	0x3e22c6ac				; 0.158961
	DCD	0x3e25eaee				; 0.162029
	DCD	0x3e29185d				; 0.165132
	DCD	0x3e2c4eb5				; 0.168269
	DCD	0x3e2f8e3b				; 0.171441
	DCD	0x3e32d6aa				; 0.174647
	DCD	0x3e362846				; 0.177888
	DCD	0x3e39830e				; 0.181164
	DCD	0x3e3ce704				; 0.184475
	DCD	0x3e405426				; 0.187821
	DCD	0x3e43ca75				; 0.191202
	DCD	0x3e4749f1				; 0.194618
	DCD	0x3e4ad29a				; 0.198069
	DCD	0x3e4e64b2				; 0.201556
	DCD	0x3e52003b				; 0.205079
	DCD	0x3e55a4f0				; 0.208637
	DCD	0x3e595315				; 0.212231
	DCD	0x3e5d0aaa				; 0.215861
	DCD	0x3e60cb6c				; 0.219526
	DCD	0x3e6495e1				; 0.223228
	DCD	0x3e6869c6				; 0.226966
	DCD	0x3e6c471b				; 0.23074
	DCD	0x3e702e23				; 0.234551
	DCD	0x3e741e9b				; 0.238398
	DCD	0x3e781883				; 0.242281
	DCD	0x3e7c1c1d				; 0.246201
	DCD	0x3e8014b6				; 0.250158
	DCD	0x3e822036				; 0.254152
	DCD	0x3e843090				; 0.258183
	DCD	0x3e8645c3				; 0.262251
	DCD	0x3e885fd0				; 0.266356
	DCD	0x3e8a7eb7				; 0.270498
	DCD	0x3e8ca277				; 0.274677
	DCD	0x3e8ecb32				; 0.278894
	DCD	0x3e90f8e8				; 0.283149
	DCD	0x3e932b77				; 0.287441
	DCD	0x3e956302				; 0.291771
	DCD	0x3e979f66				; 0.296138
	DCD	0x3e99e0e7				; 0.300544
	DCD	0x3e9c2742				; 0.304987
	DCD	0x3e9e72b9				; 0.309469
	DCD	0x3ea0c32b				; 0.313989
	DCD	0x3ea31898				; 0.318547
	DCD	0x3ea57300				; 0.323143
	DCD	0x3ea7d285				; 0.327778
	DCD	0x3eaa3726				; 0.332452
	DCD	0x3eaca0c3				; 0.337164
	DCD	0x3eaf0f5a				; 0.341914
	DCD	0x3eb18330				; 0.346704
	DCD	0x3eb3fc22				; 0.351533
	DCD	0x3eb67a10				; 0.3564
	DCD	0x3eb8fd3b				; 0.361307
	DCD	0x3ebb8583				; 0.366253
	DCD	0x3ebe12e8				; 0.371238
	DCD	0x3ec0a56a				; 0.376262
	DCD	0x3ec33d29				; 0.381326
	DCD	0x3ec5da27				; 0.38643
	DCD	0x3ec87c42				; 0.391573
	DCD	0x3ecb2379				; 0.396755
	DCD	0x3ecdd00f				; 0.401978
	DCD	0x3ed081c3				; 0.40724
	DCD	0x3ed338d6				; 0.412543
	DCD	0x3ed5f506				; 0.417885
	DCD	0x3ed8b695				; 0.423268
	DCD	0x3edb7d63				; 0.428691
	DCD	0x3ede496f				; 0.434154
	DCD	0x3ee11ab9				; 0.439657
	DCD	0x3ee3f163				; 0.445201
	DCD	0x3ee6cd6c				; 0.450786
	DCD	0x3ee9aeb4				; 0.456411
	DCD	0x3eec955b				; 0.462077
	DCD	0x3eef8162				; 0.467784
	DCD	0x3ef272c9				; 0.473532
	DCD	0x3ef5696e				; 0.47932
	DCD	0x3ef86595				; 0.48515
	DCD	0x3efb671b				; 0.491021
	DCD	0x3efe6e01				; 0.496933
	DCD	0x3f00bd34				; 0.502887
	DCD	0x3f024606				; 0.508881
	DCD	0x3f03d1ab				; 0.514918
	DCD	0x3f055ffe				; 0.520996
	DCD	0x3f06f102				; 0.527115
	DCD	0x3f0884c7				; 0.533276
	DCD	0x3f0a1b5c				; 0.53948
	DCD	0x3f0bb4a2				; 0.545725
	DCD	0x3f0d5098				; 0.552011
	DCD	0x3f0eef5f				; 0.55834
	DCD	0x3f1090f7				; 0.564712
	DCD	0x3f12353f				; 0.571125
	DCD	0x3f13dc59				; 0.577581
	DCD	0x3f158623				; 0.584078
	DCD	0x3f1732cf				; 0.590619
	DCD	0x3f18e23b				; 0.597202
	DCD	0x3f1a9468				; 0.603827
	DCD	0x3f1c4977				; 0.610496
	DCD	0x3f1e0147				; 0.617207
	DCD	0x3f1fbbd8				; 0.62396
	DCD	0x3f21794a				; 0.630757
	DCD	0x3f23398f				; 0.637597
	DCD	0x3f24fca4				; 0.64448
	DCD	0x3f26c28b				; 0.651406
	DCD	0x3f288b44				; 0.658375
	DCD	0x3f2a56cd				; 0.665387
	DCD	0x3f2c2539				; 0.672443
	DCD	0x3f2df688				; 0.679543
	DCD	0x3f2fca97				; 0.686685
	DCD	0x3f31a198				; 0.693872
	DCD	0x3f337b6c				; 0.701102
	DCD	0x3f355821				; 0.708376
	DCD	0x3f3737b9				; 0.715694
	DCD	0x3f391a22				; 0.723055
	DCD	0x3f3aff7e				; 0.730461
	DCD	0x3f3ce7bc				; 0.737911
	DCD	0x3f3ed2cc				; 0.745404
	DCD	0x3f40c0cf				; 0.752942
	DCD	0x3f42b1c4				; 0.760525
	DCD	0x3f44a58b				; 0.768151
	DCD	0x3f469c45				; 0.775822
	DCD	0x3f4895f2				; 0.783538
	DCD	0x3f4a9281				; 0.791298
	DCD	0x3f4c9204				; 0.799103
	DCD	0x3f4e9468				; 0.806952
	DCD	0x3f5099d0				; 0.814847
	DCD	0x3f52a21a				; 0.822786
	DCD	0x3f54ad58				; 0.83077
	DCD	0x3f56bb88				; 0.838799
	DCD	0x3f58ccab				; 0.846873
	DCD	0x3f5ae0d2				; 0.854993
	DCD	0x3f5cf7db				; 0.863157
	DCD	0x3f5f11e8				; 0.871367
	DCD	0x3f612ee8				; 0.879622
	DCD	0x3f634eec				; 0.887923
	DCD	0x3f6571e3				; 0.896269
	DCD	0x3f6797dd				; 0.904661
	DCD	0x3f69c0db				; 0.913099
	DCD	0x3f6beccc				; 0.921582
	DCD	0x3f6e1bc1				; 0.930111
	DCD	0x3f704dba				; 0.938686
	DCD	0x3f7282b6				; 0.947307
	DCD	0x3f74bab6				; 0.955974
	DCD	0x3f76f5a9				; 0.964686
	DCD	0x3f7933b1				; 0.973445
	DCD	0x3f7b74cd				; 0.982251
	DCD	0x3f7db8dc				; 0.991102
	DCD	0x3f800000				; 1
|?stbir__filter_info_table@@3PAUstbir__filter_info@@A| DCQ 0x0, 0x0 ;  = 0x0000000000000000 ; stbir__filter_info_table
	DCQ	|?stbir__support_zero@@YAMM@Z|, 0
	DCQ	|?stbir__filter_trapezoid@@YAMMM@Z|, 0
	DCQ	|?stbir__support_trapezoid@@YAMM@Z|, 0
	DCQ	|?stbir__filter_triangle@@YAMMM@Z|, 0
	DCQ	|?stbir__support_one@@YAMM@Z|, 0
	DCQ	|?stbir__filter_cubic@@YAMMM@Z|, 0
	DCQ	|?stbir__support_two@@YAMM@Z|, 0
	DCQ	|?stbir__filter_catmullrom@@YAMMM@Z|, 0
	DCQ	|?stbir__support_two@@YAMM@Z|, 0
	DCQ	|?stbir__filter_mitchell@@YAMMM@Z|, 0
	DCQ	|?stbir__support_two@@YAMM@Z|, 0

	AREA	|.xdata|, DATA
|$unwind$?ComposeFrame@@YAXPEAU_ChCanvas_@@@Z| DCD 0x19e00ba2
	DCD	0xe3e3c0c1
	DCD	0xc1e461d5
	DCD	0xe461d5c0
	;Code Words[3], Epilog Start Index[7], E[1], X[0], Function Length[2978]=11912 bytes
	;alloc_m
	;nop
	;nop
	;save_reg_x
	;end
	;alloc_m
	;save_reg_x
	;end
; Function compile flags: /Odtpy
; File C:\Users\paras\source\repos\grep-name\XenevaOS\Process\Deodhai\deomain.cpp

	AREA	|.text$mn|, CODE, ARM64

|?_is_gpu_enabled@@YADXZ| PROC				; _is_gpu_enabled

; 2203 : 	return _gpu_enabled;

	adrp        x8,|?_gpu_enabled@@3DA|
	ldrsb       w0,[x8,PageOffset(|?_gpu_enabled@@3DA|)]
	ret

	ENDP  ; |?_is_gpu_enabled@@YADXZ|, _is_gpu_enabled

; Function compile flags: /Odtpy
; File C:\Users\paras\source\repos\grep-name\XenevaOS\Process\Deodhai\deomain.cpp

	AREA	|.text$mn|, CODE, ARM64

|?_get_gpu_display_id@@YAHXZ| PROC			; _get_gpu_display_id

; 2199 : 	return gpu_display_id;

	adrp        x8,|?gpu_display_id@@3HA|
	ldr         w0,[x8,PageOffset(|?gpu_display_id@@3HA|)]
	ret

	ENDP  ; |?_get_gpu_display_id@@YAHXZ|, _get_gpu_display_id

; Function compile flags: /Odtpy
; File C:\Users\paras\source\repos\grep-name\XenevaOS\Process\Deodhai\deomain.cpp

	AREA	|.text$mn|, CODE, ARM64

|?_get_gpu_fd@@YAHXZ| PROC				; _get_gpu_fd

; 2195 : 	return gpu_fd;

	adrp        x8,|?gpu_fd@@3HA|
	ldr         w0,[x8,PageOffset(|?gpu_fd@@3HA|)]
	ret

	ENDP  ; |?_get_gpu_fd@@YAHXZ|, _get_gpu_fd

; Function compile flags: /Odtpy
; File C:\Users\paras\source\repos\grep-name\XenevaOS\Process\Deodhai\deomain.cpp

	AREA	|.text$mn|, CODE, ARM64

|main|	PROC

; 1638 : int main(int argc, char* arv[]) {

|$LN112|
	str         lr,[sp,#-0x10]!
	sub         sp,sp,#0x400
	str         w0,[sp,#0xD8]
	str         x1,[sp,#0x270]

; 1639 : 	int pid = _KeGetThreadID();

	bl          _KeGetThreadID
	uxth        w8,w0
	mov         w8,w8
	str         w8,[sp,#0xDC]

; 1640 : 	
; 1641 : 	_KePrint("Argc == 10 %x\r\n", argc);

	ldr         w1,[sp,#0xD8]
	adrp        x8,|$SG8962|
	add         x0,x8,PageOffset(|$SG8962|)
	bl          _KePrint

; 1642 : 	_KePrint("Deodhai v1.0 running %d\r\n", pid);

	ldr         w1,[sp,#0xDC]
	adrp        x8,|$SG8963|
	add         x0,x8,PageOffset(|$SG8963|)
	bl          _KePrint

; 1643 : 
; 1644 : 	startTime = 0;

	adrp        x9,|?startTime@@3_KA|
	mov         x8,#0
	str         x8,[x9,PageOffset(|?startTime@@3_KA|)]

; 1645 : 	startSubTime = 0;

	adrp        x9,|?startSubTime@@3_KA|
	mov         x8,#0
	str         x8,[x9,PageOffset(|?startSubTime@@3_KA|)]

; 1646 : 	timeval tm;
; 1647 : 	//gettimeofday(&tm);
; 1648 : 	startTime = tm.tv_sec;

	ldr         w8,[sp,#0x1F8]
	sxtw        x9,w8
	adrp        x8,|?startTime@@3_KA|
	str         x9,[x8,PageOffset(|?startTime@@3_KA|)]

; 1649 : 	startSubTime = tm.tv_usec;

	ldr         w8,[sp,#0x1FC]
	sxtw        x9,w8
	adrp        x8,|?startSubTime@@3_KA|
	str         x9,[x8,PageOffset(|?startSubTime@@3_KA|)]

; 1650 : 
; 1651 : 	/* first of all get screen width and screen height */
; 1652 : 	XEFileIOControl graphctl;
; 1653 : 	memset(&graphctl, 0, sizeof(XEFileIOControl));

	mov         x2,#0x28
	mov         w1,#0
	add         x0,sp,#0x220
	bl          memset

; 1654 : 	graphctl.syscall_magic = AURORA_SYSCALL_MAGIC;

	ldr         w8,|$LN110@main|
	str         w8,[sp,#0x220]

; 1655 : 
; 1656 : 	DeodhaiInitialiseData();

	bl          |?DeodhaiInitialiseData@@YAXXZ|

; 1657 : 	BackDirtyInitialise();

	bl          |?BackDirtyInitialise@@YAXXZ|

; 1658 : 
; 1659 : 	_KePrint("Deodhai : Till here we're initialized \r\n");

	adrp        x8,|$SG8964|
	add         x0,x8,PageOffset(|$SG8964|)
	bl          _KePrint

; 1660 : 	
; 1661 : 	int ret = 0;

	mov         w8,#0
	str         w8,[sp,#0x70]

; 1662 : 	int screen_w = 0;

	mov         w8,#0
	str         w8,[sp]

; 1663 : 	_gpu_enabled = 0;

	adrp        x9,|?_gpu_enabled@@3DA|
	mov         w8,#0
	strb        w8,[x9,PageOffset(|?_gpu_enabled@@3DA|)]

; 1664 : 	int screen_h = 0;

	mov         w8,#0
	str         w8,[sp,#4]

; 1665 : 	_window_moving_ = false;

	adrp        x9,|?_window_moving_@@3DA|
	mov         w8,#0
	strb        w8,[x9,PageOffset(|?_window_moving_@@3DA|)]

; 1666 : 	_clients_advice = false;

	adrp        x9,|?_clients_advice@@3DA|
	mov         w8,#0
	strb        w8,[x9,PageOffset(|?_clients_advice@@3DA|)]

; 1667 : 	/* create a demo canvas just for getting the graphics
; 1668 : 	 * file descriptor 
; 1669 : 	 */
; 1670 : 	ChCanvas* canv = ChCreateCanvas(100, 100);

	mov         w1,#0x64
	mov         w0,#0x64
	bl          ChCreateCanvas
	str         x0,[sp,#0x10]

; 1671 : 
; 1672 : 
; 1673 : 	
; 1674 : 	canvas = canv;

	adrp        x9,|?canvas@@3PEAU_ChCanvas_@@EA|
	ldr         x8,[sp,#0x10]
	str         x8,[x9,PageOffset(|?canvas@@3PEAU_ChCanvas_@@EA|)]

; 1675 : 	ret = _KeFileIoControl(canv->graphics_fd, SCREEN_GETWIDTH, &graphctl);

	ldr         x8,[sp,#0x10]
	add         x2,sp,#0x220
	mov         w1,#0xC9
	ldr         w0,[x8]
	bl          _KeFileIoControl
	mov         w0,w0
	str         w0,[sp,#0x70]

; 1676 : 	screen_w = graphctl.uint_1;

	ldr         w8,[sp,#0x22C]
	str         w8,[sp]

; 1677 : 	ret = _KeFileIoControl(canv->graphics_fd, SCREEN_GETHEIGHT, &graphctl);

	ldr         x8,[sp,#0x10]
	add         x2,sp,#0x220
	mov         w1,#0xCA
	ldr         w0,[x8]
	bl          _KeFileIoControl
	mov         w0,w0
	str         w0,[sp,#0x70]

; 1678 : 	screen_h = graphctl.uint_1;

	ldr         w8,[sp,#0x22C]
	str         w8,[sp,#4]

; 1679 : 
; 1680 : 	/* now modify the canvas size with screen size */
; 1681 : 	canv->canvasWidth = screen_w;

	ldr         x8,[sp,#0x10]
	add         x9,x8,#0x18
	ldr         w8,[sp]
	str         w8,[x9]

; 1682 : 	canv->canvasHeight = screen_h;

	ldr         x8,[sp,#0x10]
	add         x9,x8,#0x1C
	ldr         w8,[sp,#4]
	str         w8,[x9]

; 1683 : 
; 1684 : 	gpu_fd = _KeOpenFile("/dev/virtiogpu", FILE_OPEN_READ_ONLY);

	mov         w1,#2
	adrp        x8,|$SG8965|
	add         x0,x8,PageOffset(|$SG8965|)
	bl          _KeOpenFile
	mov         w0,w0
	adrp        x8,|?gpu_fd@@3HA|
	str         w0,[x8,PageOffset(|?gpu_fd@@3HA|)]

; 1685 : 
; 1686 : 	if (gpu_fd != -1) {

	adrp        x8,|?gpu_fd@@3HA|
	ldr         w8,[x8,PageOffset(|?gpu_fd@@3HA|)]
	cmn         w8,#1
	beq         |$LN46@main|

; 1687 : 		_gpu_enabled = 1;

	adrp        x9,|?_gpu_enabled@@3DA|
	mov         w8,#1
	strb        w8,[x9,PageOffset(|?_gpu_enabled@@3DA|)]

; 1688 : 		gpu_display_id = _KeFileIoControl(gpu_fd, 0x204, NULL);

	mov         x2,#0
	mov         w1,#0x204
	adrp        x8,|?gpu_fd@@3HA|
	ldr         w0,[x8,PageOffset(|?gpu_fd@@3HA|)]
	bl          _KeFileIoControl
	mov         w0,w0
	adrp        x8,|?gpu_display_id@@3HA|
	str         w0,[x8,PageOffset(|?gpu_display_id@@3HA|)]
|$LN46@main|

; 1689 : 	}
; 1690 : 
; 1691 : 	_KePrint("Canv->screen_w -> %d, screenh -> %d \r\n", screen_w, screen_h);

	ldr         w2,[sp,#4]
	ldr         w1,[sp]
	adrp        x8,|$SG8967|
	add         x0,x8,PageOffset(|$SG8967|)
	bl          _KePrint

; 1692 : 	/* now allocate a back buffer with respected canvas size
; 1693 : 	 * and fill it with light-black color */
; 1694 : 	ChAllocateBuffer(canv);

	ldr         x0,[sp,#0x10]
	bl          ChAllocateBuffer

; 1695 : 	/* allocate a surface buffer */
; 1696 : 	surfaceBuffer = (uint32_t*)_KeMemMap(NULL, static_cast<size_t>(canv->screenWidth) * canv->screenHeight * 4, 0, 0, MEMMAP_NO_FILEDESC, 0);

	ldr         x8,[sp,#0x10]
	add         x8,x8,#4
	ldr         w8,[x8]
	uxtw        x9,w8
	ldr         x8,[sp,#0x10]
	add         x8,x8,#8
	ldr         w8,[x8]
	uxtw        x8,w8
	mul         x9,x9,x8
	mov         x8,#4
	mul         x1,x9,x8
	mov         x5,#0
	mov         w4,#-1
	mov         w3,#0
	mov         w2,#0
	mov         x0,#0
	bl          _KeMemMap
	adrp        x8,|?surfaceBuffer@@3PEAIEA|
	str         x0,[x8,PageOffset(|?surfaceBuffer@@3PEAIEA|)]

; 1697 : 	for (int i = 0; i < screen_w; i++)

	mov         w8,#0
	str         w8,[sp,#0x28]
	b           |$LN4@main|
|$LN2@main|
	ldr         w8,[sp,#0x28]
	add         w8,w8,#1
	str         w8,[sp,#0x28]
|$LN4@main|
	ldr         w9,[sp]
	ldr         w8,[sp,#0x28]
	cmp         w8,w9
	bge         |$LN3@main|

; 1698 : 	for (int j = 0; j < screen_h; j++)

	mov         w8,#0
	str         w8,[sp,#0x24]
	b           |$LN7@main|
|$LN5@main|
	ldr         w8,[sp,#0x24]
	add         w8,w8,#1
	str         w8,[sp,#0x24]
|$LN7@main|
	ldr         w9,[sp,#4]
	ldr         w8,[sp,#0x24]
	cmp         w8,w9
	bge         |$LN6@main|

; 1699 : 		surfaceBuffer[j * canv->canvasWidth + i] = GRAY; //0xFF938585;

	ldr         x8,[sp,#0x10]
	add         x8,x8,#0x18
	ldr         w9,[sp,#0x24]
	ldr         w8,[x8]
	mul         w9,w9,w8
	ldr         w8,[sp,#0x28]
	add         w8,w9,w8
	uxtw        x9,w8
	mov         x8,#4
	mul         x9,x9,x8
	adrp        x8,|?surfaceBuffer@@3PEAIEA|
	ldr         x8,[x8,PageOffset(|?surfaceBuffer@@3PEAIEA|)]
	add         x9,x8,x9
	ldr         w8,|$LN111@main|
	str         w8,[x9]
	b           |$LN5@main|
|$LN6@main|
	b           |$LN2@main|
|$LN3@main|

; 1700 : 
; 1701 : 	DeodhaiBackSurfaceUpdate(canv, 0, 0, screen_w, screen_h);

	ldr         w4,[sp,#4]
	ldr         w3,[sp]
	mov         w2,#0
	mov         w1,#0
	ldr         x0,[sp,#0x10]
	bl          |?DeodhaiBackSurfaceUpdate@@YAXPEAU_ChCanvas_@@HHHH@Z|

; 1702 : 	if (screen_w == 1024 && screen_h == 768) {

	ldr         w8,[sp]
	cmp         w8,#0x400
	bne         |$LN47@main|
	ldr         w8,[sp,#4]
	cmp         w8,#0x300
	bne         |$LN47@main|

; 1703 : 		DrawWallpaper(canv, "/mtnr1.jpg");

	adrp        x8,|$SG8970|
	add         x1,x8,PageOffset(|$SG8970|)
	ldr         x0,[sp,#0x10]
	bl          |?DrawWallpaper@@YAXPEAU_ChCanvas_@@PEAD@Z|

; 1704 : 		DeodhaiBackSurfaceUpdate(canv, 0, 0, screen_w, screen_h);

	ldr         w4,[sp,#4]
	ldr         w3,[sp]
	mov         w2,#0
	mov         w1,#0
	ldr         x0,[sp,#0x10]
	bl          |?DeodhaiBackSurfaceUpdate@@YAXPEAU_ChCanvas_@@HHHH@Z|
	b           |$LN48@main|
|$LN47@main|

; 1705 : 	}else if (screen_w == 1920 && screen_h == 1080) {

	ldr         w8,[sp]
	cmp         w8,#0x780
	bne         |$LN49@main|
	ldr         w8,[sp,#4]
	cmp         w8,#0x438
	bne         |$LN49@main|

; 1706 : 		DrawWallpaper(canv, "/mtnr2.jpg");

	adrp        x8,|$SG8973|
	add         x1,x8,PageOffset(|$SG8973|)
	ldr         x0,[sp,#0x10]
	bl          |?DrawWallpaper@@YAXPEAU_ChCanvas_@@PEAD@Z|

; 1707 : 		DeodhaiBackSurfaceUpdate(canv, 0, 0, screen_w, screen_h);

	ldr         w4,[sp,#4]
	ldr         w3,[sp]
	mov         w2,#0
	mov         w1,#0
	ldr         x0,[sp,#0x10]
	bl          |?DeodhaiBackSurfaceUpdate@@YAXPEAU_ChCanvas_@@HHHH@Z|
	b           |$LN50@main|
|$LN49@main|

; 1708 : 	}else if (screen_w == 480 && screen_h == 320) {

	ldr         w8,[sp]
	cmp         w8,#0x1E0
	bne         |$LN51@main|
	ldr         w8,[sp,#4]
	cmp         w8,#0x140
	bne         |$LN51@main|

; 1709 : 		DrawWallpaper(canv, "/mntr1.jpg");

	adrp        x8,|$SG8976|
	add         x1,x8,PageOffset(|$SG8976|)
	ldr         x0,[sp,#0x10]
	bl          |?DrawWallpaper@@YAXPEAU_ChCanvas_@@PEAD@Z|

; 1710 : 		DeodhaiBackSurfaceUpdate(canv, 0, 0, screen_w, screen_h);

	ldr         w4,[sp,#4]
	ldr         w3,[sp]
	mov         w2,#0
	mov         w1,#0
	ldr         x0,[sp,#0x10]
	bl          |?DeodhaiBackSurfaceUpdate@@YAXPEAU_ChCanvas_@@HHHH@Z|

; 1711 : 	}

	b           |$LN52@main|
|$LN51@main|

; 1712 : 	else if (screen_w == 800 && screen_h == 480) {

	ldr         w8,[sp]
	cmp         w8,#0x320
	bne         |$LN53@main|
	ldr         w8,[sp,#4]
	cmp         w8,#0x1E0
	bne         |$LN53@main|

; 1713 : 		DrawWallpaper(canv, "/flora1.jpg");

	adrp        x8,|$SG8978|
	add         x1,x8,PageOffset(|$SG8978|)
	ldr         x0,[sp,#0x10]
	bl          |?DrawWallpaper@@YAXPEAU_ChCanvas_@@PEAD@Z|

; 1714 : 		DeodhaiBackSurfaceUpdate(canv, 0, 0, screen_w, screen_h);

	ldr         w4,[sp,#4]
	ldr         w3,[sp]
	mov         w2,#0
	mov         w1,#0
	ldr         x0,[sp,#0x10]
	bl          |?DeodhaiBackSurfaceUpdate@@YAXPEAU_ChCanvas_@@HHHH@Z|
|$LN53@main|
|$LN52@main|
|$LN50@main|
|$LN48@main|

; 1715 : 	}
; 1716 : 
; 1717 : 	ChCanvasScreenUpdate(canv, 0, 0, canv->canvasWidth, canv->canvasHeight);

	ldr         x8,[sp,#0x10]
	add         x9,x8,#0x1C
	ldr         x8,[sp,#0x10]
	add         x8,x8,#0x18
	ldr         w4,[x9]
	ldr         w3,[x8]
	mov         w2,#0
	mov         w1,#0
	ldr         x0,[sp,#0x10]
	bl          ChCanvasScreenUpdate

; 1718 : 	if (_gpu_enabled) {

	adrp        x8,|?_gpu_enabled@@3DA|
	ldrsb       w8,[x8,PageOffset(|?_gpu_enabled@@3DA|)]
	mov         w8,w8
	cmp         w8,#0
	beq         |$LN54@main|

; 1719 : 		XEFileIOControl ctl;
; 1720 : 		ctl.uint_1 = gpu_display_id;

	adrp        x8,|?gpu_display_id@@3HA|
	ldr         w8,[x8,PageOffset(|?gpu_display_id@@3HA|)]
	str         w8,[sp,#0x254]

; 1721 : 		ctl.ushort_1 = 0;

	mov         w8,#0
	strh        w8,[sp,#0x24E]

; 1722 : 		ctl.ushort_2 = 0;

	mov         w8,#0
	strh        w8,[sp,#0x250]

; 1723 : 		ctl.ulong_1 = canv->canvasWidth;

	ldr         x8,[sp,#0x10]
	add         x8,x8,#0x18
	ldr         w8,[x8]
	uxtw        x8,w8
	str         x8,[sp,#0x260]

; 1724 : 		ctl.ulong_2 = canv->canvasHeight;

	ldr         x8,[sp,#0x10]
	add         x8,x8,#0x1C
	ldr         w8,[x8]
	uxtw        x8,w8
	str         x8,[sp,#0x268]

; 1725 : 		_KeFileIoControl(gpu_fd, 0x202, &ctl);

	add         x2,sp,#0x248
	mov         w1,#0x202
	adrp        x8,|?gpu_fd@@3HA|
	ldr         w0,[x8,PageOffset(|?gpu_fd@@3HA|)]
	bl          _KeFileIoControl

; 1726 : 		canv->buffer = canv->framebuff;

	ldr         x8,[sp,#0x10]
	add         x10,x8,#0x30
	ldr         x8,[sp,#0x10]
	add         x9,x8,#0x20
	ldr         x8,[x10]
	str         x8,[x9]
|$LN54@main|

; 1727 : 	}
; 1728 : 
; 1729 : 	InitialiseDirtyClipList();

	bl          |?InitialiseDirtyClipList@@YAXXZ|

; 1730 : 
; 1731 : 	arrow = CursorOpen("/pointer.bmp", CURSOR_TYPE_POINTER);

	mov         w1,#1
	adrp        x8,|$SG8980|
	add         x0,x8,PageOffset(|$SG8980|)
	bl          |?CursorOpen@@YAPEAU_cursor_@@PEADE@Z|
	adrp        x8,|?arrow@@3PEAU_cursor_@@EA|
	str         x0,[x8,PageOffset(|?arrow@@3PEAU_cursor_@@EA|)]

; 1732 : 	CursorRead(arrow);

	adrp        x8,|?arrow@@3PEAU_cursor_@@EA|
	ldr         x0,[x8,PageOffset(|?arrow@@3PEAU_cursor_@@EA|)]
	bl          |?CursorRead@@YAXPEAU_cursor_@@@Z|

; 1733 : 	/*move = CursorOpen("/move.bmp", CURSOR_TYPE_MOVE);
; 1734 : 	CursorRead(move);
; 1735 : 	resizeUpDown = CursorOpen("/rzupdn.bmp", CURSOR_TYPE_RESIZE_UPDOWN);
; 1736 : 	CursorRead(resizeUpDown);
; 1737 : 	resizeLeftRight = CursorOpen("/rzrl.bmp", CURSOR_TYPE_RESIZE_RIGHTLEFT);
; 1738 : 	CursorRead(resizeLeftRight);*/
; 1739 : 	currentCursor = arrow;

	adrp        x9,|?currentCursor@@3PEAU_cursor_@@EA|
	adrp        x8,|?arrow@@3PEAU_cursor_@@EA|
	ldr         x8,[x8,PageOffset(|?arrow@@3PEAU_cursor_@@EA|)]
	str         x8,[x9,PageOffset(|?currentCursor@@3PEAU_cursor_@@EA|)]

; 1740 : 	CursorStoreBack(canv, currentCursor, 0, 0);

	mov         w3,#0
	mov         w2,#0
	adrp        x8,|?currentCursor@@3PEAU_cursor_@@EA|
	ldr         x1,[x8,PageOffset(|?currentCursor@@3PEAU_cursor_@@EA|)]
	ldr         x0,[sp,#0x10]
	bl          |?CursorStoreBack@@YAXPEAU_ChCanvas_@@PEAU_cursor_@@II@Z|

; 1741 : 
; 1742 : 	/* Open all required device file */
; 1743 : 	mouse_fd = _KeOpenFile("/dev/mice", FILE_OPEN_READ_ONLY);

	mov         w1,#2
	adrp        x8,|$SG8981|
	add         x0,x8,PageOffset(|$SG8981|)
	bl          _KeOpenFile
	mov         w0,w0
	adrp        x8,|?mouse_fd@@3HA|
	str         w0,[x8,PageOffset(|?mouse_fd@@3HA|)]

; 1744 : 	kybrd_fd = _KeOpenFile("/dev/kybrd", FILE_OPEN_READ_ONLY);

	mov         w1,#2
	adrp        x8,|$SG8982|
	add         x0,x8,PageOffset(|$SG8982|)
	bl          _KeOpenFile
	mov         w0,w0
	adrp        x8,|?kybrd_fd@@3HA|
	str         w0,[x8,PageOffset(|?kybrd_fd@@3HA|)]

; 1745 : 
; 1746 : 	AuInputMessage mice_input;
; 1747 : 	AuInputMessage kybrd_input;
; 1748 : 	memset(&mice_input, 0, sizeof(AuInputMessage));

	mov         x2,#0x20
	mov         w1,#0
	add         x0,sp,#0x128
	bl          memset

; 1749 : 	memset(&kybrd_input, 0, sizeof(AuInputMessage));

	mov         x2,#0x20
	mov         w1,#0
	add         x0,sp,#0x200
	bl          memset

; 1750 : 	postbox_fd = _KeOpenFile("/dev/postbox", FILE_OPEN_READ_ONLY);

	mov         w1,#2
	adrp        x8,|$SG8983|
	add         x0,x8,PageOffset(|$SG8983|)
	bl          _KeOpenFile
	mov         w0,w0
	adrp        x8,|?postbox_fd@@3HA|
	str         w0,[x8,PageOffset(|?postbox_fd@@3HA|)]

; 1751 : 	_KePrint("postboxfd : %d \r\n", postbox_fd);

	adrp        x8,|?postbox_fd@@3HA|
	ldr         w1,[x8,PageOffset(|?postbox_fd@@3HA|)]
	adrp        x8,|$SG8984|
	add         x0,x8,PageOffset(|$SG8984|)
	bl          _KePrint

; 1752 : 
; 1753 : 	
; 1754 : //	postbox_fd = canv->graphics_fd;
; 1755 : 
; 1756 : 	_KeFileIoControl(postbox_fd, POSTBOX_CREATE_ROOT, NULL);

	mov         x2,#0
	mov         w1,#0x195
	adrp        x8,|?postbox_fd@@3HA|
	ldr         w0,[x8,PageOffset(|?postbox_fd@@3HA|)]
	bl          _KeFileIoControl

; 1757 : 
; 1758 : 	mouseLastHovered = NULL;

	adrp        x9,|?mouseLastHovered@@3PEAU_win_@@EA|
	mov         x8,#0
	str         x8,[x9,PageOffset(|?mouseLastHovered@@3PEAU_win_@@EA|)]

; 1759 : 
; 1760 : 	PostEvent event;
; 1761 : 	uint64_t frame_tick = 0;

	mov         x8,#0
	str         x8,[sp,#0x278]

; 1762 : 	uint64_t diff_tick = 0;

	mov         x8,#0
	str         x8,[sp,#0x280]

; 1763 : 	uint64_t last_click_time = 0;

	mov         x8,#0
	str         x8,[sp,#0x288]

; 1764 : 	uint64_t last_redraw = 0;

	mov         x8,#0
	str         x8,[sp,#0x290]

; 1765 : 
; 1766 : 	int proc = _KeCreateProcess(0, "xelnch");

	adrp        x8,|$SG8985|
	add         x1,x8,PageOffset(|$SG8985|)
	mov         w0,#0
	bl          _KeCreateProcess
	mov         w0,w0
	str         w0,[sp,#0x34]

; 1767 : 	_KeProcessLoadExec(proc, "/xelnch.exe", 0, NULL);

	mov         x3,#0
	mov         w2,#0
	adrp        x8,|$SG8986|
	add         x1,x8,PageOffset(|$SG8986|)
	ldr         w0,[sp,#0x34]
	bl          _KeProcessLoadExec

; 1768 : 
; 1769 : 	_KeProcessSleep(100);

	mov         x0,#0x64
	bl          _KeProcessSleep

; 1770 : 	proc = _KeCreateProcess(0, "nmdapha");

	adrp        x8,|$SG8987|
	add         x1,x8,PageOffset(|$SG8987|)
	mov         w0,#0
	bl          _KeCreateProcess
	mov         w0,w0
	str         w0,[sp,#0x34]

; 1771 : 	_KeProcessLoadExec(proc, "/nmdapha.exe", NULL, NULL);

	mov         x3,#0
	mov         w2,#0
	adrp        x8,|$SG8988|
	add         x1,x8,PageOffset(|$SG8988|)
	ldr         w0,[sp,#0x34]
	bl          _KeProcessLoadExec

; 1772 : 
; 1773 : 	//_KeProcessSleep(200);
; 1774 : 	/*int proc = _KeCreateProcess(0, "file");
; 1775 : 	_KeProcessLoadExec(proc, "/file.exe", NULL, NULL);
; 1776 : 
; 1777 : 	_KeProcessSleep(100);
; 1778 : 	proc = _KeCreateProcess(0, "calc");
; 1779 : 	_KeProcessLoadExec(proc, "/calc.exe", NULL, NULL);*/
; 1780 : 
; 1781 : 	/* launch the session manager directly from here */
; 1782 : #ifdef ARCH_X64
; 1783 : 	int proc = _KeCreateProcess(0, "xelnch");
; 1784 : 	_KeProcessLoadExec(proc, "/xelnch.exe", 0, NULL);
; 1785 : 
; 1786 : 	_KeProcessSleep(100);
; 1787 : 
; 1788 : 	proc = _KeCreateProcess(0, "nmdapha");
; 1789 : 	_KeProcessLoadExec(proc, "/nmdapha.exe", 0, NULL);
; 1790 : #endif
; 1791 : 
; 1792 : 
; 1793 : 
; 1794 : 	_KePrint("Postbox created for deodhai \r\n");

	adrp        x8,|$SG8989|
	add         x0,x8,PageOffset(|$SG8989|)
	bl          _KePrint
|$LN8@main|

; 1795 : 	while (1) {

	mov         w8,#1
	cmp         w8,#0
	beq         |$LN9@main|

; 1796 : #ifdef ARCH_X64
; 1797 : 		unsigned long frameTime = DeodhaiTimeSince(last_redraw);
; 1798 : 		if (frameTime > 15) {
; 1799 : 			ComposeFrame(canv);
; 1800 : 			last_redraw = DeodhaiCurrentTime();
; 1801 : 			frameTime = 0;
; 1802 : 		}
; 1803 : #elif ARCH_ARM64
; 1804 : 		ComposeFrame(canv);

	ldr         x0,[sp,#0x10]
	bl          |?ComposeFrame@@YAXPEAU_ChCanvas_@@@Z|

; 1805 : #endif
; 1806 : 		
; 1807 : 		_KeFileIoControl(postbox_fd, POSTBOX_GET_EVENT_ROOT, &event);

	add         x2,sp,#0x148
	mov         w1,#0x196
	adrp        x8,|?postbox_fd@@3HA|
	ldr         w0,[x8,PageOffset(|?postbox_fd@@3HA|)]
	bl          _KeFileIoControl

; 1808 : 
; 1809 : 		_KeReadFile(mouse_fd, &mice_input, sizeof(AuInputMessage));

	mov         x2,#0x20
	add         x1,sp,#0x128
	adrp        x8,|?mouse_fd@@3HA|
	ldr         w0,[x8,PageOffset(|?mouse_fd@@3HA|)]
	bl          _KeReadFile

; 1810 : 
; 1811 : 
; 1812 : 		_KeReadFile(kybrd_fd, &kybrd_input, sizeof(AuInputMessage));

	mov         x2,#0x20
	add         x1,sp,#0x200
	adrp        x8,|?kybrd_fd@@3HA|
	ldr         w0,[x8,PageOffset(|?kybrd_fd@@3HA|)]
	bl          _KeReadFile

; 1813 : 
; 1814 : 		
; 1815 : 		
; 1816 : 		if (mice_input.type == AU_INPUT_MOUSE) {

	ldrb        w8,[sp,#0x128]
	mov         w8,w8
	cmp         w8,#1
	bne         |$LN55@main|

; 1817 : 			int32_t cursor_x = mice_input.xpos;

	ldr         w8,[sp,#0x12C]
	str         w8,[sp,#0xE0]

; 1818 : 			int32_t cursor_y = mice_input.ypos;

	ldr         w8,[sp,#0x130]
	str         w8,[sp,#0xE4]

; 1819 : 
; 1820 : #ifdef ARCH_X64
; 1821 : 			double scale_x, scale_y;
; 1822 : 			if (mice_input.code4 != 0){
; 1823 : 				/*scaling is needed*/
; 1824 : 				scale_x = (double)canvas->screenWidth / (double)mice_input.code4;
; 1825 : 				cursor_x = mice_input.xpos * (double)scale_x;
; 1826 : 				scale_y = (double)canvas->screenHeight / (double)mice_input.code4;
; 1827 : 				cursor_y = mice_input.ypos * (double)scale_y;
; 1828 : 			}
; 1829 : #endif
; 1830 : 			currentCursor->xpos = cursor_x;

	adrp        x8,|?currentCursor@@3PEAU_cursor_@@EA|
	ldr         x8,[x8,PageOffset(|?currentCursor@@3PEAU_cursor_@@EA|)]
	add         x9,x8,#0x20
	ldr         w8,[sp,#0xE0]
	str         w8,[x9]

; 1831 : 			currentCursor->ypos = cursor_y;

	adrp        x8,|?currentCursor@@3PEAU_cursor_@@EA|
	ldr         x8,[x8,PageOffset(|?currentCursor@@3PEAU_cursor_@@EA|)]
	add         x9,x8,#0x24
	ldr         w8,[sp,#0xE4]
	str         w8,[x9]

; 1832 : 			int button = mice_input.button_state;

	ldrb        w8,[sp,#0x134]
	mov         w8,w8
	str         w8,[sp,#0x74]

; 1833 : 		
; 1834 : 			if ((currentCursor->xpos) <= 0)

	adrp        x8,|?currentCursor@@3PEAU_cursor_@@EA|
	ldr         x8,[x8,PageOffset(|?currentCursor@@3PEAU_cursor_@@EA|)]
	add         x8,x8,#0x20
	ldr         w8,[x8]
	cmp         w8,#0
	bgt         |$LN56@main|

; 1835 : 				currentCursor->xpos = 0;

	adrp        x8,|?currentCursor@@3PEAU_cursor_@@EA|
	ldr         x8,[x8,PageOffset(|?currentCursor@@3PEAU_cursor_@@EA|)]
	add         x9,x8,#0x20
	mov         w8,#0
	str         w8,[x9]
|$LN56@main|

; 1836 : 
; 1837 : 			if ((currentCursor->ypos) <= 0)

	adrp        x8,|?currentCursor@@3PEAU_cursor_@@EA|
	ldr         x8,[x8,PageOffset(|?currentCursor@@3PEAU_cursor_@@EA|)]
	add         x8,x8,#0x24
	ldr         w8,[x8]
	cmp         w8,#0
	bgt         |$LN57@main|

; 1838 : 				currentCursor->ypos = 0;

	adrp        x8,|?currentCursor@@3PEAU_cursor_@@EA|
	ldr         x8,[x8,PageOffset(|?currentCursor@@3PEAU_cursor_@@EA|)]
	add         x9,x8,#0x24
	mov         w8,#0
	str         w8,[x9]
|$LN57@main|

; 1839 : 
; 1840 : 			if ((currentCursor->xpos + 24) >= canvas->screenWidth)

	adrp        x8,|?currentCursor@@3PEAU_cursor_@@EA|
	ldr         x8,[x8,PageOffset(|?currentCursor@@3PEAU_cursor_@@EA|)]
	add         x8,x8,#0x20
	ldr         w8,[x8]
	add         w9,w8,#0x18
	adrp        x8,|?canvas@@3PEAU_ChCanvas_@@EA|
	ldr         x8,[x8,PageOffset(|?canvas@@3PEAU_ChCanvas_@@EA|)]
	add         x8,x8,#4
	ldr         w8,[x8]
	cmp         w9,w8
	blo         |$LN58@main|

; 1841 : 				currentCursor->xpos = canvas->screenWidth - 24;

	adrp        x8,|?canvas@@3PEAU_ChCanvas_@@EA|
	ldr         x8,[x8,PageOffset(|?canvas@@3PEAU_ChCanvas_@@EA|)]
	add         x8,x8,#4
	ldr         w8,[x8]
	sub         w9,w8,#0x18
	adrp        x8,|?currentCursor@@3PEAU_cursor_@@EA|
	ldr         x8,[x8,PageOffset(|?currentCursor@@3PEAU_cursor_@@EA|)]
	add         x8,x8,#0x20
	str         w9,[x8]
|$LN58@main|

; 1842 : 
; 1843 : 			if ((currentCursor->ypos + 24) >= canvas->screenHeight)

	adrp        x8,|?currentCursor@@3PEAU_cursor_@@EA|
	ldr         x8,[x8,PageOffset(|?currentCursor@@3PEAU_cursor_@@EA|)]
	add         x8,x8,#0x24
	ldr         w8,[x8]
	add         w9,w8,#0x18
	adrp        x8,|?canvas@@3PEAU_ChCanvas_@@EA|
	ldr         x8,[x8,PageOffset(|?canvas@@3PEAU_ChCanvas_@@EA|)]
	add         x8,x8,#8
	ldr         w8,[x8]
	cmp         w9,w8
	blo         |$LN59@main|

; 1844 : 				currentCursor->ypos = canvas->screenHeight - 24;

	adrp        x8,|?canvas@@3PEAU_ChCanvas_@@EA|
	ldr         x8,[x8,PageOffset(|?canvas@@3PEAU_ChCanvas_@@EA|)]
	add         x8,x8,#8
	ldr         w8,[x8]
	sub         w9,w8,#0x18
	adrp        x8,|?currentCursor@@3PEAU_cursor_@@EA|
	ldr         x8,[x8,PageOffset(|?currentCursor@@3PEAU_cursor_@@EA|)]
	add         x8,x8,#0x24
	str         w9,[x8]
|$LN59@main|

; 1845 : 
; 1846 : 			if (currentCursor->xpos >= canvas->screenWidth)

	adrp        x8,|?currentCursor@@3PEAU_cursor_@@EA|
	ldr         x8,[x8,PageOffset(|?currentCursor@@3PEAU_cursor_@@EA|)]
	add         x10,x8,#0x20
	adrp        x8,|?canvas@@3PEAU_ChCanvas_@@EA|
	ldr         x8,[x8,PageOffset(|?canvas@@3PEAU_ChCanvas_@@EA|)]
	add         x8,x8,#4
	ldr         w9,[x8]
	ldr         w8,[x10]
	cmp         w8,w9
	blo         |$LN60@main|

; 1847 : 				currentCursor->xpos = 0;

	adrp        x8,|?currentCursor@@3PEAU_cursor_@@EA|
	ldr         x8,[x8,PageOffset(|?currentCursor@@3PEAU_cursor_@@EA|)]
	add         x9,x8,#0x20
	mov         w8,#0
	str         w8,[x9]
|$LN60@main|

; 1848 : 
; 1849 : 			if (currentCursor->ypos >= canvas->screenHeight)

	adrp        x8,|?currentCursor@@3PEAU_cursor_@@EA|
	ldr         x8,[x8,PageOffset(|?currentCursor@@3PEAU_cursor_@@EA|)]
	add         x10,x8,#0x24
	adrp        x8,|?canvas@@3PEAU_ChCanvas_@@EA|
	ldr         x8,[x8,PageOffset(|?canvas@@3PEAU_ChCanvas_@@EA|)]
	add         x8,x8,#8
	ldr         w9,[x8]
	ldr         w8,[x10]
	cmp         w8,w9
	blo         |$LN61@main|

; 1850 : 				currentCursor->ypos = 0;

	adrp        x8,|?currentCursor@@3PEAU_cursor_@@EA|
	ldr         x8,[x8,PageOffset(|?currentCursor@@3PEAU_cursor_@@EA|)]
	add         x9,x8,#0x24
	mov         w8,#0
	str         w8,[x9]
|$LN61@main|

; 1851 : 
; 1852 : 		    DeodhaiWindowCheckDraggable(currentCursor->xpos, currentCursor->ypos, button);

	adrp        x8,|?currentCursor@@3PEAU_cursor_@@EA|
	ldr         x8,[x8,PageOffset(|?currentCursor@@3PEAU_cursor_@@EA|)]
	add         x9,x8,#0x24
	adrp        x8,|?currentCursor@@3PEAU_cursor_@@EA|
	ldr         x8,[x8,PageOffset(|?currentCursor@@3PEAU_cursor_@@EA|)]
	add         x8,x8,#0x20
	ldr         w2,[sp,#0x74]
	ldr         w1,[x9]
	ldr         w0,[x8]
	bl          |?DeodhaiWindowCheckDraggable@@YAXHHH@Z|

; 1853 : 
; 1854 : 			/*
; 1855 : 			 * TODO: bug fixing
; 1856 : 			 */
; 1857 : #ifdef ARCH_X64
; 1858 : 			if (button){
; 1859 : 				if (DeodhaiClickTimeSince(last_click_time) < 400) {
; 1860 : 					button = DEODHAI_MESSAGE_MOUSE_DBLCLK;
; 1861 : 					last_click_time = 0;
; 1862 : 				}
; 1863 : 				else {
; 1864 : 					last_click_time = DeodhaiClickCurrentTime();
; 1865 : 				}
; 1866 : 			}
; 1867 : #endif
; 1868 : 			if (_window_broadcast_mouse_) 

	adrp        x8,|?_window_broadcast_mouse_@@3DA|
	ldrsb       w8,[x8,PageOffset(|?_window_broadcast_mouse_@@3DA|)]
	mov         w8,w8
	cmp         w8,#0
	beq         |$LN62@main|

; 1869 : 				DeodhaiBroadcastMouse(currentCursor->xpos, currentCursor->ypos, button);

	adrp        x8,|?currentCursor@@3PEAU_cursor_@@EA|
	ldr         x8,[x8,PageOffset(|?currentCursor@@3PEAU_cursor_@@EA|)]
	add         x9,x8,#0x24
	adrp        x8,|?currentCursor@@3PEAU_cursor_@@EA|
	ldr         x8,[x8,PageOffset(|?currentCursor@@3PEAU_cursor_@@EA|)]
	add         x8,x8,#0x20
	ldr         w2,[sp,#0x74]
	ldr         w1,[x9]
	ldr         w0,[x8]
	bl          |?DeodhaiBroadcastMouse@@YAXHHH@Z|
|$LN62@main|

; 1870 : 			
; 1871 : 
; 1872 : 			
; 1873 : 			/* ensure clipping within the screen */
; 1874 : 			if (currentCursor->xpos <= 0)

	adrp        x8,|?currentCursor@@3PEAU_cursor_@@EA|
	ldr         x8,[x8,PageOffset(|?currentCursor@@3PEAU_cursor_@@EA|)]
	add         x8,x8,#0x20
	ldr         w8,[x8]
	cmp         w8,#0
	bgt         |$LN63@main|

; 1875 : 				currentCursor->xpos = 0;

	adrp        x8,|?currentCursor@@3PEAU_cursor_@@EA|
	ldr         x8,[x8,PageOffset(|?currentCursor@@3PEAU_cursor_@@EA|)]
	add         x9,x8,#0x20
	mov         w8,#0
	str         w8,[x9]
|$LN63@main|

; 1876 : 			if (currentCursor->ypos <= 0)

	adrp        x8,|?currentCursor@@3PEAU_cursor_@@EA|
	ldr         x8,[x8,PageOffset(|?currentCursor@@3PEAU_cursor_@@EA|)]
	add         x8,x8,#0x24
	ldr         w8,[x8]
	cmp         w8,#0
	bgt         |$LN64@main|

; 1877 : 				currentCursor->ypos = 0;

	adrp        x8,|?currentCursor@@3PEAU_cursor_@@EA|
	ldr         x8,[x8,PageOffset(|?currentCursor@@3PEAU_cursor_@@EA|)]
	add         x9,x8,#0x24
	mov         w8,#0
	str         w8,[x9]
|$LN64@main|

; 1878 : 
; 1879 : 
; 1880 : 			if (currentCursor->xpos + currentCursor->width >= screen_w)

	adrp        x8,|?currentCursor@@3PEAU_cursor_@@EA|
	ldr         x8,[x8,PageOffset(|?currentCursor@@3PEAU_cursor_@@EA|)]
	add         x9,x8,#0x20
	adrp        x8,|?currentCursor@@3PEAU_cursor_@@EA|
	ldr         x8,[x8,PageOffset(|?currentCursor@@3PEAU_cursor_@@EA|)]
	add         x8,x8,#0x10
	ldr         w9,[x9]
	ldr         w8,[x8]
	add         w9,w9,w8
	ldr         w8,[sp]
	cmp         w9,w8
	blt         |$LN65@main|

; 1881 : 				currentCursor->xpos = screen_w - currentCursor->width;

	adrp        x8,|?currentCursor@@3PEAU_cursor_@@EA|
	ldr         x8,[x8,PageOffset(|?currentCursor@@3PEAU_cursor_@@EA|)]
	add         x8,x8,#0x10
	ldr         w9,[sp]
	ldr         w8,[x8]
	sub         w9,w9,w8
	adrp        x8,|?currentCursor@@3PEAU_cursor_@@EA|
	ldr         x8,[x8,PageOffset(|?currentCursor@@3PEAU_cursor_@@EA|)]
	add         x8,x8,#0x20
	str         w9,[x8]
|$LN65@main|

; 1882 : 			if (currentCursor->ypos + currentCursor->height >= screen_h)

	adrp        x8,|?currentCursor@@3PEAU_cursor_@@EA|
	ldr         x8,[x8,PageOffset(|?currentCursor@@3PEAU_cursor_@@EA|)]
	add         x9,x8,#0x24
	adrp        x8,|?currentCursor@@3PEAU_cursor_@@EA|
	ldr         x8,[x8,PageOffset(|?currentCursor@@3PEAU_cursor_@@EA|)]
	add         x8,x8,#0x14
	ldr         w9,[x9]
	ldr         w8,[x8]
	add         w9,w9,w8
	ldr         w8,[sp,#4]
	cmp         w9,w8
	blt         |$LN66@main|

; 1883 : 				currentCursor->ypos = screen_h - currentCursor->height;

	adrp        x8,|?currentCursor@@3PEAU_cursor_@@EA|
	ldr         x8,[x8,PageOffset(|?currentCursor@@3PEAU_cursor_@@EA|)]
	add         x8,x8,#0x14
	ldr         w9,[sp,#4]
	ldr         w8,[x8]
	sub         w9,w9,w8
	adrp        x8,|?currentCursor@@3PEAU_cursor_@@EA|
	ldr         x8,[x8,PageOffset(|?currentCursor@@3PEAU_cursor_@@EA|)]
	add         x8,x8,#0x24
	str         w9,[x8]
|$LN66@main|

; 1884 : 			
; 1885 : 			memset(&mice_input, 0, sizeof(AuInputMessage));

	mov         x2,#0x20
	mov         w1,#0
	add         x0,sp,#0x128
	bl          memset
|$LN55@main|

; 1886 : 		}
; 1887 : 
; 1888 : 		/*
; 1889 : 		 * Handle touch screen events
; 1890 : 		 */
; 1891 : 		if (mice_input.type == AU_INPUT_TOUCH) {

	ldrb        w8,[sp,#0x128]
	mov         w8,w8
	cmp         w8,#3
	bne         |$LN67@main|

; 1892 : 			int32_t cursor_x = mice_input.xpos;

	ldr         w8,[sp,#0x12C]
	str         w8,[sp,#0x7C]

; 1893 : 			int32_t cursor_y = mice_input.ypos;

	ldr         w8,[sp,#0x130]
	str         w8,[sp,#0x78]

; 1894 : 
; 1895 : #ifdef ARCH_X64
; 1896 : 			double scale_x, scale_y;
; 1897 : 			if (mice_input.code4 != 0) {
; 1898 : 				/*scaling is needed*/
; 1899 : 				scale_x = (double)canvas->screenWidth / (double)mice_input.code4;
; 1900 : 				cursor_x = mice_input.xpos * (double)scale_x;
; 1901 : 				scale_y = (double)canvas->screenHeight / (double)mice_input.code4;
; 1902 : 				cursor_y = mice_input.ypos * (double)scale_y;
; 1903 : 			}
; 1904 : #endif
; 1905 : 			currentCursor->xpos = cursor_x;

	adrp        x8,|?currentCursor@@3PEAU_cursor_@@EA|
	ldr         x8,[x8,PageOffset(|?currentCursor@@3PEAU_cursor_@@EA|)]
	add         x9,x8,#0x20
	ldr         w8,[sp,#0x7C]
	str         w8,[x9]

; 1906 : 			currentCursor->ypos = cursor_y;

	adrp        x8,|?currentCursor@@3PEAU_cursor_@@EA|
	ldr         x8,[x8,PageOffset(|?currentCursor@@3PEAU_cursor_@@EA|)]
	add         x9,x8,#0x24
	ldr         w8,[sp,#0x78]
	str         w8,[x9]

; 1907 : 
; 1908 : 			if ((currentCursor->xpos) <= 0)

	adrp        x8,|?currentCursor@@3PEAU_cursor_@@EA|
	ldr         x8,[x8,PageOffset(|?currentCursor@@3PEAU_cursor_@@EA|)]
	add         x8,x8,#0x20
	ldr         w8,[x8]
	cmp         w8,#0
	bgt         |$LN68@main|

; 1909 : 				currentCursor->xpos = 0;

	adrp        x8,|?currentCursor@@3PEAU_cursor_@@EA|
	ldr         x8,[x8,PageOffset(|?currentCursor@@3PEAU_cursor_@@EA|)]
	add         x9,x8,#0x20
	mov         w8,#0
	str         w8,[x9]
|$LN68@main|

; 1910 : 
; 1911 : 			if ((currentCursor->ypos) <= 0)

	adrp        x8,|?currentCursor@@3PEAU_cursor_@@EA|
	ldr         x8,[x8,PageOffset(|?currentCursor@@3PEAU_cursor_@@EA|)]
	add         x8,x8,#0x24
	ldr         w8,[x8]
	cmp         w8,#0
	bgt         |$LN69@main|

; 1912 : 				currentCursor->ypos = 0;

	adrp        x8,|?currentCursor@@3PEAU_cursor_@@EA|
	ldr         x8,[x8,PageOffset(|?currentCursor@@3PEAU_cursor_@@EA|)]
	add         x9,x8,#0x24
	mov         w8,#0
	str         w8,[x9]
|$LN69@main|

; 1913 : 
; 1914 : 			if ((currentCursor->xpos + 24) >= canvas->screenWidth)

	adrp        x8,|?currentCursor@@3PEAU_cursor_@@EA|
	ldr         x8,[x8,PageOffset(|?currentCursor@@3PEAU_cursor_@@EA|)]
	add         x8,x8,#0x20
	ldr         w8,[x8]
	add         w9,w8,#0x18
	adrp        x8,|?canvas@@3PEAU_ChCanvas_@@EA|
	ldr         x8,[x8,PageOffset(|?canvas@@3PEAU_ChCanvas_@@EA|)]
	add         x8,x8,#4
	ldr         w8,[x8]
	cmp         w9,w8
	blo         |$LN70@main|

; 1915 : 				currentCursor->xpos = canvas->screenWidth - 24;

	adrp        x8,|?canvas@@3PEAU_ChCanvas_@@EA|
	ldr         x8,[x8,PageOffset(|?canvas@@3PEAU_ChCanvas_@@EA|)]
	add         x8,x8,#4
	ldr         w8,[x8]
	sub         w9,w8,#0x18
	adrp        x8,|?currentCursor@@3PEAU_cursor_@@EA|
	ldr         x8,[x8,PageOffset(|?currentCursor@@3PEAU_cursor_@@EA|)]
	add         x8,x8,#0x20
	str         w9,[x8]
|$LN70@main|

; 1916 : 
; 1917 : 			if ((currentCursor->ypos + 24) >= canvas->screenHeight)

	adrp        x8,|?currentCursor@@3PEAU_cursor_@@EA|
	ldr         x8,[x8,PageOffset(|?currentCursor@@3PEAU_cursor_@@EA|)]
	add         x8,x8,#0x24
	ldr         w8,[x8]
	add         w9,w8,#0x18
	adrp        x8,|?canvas@@3PEAU_ChCanvas_@@EA|
	ldr         x8,[x8,PageOffset(|?canvas@@3PEAU_ChCanvas_@@EA|)]
	add         x8,x8,#8
	ldr         w8,[x8]
	cmp         w9,w8
	blo         |$LN71@main|

; 1918 : 				currentCursor->ypos = canvas->screenHeight - 24;

	adrp        x8,|?canvas@@3PEAU_ChCanvas_@@EA|
	ldr         x8,[x8,PageOffset(|?canvas@@3PEAU_ChCanvas_@@EA|)]
	add         x8,x8,#8
	ldr         w8,[x8]
	sub         w9,w8,#0x18
	adrp        x8,|?currentCursor@@3PEAU_cursor_@@EA|
	ldr         x8,[x8,PageOffset(|?currentCursor@@3PEAU_cursor_@@EA|)]
	add         x8,x8,#0x24
	str         w9,[x8]
|$LN71@main|

; 1919 : 
; 1920 : 			if (currentCursor->xpos >= canvas->screenWidth)

	adrp        x8,|?currentCursor@@3PEAU_cursor_@@EA|
	ldr         x8,[x8,PageOffset(|?currentCursor@@3PEAU_cursor_@@EA|)]
	add         x10,x8,#0x20
	adrp        x8,|?canvas@@3PEAU_ChCanvas_@@EA|
	ldr         x8,[x8,PageOffset(|?canvas@@3PEAU_ChCanvas_@@EA|)]
	add         x8,x8,#4
	ldr         w9,[x8]
	ldr         w8,[x10]
	cmp         w8,w9
	blo         |$LN72@main|

; 1921 : 				currentCursor->xpos = 0;

	adrp        x8,|?currentCursor@@3PEAU_cursor_@@EA|
	ldr         x8,[x8,PageOffset(|?currentCursor@@3PEAU_cursor_@@EA|)]
	add         x9,x8,#0x20
	mov         w8,#0
	str         w8,[x9]
|$LN72@main|

; 1922 : 
; 1923 : 			if (currentCursor->ypos >= canvas->screenHeight)

	adrp        x8,|?currentCursor@@3PEAU_cursor_@@EA|
	ldr         x8,[x8,PageOffset(|?currentCursor@@3PEAU_cursor_@@EA|)]
	add         x10,x8,#0x24
	adrp        x8,|?canvas@@3PEAU_ChCanvas_@@EA|
	ldr         x8,[x8,PageOffset(|?canvas@@3PEAU_ChCanvas_@@EA|)]
	add         x8,x8,#8
	ldr         w9,[x8]
	ldr         w8,[x10]
	cmp         w8,w9
	blo         |$LN73@main|

; 1924 : 				currentCursor->ypos = 0;

	adrp        x8,|?currentCursor@@3PEAU_cursor_@@EA|
	ldr         x8,[x8,PageOffset(|?currentCursor@@3PEAU_cursor_@@EA|)]
	add         x9,x8,#0x24
	mov         w8,#0
	str         w8,[x9]
|$LN73@main|

; 1925 : 
; 1926 : 			DeodhaiBroadcastTouch(cursor_x, cursor_y);

	ldr         w1,[sp,#0x78]
	ldr         w0,[sp,#0x7C]
	bl          |?DeodhaiBroadcastTouch@@YAXHH@Z|

; 1927 : 			/* ensure clipping within the screen */
; 1928 : 			if (currentCursor->xpos <= 0)

	adrp        x8,|?currentCursor@@3PEAU_cursor_@@EA|
	ldr         x8,[x8,PageOffset(|?currentCursor@@3PEAU_cursor_@@EA|)]
	add         x8,x8,#0x20
	ldr         w8,[x8]
	cmp         w8,#0
	bgt         |$LN74@main|

; 1929 : 				currentCursor->xpos = 0;

	adrp        x8,|?currentCursor@@3PEAU_cursor_@@EA|
	ldr         x8,[x8,PageOffset(|?currentCursor@@3PEAU_cursor_@@EA|)]
	add         x9,x8,#0x20
	mov         w8,#0
	str         w8,[x9]
|$LN74@main|

; 1930 : 			if (currentCursor->ypos <= 0)

	adrp        x8,|?currentCursor@@3PEAU_cursor_@@EA|
	ldr         x8,[x8,PageOffset(|?currentCursor@@3PEAU_cursor_@@EA|)]
	add         x8,x8,#0x24
	ldr         w8,[x8]
	cmp         w8,#0
	bgt         |$LN75@main|

; 1931 : 				currentCursor->ypos = 0;

	adrp        x8,|?currentCursor@@3PEAU_cursor_@@EA|
	ldr         x8,[x8,PageOffset(|?currentCursor@@3PEAU_cursor_@@EA|)]
	add         x9,x8,#0x24
	mov         w8,#0
	str         w8,[x9]
|$LN75@main|

; 1932 : 
; 1933 : 
; 1934 : 			if (currentCursor->xpos + currentCursor->width >= screen_w)

	adrp        x8,|?currentCursor@@3PEAU_cursor_@@EA|
	ldr         x8,[x8,PageOffset(|?currentCursor@@3PEAU_cursor_@@EA|)]
	add         x9,x8,#0x20
	adrp        x8,|?currentCursor@@3PEAU_cursor_@@EA|
	ldr         x8,[x8,PageOffset(|?currentCursor@@3PEAU_cursor_@@EA|)]
	add         x8,x8,#0x10
	ldr         w9,[x9]
	ldr         w8,[x8]
	add         w9,w9,w8
	ldr         w8,[sp]
	cmp         w9,w8
	blt         |$LN76@main|

; 1935 : 				currentCursor->xpos = screen_w - currentCursor->width;

	adrp        x8,|?currentCursor@@3PEAU_cursor_@@EA|
	ldr         x8,[x8,PageOffset(|?currentCursor@@3PEAU_cursor_@@EA|)]
	add         x8,x8,#0x10
	ldr         w9,[sp]
	ldr         w8,[x8]
	sub         w9,w9,w8
	adrp        x8,|?currentCursor@@3PEAU_cursor_@@EA|
	ldr         x8,[x8,PageOffset(|?currentCursor@@3PEAU_cursor_@@EA|)]
	add         x8,x8,#0x20
	str         w9,[x8]
|$LN76@main|

; 1936 : 			if (currentCursor->ypos + currentCursor->height >= screen_h)

	adrp        x8,|?currentCursor@@3PEAU_cursor_@@EA|
	ldr         x8,[x8,PageOffset(|?currentCursor@@3PEAU_cursor_@@EA|)]
	add         x9,x8,#0x24
	adrp        x8,|?currentCursor@@3PEAU_cursor_@@EA|
	ldr         x8,[x8,PageOffset(|?currentCursor@@3PEAU_cursor_@@EA|)]
	add         x8,x8,#0x14
	ldr         w9,[x9]
	ldr         w8,[x8]
	add         w9,w9,w8
	ldr         w8,[sp,#4]
	cmp         w9,w8
	blt         |$LN77@main|

; 1937 : 				currentCursor->ypos = screen_h - currentCursor->height;

	adrp        x8,|?currentCursor@@3PEAU_cursor_@@EA|
	ldr         x8,[x8,PageOffset(|?currentCursor@@3PEAU_cursor_@@EA|)]
	add         x8,x8,#0x14
	ldr         w9,[sp,#4]
	ldr         w8,[x8]
	sub         w9,w9,w8
	adrp        x8,|?currentCursor@@3PEAU_cursor_@@EA|
	ldr         x8,[x8,PageOffset(|?currentCursor@@3PEAU_cursor_@@EA|)]
	add         x8,x8,#0x24
	str         w9,[x8]
|$LN77@main|

; 1938 : 
; 1939 : 			memset(&mice_input, 0, sizeof(AuInputMessage));

	mov         x2,#0x20
	mov         w1,#0
	add         x0,sp,#0x128
	bl          memset
|$LN67@main|

; 1940 : 		}
; 1941 : 
; 1942 : 		if (kybrd_input.type == AU_INPUT_KEYBOARD) {

	ldrb        w8,[sp,#0x200]
	mov         w8,w8
	cmp         w8,#2
	bne         |$LN78@main|

; 1943 : 			_KePrint("[Deodhai]: keyinput : %x \r\n", kybrd_input.code);

	ldr         w1,[sp,#0x210]
	adrp        x8,|$SG9014|
	add         x0,x8,PageOffset(|$SG9014|)
	bl          _KePrint

; 1944 : 			DeodhaiBroadcastKey(kybrd_input.code);

	ldr         w0,[sp,#0x210]
	bl          |?DeodhaiBroadcastKey@@YAXH@Z|

; 1945 : 			memset(&kybrd_input, 0, sizeof(AuInputMessage));

	mov         x2,#0x20
	mov         w1,#0
	add         x0,sp,#0x200
	bl          memset
|$LN78@main|

; 1946 : 		}
; 1947 : 
; 1948 : 		if (event.type == DEODHAI_MESSAGE_CREATEWIN) {

	ldrb        w8,[sp,#0x148]
	mov         w8,w8
	cmp         w8,#0x32
	bne         |$LN79@main|

; 1949 : 			int x = event.dword;

	ldr         w8,[sp,#0x150]
	str         w8,[sp,#0x58]

; 1950 : 			int y = event.dword2;

	ldr         w8,[sp,#0x154]
	str         w8,[sp,#0x80]

; 1951 : 			int w = event.dword3;

	ldr         w8,[sp,#0x158]
	str         w8,[sp,#0xEC]

; 1952 : 			int h = event.dword4;

	ldr         w8,[sp,#0x15C]
	str         w8,[sp,#0xE8]

; 1953 : 			_KePrint("[Deodhai]: create win message received \r\n");

	adrp        x8,|$SG9016|
	add         x0,x8,PageOffset(|$SG9016|)
	bl          _KePrint

; 1954 : 			_KePrint("[Deodhai]: x : %d y : %d \r\n", x, y);

	ldr         w2,[sp,#0x80]
	ldr         w1,[sp,#0x58]
	adrp        x8,|$SG9017|
	add         x0,x8,PageOffset(|$SG9017|)
	bl          _KePrint

; 1955 : 			_KePrint("[Doedhai]: from id : %d \r\n", event.from_id);

	ldrh        w1,[sp,#0x14C]
	mov         w1,w1
	mov         w1,w1
	adrp        x8,|$SG9018|
	add         x0,x8,PageOffset(|$SG9018|)
	bl          _KePrint

; 1956 : 			/* if this create window is creating a popup window
; 1957 : 			 * then we will need it's parent window handle
; 1958 : 			 */
; 1959 : 			int parent_handle = event.dword6;

	ldr         w8,[sp,#0x164]
	str         w8,[sp,#0x110]

; 1960 : 			uint16_t flags = event.dword5;

	ldr         w8,[sp,#0x160]
	uxth        w8,w8
	strh        w8,[sp,#0x2C]

; 1961 : 
; 1962 : 			Window* win = DeodhaiCreateWindow(x, y, w, h, flags, event.from_id, event.charValue3);

	add         x6,sp,#0x190
	ldrh        w5,[sp,#0x14C]
	ldrh        w4,[sp,#0x2C]
	ldr         w3,[sp,#0xE8]
	ldr         w2,[sp,#0xEC]
	ldr         w1,[sp,#0x80]
	ldr         w0,[sp,#0x58]
	bl          |?DeodhaiCreateWindow@@YAPEAU_win_@@HHHHGGPEAD@Z|
	str         x0,[sp,#0x18]

; 1963 : 
; 1964 : 			if ((win->flags & WINDOW_FLAG_POPUP)) {

	ldr         x8,[sp,#0x18]
	ldrh        w8,[x8]
	mov         w8,w8
	tbz         x8,#0xB,|$LN80@main|

; 1965 : 				for (Window* parentWin = rootWin; parentWin != NULL; parentWin = parentWin->next) {

	adrp        x8,|?rootWin@@3PEAU_win_@@EA|
	ldr         x8,[x8,PageOffset(|?rootWin@@3PEAU_win_@@EA|)]
	str         x8,[sp,#0x88]
	b           |$LN12@main|
|$LN10@main|
	ldr         x8,[sp,#0x88]
	add         x8,x8,#0x68
	ldr         x8,[x8]
	str         x8,[sp,#0x88]
|$LN12@main|
	ldr         x8,[sp,#0x88]
	cmp         x8,#0
	beq         |$LN11@main|

; 1966 : 					if (parentWin->handle == parent_handle) {

	ldr         x8,[sp,#0x88]
	add         x8,x8,#0x24
	ldr         w9,[sp,#0x110]
	ldr         w8,[x8]
	cmp         w8,w9
	bne         |$LN81@main|

; 1967 : 						win->parent = parentWin;

	ldr         x8,[sp,#0x18]
	add         x9,x8,#0x60
	ldr         x8,[sp,#0x88]
	str         x8,[x9]

; 1968 : 						_KePrint("[Deodhai]: popup added \r\n");

	adrp        x8,|$SG9021|
	add         x0,x8,PageOffset(|$SG9021|)
	bl          _KePrint

; 1969 : 						break;

	b           |$LN11@main|
|$LN81@main|

; 1970 : 					}
; 1971 : 				}

	b           |$LN10@main|
|$LN11@main|

; 1972 : 				_KePrint("[Deodhai]:Popup window created \r\n");

	adrp        x8,|$SG9022|
	add         x0,x8,PageOffset(|$SG9022|)
	bl          _KePrint
|$LN80@main|

; 1973 : 				
; 1974 : 			}
; 1975 : 			PostEvent e;
; 1976 : 			memset(&e, 0, sizeof(PostEvent));

	mov         x2,#0xB0
	mov         w1,#0
	add         x0,sp,#0x298
	bl          memset

; 1977 : 
; 1978 : 			e.type = DEODHAI_REPLY_WINCREATED;

	mov         w8,#0x96
	strb        w8,[sp,#0x298]

; 1979 : 			e.dword = win->shWinKey;

	ldr         x8,[sp,#0x18]
	add         x8,x8,#0x20
	ldrh        w8,[x8]
	mov         w8,w8
	str         w8,[sp,#0x2A0]

; 1980 : 			e.dword2 = win->backBufferKey;

	ldr         x8,[sp,#0x18]
	add         x8,x8,#0x22
	ldrh        w8,[x8]
	mov         w8,w8
	str         w8,[sp,#0x2A4]

; 1981 : 			e.dword3 = win->handle;

	ldr         x8,[sp,#0x18]
	add         x8,x8,#0x24
	ldr         w8,[x8]
	str         w8,[sp,#0x2A8]

; 1982 : 			e.to_id = event.from_id;

	ldrh        w8,[sp,#0x14C]
	strh        w8,[sp,#0x29A]

; 1983 : 			
; 1984 : 			_KeFileIoControl(postbox_fd, POSTBOX_PUT_EVENT, &e);

	add         x2,sp,#0x298
	mov         w1,#0x193
	adrp        x8,|?postbox_fd@@3HA|
	ldr         w0,[x8,PageOffset(|?postbox_fd@@3HA|)]
	bl          _KeFileIoControl

; 1985 : 			_KePrint("Msg sent to e.toid : %d \n", e.to_id);

	ldrh        w1,[sp,#0x29A]
	mov         w1,w1
	mov         w1,w1
	adrp        x8,|$SG9023|
	add         x0,x8,PageOffset(|$SG9023|)
	bl          _KePrint

; 1986 : 			_KeProcessSleep(180);

	mov         x0,#0xB4
	bl          _KeProcessSleep

; 1987 : 			if (!(win->flags & WINDOW_FLAG_MESSAGEBOX || win->flags & WINDOW_FLAG_POPUP || 

	ldr         x8,[sp,#0x18]
	ldrh        w8,[x8]
	mov         w8,w8
	tbnz        x8,#7,|$LN82@main|
	ldr         x8,[sp,#0x18]
	ldrh        w8,[x8]
	mov         w8,w8
	tbnz        x8,#0xB,|$LN82@main|
	ldr         x8,[sp,#0x18]
	ldrh        w8,[x8]
	mov         w8,w8
	tbnz        x8,#4,|$LN82@main|

; 1988 : 				win->flags & WINDOW_FLAG_BROADCAST_LISTENER)){
; 1989 : 				/* broadcast it to all broadcast listener windows, about this news*/
; 1990 : 				memset(&e, 0, sizeof(PostEvent));

	mov         x2,#0xB0
	mov         w1,#0
	add         x0,sp,#0x298
	bl          memset

; 1991 : 				e.type = DEODHAI_BROADCAST_WINCREATED;

	mov         w8,#0xAA
	strb        w8,[sp,#0x298]

; 1992 : 				e.dword = win->ownerId;

	ldr         x8,[sp,#0x18]
	add         x8,x8,#2
	ldrh        w8,[x8]
	mov         w8,w8
	str         w8,[sp,#0x2A0]

; 1993 : 				e.dword2 = win->handle;

	ldr         x8,[sp,#0x18]
	add         x8,x8,#0x24
	ldr         w8,[x8]
	str         w8,[sp,#0x2A4]

; 1994 : 				strcpy(e.charValue3, win->title);

	ldr         x8,[sp,#0x18]
	add         x8,x8,#0x48
	ldr         x1,[x8]
	add         x0,sp,#0x2E0
	bl          strcpy

; 1995 : 				DeodhaiBroadcastMessage(&e, win);

	ldr         x1,[sp,#0x18]
	add         x0,sp,#0x298
	bl          |?DeodhaiBroadcastMessage@@YAXPEAU_post_event_@@PEAU_win_@@@Z|
|$LN82@main|

; 1996 : 			}
; 1997 : 
; 1998 : 			if (!(win->flags & WINDOW_FLAG_ALWAYS_ON_TOP)) {

	ldr         x8,[sp,#0x18]
	ldrh        w8,[x8]
	mov         w8,w8
	tbnz        x8,#2,|$LN83@main|

; 1999 : 				win->flags |= WINDOW_FLAG_ANIMATED | WINDOW_FLAG_ANIMATION_FADE_IN;

	ldr         x8,[sp,#0x18]
	ldrh        w9,[x8]
	mov         w9,w9
	mov         w8,#0x220
	orr         w8,w9,w8
	ldr         x9,[sp,#0x18]
	uxth        w8,w8
	strh        w8,[x9]

; 2000 : 				win->animAlphaVal = 0;

	ldr         x8,[sp,#0x18]
	add         x9,x8,#0x3C
	mov         w8,#0
	str         w8,[x9]
|$LN83@main|

; 2001 : 			}
; 2002 : 
; 2003 : 			_KePrint("[Deodhai]: Window created \r\n");

	adrp        x8,|$SG9026|
	add         x0,x8,PageOffset(|$SG9026|)
	bl          _KePrint

; 2004 : 		/*	_window_update_all_ = true;
; 2005 : 			_always_on_top_update = true;*/
; 2006 : 			focusedWin = win;

	adrp        x9,|?focusedWin@@3PEAU_win_@@EA|
	ldr         x8,[sp,#0x18]
	str         x8,[x9,PageOffset(|?focusedWin@@3PEAU_win_@@EA|)]

; 2007 : 			memset(&event, 0, sizeof(PostEvent));

	mov         x2,#0xB0
	mov         w1,#0
	add         x0,sp,#0x148
	bl          memset
|$LN79@main|

; 2008 : 
; 2009 : 		}
; 2010 : 
; 2011 : 		/* broadcast icon message */
; 2012 : 		if (event.type == DEODHAI_MESSAGE_BROADCAST_ICON) {

	ldrb        w8,[sp,#0x148]
	mov         w8,w8
	cmp         w8,#0x34
	bne         |$LN84@main|

; 2013 : 			Window *skippable = NULL;

	mov         x8,#0
	str         x8,[sp,#0x118]

; 2014 : 			for (Window* win = rootWin; win != NULL; win = win->next){

	adrp        x8,|?rootWin@@3PEAU_win_@@EA|
	ldr         x8,[x8,PageOffset(|?rootWin@@3PEAU_win_@@EA|)]
	str         x8,[sp,#0x68]
	b           |$LN15@main|
|$LN13@main|
	ldr         x8,[sp,#0x68]
	add         x8,x8,#0x68
	ldr         x8,[x8]
	str         x8,[sp,#0x68]
|$LN15@main|
	ldr         x8,[sp,#0x68]
	cmp         x8,#0
	beq         |$LN14@main|

; 2015 : 				if (win->ownerId == event.from_id){

	ldr         x8,[sp,#0x68]
	add         x8,x8,#2
	ldrh        w9,[x8]
	mov         w9,w9
	ldrh        w8,[sp,#0x14C]
	mov         w8,w8
	cmp         w9,w8
	bne         |$LN85@main|

; 2016 : 					skippable = win;

	ldr         x8,[sp,#0x68]
	str         x8,[sp,#0x118]

; 2017 : 					break;

	b           |$LN14@main|
|$LN85@main|

; 2018 : 				}
; 2019 : 			}

	b           |$LN13@main|
|$LN14@main|

; 2020 : 
; 2021 : 			for (Window* win = alwaysOnTop; win != NULL; win = win->next) {

	adrp        x8,|?alwaysOnTop@@3PEAU_win_@@EA|
	ldr         x8,[x8,PageOffset(|?alwaysOnTop@@3PEAU_win_@@EA|)]
	str         x8,[sp,#0x90]
	b           |$LN18@main|
|$LN16@main|
	ldr         x8,[sp,#0x90]
	add         x8,x8,#0x68
	ldr         x8,[x8]
	str         x8,[sp,#0x90]
|$LN18@main|
	ldr         x8,[sp,#0x90]
	cmp         x8,#0
	beq         |$LN17@main|

; 2022 : 				if (win->ownerId == event.from_id){

	ldr         x8,[sp,#0x90]
	add         x8,x8,#2
	ldrh        w9,[x8]
	mov         w9,w9
	ldrh        w8,[sp,#0x14C]
	mov         w8,w8
	cmp         w9,w8
	bne         |$LN86@main|

; 2023 : 					skippable = win;

	ldr         x8,[sp,#0x90]
	str         x8,[sp,#0x118]

; 2024 : 					break;

	b           |$LN17@main|
|$LN86@main|

; 2025 : 				}
; 2026 : 			}

	b           |$LN16@main|
|$LN17@main|

; 2027 : 			
; 2028 : 			event.type = 174;

	mov         w8,#0xAE
	strb        w8,[sp,#0x148]

; 2029 : 			DeodhaiBroadcastMessage(&event, skippable);

	ldr         x1,[sp,#0x118]
	add         x0,sp,#0x148
	bl          |?DeodhaiBroadcastMessage@@YAXPEAU_post_event_@@PEAU_win_@@@Z|

; 2030 : 			_window_update_all_ = 1;

	adrp        x9,|?_window_update_all_@@3DA|
	mov         w8,#1
	strb        w8,[x9,PageOffset(|?_window_update_all_@@3DA|)]

; 2031 : 			_always_on_top_update = 1;

	adrp        x9,|?_always_on_top_update@@3DA|
	mov         w8,#1
	strb        w8,[x9,PageOffset(|?_always_on_top_update@@3DA|)]

; 2032 : 			_KeProcessSleep(20);

	mov         x0,#0x14
	bl          _KeProcessSleep

; 2033 : 			memset(&event, 0, sizeof(PostEvent));

	mov         x2,#0xB0
	mov         w1,#0
	add         x0,sp,#0x148
	bl          memset
|$LN84@main|

; 2034 : 		}
; 2035 : 
; 2036 : 		if (event.type == DEODHAI_MESSAGE_WINDOW_HIDE) {

	ldrb        w8,[sp,#0x148]
	mov         w8,w8
	cmp         w8,#0x36
	bne         |$LN87@main|

; 2037 : 			uint16_t ownerId = event.dword;

	ldr         w8,[sp,#0x150]
	uxth        w8,w8
	strh        w8,[sp,#0x114]

; 2038 : 			uint32_t handle = event.dword2;

	ldr         w8,[sp,#0x154]
	str         w8,[sp,#0x5C]

; 2039 : 			Window* hideable_win = NULL;

	mov         x8,#0
	str         x8,[sp,#0xA8]

; 2040 : 			for (Window* win = rootWin; win != NULL; win = win->next) {

	adrp        x8,|?rootWin@@3PEAU_win_@@EA|
	ldr         x8,[x8,PageOffset(|?rootWin@@3PEAU_win_@@EA|)]
	str         x8,[sp,#0x98]
	b           |$LN21@main|
|$LN19@main|
	ldr         x8,[sp,#0x98]
	add         x8,x8,#0x68
	ldr         x8,[x8]
	str         x8,[sp,#0x98]
|$LN21@main|
	ldr         x8,[sp,#0x98]
	cmp         x8,#0
	beq         |$LN20@main|

; 2041 : 				if (win->handle == handle){

	ldr         x8,[sp,#0x98]
	add         x8,x8,#0x24
	ldr         w9,[sp,#0x5C]
	ldr         w8,[x8]
	cmp         w8,w9
	bne         |$LN88@main|

; 2042 : 					hideable_win = win;

	ldr         x8,[sp,#0x98]
	str         x8,[sp,#0xA8]

; 2043 : 					break;

	b           |$LN20@main|
|$LN88@main|

; 2044 : 				}
; 2045 : 			}

	b           |$LN19@main|
|$LN20@main|

; 2046 : 
; 2047 : 			if (!hideable_win){

	ldr         x8,[sp,#0xA8]
	cmp         x8,#0
	bne         |$LN89@main|

; 2048 : 				for (Window* win = alwaysOnTop; win != NULL; win = win->next) {

	adrp        x8,|?alwaysOnTop@@3PEAU_win_@@EA|
	ldr         x8,[x8,PageOffset(|?alwaysOnTop@@3PEAU_win_@@EA|)]
	str         x8,[sp,#0xA0]
	b           |$LN24@main|
|$LN22@main|
	ldr         x8,[sp,#0xA0]
	add         x8,x8,#0x68
	ldr         x8,[x8]
	str         x8,[sp,#0xA0]
|$LN24@main|
	ldr         x8,[sp,#0xA0]
	cmp         x8,#0
	beq         |$LN23@main|

; 2049 : 					if (win->handle == handle) {

	ldr         x8,[sp,#0xA0]
	add         x8,x8,#0x24
	ldr         w9,[sp,#0x5C]
	ldr         w8,[x8]
	cmp         w8,w9
	bne         |$LN90@main|

; 2050 : 						hideable_win = win;

	ldr         x8,[sp,#0xA0]
	str         x8,[sp,#0xA8]

; 2051 : 						break;

	b           |$LN23@main|
|$LN90@main|

; 2052 : 					}
; 2053 : 				}

	b           |$LN22@main|
|$LN23@main|
|$LN89@main|

; 2054 : 			}
; 2055 : 
; 2056 : 			if (hideable_win) 

	ldr         x8,[sp,#0xA8]
	cmp         x8,#0
	beq         |$LN91@main|

; 2057 : 				DeodhaiWindowHide(hideable_win);

	ldr         x0,[sp,#0xA8]
	bl          |?DeodhaiWindowHide@@YAXPEAU_win_@@@Z|
|$LN91@main|

; 2058 : 			_KeProcessSleep(10);

	mov         x0,#0xA
	bl          _KeProcessSleep

; 2059 : 			memset(&event, 0, sizeof(PostEvent));

	mov         x2,#0xB0
	mov         w1,#0
	add         x0,sp,#0x148
	bl          memset
|$LN87@main|

; 2060 : 		}
; 2061 : 
; 2062 : 		/* brings back a window to front */
; 2063 : 		if (event.type == DEODHAI_MESSAGE_WINDOW_BRING_FRONT) {

	ldrb        w8,[sp,#0x148]
	mov         w8,w8
	cmp         w8,#0x35
	bne         |$LN92@main|

; 2064 : 			uint32_t handle = event.dword2;

	ldr         w8,[sp,#0x154]
	str         w8,[sp,#0xF4]

; 2065 : 			Window* frontableWin = NULL;

	mov         x8,#0
	str         x8,[sp,#0xC8]

; 2066 : 			for (Window* win = rootWin; win != NULL; win = win->next) {

	adrp        x8,|?rootWin@@3PEAU_win_@@EA|
	ldr         x8,[x8,PageOffset(|?rootWin@@3PEAU_win_@@EA|)]
	str         x8,[sp,#0xB0]
	b           |$LN27@main|
|$LN25@main|
	ldr         x8,[sp,#0xB0]
	add         x8,x8,#0x68
	ldr         x8,[x8]
	str         x8,[sp,#0xB0]
|$LN27@main|
	ldr         x8,[sp,#0xB0]
	cmp         x8,#0
	beq         |$LN26@main|

; 2067 : 				if (win->handle == handle){

	ldr         x8,[sp,#0xB0]
	add         x8,x8,#0x24
	ldr         w9,[sp,#0xF4]
	ldr         w8,[x8]
	cmp         w8,w9
	bne         |$LN93@main|

; 2068 : 					frontableWin = win;

	ldr         x8,[sp,#0xB0]
	str         x8,[sp,#0xC8]

; 2069 : 					break;

	b           |$LN26@main|
|$LN93@main|

; 2070 : 				}
; 2071 : 			}

	b           |$LN25@main|
|$LN26@main|

; 2072 : 
; 2073 : 			if (frontableWin) {

	ldr         x8,[sp,#0xC8]
	cmp         x8,#0
	beq         |$LN94@main|

; 2074 : 				if (!(frontableWin->flags & WINDOW_FLAG_BLOCKED))

	ldr         x8,[sp,#0xC8]
	ldrh        w8,[x8]
	mov         w8,w8
	tbnz        x8,#6,|$LN95@main|

; 2075 : 					DeodhaiWindowSetFocused(frontableWin, true);

	mov         w1,#1
	ldr         x0,[sp,#0xC8]
	bl          |?DeodhaiWindowSetFocused@@YAXPEAU_win_@@D@Z|
|$LN95@main|
|$LN94@main|

; 2076 : 			}
; 2077 : 			_window_update_all_ = true;

	adrp        x9,|?_window_update_all_@@3DA|
	mov         w8,#1
	strb        w8,[x9,PageOffset(|?_window_update_all_@@3DA|)]

; 2078 : 			_always_on_top_update = true;

	adrp        x9,|?_always_on_top_update@@3DA|
	mov         w8,#1
	strb        w8,[x9,PageOffset(|?_always_on_top_update@@3DA|)]

; 2079 : 			memset(&event, 0, sizeof(PostEvent));

	mov         x2,#0xB0
	mov         w1,#0
	add         x0,sp,#0x148
	bl          memset
|$LN92@main|

; 2080 : 		}
; 2081 : 
; 2082 : 		if (event.type == DEODHAI_MESSAGE_GETWINDOW) {

	ldrb        w8,[sp,#0x148]
	mov         w8,w8
	cmp         w8,#0x37
	bne         |$LN96@main|

; 2083 : 			uint16_t ownerID = 0;

	mov         w8,#0
	strh        w8,[sp,#0x20]

; 2084 : 			uint32_t handle = 0;

	mov         w8,#0
	str         w8,[sp,#0x30]

; 2085 : 			bool _not_found = true;

	mov         w8,#1
	strb        w8,[sp,#8]

; 2086 : 			for (Window* win = rootWin; win != NULL; win = win->next) {

	adrp        x8,|?rootWin@@3PEAU_win_@@EA|
	ldr         x8,[x8,PageOffset(|?rootWin@@3PEAU_win_@@EA|)]
	str         x8,[sp,#0x38]
	b           |$LN30@main|
|$LN28@main|
	ldr         x8,[sp,#0x38]
	add         x8,x8,#0x68
	ldr         x8,[x8]
	str         x8,[sp,#0x38]
|$LN30@main|
	ldr         x8,[sp,#0x38]
	cmp         x8,#0
	beq         |$LN29@main|

; 2087 : 				if (strcmp(win->title, event.charValue3) == 0) {

	ldr         x8,[sp,#0x38]
	add         x8,x8,#0x48
	add         x1,sp,#0x190
	ldr         x0,[x8]
	bl          strcmp
	mov         w0,w0
	cmp         w0,#0
	bne         |$LN97@main|

; 2088 : 					ownerID = win->ownerId;

	ldr         x8,[sp,#0x38]
	add         x8,x8,#2
	ldrh        w8,[x8]
	strh        w8,[sp,#0x20]

; 2089 : 					handle = win->handle;

	ldr         x8,[sp,#0x38]
	add         x8,x8,#0x24
	ldr         w8,[x8]
	str         w8,[sp,#0x30]

; 2090 : 					_not_found = false;

	mov         w8,#0
	strb        w8,[sp,#8]

; 2091 : 					break;

	b           |$LN29@main|
|$LN97@main|

; 2092 : 				}
; 2093 : 			}

	b           |$LN28@main|
|$LN29@main|

; 2094 : 
; 2095 : 			if (_not_found) {

	ldrsb       w8,[sp,#8]
	mov         w8,w8
	cmp         w8,#0
	beq         |$LN98@main|

; 2096 : 				for (Window* win = alwaysOnTop; win != NULL; win = win->next) {

	adrp        x8,|?alwaysOnTop@@3PEAU_win_@@EA|
	ldr         x8,[x8,PageOffset(|?alwaysOnTop@@3PEAU_win_@@EA|)]
	str         x8,[sp,#0x40]
	b           |$LN33@main|
|$LN31@main|
	ldr         x8,[sp,#0x40]
	add         x8,x8,#0x68
	ldr         x8,[x8]
	str         x8,[sp,#0x40]
|$LN33@main|
	ldr         x8,[sp,#0x40]
	cmp         x8,#0
	beq         |$LN32@main|

; 2097 : 					if (strcmp(win->title, event.charValue3) == 0) {

	ldr         x8,[sp,#0x40]
	add         x8,x8,#0x48
	add         x1,sp,#0x190
	ldr         x0,[x8]
	bl          strcmp
	mov         w0,w0
	cmp         w0,#0
	bne         |$LN99@main|

; 2098 : 						ownerID = win->ownerId;

	ldr         x8,[sp,#0x40]
	add         x8,x8,#2
	ldrh        w8,[x8]
	strh        w8,[sp,#0x20]

; 2099 : 						handle = win->handle;

	ldr         x8,[sp,#0x40]
	add         x8,x8,#0x24
	ldr         w8,[x8]
	str         w8,[sp,#0x30]

; 2100 : 						_not_found = false;

	mov         w8,#0
	strb        w8,[sp,#8]

; 2101 : 						break;

	b           |$LN32@main|
|$LN99@main|

; 2102 : 					}
; 2103 : 				}

	b           |$LN31@main|
|$LN32@main|
|$LN98@main|

; 2104 : 			}
; 2105 : 
; 2106 : 			PostEvent e;
; 2107 : 			memset(&e, 0, sizeof(PostEvent));

	mov         x2,#0xB0
	mov         w1,#0
	add         x0,sp,#0x348
	bl          memset

; 2108 : 			e.type = DEODHAI_REPLY_WINDOW_ID;

	mov         w8,#0x99
	strb        w8,[sp,#0x348]

; 2109 : 			e.dword = ownerID;

	ldrh        w8,[sp,#0x20]
	mov         w8,w8
	str         w8,[sp,#0x350]

; 2110 : 			e.dword2 = handle;

	ldr         w8,[sp,#0x30]
	str         w8,[sp,#0x354]

; 2111 : 			e.to_id = event.from_id;

	ldrh        w8,[sp,#0x14C]
	strh        w8,[sp,#0x34A]

; 2112 : 			e.from_id = POSTBOX_ROOT_ID;

	mov         w8,#1
	strh        w8,[sp,#0x34C]

; 2113 : 			_KeFileIoControl(postbox_fd, POSTBOX_PUT_EVENT, &e);

	add         x2,sp,#0x348
	mov         w1,#0x193
	adrp        x8,|?postbox_fd@@3HA|
	ldr         w0,[x8,PageOffset(|?postbox_fd@@3HA|)]
	bl          _KeFileIoControl

; 2114 : 			memset(&event, 0, sizeof(PostEvent));

	mov         x2,#0xB0
	mov         w1,#0
	add         x0,sp,#0x148
	bl          memset
|$LN96@main|

; 2115 : 		}
; 2116 : 
; 2117 : 		if (event.type == DEODHAI_MESSAGE_CLOSE_WINDOW) {

	ldrb        w8,[sp,#0x148]
	mov         w8,w8
	cmp         w8,#0x38
	bne         |$LN100@main|

; 2118 : 			/* deodhai close window commands needs every datas
; 2119 : 			 * to be cleared from client side, in server side
; 2120 : 			 * only window related datas will get cleared, 
; 2121 : 			 * like, root-window, sub-windows and popup-list
; 2122 : 			 */
; 2123 : 			int handle = event.dword;

	ldr         w8,[sp,#0x150]
	str         w8,[sp,#0xF8]

; 2124 : 			int ownerId = event.from_id;

	ldrh        w8,[sp,#0x14C]
	mov         w8,w8
	str         w8,[sp,#0xFC]

; 2125 : 			Window* removable = NULL;

	mov         x8,#0
	str         x8,[sp,#0x120]

; 2126 : 			for (Window* win = rootWin; win != NULL; win = win->next) {

	adrp        x8,|?rootWin@@3PEAU_win_@@EA|
	ldr         x8,[x8,PageOffset(|?rootWin@@3PEAU_win_@@EA|)]
	str         x8,[sp,#0x48]
	b           |$LN36@main|
|$LN34@main|
	ldr         x8,[sp,#0x48]
	add         x8,x8,#0x68
	ldr         x8,[x8]
	str         x8,[sp,#0x48]
|$LN36@main|
	ldr         x8,[sp,#0x48]
	cmp         x8,#0
	beq         |$LN35@main|

; 2127 : 				if (win->handle == handle && win->ownerId == ownerId) {

	ldr         x8,[sp,#0x48]
	add         x8,x8,#0x24
	ldr         w9,[sp,#0xF8]
	ldr         w8,[x8]
	cmp         w8,w9
	bne         |$LN101@main|
	ldr         x8,[sp,#0x48]
	add         x8,x8,#2
	ldrh        w9,[x8]
	mov         w9,w9
	ldr         w8,[sp,#0xFC]
	cmp         w9,w8
	bne         |$LN101@main|

; 2128 : 					removable = win;

	ldr         x8,[sp,#0x48]
	str         x8,[sp,#0x120]

; 2129 : 					break;

	b           |$LN35@main|
|$LN101@main|

; 2130 : 				}
; 2131 : 			}

	b           |$LN34@main|
|$LN35@main|

; 2132 : 
; 2133 : 			if (removable) {

	ldr         x8,[sp,#0x120]
	cmp         x8,#0
	beq         |$LN102@main|

; 2134 : 				DeodhaiCloseWindow(removable);

	ldr         x0,[sp,#0x120]
	bl          |?DeodhaiCloseWindow@@YAXPEAU_win_@@@Z|

; 2135 : 				focusedWin = NULL;

	adrp        x9,|?focusedWin@@3PEAU_win_@@EA|
	mov         x8,#0
	str         x8,[x9,PageOffset(|?focusedWin@@3PEAU_win_@@EA|)]

; 2136 : 				focusedLast = NULL;

	adrp        x9,|?focusedLast@@3PEAU_win_@@EA|
	mov         x8,#0
	str         x8,[x9,PageOffset(|?focusedLast@@3PEAU_win_@@EA|)]
|$LN102@main|

; 2137 : 				//_window_update_all_ = true;
; 2138 : 				//_always_on_top_update = true;
; 2139 : 			}
; 2140 : 			memset(&event, 0, sizeof(PostEvent));

	mov         x2,#0xB0
	mov         w1,#0
	add         x0,sp,#0x148
	bl          memset
|$LN100@main|

; 2141 : 		}
; 2142 : 
; 2143 : 
; 2144 : 		if (event.type == DEODHAI_MESSAGE_SET_FLAGS) {

	ldrb        w8,[sp,#0x148]
	mov         w8,w8
	cmp         w8,#0x39
	bne         |$LN103@main|

; 2145 : 			int handle = event.dword;

	ldr         w8,[sp,#0x150]
	str         w8,[sp,#0x100]

; 2146 : 			int ownerId = event.from_id;

	ldrh        w8,[sp,#0x14C]
	mov         w8,w8
	str         w8,[sp,#0x104]

; 2147 : 			int flags = event.dword2;

	ldr         w8,[sp,#0x154]
	str         w8,[sp,#0x108]

; 2148 : 			for (Window* win = rootWin; win != NULL; win = win->next) {

	adrp        x8,|?rootWin@@3PEAU_win_@@EA|
	ldr         x8,[x8,PageOffset(|?rootWin@@3PEAU_win_@@EA|)]
	str         x8,[sp,#0x50]
	b           |$LN39@main|
|$LN37@main|
	ldr         x8,[sp,#0x50]
	add         x8,x8,#0x68
	ldr         x8,[x8]
	str         x8,[sp,#0x50]
|$LN39@main|
	ldr         x8,[sp,#0x50]
	cmp         x8,#0
	beq         |$LN38@main|

; 2149 : 				if (win->handle == handle && win->ownerId == ownerId) {

	ldr         x8,[sp,#0x50]
	add         x8,x8,#0x24
	ldr         w9,[sp,#0x100]
	ldr         w8,[x8]
	cmp         w8,w9
	bne         |$LN104@main|
	ldr         x8,[sp,#0x50]
	add         x8,x8,#2
	ldrh        w9,[x8]
	mov         w9,w9
	ldr         w8,[sp,#0x104]
	cmp         w9,w8
	bne         |$LN104@main|

; 2150 : 					win->flags = flags;

	ldr         w8,[sp,#0x108]
	uxth        w9,w8
	ldr         x8,[sp,#0x50]
	strh        w9,[x8]

; 2151 : 					break;

	b           |$LN38@main|
|$LN104@main|

; 2152 : 				}
; 2153 : 			}

	b           |$LN37@main|
|$LN38@main|

; 2154 : 			memset(&event, 0, sizeof(PostEvent));

	mov         x2,#0xB0
	mov         w1,#0
	add         x0,sp,#0x148
	bl          memset
|$LN103@main|

; 2155 : 		}
; 2156 : 
; 2157 : 		/*
; 2158 : 		 * DEODHAI_MESSAGE_MOVE_WINDOW -- moves target window
; 2159 : 		 * to new location
; 2160 : 		 */
; 2161 : 		if (event.type == DEODHAI_MESSAGE_MOVE_WINDOW) {

	ldrb        w8,[sp,#0x148]
	mov         w8,w8
	cmp         w8,#0x3C
	bne         |$LN105@main|

; 2162 : 			int newX = event.dword;

	ldr         w8,[sp,#0x150]
	str         w8,[sp,#0xF0]

; 2163 : 			int newY = event.dword2;

	ldr         w8,[sp,#0x154]
	str         w8,[sp,#0x10C]

; 2164 : 			int ownerID = event.from_id;

	ldrh        w8,[sp,#0x14C]
	mov         w8,w8
	str         w8,[sp,#0x60]

; 2165 : 			Window* win_ = NULL;

	mov         x8,#0
	str         x8,[sp,#0xD0]

; 2166 : 			_clients_advice = true;

	adrp        x9,|?_clients_advice@@3DA|
	mov         w8,#1
	strb        w8,[x9,PageOffset(|?_clients_advice@@3DA|)]

; 2167 : 			for (Window* win = rootWin; win != NULL; win = win->next) {

	adrp        x8,|?rootWin@@3PEAU_win_@@EA|
	ldr         x8,[x8,PageOffset(|?rootWin@@3PEAU_win_@@EA|)]
	str         x8,[sp,#0xB8]
	b           |$LN42@main|
|$LN40@main|
	ldr         x8,[sp,#0xB8]
	add         x8,x8,#0x68
	ldr         x8,[x8]
	str         x8,[sp,#0xB8]
|$LN42@main|
	ldr         x8,[sp,#0xB8]
	cmp         x8,#0
	beq         |$LN41@main|

; 2168 : 				if (win->ownerId == ownerID) {

	ldr         x8,[sp,#0xB8]
	add         x8,x8,#2
	ldrh        w9,[x8]
	mov         w9,w9
	ldr         w8,[sp,#0x60]
	cmp         w9,w8
	bne         |$LN106@main|

; 2169 : 					win_ = win;

	ldr         x8,[sp,#0xB8]
	str         x8,[sp,#0xD0]

; 2170 : 					break;

	b           |$LN41@main|
|$LN106@main|

; 2171 : 				}
; 2172 : 			}

	b           |$LN40@main|
|$LN41@main|

; 2173 : 
; 2174 : 			for (Window* win = alwaysOnTop; win != NULL; win = win->next) {

	adrp        x8,|?alwaysOnTop@@3PEAU_win_@@EA|
	ldr         x8,[x8,PageOffset(|?alwaysOnTop@@3PEAU_win_@@EA|)]
	str         x8,[sp,#0xC0]
	b           |$LN45@main|
|$LN43@main|
	ldr         x8,[sp,#0xC0]
	add         x8,x8,#0x68
	ldr         x8,[x8]
	str         x8,[sp,#0xC0]
|$LN45@main|
	ldr         x8,[sp,#0xC0]
	cmp         x8,#0
	beq         |$LN44@main|

; 2175 : 				if (win->ownerId == ownerID) {

	ldr         x8,[sp,#0xC0]
	add         x8,x8,#2
	ldrh        w9,[x8]
	mov         w9,w9
	ldr         w8,[sp,#0x60]
	cmp         w9,w8
	bne         |$LN107@main|

; 2176 : 					win_ = win;

	ldr         x8,[sp,#0xC0]
	str         x8,[sp,#0xD0]

; 2177 : 					break;

	b           |$LN44@main|
|$LN107@main|

; 2178 : 				}
; 2179 : 			}

	b           |$LN43@main|
|$LN44@main|

; 2180 : 			if (win_) 

	ldr         x8,[sp,#0xD0]
	cmp         x8,#0
	beq         |$LN108@main|

; 2181 : 				DeodhaiWindowMove(win_, newX, newY);

	ldr         w2,[sp,#0x10C]
	ldr         w1,[sp,#0xF0]
	ldr         x0,[sp,#0xD0]
	bl          |?DeodhaiWindowMove@@YAXPEAU_win_@@HH@Z|
|$LN108@main|

; 2182 : 
; 2183 : 			memset(&event, 0, sizeof(PostEvent));

	mov         x2,#0xB0
	mov         w1,#0
	add         x0,sp,#0x148
	bl          memset
|$LN105@main|

; 2184 : 		}
; 2185 : 
; 2186 : #ifdef ARCH_X64
; 2187 : 		_KeProcessSleep((16 - frameTime));
; 2188 : #elif ARCH_ARM64
; 2189 : 		_KeProcessSleep(2);

	mov         x0,#2
	bl          _KeProcessSleep

; 2190 : #endif
; 2191 : 	}

	b           |$LN8@main|
|$LN9@main|
	add         sp,sp,#0x400
	ldr         lr,[sp],#0x10
	ret
|$LN110@main|
	DCD         0x15062023
|$LN111@main|
	DCD         0xff808080

	ENDP  ; |main|

; Function compile flags: /Odtpy
; File C:\Users\paras\source\repos\grep-name\XenevaOS\Process\Deodhai\deomain.cpp

	AREA	|.text$mn|, CODE, ARM64

|?DeodhaiClickTimeSince@@YA_K_K@Z| PROC			; DeodhaiClickTimeSince

; 1619 : uint64_t DeodhaiClickTimeSince(uint64_t start_time) {

|$LN3|
	str         lr,[sp,#-0x10]!
	sub         sp,sp,#0x20
	str         x0,[sp,#8]

; 1620 : 	uint64_t now = DeodhaiClickCurrentTime();

	bl          |?DeodhaiClickCurrentTime@@YA_KXZ|
	str         x0,[sp]

; 1621 : 	uint64_t diff = now - start_time;

	ldr         x9,[sp]
	ldr         x8,[sp,#8]
	sub         x8,x9,x8
	str         x8,[sp,#0x10]

; 1622 : 	return diff;

	ldr         x0,[sp,#0x10]
	add         sp,sp,#0x20
	ldr         lr,[sp],#0x10
	ret

	ENDP  ; |?DeodhaiClickTimeSince@@YA_K_K@Z|, DeodhaiClickTimeSince

; Function compile flags: /Odtpy
; File C:\Users\paras\source\repos\grep-name\XenevaOS\Process\Deodhai\deomain.cpp

	AREA	|.text$mn|, CODE, ARM64

|?DeodhaiClickCurrentTime@@YA_KXZ| PROC			; DeodhaiClickCurrentTime

; 1610 : uint64_t DeodhaiClickCurrentTime() {

|$LN3|
	str         lr,[sp,#-0x10]!
	sub         sp,sp,#0x10

; 1611 : 	timeval t;
; 1612 : 	gettimeofday(&t);

	add         x0,sp,#8
	bl          gettimeofday

; 1613 : 	time_t sec_diff = t.tv_sec;

	ldr         w8,[sp,#8]
	str         w8,[sp]

; 1614 : 	suseconds_t usec_diff = t.tv_usec;

	ldr         w8,[sp,#0xC]
	str         w8,[sp,#4]

; 1615 : 	return (uint64_t)(static_cast<uint64_t>(sec_diff) * 1000 + (usec_diff / 1000));

	ldr         w8,[sp]
	sxtw        x9,w8
	mov         x8,#0x3E8
	mul         x10,x9,x8
	ldr         w9,[sp,#4]
	mov         w8,#0x3E8
	sdiv        w8,w9,w8
	sxtw        x8,w8
	add         x0,x10,x8
	add         sp,sp,#0x10
	ldr         lr,[sp],#0x10
	ret

	ENDP  ; |?DeodhaiClickCurrentTime@@YA_KXZ|, DeodhaiClickCurrentTime

; Function compile flags: /Odtpy
; File C:\Users\paras\source\repos\grep-name\XenevaOS\Process\Deodhai\deomain.cpp

	AREA	|.text$mn|, CODE, ARM64

|?DeodhaiTimeSince@@YA_K_K@Z| PROC			; DeodhaiTimeSince

; 1604 : uint64_t DeodhaiTimeSince(uint64_t startTime) {

|$LN3|
	str         lr,[sp,#-0x10]!
	sub         sp,sp,#0x20
	str         x0,[sp,#8]

; 1605 : 	uint64_t now = DeodhaiCurrentTime();

	bl          |?DeodhaiCurrentTime@@YA_KXZ|
	str         x0,[sp]

; 1606 : 	uint64_t diff = now - startTime;

	ldr         x9,[sp]
	ldr         x8,[sp,#8]
	sub         x8,x9,x8
	str         x8,[sp,#0x10]

; 1607 : 	return diff;

	ldr         x0,[sp,#0x10]
	add         sp,sp,#0x20
	ldr         lr,[sp],#0x10
	ret

	ENDP  ; |?DeodhaiTimeSince@@YA_K_K@Z|, DeodhaiTimeSince

; Function compile flags: /Odtpy
; File C:\Users\paras\source\repos\grep-name\XenevaOS\Process\Deodhai\deomain.cpp

	AREA	|.text$mn|, CODE, ARM64

|?DeodhaiCurrentTime@@YA_KXZ| PROC			; DeodhaiCurrentTime

; 1589 : uint64_t DeodhaiCurrentTime() {

|$LN4|
	str         lr,[sp,#-0x10]!
	sub         sp,sp,#0x10

; 1590 : 	timeval tm;
; 1591 : 	gettimeofday(&tm);

	add         x0,sp,#8
	bl          gettimeofday

; 1592 : 
; 1593 : 	time_t sec_diff = tm.tv_sec - startTime;

	ldr         w8,[sp,#8]
	sxtw        x9,w8
	adrp        x8,|?startTime@@3_KA|
	ldr         x8,[x8,PageOffset(|?startTime@@3_KA|)]
	sub         x8,x9,x8
	mov         w8,w8
	str         w8,[sp]

; 1594 : 	long usec_diff = tm.tv_usec - startSubTime;

	ldr         w8,[sp,#0xC]
	sxtw        x9,w8
	adrp        x8,|?startSubTime@@3_KA|
	ldr         x8,[x8,PageOffset(|?startSubTime@@3_KA|)]
	sub         x8,x9,x8
	mov         w8,w8
	str         w8,[sp,#4]

; 1595 : 
; 1596 : 	if (tm.tv_usec < startSubTime){

	ldr         w8,[sp,#0xC]
	sxtw        x9,w8
	adrp        x8,|?startSubTime@@3_KA|
	ldr         x8,[x8,PageOffset(|?startSubTime@@3_KA|)]
	cmp         x9,x8
	bhs         |$LN2@DeodhaiCur|

; 1597 : 		sec_diff -= 1;

	ldr         w8,[sp]
	sub         w8,w8,#1
	str         w8,[sp]

; 1598 : 		usec_diff = (1000000 + tm.tv_usec) - startSubTime;

	ldr         w8,[sp,#0xC]
	add         w8,w8,#0xF4,lsl #0xC
	add         w8,w8,#0x240
	sxtw        x9,w8
	adrp        x8,|?startSubTime@@3_KA|
	ldr         x8,[x8,PageOffset(|?startSubTime@@3_KA|)]
	sub         x8,x9,x8
	mov         w8,w8
	str         w8,[sp,#4]
|$LN2@DeodhaiCur|

; 1599 : 	}
; 1600 : 
; 1601 : 	return (uint64_t)(static_cast<uint64_t>(sec_diff) * 1000 + usec_diff / 1000);

	ldr         w8,[sp]
	sxtw        x9,w8
	mov         x8,#0x3E8
	mul         x10,x9,x8
	ldr         w9,[sp,#4]
	mov         w8,#0x3E8
	sdiv        w8,w9,w8
	sxtw        x8,w8
	add         x0,x10,x8
	add         sp,sp,#0x10
	ldr         lr,[sp],#0x10
	ret

	ENDP  ; |?DeodhaiCurrentTime@@YA_KXZ|, DeodhaiCurrentTime

; Function compile flags: /Odtpy
; File C:\Users\paras\source\repos\grep-name\XenevaOS\Process\Deodhai\deomain.cpp

	AREA	|.text$mn|, CODE, ARM64

|?DrawWallpaper@@YAXPEAU_ChCanvas_@@PEAD@Z| PROC	; DrawWallpaper

; 1542 : void DrawWallpaper(ChCanvas *canv, char* filename) {

|$LN16|
	str         lr,[sp,#-0x10]!
	sub         sp,sp,#0xA0
	str         x0,[sp,#0x28]
	str         x1,[sp,#0x58]

; 1543 : 	int image = _KeOpenFile(filename, FILE_OPEN_READ_ONLY);

	mov         w1,#2
	ldr         x0,[sp,#0x58]
	bl          _KeOpenFile
	mov         w0,w0
	str         w0,[sp,#0x18]

; 1544 : 	XEFileStatus stat;
; 1545 : 	memset(&stat, 0, sizeof(XEFileStatus));

	mov         x2,#0x28
	mov         w1,#0
	add         x0,sp,#0x70
	bl          memset

; 1546 : 	_KeFileStat(image, &stat);

	add         x1,sp,#0x70
	ldr         w0,[sp,#0x18]
	bl          _KeFileStat

; 1547 : 	_KePrint("Wallpaper sz : %d \r\n", stat.size);

	ldr         x1,[sp,#0x78]
	adrp        x8,|$SG8792|
	add         x0,x8,PageOffset(|$SG8792|)
	bl          _KePrint

; 1548 : 	void* data_ = _KeMemMap(NULL, stat.size, 0, 0, -1, 0);

	mov         x5,#0
	mov         w4,#-1
	mov         w3,#0
	mov         w2,#0
	ldr         x1,[sp,#0x78]
	mov         x0,#0
	bl          _KeMemMap
	str         x0,[sp,#0x38]

; 1549 : 	memset(data_, 0, ALIGN_UP(stat.size, 4096));

	ldr         x8,[sp,#0x78]
	add         x8,x8,#1,lsl #0xC
	sub         x9,x8,#1
	mov         x8,#0x1000
	udiv        x9,x9,x8
	mov         x8,#0x1000
	mul         x2,x9,x8
	mov         w1,#0
	ldr         x0,[sp,#0x38]
	bl          memset

; 1550 : 	_KeReadFile(image, data_, ALIGN_UP(stat.size,4096));

	ldr         x8,[sp,#0x78]
	add         x8,x8,#1,lsl #0xC
	sub         x9,x8,#1
	mov         x8,#0x1000
	udiv        x9,x9,x8
	mov         x8,#0x1000
	mul         x2,x9,x8
	ldr         x1,[sp,#0x38]
	ldr         w0,[sp,#0x18]
	bl          _KeReadFile

; 1551 : 
; 1552 : 	uint8_t* data1 = (uint8_t*)data_;

	ldr         x8,[sp,#0x38]
	str         x8,[sp,#0x60]

; 1553 : 	
; 1554 : 	Jpeg::Decoder *decor = new Jpeg::Decoder((uint8_t*)data1, ALIGN_UP(stat.size, 4096), malloc, free);

	ldr         x0,|$LN15@DrawWallpa|
	bl          |??2@YAPEAX_K@Z|
	str         x0,[sp,#0x48]
	ldr         x8,[sp,#0x48]
	cmp         x8,#0
	beq         |$LN13@DrawWallpa|
	ldr         x8,[sp,#0x78]
	add         x8,x8,#1,lsl #0xC
	sub         x9,x8,#1
	mov         x8,#0x1000
	udiv        x9,x9,x8
	mov         x8,#0x1000
	mul         x8,x9,x8
	mov         w2,w8
	adrp        x8,free
	add         x4,x8,PageOffset(free)
	adrp        x8,malloc
	add         x3,x8,PageOffset(malloc)
	mov         w2,w2
	ldr         x1,[sp,#0x60]
	ldr         x0,[sp,#0x48]
	bl          |??0Decoder@Jpeg@@QEAA@PEBEIP6APEAXI@ZP6AXPEAX@Z@Z|
	str         x0,[sp,#0x50]
	b           |$LN14@DrawWallpa|
|$LN13@DrawWallpa|
	mov         x8,#0
	str         x8,[sp,#0x50]
|$LN14@DrawWallpa|
	ldr         x8,[sp,#0x50]
	str         x8,[sp,#0x20]

; 1555 : 	if (decor->GetResult() != Jpeg::Decoder::OK) {

	ldr         x0,[sp,#0x20]
	bl          |?GetResult@Decoder@Jpeg@@QEBA?AW4DecodeResult@12@XZ|
	mov         w0,w0
	cmp         w0,#0
	beq         |$LN11@DrawWallpa|

; 1556 : 		_KePrint("Decoder error \n");

	adrp        x8,|$SG8794|
	add         x0,x8,PageOffset(|$SG8794|)
	bl          _KePrint
|$LN2@DrawWallpa|

; 1557 : 		for (;;);

	b           |$LN2@DrawWallpa|

; 1558 : 		return;

	b           |$LN1@DrawWallpa|
|$LN11@DrawWallpa|

; 1559 : 	}
; 1560 : 	int w = decor->GetWidth();

	ldr         x0,[sp,#0x20]
	bl          |?GetWidth@Decoder@Jpeg@@QEBAHXZ|
	mov         w0,w0
	str         w0,[sp,#0x10]

; 1561 : 	int h = decor->GetHeight();

	ldr         x0,[sp,#0x20]
	bl          |?GetHeight@Decoder@Jpeg@@QEBAHXZ|
	mov         w0,w0
	str         w0,[sp,#0x1C]

; 1562 : 	_KePrint("Wallpaper width : %d \r\n", w);

	ldr         w1,[sp,#0x10]
	adrp        x8,|$SG8795|
	add         x0,x8,PageOffset(|$SG8795|)
	bl          _KePrint

; 1563 : 	_KePrint("Wallpaper height : %d \r\n", h);

	ldr         w1,[sp,#0x1C]
	adrp        x8,|$SG8796|
	add         x0,x8,PageOffset(|$SG8796|)
	bl          _KePrint

; 1564 : 	uint32_t* swapable_buff = canv->buffer;

	ldr         x8,[sp,#0x28]
	add         x8,x8,#0x20
	ldr         x8,[x8]
	str         x8,[sp,#0x68]

; 1565 : 	canv->buffer = surfaceBuffer;

	ldr         x8,[sp,#0x28]
	add         x9,x8,#0x20
	adrp        x8,|?surfaceBuffer@@3PEAIEA|
	ldr         x8,[x8,PageOffset(|?surfaceBuffer@@3PEAIEA|)]
	str         x8,[x9]

; 1566 : 	uint8_t* data = decor->GetImage();

	ldr         x0,[sp,#0x20]
	bl          |?GetImage@Decoder@Jpeg@@QEBAPEAEXZ|
	str         x0,[sp,#0x40]

; 1567 : 
; 1568 : 	unsigned x = 0;

	mov         w8,#0
	str         w8,[sp,#0x34]

; 1569 : 	unsigned y = 0;

	mov         w8,#0
	str         w8,[sp,#0x30]

; 1570 : 	for (int i = 0; i < h; i++) {

	mov         w8,#0
	str         w8,[sp,#4]
	b           |$LN7@DrawWallpa|
|$LN5@DrawWallpa|
	ldr         w8,[sp,#4]
	add         w8,w8,#1
	str         w8,[sp,#4]
|$LN7@DrawWallpa|
	ldr         w9,[sp,#0x1C]
	ldr         w8,[sp,#4]
	cmp         w8,w9
	bge         |$LN6@DrawWallpa|

; 1571 : 		for (int k = 0; k < w; k++) {

	mov         w8,#0
	str         w8,[sp,#8]
	b           |$LN10@DrawWallpa|
|$LN8@DrawWallpa|
	ldr         w8,[sp,#8]
	add         w8,w8,#1
	str         w8,[sp,#8]
|$LN10@DrawWallpa|
	ldr         w9,[sp,#0x10]
	ldr         w8,[sp,#8]
	cmp         w8,w9
	bge         |$LN9@DrawWallpa|

; 1572 : 			int j = k + i * w;

	ldr         w9,[sp,#4]
	ldr         w8,[sp,#0x10]
	mul         w9,w9,w8
	ldr         w8,[sp,#8]
	add         w8,w8,w9
	str         w8,[sp,#0xC]

; 1573 : 			uint8_t r = data[j * 3];

	ldr         w9,[sp,#0xC]
	mov         w8,#3
	mul         w8,w9,w8
	sxtw        x9,w8
	mov         x8,#1
	mul         x9,x9,x8
	ldr         x8,[sp,#0x40]
	add         x8,x8,x9
	ldrb        w8,[x8]
	strb        w8,[sp]

; 1574 : 			uint8_t g = data[j * 3 + 1];

	ldr         w9,[sp,#0xC]
	mov         w8,#3
	mul         w8,w9,w8
	add         w8,w8,#1
	sxtw        x9,w8
	mov         x8,#1
	mul         x9,x9,x8
	ldr         x8,[sp,#0x40]
	add         x8,x8,x9
	ldrb        w8,[x8]
	strb        w8,[sp,#1]

; 1575 : 			uint8_t b = data[j * 3 + 2];

	ldr         w9,[sp,#0xC]
	mov         w8,#3
	mul         w8,w9,w8
	add         w8,w8,#2
	sxtw        x9,w8
	mov         x8,#1
	mul         x9,x9,x8
	ldr         x8,[sp,#0x40]
	add         x8,x8,x9
	ldrb        w8,[x8]
	strb        w8,[sp,#2]

; 1576 : 			uint32_t rgba = ((r << 16) | (g << 8) | (b)) & 0x00ffffff;

	ldrb        w8,[sp]
	mov         w8,w8
	lsl         w9,w8,#0x10
	ldrb        w8,[sp,#1]
	mov         w8,w8
	lsl         w8,w8,#8
	orr         w9,w9,w8
	ldrb        w8,[sp,#2]
	mov         w8,w8
	orr         w8,w9,w8
	and         w8,w8,#0xFFFFFF
	str         w8,[sp,#0x14]

; 1577 : 			rgba = rgba | 0xff000000;

	ldr         w8,[sp,#0x14]
	orr         w8,w8,#0xFF000000
	str         w8,[sp,#0x14]

; 1578 : 			ChDrawPixelRAW(canv,x + k, y + i, rgba);

	ldr         w9,[sp,#0x30]
	ldr         w8,[sp,#4]
	add         w2,w9,w8
	ldr         w9,[sp,#0x34]
	ldr         w8,[sp,#8]
	add         w1,w9,w8
	ldr         w3,[sp,#0x14]
	mov         w2,w2
	mov         w1,w1
	ldr         x0,[sp,#0x28]
	bl          ChDrawPixelRAW

; 1579 : 			j++;

	ldr         w8,[sp,#0xC]
	add         w8,w8,#1
	str         w8,[sp,#0xC]

; 1580 : 		}

	b           |$LN8@DrawWallpa|
|$LN9@DrawWallpa|

; 1581 : 	}

	b           |$LN5@DrawWallpa|
|$LN6@DrawWallpa|

; 1582 : 
; 1583 : 	canv->buffer = swapable_buff;

	ldr         x8,[sp,#0x28]
	add         x9,x8,#0x20
	ldr         x8,[sp,#0x68]
	str         x8,[x9]
|$LN1@DrawWallpa|
	add         sp,sp,#0xA0
	ldr         lr,[sp],#0x10
	ret
|$LN15@DrawWallpa|
	DCQ         0x80330

	ENDP  ; |?DrawWallpaper@@YAXPEAU_ChCanvas_@@PEAD@Z|, DrawWallpaper

; Function compile flags: /Odtpy
; File C:\Users\paras\source\repos\grep-name\XenevaOS\Process\Deodhai\deomain.cpp

	AREA	|.text$mn|, CODE, ARM64

|?DeodhaiCloseWindow@@YAXPEAU_win_@@@Z| PROC		; DeodhaiCloseWindow

; 1483 : void DeodhaiCloseWindow(Window* win) {

|$LN7|
	str         lr,[sp,#-0x10]!
	sub         sp,sp,#0xF0
	str         x0,[sp]

; 1484 : 	int ownerId = win->ownerId;

	ldr         x8,[sp]
	add         x8,x8,#2
	ldrh        w8,[x8]
	mov         w8,w8
	str         w8,[sp,#0x18]

; 1485 : 	int handle = win->handle;

	ldr         x8,[sp]
	add         x8,x8,#0x24
	ldr         w8,[x8]
	str         w8,[sp,#0x38]

; 1486 : 	uint16_t flags = win->flags;

	ldr         x8,[sp]
	ldrh        w8,[x8]
	strh        w8,[sp,#8]

; 1487 : 	WinSharedInfo* info = (WinSharedInfo*)win->sharedInfo;

	ldr         x8,[sp]
	add         x8,x8,#0x10
	ldr         x8,[x8]
	str         x8,[sp,#0x20]

; 1488 : 	int width = info->width;

	ldr         x9,[sp,#0x20]
	mov         x8,#0x1010
	add         x8,x9,x8
	ldr         w8,[x8]
	str         w8,[sp,#0x2C]

; 1489 : 	int height = info->height;

	ldr         x9,[sp,#0x20]
	mov         x8,#0x1014
	add         x8,x9,x8
	ldr         w8,[x8]
	str         w8,[sp,#0x28]

; 1490 : 	int x = info->x;

	ldr         x9,[sp,#0x20]
	mov         x8,#0x1008
	add         x8,x9,x8
	ldr         w8,[x8]
	str         w8,[sp,#0x34]

; 1491 : 	int y = info->y;

	ldr         x9,[sp,#0x20]
	mov         x8,#0x100C
	add         x8,x9,x8
	ldr         w8,[x8]
	str         w8,[sp,#0x30]

; 1492 : 	_KePrint("[Deodhai]:CloseWindow : %s \r\n", win->title);

	ldr         x8,[sp]
	add         x8,x8,#0x48
	ldr         x1,[x8]
	adrp        x8,|$SG8750|
	add         x0,x8,PageOffset(|$SG8750|)
	bl          _KePrint

; 1493 : 	//free(win->title);
; 1494 : 
; 1495 : 	/* iterate all popup window and close them */
; 1496 : 	for (Window* popup = win->firstPopupWin; popup != NULL; popup = popup->next) {

	ldr         x8,[sp]
	add         x8,x8,#0x50
	ldr         x8,[x8]
	str         x8,[sp,#0x10]
	b           |$LN4@DeodhaiClo|
|$LN2@DeodhaiClo|
	ldr         x8,[sp,#0x10]
	add         x8,x8,#0x68
	ldr         x8,[x8]
	str         x8,[sp,#0x10]
|$LN4@DeodhaiClo|
	ldr         x8,[sp,#0x10]
	cmp         x8,#0
	beq         |$LN3@DeodhaiClo|

; 1497 : 		//close all
; 1498 : 		free(popup->title);

	ldr         x8,[sp,#0x10]
	add         x8,x8,#0x48
	ldr         x0,[x8]
	bl          free

; 1499 : 		_KeUnmapSharedMem(popup->shWinKey);

	ldr         x8,[sp,#0x10]
	add         x8,x8,#0x20
	ldrh        w0,[x8]
	bl          _KeUnmapSharedMem

; 1500 : 		_KeUnmapSharedMem(popup->backBufferKey);

	ldr         x8,[sp,#0x10]
	add         x8,x8,#0x22
	ldrh        w0,[x8]
	bl          _KeUnmapSharedMem

; 1501 : #ifdef SHADOW_ENABLED
; 1502 : 		_KeMemUnmap(popup->shadowBuffers, (static_cast<size_t>(width) + SHADOW_SIZE * 2) * (height + SHADOW_SIZE * 2) * 4);
; 1503 : #endif
; 1504 : 		free(popup);

	ldr         x0,[sp,#0x10]
	bl          free

; 1505 : 	}

	b           |$LN2@DeodhaiClo|
|$LN3@DeodhaiClo|

; 1506 : 
; 1507 : 	_KePrint("Unmapping shared mems \r\n");

	adrp        x8,|$SG8751|
	add         x0,x8,PageOffset(|$SG8751|)
	bl          _KePrint

; 1508 : 	_KeUnmapSharedMem(win->shWinKey);

	ldr         x8,[sp]
	add         x8,x8,#0x20
	ldrh        w0,[x8]
	bl          _KeUnmapSharedMem

; 1509 : 	_KeUnmapSharedMem(win->backBufferKey);

	ldr         x8,[sp]
	add         x8,x8,#0x22
	ldrh        w0,[x8]
	bl          _KeUnmapSharedMem

; 1510 : 	_KePrint("Unmapped all shared mems from deodhai side for process\r\n");

	adrp        x8,|$SG8752|
	add         x0,x8,PageOffset(|$SG8752|)
	bl          _KePrint

; 1511 : #ifdef SHADOW_ENABLED
; 1512 : 	_KeMemUnmap(win->shadowBuffers, (static_cast<size_t>(width) + SHADOW_SIZE * 2) * (height + SHADOW_SIZE * 2) * 4);
; 1513 : #endif
; 1514 : 	BackDirtyAdd(x - SHADOW_SIZE, y - SHADOW_SIZE, width + SHADOW_SIZE*2, height + SHADOW_SIZE*2);

	ldr         w3,[sp,#0x28]
	ldr         w2,[sp,#0x2C]
	ldr         w1,[sp,#0x30]
	ldr         w0,[sp,#0x34]
	bl          |?BackDirtyAdd@@YAXHHHH@Z|

; 1515 : 	DeodhaiRemoveWindow(win);

	ldr         x0,[sp]
	bl          |?DeodhaiRemoveWindow@@YAXPEAU_win_@@@Z|

; 1516 : 	_KePrint("Removing window \r\n");

	adrp        x8,|$SG8753|
	add         x0,x8,PageOffset(|$SG8753|)
	bl          _KePrint

; 1517 : 	//free(win);
; 1518 : 	PostEvent e;
; 1519 : 	e.to_id = ownerId;

	ldr         w8,[sp,#0x18]
	uxth        w8,w8
	strh        w8,[sp,#0x42]

; 1520 : 	e.type = DEODHAI_REPLY_WINDOW_CLOSED;

	mov         w8,#0x9C
	strb        w8,[sp,#0x40]

; 1521 : 	_KeFileIoControl(postbox_fd, POSTBOX_PUT_EVENT, &e);

	add         x2,sp,#0x40
	mov         w1,#0x193
	adrp        x8,|?postbox_fd@@3HA|
	ldr         w0,[x8,PageOffset(|?postbox_fd@@3HA|)]
	bl          _KeFileIoControl

; 1522 : 	_KePrint("Putting post box event \r\n");

	adrp        x8,|$SG8754|
	add         x0,x8,PageOffset(|$SG8754|)
	bl          _KePrint

; 1523 : 	if (!(flags & WINDOW_FLAG_MESSAGEBOX)) {

	ldrh        w8,[sp,#8]
	mov         w8,w8
	tbnz        x8,#7,|$LN5@DeodhaiClo|

; 1524 : 		/* now broadcast this information, that a
; 1525 : 		 * specific window has been destroyed
; 1526 : 		 */
; 1527 : 		memset(&e, 0, sizeof(PostEvent));

	mov         x2,#0xB0
	mov         w1,#0
	add         x0,sp,#0x40
	bl          memset

; 1528 : 		e.type = DEODHAI_BROADCAST_WINDESTROYED;

	mov         w8,#0xAB
	strb        w8,[sp,#0x40]

; 1529 : 		e.dword = ownerId;

	ldr         w8,[sp,#0x18]
	str         w8,[sp,#0x48]

; 1530 : 		e.dword2 = handle;

	ldr         w8,[sp,#0x38]
	str         w8,[sp,#0x4C]

; 1531 : 		DeodhaiBroadcastMessage(&e, NULL);

	mov         x1,#0
	add         x0,sp,#0x40
	bl          |?DeodhaiBroadcastMessage@@YAXPEAU_post_event_@@PEAU_win_@@@Z|

; 1532 : 		_KeProcessSleep(100);

	mov         x0,#0x64
	bl          _KeProcessSleep
|$LN5@DeodhaiClo|

; 1533 : 	}
; 1534 : 	_always_on_top_update = 1;

	adrp        x9,|?_always_on_top_update@@3DA|
	mov         w8,#1
	strb        w8,[x9,PageOffset(|?_always_on_top_update@@3DA|)]

; 1535 : 	_window_update_all_ = 1;

	adrp        x9,|?_window_update_all_@@3DA|
	mov         w8,#1
	strb        w8,[x9,PageOffset(|?_window_update_all_@@3DA|)]
	add         sp,sp,#0xF0
	ldr         lr,[sp],#0x10
	ret

	ENDP  ; |?DeodhaiCloseWindow@@YAXPEAU_win_@@@Z|, DeodhaiCloseWindow

; Function compile flags: /Odtpy
; File C:\Users\paras\source\repos\grep-name\XenevaOS\Process\Deodhai\deomain.cpp

	AREA	|.text$mn|, CODE, ARM64

|?DeodhaiBroadcastKey@@YAXH@Z| PROC			; DeodhaiBroadcastKey

; 1464 : void DeodhaiBroadcastKey(int code) {

|$LN4|
	str         lr,[sp,#-0x10]!
	sub         sp,sp,#0xC0
	str         w0,[sp]

; 1465 : 	if (!focusedWin)

	adrp        x8,|?focusedWin@@3PEAU_win_@@EA|
	ldr         x8,[x8,PageOffset(|?focusedWin@@3PEAU_win_@@EA|)]
	cmp         x8,#0
	bne         |$LN2@DeodhaiBro|

; 1466 : 		return;

	b           |$LN1@DeodhaiBro|
|$LN2@DeodhaiBro|

; 1467 : 	PostEvent e;
; 1468 : 	memset(&e, 0, sizeof(PostEvent));

	mov         x2,#0xB0
	mov         w1,#0
	add         x0,sp,#8
	bl          memset

; 1469 : 	e.type = DEODHAI_REPLY_KEY_EVENT;

	mov         w8,#0x98
	strb        w8,[sp,#8]

; 1470 : 	e.dword = code;

	ldr         w8,[sp]
	str         w8,[sp,#0x10]

; 1471 : 	e.dword2 = focusedWin->handle;

	adrp        x8,|?focusedWin@@3PEAU_win_@@EA|
	ldr         x8,[x8,PageOffset(|?focusedWin@@3PEAU_win_@@EA|)]
	add         x8,x8,#0x24
	ldr         w8,[x8]
	str         w8,[sp,#0x14]

; 1472 : 	e.to_id = focusedWin->ownerId;

	adrp        x8,|?focusedWin@@3PEAU_win_@@EA|
	ldr         x8,[x8,PageOffset(|?focusedWin@@3PEAU_win_@@EA|)]
	add         x8,x8,#2
	ldrh        w8,[x8]
	strh        w8,[sp,#0xA]

; 1473 : 	e.from_id = POSTBOX_ROOT_ID;

	mov         w8,#1
	strh        w8,[sp,#0xC]

; 1474 : 	_KeFileIoControl(postbox_fd, POSTBOX_PUT_EVENT, &e);

	add         x2,sp,#8
	mov         w1,#0x193
	adrp        x8,|?postbox_fd@@3HA|
	ldr         w0,[x8,PageOffset(|?postbox_fd@@3HA|)]
	bl          _KeFileIoControl
|$LN1@DeodhaiBro|
	add         sp,sp,#0xC0
	ldr         lr,[sp],#0x10
	ret

	ENDP  ; |?DeodhaiBroadcastKey@@YAXH@Z|, DeodhaiBroadcastKey

; Function compile flags: /Odtpy
; File C:\Users\paras\source\repos\grep-name\XenevaOS\Process\Deodhai\deomain.cpp

	AREA	|.text$mn|, CODE, ARM64

|?DeodhaiBroadcastTouch@@YAXHH@Z| PROC			; DeodhaiBroadcastTouch

; 1386 : void DeodhaiBroadcastTouch(int t_x, int t_y) {

|$LN23|
	str         lr,[sp,#-0x10]!
	sub         sp,sp,#0x50
	str         w0,[sp,#8]
	str         w1,[sp,#4]

; 1387 : 	Window* mouseWin = NULL;

	mov         x8,#0
	str         x8,[sp,#0x18]

; 1388 : 
; 1389 : 	if (focusedWin) {

	adrp        x8,|?focusedWin@@3PEAU_win_@@EA|
	ldr         x8,[x8,PageOffset(|?focusedWin@@3PEAU_win_@@EA|)]
	cmp         x8,#0
	beq         |$LN8@DeodhaiBro|

; 1390 : 		WinSharedInfo* info = (WinSharedInfo*)focusedWin->sharedInfo;

	adrp        x8,|?focusedWin@@3PEAU_win_@@EA|
	ldr         x8,[x8,PageOffset(|?focusedWin@@3PEAU_win_@@EA|)]
	add         x8,x8,#0x10
	ldr         x8,[x8]
	str         x8,[sp,#0x20]

; 1391 : 		if (!info->hide) {

	ldr         x9,[sp,#0x20]
	mov         x8,#0x1019
	add         x8,x9,x8
	ldrsb       w8,[x8]
	mov         w8,w8
	cmp         w8,#0
	bne         |$LN9@DeodhaiBro|

; 1392 : 			if (t_x >= info->x && (t_x < (info->x + info->width)) &&
; 1393 : 				t_y >= info->y && (t_y < (info->y + info->height))) {

	ldr         x9,[sp,#0x20]
	mov         x8,#0x1008
	add         x8,x9,x8
	ldr         w9,[x8]
	ldr         w8,[sp,#8]
	cmp         w8,w9
	blt         |$LN10@DeodhaiBro|
	ldr         x9,[sp,#0x20]
	mov         x8,#0x1008
	add         x10,x9,x8
	ldr         x9,[sp,#0x20]
	mov         x8,#0x1010
	add         x8,x9,x8
	ldr         w9,[x10]
	ldr         w8,[x8]
	add         w9,w9,w8
	ldr         w8,[sp,#8]
	cmp         w8,w9
	bge         |$LN10@DeodhaiBro|
	ldr         x9,[sp,#0x20]
	mov         x8,#0x100C
	add         x8,x9,x8
	ldr         w9,[x8]
	ldr         w8,[sp,#4]
	cmp         w8,w9
	blt         |$LN10@DeodhaiBro|
	ldr         x9,[sp,#0x20]
	mov         x8,#0x100C
	add         x10,x9,x8
	ldr         x9,[sp,#0x20]
	mov         x8,#0x1014
	add         x8,x9,x8
	ldr         w9,[x10]
	ldr         w8,[x8]
	add         w9,w9,w8
	ldr         w8,[sp,#4]
	cmp         w8,w9
	bge         |$LN10@DeodhaiBro|

; 1394 : 				mouseWin = focusedWin;

	adrp        x8,|?focusedWin@@3PEAU_win_@@EA|
	ldr         x8,[x8,PageOffset(|?focusedWin@@3PEAU_win_@@EA|)]
	str         x8,[sp,#0x18]

; 1395 : 				/* skip others */
; 1396 : 				goto broadcast;

	b           |$LN11@DeodhaiBro|
	b           |$broadcast$24|
|$LN10@DeodhaiBro|
|$LN9@DeodhaiBro|
|$LN8@DeodhaiBro|

; 1397 : 			}
; 1398 : 		}
; 1399 : 	}
; 1400 : 	if (!mouseWin) {

	ldr         x8,[sp,#0x18]
	cmp         x8,#0
	bne         |$LN12@DeodhaiBro|

; 1401 : 		/* check for normal windows */
; 1402 : 		for (Window* win = rootWin; win != NULL; win = win->next) {

	adrp        x8,|?rootWin@@3PEAU_win_@@EA|
	ldr         x8,[x8,PageOffset(|?rootWin@@3PEAU_win_@@EA|)]
	str         x8,[sp,#0x10]
	b           |$LN4@DeodhaiBro|
|$LN2@DeodhaiBro|
	ldr         x8,[sp,#0x10]
	add         x8,x8,#0x68
	ldr         x8,[x8]
	str         x8,[sp,#0x10]
|$LN4@DeodhaiBro|
	ldr         x8,[sp,#0x10]
	cmp         x8,#0
	beq         |$LN3@DeodhaiBro|

; 1403 : 			WinSharedInfo* info = (WinSharedInfo*)win->sharedInfo;

	ldr         x8,[sp,#0x10]
	add         x8,x8,#0x10
	ldr         x8,[x8]
	str         x8,[sp,#0x28]

; 1404 : 			if (info->hide)

	ldr         x9,[sp,#0x28]
	mov         x8,#0x1019
	add         x8,x9,x8
	ldrsb       w8,[x8]
	mov         w8,w8
	cmp         w8,#0
	beq         |$LN13@DeodhaiBro|

; 1405 : 				continue;

	b           |$LN2@DeodhaiBro|
|$LN13@DeodhaiBro|

; 1406 : 			if (t_x >= info->x && (t_x < (info->x + info->width)) &&
; 1407 : 				t_y >= info->y && (t_y < (info->y + info->height))) {

	ldr         x9,[sp,#0x28]
	mov         x8,#0x1008
	add         x8,x9,x8
	ldr         w9,[x8]
	ldr         w8,[sp,#8]
	cmp         w8,w9
	blt         |$LN14@DeodhaiBro|
	ldr         x9,[sp,#0x28]
	mov         x8,#0x1008
	add         x10,x9,x8
	ldr         x9,[sp,#0x28]
	mov         x8,#0x1010
	add         x8,x9,x8
	ldr         w9,[x10]
	ldr         w8,[x8]
	add         w9,w9,w8
	ldr         w8,[sp,#8]
	cmp         w8,w9
	bge         |$LN14@DeodhaiBro|
	ldr         x9,[sp,#0x28]
	mov         x8,#0x100C
	add         x8,x9,x8
	ldr         w9,[x8]
	ldr         w8,[sp,#4]
	cmp         w8,w9
	blt         |$LN14@DeodhaiBro|
	ldr         x9,[sp,#0x28]
	mov         x8,#0x100C
	add         x10,x9,x8
	ldr         x9,[sp,#0x28]
	mov         x8,#0x1014
	add         x8,x9,x8
	ldr         w9,[x10]
	ldr         w8,[x8]
	add         w9,w9,w8
	ldr         w8,[sp,#4]
	cmp         w8,w9
	bge         |$LN14@DeodhaiBro|

; 1408 : 
; 1409 : 				if (DeodhaiCheckWindowPointOcclusion(win, t_x, t_y))

	ldr         w2,[sp,#4]
	ldr         w1,[sp,#8]
	ldr         x0,[sp,#0x10]
	bl          |?DeodhaiCheckWindowPointOcclusion@@YADPEAU_win_@@HH@Z|
	sxtb        w8,w0
	mov         w8,w8
	cmp         w8,#0
	beq         |$LN15@DeodhaiBro|

; 1410 : 					continue;

	b           |$LN2@DeodhaiBro|
|$LN15@DeodhaiBro|

; 1411 : 				if (win->flags & WINDOW_FLAG_BLOCKED)

	ldr         x8,[sp,#0x10]
	ldrh        w8,[x8]
	mov         w8,w8
	tbz         x8,#6,|$LN16@DeodhaiBro|

; 1412 : 					continue;

	b           |$LN2@DeodhaiBro|
|$LN16@DeodhaiBro|

; 1413 : 
; 1414 : 				/* PHILOSOPHY: if mouse event was sent to unfocused window
; 1415 : 				 * and if the mouse points goes to some kind of widget or object
; 1416 : 				 * it will be an hover message, if mouse left button was clicked
; 1417 : 				 * within than hovered object of unfocused window, make that
; 1418 : 				 * window focused and bring it to front and update all window
; 1419 : 				 * and shadow effects
; 1420 : 				 */
; 1421 : 				if (focusedWin != win) {

	ldr         x9,[sp,#0x10]
	adrp        x8,|?focusedWin@@3PEAU_win_@@EA|
	ldr         x8,[x8,PageOffset(|?focusedWin@@3PEAU_win_@@EA|)]
	cmp         x8,x9
	beq         |$LN17@DeodhaiBro|

; 1422 : 					DeodhaiWindowSetFocused(win, 1);

	mov         w1,#1
	ldr         x0,[sp,#0x10]
	bl          |?DeodhaiWindowSetFocused@@YAXPEAU_win_@@D@Z|

; 1423 : 					_window_update_all_ = true;

	adrp        x9,|?_window_update_all_@@3DA|
	mov         w8,#1
	strb        w8,[x9,PageOffset(|?_window_update_all_@@3DA|)]

; 1424 : 					_shadow_update = true;

	adrp        x9,|?_shadow_update@@3DA|
	mov         w8,#1
	strb        w8,[x9,PageOffset(|?_shadow_update@@3DA|)]
|$LN17@DeodhaiBro|

; 1425 : 				}
; 1426 : 				mouseWin = win;

	ldr         x8,[sp,#0x10]
	str         x8,[sp,#0x18]

; 1427 : 				break;

	b           |$LN3@DeodhaiBro|
|$LN14@DeodhaiBro|

; 1428 : 			}
; 1429 : 		}

	b           |$LN2@DeodhaiBro|
|$LN3@DeodhaiBro|

; 1430 : 
; 1431 : 
; 1432 : 		/* check for always on top windows */
; 1433 : 		for (Window* win = alwaysOnTop; win != NULL; win = win->next) {

	adrp        x8,|?alwaysOnTop@@3PEAU_win_@@EA|
	ldr         x8,[x8,PageOffset(|?alwaysOnTop@@3PEAU_win_@@EA|)]
	str         x8,[sp,#0x38]
	b           |$LN7@DeodhaiBro|
|$LN5@DeodhaiBro|
	ldr         x8,[sp,#0x38]
	add         x8,x8,#0x68
	ldr         x8,[x8]
	str         x8,[sp,#0x38]
|$LN7@DeodhaiBro|
	ldr         x8,[sp,#0x38]
	cmp         x8,#0
	beq         |$LN6@DeodhaiBro|

; 1434 : 			WinSharedInfo* info = (WinSharedInfo*)win->sharedInfo;

	ldr         x8,[sp,#0x38]
	add         x8,x8,#0x10
	ldr         x8,[x8]
	str         x8,[sp,#0x30]

; 1435 : 			if (info->hide)

	ldr         x9,[sp,#0x30]
	mov         x8,#0x1019
	add         x8,x9,x8
	ldrsb       w8,[x8]
	mov         w8,w8
	cmp         w8,#0
	beq         |$LN18@DeodhaiBro|

; 1436 : 				continue;

	b           |$LN5@DeodhaiBro|
|$LN18@DeodhaiBro|

; 1437 : 			if (t_x >= info->x && (t_x < (info->x + info->width)) &&
; 1438 : 				t_y >= info->y && (t_y < (info->y + info->height))) {

	ldr         x9,[sp,#0x30]
	mov         x8,#0x1008
	add         x8,x9,x8
	ldr         w9,[x8]
	ldr         w8,[sp,#8]
	cmp         w8,w9
	blt         |$LN19@DeodhaiBro|
	ldr         x9,[sp,#0x30]
	mov         x8,#0x1008
	add         x10,x9,x8
	ldr         x9,[sp,#0x30]
	mov         x8,#0x1010
	add         x8,x9,x8
	ldr         w9,[x10]
	ldr         w8,[x8]
	add         w9,w9,w8
	ldr         w8,[sp,#8]
	cmp         w8,w9
	bge         |$LN19@DeodhaiBro|
	ldr         x9,[sp,#0x30]
	mov         x8,#0x100C
	add         x8,x9,x8
	ldr         w9,[x8]
	ldr         w8,[sp,#4]
	cmp         w8,w9
	blt         |$LN19@DeodhaiBro|
	ldr         x9,[sp,#0x30]
	mov         x8,#0x100C
	add         x10,x9,x8
	ldr         x9,[sp,#0x30]
	mov         x8,#0x1014
	add         x8,x9,x8
	ldr         w9,[x10]
	ldr         w8,[x8]
	add         w9,w9,w8
	ldr         w8,[sp,#4]
	cmp         w8,w9
	bge         |$LN19@DeodhaiBro|

; 1439 : 				mouseWin = win;

	ldr         x8,[sp,#0x38]
	str         x8,[sp,#0x18]

; 1440 : 				break;

	b           |$LN6@DeodhaiBro|
|$LN19@DeodhaiBro|

; 1441 : 			}
; 1442 : 		}

	b           |$LN5@DeodhaiBro|
|$LN6@DeodhaiBro|
|$LN12@DeodhaiBro|
|$LN11@DeodhaiBro|
|$broadcast$24|

; 1443 : 	}
; 1444 : 
; 1445 : broadcast:
; 1446 : 	if (mouseWin) {

	ldr         x8,[sp,#0x18]
	cmp         x8,#0
	beq         |$LN20@DeodhaiBro|

; 1447 : 		WinSharedInfo* info = (WinSharedInfo*)mouseWin->sharedInfo;

	ldr         x8,[sp,#0x18]
	add         x8,x8,#0x10
	ldr         x8,[x8]
	str         x8,[sp,#0x48]

; 1448 : 		
; 1449 : 		int handle = mouseWin->handle;

	ldr         x8,[sp,#0x18]
	add         x8,x8,#0x24
	ldr         w8,[x8]
	str         w8,[sp,#0x40]

; 1450 : 		uint8_t handleType = HANDLE_TYPE_NORMAL_WINDOW;

	mov         w8,#1
	strb        w8,[sp]

; 1451 : 		if ((mouseWin->flags & WINDOW_FLAG_POPUP))

	ldr         x8,[sp,#0x18]
	ldrh        w8,[x8]
	mov         w8,w8
	tbz         x8,#0xB,|$LN21@DeodhaiBro|

; 1452 : 			handleType = HANDLE_TYPE_POPUP_WINDOW;

	mov         w8,#2
	strb        w8,[sp]
|$LN21@DeodhaiBro|

; 1453 : 
; 1454 : 		DeodhaiSendMouseEvent(handle, mouseWin->ownerId, handleType, DEODHAI_REPLY_TOUCH_EVENT, t_x, t_y, 0x1);

	ldr         x8,[sp,#0x18]
	add         x8,x8,#2
	ldrh        w1,[x8]
	mov         w1,w1
	mov         w6,#1
	ldr         w5,[sp,#4]
	ldr         w4,[sp,#8]
	mov         w3,#0x9E
	ldrb        w2,[sp]
	mov         w1,w1
	ldr         w0,[sp,#0x40]
	bl          |?DeodhaiSendMouseEvent@@YAXHHEEHHH@Z|
|$LN20@DeodhaiBro|
	add         sp,sp,#0x50
	ldr         lr,[sp],#0x10
	ret

	ENDP  ; |?DeodhaiBroadcastTouch@@YAXHH@Z|, DeodhaiBroadcastTouch

; Function compile flags: /Odtpy
; File C:\Users\paras\source\repos\grep-name\XenevaOS\Process\Deodhai\deomain.cpp

	AREA	|.text$mn|, CODE, ARM64

|?DeodhaiBroadcastMouse@@YAXHHH@Z| PROC			; DeodhaiBroadcastMouse

; 1285 : void DeodhaiBroadcastMouse(int mouse_x, int mouse_y, int button) {

|$LN29|
	str         lr,[sp,#-0x10]!
	sub         sp,sp,#0x60
	str         w0,[sp,#8]
	str         w1,[sp,#4]
	str         w2,[sp,#0x20]

; 1286 : 	Window* mouseWin = NULL;

	mov         x8,#0
	str         x8,[sp,#0x10]

; 1287 : 	bool cursorRestore;
; 1288 : 
; 1289 : 	if (focusedWin) {

	adrp        x8,|?focusedWin@@3PEAU_win_@@EA|
	ldr         x8,[x8,PageOffset(|?focusedWin@@3PEAU_win_@@EA|)]
	cmp         x8,#0
	beq         |$LN8@DeodhaiBro|

; 1290 : 		WinSharedInfo* info = (WinSharedInfo*)focusedWin->sharedInfo;

	adrp        x8,|?focusedWin@@3PEAU_win_@@EA|
	ldr         x8,[x8,PageOffset(|?focusedWin@@3PEAU_win_@@EA|)]
	add         x8,x8,#0x10
	ldr         x8,[x8]
	str         x8,[sp,#0x28]

; 1291 : 		if (!info->hide){

	ldr         x9,[sp,#0x28]
	mov         x8,#0x1019
	add         x8,x9,x8
	ldrsb       w8,[x8]
	mov         w8,w8
	cmp         w8,#0
	bne         |$LN9@DeodhaiBro|

; 1292 : 			if (mouse_x >= info->x && (mouse_x < (info->x + info->width)) &&
; 1293 : 				mouse_y >= info->y && (mouse_y < (info->y + info->height))){

	ldr         x9,[sp,#0x28]
	mov         x8,#0x1008
	add         x8,x9,x8
	ldr         w9,[x8]
	ldr         w8,[sp,#8]
	cmp         w8,w9
	blt         |$LN10@DeodhaiBro|
	ldr         x9,[sp,#0x28]
	mov         x8,#0x1008
	add         x10,x9,x8
	ldr         x9,[sp,#0x28]
	mov         x8,#0x1010
	add         x8,x9,x8
	ldr         w9,[x10]
	ldr         w8,[x8]
	add         w9,w9,w8
	ldr         w8,[sp,#8]
	cmp         w8,w9
	bge         |$LN10@DeodhaiBro|
	ldr         x9,[sp,#0x28]
	mov         x8,#0x100C
	add         x8,x9,x8
	ldr         w9,[x8]
	ldr         w8,[sp,#4]
	cmp         w8,w9
	blt         |$LN10@DeodhaiBro|
	ldr         x9,[sp,#0x28]
	mov         x8,#0x100C
	add         x10,x9,x8
	ldr         x9,[sp,#0x28]
	mov         x8,#0x1014
	add         x8,x9,x8
	ldr         w9,[x10]
	ldr         w8,[x8]
	add         w9,w9,w8
	ldr         w8,[sp,#4]
	cmp         w8,w9
	bge         |$LN10@DeodhaiBro|

; 1294 : 				mouseWin = focusedWin;

	adrp        x8,|?focusedWin@@3PEAU_win_@@EA|
	ldr         x8,[x8,PageOffset(|?focusedWin@@3PEAU_win_@@EA|)]
	str         x8,[sp,#0x10]

; 1295 : 				/* skip others */
; 1296 : 				goto broadcast;

	b           |$LN11@DeodhaiBro|
	b           |$broadcast$30|
|$LN10@DeodhaiBro|
|$LN9@DeodhaiBro|
|$LN8@DeodhaiBro|

; 1297 : 			}
; 1298 : 		}
; 1299 : 	}
; 1300 : 	if (!mouseWin) {

	ldr         x8,[sp,#0x10]
	cmp         x8,#0
	bne         |$LN12@DeodhaiBro|

; 1301 : 		/* check for normal windows */
; 1302 : 		for (Window* win = rootWin; win != NULL; win = win->next){

	adrp        x8,|?rootWin@@3PEAU_win_@@EA|
	ldr         x8,[x8,PageOffset(|?rootWin@@3PEAU_win_@@EA|)]
	str         x8,[sp,#0x18]
	b           |$LN4@DeodhaiBro|
|$LN2@DeodhaiBro|
	ldr         x8,[sp,#0x18]
	add         x8,x8,#0x68
	ldr         x8,[x8]
	str         x8,[sp,#0x18]
|$LN4@DeodhaiBro|
	ldr         x8,[sp,#0x18]
	cmp         x8,#0
	beq         |$LN3@DeodhaiBro|

; 1303 : 			WinSharedInfo* info = (WinSharedInfo*)win->sharedInfo;

	ldr         x8,[sp,#0x18]
	add         x8,x8,#0x10
	ldr         x8,[x8]
	str         x8,[sp,#0x30]

; 1304 : 			if (info->hide)

	ldr         x9,[sp,#0x30]
	mov         x8,#0x1019
	add         x8,x9,x8
	ldrsb       w8,[x8]
	mov         w8,w8
	cmp         w8,#0
	beq         |$LN13@DeodhaiBro|

; 1305 : 				continue;

	b           |$LN2@DeodhaiBro|
|$LN13@DeodhaiBro|

; 1306 : 			if (mouse_x >= info->x && (mouse_x < (info->x + info->width)) &&
; 1307 : 				mouse_y >= info->y && (mouse_y < (info->y + info->height))) {

	ldr         x9,[sp,#0x30]
	mov         x8,#0x1008
	add         x8,x9,x8
	ldr         w9,[x8]
	ldr         w8,[sp,#8]
	cmp         w8,w9
	blt         |$LN14@DeodhaiBro|
	ldr         x9,[sp,#0x30]
	mov         x8,#0x1008
	add         x10,x9,x8
	ldr         x9,[sp,#0x30]
	mov         x8,#0x1010
	add         x8,x9,x8
	ldr         w9,[x10]
	ldr         w8,[x8]
	add         w9,w9,w8
	ldr         w8,[sp,#8]
	cmp         w8,w9
	bge         |$LN14@DeodhaiBro|
	ldr         x9,[sp,#0x30]
	mov         x8,#0x100C
	add         x8,x9,x8
	ldr         w9,[x8]
	ldr         w8,[sp,#4]
	cmp         w8,w9
	blt         |$LN14@DeodhaiBro|
	ldr         x9,[sp,#0x30]
	mov         x8,#0x100C
	add         x10,x9,x8
	ldr         x9,[sp,#0x30]
	mov         x8,#0x1014
	add         x8,x9,x8
	ldr         w9,[x10]
	ldr         w8,[x8]
	add         w9,w9,w8
	ldr         w8,[sp,#4]
	cmp         w8,w9
	bge         |$LN14@DeodhaiBro|

; 1308 : 
; 1309 : 				if (DeodhaiCheckWindowPointOcclusion(win, mouse_x, mouse_y))

	ldr         w2,[sp,#4]
	ldr         w1,[sp,#8]
	ldr         x0,[sp,#0x18]
	bl          |?DeodhaiCheckWindowPointOcclusion@@YADPEAU_win_@@HH@Z|
	sxtb        w8,w0
	mov         w8,w8
	cmp         w8,#0
	beq         |$LN15@DeodhaiBro|

; 1310 : 					continue;

	b           |$LN2@DeodhaiBro|
|$LN15@DeodhaiBro|

; 1311 : 				if (win->flags & WINDOW_FLAG_BLOCKED)

	ldr         x8,[sp,#0x18]
	ldrh        w8,[x8]
	mov         w8,w8
	tbz         x8,#6,|$LN16@DeodhaiBro|

; 1312 : 					continue;

	b           |$LN2@DeodhaiBro|
|$LN16@DeodhaiBro|

; 1313 : 
; 1314 : 				/* PHILOSOPHY: if mouse event was sent to unfocused window
; 1315 : 				 * and if the mouse points goes to some kind of widget or object
; 1316 : 				 * it will be an hover message, if mouse left button was clicked
; 1317 : 				 * within than hovered object of unfocused window, make that
; 1318 : 				 * window focused and bring it to front and update all window
; 1319 : 				 * and shadow effects
; 1320 : 				 */
; 1321 : 				if (focusedWin != win && button){

	ldr         x9,[sp,#0x18]
	adrp        x8,|?focusedWin@@3PEAU_win_@@EA|
	ldr         x8,[x8,PageOffset(|?focusedWin@@3PEAU_win_@@EA|)]
	cmp         x8,x9
	beq         |$LN17@DeodhaiBro|
	ldr         w8,[sp,#0x20]
	cmp         w8,#0
	beq         |$LN17@DeodhaiBro|

; 1322 : 					DeodhaiWindowSetFocused(win, 1);

	mov         w1,#1
	ldr         x0,[sp,#0x18]
	bl          |?DeodhaiWindowSetFocused@@YAXPEAU_win_@@D@Z|

; 1323 : 					_window_update_all_ = true;

	adrp        x9,|?_window_update_all_@@3DA|
	mov         w8,#1
	strb        w8,[x9,PageOffset(|?_window_update_all_@@3DA|)]

; 1324 : 					_shadow_update = true;

	adrp        x9,|?_shadow_update@@3DA|
	mov         w8,#1
	strb        w8,[x9,PageOffset(|?_shadow_update@@3DA|)]
|$LN17@DeodhaiBro|

; 1325 : 				}
; 1326 : 				mouseWin = win;

	ldr         x8,[sp,#0x18]
	str         x8,[sp,#0x10]

; 1327 : 				break;

	b           |$LN3@DeodhaiBro|
|$LN14@DeodhaiBro|

; 1328 : 			}
; 1329 : 		}

	b           |$LN2@DeodhaiBro|
|$LN3@DeodhaiBro|

; 1330 : 
; 1331 : 
; 1332 : 		/* check for always on top windows */
; 1333 : 		for (Window* win = alwaysOnTop; win != NULL; win = win->next){

	adrp        x8,|?alwaysOnTop@@3PEAU_win_@@EA|
	ldr         x8,[x8,PageOffset(|?alwaysOnTop@@3PEAU_win_@@EA|)]
	str         x8,[sp,#0x48]
	b           |$LN7@DeodhaiBro|
|$LN5@DeodhaiBro|
	ldr         x8,[sp,#0x48]
	add         x8,x8,#0x68
	ldr         x8,[x8]
	str         x8,[sp,#0x48]
|$LN7@DeodhaiBro|
	ldr         x8,[sp,#0x48]
	cmp         x8,#0
	beq         |$LN6@DeodhaiBro|

; 1334 : 			WinSharedInfo* info = (WinSharedInfo*)win->sharedInfo;

	ldr         x8,[sp,#0x48]
	add         x8,x8,#0x10
	ldr         x8,[x8]
	str         x8,[sp,#0x38]

; 1335 : 			if (info->hide)

	ldr         x9,[sp,#0x38]
	mov         x8,#0x1019
	add         x8,x9,x8
	ldrsb       w8,[x8]
	mov         w8,w8
	cmp         w8,#0
	beq         |$LN18@DeodhaiBro|

; 1336 : 				continue;

	b           |$LN5@DeodhaiBro|
|$LN18@DeodhaiBro|

; 1337 : 			if (mouse_x >= info->x && (mouse_x < (info->x + info->width)) &&
; 1338 : 				mouse_y >= info->y && (mouse_y < (info->y + info->height))) {

	ldr         x9,[sp,#0x38]
	mov         x8,#0x1008
	add         x8,x9,x8
	ldr         w9,[x8]
	ldr         w8,[sp,#8]
	cmp         w8,w9
	blt         |$LN19@DeodhaiBro|
	ldr         x9,[sp,#0x38]
	mov         x8,#0x1008
	add         x10,x9,x8
	ldr         x9,[sp,#0x38]
	mov         x8,#0x1010
	add         x8,x9,x8
	ldr         w9,[x10]
	ldr         w8,[x8]
	add         w9,w9,w8
	ldr         w8,[sp,#8]
	cmp         w8,w9
	bge         |$LN19@DeodhaiBro|
	ldr         x9,[sp,#0x38]
	mov         x8,#0x100C
	add         x8,x9,x8
	ldr         w9,[x8]
	ldr         w8,[sp,#4]
	cmp         w8,w9
	blt         |$LN19@DeodhaiBro|
	ldr         x9,[sp,#0x38]
	mov         x8,#0x100C
	add         x10,x9,x8
	ldr         x9,[sp,#0x38]
	mov         x8,#0x1014
	add         x8,x9,x8
	ldr         w9,[x10]
	ldr         w8,[x8]
	add         w9,w9,w8
	ldr         w8,[sp,#4]
	cmp         w8,w9
	bge         |$LN19@DeodhaiBro|

; 1339 : 				mouseWin = win;

	ldr         x8,[sp,#0x48]
	str         x8,[sp,#0x10]

; 1340 : 				break;

	b           |$LN6@DeodhaiBro|
|$LN19@DeodhaiBro|

; 1341 : 			}
; 1342 : 		}

	b           |$LN5@DeodhaiBro|
|$LN6@DeodhaiBro|
|$LN12@DeodhaiBro|
|$LN11@DeodhaiBro|
|$broadcast$30|

; 1343 : 	}
; 1344 : 
; 1345 : broadcast:
; 1346 : 	if (mouseWin){

	ldr         x8,[sp,#0x10]
	cmp         x8,#0
	beq         |$LN20@DeodhaiBro|

; 1347 : 		WinSharedInfo* info = (WinSharedInfo*)mouseWin->sharedInfo;

	ldr         x8,[sp,#0x10]
	add         x8,x8,#0x10
	ldr         x8,[x8]
	str         x8,[sp,#0x58]

; 1348 : 		DeodhaiResizeCursorUpdate(mouse_x, mouse_y, info);

	ldr         x2,[sp,#0x58]
	ldr         w1,[sp,#4]
	ldr         w0,[sp,#8]
	bl          |?DeodhaiResizeCursorUpdate@@YAXHHPEAU_win_info_@@@Z|

; 1349 : 
; 1350 : 		int handle = mouseWin->handle;

	ldr         x8,[sp,#0x10]
	add         x8,x8,#0x24
	ldr         w8,[x8]
	str         w8,[sp,#0x50]

; 1351 : 		uint8_t handleType = HANDLE_TYPE_NORMAL_WINDOW;

	mov         w8,#1
	strb        w8,[sp]

; 1352 : 		if ((mouseWin->flags & WINDOW_FLAG_POPUP))

	ldr         x8,[sp,#0x10]
	ldrh        w8,[x8]
	mov         w8,w8
	tbz         x8,#0xB,|$LN21@DeodhaiBro|

; 1353 : 			handleType = HANDLE_TYPE_POPUP_WINDOW;

	mov         w8,#2
	strb        w8,[sp]
|$LN21@DeodhaiBro|

; 1354 : 
; 1355 : 		/* handle mouse last window hover */
; 1356 : 		if (mouseLastHovered) {

	adrp        x8,|?mouseLastHovered@@3PEAU_win_@@EA|
	ldr         x8,[x8,PageOffset(|?mouseLastHovered@@3PEAU_win_@@EA|)]
	cmp         x8,#0
	beq         |$LN22@DeodhaiBro|

; 1357 : 			if (mouseLastHovered != mouseWin) {

	ldr         x9,[sp,#0x10]
	adrp        x8,|?mouseLastHovered@@3PEAU_win_@@EA|
	ldr         x8,[x8,PageOffset(|?mouseLastHovered@@3PEAU_win_@@EA|)]
	cmp         x8,x9
	beq         |$LN23@DeodhaiBro|

; 1358 : 				int lastWinHandleType = HANDLE_TYPE_NORMAL_WINDOW;

	mov         w8,#1
	str         w8,[sp,#0x40]

; 1359 : 				if ((mouseLastHovered->flags & WINDOW_FLAG_POPUP))

	adrp        x8,|?mouseLastHovered@@3PEAU_win_@@EA|
	ldr         x8,[x8,PageOffset(|?mouseLastHovered@@3PEAU_win_@@EA|)]
	ldrh        w8,[x8]
	mov         w8,w8
	tbz         x8,#0xB,|$LN24@DeodhaiBro|

; 1360 : 					lastWinHandleType = HANDLE_TYPE_POPUP_WINDOW;

	mov         w8,#2
	str         w8,[sp,#0x40]
|$LN24@DeodhaiBro|

; 1361 : 				DeodhaiSendMouseEvent(mouseLastHovered->handle, mouseLastHovered->ownerId, lastWinHandleType,

	ldr         w8,[sp,#0x40]
	uxtb        w2,w8
	adrp        x8,|?mouseLastHovered@@3PEAU_win_@@EA|
	ldr         x8,[x8,PageOffset(|?mouseLastHovered@@3PEAU_win_@@EA|)]
	add         x8,x8,#2
	ldrh        w1,[x8]
	mov         w1,w1
	adrp        x8,|?mouseLastHovered@@3PEAU_win_@@EA|
	ldr         x8,[x8,PageOffset(|?mouseLastHovered@@3PEAU_win_@@EA|)]
	add         x8,x8,#0x24
	ldr         w6,[sp,#0x20]
	ldr         w5,[sp,#4]
	ldr         w4,[sp,#8]
	mov         w3,#0x9D
	mov         w2,w2
	mov         w1,w1
	ldr         w0,[x8]
	bl          |?DeodhaiSendMouseEvent@@YAXHHEEHHH@Z|
|$LN23@DeodhaiBro|
|$LN22@DeodhaiBro|

; 1362 : 					DEODHAI_REPLY_MOUSE_LEAVE, mouse_x, mouse_y, button);
; 1363 : 			//	_KeProcessSleep(100);
; 1364 : 			}
; 1365 : 		}
; 1366 : 
; 1367 : 		mouseLastHovered = mouseWin;

	adrp        x9,|?mouseLastHovered@@3PEAU_win_@@EA|
	ldr         x8,[sp,#0x10]
	str         x8,[x9,PageOffset(|?mouseLastHovered@@3PEAU_win_@@EA|)]

; 1368 : 		DeodhaiSendMouseEvent(handle,mouseWin->ownerId, handleType,DEODHAI_REPLY_MOUSE_EVENT,mouse_x, mouse_y, button);

	ldr         x8,[sp,#0x10]
	add         x8,x8,#2
	ldrh        w1,[x8]
	mov         w1,w1
	ldr         w6,[sp,#0x20]
	ldr         w5,[sp,#4]
	ldr         w4,[sp,#8]
	mov         w3,#0x97
	ldrb        w2,[sp]
	mov         w1,w1
	ldr         w0,[sp,#0x50]
	bl          |?DeodhaiSendMouseEvent@@YAXHHEEHHH@Z|
|$LN20@DeodhaiBro|

; 1369 : 	}
; 1370 : 
; 1371 : 	if (!mouseWin) {

	ldr         x8,[sp,#0x10]
	cmp         x8,#0
	bne         |$LN25@DeodhaiBro|

; 1372 : 		if (currentCursor->type == CURSOR_TYPE_RESIZE_RIGHTLEFT ||

	adrp        x8,|?currentCursor@@3PEAU_cursor_@@EA|
	ldr         x8,[x8,PageOffset(|?currentCursor@@3PEAU_cursor_@@EA|)]
	ldrb        w8,[x8]
	mov         w8,w8
	cmp         w8,#6
	beq         |$LN27@DeodhaiBro|
	adrp        x8,|?currentCursor@@3PEAU_cursor_@@EA|
	ldr         x8,[x8,PageOffset(|?currentCursor@@3PEAU_cursor_@@EA|)]
	ldrb        w8,[x8]
	mov         w8,w8
	cmp         w8,#5
	bne         |$LN26@DeodhaiBro|
|$LN27@DeodhaiBro|

; 1373 : 			currentCursor->type == CURSOR_TYPE_RESIZE_UPDOWN)
; 1374 : 			ChangeCursor(arrow);

	adrp        x8,|?arrow@@3PEAU_cursor_@@EA|
	ldr         x0,[x8,PageOffset(|?arrow@@3PEAU_cursor_@@EA|)]
	bl          |?ChangeCursor@@YAXPEAU_cursor_@@@Z|
|$LN26@DeodhaiBro|
|$LN25@DeodhaiBro|
	add         sp,sp,#0x60
	ldr         lr,[sp],#0x10
	ret

	ENDP  ; |?DeodhaiBroadcastMouse@@YAXHHH@Z|, DeodhaiBroadcastMouse

; Function compile flags: /Odtpy
; File C:\Users\paras\source\repos\grep-name\XenevaOS\Process\Deodhai\deomain.cpp

	AREA	|.text$mn|, CODE, ARM64

|?DeodhaiResizeCursorUpdate@@YAXHHPEAU_win_info_@@@Z| PROC ; DeodhaiResizeCursorUpdate

; 1261 : void DeodhaiResizeCursorUpdate(int mouse_x, int mouse_y, WinSharedInfo* info) {

|$LN17|
	str         lr,[sp,#-0x10]!
	sub         sp,sp,#0x30
	str         w0,[sp,#8]
	str         w1,[sp,#0xC]
	str         x2,[sp,#0x10]

; 1262 : 	int left = info->x;

	ldr         x9,[sp,#0x10]
	mov         x8,#0x1008
	add         x8,x9,x8
	ldr         w8,[x8]
	str         w8,[sp,#0x18]

; 1263 : 	int right = info->x + info->width;

	ldr         x9,[sp,#0x10]
	mov         x8,#0x1008
	add         x10,x9,x8
	ldr         x9,[sp,#0x10]
	mov         x8,#0x1010
	add         x8,x9,x8
	ldr         w9,[x10]
	ldr         w8,[x8]
	add         w8,w9,w8
	str         w8,[sp,#0x1C]

; 1264 : 	int top = info->y;

	ldr         x9,[sp,#0x10]
	mov         x8,#0x100C
	add         x8,x9,x8
	ldr         w8,[x8]
	str         w8,[sp,#0x20]

; 1265 : 	int bottom = info->y + info->height;

	ldr         x9,[sp,#0x10]
	mov         x8,#0x100C
	add         x10,x9,x8
	ldr         x9,[sp,#0x10]
	mov         x8,#0x1014
	add         x8,x9,x8
	ldr         w9,[x10]
	ldr         w8,[x8]
	add         w8,w9,w8
	str         w8,[sp,#0x24]

; 1266 : 
; 1267 : 	bool onLeftEdge = (mouse_x >= left && mouse_x <= left + 5);

	ldr         w9,[sp,#0x18]
	ldr         w8,[sp,#8]
	cmp         w8,w9
	blt         |$LN9@DeodhaiRes|
	ldr         w8,[sp,#0x18]
	add         w9,w8,#5
	ldr         w8,[sp,#8]
	cmp         w8,w9
	bgt         |$LN9@DeodhaiRes|
	mov         w8,#1
	strb        w8,[sp]
	b           |$LN10@DeodhaiRes|
|$LN9@DeodhaiRes|
	mov         w8,#0
	strb        w8,[sp]
|$LN10@DeodhaiRes|
	ldrsb       w8,[sp]
	strb        w8,[sp,#4]

; 1268 : 	bool onRightEdge = (mouse_x <= right && mouse_x >= right - 12);

	ldr         w9,[sp,#0x1C]
	ldr         w8,[sp,#8]
	cmp         w8,w9
	bgt         |$LN11@DeodhaiRes|
	ldr         w8,[sp,#0x1C]
	sub         w9,w8,#0xC
	ldr         w8,[sp,#8]
	cmp         w8,w9
	blt         |$LN11@DeodhaiRes|
	mov         w8,#1
	strb        w8,[sp,#1]
	b           |$LN12@DeodhaiRes|
|$LN11@DeodhaiRes|
	mov         w8,#0
	strb        w8,[sp,#1]
|$LN12@DeodhaiRes|
	ldrsb       w8,[sp,#1]
	strb        w8,[sp,#5]

; 1269 : 	bool onTop = (mouse_y >= top && mouse_y <= top + 5);

	ldr         w9,[sp,#0x20]
	ldr         w8,[sp,#0xC]
	cmp         w8,w9
	blt         |$LN13@DeodhaiRes|
	ldr         w8,[sp,#0x20]
	add         w9,w8,#5
	ldr         w8,[sp,#0xC]
	cmp         w8,w9
	bgt         |$LN13@DeodhaiRes|
	mov         w8,#1
	strb        w8,[sp,#2]
	b           |$LN14@DeodhaiRes|
|$LN13@DeodhaiRes|
	mov         w8,#0
	strb        w8,[sp,#2]
|$LN14@DeodhaiRes|
	ldrsb       w8,[sp,#2]
	strb        w8,[sp,#6]

; 1270 : 	bool onBottom = (mouse_y <= bottom && mouse_y >= bottom - 12);

	ldr         w9,[sp,#0x24]
	ldr         w8,[sp,#0xC]
	cmp         w8,w9
	bgt         |$LN15@DeodhaiRes|
	ldr         w8,[sp,#0x24]
	sub         w9,w8,#0xC
	ldr         w8,[sp,#0xC]
	cmp         w8,w9
	blt         |$LN15@DeodhaiRes|
	mov         w8,#1
	strb        w8,[sp,#3]
	b           |$LN16@DeodhaiRes|
|$LN15@DeodhaiRes|
	mov         w8,#0
	strb        w8,[sp,#3]
|$LN16@DeodhaiRes|
	ldrsb       w8,[sp,#3]
	strb        w8,[sp,#7]

; 1271 : 
; 1272 : 	if (onLeftEdge || onRightEdge)

	ldrsb       w8,[sp,#4]
	mov         w8,w8
	cmp         w8,#0
	bne         |$LN4@DeodhaiRes|
	ldrsb       w8,[sp,#5]
	mov         w8,w8
	cmp         w8,#0
	beq         |$LN2@DeodhaiRes|
|$LN4@DeodhaiRes|

; 1273 : 		ChangeCursor(resizeLeftRight);

	adrp        x8,|?resizeLeftRight@@3PEAU_cursor_@@EA|
	ldr         x0,[x8,PageOffset(|?resizeLeftRight@@3PEAU_cursor_@@EA|)]
	bl          |?ChangeCursor@@YAXPEAU_cursor_@@@Z|
	b           |$LN3@DeodhaiRes|
|$LN2@DeodhaiRes|

; 1274 : 	else if (onTop || onBottom)

	ldrsb       w8,[sp,#6]
	mov         w8,w8
	cmp         w8,#0
	bne         |$LN7@DeodhaiRes|
	ldrsb       w8,[sp,#7]
	mov         w8,w8
	cmp         w8,#0
	beq         |$LN5@DeodhaiRes|
|$LN7@DeodhaiRes|

; 1275 : 		ChangeCursor(resizeUpDown);

	adrp        x8,|?resizeUpDown@@3PEAU_cursor_@@EA|
	ldr         x0,[x8,PageOffset(|?resizeUpDown@@3PEAU_cursor_@@EA|)]
	bl          |?ChangeCursor@@YAXPEAU_cursor_@@@Z|
	b           |$LN6@DeodhaiRes|
|$LN5@DeodhaiRes|

; 1276 : 	else
; 1277 : 		ChangeCursor(arrow);

	adrp        x8,|?arrow@@3PEAU_cursor_@@EA|
	ldr         x0,[x8,PageOffset(|?arrow@@3PEAU_cursor_@@EA|)]
	bl          |?ChangeCursor@@YAXPEAU_cursor_@@@Z|
|$LN6@DeodhaiRes|
|$LN3@DeodhaiRes|
	add         sp,sp,#0x30
	ldr         lr,[sp],#0x10
	ret

	ENDP  ; |?DeodhaiResizeCursorUpdate@@YAXHHPEAU_win_info_@@@Z|, DeodhaiResizeCursorUpdate

; Function compile flags: /Odtpy
; File C:\Users\paras\source\repos\grep-name\XenevaOS\Process\Deodhai\deomain.cpp

	AREA	|.text$mn|, CODE, ARM64

|?DeodhaiSendMouseEvent@@YAXHHEEHHH@Z| PROC		; DeodhaiSendMouseEvent

; 1244 : void DeodhaiSendMouseEvent(int handle,int ownerId,uint8_t handleType,uint8_t eventType, int x, int y, int button){

|$LN3|
	str         lr,[sp,#-0x10]!
	sub         sp,sp,#0xD0
	str         w0,[sp,#0x10]
	str         w1,[sp,#0x14]
	uxtb        w8,w2
	strb        w8,[sp,#1]
	uxtb        w8,w3
	strb        w8,[sp]
	str         w4,[sp,#4]
	str         w5,[sp,#8]
	str         w6,[sp,#0xC]

; 1245 : 	PostEvent e;
; 1246 : 	memset(&e, 0, sizeof(PostEvent));

	mov         x2,#0xB0
	mov         w1,#0
	add         x0,sp,#0x18
	bl          memset

; 1247 : 	e.type = eventType;

	ldrb        w8,[sp]
	strb        w8,[sp,#0x18]

; 1248 : 	e.dword = x;

	ldr         w8,[sp,#4]
	str         w8,[sp,#0x20]

; 1249 : 	e.dword2 = y;

	ldr         w8,[sp,#8]
	str         w8,[sp,#0x24]

; 1250 : 	e.dword3 = button;

	ldr         w8,[sp,#0xC]
	str         w8,[sp,#0x28]

; 1251 : 	e.dword4 = handle;

	ldr         w8,[sp,#0x10]
	str         w8,[sp,#0x2C]

; 1252 : 	e.dword5 = handleType;

	ldrb        w8,[sp,#1]
	mov         w8,w8
	str         w8,[sp,#0x30]

; 1253 : 	e.to_id = ownerId;

	ldr         w8,[sp,#0x14]
	uxth        w8,w8
	strh        w8,[sp,#0x1A]

; 1254 : 	e.from_id = POSTBOX_ROOT_ID;

	mov         w8,#1
	strh        w8,[sp,#0x1C]

; 1255 : 	_KeFileIoControl(postbox_fd, POSTBOX_PUT_EVENT, &e);

	add         x2,sp,#0x18
	mov         w1,#0x193
	adrp        x8,|?postbox_fd@@3HA|
	ldr         w0,[x8,PageOffset(|?postbox_fd@@3HA|)]
	bl          _KeFileIoControl
	add         sp,sp,#0xD0
	ldr         lr,[sp],#0x10
	ret

	ENDP  ; |?DeodhaiSendMouseEvent@@YAXHHEEHHH@Z|, DeodhaiSendMouseEvent

; Function compile flags: /Odtpy
; File C:\Users\paras\source\repos\grep-name\XenevaOS\Process\Deodhai\deomain.cpp

	AREA	|.text$mn|, CODE, ARM64

|?ComposeFrame@@YAXPEAU_ChCanvas_@@@Z| PROC		; ComposeFrame

; 590  : void ComposeFrame(ChCanvas *canvas) {

|$LN193|
	str         lr,[sp,#-0x10]!
	mov         x15,#0x1C0
	bl          __chkstk
	sub         sp,sp,x15,lsl #4
	str         x0,[sp,#8]

; 591  : 
; 592  : 	
; 593  : 	CursorDrawBack(canvas, currentCursor, currentCursor->oldXPos, currentCursor->oldYPos);

	adrp        x8,|?currentCursor@@3PEAU_cursor_@@EA|
	ldr         x8,[x8,PageOffset(|?currentCursor@@3PEAU_cursor_@@EA|)]
	add         x9,x8,#0x2C
	adrp        x8,|?currentCursor@@3PEAU_cursor_@@EA|
	ldr         x8,[x8,PageOffset(|?currentCursor@@3PEAU_cursor_@@EA|)]
	add         x8,x8,#0x28
	ldr         w3,[x9]
	ldr         w2,[x8]
	adrp        x8,|?currentCursor@@3PEAU_cursor_@@EA|
	ldr         x1,[x8,PageOffset(|?currentCursor@@3PEAU_cursor_@@EA|)]
	ldr         x0,[sp,#8]
	bl          |?CursorDrawBack@@YAXPEAU_ChCanvas_@@PEAU_cursor_@@II@Z|

; 594  : 	AddDirtyClip(currentCursor->oldXPos, currentCursor->oldYPos, 24, 24);

	adrp        x8,|?currentCursor@@3PEAU_cursor_@@EA|
	ldr         x8,[x8,PageOffset(|?currentCursor@@3PEAU_cursor_@@EA|)]
	add         x9,x8,#0x2C
	adrp        x8,|?currentCursor@@3PEAU_cursor_@@EA|
	ldr         x8,[x8,PageOffset(|?currentCursor@@3PEAU_cursor_@@EA|)]
	add         x8,x8,#0x28
	mov         w3,#0x18
	mov         w2,#0x18
	ldr         w1,[x9]
	ldr         w0,[x8]
	bl          |?AddDirtyClip@@YAXHHHH@Z|

; 595  : 	
; 596  : 	int _back_d_count_ = BackDirtyGetDirtyCount();

	bl          |?BackDirtyGetDirtyCount@@YAHXZ|
	mov         w0,w0
	str         w0,[sp,#0x18C]

; 597  : 
; 598  : 	/* here we redraw all dirty surface area*/
; 599  : 	if (_back_d_count_ > 0) {

	ldr         w8,[sp,#0x18C]
	cmp         w8,#0
	ble         |$LN98@ComposeFra|

; 600  : 		int x, y, w, h = 0;

	mov         w8,#0
	str         w8,[sp,#0x12C]

; 601  : 		for (int i = 0; i < _back_d_count_; i++) {

	mov         w8,#0
	str         w8,[sp,#0x114]
	b           |$LN4@ComposeFra|
|$LN2@ComposeFra|
	ldr         w8,[sp,#0x114]
	add         w8,w8,#1
	str         w8,[sp,#0x114]
|$LN4@ComposeFra|
	ldr         w9,[sp,#0x18C]
	ldr         w8,[sp,#0x114]
	cmp         w8,w9
	bge         |$LN3@ComposeFra|

; 602  : 			BackDirtyGetRect(&x, &y, &w, &h, i);

	ldr         w4,[sp,#0x114]
	add         x3,sp,#0x12C
	add         x2,sp,#0x188
	add         x1,sp,#0x184
	add         x0,sp,#0x180
	bl          |?BackDirtyGetRect@@YAXPEAH000H@Z|

; 603  : 			DeodhaiBackSurfaceUpdate(canvas, x, y, w, h);

	ldr         w4,[sp,#0x12C]
	ldr         w3,[sp,#0x188]
	ldr         w2,[sp,#0x184]
	ldr         w1,[sp,#0x180]
	ldr         x0,[sp,#8]
	bl          |?DeodhaiBackSurfaceUpdate@@YAXPEAU_ChCanvas_@@HHHH@Z|

; 604  : 			AddDirtyClip(x, y, w, h);

	ldr         w3,[sp,#0x12C]
	ldr         w2,[sp,#0x188]
	ldr         w1,[sp,#0x184]
	ldr         w0,[sp,#0x180]
	bl          |?AddDirtyClip@@YAXHHHH@Z|

; 605  : 		}

	b           |$LN2@ComposeFra|
|$LN3@ComposeFra|

; 606  : 		BackDirtyCountReset();

	bl          |?BackDirtyCountReset@@YAXXZ|
|$LN98@ComposeFra|

; 607  : 	}
; 608  : 
; 609  : 	for (Window* win = rootWin; win != NULL; win = win->next) {

	adrp        x8,|?rootWin@@3PEAU_win_@@EA|
	ldr         x8,[x8,PageOffset(|?rootWin@@3PEAU_win_@@EA|)]
	str         x8,[sp,#0x28]
	b           |$LN7@ComposeFra|
|$LN5@ComposeFra|
	ldr         x8,[sp,#0x28]
	add         x8,x8,#0x68
	ldr         x8,[x8]
	str         x8,[sp,#0x28]
|$LN7@ComposeFra|
	ldr         x8,[sp,#0x28]
	cmp         x8,#0
	beq         |$LN6@ComposeFra|

; 610  : 		WinSharedInfo* info = (WinSharedInfo*)win->sharedInfo;

	ldr         x8,[sp,#0x28]
	add         x8,x8,#0x10
	ldr         x8,[x8]
	str         x8,[sp]

; 611  : 
; 612  : 	
; 613  : 		if (info->hide) 

	ldr         x9,[sp]
	mov         x8,#0x1019
	add         x8,x9,x8
	ldrsb       w8,[x8]
	mov         w8,w8
	cmp         w8,#0
	beq         |$LN99@ComposeFra|

; 614  : 			continue;

	b           |$LN5@ComposeFra|
|$LN99@ComposeFra|

; 615  : 			
; 616  : 		/*
; 617  : 		 * Check for small area updates !! not entire window 
; 618  : 		 */
; 619  : 		if ((info->rect_count > 0) && (info->dirty)) {

	ldr         x8,[sp]
	add         x8,x8,#1,lsl #0xC
	ldr         w8,[x8]
	cmp         w8,#0
	bls         |$LN100@ComposeFra|
	ldr         x9,[sp]
	mov         x8,#0x1004
	add         x8,x9,x8
	ldrsb       w8,[x8]
	mov         w8,w8
	cmp         w8,#0
	beq         |$LN100@ComposeFra|

; 620  : 			for (int k = 0; k < info->rect_count; k++) {

	mov         w8,#0
	str         w8,[sp,#0x34]
	b           |$LN10@ComposeFra|
|$LN8@ComposeFra|
	ldr         w8,[sp,#0x34]
	add         w8,w8,#1
	str         w8,[sp,#0x34]
|$LN10@ComposeFra|
	ldr         x8,[sp]
	add         x8,x8,#1,lsl #0xC
	ldr         w9,[x8]
	ldr         w8,[sp,#0x34]
	cmp         w8,w9
	bhs         |$LN9@ComposeFra|

; 621  : 				int64_t r_x = info->rect[k].x;

	ldr         x10,[sp]
	ldr         w8,[sp,#0x34]
	sxtw        x9,w8
	mov         x8,#0x10
	mul         x8,x9,x8
	add         x8,x10,x8
	ldr         w8,[x8]
	sxtw        x8,w8
	str         x8,[sp,#0x80]

; 622  : 				int64_t r_y = info->rect[k].y;

	ldr         x10,[sp]
	ldr         w8,[sp,#0x34]
	sxtw        x9,w8
	mov         x8,#0x10
	mul         x8,x9,x8
	add         x8,x10,x8
	add         x8,x8,#4
	ldr         w8,[x8]
	sxtw        x8,w8
	str         x8,[sp,#0x78]

; 623  : 				int64_t r_w = info->rect[k].w;

	ldr         x10,[sp]
	ldr         w8,[sp,#0x34]
	sxtw        x9,w8
	mov         x8,#0x10
	mul         x8,x9,x8
	add         x8,x10,x8
	add         x8,x8,#8
	ldr         w8,[x8]
	sxtw        x8,w8
	str         x8,[sp,#0x140]

; 624  : 				int64_t r_h = info->rect[k].h;

	ldr         x10,[sp]
	ldr         w8,[sp,#0x34]
	sxtw        x9,w8
	mov         x8,#0x10
	mul         x8,x9,x8
	add         x8,x10,x8
	add         x8,x8,#0xC
	ldr         w8,[x8]
	sxtw        x8,w8
	str         x8,[sp,#0x138]

; 625  : 
; 626  : 				if (r_x < 0)

	ldr         x8,[sp,#0x80]
	cmp         x8,#0
	bge         |$LN101@ComposeFra|

; 627  : 					r_x = 0;

	mov         x8,#0
	str         x8,[sp,#0x80]
|$LN101@ComposeFra|

; 628  : 
; 629  : 				if (r_y < 0)

	ldr         x8,[sp,#0x78]
	cmp         x8,#0
	bge         |$LN102@ComposeFra|

; 630  : 					r_y = 0;

	mov         x8,#0
	str         x8,[sp,#0x78]
|$LN102@ComposeFra|

; 631  : 
; 632  : 				if ((info->x + r_x + r_w) >= canvas->canvasWidth)

	ldr         x9,[sp]
	mov         x8,#0x1008
	add         x8,x9,x8
	ldr         w8,[x8]
	sxtw        x9,w8
	ldr         x8,[sp,#0x80]
	add         x9,x9,x8
	ldr         x8,[sp,#0x140]
	add         x9,x9,x8
	ldr         x8,[sp,#8]
	add         x8,x8,#0x18
	ldr         w8,[x8]
	uxtw        x8,w8
	cmp         x9,x8
	blt         |$LN103@ComposeFra|

; 633  : 					r_w = canvas->canvasWidth - (info->x + r_x);

	ldr         x8,[sp,#8]
	add         x8,x8,#0x18
	ldr         w8,[x8]
	uxtw        x10,w8
	ldr         x9,[sp]
	mov         x8,#0x1008
	add         x8,x9,x8
	ldr         w8,[x8]
	sxtw        x9,w8
	ldr         x8,[sp,#0x80]
	add         x8,x9,x8
	sub         x8,x10,x8
	str         x8,[sp,#0x140]
|$LN103@ComposeFra|

; 634  : 
; 635  : 				if ((info->y + r_y + r_h) >= canvas->canvasHeight)

	ldr         x9,[sp]
	mov         x8,#0x100C
	add         x8,x9,x8
	ldr         w8,[x8]
	sxtw        x9,w8
	ldr         x8,[sp,#0x78]
	add         x9,x9,x8
	ldr         x8,[sp,#0x138]
	add         x9,x9,x8
	ldr         x8,[sp,#8]
	add         x8,x8,#0x1C
	ldr         w8,[x8]
	uxtw        x8,w8
	cmp         x9,x8
	blt         |$LN104@ComposeFra|

; 636  : 					r_h = canvas->canvasHeight - (info->y + r_y);

	ldr         x8,[sp,#8]
	add         x8,x8,#0x1C
	ldr         w8,[x8]
	uxtw        x10,w8
	ldr         x9,[sp]
	mov         x8,#0x100C
	add         x8,x9,x8
	ldr         w8,[x8]
	sxtw        x9,w8
	ldr         x8,[sp,#0x78]
	add         x8,x9,x8
	sub         x8,x10,x8
	str         x8,[sp,#0x138]
|$LN104@ComposeFra|

; 637  : 
; 638  : 				/* from here, we check if the small rectangle is
; 639  : 				 * covered by a window or another rectangle */
; 640  : 
; 641  : 				Rect r1;
; 642  : 				Rect r2;
; 643  : 				r1.x = info->x + r_x;

	ldr         x9,[sp]
	mov         x8,#0x1008
	add         x8,x9,x8
	ldr         w8,[x8]
	sxtw        x9,w8
	ldr         x8,[sp,#0x80]
	add         x8,x9,x8
	mov         w8,w8
	str         w8,[sp,#0x268]

; 644  : 				r1.y = info->y + r_y;

	ldr         x9,[sp]
	mov         x8,#0x100C
	add         x8,x9,x8
	ldr         w8,[x8]
	sxtw        x9,w8
	ldr         x8,[sp,#0x78]
	add         x8,x9,x8
	mov         w8,w8
	str         w8,[sp,#0x26C]

; 645  : 				r1.w = r_w;

	ldr         x8,[sp,#0x140]
	mov         w8,w8
	str         w8,[sp,#0x270]

; 646  : 				r1.h = r_h;

	ldr         x8,[sp,#0x138]
	mov         w8,w8
	str         w8,[sp,#0x274]

; 647  : 				bool overlap = false;

	mov         w8,#0
	strb        w8,[sp,#0x30]

; 648  : 				Rect clipRect[100];
; 649  : 				int clipCount = 0;

	mov         w8,#0
	str         w8,[sp,#0xD0]

; 650  : 				Window* clipWin = NULL;

	mov         x8,#0
	str         x8,[sp,#0xD8]

; 651  : 				WinSharedInfo* clipInfo = NULL;

	mov         x8,#0
	str         x8,[sp,#0xC0]

; 652  : 
; 653  : 				if (info->alpha) {

	ldr         x9,[sp]
	mov         x8,#0x1018
	add         x8,x9,x8
	ldrsb       w8,[x8]
	mov         w8,w8
	cmp         w8,#0
	beq         |$LN105@ComposeFra|

; 654  : 					for (int j = 0; j < r_h; j++) {

	mov         w8,#0
	str         w8,[sp,#0xA8]
	b           |$LN13@ComposeFra|
|$LN11@ComposeFra|
	ldr         w8,[sp,#0xA8]
	add         w8,w8,#1
	str         w8,[sp,#0xA8]
|$LN13@ComposeFra|
	ldr         w8,[sp,#0xA8]
	sxtw        x9,w8
	ldr         x8,[sp,#0x138]
	cmp         x9,x8
	bge         |$LN12@ComposeFra|

; 655  : 						for (int i = 0; i < r_w; i++) {

	mov         w8,#0
	str         w8,[sp,#0xAC]
	b           |$LN16@ComposeFra|
|$LN14@ComposeFra|
	ldr         w8,[sp,#0xAC]
	add         w8,w8,#1
	str         w8,[sp,#0xAC]
|$LN16@ComposeFra|
	ldr         w8,[sp,#0xAC]
	sxtw        x9,w8
	ldr         x8,[sp,#0x140]
	cmp         x9,x8
	bge         |$LN15@ComposeFra|

; 656  : 							*(uint32_t*)(canvas->buffer + (static_cast<int64_t>(info->y) + r_y + j) * canvas->canvasWidth +

	ldr         x9,[sp]
	mov         x8,#0x1020
	add         x12,x9,x8
	ldr         x8,[sp,#0x28]
	add         x11,x8,#8
	ldr         w8,[sp,#0xA8]
	sxtw        x9,w8
	ldr         x8,[sp,#0x78]
	add         x10,x8,x9
	ldr         x9,[sp]
	mov         x8,#0x1010
	add         x8,x9,x8
	ldr         w8,[x8]
	sxtw        x8,w8
	mul         x9,x10,x8
	mov         x8,#4
	mul         x9,x9,x8
	ldr         x8,[x11]
	add         x10,x8,x9
	ldr         w8,[sp,#0xAC]
	sxtw        x9,w8
	ldr         x8,[sp,#0x80]
	add         x9,x8,x9
	mov         x8,#4
	mul         x8,x9,x8
	add         x11,x10,x8
	ldr         x8,[sp,#8]
	add         x10,x8,#0x20
	ldr         x9,[sp]
	mov         x8,#0x100C
	add         x8,x9,x8
	ldr         w8,[x8]
	sxtw        x9,w8
	ldr         x8,[sp,#0x78]
	add         x9,x9,x8
	ldr         w8,[sp,#0xA8]
	sxtw        x8,w8
	add         x9,x9,x8
	ldr         x8,[sp,#8]
	add         x8,x8,#0x18
	ldr         w8,[x8]
	uxtw        x8,w8
	mul         x9,x9,x8
	mov         x8,#4
	mul         x9,x9,x8
	ldr         x8,[x10]
	add         x10,x8,x9
	ldr         x9,[sp]
	mov         x8,#0x1008
	add         x8,x9,x8
	ldr         w8,[x8]
	sxtw        x9,w8
	ldr         x8,[sp,#0x80]
	add         x9,x9,x8
	ldr         w8,[sp,#0xAC]
	sxtw        x8,w8
	add         x9,x9,x8
	mov         x8,#4
	mul         x8,x9,x8
	add         x8,x10,x8
	ldr         d0,[x12]
	ldr         w1,[x11]
	ldr         w0,[x8]
	bl          ChColorAlphaBlend
	mov         w0,w0
	ldr         x8,[sp,#8]
	add         x10,x8,#0x20
	ldr         x9,[sp]
	mov         x8,#0x100C
	add         x8,x9,x8
	ldr         w8,[x8]
	sxtw        x9,w8
	ldr         x8,[sp,#0x78]
	add         x9,x9,x8
	ldr         w8,[sp,#0xA8]
	sxtw        x8,w8
	add         x9,x9,x8
	ldr         x8,[sp,#8]
	add         x8,x8,#0x18
	ldr         w8,[x8]
	uxtw        x8,w8
	mul         x9,x9,x8
	mov         x8,#4
	mul         x9,x9,x8
	ldr         x8,[x10]
	add         x10,x8,x9
	ldr         x9,[sp]
	mov         x8,#0x1008
	add         x8,x9,x8
	ldr         w8,[x8]
	sxtw        x9,w8
	ldr         x8,[sp,#0x80]
	add         x9,x9,x8
	ldr         w8,[sp,#0xAC]
	sxtw        x8,w8
	add         x9,x9,x8
	mov         x8,#4
	mul         x8,x9,x8
	add         x8,x10,x8
	str         w0,[x8]

; 657  : 								(static_cast<int64_t>(info->x) + r_x + i)) =
; 658  : 								ChColorAlphaBlend(*(uint32_t*)(canvas->buffer +
; 659  : 									(static_cast<int64_t>(info->y) + r_y + j) * canvas->canvasWidth +
; 660  : 									(static_cast<int64_t>(info->x) + r_x + i)),
; 661  : 									*(uint32_t*)(win->backBuffer + (static_cast<int64_t>(r_y) + j) * info->width +
; 662  : 										(static_cast<int64_t>(r_x) + i)),info->alphaValue);
; 663  : 						}

	b           |$LN14@ComposeFra|
|$LN15@ComposeFra|

; 664  : 					}

	b           |$LN11@ComposeFra|
|$LN12@ComposeFra|

; 665  : 					AddDirtyClip(info->x + r_x, info->y + r_y, r_w, r_h);

	ldr         x8,[sp,#0x138]
	mov         w3,w8
	ldr         x8,[sp,#0x140]
	mov         w2,w8
	ldr         x9,[sp]
	mov         x8,#0x100C
	add         x8,x9,x8
	ldr         w8,[x8]
	sxtw        x9,w8
	ldr         x8,[sp,#0x78]
	add         x8,x9,x8
	mov         w1,w8
	ldr         x9,[sp]
	mov         x8,#0x1008
	add         x8,x9,x8
	ldr         w8,[x8]
	sxtw        x9,w8
	ldr         x8,[sp,#0x80]
	add         x8,x9,x8
	mov         w0,w8
	mov         w3,w3
	mov         w2,w2
	mov         w1,w1
	mov         w0,w0
	bl          |?AddDirtyClip@@YAXHHHH@Z|

; 666  : 				}

	b           |$LN106@ComposeFra|
|$LN105@ComposeFra|

; 667  : 				else {
; 668  : 					if (focusedWin != win) {

	ldr         x9,[sp,#0x28]
	adrp        x8,|?focusedWin@@3PEAU_win_@@EA|
	ldr         x8,[x8,PageOffset(|?focusedWin@@3PEAU_win_@@EA|)]
	cmp         x8,x9
	beq         |$LN107@ComposeFra|

; 669  : 
; 670  : 						/* first check for normal windows */
; 671  : 						for (clipWin = win; clipWin != NULL; clipWin = clipWin->next) {

	ldr         x8,[sp,#0x28]
	str         x8,[sp,#0xD8]
	b           |$LN19@ComposeFra|
|$LN17@ComposeFra|
	ldr         x8,[sp,#0xD8]
	add         x8,x8,#0x68
	ldr         x8,[x8]
	str         x8,[sp,#0xD8]
|$LN19@ComposeFra|
	ldr         x8,[sp,#0xD8]
	cmp         x8,#0
	beq         |$LN18@ComposeFra|

; 672  : 							clipInfo = (WinSharedInfo*)clipWin->sharedInfo;

	ldr         x8,[sp,#0xD8]
	add         x8,x8,#0x10
	ldr         x8,[x8]
	str         x8,[sp,#0xC0]

; 673  : 							if (clipWin == win)

	ldr         x9,[sp,#0x28]
	ldr         x8,[sp,#0xD8]
	cmp         x8,x9
	bne         |$LN108@ComposeFra|

; 674  : 								continue;

	b           |$LN17@ComposeFra|
|$LN108@ComposeFra|

; 675  : 							r2.x = clipInfo->x;

	ldr         x9,[sp,#0xC0]
	mov         x8,#0x1008
	add         x8,x9,x8
	ldr         w8,[x8]
	str         w8,[sp,#0x1C0]

; 676  : 							r2.y = clipInfo->y;

	ldr         x9,[sp,#0xC0]
	mov         x8,#0x100C
	add         x8,x9,x8
	ldr         w8,[x8]
	str         w8,[sp,#0x1C4]

; 677  : 							r2.w = clipInfo->width;

	ldr         x9,[sp,#0xC0]
	mov         x8,#0x1010
	add         x8,x9,x8
	ldr         w8,[x8]
	str         w8,[sp,#0x1C8]

; 678  : 							r2.h = clipInfo->height;

	ldr         x9,[sp,#0xC0]
	mov         x8,#0x1014
	add         x8,x9,x8
	ldr         w8,[x8]
	str         w8,[sp,#0x1CC]

; 679  : 
; 680  : 							if (ClipCheckIntersect(&r1, &r2)) {

	add         x1,sp,#0x1C0
	add         x0,sp,#0x268
	bl          |?ClipCheckIntersect@@YADPEAU_rect_@@0@Z|
	sxtb        w8,w0
	mov         w8,w8
	cmp         w8,#0
	beq         |$LN109@ComposeFra|

; 681  : 								overlap = true;

	mov         w8,#1
	strb        w8,[sp,#0x30]

; 682  : 								ClipCalculateRect(&r1, &r2, clipRect, &clipCount);

	add         x3,sp,#0xD0
	add         x2,sp,#0x2F8
	add         x1,sp,#0x1C0
	add         x0,sp,#0x268
	bl          |?ClipCalculateRect@@YAXPEAU_rect_@@00PEAH@Z|
|$LN109@ComposeFra|

; 683  : 							}
; 684  : 
; 685  : 						}

	b           |$LN17@ComposeFra|
|$LN18@ComposeFra|

; 686  : 
; 687  : 						///* check for always on top windows */
; 688  : 						for (clipWin = alwaysOnTop; clipWin != NULL; clipWin = clipWin->next) {

	adrp        x8,|?alwaysOnTop@@3PEAU_win_@@EA|
	ldr         x8,[x8,PageOffset(|?alwaysOnTop@@3PEAU_win_@@EA|)]
	str         x8,[sp,#0xD8]
	b           |$LN22@ComposeFra|
|$LN20@ComposeFra|
	ldr         x8,[sp,#0xD8]
	add         x8,x8,#0x68
	ldr         x8,[x8]
	str         x8,[sp,#0xD8]
|$LN22@ComposeFra|
	ldr         x8,[sp,#0xD8]
	cmp         x8,#0
	beq         |$LN21@ComposeFra|

; 689  : 							clipInfo = (WinSharedInfo*)clipWin->sharedInfo;

	ldr         x8,[sp,#0xD8]
	add         x8,x8,#0x10
	ldr         x8,[x8]
	str         x8,[sp,#0xC0]

; 690  : 							if (clipInfo->hide)

	ldr         x9,[sp,#0xC0]
	mov         x8,#0x1019
	add         x8,x9,x8
	ldrsb       w8,[x8]
	mov         w8,w8
	cmp         w8,#0
	beq         |$LN110@ComposeFra|

; 691  : 								continue;

	b           |$LN20@ComposeFra|
|$LN110@ComposeFra|

; 692  : 							r2.x = clipInfo->x;

	ldr         x9,[sp,#0xC0]
	mov         x8,#0x1008
	add         x8,x9,x8
	ldr         w8,[x8]
	str         w8,[sp,#0x1C0]

; 693  : 							r2.y = clipInfo->y;

	ldr         x9,[sp,#0xC0]
	mov         x8,#0x100C
	add         x8,x9,x8
	ldr         w8,[x8]
	str         w8,[sp,#0x1C4]

; 694  : 							r2.w = clipInfo->width;

	ldr         x9,[sp,#0xC0]
	mov         x8,#0x1010
	add         x8,x9,x8
	ldr         w8,[x8]
	str         w8,[sp,#0x1C8]

; 695  : 							r2.h = clipInfo->height;

	ldr         x9,[sp,#0xC0]
	mov         x8,#0x1014
	add         x8,x9,x8
	ldr         w8,[x8]
	str         w8,[sp,#0x1CC]

; 696  : 
; 697  : 							if (ClipCheckIntersect(&r1, &r2)) {

	add         x1,sp,#0x1C0
	add         x0,sp,#0x268
	bl          |?ClipCheckIntersect@@YADPEAU_rect_@@0@Z|
	sxtb        w8,w0
	mov         w8,w8
	cmp         w8,#0
	beq         |$LN111@ComposeFra|

; 698  : 								clipInfo->updateEntireWindow = 1;

	ldr         x9,[sp,#0xC0]
	mov         x8,#0x1005
	add         x9,x9,x8
	mov         w8,#1
	strb        w8,[x9]
|$LN111@ComposeFra|

; 699  : 							}
; 700  : 						}

	b           |$LN20@ComposeFra|
|$LN21@ComposeFra|

; 701  : 
; 702  : 						for (Window* cutt = win; cutt != NULL; cutt = cutt->next) {

	ldr         x8,[sp,#0x28]
	str         x8,[sp,#0x190]
	b           |$LN25@ComposeFra|
|$LN23@ComposeFra|
	ldr         x8,[sp,#0x190]
	add         x8,x8,#0x68
	ldr         x8,[x8]
	str         x8,[sp,#0x190]
|$LN25@ComposeFra|
	ldr         x8,[sp,#0x190]
	cmp         x8,#0
	beq         |$LN24@ComposeFra|

; 703  : 							WinSharedInfo* cuttinfo = (WinSharedInfo*)cutt->sharedInfo;

	ldr         x8,[sp,#0x190]
	add         x8,x8,#0x10
	ldr         x8,[x8]
	str         x8,[sp,#0x200]

; 704  : 							if (cutt == win)

	ldr         x9,[sp,#0x28]
	ldr         x8,[sp,#0x190]
	cmp         x8,x9
	bne         |$LN112@ComposeFra|

; 705  : 								continue;

	b           |$LN23@ComposeFra|
|$LN112@ComposeFra|

; 706  : 							Rect cuttingr;
; 707  : 							cuttingr.x = cuttinfo->x;

	ldr         x9,[sp,#0x200]
	mov         x8,#0x1008
	add         x8,x9,x8
	ldr         w8,[x8]
	str         w8,[sp,#0x1D0]

; 708  : 							cuttingr.y = cuttinfo->y;

	ldr         x9,[sp,#0x200]
	mov         x8,#0x100C
	add         x8,x9,x8
	ldr         w8,[x8]
	str         w8,[sp,#0x1D4]

; 709  : 							cuttingr.w = cuttinfo->width;

	ldr         x9,[sp,#0x200]
	mov         x8,#0x1010
	add         x8,x9,x8
	ldr         w8,[x8]
	str         w8,[sp,#0x1D8]

; 710  : 							cuttingr.h = cuttinfo->height;

	ldr         x9,[sp,#0x200]
	mov         x8,#0x1014
	add         x8,x9,x8
	ldr         w8,[x8]
	str         w8,[sp,#0x1DC]

; 711  : 							for (int m = 0; m < clipCount; m++) {

	mov         w8,#0
	str         w8,[sp,#0x38]
	b           |$LN28@ComposeFra|
|$LN26@ComposeFra|
	ldr         w8,[sp,#0x38]
	add         w8,w8,#1
	str         w8,[sp,#0x38]
|$LN28@ComposeFra|
	ldr         w9,[sp,#0xD0]
	ldr         w8,[sp,#0x38]
	cmp         w8,w9
	bge         |$LN27@ComposeFra|

; 712  : 								Rect cu;
; 713  : 								cu.x = clipRect[m].x;

	ldr         w8,[sp,#0x38]
	sxtw        x9,w8
	mov         x8,#0x10
	mul         x9,x9,x8
	add         x8,sp,#0x2F8
	add         x8,x8,x9
	ldr         w8,[x8]
	str         w8,[sp,#0x1E0]

; 714  : 								cu.y = clipRect[m].y;

	ldr         w8,[sp,#0x38]
	sxtw        x9,w8
	mov         x8,#0x10
	mul         x9,x9,x8
	add         x8,sp,#0x2F8
	add         x8,x8,x9
	add         x8,x8,#4
	ldr         w8,[x8]
	str         w8,[sp,#0x1E4]

; 715  : 								cu.w = clipRect[m].w;

	ldr         w8,[sp,#0x38]
	sxtw        x9,w8
	mov         x8,#0x10
	mul         x9,x9,x8
	add         x8,sp,#0x2F8
	add         x8,x8,x9
	add         x8,x8,#8
	ldr         w8,[x8]
	str         w8,[sp,#0x1E8]

; 716  : 								cu.h = clipRect[m].h;

	ldr         w8,[sp,#0x38]
	sxtw        x9,w8
	mov         x8,#0x10
	mul         x9,x9,x8
	add         x8,sp,#0x2F8
	add         x8,x8,x9
	add         x8,x8,#0xC
	ldr         w8,[x8]
	str         w8,[sp,#0x1EC]

; 717  : 								if (cuttingr.x <= (cu.x + cu.w - 1) &&
; 718  : 									(cuttingr.x + cuttingr.w - 1) >= cu.x &&
; 719  : 									cuttingr.y <= (cu.y + cu.h - 1) &&

	ldr         w9,[sp,#0x1E0]
	ldr         w8,[sp,#0x1E8]
	add         w8,w9,w8
	sub         w9,w8,#1
	ldr         w8,[sp,#0x1D0]
	cmp         w8,w9
	bgt         |$LN113@ComposeFra|
	ldr         w9,[sp,#0x1D0]
	ldr         w8,[sp,#0x1D8]
	add         w8,w9,w8
	sub         w9,w8,#1
	ldr         w8,[sp,#0x1E0]
	cmp         w9,w8
	blt         |$LN113@ComposeFra|
	ldr         w9,[sp,#0x1E4]
	ldr         w8,[sp,#0x1EC]
	add         w8,w9,w8
	sub         w9,w8,#1
	ldr         w8,[sp,#0x1D4]
	cmp         w8,w9
	bgt         |$LN113@ComposeFra|
	ldr         w9,[sp,#0x1D4]
	ldr         w8,[sp,#0x1DC]
	add         w8,w9,w8
	sub         w9,w8,#1
	ldr         w8,[sp,#0x1E4]
	cmp         w9,w8
	blt         |$LN113@ComposeFra|

; 720  : 									(cuttingr.y + cuttingr.h - 1) >= cu.y) {
; 721  : 									ClipSubtractRect(&cu, &cuttingr, clipRect, m);

	ldr         w3,[sp,#0x38]
	add         x2,sp,#0x2F8
	add         x1,sp,#0x1D0
	add         x0,sp,#0x1E0
	bl          |?ClipSubtractRect@@YAXPEAU_rect_@@00H@Z|
|$LN113@ComposeFra|

; 722  : 								}
; 723  : 							}

	b           |$LN26@ComposeFra|
|$LN27@ComposeFra|

; 724  : 						}

	b           |$LN23@ComposeFra|
|$LN24@ComposeFra|
|$LN107@ComposeFra|

; 725  : 					}
; 726  : 
; 727  : 
; 728  : 					if (clipCount == 0 && !overlap) {

	ldr         w8,[sp,#0xD0]
	cmp         w8,#0
	bne         |$LN114@ComposeFra|
	ldrsb       w8,[sp,#0x30]
	mov         w8,w8
	cmp         w8,#0
	bne         |$LN114@ComposeFra|

; 729  : 						for (int i = 0; i < r_h; i++) {

	mov         w8,#0
	str         w8,[sp,#0xCC]
	b           |$LN31@ComposeFra|
|$LN29@ComposeFra|
	ldr         w8,[sp,#0xCC]
	add         w8,w8,#1
	str         w8,[sp,#0xCC]
|$LN31@ComposeFra|
	ldr         w8,[sp,#0xCC]
	sxtw        x9,w8
	ldr         x8,[sp,#0x138]
	cmp         x9,x8
	bge         |$LN30@ComposeFra|

; 730  : 							void* canvas_mem = (canvas->buffer + (info->y + r_y + i) * canvas->canvasWidth + info->x + r_x);

	ldr         x8,[sp,#8]
	add         x10,x8,#0x20
	ldr         x9,[sp]
	mov         x8,#0x100C
	add         x8,x9,x8
	ldr         w8,[x8]
	sxtw        x9,w8
	ldr         x8,[sp,#0x78]
	add         x9,x9,x8
	ldr         w8,[sp,#0xCC]
	sxtw        x8,w8
	add         x9,x9,x8
	ldr         x8,[sp,#8]
	add         x8,x8,#0x18
	ldr         w8,[x8]
	uxtw        x8,w8
	mul         x9,x9,x8
	mov         x8,#4
	mul         x9,x9,x8
	ldr         x8,[x10]
	add         x10,x8,x9
	ldr         x9,[sp]
	mov         x8,#0x1008
	add         x8,x9,x8
	ldr         w8,[x8]
	sxtw        x9,w8
	mov         x8,#4
	mul         x8,x9,x8
	add         x10,x10,x8
	ldr         x9,[sp,#0x80]
	mov         x8,#4
	mul         x8,x9,x8
	add         x8,x10,x8
	str         x8,[sp,#0x2D0]

; 731  : 							void* win_mem = (win->backBuffer + (r_y + i) * info->width + r_x);

	ldr         x8,[sp,#0x28]
	add         x11,x8,#8
	ldr         w8,[sp,#0xCC]
	sxtw        x9,w8
	ldr         x8,[sp,#0x78]
	add         x10,x8,x9
	ldr         x9,[sp]
	mov         x8,#0x1010
	add         x8,x9,x8
	ldr         w8,[x8]
	sxtw        x8,w8
	mul         x9,x10,x8
	mov         x8,#4
	mul         x9,x9,x8
	ldr         x8,[x11]
	add         x10,x8,x9
	ldr         x9,[sp,#0x80]
	mov         x8,#4
	mul         x8,x9,x8
	add         x8,x10,x8
	str         x8,[sp,#0x2C8]

; 732  : 							_fastcpy(canvas_mem,

	ldr         x9,[sp,#0x140]
	mov         x8,#4
	mul         x2,x9,x8
	ldr         x1,[sp,#0x2C8]
	ldr         x0,[sp,#0x2D0]
	bl          _fastcpy

; 733  : 								win_mem, static_cast<size_t>(r_w) * 4);
; 734  : 						}

	b           |$LN29@ComposeFra|
|$LN30@ComposeFra|

; 735  : 						AddDirtyClip(info->x + r_x, info->y + r_y, r_w, r_h);

	ldr         x8,[sp,#0x138]
	mov         w3,w8
	ldr         x8,[sp,#0x140]
	mov         w2,w8
	ldr         x9,[sp]
	mov         x8,#0x100C
	add         x8,x9,x8
	ldr         w8,[x8]
	sxtw        x9,w8
	ldr         x8,[sp,#0x78]
	add         x8,x9,x8
	mov         w1,w8
	ldr         x9,[sp]
	mov         x8,#0x1008
	add         x8,x9,x8
	ldr         w8,[x8]
	sxtw        x9,w8
	ldr         x8,[sp,#0x80]
	add         x8,x9,x8
	mov         w0,w8
	mov         w3,w3
	mov         w2,w2
	mov         w1,w1
	mov         w0,w0
	bl          |?AddDirtyClip@@YAXHHHH@Z|
|$LN114@ComposeFra|

; 736  : 					}
; 737  : 
; 738  : 					for (int l = 0; l < clipCount; l++) {

	mov         w8,#0
	str         w8,[sp,#0x50]
	b           |$LN34@ComposeFra|
|$LN32@ComposeFra|
	ldr         w8,[sp,#0x50]
	add         w8,w8,#1
	str         w8,[sp,#0x50]
|$LN34@ComposeFra|
	ldr         w9,[sp,#0xD0]
	ldr         w8,[sp,#0x50]
	cmp         w8,w9
	bge         |$LN33@ComposeFra|

; 739  : 						int64_t k_x = clipRect[l].x;

	ldr         w8,[sp,#0x50]
	sxtw        x9,w8
	mov         x8,#0x10
	mul         x9,x9,x8
	add         x8,sp,#0x2F8
	add         x8,x8,x9
	ldr         w8,[x8]
	sxtw        x8,w8
	str         x8,[sp,#0x150]

; 740  : 						int64_t k_y = clipRect[l].y;

	ldr         w8,[sp,#0x50]
	sxtw        x9,w8
	mov         x8,#0x10
	mul         x9,x9,x8
	add         x8,sp,#0x2F8
	add         x8,x8,x9
	add         x8,x8,#4
	ldr         w8,[x8]
	sxtw        x8,w8
	str         x8,[sp,#0x148]

; 741  : 						int64_t k_w = clipRect[l].w;

	ldr         w8,[sp,#0x50]
	sxtw        x9,w8
	mov         x8,#0x10
	mul         x9,x9,x8
	add         x8,sp,#0x2F8
	add         x8,x8,x9
	add         x8,x8,#8
	ldr         w8,[x8]
	sxtw        x8,w8
	str         x8,[sp,#0x210]

; 742  : 						int64_t k_h = clipRect[l].h;

	ldr         w8,[sp,#0x50]
	sxtw        x9,w8
	mov         x8,#0x10
	mul         x9,x9,x8
	add         x8,sp,#0x2F8
	add         x8,x8,x9
	add         x8,x8,#0xC
	ldr         w8,[x8]
	sxtw        x8,w8
	str         x8,[sp,#0x208]

; 743  : 
; 744  : 						if (k_x < 0)

	ldr         x8,[sp,#0x150]
	cmp         x8,#0
	bge         |$LN115@ComposeFra|

; 745  : 							k_x = 0;

	mov         x8,#0
	str         x8,[sp,#0x150]
|$LN115@ComposeFra|

; 746  : 						if (k_y < 0)

	ldr         x8,[sp,#0x148]
	cmp         x8,#0
	bge         |$LN116@ComposeFra|

; 747  : 							k_y = 0;

	mov         x8,#0
	str         x8,[sp,#0x148]
|$LN116@ComposeFra|

; 748  : 						if ((k_x + k_w) >= canvas->screenWidth)

	ldr         x9,[sp,#0x150]
	ldr         x8,[sp,#0x210]
	add         x9,x9,x8
	ldr         x8,[sp,#8]
	add         x8,x8,#4
	ldr         w8,[x8]
	uxtw        x8,w8
	cmp         x9,x8
	blt         |$LN117@ComposeFra|

; 749  : 							k_w = canvas->screenWidth - k_x;

	ldr         x8,[sp,#8]
	add         x8,x8,#4
	ldr         w8,[x8]
	uxtw        x9,w8
	ldr         x8,[sp,#0x150]
	sub         x8,x9,x8
	str         x8,[sp,#0x210]
|$LN117@ComposeFra|

; 750  : 						if ((k_y + k_h) >= canvas->screenHeight)

	ldr         x9,[sp,#0x148]
	ldr         x8,[sp,#0x208]
	add         x9,x9,x8
	ldr         x8,[sp,#8]
	add         x8,x8,#8
	ldr         w8,[x8]
	uxtw        x8,w8
	cmp         x9,x8
	blt         |$LN118@ComposeFra|

; 751  : 							k_h = canvas->screenHeight - k_y;

	ldr         x8,[sp,#8]
	add         x8,x8,#8
	ldr         w8,[x8]
	uxtw        x9,w8
	ldr         x8,[sp,#0x148]
	sub         x8,x9,x8
	str         x8,[sp,#0x208]
|$LN118@ComposeFra|

; 752  : 
; 753  : 						int offset_x = info->x + r_x;

	ldr         x9,[sp]
	mov         x8,#0x1008
	add         x8,x9,x8
	ldr         w8,[x8]
	sxtw        x9,w8
	ldr         x8,[sp,#0x80]
	add         x8,x9,x8
	mov         w8,w8
	str         w8,[sp,#0x240]

; 754  : 
; 755  : 						int diffx = k_x - offset_x;

	ldr         w8,[sp,#0x240]
	sxtw        x9,w8
	ldr         x8,[sp,#0x150]
	sub         x8,x8,x9
	mov         w8,w8
	str         w8,[sp,#0x228]

; 756  : 						int64_t update_r_x = r_x + diffx;

	ldr         w8,[sp,#0x228]
	sxtw        x9,w8
	ldr         x8,[sp,#0x80]
	add         x8,x8,x9
	str         x8,[sp,#0x2E0]

; 757  : 
; 758  : 						int offset_y = info->y + r_y;

	ldr         x9,[sp]
	mov         x8,#0x100C
	add         x8,x9,x8
	ldr         w8,[x8]
	sxtw        x9,w8
	ldr         x8,[sp,#0x78]
	add         x8,x9,x8
	mov         w8,w8
	str         w8,[sp,#0x224]

; 759  : 						int diffy = k_y - offset_y;

	ldr         w8,[sp,#0x224]
	sxtw        x9,w8
	ldr         x8,[sp,#0x148]
	sub         x8,x8,x9
	mov         w8,w8
	str         w8,[sp,#0x220]

; 760  : 						int64_t update_r_y = r_y + diffy;

	ldr         w8,[sp,#0x220]
	sxtw        x9,w8
	ldr         x8,[sp,#0x78]
	add         x8,x8,x9
	str         x8,[sp,#0x2D8]

; 761  : 
; 762  : 
; 763  : 						for (int64_t j = 0; j < k_h; j++) {

	mov         x8,#0
	str         x8,[sp,#0x198]
	b           |$LN37@ComposeFra|
|$LN35@ComposeFra|
	ldr         x8,[sp,#0x198]
	add         x8,x8,#1
	str         x8,[sp,#0x198]
|$LN37@ComposeFra|
	ldr         x9,[sp,#0x208]
	ldr         x8,[sp,#0x198]
	cmp         x8,x9
	bge         |$LN36@ComposeFra|

; 764  : 							void* canvas_mem = (canvas->buffer + (k_y + j) * canvas->canvasWidth + k_x);

	ldr         x8,[sp,#8]
	add         x10,x8,#0x20
	ldr         x9,[sp,#0x148]
	ldr         x8,[sp,#0x198]
	add         x9,x9,x8
	ldr         x8,[sp,#8]
	add         x8,x8,#0x18
	ldr         w8,[x8]
	uxtw        x8,w8
	mul         x9,x9,x8
	mov         x8,#4
	mul         x9,x9,x8
	ldr         x8,[x10]
	add         x10,x8,x9
	ldr         x9,[sp,#0x150]
	mov         x8,#4
	mul         x8,x9,x8
	add         x8,x10,x8
	str         x8,[sp,#0x2F0]

; 765  : 							void* win_mem = (win->backBuffer + (update_r_y + j) * info->width + update_r_x);

	ldr         x8,[sp,#0x28]
	add         x11,x8,#8
	ldr         x9,[sp,#0x2D8]
	ldr         x8,[sp,#0x198]
	add         x10,x9,x8
	ldr         x9,[sp]
	mov         x8,#0x1010
	add         x8,x9,x8
	ldr         w8,[x8]
	sxtw        x8,w8
	mul         x9,x10,x8
	mov         x8,#4
	mul         x9,x9,x8
	ldr         x8,[x11]
	add         x10,x8,x9
	ldr         x9,[sp,#0x2E0]
	mov         x8,#4
	mul         x8,x9,x8
	add         x8,x10,x8
	str         x8,[sp,#0x2E8]

; 766  : 							_fastcpy(canvas_mem,

	ldr         x9,[sp,#0x210]
	mov         x8,#4
	mul         x2,x9,x8
	ldr         x1,[sp,#0x2E8]
	ldr         x0,[sp,#0x2F0]
	bl          _fastcpy

; 767  : 								win_mem, k_w * 4);
; 768  : 						}

	b           |$LN35@ComposeFra|
|$LN36@ComposeFra|

; 769  : 
; 770  : 						AddDirtyClip(k_x, k_y, k_w, k_h);

	ldr         x8,[sp,#0x208]
	mov         w3,w8
	ldr         x8,[sp,#0x210]
	mov         w2,w8
	ldr         x8,[sp,#0x148]
	mov         w1,w8
	ldr         x8,[sp,#0x150]
	mov         w0,w8
	mov         w3,w3
	mov         w2,w2
	mov         w1,w1
	mov         w0,w0
	bl          |?AddDirtyClip@@YAXHHHH@Z|

; 771  : 					}

	b           |$LN32@ComposeFra|
|$LN33@ComposeFra|

; 772  : 
; 773  : 					clipCount = 0;

	mov         w8,#0
	str         w8,[sp,#0xD0]

; 774  : 					info->rect[k].x = 0, info->rect[k].y = 0, info->rect[k].w = 0, info->rect[k].h = 0;

	ldr         x10,[sp]
	ldr         w8,[sp,#0x34]
	sxtw        x9,w8
	mov         x8,#0x10
	mul         x8,x9,x8
	add         x9,x10,x8
	mov         w8,#0
	str         w8,[x9]
	ldr         x10,[sp]
	ldr         w8,[sp,#0x34]
	sxtw        x9,w8
	mov         x8,#0x10
	mul         x8,x9,x8
	add         x8,x10,x8
	add         x9,x8,#4
	mov         w8,#0
	str         w8,[x9]
	ldr         x10,[sp]
	ldr         w8,[sp,#0x34]
	sxtw        x9,w8
	mov         x8,#0x10
	mul         x8,x9,x8
	add         x8,x10,x8
	add         x9,x8,#8
	mov         w8,#0
	str         w8,[x9]
	ldr         x10,[sp]
	ldr         w8,[sp,#0x34]
	sxtw        x9,w8
	mov         x8,#0x10
	mul         x8,x9,x8
	add         x8,x10,x8
	add         x9,x8,#0xC
	mov         w8,#0
	str         w8,[x9]
|$LN106@ComposeFra|

; 775  : 				}
; 776  : 			}

	b           |$LN8@ComposeFra|
|$LN9@ComposeFra|

; 777  : 			info->rect_count = 0;

	ldr         x8,[sp]
	add         x9,x8,#1,lsl #0xC
	mov         w8,#0
	str         w8,[x9]

; 778  : 			info->dirty = 0;

	ldr         x9,[sp]
	mov         x8,#0x1004
	add         x9,x9,x8
	mov         w8,#0
	strb        w8,[x9]

; 779  : 			info->updateEntireWindow = 0;

	ldr         x9,[sp]
	mov         x8,#0x1005
	add         x9,x9,x8
	mov         w8,#0
	strb        w8,[x9]
|$LN100@ComposeFra|

; 780  : 		}
; 781  : 
; 782  : 		/* If no small areas, update entire window */
; 783  : 
; 784  : 		if (win != NULL && _window_update_all_ || (info->rect_count == 0 && info->updateEntireWindow == 1)) {

	ldr         x8,[sp,#0x28]
	cmp         x8,#0
	beq         |$LN121@ComposeFra|
	adrp        x8,|?_window_update_all_@@3DA|
	ldrsb       w8,[x8,PageOffset(|?_window_update_all_@@3DA|)]
	mov         w8,w8
	cmp         w8,#0
	bne         |$LN120@ComposeFra|
|$LN121@ComposeFra|
	ldr         x8,[sp]
	add         x8,x8,#1,lsl #0xC
	ldr         w8,[x8]
	cmp         w8,#0
	bne         |$LN119@ComposeFra|
	ldr         x9,[sp]
	mov         x8,#0x1005
	add         x8,x9,x8
	ldrsb       w8,[x8]
	mov         w8,w8
	cmp         w8,#1
	bne         |$LN119@ComposeFra|
|$LN120@ComposeFra|

; 785  : 			int64_t winx = 0;

	mov         x8,#0
	str         x8,[sp,#0x160]

; 786  : 			int64_t winy = 0;

	mov         x8,#0
	str         x8,[sp,#0x158]

; 787  : 			winx = info->x;

	ldr         x9,[sp]
	mov         x8,#0x1008
	add         x8,x9,x8
	ldr         w8,[x8]
	sxtw        x8,w8
	str         x8,[sp,#0x160]

; 788  : 			winy = info->y;

	ldr         x9,[sp]
	mov         x8,#0x100C
	add         x8,x9,x8
	ldr         w8,[x8]
	sxtw        x8,w8
	str         x8,[sp,#0x158]

; 789  : 
; 790  : 			int64_t width = info->width;

	ldr         x9,[sp]
	mov         x8,#0x1010
	add         x8,x9,x8
	ldr         w8,[x8]
	sxtw        x8,w8
	str         x8,[sp,#0x170]

; 791  : 			int64_t height = info->height;

	ldr         x9,[sp]
	mov         x8,#0x1014
	add         x8,x9,x8
	ldr         w8,[x8]
	sxtw        x8,w8
	str         x8,[sp,#0x168]

; 792  : 			int64_t shad_w = width + SHADOW_SIZE * 2;

	ldr         x8,[sp,#0x170]
	str         x8,[sp,#0x238]

; 793  : 			int64_t shad_h = height + SHADOW_SIZE * 2;

	ldr         x8,[sp,#0x168]
	str         x8,[sp,#0x230]

; 794  : 
; 795  : 
; 796  : 			if ((info->x + info->width) >= canvas->screenWidth)

	ldr         x9,[sp]
	mov         x8,#0x1008
	add         x10,x9,x8
	ldr         x9,[sp]
	mov         x8,#0x1010
	add         x8,x9,x8
	ldr         w9,[x10]
	ldr         w8,[x8]
	add         w9,w9,w8
	ldr         x8,[sp,#8]
	add         x8,x8,#4
	ldr         w8,[x8]
	cmp         w9,w8
	blo         |$LN122@ComposeFra|

; 797  : 				width = static_cast<int64_t>(canvas->screenWidth) - info->x;

	ldr         x8,[sp,#8]
	add         x8,x8,#4
	ldr         w8,[x8]
	uxtw        x10,w8
	ldr         x9,[sp]
	mov         x8,#0x1008
	add         x8,x9,x8
	ldr         w8,[x8]
	sxtw        x8,w8
	sub         x8,x10,x8
	str         x8,[sp,#0x170]
|$LN122@ComposeFra|

; 798  : 
; 799  : 			if ((info->y + info->height) >= canvas->screenHeight)

	ldr         x9,[sp]
	mov         x8,#0x100C
	add         x10,x9,x8
	ldr         x9,[sp]
	mov         x8,#0x1014
	add         x8,x9,x8
	ldr         w9,[x10]
	ldr         w8,[x8]
	add         w9,w9,w8
	ldr         x8,[sp,#8]
	add         x8,x8,#8
	ldr         w8,[x8]
	cmp         w9,w8
	blo         |$LN123@ComposeFra|

; 800  : 				height = static_cast<int64_t>(canvas->screenHeight) - info->y;

	ldr         x8,[sp,#8]
	add         x8,x8,#8
	ldr         w8,[x8]
	uxtw        x10,w8
	ldr         x9,[sp]
	mov         x8,#0x100C
	add         x8,x9,x8
	ldr         w8,[x8]
	sxtw        x8,w8
	sub         x8,x10,x8
	str         x8,[sp,#0x168]
|$LN123@ComposeFra|

; 801  : 
; 802  : 			if ((info->x - SHADOW_SIZE) <= 0) {

	ldr         x9,[sp]
	mov         x8,#0x1008
	add         x8,x9,x8
	ldr         w8,[x8]
	cmp         w8,#0
	bgt         |$LN124@ComposeFra|

; 803  : 				info->x = 5 + SHADOW_SIZE;

	ldr         x9,[sp]
	mov         x8,#0x1008
	add         x9,x9,x8
	mov         w8,#5
	str         w8,[x9]

; 804  : 				winx = info->x;

	ldr         x9,[sp]
	mov         x8,#0x1008
	add         x8,x9,x8
	ldr         w8,[x8]
	sxtw        x8,w8
	str         x8,[sp,#0x160]
|$LN124@ComposeFra|

; 805  : 			}
; 806  : 
; 807  : 			if ((info->y - SHADOW_SIZE) <= 0) {

	ldr         x9,[sp]
	mov         x8,#0x100C
	add         x8,x9,x8
	ldr         w8,[x8]
	cmp         w8,#0
	bgt         |$LN125@ComposeFra|

; 808  : 				info->y = 5 + SHADOW_SIZE;

	ldr         x9,[sp]
	mov         x8,#0x100C
	add         x9,x9,x8
	mov         w8,#5
	str         w8,[x9]

; 809  : 				winy = info->y;

	ldr         x9,[sp]
	mov         x8,#0x100C
	add         x8,x9,x8
	ldr         w8,[x8]
	sxtw        x8,w8
	str         x8,[sp,#0x158]
|$LN125@ComposeFra|

; 810  : 			}
; 811  : 
; 812  : 
; 813  : 			if ((info->x + 24) >= canvas->screenWidth)

	ldr         x9,[sp]
	mov         x8,#0x1008
	add         x8,x9,x8
	ldr         w8,[x8]
	add         w9,w8,#0x18
	ldr         x8,[sp,#8]
	add         x8,x8,#4
	ldr         w8,[x8]
	cmp         w9,w8
	blo         |$LN126@ComposeFra|

; 814  : 				info->x = canvas->screenWidth - 24;

	ldr         x8,[sp,#8]
	add         x8,x8,#4
	ldr         w8,[x8]
	sub         w10,w8,#0x18
	ldr         x9,[sp]
	mov         x8,#0x1008
	add         x8,x9,x8
	str         w10,[x8]
|$LN126@ComposeFra|

; 815  : 
; 816  : 			if ((info->y + 24) >= canvas->screenHeight)

	ldr         x9,[sp]
	mov         x8,#0x100C
	add         x8,x9,x8
	ldr         w8,[x8]
	add         w9,w8,#0x18
	ldr         x8,[sp,#8]
	add         x8,x8,#8
	ldr         w8,[x8]
	cmp         w9,w8
	blo         |$LN127@ComposeFra|

; 817  : 				info->y = canvas->screenHeight - 24;

	ldr         x8,[sp,#8]
	add         x8,x8,#8
	ldr         w8,[x8]
	sub         w10,w8,#0x18
	ldr         x9,[sp]
	mov         x8,#0x100C
	add         x8,x9,x8
	str         w10,[x8]
|$LN127@ComposeFra|

; 818  : 
; 819  : #ifdef SHADOW_ENABLED
; 820  : 			if (((static_cast<int64_t>(info->x) - SHADOW_SIZE) + shad_w) >= canvas->screenWidth)
; 821  : 				shad_w = static_cast<int64_t>(canvas->screenWidth) - (static_cast<int64_t>(info->x) - SHADOW_SIZE);
; 822  : 
; 823  : 
; 824  : 			if (((static_cast<int64_t>(info->y) - SHADOW_SIZE) + shad_h) >= canvas->screenHeight)
; 825  : 				shad_h = static_cast<int64_t>(canvas->screenHeight) - (static_cast<int64_t>(info->y) - SHADOW_SIZE);
; 826  : #endif
; 827  : 			if ((win->flags & WINDOW_FLAG_ANIMATED)) {

	ldr         x8,[sp,#0x28]
	ldrh        w8,[x8]
	mov         w8,w8
	tbz         x8,#5,|$LN128@ComposeFra|

; 828  : 				if (win->flags & WINDOW_FLAG_ANIMATION_FADE_IN)

	ldr         x8,[sp,#0x28]
	ldrh        w8,[x8]
	mov         w8,w8
	tbz         x8,#9,|$LN130@ComposeFra|

; 829  : 					FadeInAnimationWindow(canvas, win, info, winx, winy, shad_w, shad_h);

	ldr         x6,[sp,#0x230]
	ldr         x5,[sp,#0x238]
	ldr         x4,[sp,#0x158]
	ldr         x3,[sp,#0x160]
	ldr         x2,[sp]
	ldr         x1,[sp,#0x28]
	ldr         x0,[sp,#8]
	bl          |?FadeInAnimationWindow@@YAXPEAU_ChCanvas_@@PEAU_win_@@PEAU_win_info_@@_J333@Z|
|$LN130@ComposeFra|

; 830  : 
; 831  : 				if (win->flags & WINDOW_FLAG_ANIMATION_FADE_OUT)

	ldr         x8,[sp,#0x28]
	ldrh        w8,[x8]
	mov         w8,w8
	tbz         x8,#0xA,|$LN131@ComposeFra|

; 832  : 					FadeOutAnimationWindow(canvas, win, info, winx, winy, shad_w, shad_h);

	ldr         x6,[sp,#0x230]
	ldr         x5,[sp,#0x238]
	ldr         x4,[sp,#0x158]
	ldr         x3,[sp,#0x160]
	ldr         x2,[sp]
	ldr         x1,[sp,#0x28]
	ldr         x0,[sp,#8]
	bl          |?FadeOutAnimationWindow@@YAXPEAU_ChCanvas_@@PEAU_win_@@PEAU_win_info_@@_J333@Z|
|$LN131@ComposeFra|

; 833  : 			}

	b           |$LN129@ComposeFra|
|$LN128@ComposeFra|

; 834  : 			else {
; 835  : 				Rect r1;
; 836  : 				Rect r2;
; 837  : 				r1.x = winx - SHADOW_SIZE;

	ldr         x8,[sp,#0x160]
	mov         w8,w8
	str         w8,[sp,#0x258]

; 838  : 				r1.y = winy - SHADOW_SIZE;

	ldr         x8,[sp,#0x158]
	mov         w8,w8
	str         w8,[sp,#0x25C]

; 839  : 				r1.w = width + SHADOW_SIZE * 2;

	ldr         x8,[sp,#0x170]
	mov         w8,w8
	str         w8,[sp,#0x260]

; 840  : 				r1.h = height + SHADOW_SIZE * 2;

	ldr         x8,[sp,#0x168]
	mov         w8,w8
	str         w8,[sp,#0x264]

; 841  : 
; 842  : 				Rect clip[100];
; 843  : 				int clipCount = 0;

	mov         w8,#0
	str         w8,[sp,#0xE8]

; 844  : 				Window* clipWin = NULL;

	mov         x8,#0
	str         x8,[sp,#0xB8]

; 845  : 				WinSharedInfo* clipInfo = NULL;

	mov         x8,#0
	str         x8,[sp,#0x108]

; 846  : 
; 847  : 				if (info->alpha) {

	ldr         x9,[sp]
	mov         x8,#0x1018
	add         x8,x9,x8
	ldrsb       w8,[x8]
	mov         w8,w8
	cmp         w8,#0
	beq         |$LN132@ComposeFra|

; 848  : 					for (int j = 0; j < height; j++) {

	mov         w8,#0
	str         w8,[sp,#0x88]
	b           |$LN40@ComposeFra|
|$LN38@ComposeFra|
	ldr         w8,[sp,#0x88]
	add         w8,w8,#1
	str         w8,[sp,#0x88]
|$LN40@ComposeFra|
	ldr         w8,[sp,#0x88]
	sxtw        x9,w8
	ldr         x8,[sp,#0x168]
	cmp         x9,x8
	bge         |$LN39@ComposeFra|

; 849  : 						for (int i = 0; i < width; i++) {

	mov         w8,#0
	str         w8,[sp,#0x8C]
	b           |$LN43@ComposeFra|
|$LN41@ComposeFra|
	ldr         w8,[sp,#0x8C]
	add         w8,w8,#1
	str         w8,[sp,#0x8C]
|$LN43@ComposeFra|
	ldr         w8,[sp,#0x8C]
	sxtw        x9,w8
	ldr         x8,[sp,#0x170]
	cmp         x9,x8
	bge         |$LN42@ComposeFra|

; 850  : 							*(uint32_t*)(canvas->buffer + (static_cast<int64_t>(info->y) + j) * canvas->canvasWidth +

	ldr         x9,[sp]
	mov         x8,#0x1020
	add         x12,x9,x8
	ldr         x8,[sp,#0x28]
	add         x11,x8,#8
	ldr         w8,[sp,#0x88]
	sxtw        x10,w8
	ldr         x9,[sp]
	mov         x8,#0x1010
	add         x8,x9,x8
	ldr         w8,[x8]
	sxtw        x8,w8
	mul         x9,x10,x8
	mov         x8,#4
	mul         x9,x9,x8
	ldr         x8,[x11]
	add         x10,x8,x9
	ldr         w8,[sp,#0x8C]
	sxtw        x9,w8
	mov         x8,#4
	mul         x8,x9,x8
	add         x11,x10,x8
	ldr         x8,[sp,#8]
	add         x10,x8,#0x20
	ldr         x9,[sp]
	mov         x8,#0x100C
	add         x8,x9,x8
	ldr         w8,[x8]
	sxtw        x9,w8
	ldr         w8,[sp,#0x88]
	sxtw        x8,w8
	add         x9,x9,x8
	ldr         x8,[sp,#8]
	add         x8,x8,#0x18
	ldr         w8,[x8]
	uxtw        x8,w8
	mul         x9,x9,x8
	mov         x8,#4
	mul         x9,x9,x8
	ldr         x8,[x10]
	add         x10,x8,x9
	ldr         x9,[sp]
	mov         x8,#0x1008
	add         x8,x9,x8
	ldr         w8,[x8]
	sxtw        x9,w8
	ldr         w8,[sp,#0x8C]
	sxtw        x8,w8
	add         x9,x9,x8
	mov         x8,#4
	mul         x8,x9,x8
	add         x8,x10,x8
	ldr         d0,[x12]
	ldr         w1,[x11]
	ldr         w0,[x8]
	bl          ChColorAlphaBlend
	mov         w0,w0
	ldr         x8,[sp,#8]
	add         x10,x8,#0x20
	ldr         x9,[sp]
	mov         x8,#0x100C
	add         x8,x9,x8
	ldr         w8,[x8]
	sxtw        x9,w8
	ldr         w8,[sp,#0x88]
	sxtw        x8,w8
	add         x9,x9,x8
	ldr         x8,[sp,#8]
	add         x8,x8,#0x18
	ldr         w8,[x8]
	uxtw        x8,w8
	mul         x9,x9,x8
	mov         x8,#4
	mul         x9,x9,x8
	ldr         x8,[x10]
	add         x10,x8,x9
	ldr         x9,[sp]
	mov         x8,#0x1008
	add         x8,x9,x8
	ldr         w8,[x8]
	sxtw        x9,w8
	ldr         w8,[sp,#0x8C]
	sxtw        x8,w8
	add         x9,x9,x8
	mov         x8,#4
	mul         x8,x9,x8
	add         x8,x10,x8
	str         w0,[x8]

; 851  : 								(static_cast<int64_t>(info->x) + i)) =
; 852  : 								ChColorAlphaBlend(*(uint32_t*)(canvas->buffer +
; 853  : 									(static_cast<int64_t>(info->y) + j) * canvas->canvasWidth +
; 854  : 									(static_cast<int64_t>(info->x) + i)),
; 855  : 									*(uint32_t*)(win->backBuffer + (static_cast<int64_t>(0) + j) * info->width +
; 856  : 										(static_cast<int64_t>(0) + i)), info->alphaValue);
; 857  : 						}

	b           |$LN41@ComposeFra|
|$LN42@ComposeFra|

; 858  : 					}

	b           |$LN38@ComposeFra|
|$LN39@ComposeFra|

; 859  : 					AddDirtyClip(info->x, info->y, width, height);

	ldr         x8,[sp,#0x168]
	mov         w3,w8
	ldr         x8,[sp,#0x170]
	mov         w2,w8
	ldr         x9,[sp]
	mov         x8,#0x100C
	add         x10,x9,x8
	ldr         x9,[sp]
	mov         x8,#0x1008
	add         x8,x9,x8
	mov         w3,w3
	mov         w2,w2
	ldr         w1,[x10]
	ldr         w0,[x8]
	bl          |?AddDirtyClip@@YAXHHHH@Z|

; 860  : 
; 861  : 				} else {

	b           |$LN133@ComposeFra|
|$LN132@ComposeFra|

; 862  : 
; 863  : 					for (clipWin = win; clipWin != NULL; clipWin = clipWin->next) {

	ldr         x8,[sp,#0x28]
	str         x8,[sp,#0xB8]
	b           |$LN46@ComposeFra|
|$LN44@ComposeFra|
	ldr         x8,[sp,#0xB8]
	add         x8,x8,#0x68
	ldr         x8,[x8]
	str         x8,[sp,#0xB8]
|$LN46@ComposeFra|
	ldr         x8,[sp,#0xB8]
	cmp         x8,#0
	beq         |$LN45@ComposeFra|

; 864  : 						clipInfo = (WinSharedInfo*)clipWin->sharedInfo;

	ldr         x8,[sp,#0xB8]
	add         x8,x8,#0x10
	ldr         x8,[x8]
	str         x8,[sp,#0x108]

; 865  : 						if (clipWin == win)

	ldr         x9,[sp,#0x28]
	ldr         x8,[sp,#0xB8]
	cmp         x8,x9
	bne         |$LN134@ComposeFra|

; 866  : 							continue;

	b           |$LN44@ComposeFra|
|$LN134@ComposeFra|

; 867  : 
; 868  : 						r2.x = clipInfo->x;

	ldr         x9,[sp,#0x108]
	mov         x8,#0x1008
	add         x8,x9,x8
	ldr         w8,[x8]
	str         w8,[sp,#0x1B0]

; 869  : 						r2.y = clipInfo->y;

	ldr         x9,[sp,#0x108]
	mov         x8,#0x100C
	add         x8,x9,x8
	ldr         w8,[x8]
	str         w8,[sp,#0x1B4]

; 870  : 						r2.w = clipInfo->width;

	ldr         x9,[sp,#0x108]
	mov         x8,#0x1010
	add         x8,x9,x8
	ldr         w8,[x8]
	str         w8,[sp,#0x1B8]

; 871  : 						r2.h = clipInfo->height;

	ldr         x9,[sp,#0x108]
	mov         x8,#0x1014
	add         x8,x9,x8
	ldr         w8,[x8]
	str         w8,[sp,#0x1BC]

; 872  : 
; 873  : 						if (ClipCheckIntersect(&r1, &r2)) {

	add         x1,sp,#0x1B0
	add         x0,sp,#0x258
	bl          |?ClipCheckIntersect@@YADPEAU_rect_@@0@Z|
	sxtb        w8,w0
	mov         w8,w8
	cmp         w8,#0
	beq         |$LN135@ComposeFra|

; 874  : 							ClipCalculateRect(&r1, &r2, clip, &clipCount);

	add         x3,sp,#0xE8
	add         x2,sp,#0x938
	add         x1,sp,#0x1B0
	add         x0,sp,#0x258
	bl          |?ClipCalculateRect@@YAXPEAU_rect_@@00PEAH@Z|
|$LN135@ComposeFra|

; 875  : 						}
; 876  : 					}

	b           |$LN44@ComposeFra|
|$LN45@ComposeFra|

; 877  : 
; 878  : 					/* always on top list */
; 879  : 					for (clipWin = alwaysOnTop; clipWin != NULL; clipWin = clipWin->next) {

	adrp        x8,|?alwaysOnTop@@3PEAU_win_@@EA|
	ldr         x8,[x8,PageOffset(|?alwaysOnTop@@3PEAU_win_@@EA|)]
	str         x8,[sp,#0xB8]
	b           |$LN49@ComposeFra|
|$LN47@ComposeFra|
	ldr         x8,[sp,#0xB8]
	add         x8,x8,#0x68
	ldr         x8,[x8]
	str         x8,[sp,#0xB8]
|$LN49@ComposeFra|
	ldr         x8,[sp,#0xB8]
	cmp         x8,#0
	beq         |$LN48@ComposeFra|

; 880  : 						clipInfo = (WinSharedInfo*)clipWin->sharedInfo;

	ldr         x8,[sp,#0xB8]
	add         x8,x8,#0x10
	ldr         x8,[x8]
	str         x8,[sp,#0x108]

; 881  : 						if (clipWin == win)

	ldr         x9,[sp,#0x28]
	ldr         x8,[sp,#0xB8]
	cmp         x8,x9
	bne         |$LN136@ComposeFra|

; 882  : 							continue;

	b           |$LN47@ComposeFra|
|$LN136@ComposeFra|

; 883  : 						r2.x = clipInfo->x;

	ldr         x9,[sp,#0x108]
	mov         x8,#0x1008
	add         x8,x9,x8
	ldr         w8,[x8]
	str         w8,[sp,#0x1B0]

; 884  : 						r2.y = clipInfo->y;

	ldr         x9,[sp,#0x108]
	mov         x8,#0x100C
	add         x8,x9,x8
	ldr         w8,[x8]
	str         w8,[sp,#0x1B4]

; 885  : 						r2.w = clipInfo->width;

	ldr         x9,[sp,#0x108]
	mov         x8,#0x1010
	add         x8,x9,x8
	ldr         w8,[x8]
	str         w8,[sp,#0x1B8]

; 886  : 						r2.h = clipInfo->height;

	ldr         x9,[sp,#0x108]
	mov         x8,#0x1014
	add         x8,x9,x8
	ldr         w8,[x8]
	str         w8,[sp,#0x1BC]

; 887  : 
; 888  : 						if (ClipCheckIntersect(&r1, &r2)) {

	add         x1,sp,#0x1B0
	add         x0,sp,#0x258
	bl          |?ClipCheckIntersect@@YADPEAU_rect_@@0@Z|
	sxtb        w8,w0
	mov         w8,w8
	cmp         w8,#0
	beq         |$LN137@ComposeFra|

; 889  : 							ClipCalculateRect(&r1, &r2, clip, &clipCount);

	add         x3,sp,#0xE8
	add         x2,sp,#0x938
	add         x1,sp,#0x1B0
	add         x0,sp,#0x258
	bl          |?ClipCalculateRect@@YAXPEAU_rect_@@00PEAH@Z|
|$LN137@ComposeFra|

; 890  : 						}
; 891  : 				}

	b           |$LN47@ComposeFra|
|$LN48@ComposeFra|

; 892  : 
; 893  : 					if (focusedWin == win) {

	ldr         x9,[sp,#0x28]
	adrp        x8,|?focusedWin@@3PEAU_win_@@EA|
	ldr         x8,[x8,PageOffset(|?focusedWin@@3PEAU_win_@@EA|)]
	cmp         x8,x9
	bne         |$LN138@ComposeFra|

; 894  : 						if (_shadow_update) {

	adrp        x8,|?_shadow_update@@3DA|
	ldrsb       w8,[x8,PageOffset(|?_shadow_update@@3DA|)]
	mov         w8,w8
	cmp         w8,#0
	beq         |$LN139@ComposeFra|

; 895  : #ifdef SHADOW_ENABLED
; 896  : 							for (int64_t j = 0; j < shad_h; j++) {
; 897  : 								for (int64_t q = 0; q < shad_w; q++) {
; 898  : 									*(uint32_t*)(canvas->buffer + ((winy - SHADOW_SIZE) + j) * canvas->canvasWidth + ((winx - SHADOW_SIZE) + q)) =
; 899  : 										ChColorAlphaBlend2(*(uint32_t*)(canvas->buffer + ((winy - SHADOW_SIZE) + j) * canvas->canvasWidth + ((winx - SHADOW_SIZE) + q)),
; 900  : 											*(uint32_t*)(win->shadowBuffers + j * (static_cast<int64_t>(info->width) + SHADOW_SIZE * 2) + q));
; 901  : 								}
; 902  : 							}
; 903  : #endif
; 904  : 							_shadow_update = false;

	adrp        x9,|?_shadow_update@@3DA|
	mov         w8,#0
	strb        w8,[x9,PageOffset(|?_shadow_update@@3DA|)]
|$LN139@ComposeFra|
|$LN138@ComposeFra|

; 905  : 						}
; 906  : 					}
; 907  : 
; 908  : 					for (int64_t i = 0; i < height; i++) {

	mov         x8,#0
	str         x8,[sp,#0x1A0]
	b           |$LN52@ComposeFra|
|$LN50@ComposeFra|
	ldr         x8,[sp,#0x1A0]
	add         x8,x8,#1
	str         x8,[sp,#0x1A0]
|$LN52@ComposeFra|
	ldr         x9,[sp,#0x168]
	ldr         x8,[sp,#0x1A0]
	cmp         x8,x9
	bge         |$LN51@ComposeFra|

; 909  : 						_fastcpy(canvas->buffer + (winy + i) * canvas->canvasWidth + winx,

	ldr         x9,[sp,#0x170]
	mov         x8,#4
	mul         x2,x9,x8
	ldr         x8,[sp,#0x28]
	add         x10,x8,#8
	ldr         x9,[sp]
	mov         x8,#0x1010
	add         x8,x9,x8
	ldr         w8,[x8]
	sxtw        x9,w8
	ldr         x8,[sp,#0x1A0]
	mul         x9,x8,x9
	mov         x8,#4
	mul         x9,x9,x8
	ldr         x8,[x10]
	add         x1,x8,x9
	ldr         x8,[sp,#8]
	add         x10,x8,#0x20
	ldr         x9,[sp,#0x158]
	ldr         x8,[sp,#0x1A0]
	add         x9,x9,x8
	ldr         x8,[sp,#8]
	add         x8,x8,#0x18
	ldr         w8,[x8]
	uxtw        x8,w8
	mul         x9,x9,x8
	mov         x8,#4
	mul         x9,x9,x8
	ldr         x8,[x10]
	add         x10,x8,x9
	ldr         x9,[sp,#0x160]
	mov         x8,#4
	mul         x8,x9,x8
	add         x0,x10,x8
	bl          _fastcpy

; 910  : 							win->backBuffer + (0 + i) * info->width + 0, width * 4);
; 911  : 					}

	b           |$LN50@ComposeFra|
|$LN51@ComposeFra|

; 912  : 
; 913  : 					/*
; 914  : 					 * Here we check the moving bit because, if any behind
; 915  : 					 * windows is not intersected by moving window, so during
; 916  : 					 * _window_update_all_ process its clipped rect count will
; 917  : 					 * be zero, so moving window prevents its from redrawing
; 918  : 					 * non intersected window with clip count = 0
; 919  : 					 */
; 920  : 					if (clipCount == 0 && !_window_moving_) {

	ldr         w8,[sp,#0xE8]
	cmp         w8,#0
	bne         |$LN140@ComposeFra|
	adrp        x8,|?_window_moving_@@3DA|
	ldrsb       w8,[x8,PageOffset(|?_window_moving_@@3DA|)]
	mov         w8,w8
	cmp         w8,#0
	bne         |$LN140@ComposeFra|

; 921  : 						AddDirtyClip(winx - SHADOW_SIZE, winy - SHADOW_SIZE, shad_w, shad_h);

	ldr         x8,[sp,#0x230]
	mov         w3,w8
	ldr         x8,[sp,#0x238]
	mov         w2,w8
	ldr         x8,[sp,#0x158]
	mov         w1,w8
	ldr         x8,[sp,#0x160]
	mov         w0,w8
	mov         w3,w3
	mov         w2,w2
	mov         w1,w1
	mov         w0,w0
	bl          |?AddDirtyClip@@YAXHHHH@Z|
|$LN140@ComposeFra|

; 922  : 					}
; 923  : 
; 924  : 					for (int k = 0; k < clipCount; k++) {

	mov         w8,#0
	str         w8,[sp,#0x54]
	b           |$LN55@ComposeFra|
|$LN53@ComposeFra|
	ldr         w8,[sp,#0x54]
	add         w8,w8,#1
	str         w8,[sp,#0x54]
|$LN55@ComposeFra|
	ldr         w9,[sp,#0xE8]
	ldr         w8,[sp,#0x54]
	cmp         w8,w9
	bge         |$LN54@ComposeFra|

; 925  : 						int k_x = clip[k].x;

	ldr         w8,[sp,#0x54]
	sxtw        x9,w8
	mov         x8,#0x10
	mul         x9,x9,x8
	add         x8,sp,#0x938
	add         x8,x8,x9
	ldr         w8,[x8]
	str         w8,[sp,#0xE4]

; 926  : 						int k_y = clip[k].y;

	ldr         w8,[sp,#0x54]
	sxtw        x9,w8
	mov         x8,#0x10
	mul         x9,x9,x8
	add         x8,sp,#0x938
	add         x8,x8,x9
	add         x8,x8,#4
	ldr         w8,[x8]
	str         w8,[sp,#0xE0]

; 927  : 						int k_w = clip[k].w;

	ldr         w8,[sp,#0x54]
	sxtw        x9,w8
	mov         x8,#0x10
	mul         x9,x9,x8
	add         x8,sp,#0x938
	add         x8,x8,x9
	add         x8,x8,#8
	ldr         w8,[x8]
	str         w8,[sp,#0x130]

; 928  : 						int k_h = clip[k].h;

	ldr         w8,[sp,#0x54]
	sxtw        x9,w8
	mov         x8,#0x10
	mul         x9,x9,x8
	add         x8,sp,#0x938
	add         x8,x8,x9
	add         x8,x8,#0xC
	ldr         w8,[x8]
	str         w8,[sp,#0x128]

; 929  : 
; 930  : 						if (k_x < 0)

	ldr         w8,[sp,#0xE4]
	cmp         w8,#0
	bge         |$LN141@ComposeFra|

; 931  : 							k_x = 0;

	mov         w8,#0
	str         w8,[sp,#0xE4]
|$LN141@ComposeFra|

; 932  : 						if (k_y < 0)

	ldr         w8,[sp,#0xE0]
	cmp         w8,#0
	bge         |$LN142@ComposeFra|

; 933  : 							k_y = 0;

	mov         w8,#0
	str         w8,[sp,#0xE0]
|$LN142@ComposeFra|

; 934  : 						if ((k_x + k_w) >= canvas->screenWidth)

	ldr         w9,[sp,#0xE4]
	ldr         w8,[sp,#0x130]
	add         w9,w9,w8
	ldr         x8,[sp,#8]
	add         x8,x8,#4
	ldr         w8,[x8]
	cmp         w9,w8
	blo         |$LN143@ComposeFra|

; 935  : 							k_w = canvas->screenWidth - k_x;

	ldr         x8,[sp,#8]
	add         x8,x8,#4
	ldr         w9,[x8]
	ldr         w8,[sp,#0xE4]
	sub         w8,w9,w8
	str         w8,[sp,#0x130]
|$LN143@ComposeFra|

; 936  : 						if ((k_y + k_h) >= canvas->screenHeight)

	ldr         w9,[sp,#0xE0]
	ldr         w8,[sp,#0x128]
	add         w9,w9,w8
	ldr         x8,[sp,#8]
	add         x8,x8,#8
	ldr         w8,[x8]
	cmp         w9,w8
	blo         |$LN144@ComposeFra|

; 937  : 							k_h = canvas->screenHeight - k_y;

	ldr         x8,[sp,#8]
	add         x8,x8,#8
	ldr         w9,[x8]
	ldr         w8,[sp,#0xE0]
	sub         w8,w9,w8
	str         w8,[sp,#0x128]
|$LN144@ComposeFra|

; 938  : 
; 939  : 						AddDirtyClip(k_x, k_y, k_w, k_h);	

	ldr         w3,[sp,#0x128]
	ldr         w2,[sp,#0x130]
	ldr         w1,[sp,#0xE0]
	ldr         w0,[sp,#0xE4]
	bl          |?AddDirtyClip@@YAXHHHH@Z|

; 940  : 					}

	b           |$LN53@ComposeFra|
|$LN54@ComposeFra|

; 941  : 					clipCount = 0;

	mov         w8,#0
	str         w8,[sp,#0xE8]
|$LN133@ComposeFra|

; 942  : 			}
; 943  : 				if (!(win->flags & WINDOW_FLAG_ANIMATED)) {

	ldr         x8,[sp,#0x28]
	ldrh        w8,[x8]
	mov         w8,w8
	tbnz        x8,#5,|$LN145@ComposeFra|

; 944  : 					if (info->updateEntireWindow)

	ldr         x9,[sp]
	mov         x8,#0x1005
	add         x8,x9,x8
	ldrsb       w8,[x8]
	mov         w8,w8
	cmp         w8,#0
	beq         |$LN146@ComposeFra|

; 945  : 						info->updateEntireWindow = 0;

	ldr         x9,[sp]
	mov         x8,#0x1005
	add         x9,x9,x8
	mov         w8,#0
	strb        w8,[x9]
|$LN146@ComposeFra|

; 946  : 					if (!info->windowReady)

	ldr         x9,[sp]
	mov         x8,#0x1028
	add         x8,x9,x8
	ldrsb       w8,[x8]
	mov         w8,w8
	cmp         w8,#0
	bne         |$LN147@ComposeFra|

; 947  : 						info->windowReady = 1;

	ldr         x9,[sp]
	mov         x8,#0x1028
	add         x9,x9,x8
	mov         w8,#1
	strb        w8,[x9]
|$LN147@ComposeFra|
|$LN145@ComposeFra|
|$LN129@ComposeFra|
|$LN119@ComposeFra|

; 948  : 				}
; 949  : 			}
; 950  : 
; 951  : 		}
; 952  : 		
; 953  : 	}

	b           |$LN5@ComposeFra|
|$LN6@ComposeFra|

; 954  : 
; 955  : 
; 956  : 	/* //------- Always on Top Windows follow, another data structure ----------// */
; 957  : 	/* // ----------------------------------------------------------------------// */
; 958  : 
; 959  : 	for (Window* win = alwaysOnTop; win != NULL; win = win->next) {

	adrp        x8,|?alwaysOnTop@@3PEAU_win_@@EA|
	ldr         x8,[x8,PageOffset(|?alwaysOnTop@@3PEAU_win_@@EA|)]
	str         x8,[sp,#0x48]
	b           |$LN58@ComposeFra|
|$LN56@ComposeFra|
	ldr         x8,[sp,#0x48]
	add         x8,x8,#0x68
	ldr         x8,[x8]
	str         x8,[sp,#0x48]
|$LN58@ComposeFra|
	ldr         x8,[sp,#0x48]
	cmp         x8,#0
	beq         |$LN57@ComposeFra|

; 960  : 		WinSharedInfo* info = (WinSharedInfo*)win->sharedInfo;

	ldr         x8,[sp,#0x48]
	add         x8,x8,#0x10
	ldr         x8,[x8]
	str         x8,[sp,#0x10]

; 961  : 		if (info->hide)

	ldr         x9,[sp,#0x10]
	mov         x8,#0x1019
	add         x8,x9,x8
	ldrsb       w8,[x8]
	mov         w8,w8
	cmp         w8,#0
	beq         |$LN148@ComposeFra|

; 962  : 			continue;

	b           |$LN56@ComposeFra|
|$LN148@ComposeFra|

; 963  : 		/*
; 964  : 		* Check for small area updates !! not entire window
; 965  : 		*/
; 966  : 		if (info->rect_count > 0) {

	ldr         x8,[sp,#0x10]
	add         x8,x8,#1,lsl #0xC
	ldr         w8,[x8]
	cmp         w8,#0
	bls         |$LN149@ComposeFra|

; 967  : 			for (int k = 0; k < info->rect_count; k++) {

	mov         w8,#0
	str         w8,[sp,#0x58]
	b           |$LN61@ComposeFra|
|$LN59@ComposeFra|
	ldr         w8,[sp,#0x58]
	add         w8,w8,#1
	str         w8,[sp,#0x58]
|$LN61@ComposeFra|
	ldr         x8,[sp,#0x10]
	add         x8,x8,#1,lsl #0xC
	ldr         w9,[x8]
	ldr         w8,[sp,#0x58]
	cmp         w8,w9
	bhs         |$LN60@ComposeFra|

; 968  : 				int r_x = info->rect[k].x;

	ldr         x10,[sp,#0x10]
	ldr         w8,[sp,#0x58]
	sxtw        x9,w8
	mov         x8,#0x10
	mul         x8,x9,x8
	add         x8,x10,x8
	ldr         w8,[x8]
	str         w8,[sp,#0x1C]

; 969  : 				int r_y = info->rect[k].y;

	ldr         x10,[sp,#0x10]
	ldr         w8,[sp,#0x58]
	sxtw        x9,w8
	mov         x8,#0x10
	mul         x8,x9,x8
	add         x8,x10,x8
	add         x8,x8,#4
	ldr         w8,[x8]
	str         w8,[sp,#0x20]

; 970  : 				int r_w = info->rect[k].w;

	ldr         x10,[sp,#0x10]
	ldr         w8,[sp,#0x58]
	sxtw        x9,w8
	mov         x8,#0x10
	mul         x8,x9,x8
	add         x8,x10,x8
	add         x8,x8,#8
	ldr         w8,[x8]
	str         w8,[sp,#0x60]

; 971  : 				int r_h = info->rect[k].h;

	ldr         x10,[sp,#0x10]
	ldr         w8,[sp,#0x58]
	sxtw        x9,w8
	mov         x8,#0x10
	mul         x8,x9,x8
	add         x8,x10,x8
	add         x8,x8,#0xC
	ldr         w8,[x8]
	str         w8,[sp,#0x5C]

; 972  : 
; 973  : 				if (r_x < 0)

	ldr         w8,[sp,#0x1C]
	cmp         w8,#0
	bge         |$LN150@ComposeFra|

; 974  : 					r_x = 0;

	mov         w8,#0
	str         w8,[sp,#0x1C]
|$LN150@ComposeFra|

; 975  : 
; 976  : 				if (r_y < 0)

	ldr         w8,[sp,#0x20]
	cmp         w8,#0
	bge         |$LN151@ComposeFra|

; 977  : 					r_y = 0;

	mov         w8,#0
	str         w8,[sp,#0x20]
|$LN151@ComposeFra|

; 978  : 
; 979  : 				if ((info->x + r_x + r_w) >= canvas->canvasWidth)

	ldr         x9,[sp,#0x10]
	mov         x8,#0x1008
	add         x8,x9,x8
	ldr         w9,[x8]
	ldr         w8,[sp,#0x1C]
	add         w9,w9,w8
	ldr         w8,[sp,#0x60]
	add         w9,w9,w8
	ldr         x8,[sp,#8]
	add         x8,x8,#0x18
	ldr         w8,[x8]
	cmp         w9,w8
	blo         |$LN152@ComposeFra|

; 980  : 					r_w = canvas->canvasWidth - (info->x + r_x);

	ldr         x8,[sp,#8]
	add         x10,x8,#0x18
	ldr         x9,[sp,#0x10]
	mov         x8,#0x1008
	add         x8,x9,x8
	ldr         w9,[x8]
	ldr         w8,[sp,#0x1C]
	add         w9,w9,w8
	ldr         w8,[x10]
	sub         w8,w8,w9
	str         w8,[sp,#0x60]
|$LN152@ComposeFra|

; 981  : 
; 982  : 				if ((info->y + r_y + r_h) >= canvas->canvasHeight)

	ldr         x9,[sp,#0x10]
	mov         x8,#0x100C
	add         x8,x9,x8
	ldr         w9,[x8]
	ldr         w8,[sp,#0x20]
	add         w9,w9,w8
	ldr         w8,[sp,#0x5C]
	add         w9,w9,w8
	ldr         x8,[sp,#8]
	add         x8,x8,#0x1C
	ldr         w8,[x8]
	cmp         w9,w8
	blo         |$LN153@ComposeFra|

; 983  : 					r_h = canvas->canvasHeight - (info->y + r_y);

	ldr         x8,[sp,#8]
	add         x10,x8,#0x1C
	ldr         x9,[sp,#0x10]
	mov         x8,#0x100C
	add         x8,x9,x8
	ldr         w9,[x8]
	ldr         w8,[sp,#0x20]
	add         w9,w9,w8
	ldr         w8,[x10]
	sub         w8,w8,w9
	str         w8,[sp,#0x5C]
|$LN153@ComposeFra|

; 984  : 
; 985  : 				/* from here, we check if the small rectangle is
; 986  : 				* covered by a window or another rectangle */
; 987  : 
; 988  : 				Rect r1;
; 989  : 				Rect r2;
; 990  : 				r1.x = info->x + r_x;

	ldr         x9,[sp,#0x10]
	mov         x8,#0x1008
	add         x8,x9,x8
	ldr         w9,[x8]
	ldr         w8,[sp,#0x1C]
	add         w8,w9,w8
	str         w8,[sp,#0x298]

; 991  : 				r1.y = info->y + r_y;

	ldr         x9,[sp,#0x10]
	mov         x8,#0x100C
	add         x8,x9,x8
	ldr         w9,[x8]
	ldr         w8,[sp,#0x20]
	add         w8,w9,w8
	str         w8,[sp,#0x29C]

; 992  : 				r1.w = r_w;

	ldr         w8,[sp,#0x60]
	str         w8,[sp,#0x2A0]

; 993  : 				r1.h = r_h;

	ldr         w8,[sp,#0x5C]
	str         w8,[sp,#0x2A4]

; 994  : 				bool overlap = false;

	mov         w8,#0
	strb        w8,[sp,#0x31]

; 995  : 				Rect clipRect[100];
; 996  : 				int clipCount = 0;

	mov         w8,#0
	str         w8,[sp,#0x118]

; 997  : 				Window* clipWin = NULL;

	mov         x8,#0
	str         x8,[sp,#0x178]

; 998  : 				WinSharedInfo* clipInfo = NULL;

	mov         x8,#0
	str         x8,[sp,#0x1A8]

; 999  : 
; 1000 : 				if (info->alpha && !_window_moving_) {

	ldr         x9,[sp,#0x10]
	mov         x8,#0x1018
	add         x8,x9,x8
	ldrsb       w8,[x8]
	mov         w8,w8
	cmp         w8,#0
	beq         |$LN154@ComposeFra|
	adrp        x8,|?_window_moving_@@3DA|
	ldrsb       w8,[x8,PageOffset(|?_window_moving_@@3DA|)]
	mov         w8,w8
	cmp         w8,#0
	bne         |$LN154@ComposeFra|

; 1001 : 					for (int j = 0; j < r_h; j++) {

	mov         w8,#0
	str         w8,[sp,#0x90]
	b           |$LN64@ComposeFra|
|$LN62@ComposeFra|
	ldr         w8,[sp,#0x90]
	add         w8,w8,#1
	str         w8,[sp,#0x90]
|$LN64@ComposeFra|
	ldr         w9,[sp,#0x5C]
	ldr         w8,[sp,#0x90]
	cmp         w8,w9
	bge         |$LN63@ComposeFra|

; 1002 : 						for (int i = 0; i < r_w; i++) {

	mov         w8,#0
	str         w8,[sp,#0x94]
	b           |$LN67@ComposeFra|
|$LN65@ComposeFra|
	ldr         w8,[sp,#0x94]
	add         w8,w8,#1
	str         w8,[sp,#0x94]
|$LN67@ComposeFra|
	ldr         w9,[sp,#0x60]
	ldr         w8,[sp,#0x94]
	cmp         w8,w9
	bge         |$LN66@ComposeFra|

; 1003 : 							*(uint32_t*)(canvas->buffer + (static_cast<int64_t>(info->y) + r_y + j) * canvas->canvasWidth + 

	ldr         x8,[sp,#0x48]
	add         x11,x8,#8
	ldr         w8,[sp,#0x20]
	sxtw        x9,w8
	ldr         w8,[sp,#0x90]
	sxtw        x8,w8
	add         x10,x9,x8
	ldr         x9,[sp,#0x10]
	mov         x8,#0x1010
	add         x8,x9,x8
	ldr         w8,[x8]
	sxtw        x8,w8
	mul         x9,x10,x8
	mov         x8,#4
	mul         x9,x9,x8
	ldr         x8,[x11]
	add         x10,x8,x9
	ldr         w8,[sp,#0x1C]
	sxtw        x9,w8
	ldr         w8,[sp,#0x94]
	sxtw        x8,w8
	add         x9,x9,x8
	mov         x8,#4
	mul         x8,x9,x8
	add         x11,x10,x8
	ldr         x9,[sp,#0x10]
	mov         x8,#0x100C
	add         x8,x9,x8
	ldr         w8,[x8]
	sxtw        x9,w8
	ldr         w8,[sp,#0x20]
	sxtw        x8,w8
	add         x9,x9,x8
	ldr         w8,[sp,#0x90]
	sxtw        x8,w8
	add         x9,x9,x8
	ldr         x8,[sp,#8]
	add         x8,x8,#0x18
	ldr         w8,[x8]
	uxtw        x8,w8
	mul         x9,x9,x8
	mov         x8,#4
	mul         x9,x9,x8
	adrp        x8,|?surfaceBuffer@@3PEAIEA|
	ldr         x8,[x8,PageOffset(|?surfaceBuffer@@3PEAIEA|)]
	add         x10,x8,x9
	ldr         x9,[sp,#0x10]
	mov         x8,#0x1008
	add         x8,x9,x8
	ldr         w8,[x8]
	sxtw        x9,w8
	ldr         w8,[sp,#0x1C]
	sxtw        x8,w8
	add         x9,x9,x8
	ldr         w8,[sp,#0x94]
	sxtw        x8,w8
	add         x9,x9,x8
	mov         x8,#4
	mul         x8,x9,x8
	add         x8,x10,x8
	ldr         w1,[x11]
	ldr         w0,[x8]
	bl          ChColorAlphaBlend2
	mov         w0,w0
	ldr         x8,[sp,#8]
	add         x10,x8,#0x20
	ldr         x9,[sp,#0x10]
	mov         x8,#0x100C
	add         x8,x9,x8
	ldr         w8,[x8]
	sxtw        x9,w8
	ldr         w8,[sp,#0x20]
	sxtw        x8,w8
	add         x9,x9,x8
	ldr         w8,[sp,#0x90]
	sxtw        x8,w8
	add         x9,x9,x8
	ldr         x8,[sp,#8]
	add         x8,x8,#0x18
	ldr         w8,[x8]
	uxtw        x8,w8
	mul         x9,x9,x8
	mov         x8,#4
	mul         x9,x9,x8
	ldr         x8,[x10]
	add         x10,x8,x9
	ldr         x9,[sp,#0x10]
	mov         x8,#0x1008
	add         x8,x9,x8
	ldr         w8,[x8]
	sxtw        x9,w8
	ldr         w8,[sp,#0x1C]
	sxtw        x8,w8
	add         x9,x9,x8
	ldr         w8,[sp,#0x94]
	sxtw        x8,w8
	add         x9,x9,x8
	mov         x8,#4
	mul         x8,x9,x8
	add         x8,x10,x8
	str         w0,[x8]

; 1004 : 								(static_cast<int64_t>(info->x) + r_x + i)) =
; 1005 : 								ChColorAlphaBlend2(*(uint32_t*)(surfaceBuffer +
; 1006 : 									(static_cast<int64_t>(info->y) + r_y + j)* canvas->canvasWidth + 
; 1007 : 									(static_cast<int64_t>(info->x) + r_x + i)),
; 1008 : 								*(uint32_t*)(win->backBuffer + (static_cast<int64_t>(r_y) + j)* info->width + 
; 1009 : 									(static_cast<int64_t>(r_x) + i)));
; 1010 : 							
; 1011 : 						}

	b           |$LN65@ComposeFra|
|$LN66@ComposeFra|

; 1012 : 					}

	b           |$LN62@ComposeFra|
|$LN63@ComposeFra|

; 1013 : 					AddDirtyClip(info->x + r_x, info->y + r_y, r_w, r_h);

	ldr         x9,[sp,#0x10]
	mov         x8,#0x100C
	add         x8,x9,x8
	ldr         w9,[x8]
	ldr         w8,[sp,#0x20]
	add         w1,w9,w8
	ldr         x9,[sp,#0x10]
	mov         x8,#0x1008
	add         x8,x9,x8
	ldr         w9,[x8]
	ldr         w8,[sp,#0x1C]
	add         w0,w9,w8
	ldr         w3,[sp,#0x5C]
	ldr         w2,[sp,#0x60]
	mov         w1,w1
	mov         w0,w0
	bl          |?AddDirtyClip@@YAXHHHH@Z|

; 1014 : 				}

	b           |$LN155@ComposeFra|
|$LN154@ComposeFra|

; 1015 : 				else {
; 1016 : 					if (focusedWin != win) {

	ldr         x9,[sp,#0x48]
	adrp        x8,|?focusedWin@@3PEAU_win_@@EA|
	ldr         x8,[x8,PageOffset(|?focusedWin@@3PEAU_win_@@EA|)]
	cmp         x8,x9
	beq         |$LN156@ComposeFra|

; 1017 : 						for (clipWin = win; clipWin != NULL; clipWin = clipWin->next) {

	ldr         x8,[sp,#0x48]
	str         x8,[sp,#0x178]
	b           |$LN70@ComposeFra|
|$LN68@ComposeFra|
	ldr         x8,[sp,#0x178]
	add         x8,x8,#0x68
	ldr         x8,[x8]
	str         x8,[sp,#0x178]
|$LN70@ComposeFra|
	ldr         x8,[sp,#0x178]
	cmp         x8,#0
	beq         |$LN69@ComposeFra|

; 1018 : 							clipInfo = (WinSharedInfo*)clipWin->sharedInfo;

	ldr         x8,[sp,#0x178]
	add         x8,x8,#0x10
	ldr         x8,[x8]
	str         x8,[sp,#0x1A8]

; 1019 : 							if (clipWin == win)

	ldr         x9,[sp,#0x48]
	ldr         x8,[sp,#0x178]
	cmp         x8,x9
	bne         |$LN157@ComposeFra|

; 1020 : 								continue;

	b           |$LN68@ComposeFra|
|$LN157@ComposeFra|

; 1021 : 							r2.x = clipInfo->x;

	ldr         x9,[sp,#0x1A8]
	mov         x8,#0x1008
	add         x8,x9,x8
	ldr         w8,[x8]
	str         w8,[sp,#0x288]

; 1022 : 							r2.y = clipInfo->y;

	ldr         x9,[sp,#0x1A8]
	mov         x8,#0x100C
	add         x8,x9,x8
	ldr         w8,[x8]
	str         w8,[sp,#0x28C]

; 1023 : 							r2.w = clipInfo->width;

	ldr         x9,[sp,#0x1A8]
	mov         x8,#0x1010
	add         x8,x9,x8
	ldr         w8,[x8]
	str         w8,[sp,#0x290]

; 1024 : 							r2.h = clipInfo->height;

	ldr         x9,[sp,#0x1A8]
	mov         x8,#0x1014
	add         x8,x9,x8
	ldr         w8,[x8]
	str         w8,[sp,#0x294]

; 1025 : 
; 1026 : 							if (ClipCheckIntersect(&r1, &r2)){

	add         x1,sp,#0x288
	add         x0,sp,#0x298
	bl          |?ClipCheckIntersect@@YADPEAU_rect_@@0@Z|
	sxtb        w8,w0
	mov         w8,w8
	cmp         w8,#0
	beq         |$LN158@ComposeFra|

; 1027 : 								overlap = true;

	mov         w8,#1
	strb        w8,[sp,#0x31]

; 1028 : 								ClipCalculateRect(&r1, &r2, clipRect, &clipCount);

	add         x3,sp,#0x118
	add         x2,sp,#0xF78
	add         x1,sp,#0x288
	add         x0,sp,#0x298
	bl          |?ClipCalculateRect@@YAXPEAU_rect_@@00PEAH@Z|
|$LN158@ComposeFra|

; 1029 : 							}
; 1030 : 						}

	b           |$LN68@ComposeFra|
|$LN69@ComposeFra|
|$LN156@ComposeFra|

; 1031 : 					}
; 1032 : 
; 1033 : 					if (clipCount == 0 && !overlap) {

	ldr         w8,[sp,#0x118]
	cmp         w8,#0
	bne         |$LN159@ComposeFra|
	ldrsb       w8,[sp,#0x31]
	mov         w8,w8
	cmp         w8,#0
	bne         |$LN159@ComposeFra|

; 1034 : 						for (int i = 0; i < r_h; i++) {

	mov         w8,#0
	str         w8,[sp,#0xEC]
	b           |$LN73@ComposeFra|
|$LN71@ComposeFra|
	ldr         w8,[sp,#0xEC]
	add         w8,w8,#1
	str         w8,[sp,#0xEC]
|$LN73@ComposeFra|
	ldr         w9,[sp,#0x5C]
	ldr         w8,[sp,#0xEC]
	cmp         w8,w9
	bge         |$LN72@ComposeFra|

; 1035 : 							void* canv_buff = (canvas->buffer + (static_cast<int64_t>(info->y) + r_y + i) * 

	ldr         x8,[sp,#8]
	add         x10,x8,#0x20
	ldr         x9,[sp,#0x10]
	mov         x8,#0x100C
	add         x8,x9,x8
	ldr         w8,[x8]
	sxtw        x9,w8
	ldr         w8,[sp,#0x20]
	sxtw        x8,w8
	add         x9,x9,x8
	ldr         w8,[sp,#0xEC]
	sxtw        x8,w8
	add         x9,x9,x8
	ldr         x8,[sp,#8]
	add         x8,x8,#0x18
	ldr         w8,[x8]
	uxtw        x8,w8
	mul         x9,x9,x8
	mov         x8,#4
	mul         x9,x9,x8
	ldr         x8,[x10]
	add         x10,x8,x9
	ldr         x9,[sp,#0x10]
	mov         x8,#0x1008
	add         x8,x9,x8
	ldr         w8,[x8]
	sxtw        x9,w8
	mov         x8,#4
	mul         x8,x9,x8
	add         x10,x10,x8
	ldr         w8,[sp,#0x1C]
	sxtw        x9,w8
	mov         x8,#4
	mul         x8,x9,x8
	add         x8,x10,x8
	str         x8,[sp,#0x2B0]

; 1036 : 								canvas->canvasWidth + info->x + r_x);
; 1037 : 							void* backbuff = (win->backBuffer + (static_cast<int64_t>(r_y) + i) * info->width + r_x);

	ldr         x8,[sp,#0x48]
	add         x11,x8,#8
	ldr         w8,[sp,#0x20]
	sxtw        x9,w8
	ldr         w8,[sp,#0xEC]
	sxtw        x8,w8
	add         x10,x9,x8
	ldr         x9,[sp,#0x10]
	mov         x8,#0x1010
	add         x8,x9,x8
	ldr         w8,[x8]
	sxtw        x8,w8
	mul         x9,x10,x8
	mov         x8,#4
	mul         x9,x9,x8
	ldr         x8,[x11]
	add         x10,x8,x9
	ldr         w8,[sp,#0x1C]
	sxtw        x9,w8
	mov         x8,#4
	mul         x8,x9,x8
	add         x8,x10,x8
	str         x8,[sp,#0x2A8]

; 1038 : 							_fastcpy(canv_buff,

	ldr         w8,[sp,#0x60]
	sxtw        x9,w8
	mov         x8,#4
	mul         x2,x9,x8
	ldr         x1,[sp,#0x2A8]
	ldr         x0,[sp,#0x2B0]
	bl          _fastcpy

; 1039 : 								backbuff, static_cast<int64_t>(r_w)*4);
; 1040 : 						}

	b           |$LN71@ComposeFra|
|$LN72@ComposeFra|

; 1041 : 						AddDirtyClip(info->x + r_x, info->y + r_y, r_w, r_h);

	ldr         x9,[sp,#0x10]
	mov         x8,#0x100C
	add         x8,x9,x8
	ldr         w9,[x8]
	ldr         w8,[sp,#0x20]
	add         w1,w9,w8
	ldr         x9,[sp,#0x10]
	mov         x8,#0x1008
	add         x8,x9,x8
	ldr         w9,[x8]
	ldr         w8,[sp,#0x1C]
	add         w0,w9,w8
	ldr         w3,[sp,#0x5C]
	ldr         w2,[sp,#0x60]
	mov         w1,w1
	mov         w0,w0
	bl          |?AddDirtyClip@@YAXHHHH@Z|
|$LN159@ComposeFra|

; 1042 : 					}
; 1043 : 
; 1044 : 					for (int l = 0; l < clipCount; l++) {

	mov         w8,#0
	str         w8,[sp,#0x64]
	b           |$LN76@ComposeFra|
|$LN74@ComposeFra|
	ldr         w8,[sp,#0x64]
	add         w8,w8,#1
	str         w8,[sp,#0x64]
|$LN76@ComposeFra|
	ldr         w9,[sp,#0x118]
	ldr         w8,[sp,#0x64]
	cmp         w8,w9
	bge         |$LN75@ComposeFra|

; 1045 : 						int k_x = clipRect[l].x;

	ldr         w8,[sp,#0x64]
	sxtw        x9,w8
	mov         x8,#0x10
	mul         x9,x9,x8
	add         x8,sp,#0xF78
	add         x8,x8,x9
	ldr         w8,[x8]
	str         w8,[sp,#0x6C]

; 1046 : 						int k_y = clipRect[l].y;

	ldr         w8,[sp,#0x64]
	sxtw        x9,w8
	mov         x8,#0x10
	mul         x9,x9,x8
	add         x8,sp,#0xF78
	add         x8,x8,x9
	add         x8,x8,#4
	ldr         w8,[x8]
	str         w8,[sp,#0x70]

; 1047 : 						int k_w = clipRect[l].w;

	ldr         w8,[sp,#0x64]
	sxtw        x9,w8
	mov         x8,#0x10
	mul         x9,x9,x8
	add         x8,sp,#0xF78
	add         x8,x8,x9
	add         x8,x8,#8
	ldr         w8,[x8]
	str         w8,[sp,#0x11C]

; 1048 : 						int k_h = clipRect[l].h;

	ldr         w8,[sp,#0x64]
	sxtw        x9,w8
	mov         x8,#0x10
	mul         x9,x9,x8
	add         x8,sp,#0xF78
	add         x8,x8,x9
	add         x8,x8,#0xC
	ldr         w8,[x8]
	str         w8,[sp,#0x110]

; 1049 : 
; 1050 : 						if (k_x < 0)

	ldr         w8,[sp,#0x6C]
	cmp         w8,#0
	bge         |$LN160@ComposeFra|

; 1051 : 							k_x = 0;

	mov         w8,#0
	str         w8,[sp,#0x6C]
|$LN160@ComposeFra|

; 1052 : 						if (k_y < 0)

	ldr         w8,[sp,#0x70]
	cmp         w8,#0
	bge         |$LN161@ComposeFra|

; 1053 : 							k_y = 0;

	mov         w8,#0
	str         w8,[sp,#0x70]
|$LN161@ComposeFra|

; 1054 : 						if ((k_x + k_w) >= canvas->screenWidth)

	ldr         w9,[sp,#0x6C]
	ldr         w8,[sp,#0x11C]
	add         w9,w9,w8
	ldr         x8,[sp,#8]
	add         x8,x8,#4
	ldr         w8,[x8]
	cmp         w9,w8
	blo         |$LN162@ComposeFra|

; 1055 : 							k_w = canvas->screenWidth - k_x;

	ldr         x8,[sp,#8]
	add         x8,x8,#4
	ldr         w9,[x8]
	ldr         w8,[sp,#0x6C]
	sub         w8,w9,w8
	str         w8,[sp,#0x11C]
|$LN162@ComposeFra|

; 1056 : 						if ((k_y + k_h) >= canvas->screenHeight)

	ldr         w9,[sp,#0x70]
	ldr         w8,[sp,#0x110]
	add         w9,w9,w8
	ldr         x8,[sp,#8]
	add         x8,x8,#8
	ldr         w8,[x8]
	cmp         w9,w8
	blo         |$LN163@ComposeFra|

; 1057 : 							k_h = canvas->screenHeight - k_y;

	ldr         x8,[sp,#8]
	add         x8,x8,#8
	ldr         w9,[x8]
	ldr         w8,[sp,#0x70]
	sub         w8,w9,w8
	str         w8,[sp,#0x110]
|$LN163@ComposeFra|

; 1058 : 
; 1059 : 						int offset_x = info->x + r_x;

	ldr         x9,[sp,#0x10]
	mov         x8,#0x1008
	add         x8,x9,x8
	ldr         w9,[x8]
	ldr         w8,[sp,#0x1C]
	add         w8,w9,w8
	str         w8,[sp,#0x21C]

; 1060 : 
; 1061 : 						int diffx = k_x - offset_x;

	ldr         w9,[sp,#0x6C]
	ldr         w8,[sp,#0x21C]
	sub         w8,w9,w8
	str         w8,[sp,#0x218]

; 1062 : 						int update_r_x = r_x + diffx;

	ldr         w9,[sp,#0x1C]
	ldr         w8,[sp,#0x218]
	add         w8,w9,w8
	str         w8,[sp,#0x250]

; 1063 : 
; 1064 : 						int offset_y = info->y + r_y;

	ldr         x9,[sp,#0x10]
	mov         x8,#0x100C
	add         x8,x9,x8
	ldr         w9,[x8]
	ldr         w8,[sp,#0x20]
	add         w8,w9,w8
	str         w8,[sp,#0x244]

; 1065 : 						int diffy = k_y - offset_y;

	ldr         w9,[sp,#0x70]
	ldr         w8,[sp,#0x244]
	sub         w8,w9,w8
	str         w8,[sp,#0x248]

; 1066 : 						int update_r_y = r_y + diffy;

	ldr         w9,[sp,#0x20]
	ldr         w8,[sp,#0x248]
	add         w8,w9,w8
	str         w8,[sp,#0x24C]

; 1067 : 
; 1068 : 						for (int j = 0; j < k_h; j++) {

	mov         w8,#0
	str         w8,[sp,#0xF0]
	b           |$LN79@ComposeFra|
|$LN77@ComposeFra|
	ldr         w8,[sp,#0xF0]
	add         w8,w8,#1
	str         w8,[sp,#0xF0]
|$LN79@ComposeFra|
	ldr         w9,[sp,#0x110]
	ldr         w8,[sp,#0xF0]
	cmp         w8,w9
	bge         |$LN78@ComposeFra|

; 1069 : 							_fastcpy((canvas->buffer + (static_cast<int64_t>(k_y) + j) * canvas->canvasWidth + k_x),

	ldr         w8,[sp,#0x11C]
	sxtw        x9,w8
	mov         x8,#4
	mul         x2,x9,x8
	ldr         x8,[sp,#0x48]
	add         x11,x8,#8
	ldr         w8,[sp,#0x24C]
	sxtw        x9,w8
	ldr         w8,[sp,#0xF0]
	sxtw        x8,w8
	add         x10,x9,x8
	ldr         x9,[sp,#0x10]
	mov         x8,#0x1010
	add         x8,x9,x8
	ldr         w8,[x8]
	sxtw        x8,w8
	mul         x9,x10,x8
	mov         x8,#4
	mul         x9,x9,x8
	ldr         x8,[x11]
	add         x10,x8,x9
	ldr         w8,[sp,#0x250]
	sxtw        x9,w8
