; Listing generated by Microsoft (R) Optimizing Compiler Version 19.29.30159.0 

	TTL	C:\Users\paras\source\repos\grep-name\XenevaOS\Process\Deodhai\ARM64\Debug\dirty.obj
	ARM64

	AREA	|.drectve|, DRECTVE

	EXPORT	|?dirtyRect@@3PAU_rect_@@A| [ DATA ]	; dirtyRect
	EXPORT	|?ioctl@@3U_XEFileControl_@@A| [ DATA ]	; ioctl

	AREA	|.bss|, NOINIT
|?dirtyRect@@3PAU_rect_@@A| % 0x640			; dirtyRect
|?ioctl@@3U_XEFileControl_@@A| % 0x28			; ioctl

	AREA	|.rdata|, DATA, READONLY
|$SG3400| DCB	"AddDirtyClip: corrupted x value %d", 0xd, 0xa, 0x0
	%	3
|$SG3402| DCB	"AddDirtyClip: corrupted y value %d", 0xd, 0xa, 0x0
	%	3
|$SG3416| DCB	"DirtyR -x %d", 0xd, 0xa, 0x0
	%	1
|$SG3418| DCB	"DirtyRect -y %d", 0xd, 0xa, 0x0
	%	6
|$SG3420| DCB	"Dirty Rect w - %d ", 0xd, 0xa, 0x0
	%	3
|$SG3422| DCB	"Dirty Rect h - %d ", 0xd, 0xa, 0x0
	EXPORT	|?InitialiseDirtyClipList@@YAXXZ|	; InitialiseDirtyClipList
	EXPORT	|?AddDirtyClip@@YAXHHHH@Z|		; AddDirtyClip
	EXPORT	|?DirtyScreenUpdate@@YAXPEAU_ChCanvas_@@@Z| ; DirtyScreenUpdate
	EXPORT	|?GetDirtyRectCount@@YAIXZ|		; GetDirtyRectCount
	IMPORT	|_KePrint|
	IMPORT	|ChCanvasScreenUpdate|
	IMPORT	|memset|
	IMPORT	|_KeFileIoControl|
	IMPORT	|?_get_gpu_fd@@YAHXZ|			; _get_gpu_fd
	IMPORT	|?_get_gpu_display_id@@YAHXZ|		; _get_gpu_display_id
	IMPORT	|?_is_gpu_enabled@@YADXZ|		; _is_gpu_enabled

	AREA	|.bss|, NOINIT
|?_dirty_count@@3IA| % 0x4				; _dirty_count

	AREA	|.pdata|, PDATA
|$pdata$?InitialiseDirtyClipList@@YAXXZ| DCD imagerel |$LN6|
	DCD	0x12000f9
	;Flags[SingleProEpi] functionLength[248] RegF[0] RegI[0] H[0] frameChainReturn[UnChainedSavedLR] frameSize[32]
|$pdata$?AddDirtyClip@@YAXHHHH@Z| DCD imagerel |$LN6|
	DCD	0x1200139
	;Flags[SingleProEpi] functionLength[312] RegF[0] RegI[0] H[0] frameChainReturn[UnChainedSavedLR] frameSize[32]
|$pdata$?DirtyScreenUpdate@@YAXPEAU_ChCanvas_@@@Z| DCD imagerel |$LN12|
	DCD	0x1a003d9
	;Flags[SingleProEpi] functionLength[984] RegF[0] RegI[0] H[0] frameChainReturn[UnChainedSavedLR] frameSize[48]
; Function compile flags: /Odtpy
; File C:\Users\paras\source\repos\grep-name\XenevaOS\Process\Deodhai\dirty.cpp

	AREA	|.text$mn|, CODE, ARM64

|?GetDirtyRectCount@@YAIXZ| PROC			; GetDirtyRectCount

; 131  : 	return _dirty_count;

	adrp        x8,|?_dirty_count@@3IA|
	ldr         w0,[x8,PageOffset(|?_dirty_count@@3IA|)]
	ret

	ENDP  ; |?GetDirtyRectCount@@YAIXZ|, GetDirtyRectCount

; Function compile flags: /Odtpy
; File C:\Users\paras\source\repos\grep-name\XenevaOS\Process\Deodhai\dirty.cpp

	AREA	|.text$mn|, CODE, ARM64

|?DirtyScreenUpdate@@YAXPEAU_ChCanvas_@@@Z| PROC	; DirtyScreenUpdate

; 85   : void DirtyScreenUpdate(ChCanvas* canvas) {

|$LN12|
	str         lr,[sp,#-0x10]!
	sub         sp,sp,#0x20
	str         x0,[sp,#0x10]

; 86   : 	int display_id = _get_gpu_display_id();

	bl          |?_get_gpu_display_id@@YAHXZ|
	mov         w0,w0
	str         w0,[sp,#8]

; 87   : 
; 88   : 	bool gpu_update = false;

	mov         w8,#0
	strb        w8,[sp]

; 89   : 	for (int i = 0; i < _dirty_count; i++) {

	mov         w8,#0
	str         w8,[sp,#4]
	b           |$LN4@DirtyScree|
|$LN2@DirtyScree|
	ldr         w8,[sp,#4]
	add         w8,w8,#1
	str         w8,[sp,#4]
|$LN4@DirtyScree|
	adrp        x8,|?_dirty_count@@3IA|
	ldr         w9,[x8,PageOffset(|?_dirty_count@@3IA|)]
	ldr         w8,[sp,#4]
	cmp         w8,w9
	bhs         |$LN3@DirtyScree|

; 90   : 		gpu_update = 1;

	mov         w8,#1
	strb        w8,[sp]

; 91   : 		if (dirtyRect[i].x < 0){

	ldr         w8,[sp,#4]
	sxtw        x9,w8
	mov         x8,#0x10
	mul         x9,x9,x8
	adrp        x8,|?dirtyRect@@3PAU_rect_@@A|
	add         x8,x8,PageOffset(|?dirtyRect@@3PAU_rect_@@A|)
	add         x8,x8,x9
	ldr         w8,[x8]
	cmp         w8,#0
	bge         |$LN5@DirtyScree|

; 92   : 			_KePrint("DirtyR -x %d\r\n", dirtyRect[i].x);

	ldr         w8,[sp,#4]
	sxtw        x9,w8
	mov         x8,#0x10
	mul         x9,x9,x8
	adrp        x8,|?dirtyRect@@3PAU_rect_@@A|
	add         x8,x8,PageOffset(|?dirtyRect@@3PAU_rect_@@A|)
	add         x8,x8,x9
	ldr         w1,[x8]
	adrp        x8,|$SG3416|
	add         x0,x8,PageOffset(|$SG3416|)
	bl          _KePrint

; 93   : 			dirtyRect[i].x = 0;

	ldr         w8,[sp,#4]
	sxtw        x9,w8
	mov         x8,#0x10
	mul         x9,x9,x8
	adrp        x8,|?dirtyRect@@3PAU_rect_@@A|
	add         x8,x8,PageOffset(|?dirtyRect@@3PAU_rect_@@A|)
	add         x9,x8,x9
	mov         w8,#0
	str         w8,[x9]
|$LN5@DirtyScree|

; 94   : 		}
; 95   : 		if (dirtyRect[i].y < 0){

	ldr         w8,[sp,#4]
	sxtw        x9,w8
	mov         x8,#0x10
	mul         x9,x9,x8
	adrp        x8,|?dirtyRect@@3PAU_rect_@@A|
	add         x8,x8,PageOffset(|?dirtyRect@@3PAU_rect_@@A|)
	add         x8,x8,x9
	add         x8,x8,#4
	ldr         w8,[x8]
	cmp         w8,#0
	bge         |$LN6@DirtyScree|

; 96   : 			_KePrint("DirtyRect -y %d\r\n", dirtyRect[i].y);

	ldr         w8,[sp,#4]
	sxtw        x9,w8
	mov         x8,#0x10
	mul         x9,x9,x8
	adrp        x8,|?dirtyRect@@3PAU_rect_@@A|
	add         x8,x8,PageOffset(|?dirtyRect@@3PAU_rect_@@A|)
	add         x8,x8,x9
	add         x8,x8,#4
	ldr         w1,[x8]
	adrp        x8,|$SG3418|
	add         x0,x8,PageOffset(|$SG3418|)
	bl          _KePrint

; 97   : 			dirtyRect[i].y = 0;

	ldr         w8,[sp,#4]
	sxtw        x9,w8
	mov         x8,#0x10
	mul         x9,x9,x8
	adrp        x8,|?dirtyRect@@3PAU_rect_@@A|
	add         x8,x8,PageOffset(|?dirtyRect@@3PAU_rect_@@A|)
	add         x8,x8,x9
	add         x9,x8,#4
	mov         w8,#0
	str         w8,[x9]
|$LN6@DirtyScree|

; 98   : 		}
; 99   : 		if (dirtyRect[i].w > canvas->canvasWidth){

	ldr         w8,[sp,#4]
	sxtw        x9,w8
	mov         x8,#0x10
	mul         x9,x9,x8
	adrp        x8,|?dirtyRect@@3PAU_rect_@@A|
	add         x8,x8,PageOffset(|?dirtyRect@@3PAU_rect_@@A|)
	add         x8,x8,x9
	add         x10,x8,#8
	ldr         x8,[sp,#0x10]
	add         x8,x8,#0x18
	ldr         w9,[x8]
	ldr         w8,[x10]
	cmp         w8,w9
	bls         |$LN7@DirtyScree|

; 100  : 			_KePrint("Dirty Rect w - %d \r\n", dirtyRect[i].w);

	ldr         w8,[sp,#4]
	sxtw        x9,w8
	mov         x8,#0x10
	mul         x9,x9,x8
	adrp        x8,|?dirtyRect@@3PAU_rect_@@A|
	add         x8,x8,PageOffset(|?dirtyRect@@3PAU_rect_@@A|)
	add         x8,x8,x9
	add         x8,x8,#8
	ldr         w1,[x8]
	adrp        x8,|$SG3420|
	add         x0,x8,PageOffset(|$SG3420|)
	bl          _KePrint

; 101  : 			dirtyRect[i].w = canvas->canvasWidth;

	ldr         x8,[sp,#0x10]
	add         x10,x8,#0x18
	ldr         w8,[sp,#4]
	sxtw        x9,w8
	mov         x8,#0x10
	mul         x9,x9,x8
	adrp        x8,|?dirtyRect@@3PAU_rect_@@A|
	add         x8,x8,PageOffset(|?dirtyRect@@3PAU_rect_@@A|)
	add         x8,x8,x9
	add         x9,x8,#8
	ldr         w8,[x10]
	str         w8,[x9]
|$LN7@DirtyScree|

; 102  : 		}
; 103  : 		if (dirtyRect[i].h > canvas->canvasHeight){

	ldr         w8,[sp,#4]
	sxtw        x9,w8
	mov         x8,#0x10
	mul         x9,x9,x8
	adrp        x8,|?dirtyRect@@3PAU_rect_@@A|
	add         x8,x8,PageOffset(|?dirtyRect@@3PAU_rect_@@A|)
	add         x8,x8,x9
	add         x10,x8,#0xC
	ldr         x8,[sp,#0x10]
	add         x8,x8,#0x1C
	ldr         w9,[x8]
	ldr         w8,[x10]
	cmp         w8,w9
	bls         |$LN8@DirtyScree|

; 104  : 			_KePrint("Dirty Rect h - %d \r\n", dirtyRect[i].h);

	ldr         w8,[sp,#4]
	sxtw        x9,w8
	mov         x8,#0x10
	mul         x9,x9,x8
	adrp        x8,|?dirtyRect@@3PAU_rect_@@A|
	add         x8,x8,PageOffset(|?dirtyRect@@3PAU_rect_@@A|)
	add         x8,x8,x9
	add         x8,x8,#0xC
	ldr         w1,[x8]
	adrp        x8,|$SG3422|
	add         x0,x8,PageOffset(|$SG3422|)
	bl          _KePrint

; 105  : 			dirtyRect[i].h = canvas->canvasHeight;

	ldr         x8,[sp,#0x10]
	add         x10,x8,#0x1C
	ldr         w8,[sp,#4]
	sxtw        x9,w8
	mov         x8,#0x10
	mul         x9,x9,x8
	adrp        x8,|?dirtyRect@@3PAU_rect_@@A|
	add         x8,x8,PageOffset(|?dirtyRect@@3PAU_rect_@@A|)
	add         x8,x8,x9
	add         x9,x8,#0xC
	ldr         w8,[x10]
	str         w8,[x9]
|$LN8@DirtyScree|

; 106  : 		}
; 107  : 
; 108  : 		if (!_is_gpu_enabled())

	bl          |?_is_gpu_enabled@@YADXZ|
	sxtb        w8,w0
	mov         w8,w8
	cmp         w8,#0
	bne         |$LN9@DirtyScree|

; 109  : 		    ChCanvasScreenUpdate(canvas, dirtyRect[i].x, dirtyRect[i].y, dirtyRect[i].w, dirtyRect[i].h);

	ldr         w8,[sp,#4]
	sxtw        x9,w8
	mov         x8,#0x10
	mul         x9,x9,x8
	adrp        x8,|?dirtyRect@@3PAU_rect_@@A|
	add         x8,x8,PageOffset(|?dirtyRect@@3PAU_rect_@@A|)
	add         x8,x8,x9
	add         x12,x8,#0xC
	ldr         w8,[sp,#4]
	sxtw        x9,w8
	mov         x8,#0x10
	mul         x9,x9,x8
	adrp        x8,|?dirtyRect@@3PAU_rect_@@A|
	add         x8,x8,PageOffset(|?dirtyRect@@3PAU_rect_@@A|)
	add         x8,x8,x9
	add         x11,x8,#8
	ldr         w8,[sp,#4]
	sxtw        x9,w8
	mov         x8,#0x10
	mul         x9,x9,x8
	adrp        x8,|?dirtyRect@@3PAU_rect_@@A|
	add         x8,x8,PageOffset(|?dirtyRect@@3PAU_rect_@@A|)
	add         x8,x8,x9
	add         x10,x8,#4
	ldr         w8,[sp,#4]
	sxtw        x9,w8
	mov         x8,#0x10
	mul         x9,x9,x8
	adrp        x8,|?dirtyRect@@3PAU_rect_@@A|
	add         x8,x8,PageOffset(|?dirtyRect@@3PAU_rect_@@A|)
	add         x8,x8,x9
	ldr         w4,[x12]
	ldr         w3,[x11]
	ldr         w2,[x10]
	ldr         w1,[x8]
	ldr         x0,[sp,#0x10]
	bl          ChCanvasScreenUpdate
|$LN9@DirtyScree|

; 110  : 	
; 111  : 		//ioctl.uint_1 = display_id;
; 112  : 		//_KeFileIoControl(_get_gpu_fd(), 0x203, &ioctl);
; 113  : 	}

	b           |$LN2@DirtyScree|
|$LN3@DirtyScree|

; 114  : 
; 115  : 	if (gpu_update && _is_gpu_enabled()) {

	ldrsb       w8,[sp]
	mov         w8,w8
	cmp         w8,#0
	beq         |$LN10@DirtyScree|
	bl          |?_is_gpu_enabled@@YADXZ|
	sxtb        w8,w0
	mov         w8,w8
	cmp         w8,#0
	beq         |$LN10@DirtyScree|

; 116  : 		ioctl.uint_1 = display_id;

	adrp        x9,|?ioctl@@3U_XEFileControl_@@A|+#0xC
	ldr         w8,[sp,#8]
	str         w8,[x9,PageOffset(|?ioctl@@3U_XEFileControl_@@A|)+#0xC]

; 117  : 		ioctl.ushort_1 = 0;

	adrp        x9,|?ioctl@@3U_XEFileControl_@@A|+#6
	mov         w8,#0
	strh        w8,[x9,PageOffset(|?ioctl@@3U_XEFileControl_@@A|)+#6]

; 118  : 		ioctl.ushort_2 = 0;

	adrp        x9,|?ioctl@@3U_XEFileControl_@@A|+#8
	mov         w8,#0
	strh        w8,[x9,PageOffset(|?ioctl@@3U_XEFileControl_@@A|)+#8]

; 119  : 		ioctl.ulong_1 = canvas->screenWidth;

	ldr         x8,[sp,#0x10]
	add         x8,x8,#4
	ldr         w8,[x8]
	uxtw        x9,w8
	adrp        x8,|?ioctl@@3U_XEFileControl_@@A|+#0x18
	str         x9,[x8,PageOffset(|?ioctl@@3U_XEFileControl_@@A|)+#0x18]

; 120  : 		ioctl.ulong_2 = canvas->screenHeight;

	ldr         x8,[sp,#0x10]
	add         x8,x8,#8
	ldr         w8,[x8]
	uxtw        x9,w8
	adrp        x8,|?ioctl@@3U_XEFileControl_@@A|+#0x20
	str         x9,[x8,PageOffset(|?ioctl@@3U_XEFileControl_@@A|)+#0x20]

; 121  : 		_KeFileIoControl(_get_gpu_fd(), 0x202, &ioctl);

	bl          |?_get_gpu_fd@@YAHXZ|
	mov         w0,w0
	adrp        x8,|?ioctl@@3U_XEFileControl_@@A|
	add         x2,x8,PageOffset(|?ioctl@@3U_XEFileControl_@@A|)
	mov         w1,#0x202
	mov         w0,w0
	bl          _KeFileIoControl
|$LN10@DirtyScree|

; 122  : 	}
; 123  : 	
; 124  : 	_dirty_count = 0;

	adrp        x9,|?_dirty_count@@3IA|
	mov         w8,#0
	str         w8,[x9,PageOffset(|?_dirty_count@@3IA|)]
	add         sp,sp,#0x20
	ldr         lr,[sp],#0x10
	ret

	ENDP  ; |?DirtyScreenUpdate@@YAXPEAU_ChCanvas_@@@Z|, DirtyScreenUpdate

; Function compile flags: /Odtpy
; File C:\Users\paras\source\repos\grep-name\XenevaOS\Process\Deodhai\dirty.cpp

	AREA	|.text$mn|, CODE, ARM64

|?AddDirtyClip@@YAXHHHH@Z| PROC				; AddDirtyClip

; 57   : void AddDirtyClip(int x, int y, int w, int h) {

|$LN6|
	str         lr,[sp,#-0x10]!
	sub         sp,sp,#0x10
	str         w0,[sp]
	str         w1,[sp,#4]
	str         w2,[sp,#8]
	str         w3,[sp,#0xC]

; 58   : 	if (_dirty_count >= 100)

	adrp        x8,|?_dirty_count@@3IA|
	ldr         w8,[x8,PageOffset(|?_dirty_count@@3IA|)]
	cmp         w8,#0x64
	blo         |$LN2@AddDirtyCl|

; 59   : 		_dirty_count = 0;

	adrp        x9,|?_dirty_count@@3IA|
	mov         w8,#0
	str         w8,[x9,PageOffset(|?_dirty_count@@3IA|)]
|$LN2@AddDirtyCl|

; 60   : 	
; 61   : 	if (x < 0)

	ldr         w8,[sp]
	cmp         w8,#0
	bge         |$LN3@AddDirtyCl|

; 62   : 		_KePrint("AddDirtyClip: corrupted x value %d\r\n", x);

	ldr         w1,[sp]
	adrp        x8,|$SG3400|
	add         x0,x8,PageOffset(|$SG3400|)
	bl          _KePrint
|$LN3@AddDirtyCl|

; 63   : 	if (y < 0)

	ldr         w8,[sp,#4]
	cmp         w8,#0
	bge         |$LN4@AddDirtyCl|

; 64   : 		_KePrint("AddDirtyClip: corrupted y value %d\r\n", y);

	ldr         w1,[sp,#4]
	adrp        x8,|$SG3402|
	add         x0,x8,PageOffset(|$SG3402|)
	bl          _KePrint
|$LN4@AddDirtyCl|

; 65   : 
; 66   : 	dirtyRect[_dirty_count].x = x;

	adrp        x8,|?_dirty_count@@3IA|
	ldr         w8,[x8,PageOffset(|?_dirty_count@@3IA|)]
	uxtw        x9,w8
	mov         x8,#0x10
	mul         x9,x9,x8
	adrp        x8,|?dirtyRect@@3PAU_rect_@@A|
	add         x8,x8,PageOffset(|?dirtyRect@@3PAU_rect_@@A|)
	add         x9,x8,x9
	ldr         w8,[sp]
	str         w8,[x9]

; 67   : 	dirtyRect[_dirty_count].y = y;

	adrp        x8,|?_dirty_count@@3IA|
	ldr         w8,[x8,PageOffset(|?_dirty_count@@3IA|)]
	uxtw        x9,w8
	mov         x8,#0x10
	mul         x9,x9,x8
	adrp        x8,|?dirtyRect@@3PAU_rect_@@A|
	add         x8,x8,PageOffset(|?dirtyRect@@3PAU_rect_@@A|)
	add         x8,x8,x9
	add         x9,x8,#4
	ldr         w8,[sp,#4]
	str         w8,[x9]

; 68   : 	dirtyRect[_dirty_count].w = w;

	adrp        x8,|?_dirty_count@@3IA|
	ldr         w8,[x8,PageOffset(|?_dirty_count@@3IA|)]
	uxtw        x9,w8
	mov         x8,#0x10
	mul         x9,x9,x8
	adrp        x8,|?dirtyRect@@3PAU_rect_@@A|
	add         x8,x8,PageOffset(|?dirtyRect@@3PAU_rect_@@A|)
	add         x8,x8,x9
	add         x9,x8,#8
	ldr         w8,[sp,#8]
	str         w8,[x9]

; 69   : 	dirtyRect[_dirty_count].h = h;

	adrp        x8,|?_dirty_count@@3IA|
	ldr         w8,[x8,PageOffset(|?_dirty_count@@3IA|)]
	uxtw        x9,w8
	mov         x8,#0x10
	mul         x9,x9,x8
	adrp        x8,|?dirtyRect@@3PAU_rect_@@A|
	add         x8,x8,PageOffset(|?dirtyRect@@3PAU_rect_@@A|)
	add         x8,x8,x9
	add         x9,x8,#0xC
	ldr         w8,[sp,#0xC]
	str         w8,[x9]

; 70   : 	_dirty_count++;

	adrp        x8,|?_dirty_count@@3IA|
	ldr         w8,[x8,PageOffset(|?_dirty_count@@3IA|)]
	add         w9,w8,#1
	adrp        x8,|?_dirty_count@@3IA|
	str         w9,[x8,PageOffset(|?_dirty_count@@3IA|)]
	add         sp,sp,#0x10
	ldr         lr,[sp],#0x10
	ret

	ENDP  ; |?AddDirtyClip@@YAXHHHH@Z|, AddDirtyClip

; Function compile flags: /Odtpy
; File C:\Users\paras\source\repos\grep-name\XenevaOS\Process\Deodhai\dirty.cpp

	AREA	|.text$mn|, CODE, ARM64

|?InitialiseDirtyClipList@@YAXXZ| PROC			; InitialiseDirtyClipList

; 40   : void InitialiseDirtyClipList() {

|$LN6|
	str         lr,[sp,#-0x10]!
	sub         sp,sp,#0x10

; 41   : 	for (int i = 0; i < 100; i++) {

	mov         w8,#0
	str         w8,[sp]
	b           |$LN4@Initialise|
|$LN2@Initialise|
	ldr         w8,[sp]
	add         w8,w8,#1
	str         w8,[sp]
|$LN4@Initialise|
	ldr         w8,[sp]
	cmp         w8,#0x64
	bge         |$LN3@Initialise|

; 42   : 		dirtyRect[i].x = 0;

	ldr         w8,[sp]
	sxtw        x9,w8
	mov         x8,#0x10
	mul         x9,x9,x8
	adrp        x8,|?dirtyRect@@3PAU_rect_@@A|
	add         x8,x8,PageOffset(|?dirtyRect@@3PAU_rect_@@A|)
	add         x9,x8,x9
	mov         w8,#0
	str         w8,[x9]

; 43   : 		dirtyRect[i].y = 0;

	ldr         w8,[sp]
	sxtw        x9,w8
	mov         x8,#0x10
	mul         x9,x9,x8
	adrp        x8,|?dirtyRect@@3PAU_rect_@@A|
	add         x8,x8,PageOffset(|?dirtyRect@@3PAU_rect_@@A|)
	add         x8,x8,x9
	add         x9,x8,#4
	mov         w8,#0
	str         w8,[x9]

; 44   : 		dirtyRect[i].w = 0;

	ldr         w8,[sp]
	sxtw        x9,w8
	mov         x8,#0x10
	mul         x9,x9,x8
	adrp        x8,|?dirtyRect@@3PAU_rect_@@A|
	add         x8,x8,PageOffset(|?dirtyRect@@3PAU_rect_@@A|)
	add         x8,x8,x9
	add         x9,x8,#8
	mov         w8,#0
	str         w8,[x9]

; 45   : 		dirtyRect[i].h = 0;

	ldr         w8,[sp]
	sxtw        x9,w8
	mov         x8,#0x10
	mul         x9,x9,x8
	adrp        x8,|?dirtyRect@@3PAU_rect_@@A|
	add         x8,x8,PageOffset(|?dirtyRect@@3PAU_rect_@@A|)
	add         x8,x8,x9
	add         x9,x8,#0xC
	mov         w8,#0
	str         w8,[x9]

; 46   : 	}

	b           |$LN2@Initialise|
|$LN3@Initialise|

; 47   : 	_dirty_count = 0;

	adrp        x9,|?_dirty_count@@3IA|
	mov         w8,#0
	str         w8,[x9,PageOffset(|?_dirty_count@@3IA|)]

; 48   : 	memset(&ioctl, 0, sizeof(XEFileIOControl));

	mov         x2,#0x28
	mov         w1,#0
	adrp        x8,|?ioctl@@3U_XEFileControl_@@A|
	add         x0,x8,PageOffset(|?ioctl@@3U_XEFileControl_@@A|)
	bl          memset
	add         sp,sp,#0x10
	ldr         lr,[sp],#0x10
	ret

	ENDP  ; |?InitialiseDirtyClipList@@YAXXZ|, InitialiseDirtyClipList

	END
