; Listing generated by Microsoft (R) Optimizing Compiler Version 19.29.30159.0 

	TTL	C:\Users\paras\source\repos\grep-name\XenevaOS\Process\Deodhai\ARM64\Debug\rect.obj
	ARM64

	AREA	|.drectve|, DRECTVE

	EXPORT	|?RectSetLeft@@YAHPEAU_rect_@@H@Z|	; RectSetLeft
	EXPORT	|?RectSetRight@@YAHPEAU_rect_@@H@Z|	; RectSetRight
	EXPORT	|?RectSetTop@@YAHPEAU_rect_@@H@Z|	; RectSetTop
	EXPORT	|?RectSetBottom@@YAHPEAU_rect_@@H@Z|	; RectSetBottom
	EXPORT	|?RectGetLeft@@YAHPEAU_rect_@@@Z|	; RectGetLeft
	EXPORT	|?RectGetRight@@YAHPEAU_rect_@@@Z|	; RectGetRight
	EXPORT	|?RectGetTop@@YAHPEAU_rect_@@@Z|	; RectGetTop
	EXPORT	|?RectGetBottom@@YAHPEAU_rect_@@@Z|	; RectGetBottom

	AREA	|.pdata|, PDATA
|$pdata$?RectSetLeft@@YAHPEAU_rect_@@H@Z| DCD imagerel |$LN3|
	DCD	0x800055
	;Flags[SingleProEpi] functionLength[84] RegF[0] RegI[0] H[0] frameChainReturn[UnChained] frameSize[16]
|$pdata$?RectSetRight@@YAHPEAU_rect_@@H@Z| DCD imagerel |$LN3|
	DCD	0x80004d
	;Flags[SingleProEpi] functionLength[76] RegF[0] RegI[0] H[0] frameChainReturn[UnChained] frameSize[16]
|$pdata$?RectSetTop@@YAHPEAU_rect_@@H@Z| DCD imagerel |$LN3|
	DCD	0x800061
	;Flags[SingleProEpi] functionLength[96] RegF[0] RegI[0] H[0] frameChainReturn[UnChained] frameSize[16]
|$pdata$?RectSetBottom@@YAHPEAU_rect_@@H@Z| DCD imagerel |$LN3|
	DCD	0x800055
	;Flags[SingleProEpi] functionLength[84] RegF[0] RegI[0] H[0] frameChainReturn[UnChained] frameSize[16]
|$pdata$?RectGetLeft@@YAHPEAU_rect_@@@Z| DCD imagerel |$LN3|
	DCD	0x800019
	;Flags[SingleProEpi] functionLength[24] RegF[0] RegI[0] H[0] frameChainReturn[UnChained] frameSize[16]
|$pdata$?RectGetRight@@YAHPEAU_rect_@@@Z| DCD imagerel |$LN3|
	DCD	0x80002d
	;Flags[SingleProEpi] functionLength[44] RegF[0] RegI[0] H[0] frameChainReturn[UnChained] frameSize[16]
|$pdata$?RectGetTop@@YAHPEAU_rect_@@@Z| DCD imagerel |$LN3|
	DCD	0x80001d
	;Flags[SingleProEpi] functionLength[28] RegF[0] RegI[0] H[0] frameChainReturn[UnChained] frameSize[16]
|$pdata$?RectGetBottom@@YAHPEAU_rect_@@@Z| DCD imagerel |$LN3|
	DCD	0x800031
	;Flags[SingleProEpi] functionLength[48] RegF[0] RegI[0] H[0] frameChainReturn[UnChained] frameSize[16]
; Function compile flags: /Odtpy
; File C:\Users\paras\source\repos\grep-name\XenevaOS\Process\Deodhai\rect.cpp

	AREA	|.text$mn|, CODE, ARM64

|?RectGetBottom@@YAHPEAU_rect_@@@Z| PROC		; RectGetBottom

; 109  : int RectGetBottom(Rect *rect) {

|$LN3|
	sub         sp,sp,#0x10
	str         x0,[sp]

; 110  : 	return (rect->y + rect->h);

	ldr         x8,[sp]
	add         x9,x8,#4
	ldr         x8,[sp]
	add         x8,x8,#0xC
	ldr         w9,[x9]
	ldr         w8,[x8]
	add         w0,w9,w8
	mov         w0,w0
	add         sp,sp,#0x10
	ret

	ENDP  ; |?RectGetBottom@@YAHPEAU_rect_@@@Z|, RectGetBottom

; Function compile flags: /Odtpy
; File C:\Users\paras\source\repos\grep-name\XenevaOS\Process\Deodhai\rect.cpp

	AREA	|.text$mn|, CODE, ARM64

|?RectGetTop@@YAHPEAU_rect_@@@Z| PROC			; RectGetTop

; 101  : int RectGetTop(Rect *rect) {

|$LN3|
	sub         sp,sp,#0x10
	str         x0,[sp]

; 102  : 	return rect->y;

	ldr         x8,[sp]
	add         x8,x8,#4
	ldr         w0,[x8]
	add         sp,sp,#0x10
	ret

	ENDP  ; |?RectGetTop@@YAHPEAU_rect_@@@Z|, RectGetTop

; Function compile flags: /Odtpy
; File C:\Users\paras\source\repos\grep-name\XenevaOS\Process\Deodhai\rect.cpp

	AREA	|.text$mn|, CODE, ARM64

|?RectGetRight@@YAHPEAU_rect_@@@Z| PROC			; RectGetRight

; 93   : int RectGetRight(Rect *rect) {

|$LN3|
	sub         sp,sp,#0x10
	str         x0,[sp]

; 94   : 	return (rect->x + rect->w);

	ldr         x9,[sp]
	ldr         x8,[sp]
	add         x8,x8,#8
	ldr         w9,[x9]
	ldr         w8,[x8]
	add         w0,w9,w8
	mov         w0,w0
	add         sp,sp,#0x10
	ret

	ENDP  ; |?RectGetRight@@YAHPEAU_rect_@@@Z|, RectGetRight

; Function compile flags: /Odtpy
; File C:\Users\paras\source\repos\grep-name\XenevaOS\Process\Deodhai\rect.cpp

	AREA	|.text$mn|, CODE, ARM64

|?RectGetLeft@@YAHPEAU_rect_@@@Z| PROC			; RectGetLeft

; 85   : int RectGetLeft(Rect *rect) {

|$LN3|
	sub         sp,sp,#0x10
	str         x0,[sp]

; 86   : 	return rect->x;

	ldr         x8,[sp]
	ldr         w0,[x8]
	add         sp,sp,#0x10
	ret

	ENDP  ; |?RectGetLeft@@YAHPEAU_rect_@@@Z|, RectGetLeft

; Function compile flags: /Odtpy
; File C:\Users\paras\source\repos\grep-name\XenevaOS\Process\Deodhai\rect.cpp

	AREA	|.text$mn|, CODE, ARM64

|?RectSetBottom@@YAHPEAU_rect_@@H@Z| PROC		; RectSetBottom

; 76   : int RectSetBottom(Rect *rect, int new_bottom) {

|$LN3|
	sub         sp,sp,#0x10
	str         x0,[sp,#8]
	str         w1,[sp]

; 77   : 	rect->h = new_bottom - rect->y;

	ldr         x8,[sp,#8]
	add         x8,x8,#4
	ldr         w9,[sp]
	ldr         w8,[x8]
	sub         w9,w9,w8
	ldr         x8,[sp,#8]
	add         x8,x8,#0xC
	str         w9,[x8]

; 78   : 	return (rect->y + rect->h);

	ldr         x8,[sp,#8]
	add         x9,x8,#4
	ldr         x8,[sp,#8]
	add         x8,x8,#0xC
	ldr         w9,[x9]
	ldr         w8,[x8]
	add         w0,w9,w8
	mov         w0,w0
	add         sp,sp,#0x10
	ret

	ENDP  ; |?RectSetBottom@@YAHPEAU_rect_@@H@Z|, RectSetBottom

; Function compile flags: /Odtpy
; File C:\Users\paras\source\repos\grep-name\XenevaOS\Process\Deodhai\rect.cpp

	AREA	|.text$mn|, CODE, ARM64

|?RectSetTop@@YAHPEAU_rect_@@H@Z| PROC			; RectSetTop

; 64   : int RectSetTop(Rect *rect, int new_top) {

|$LN3|
	sub         sp,sp,#0x10
	str         x0,[sp,#8]
	str         w1,[sp]

; 65   : 	rect->h += rect->y - new_top;

	ldr         x8,[sp,#8]
	add         x10,x8,#0xC
	ldr         x8,[sp,#8]
	add         x8,x8,#4
	ldr         w9,[x8]
	ldr         w8,[sp]
	sub         w9,w9,w8
	ldr         w8,[x10]
	add         w9,w8,w9
	ldr         x8,[sp,#8]
	add         x8,x8,#0xC
	str         w9,[x8]

; 66   : 	rect->y = new_top;

	ldr         x8,[sp,#8]
	add         x9,x8,#4
	ldr         w8,[sp]
	str         w8,[x9]

; 67   : 	return rect->y;

	ldr         x8,[sp,#8]
	add         x8,x8,#4
	ldr         w0,[x8]
	add         sp,sp,#0x10
	ret

	ENDP  ; |?RectSetTop@@YAHPEAU_rect_@@H@Z|, RectSetTop

; Function compile flags: /Odtpy
; File C:\Users\paras\source\repos\grep-name\XenevaOS\Process\Deodhai\rect.cpp

	AREA	|.text$mn|, CODE, ARM64

|?RectSetRight@@YAHPEAU_rect_@@H@Z| PROC		; RectSetRight

; 52   : int RectSetRight(Rect * rect, int new_right) {

|$LN3|
	sub         sp,sp,#0x10
	str         x0,[sp,#8]
	str         w1,[sp]

; 53   : 	rect->w = new_right - rect->x;

	ldr         x8,[sp,#8]
	ldr         w9,[sp]
	ldr         w8,[x8]
	sub         w9,w9,w8
	ldr         x8,[sp,#8]
	add         x8,x8,#8
	str         w9,[x8]

; 54   : 	return rect->x + rect->w;

	ldr         x9,[sp,#8]
	ldr         x8,[sp,#8]
	add         x8,x8,#8
	ldr         w9,[x9]
	ldr         w8,[x8]
	add         w0,w9,w8
	mov         w0,w0
	add         sp,sp,#0x10
	ret

	ENDP  ; |?RectSetRight@@YAHPEAU_rect_@@H@Z|, RectSetRight

; Function compile flags: /Odtpy
; File C:\Users\paras\source\repos\grep-name\XenevaOS\Process\Deodhai\rect.cpp

	AREA	|.text$mn|, CODE, ARM64

|?RectSetLeft@@YAHPEAU_rect_@@H@Z| PROC			; RectSetLeft

; 39   : int RectSetLeft(Rect* rect, int new_left) {

|$LN3|
	sub         sp,sp,#0x10
	str         x0,[sp,#8]
	str         w1,[sp]

; 40   : 	rect->w += rect->x - new_left;

	ldr         x8,[sp,#8]
	add         x10,x8,#8
	ldr         x8,[sp,#8]
	ldr         w9,[x8]
	ldr         w8,[sp]
	sub         w9,w9,w8
	ldr         w8,[x10]
	add         w9,w8,w9
	ldr         x8,[sp,#8]
	add         x8,x8,#8
	str         w9,[x8]

; 41   : 	rect->x = new_left;

	ldr         x9,[sp,#8]
	ldr         w8,[sp]
	str         w8,[x9]

; 42   : 	return rect->x;

	ldr         x8,[sp,#8]
	ldr         w0,[x8]
	add         sp,sp,#0x10
	ret

	ENDP  ; |?RectSetLeft@@YAHPEAU_rect_@@H@Z|, RectSetLeft

	END
