; Listing generated by Microsoft (R) Optimizing Compiler Version 19.29.30159.0 

	TTL	C:\Users\paras\source\repos\grep-name\XenevaOS\Process\Deodhai\ARM64\Debug\window.obj
	ARM64

	AREA	|.drectve|, DRECTVE

	EXPORT	|?shared_win_key_prefix@@3GA| [ DATA ]	; shared_win_key_prefix
	EXPORT	|?back_buffer_key_prefix@@3GA| [ DATA ]	; back_buffer_key_prefix

	AREA	|.rdata|, DATA, READONLY
|$SG3495| DCB	"[deodhai]: backbuffer created ", 0xd, 0xa, 0x0
	%	7
|$SG3496| DCB	"[deodhai]: shared win space created ", 0xd, 0xa, 0x0

	AREA	|.data|, DATA
|?shared_win_key_prefix@@3GA| DCW 0x3e8			; shared_win_key_prefix
	%	2
|?back_buffer_key_prefix@@3GA| DCW 0x190		; back_buffer_key_prefix
	EXPORT	|?CreateSharedWinSpace@@YAPEAIPEAGG@Z|	; CreateSharedWinSpace
	EXPORT	|?CreateNewBackBuffer@@YAPEAXGIPEAG@Z|	; CreateNewBackBuffer
	EXPORT	|?CreateWindow@@YAPEAU_win_@@HHHHGGPEAD@Z| ; CreateWindow
	EXPORT	|?WindowShadowPutPixel@@YAXPEAU_win_@@HHHI@Z| ; WindowShadowPutPixel
	EXPORT	|?WindowShadowFillColor@@YAXPEAU_win_@@HHHHHI@Z| ; WindowShadowFillColor
	IMPORT	|_KePrint|
	IMPORT	|?DeodhaiAllocateNewHandle@@YAIXZ|	; DeodhaiAllocateNewHandle
	IMPORT	|_KeCreateSharedMem|
	IMPORT	|_KeObtainSharedMem|
	IMPORT	|malloc|
	IMPORT	|strcpy|
	IMPORT	|strlen|
	IMPORT	|memset|

	AREA	|.pdata|, PDATA
|$pdata$?CreateSharedWinSpace@@YAPEAIPEAGG@Z| DCD imagerel |$LN3|
	DCD	0x1a000a9
	;Flags[SingleProEpi] functionLength[168] RegF[0] RegI[0] H[0] frameChainReturn[UnChainedSavedLR] frameSize[48]
|$pdata$?CreateNewBackBuffer@@YAPEAXGIPEAG@Z| DCD imagerel |$LN3|
	DCD	0x1a000b1
	;Flags[SingleProEpi] functionLength[176] RegF[0] RegI[0] H[0] frameChainReturn[UnChainedSavedLR] frameSize[48]
|$pdata$?CreateWindow@@YAPEAU_win_@@HHHHGGPEAD@Z| DCD imagerel |$LN3|
	DCD	0x3a00255
	;Flags[SingleProEpi] functionLength[596] RegF[0] RegI[0] H[0] frameChainReturn[UnChainedSavedLR] frameSize[112]
|$pdata$?WindowShadowPutPixel@@YAXPEAU_win_@@HHHI@Z| DCD imagerel |$LN3|
	DCD	0x1000061
	;Flags[SingleProEpi] functionLength[96] RegF[0] RegI[0] H[0] frameChainReturn[UnChained] frameSize[32]
|$pdata$?WindowShadowFillColor@@YAXPEAU_win_@@HHHHHI@Z| DCD imagerel |$LN9|
	DCD	0x22000b9
	;Flags[SingleProEpi] functionLength[184] RegF[0] RegI[0] H[0] frameChainReturn[UnChainedSavedLR] frameSize[64]
; Function compile flags: /Odtpy
; File C:\Users\paras\source\repos\grep-name\XenevaOS\Process\Deodhai\window.cpp

	AREA	|.text$mn|, CODE, ARM64

|?WindowShadowFillColor@@YAXPEAU_win_@@HHHHHI@Z| PROC	; WindowShadowFillColor

; 76   : void WindowShadowFillColor(Window* win,int shadow_w,int x, int y, int w, int h, uint32_t col) {

|$LN9|
	str         lr,[sp,#-0x10]!
	sub         sp,sp,#0x30
	str         x0,[sp,#0x20]
	str         w1,[sp,#0x1C]
	str         w2,[sp,#0x14]
	str         w3,[sp,#0x10]
	str         w4,[sp,#8]
	str         w5,[sp,#0xC]
	str         w6,[sp,#0x18]

; 77   : 	for (int i = 0; i < w; i++)

	mov         w8,#0
	str         w8,[sp,#4]
	b           |$LN4@WindowShad|
|$LN2@WindowShad|
	ldr         w8,[sp,#4]
	add         w8,w8,#1
	str         w8,[sp,#4]
|$LN4@WindowShad|
	ldr         w9,[sp,#8]
	ldr         w8,[sp,#4]
	cmp         w8,w9
	bge         |$LN3@WindowShad|

; 78   : 	for (int j = 0; j < h; j++)

	mov         w8,#0
	str         w8,[sp]
	b           |$LN7@WindowShad|
|$LN5@WindowShad|
	ldr         w8,[sp]
	add         w8,w8,#1
	str         w8,[sp]
|$LN7@WindowShad|
	ldr         w9,[sp,#0xC]
	ldr         w8,[sp]
	cmp         w8,w9
	bge         |$LN6@WindowShad|

; 79   : 		WindowShadowPutPixel(win, x + i, y + j, shadow_w,col);

	ldr         w9,[sp,#0x10]
	ldr         w8,[sp]
	add         w2,w9,w8
	ldr         w9,[sp,#0x14]
	ldr         w8,[sp,#4]
	add         w1,w9,w8
	ldr         w4,[sp,#0x18]
	ldr         w3,[sp,#0x1C]
	mov         w2,w2
	mov         w1,w1
	ldr         x0,[sp,#0x20]
	bl          |?WindowShadowPutPixel@@YAXPEAU_win_@@HHHI@Z|
	b           |$LN5@WindowShad|
|$LN6@WindowShad|
	b           |$LN2@WindowShad|
|$LN3@WindowShad|
	add         sp,sp,#0x30
	ldr         lr,[sp],#0x10
	ret

	ENDP  ; |?WindowShadowFillColor@@YAXPEAU_win_@@HHHHHI@Z|, WindowShadowFillColor

; Function compile flags: /Odtpy
; File C:\Users\paras\source\repos\grep-name\XenevaOS\Process\Deodhai\window.cpp

	AREA	|.text$mn|, CODE, ARM64

|?WindowShadowPutPixel@@YAXPEAU_win_@@HHHI@Z| PROC	; WindowShadowPutPixel

; 71   : void WindowShadowPutPixel(Window* win,int x, int y,int shadow_w, uint32_t color) {

|$LN3|
	sub         sp,sp,#0x20
	str         x0,[sp,#0x10]
	str         w1,[sp,#8]
	str         w2,[sp]
	str         w3,[sp,#4]
	str         w4,[sp,#0xC]

; 72   : 	unsigned int *lfb = win->shadowBuffers;

	ldr         x8,[sp,#0x10]
	add         x8,x8,#0x18
	ldr         x8,[x8]
	str         x8,[sp,#0x18]

; 73   : 	lfb[y * shadow_w + x] = color;

	ldr         w9,[sp]
	ldr         w8,[sp,#4]
	mul         w9,w9,w8
	ldr         w8,[sp,#8]
	add         w8,w9,w8
	sxtw        x9,w8
	mov         x8,#4
	mul         x9,x9,x8
	ldr         x8,[sp,#0x18]
	add         x9,x8,x9
	ldr         w8,[sp,#0xC]
	str         w8,[x9]
	add         sp,sp,#0x20
	ret

	ENDP  ; |?WindowShadowPutPixel@@YAXPEAU_win_@@HHHI@Z|, WindowShadowPutPixel

; Function compile flags: /Odtpy
; File C:\Users\paras\source\repos\grep-name\XenevaOS\Process\Deodhai\window.cpp

	AREA	|.text$mn|, CODE, ARM64

|?CreateWindow@@YAPEAU_win_@@HHHHGGPEAD@Z| PROC		; CreateWindow

; 92   : Window* CreateWindow(int x, int y, int w, int h, uint16_t flags, uint16_t ownerId, char* title) {

|$LN3|
	str         lr,[sp,#-0x10]!
	sub         sp,sp,#0x60
	str         w0,[sp,#0x24]
	str         w1,[sp,#0x28]
	str         w2,[sp,#0x2C]
	str         w3,[sp,#0x30]
	uxth        w8,w4
	strh        w8,[sp,#0x20]
	uxth        w8,w5
	strh        w8,[sp]
	str         x6,[sp,#0x38]

; 93   : 	uint16_t shKey = 0;

	mov         w8,#0
	strh        w8,[sp,#0x12]

; 94   : 	uint16_t backBufferKey = 0;

	mov         w8,#0
	strh        w8,[sp,#0x10]

; 95   : 	int64_t w_ = w, h_ = h, x_ = x, y_ = y;

	ldr         w8,[sp,#0x2C]
	sxtw        x8,w8
	str         x8,[sp,#0x40]
	ldr         w8,[sp,#0x30]
	sxtw        x8,w8
	str         x8,[sp,#0x48]
	ldr         w8,[sp,#0x24]
	sxtw        x8,w8
	str         x8,[sp,#0x50]
	ldr         w8,[sp,#0x28]
	sxtw        x8,w8
	str         x8,[sp,#0x58]

; 96   : 	Window* win = (Window*)malloc(sizeof(Window));

	mov         w0,#0x78
	bl          malloc
	str         x0,[sp,#8]

; 97   : 	memset(win, 0, sizeof(Window));

	mov         x2,#0x78
	mov         w1,#0
	ldr         x0,[sp,#8]
	bl          memset

; 98   : 	win->flags = flags;

	ldr         x9,[sp,#8]
	ldrh        w8,[sp,#0x20]
	strh        w8,[x9]

; 99   : 	win->backBuffer = (uint32_t*)CreateNewBackBuffer(ownerId, ((w_*h_ * 4 + 0x1F) & (~0x1FULL)), &backBufferKey);

	ldr         x9,[sp,#0x40]
	ldr         x8,[sp,#0x48]
	mul         x9,x9,x8
	mov         x8,#4
	mul         x8,x9,x8
	add         x8,x8,#0x1F
	and         x8,x8,#-0x20
	mov         w1,w8
	add         x2,sp,#0x10
	mov         w1,w1
	ldrh        w0,[sp]
	bl          |?CreateNewBackBuffer@@YAPEAXGIPEAG@Z|
	ldr         x8,[sp,#8]
	add         x8,x8,#8
	str         x0,[x8]

; 100  : 	_KePrint("[deodhai]: backbuffer created \r\n");

	adrp        x8,|$SG3495|
	add         x0,x8,PageOffset(|$SG3495|)
	bl          _KePrint

; 101  : 	win->ownerId = ownerId;

	ldr         x8,[sp,#8]
	add         x9,x8,#2
	ldrh        w8,[sp]
	strh        w8,[x9]

; 102  : 	win->backBufferKey = backBufferKey;

	ldr         x8,[sp,#8]
	add         x9,x8,#0x22
	ldrh        w8,[sp,#0x10]
	strh        w8,[x9]

; 103  : 	win->sharedInfo = CreateSharedWinSpace(&shKey, ownerId);

	ldrh        w1,[sp]
	add         x0,sp,#0x12
	bl          |?CreateSharedWinSpace@@YAPEAIPEAGG@Z|
	ldr         x8,[sp,#8]
	add         x8,x8,#0x10
	str         x0,[x8]

; 104  : 	_KePrint("[deodhai]: shared win space created \r\n");

	adrp        x8,|$SG3496|
	add         x0,x8,PageOffset(|$SG3496|)
	bl          _KePrint

; 105  : 	win->shWinKey = shKey;

	ldr         x8,[sp,#8]
	add         x9,x8,#0x20
	ldrh        w8,[sp,#0x12]
	strh        w8,[x9]

; 106  : 	win->title = (char*)malloc(strlen(title));

	ldr         x0,[sp,#0x38]
	bl          strlen
	mov         w0,w0
	mov         w0,w0
	bl          malloc
	ldr         x8,[sp,#8]
	add         x8,x8,#0x48
	str         x0,[x8]

; 107  : 	memset(win->title, 0, strlen(title));

	ldr         x0,[sp,#0x38]
	bl          strlen
	ldr         x8,[sp,#8]
	add         x8,x8,#0x48
	mov         x2,x0
	mov         w1,#0
	ldr         x0,[x8]
	bl          memset

; 108  : 	strcpy(win->title, title);

	ldr         x8,[sp,#8]
	add         x8,x8,#0x48
	ldr         x1,[sp,#0x38]
	ldr         x0,[x8]
	bl          strcpy

; 109  : 	WinSharedInfo *shwin = (WinSharedInfo*)win->sharedInfo;

	ldr         x8,[sp,#8]
	add         x8,x8,#0x10
	ldr         x8,[x8]
	str         x8,[sp,#0x18]

; 110  : 	shwin->x = x;

	ldr         x9,[sp,#0x18]
	mov         x8,#0x1008
	add         x9,x9,x8
	ldr         w8,[sp,#0x24]
	str         w8,[x9]

; 111  : 	shwin->y = y;

	ldr         x9,[sp,#0x18]
	mov         x8,#0x100C
	add         x9,x9,x8
	ldr         w8,[sp,#0x28]
	str         w8,[x9]

; 112  : 	shwin->width = w;

	ldr         x9,[sp,#0x18]
	mov         x8,#0x1010
	add         x9,x9,x8
	ldr         w8,[sp,#0x2C]
	str         w8,[x9]

; 113  : 	shwin->height = h;

	ldr         x9,[sp,#0x18]
	mov         x8,#0x1014
	add         x9,x9,x8
	ldr         w8,[sp,#0x30]
	str         w8,[x9]

; 114  : 	shwin->rect_count = 0;

	ldr         x8,[sp,#0x18]
	add         x9,x8,#1,lsl #0xC
	mov         w8,#0
	str         w8,[x9]

; 115  : 	shwin->alpha = false;

	ldr         x9,[sp,#0x18]
	mov         x8,#0x1018
	add         x9,x9,x8
	mov         w8,#0
	strb        w8,[x9]

; 116  : 	shwin->dirty = false;

	ldr         x9,[sp,#0x18]
	mov         x8,#0x1004
	add         x9,x9,x8
	mov         w8,#0
	strb        w8,[x9]

; 117  : 	shwin->windowReady = false;

	ldr         x9,[sp,#0x18]
	mov         x8,#0x1028
	add         x9,x9,x8
	mov         w8,#0
	strb        w8,[x9]

; 118  : 	win->handle = DeodhaiAllocateNewHandle();

	bl          |?DeodhaiAllocateNewHandle@@YAIXZ|
	mov         w0,w0
	ldr         x8,[sp,#8]
	add         x8,x8,#0x24
	str         w0,[x8]

; 119  : 
; 120  : #ifdef SHADOW_ENABLED	
; 121  : 	if (!(win->flags & WINDOW_FLAG_ALWAYS_ON_TOP)){
; 122  : 
; 123  : 		win->shadowBuffers = (uint32_t*)_KeMemMap(NULL, (((w_ + SHADOW_SIZE * 2) * (h_ + SHADOW_SIZE * 2) * 4 + 0x1F) & (~0x1FULL)),
; 124  : 			0, 0, MEMMAP_NO_FILEDESC, 0);
; 125  : 		for (int i = 0; i < shwin->width + SHADOW_SIZE * 2; i++) {
; 126  : 			for (int j = 0; j < shwin->height + SHADOW_SIZE * 2; j++) {
; 127  : 				win->shadowBuffers[j * (shwin->width + SHADOW_SIZE * 2) + i] = 0x00000000;
; 128  : 			}
; 129  : 		}
; 130  : 
; 131  : 
; 132  : 		WindowShadowFillColor(win, (shwin->width + SHADOW_SIZE * 2), 8, 10, (shwin->width + SHADOW_SIZE * 2) - 8 * 2, (shwin->height + SHADOW_SIZE * 2) - 8 * 2, SHADOW_COLOR);
; 133  : 
; 134  : 		for (int i = 0; i < 10; i++)
; 135  : 			ChBoxBlur(DeodhaiGetMainCanvas(), win->shadowBuffers, win->shadowBuffers, 1, 1, (shwin->width + SHADOW_SIZE * 2) - 1, (shwin->height + SHADOW_SIZE * 2) - 2);
; 136  : 	}
; 137  : #endif
; 138  : 	return win;

	ldr         x0,[sp,#8]
	add         sp,sp,#0x60
	ldr         lr,[sp],#0x10
	ret

	ENDP  ; |?CreateWindow@@YAPEAU_win_@@HHHHGGPEAD@Z|, CreateWindow

; Function compile flags: /Odtpy
; File C:\Users\paras\source\repos\grep-name\XenevaOS\Process\Deodhai\window.cpp

	AREA	|.text$mn|, CODE, ARM64

|?CreateNewBackBuffer@@YAPEAXGIPEAG@Z| PROC		; CreateNewBackBuffer

; 62   : void* CreateNewBackBuffer(uint16_t ownerId, uint32_t sz, uint16_t *key){

|$LN3|
	str         lr,[sp,#-0x10]!
	sub         sp,sp,#0x20
	uxth        w8,w0
	strh        w8,[sp]
	str         w1,[sp,#8]
	str         x2,[sp,#0x10]

; 63   : 	uint32_t key_prefix = back_buffer_key_prefix + ownerId;

	adrp        x8,|?back_buffer_key_prefix@@3GA|
	ldrh        w9,[x8,PageOffset(|?back_buffer_key_prefix@@3GA|)]
	mov         w9,w9
	ldrh        w8,[sp]
	mov         w8,w8
	add         w8,w9,w8
	str         w8,[sp,#4]

; 64   : 	int id = _KeCreateSharedMem(key_prefix, sz, 0);

	ldr         w8,[sp,#8]
	uxtw        x1,w8
	ldr         w8,[sp,#4]
	uxth        w0,w8
	mov         w2,#0
	mov         w0,w0
	bl          _KeCreateSharedMem
	mov         w0,w0
	str         w0,[sp,#0xC]

; 65   : 	void* ptr = _KeObtainSharedMem(id, 0, NULL);

	ldr         w8,[sp,#0xC]
	uxth        w0,w8
	mov         w2,#0
	mov         x1,#0
	mov         w0,w0
	bl          _KeObtainSharedMem
	str         x0,[sp,#0x18]

; 66   : 	*key = key_prefix;

	ldr         w8,[sp,#4]
	uxth        w9,w8
	ldr         x8,[sp,#0x10]
	strh        w9,[x8]

; 67   : 	back_buffer_key_prefix += 10;

	adrp        x8,|?back_buffer_key_prefix@@3GA|
	ldrh        w8,[x8,PageOffset(|?back_buffer_key_prefix@@3GA|)]
	mov         w8,w8
	add         w8,w8,#0xA
	uxth        w9,w8
	adrp        x8,|?back_buffer_key_prefix@@3GA|
	strh        w9,[x8,PageOffset(|?back_buffer_key_prefix@@3GA|)]

; 68   : 	return ptr;

	ldr         x0,[sp,#0x18]
	add         sp,sp,#0x20
	ldr         lr,[sp],#0x10
	ret

	ENDP  ; |?CreateNewBackBuffer@@YAPEAXGIPEAG@Z|, CreateNewBackBuffer

; Function compile flags: /Odtpy
; File C:\Users\paras\source\repos\grep-name\XenevaOS\Process\Deodhai\window.cpp

	AREA	|.text$mn|, CODE, ARM64

|?CreateSharedWinSpace@@YAPEAIPEAGG@Z| PROC		; CreateSharedWinSpace

; 47   : uint32_t* CreateSharedWinSpace(uint16_t *shkey, uint16_t ownerId) {

|$LN3|
	str         lr,[sp,#-0x10]!
	sub         sp,sp,#0x20
	str         x0,[sp,#0x10]
	uxth        w8,w1
	strh        w8,[sp]

; 48   : 	uint32_t key = shared_win_key_prefix + ownerId;

	adrp        x8,|?shared_win_key_prefix@@3GA|
	ldrh        w9,[x8,PageOffset(|?shared_win_key_prefix@@3GA|)]
	mov         w9,w9
	ldrh        w8,[sp]
	mov         w8,w8
	add         w8,w9,w8
	str         w8,[sp,#4]

; 49   : 	int id = _KeCreateSharedMem(key,sizeof(WinSharedInfo), 0);

	ldr         w8,[sp,#4]
	uxth        w0,w8
	mov         w2,#0
	mov         x1,#0x1030
	mov         w0,w0
	bl          _KeCreateSharedMem
	mov         w0,w0
	str         w0,[sp,#8]

; 50   : 	void* addr = _KeObtainSharedMem(id, NULL, 0);

	ldr         w8,[sp,#8]
	uxth        w0,w8
	mov         w2,#0
	mov         x1,#0
	mov         w0,w0
	bl          _KeObtainSharedMem
	str         x0,[sp,#0x18]

; 51   : 	*shkey = key;

	ldr         w8,[sp,#4]
	uxth        w9,w8
	ldr         x8,[sp,#0x10]
	strh        w9,[x8]

; 52   : 	shared_win_key_prefix += 10;

	adrp        x8,|?shared_win_key_prefix@@3GA|
	ldrh        w8,[x8,PageOffset(|?shared_win_key_prefix@@3GA|)]
	mov         w8,w8
	add         w8,w8,#0xA
	uxth        w9,w8
	adrp        x8,|?shared_win_key_prefix@@3GA|
	strh        w9,[x8,PageOffset(|?shared_win_key_prefix@@3GA|)]

; 53   : 	return (uint32_t*)addr;

	ldr         x0,[sp,#0x18]
	add         sp,sp,#0x20
	ldr         lr,[sp],#0x10
	ret

	ENDP  ; |?CreateSharedWinSpace@@YAPEAIPEAGG@Z|, CreateSharedWinSpace

	END
