; Listing generated by Microsoft (R) Optimizing Compiler Version 19.29.30159.0 

	TTL	C:\Users\paras\source\repos\grep-name\XenevaOS\XELoader\ARM64\Debug\main.obj
	ARM64

	AREA	|.drectve|, DRECTVE

	EXPORT	|?ldr_buffer@@3PEAEEA| [ DATA ]		; ldr_buffer

	AREA	|.bss|, NOINIT
|?ldr_buffer@@3PEAEEA| % 0x8				; ldr_buffer

	AREA	|.rdata|, DATA, READONLY
|$SG3960| DCB	"File already ended ", 0xa, 0x0
	%	3
|$SG4020| DCB	"File already ended ", 0xa, 0x0
	%	3
|$SG4039| DCB	"From inside XELoader (Xeneva Dynamic Loader v1.0 ARM64)", 0xa
	DCB	0x0
	%	7
|$SG4040| DCB	"Copyright (C) Manas Kamal Choudhury 2023-2025 ", 0xd, 0xa
	DCB	0x0
	%	7
|$SG4042| DCB	"Filename to load : %s ", 0xd, 0xa, 0x0
	EXPORT	|?XELdrLoadObject@@YAHPEAU_XELDR_OBJ_@@@Z| ; XELdrLoadObject
	EXPORT	|?XECopyMem@@YAXPEAX0_K@Z|		; XECopyMem
	EXPORT	|??$raw_offset@PEAU_IMAGE_NT_HEADERS_PE32PLUS@@PEAU_IMAGE_DOS_HEADER_@@@@YAPEAU_IMAGE_NT_HEADERS_PE32PLUS@@PEAU_IMAGE_DOS_HEADER_@@H@Z| ; raw_offset<_IMAGE_NT_HEADERS_PE32PLUS *,_IMAGE_DOS_HEADER_ *>
	EXPORT	|??$raw_offset@PEAU_IMAGE_SECTION_HEADER@@PEAU_IMAGE_OPTIONAL_HEADER_PE32PLUS@@@@YAPEAU_IMAGE_SECTION_HEADER@@PEAU_IMAGE_OPTIONAL_HEADER_PE32PLUS@@H@Z| ; raw_offset<_IMAGE_SECTION_HEADER *,_IMAGE_OPTIONAL_HEADER_PE32PLUS *>
	EXPORT	|?XELdrStartProc@@YAHPEADPEAU_XELDR_OBJ_@@@Z| ; XELdrStartProc
	EXPORT	|??$raw_offset@PEAXPEA_K@@YAPEAXPEA_KH@Z| ; raw_offset<void *,unsigned __int64 *>
	EXPORT	|?DefaultSignalHandler@@YAXH@Z|		; DefaultSignalHandler
	EXPORT	|main|
	IMPORT	|_KePrint|
	IMPORT	|_KeProcessExit|
	IMPORT	|_KeOpenFile|
	IMPORT	|_KeReadFile|
	IMPORT	|_KeFileStat|
	IMPORT	|_KeFileSetOffset|
	IMPORT	|malloc|
	IMPORT	|free|
	IMPORT	|strncpy|
	IMPORT	|memset|
	IMPORT	|_KeMemMap|
	IMPORT	|_KeMemMapDirty|
	IMPORT	|?XELdrInitObjectList@@YAXXZ|		; XELdrInitObjectList
	IMPORT	|?XELdrCreateObj@@YAPEAU_XELDR_OBJ_@@PEAD@Z| ; XELdrCreateObj
	IMPORT	|?XELdrLoadAllObject@@YAXXZ|		; XELdrLoadAllObject
	IMPORT	|?XELdrLinkAllObject@@YAXPEAU_XELDR_OBJ_@@@Z| ; XELdrLinkAllObject
	IMPORT	|?XELdrLinkDepObject@@YAXPEAU_XELDR_OBJ_@@@Z| ; XELdrLinkDepObject
	IMPORT	|?XELdrRelocatePE@@YAXPEAXPEAU_IMAGE_NT_HEADERS_PE32PLUS@@_K@Z| ; XELdrRelocatePE
	IMPORT	|?XELdrCreatePEObjects@@YAXPEAX@Z|	; XELdrCreatePEObjects

	AREA	|.pdata|, PDATA
|$pdata$?XELdrLoadObject@@YAHPEAU_XELDR_OBJ_@@@Z| DCD imagerel |$LN21|
	DCD	0x6e00491
	;Flags[SingleProEpi] functionLength[1168] RegF[0] RegI[0] H[0] frameChainReturn[Chained] frameSize[208]
|$pdata$?XECopyMem@@YAXPEAX0_K@Z| DCD imagerel |$LN5|
	DCD	0x1800075
	;Flags[SingleProEpi] functionLength[116] RegF[0] RegI[0] H[0] frameChainReturn[UnChained] frameSize[48]

	AREA	|.pdata|, PDATA
|$pdata$??$raw_offset@PEAU_IMAGE_NT_HEADERS_PE32PLUS@@PEAU_IMAGE_DOS_HEADER_@@@@YAPEAU_IMAGE_NT_HEADERS_PE32PLUS@@PEAU_IMAGE_DOS_HEADER_@@H@Z| DCD imagerel |$LN3|
	DCD	0x800025
	;Flags[SingleProEpi] functionLength[36] RegF[0] RegI[0] H[0] frameChainReturn[UnChained] frameSize[16]

	AREA	|.pdata|, PDATA
|$pdata$??$raw_offset@PEAU_IMAGE_SECTION_HEADER@@PEAU_IMAGE_OPTIONAL_HEADER_PE32PLUS@@@@YAPEAU_IMAGE_SECTION_HEADER@@PEAU_IMAGE_OPTIONAL_HEADER_PE32PLUS@@H@Z| DCD imagerel |$LN3|
	DCD	0x800025
	;Flags[SingleProEpi] functionLength[36] RegF[0] RegI[0] H[0] frameChainReturn[UnChained] frameSize[16]

	AREA	|.pdata|, PDATA
|$pdata$?XELdrStartProc@@YAHPEADPEAU_XELDR_OBJ_@@@Z| DCD imagerel |$LN20|
	DCD	0xb610559
	;Flags[SingleProEpi] functionLength[1368] RegF[0] RegI[1] H[0] frameChainReturn[Chained] frameSize[352]

	AREA	|.pdata|, PDATA
|$pdata$??$raw_offset@PEAXPEA_K@@YAPEAXPEA_KH@Z| DCD imagerel |$LN3|
	DCD	0x800025
	;Flags[SingleProEpi] functionLength[36] RegF[0] RegI[0] H[0] frameChainReturn[UnChained] frameSize[16]

	AREA	|.pdata|, PDATA
|$pdata$?DefaultSignalHandler@@YAXH@Z| DCD imagerel |$LN3|
	DCD	0x1600019
	;Flags[SingleProEpi] functionLength[24] RegF[0] RegI[0] H[0] frameChainReturn[Chained] frameSize[32]
|$pdata$main| DCD imagerel |$LN6|
	DCD	0x26000c9
	;Flags[SingleProEpi] functionLength[200] RegF[0] RegI[0] H[0] frameChainReturn[Chained] frameSize[64]
; Function compile flags: /Odtp
; File C:\Users\paras\source\repos\grep-name\XenevaOS\XELoader\main.cpp

	AREA	|.text$mn|, CODE, ARM64

|main|	PROC

; 266  : extern "C" void main(int argc, char* argv[]) {

|$LN6|
	stp         fp,lr,[sp,#-0x40]!
	mov         fp,sp
	str         w0,[sp,#0x10]
	str         x1,[sp,#0x28]

; 267  : 	
; 268  : #ifdef ARCH_ARM64
; 269  : 	_KePrint("From inside XELoader (Xeneva Dynamic Loader v1.0 ARM64)\n");

	adrp        x8,|$SG4039|
	add         x0,x8,PageOffset(|$SG4039|)
	bl          _KePrint

; 270  : #elif ARCH_X64
; 271  : 	_KePrint("From inside XELoader (Xeneva Dynamic Loader v1.0 x86_64 \r\n");
; 272  : #endif
; 273  : 	_KePrint("Copyright (C) Manas Kamal Choudhury 2023-2025 \r\n");

	adrp        x8,|$SG4040|
	add         x0,x8,PageOffset(|$SG4040|)
	bl          _KePrint

; 274  : 
; 275  : 	///* simply exit*/
; 276  : 	if (!argv)

	ldr         x8,[sp,#0x28]
	cmp         x8,#0
	bne         |$LN4@main|

; 277  : 		_KeProcessExit();

	bl          _KeProcessExit
|$LN4@main|

; 278  : 
; 279  : 	XELdrInitObjectList();

	bl          |?XELdrInitObjectList@@YAXXZ|

; 280  : 
; 281  : 
; 282  : 	/* load the main object */
; 283  : 	char* filename = argv[0];

	ldr         x8,[sp,#0x28]
	ldr         x8,[x8]
	str         x8,[sp,#0x20]

; 284  : 
; 285  : 	_KePrint("Filename to load : %s \r\n", filename);

	ldr         x1,[sp,#0x20]
	adrp        x8,|$SG4042|
	add         x0,x8,PageOffset(|$SG4042|)
	bl          _KePrint

; 286  : 	
; 287  : 	XELoaderObject* mainobj = XELdrCreateObj(filename);

	ldr         x0,[sp,#0x20]
	bl          |?XELdrCreateObj@@YAPEAU_XELDR_OBJ_@@PEAD@Z|
	str         x0,[sp,#0x18]

; 288  : 	
; 289  : 
; 290  : 	XELdrStartProc(filename, mainobj);

	ldr         x1,[sp,#0x18]
	ldr         x0,[sp,#0x20]
	bl          |?XELdrStartProc@@YAHPEADPEAU_XELDR_OBJ_@@@Z|

; 291  : 
; 292  : 
; 293  : 	XELdrLoadAllObject();

	bl          |?XELdrLoadAllObject@@YAXXZ|

; 294  : 	
; 295  : 	/* links all dependencies of libraries*/
; 296  : 	XELdrLinkDepObject(mainobj);

	ldr         x0,[sp,#0x18]
	bl          |?XELdrLinkDepObject@@YAXPEAU_XELDR_OBJ_@@@Z|

; 297  : 	
; 298  : 	/* now link all objects from the list
; 299  : 	 * to main object
; 300  : 	 */
; 301  : 	XELdrLinkAllObject(mainobj);

	ldr         x0,[sp,#0x18]
	bl          |?XELdrLinkAllObject@@YAXPEAU_XELDR_OBJ_@@@Z|

; 302  : 	
; 303  : 	
; 304  : 	uint64_t entry_addr = mainobj->entry_addr;

	ldr         x8,[sp,#0x18]
	add         x8,x8,#0x18
	ldr         x8,[x8]
	str         x8,[sp,#0x30]

; 305  : 	
; 306  : 
; 307  : 	//XELdrClearObjectList();
; 308  : 
; 309  : 	
; 310  : 	/* register the default signal handler to
; 311  : 	 * all signal
; 312  : 	 */
; 313  : #ifdef ARCH_X64
; 314  : 	for (int i = 0; i < NUMSIGNALS; i++)
; 315  : 		_KeSetSignal(i + 1, DefaultSignalHandler);
; 316  : #endif
; 317  : 
; 318  : 	entrypoint e = (entrypoint)entry_addr;

	ldr         x8,[sp,#0x30]
	str         x8,[sp,#0x38]

; 319  : 
; 320  : 	e(argc , argv);

	ldr         x1,[sp,#0x28]
	ldr         w0,[sp,#0x10]
	ldr         x8,[sp,#0x38]
	blr         x8
|$LN2@main|

; 321  : 	
; 322  : 	while (1) {

	mov         w8,#1
	cmp         w8,#0
	beq         |$LN3@main|

; 323  : 		_KeProcessExit();

	bl          _KeProcessExit

; 324  : 	}

	b           |$LN2@main|
|$LN3@main|
	ldp         fp,lr,[sp],#0x40
	ret

	ENDP  ; |main|

; Function compile flags: /Odtp
; File C:\Users\paras\source\repos\grep-name\XenevaOS\XELoader\main.cpp

	AREA	|.text$mn|, CODE, ARM64

|?DefaultSignalHandler@@YAXH@Z| PROC			; DefaultSignalHandler

; 254  : void DefaultSignalHandler(int signo) {

|$LN3|
	stp         fp,lr,[sp,#-0x20]!
	mov         fp,sp
	str         w0,[sp,#0x10]

; 255  : 	_KeProcessExit();

	bl          _KeProcessExit
	ldp         fp,lr,[sp],#0x20
	ret

	ENDP  ; |?DefaultSignalHandler@@YAXH@Z|, DefaultSignalHandler

; Function compile flags: /Odtp
; File C:\Users\paras\source\repos\grep-name\XenevaOS\Libs\XEClib\includes\stdint.h

	AREA	|.text$mn|, CODE, ARM64

|??$raw_offset@PEAXPEA_K@@YAPEAXPEA_KH@Z| PROC		; raw_offset<void *,unsigned __int64 *>

; 203  : 	{

|$LN3|
	sub         sp,sp,#0x10
	str         x0,[sp,#8]
	str         w1,[sp]

; 204  : 		return (T)((size_t)p1 + offset);

	ldr         w8,[sp]
	sxtw        x9,w8
	ldr         x8,[sp,#8]
	add         x0,x8,x9
	add         sp,sp,#0x10
	ret

	ENDP  ; |??$raw_offset@PEAXPEA_K@@YAPEAXPEA_KH@Z|, raw_offset<void *,unsigned __int64 *>

; Function compile flags: /Odtp
; File C:\Users\paras\source\repos\grep-name\XenevaOS\XELoader\main.cpp

	AREA	|.text$mn|, CODE, ARM64

|?XELdrStartProc@@YAHPEADPEAU_XELDR_OBJ_@@@Z| PROC	; XELdrStartProc

; 160  : int XELdrStartProc(char* filename, XELoaderObject *obj) {

|$LN20|
	str         x19,[sp,#-0x10]!
	stp         fp,lr,[sp,#-0x150]!
	mov         fp,sp
	str         x0,[sp,#0xA8]
	str         x1,[sp,#0x30]

; 161  : 	int file = 0;

	mov         w8,#0
	str         w8,[sp,#0x10]

; 162  : 	char fname[128];
; 163  : 	memset(fname, 0, 127);

	mov         x2,#0x7F
	mov         w1,#0
	add         x0,sp,#0xC8
	bl          memset

; 164  : 	fname[127] = '\0';

	mov         w8,#0
	strb        w8,[sp,#0x147]

; 165  : 	
; 166  : 	strncpy(fname, filename,127);

	mov         x2,#0x7F
	ldr         x1,[sp,#0xA8]
	add         x0,sp,#0xC8
	bl          strncpy

; 167  : 	file = _KeOpenFile(fname, FILE_OPEN_READ_ONLY);

	mov         w1,#2
	add         x0,sp,#0xC8
	bl          _KeOpenFile
	mov         w0,w0
	str         w0,[sp,#0x10]

; 168  : 	XEFileStatus *stat = (XEFileStatus*)malloc(sizeof(XEFileStatus));

	mov         w0,#0x28
	bl          malloc
	str         x0,[sp,#0x48]

; 169  : 	memset(stat, 0, sizeof(XEFileStatus));

	mov         x2,#0x28
	mov         w1,#0
	ldr         x0,[sp,#0x48]
	bl          memset

; 170  : 
; 171  : 	
; 172  : 	int ret_bytes = 0;

	mov         w8,#0
	str         w8,[sp,#0xA0]

; 173  : 	
; 174  : 	_KeFileStat(file, stat);

	ldr         x1,[sp,#0x48]
	ldr         w0,[sp,#0x10]
	bl          _KeFileStat

; 175  : 
; 176  : 
; 177  : 
; 178  : 	uint64_t* buffer = (uint64_t*)_KeMemMap(NULL,4096, 0, 0, file, 0);

	mov         x5,#0
	ldr         w4,[sp,#0x10]
	mov         w3,#0
	mov         w2,#0
	mov         x1,#0x1000
	mov         x0,#0
	bl          _KeMemMap
	str         x0,[sp,#0x78]

; 179  : 	//memset(buffer, 0, 4096);
; 180  : 	obj->len += 4096;

	ldr         x8,[sp,#0x30]
	add         x8,x8,#0xC
	ldr         w8,[x8]
	add         w9,w8,#1,lsl #0xC
	ldr         x8,[sp,#0x30]
	add         x8,x8,#0xC
	str         w9,[x8]

; 181  : 
; 182  : 	uint64_t* first_ptr = buffer;

	ldr         x8,[sp,#0x78]
	str         x8,[sp,#0x90]

; 183  : 	uint64_t _image_load_base_ = (uint64_t)first_ptr;

	ldr         x8,[sp,#0x90]
	str         x8,[sp,#0x58]

; 184  : 
; 185  : 	//ret_bytes = _KeReadFile(file, buffer, 4096);
; 186  : 	IMAGE_DOS_HEADER *dos_ = (IMAGE_DOS_HEADER*)buffer;

	ldr         x8,[sp,#0x78]
	str         x8,[sp,#0x80]

; 187  : 	PIMAGE_NT_HEADERS nt = raw_offset<PIMAGE_NT_HEADERS>(dos_, dos_->e_lfanew);

	ldr         x8,[sp,#0x80]
	add         x8,x8,#0x3C
	ldrh        w1,[x8]
	mov         w1,w1
	mov         w1,w1
	ldr         x0,[sp,#0x80]
	bl          |??$raw_offset@PEAU_IMAGE_NT_HEADERS_PE32PLUS@@PEAU_IMAGE_DOS_HEADER_@@@@YAPEAU_IMAGE_NT_HEADERS_PE32PLUS@@PEAU_IMAGE_DOS_HEADER_@@H@Z|
	str         x0,[sp,#0x40]

; 188  : 	PSECTION_HEADER secthdr = raw_offset<PSECTION_HEADER>(&nt->OptionalHeader, nt->FileHeader.SizeOfOptionaHeader);

	ldr         x8,[sp,#0x40]
	add         x8,x8,#4
	add         x8,x8,#0x10
	ldrh        w1,[x8]
	mov         w1,w1
	ldr         x8,[sp,#0x40]
	add         x0,x8,#0x18
	mov         w1,w1
	bl          |??$raw_offset@PEAU_IMAGE_SECTION_HEADER@@PEAU_IMAGE_OPTIONAL_HEADER_PE32PLUS@@@@YAPEAU_IMAGE_SECTION_HEADER@@PEAU_IMAGE_OPTIONAL_HEADER_PE32PLUS@@H@Z|
	str         x0,[sp,#0x28]

; 189  : 	intptr_t original_base = nt->OptionalHeader.ImageBase;

	ldr         x8,[sp,#0x40]
	add         x8,x8,#0x18
	add         x8,x8,#0x18
	ldr         x8,[x8]
	mov         w8,w8
	str         w8,[sp,#0x64]

; 190  : 	intptr_t new_addr = _image_load_base_;

	ldr         x8,[sp,#0x58]
	mov         w8,w8
	str         w8,[sp,#0x60]

; 191  : 	intptr_t diff = new_addr - original_base;

	ldr         w9,[sp,#0x60]
	ldr         w8,[sp,#0x64]
	sub         w8,w9,w8
	str         w8,[sp,#0x6C]

; 192  : 	
; 193  : 	if (nt->OptionalHeader.SectionAlignment == 512) {

	ldr         x8,[sp,#0x40]
	add         x8,x8,#0x18
	add         x8,x8,#0x20
	ldr         w8,[x8]
	cmp         w8,#0x200
	bne         |$LN10@XELdrStart|
|$LN2@XELdrStart|

; 194  : 		while (!stat->eof) {

	ldr         x8,[sp,#0x48]
	add         x8,x8,#0x24
	ldrb        w8,[x8]
	mov         w8,w8
	cmp         w8,#0
	bne         |$LN3@XELdrStart|

; 195  : 			uint64_t* block = (uint64_t*)_KeMemMap(NULL, 4096, 0, 0,file, 0);

	mov         x5,#0
	ldr         w4,[sp,#0x10]
	mov         w3,#0
	mov         w2,#0
	mov         x1,#0x1000
	mov         x0,#0
	bl          _KeMemMap
	str         x0,[sp,#0xB8]

; 196  : 		//	int bytes = _KeReadFile(file, block, 4096);
; 197  : 			//ret_bytes += bytes;
; 198  : 			_KeFileStat(file, stat);

	ldr         x1,[sp,#0x48]
	ldr         w0,[sp,#0x10]
	bl          _KeFileStat

; 199  : 		}

	b           |$LN2@XELdrStart|
|$LN3@XELdrStart|

; 200  : 	}

	b           |$LN11@XELdrStart|
|$LN10@XELdrStart|

; 201  : 	else {
; 202  : 		for (size_t i = 0; i < nt->FileHeader.NumberOfSections; ++i) {

	mov         x8,#0
	str         x8,[sp,#0x18]
	b           |$LN6@XELdrStart|
|$LN4@XELdrStart|
	ldr         x8,[sp,#0x18]
	add         x8,x8,#1
	str         x8,[sp,#0x18]
|$LN6@XELdrStart|
	ldr         x8,[sp,#0x40]
	add         x8,x8,#4
	add         x8,x8,#2
	ldrh        w8,[x8]
	mov         w8,w8
	sxtw        x9,w8
	ldr         x8,[sp,#0x18]
	cmp         x8,x9
	bhs         |$LN5@XELdrStart|

; 203  : 			size_t sect_ld_addr = _image_load_base_ + secthdr[i].VirtualAddress;

	ldr         x9,[sp,#0x18]
	mov         x8,#0x28
	mul         x9,x9,x8
	ldr         x8,[sp,#0x28]
	add         x8,x8,x9
	add         x8,x8,#0xC
	ldr         w8,[x8]
	uxtw        x9,w8
	ldr         x8,[sp,#0x58]
	add         x8,x8,x9
	str         x8,[sp,#0xC0]

; 204  : 			size_t sect_sz = secthdr[i].VirtualSize;

	ldr         x9,[sp,#0x18]
	mov         x8,#0x28
	mul         x9,x9,x8
	ldr         x8,[sp,#0x28]
	add         x8,x8,x9
	add         x8,x8,#8
	ldr         w8,[x8]
	uxtw        x8,w8
	str         x8,[sp,#0x88]

; 205  : 			int req_pages = sect_sz / 4096 +

	ldr         x10,[sp,#0x88]
	mov         x9,#0x1000
	udiv        x8,x10,x9
	mul         x8,x8,x9
	sub         x8,x10,x8
	cmp         x8,#0
	beq         |$LN18@XELdrStart|
	mov         w8,#1
	str         w8,[sp,#0x50]
	b           |$LN19@XELdrStart|
|$LN18@XELdrStart|
	mov         w8,#0
	str         w8,[sp,#0x50]
|$LN19@XELdrStart|
	ldr         x9,[sp,#0x88]
	mov         x8,#0x1000
	udiv        x9,x9,x8
	ldr         w8,[sp,#0x50]
	sxtw        x8,w8
	add         x8,x9,x8
	mov         w8,w8
	str         w8,[sp,#0x68]

; 206  : 				((sect_sz % 4096) ? 1 : 0);
; 207  : 			uint64_t* block = 0;

	mov         x8,#0
	str         x8,[sp,#0x70]

; 208  : 			_KeFileSetOffset(file, secthdr[i].PointerToRawData);

	ldr         x9,[sp,#0x18]
	mov         x8,#0x28
	mul         x9,x9,x8
	ldr         x8,[sp,#0x28]
	add         x8,x8,x9
	add         x8,x8,#0x14
	ldr         w8,[x8]
	uxtw        x1,w8
	ldr         w0,[sp,#0x10]
	bl          _KeFileSetOffset

; 209  : 			int flags = 0;

	mov         w8,#0
	str         w8,[sp,#0x20]

; 210  : 			if ((secthdr[i].Characteristics & IMAGE_SCN_MEM_WRITE) &&

	ldr         x9,[sp,#0x18]
	mov         x8,#0x28
	mul         x9,x9,x8
	ldr         x8,[sp,#0x28]
	add         x8,x8,x9
	add         x8,x8,#0x24
	ldr         w8,[x8]
	tbz         x8,#0x1F,|$LN12@XELdrStart|
	ldr         x9,[sp,#0x18]
	mov         x8,#0x28
	mul         x9,x9,x8
	ldr         x8,[sp,#0x28]
	add         x8,x8,x9
	add         x8,x8,#0x24
	ldr         w8,[x8]
	tbnz        x8,#0x1C,|$LN12@XELdrStart|

; 211  : 				!(secthdr[i].Characteristics & IMAGE_SCN_MEM_SHARED))
; 212  : 				flags |= MEMMAP_FLAG_COW;

	ldr         w8,[sp,#0x20]
	orr         w8,w8,#2
	str         w8,[sp,#0x20]
|$LN12@XELdrStart|

; 213  : 			if (secthdr[i].Characteristics & IMAGE_SCN_CNT_INITIALIZED_DATA)

	ldr         x9,[sp,#0x18]
	mov         x8,#0x28
	mul         x9,x9,x8
	ldr         x8,[sp,#0x28]
	add         x8,x8,x9
	add         x8,x8,#0x24
	ldr         w8,[x8]
	tbz         x8,#6,|$LN13@XELdrStart|

; 214  : 				flags |= MEMMAP_FLAG_COW;

	ldr         w8,[sp,#0x20]
	orr         w8,w8,#2
	str         w8,[sp,#0x20]
|$LN13@XELdrStart|

; 215  : 
; 216  : 			for (int j = 0; j < req_pages; j++) {

	mov         w8,#0
	str         w8,[sp,#0x38]
	b           |$LN9@XELdrStart|
|$LN7@XELdrStart|
	ldr         w8,[sp,#0x38]
	add         w8,w8,#1
	str         w8,[sp,#0x38]
|$LN9@XELdrStart|
	ldr         w9,[sp,#0x68]
	ldr         w8,[sp,#0x38]
	cmp         w8,w9
	bge         |$LN8@XELdrStart|

; 217  : 				uint64_t* alloc = (uint64_t*)_KeMemMap(NULL, 4096, 0, flags,file, obj->len);

	ldr         x8,[sp,#0x30]
	add         x8,x8,#0xC
	ldr         w8,[x8]
	uxtw        x5,w8
	ldr         w4,[sp,#0x10]
	ldr         w3,[sp,#0x20]
	mov         w2,#0
	mov         x1,#0x1000
	mov         x0,#0
	bl          _KeMemMap
	str         x0,[sp,#0xB0]

; 218  : 				if (!block)

	ldr         x8,[sp,#0x70]
	cmp         x8,#0
	bne         |$LN14@XELdrStart|

; 219  : 					block = alloc;

	ldr         x8,[sp,#0xB0]
	str         x8,[sp,#0x70]
|$LN14@XELdrStart|

; 220  : 				
; 221  : 				//int bytes = _KeReadFile(file, alloc, 4096);
; 222  : 				_KeFileStat(file, stat);

	ldr         x1,[sp,#0x48]
	ldr         w0,[sp,#0x10]
	bl          _KeFileStat

; 223  : 				if (stat->eof) {

	ldr         x8,[sp,#0x48]
	add         x8,x8,#0x24
	ldrb        w8,[x8]
	mov         w8,w8
	cmp         w8,#0
	beq         |$LN15@XELdrStart|

; 224  : 					_KePrint("File already ended \n");

	adrp        x8,|$SG4020|
	add         x0,x8,PageOffset(|$SG4020|)
	bl          _KePrint
|$LN15@XELdrStart|

; 225  : 					//break;
; 226  : 				}
; 227  : 				//ret_bytes += bytes;
; 228  : 				obj->len += 4096;

	ldr         x8,[sp,#0x30]
	add         x8,x8,#0xC
	ldr         w8,[x8]
	add         w9,w8,#1,lsl #0xC
	ldr         x8,[sp,#0x30]
	add         x8,x8,#0xC
	str         w9,[x8]

; 229  : 			}

	b           |$LN7@XELdrStart|
|$LN8@XELdrStart|

; 230  : 			if (secthdr[i].VirtualSize > secthdr[i].SizeOfRawData)

	ldr         x9,[sp,#0x18]
	mov         x8,#0x28
	mul         x9,x9,x8
	ldr         x8,[sp,#0x28]
	add         x8,x8,x9
	add         x10,x8,#8
	ldr         x9,[sp,#0x18]
	mov         x8,#0x28
	mul         x9,x9,x8
	ldr         x8,[sp,#0x28]
	add         x8,x8,x9
	add         x8,x8,#0x10
	ldr         w9,[x8]
	ldr         w8,[x10]
	cmp         w8,w9
	bls         |$LN16@XELdrStart|

; 231  : 				memset(raw_offset<void*>(block, secthdr[i].SizeOfRawData), 0, secthdr[i].VirtualSize - secthdr[i].SizeOfRawData);

	ldr         x9,[sp,#0x18]
	mov         x8,#0x28
	mul         x9,x9,x8
	ldr         x8,[sp,#0x28]
	add         x8,x8,x9
	add         x10,x8,#8
	ldr         x9,[sp,#0x18]
	mov         x8,#0x28
	mul         x9,x9,x8
	ldr         x8,[sp,#0x28]
	add         x8,x8,x9
	add         x8,x8,#0x10
	ldr         w9,[x10]
	ldr         w8,[x8]
	sub         w8,w9,w8
	uxtw        x19,w8
	ldr         x9,[sp,#0x18]
	mov         x8,#0x28
	mul         x9,x9,x8
	ldr         x8,[sp,#0x28]
	add         x8,x8,x9
	add         x8,x8,#0x10
	ldr         w1,[x8]
	ldr         x0,[sp,#0x70]
	bl          |??$raw_offset@PEAXPEA_K@@YAPEAXPEA_KH@Z|
	mov         x2,x19
	mov         w1,#0
	bl          memset
|$LN16@XELdrStart|

; 232  : 		}

	b           |$LN4@XELdrStart|
|$LN5@XELdrStart|
|$LN11@XELdrStart|

; 233  : 	}
; 234  : 	
; 235  : 	uint8_t* aligned_buff = (uint8_t*)first_ptr;

	ldr         x8,[sp,#0x90]
	str         x8,[sp,#0x98]

; 236  : 	XELdrRelocatePE(aligned_buff, nt, diff);

	ldr         w8,[sp,#0x6C]
	sxtw        x2,w8
	ldr         x1,[sp,#0x40]
	ldr         x0,[sp,#0x98]
	bl          |?XELdrRelocatePE@@YAXPEAXPEAU_IMAGE_NT_HEADERS_PE32PLUS@@_K@Z|

; 237  : 
; 238  : 	XELdrCreatePEObjects(aligned_buff);

	ldr         x0,[sp,#0x98]
	bl          |?XELdrCreatePEObjects@@YAXPEAX@Z|

; 239  : 
; 240  : 	obj->load_addr = _image_load_base_;

	ldr         x8,[sp,#0x30]
	add         x9,x8,#0x10
	ldr         x8,[sp,#0x58]
	str         x8,[x9]

; 241  : 	obj->loaded = true;

	ldr         x8,[sp,#0x30]
	add         x9,x8,#8
	mov         w8,#1
	strb        w8,[x9]

; 242  : 	obj->entry_addr = _image_load_base_ + nt->OptionalHeader.AddressOfEntryPoint;

	ldr         x8,[sp,#0x40]
	add         x8,x8,#0x18
	add         x8,x8,#0x10
	ldr         w8,[x8]
	uxtw        x9,w8
	ldr         x8,[sp,#0x58]
	add         x9,x8,x9
	ldr         x8,[sp,#0x30]
	add         x8,x8,#0x18
	str         x9,[x8]

; 243  : 	_KeMemMapDirty((void*)_image_load_base_, obj->len, 0, 0);

	ldr         x8,[sp,#0x30]
	add         x8,x8,#0xC
	ldr         w8,[x8]
	uxtw        x1,w8
	mov         w3,#0
	mov         w2,#0
	ldr         x0,[sp,#0x58]
	bl          _KeMemMapDirty

; 244  : 	free(stat);

	ldr         x0,[sp,#0x48]
	bl          free

; 245  : 	//_KeCloseFile(file);
; 246  : 	return 0;

	mov         w0,#0
	ldp         fp,lr,[sp],#0x150
	ldr         x19,[sp],#0x10
	ret

	ENDP  ; |?XELdrStartProc@@YAHPEADPEAU_XELDR_OBJ_@@@Z|, XELdrStartProc

; Function compile flags: /Odtp
; File C:\Users\paras\source\repos\grep-name\XenevaOS\Libs\XEClib\includes\stdint.h

	AREA	|.text$mn|, CODE, ARM64

|??$raw_offset@PEAU_IMAGE_SECTION_HEADER@@PEAU_IMAGE_OPTIONAL_HEADER_PE32PLUS@@@@YAPEAU_IMAGE_SECTION_HEADER@@PEAU_IMAGE_OPTIONAL_HEADER_PE32PLUS@@H@Z| PROC ; raw_offset<_IMAGE_SECTION_HEADER *,_IMAGE_OPTIONAL_HEADER_PE32PLUS *>

; 203  : 	{

|$LN3|
	sub         sp,sp,#0x10
	str         x0,[sp,#8]
	str         w1,[sp]

; 204  : 		return (T)((size_t)p1 + offset);

	ldr         w8,[sp]
	sxtw        x9,w8
	ldr         x8,[sp,#8]
	add         x0,x8,x9
	add         sp,sp,#0x10
	ret

	ENDP  ; |??$raw_offset@PEAU_IMAGE_SECTION_HEADER@@PEAU_IMAGE_OPTIONAL_HEADER_PE32PLUS@@@@YAPEAU_IMAGE_SECTION_HEADER@@PEAU_IMAGE_OPTIONAL_HEADER_PE32PLUS@@H@Z|, raw_offset<_IMAGE_SECTION_HEADER *,_IMAGE_OPTIONAL_HEADER_PE32PLUS *>

; Function compile flags: /Odtp
; File C:\Users\paras\source\repos\grep-name\XenevaOS\Libs\XEClib\includes\stdint.h

	AREA	|.text$mn|, CODE, ARM64

|??$raw_offset@PEAU_IMAGE_NT_HEADERS_PE32PLUS@@PEAU_IMAGE_DOS_HEADER_@@@@YAPEAU_IMAGE_NT_HEADERS_PE32PLUS@@PEAU_IMAGE_DOS_HEADER_@@H@Z| PROC ; raw_offset<_IMAGE_NT_HEADERS_PE32PLUS *,_IMAGE_DOS_HEADER_ *>

; 203  : 	{

|$LN3|
	sub         sp,sp,#0x10
	str         x0,[sp,#8]
	str         w1,[sp]

; 204  : 		return (T)((size_t)p1 + offset);

	ldr         w8,[sp]
	sxtw        x9,w8
	ldr         x8,[sp,#8]
	add         x0,x8,x9
	add         sp,sp,#0x10
	ret

	ENDP  ; |??$raw_offset@PEAU_IMAGE_NT_HEADERS_PE32PLUS@@PEAU_IMAGE_DOS_HEADER_@@@@YAPEAU_IMAGE_NT_HEADERS_PE32PLUS@@PEAU_IMAGE_DOS_HEADER_@@H@Z|, raw_offset<_IMAGE_NT_HEADERS_PE32PLUS *,_IMAGE_DOS_HEADER_ *>

; Function compile flags: /Odtp
; File C:\Users\paras\source\repos\grep-name\XenevaOS\XELoader\main.cpp

	AREA	|.text$mn|, CODE, ARM64

|?XECopyMem@@YAXPEAX0_K@Z| PROC				; XECopyMem

; 43   : void XECopyMem(void* dest, void* src, size_t len) {

|$LN5|
	sub         sp,sp,#0x30
	str         x0,[sp,#0x18]
	str         x1,[sp,#0x20]
	str         x2,[sp]

; 44   : 	uint8_t* dstp = (uint8_t*)dest;

	ldr         x8,[sp,#0x18]
	str         x8,[sp,#8]

; 45   : 	uint8_t* srcp = (uint8_t*)src;

	ldr         x8,[sp,#0x20]
	str         x8,[sp,#0x10]
|$LN2@XECopyMem|

; 46   : 	while (len--)

	ldr         x8,[sp]
	str         x8,[sp,#0x28]
	ldr         x8,[sp]
	sub         x8,x8,#1
	str         x8,[sp]
	ldr         x8,[sp,#0x28]
	cmp         x8,#0
	beq         |$LN3@XECopyMem|

; 47   : 		*dstp++ = *srcp++;

	ldr         x9,[sp,#8]
	ldr         x8,[sp,#0x10]
	ldrb        w8,[x8]
	strb        w8,[x9]
	ldr         x8,[sp,#8]
	add         x8,x8,#1
	str         x8,[sp,#8]
	ldr         x8,[sp,#0x10]
	add         x8,x8,#1
	str         x8,[sp,#0x10]
	b           |$LN2@XECopyMem|
|$LN3@XECopyMem|
	add         sp,sp,#0x30
	ret

	ENDP  ; |?XECopyMem@@YAXPEAX0_K@Z|, XECopyMem

; Function compile flags: /Odtp
; File C:\Users\paras\source\repos\grep-name\XenevaOS\XELoader\main.cpp

	AREA	|.text$mn|, CODE, ARM64

|?XELdrLoadObject@@YAHPEAU_XELDR_OBJ_@@@Z| PROC		; XELdrLoadObject

; 59   : int XELdrLoadObject(XELoaderObject *obj){

|$LN21|
	stp         fp,lr,[sp,#-0xD0]!
	mov         fp,sp
	str         x0,[sp,#0x20]

; 60   : #ifdef ARCH_ARM64
; 61   : 	//uint64_t addr_preserve = (uint64_t)obj->objname;
; 62   : #endif
; 63   : 	int file = _KeOpenFile(obj->objname, FILE_OPEN_READ_ONLY);

	ldr         x8,[sp,#0x20]
	mov         w1,#2
	ldr         x0,[x8]
	bl          _KeOpenFile
	mov         w0,w0
	str         w0,[sp,#0x10]

; 64   : 	if (file == -1)

	ldr         w8,[sp,#0x10]
	cmn         w8,#1
	bne         |$LN10@XELdrLoadO|

; 65   : 		return 0;

	mov         w0,#0
	b           |$LN1@XELdrLoadO|
|$LN10@XELdrLoadO|

; 66   : 
; 67   : #ifdef ARCH_ARM64
; 68   : 	//obj->objname = (char*)addr_preserve;
; 69   : #endif
; 70   : 	XEFileStatus *stat = (XEFileStatus*)malloc(sizeof(XEFileStatus));

	mov         w0,#0x28
	bl          malloc
	str         x0,[sp,#0x38]

; 71   : 	memset(stat, 0, sizeof(XEFileStatus));

	mov         x2,#0x28
	mov         w1,#0
	ldr         x0,[sp,#0x38]
	bl          memset

; 72   : 	_KeFileStat(file, stat);

	ldr         x1,[sp,#0x38]
	ldr         w0,[sp,#0x10]
	bl          _KeFileStat

; 73   : 
; 74   : 	uint64_t* buffer = (uint64_t*)_KeMemMap(NULL, 4096, 0, 0,file, 0);

	mov         x5,#0
	ldr         w4,[sp,#0x10]
	mov         w3,#0
	mov         w2,#0
	mov         x1,#0x1000
	mov         x0,#0
	bl          _KeMemMap
	str         x0,[sp,#0x68]

; 75   : 	//memset(buffer, 0, 4096);
; 76   : 
; 77   : 	obj->len += 4096;

	ldr         x8,[sp,#0x20]
	add         x8,x8,#0xC
	ldr         w8,[x8]
	add         w9,w8,#1,lsl #0xC
	ldr         x8,[sp,#0x20]
	add         x8,x8,#0xC
	str         w9,[x8]

; 78   : 
; 79   : 	int countbytes = 4096;

	mov         w8,#0x1000
	str         w8,[sp,#0x4C]

; 80   : 
; 81   : 	uint64_t* first_ptr = buffer;

	ldr         x8,[sp,#0x68]
	str         x8,[sp,#0x60]

; 82   : 	uint64_t _image_load_base_ = (uint64_t)first_ptr;

	ldr         x8,[sp,#0x60]
	str         x8,[sp,#0x50]

; 83   : 
; 84   : 	size_t ret_bytes = 0;

	mov         x8,#0
	str         x8,[sp,#0xB8]

; 85   : 
; 86   : 	//ret_bytes = _KeReadFile(file, buffer, 4096);
; 87   : 	IMAGE_DOS_HEADER *dos_ = (IMAGE_DOS_HEADER*)buffer;

	ldr         x8,[sp,#0x68]
	str         x8,[sp,#0x70]

; 88   : 	PIMAGE_NT_HEADERS nt = raw_offset<PIMAGE_NT_HEADERS>(dos_, dos_->e_lfanew);

	ldr         x8,[sp,#0x70]
	add         x8,x8,#0x3C
	ldrh        w1,[x8]
	mov         w1,w1
	mov         w1,w1
	ldr         x0,[sp,#0x70]
	bl          |??$raw_offset@PEAU_IMAGE_NT_HEADERS_PE32PLUS@@PEAU_IMAGE_DOS_HEADER_@@@@YAPEAU_IMAGE_NT_HEADERS_PE32PLUS@@PEAU_IMAGE_DOS_HEADER_@@H@Z|
	str         x0,[sp,#0x40]

; 89   : 	uint64_t original_base = nt->OptionalHeader.ImageBase;

	ldr         x8,[sp,#0x40]
	add         x8,x8,#0x18
	add         x8,x8,#0x18
	ldr         x8,[x8]
	str         x8,[sp,#0x90]

; 90   : 	uint64_t new_addr = _image_load_base_;

	ldr         x8,[sp,#0x50]
	str         x8,[sp,#0x88]

; 91   : 	uint64_t diff = new_addr - original_base;

	ldr         x9,[sp,#0x88]
	ldr         x8,[sp,#0x90]
	sub         x8,x9,x8
	str         x8,[sp,#0xA8]

; 92   : 	/* FORMULA to obtain real address -> new_addr - diff*/
; 93   : 	PSECTION_HEADER secthdr = raw_offset<PSECTION_HEADER>(&nt->OptionalHeader, nt->FileHeader.SizeOfOptionaHeader);

	ldr         x8,[sp,#0x40]
	add         x8,x8,#4
	add         x8,x8,#0x10
	ldrh        w1,[x8]
	mov         w1,w1
	ldr         x8,[sp,#0x40]
	add         x0,x8,#0x18
	mov         w1,w1
	bl          |??$raw_offset@PEAU_IMAGE_SECTION_HEADER@@PEAU_IMAGE_OPTIONAL_HEADER_PE32PLUS@@@@YAPEAU_IMAGE_SECTION_HEADER@@PEAU_IMAGE_OPTIONAL_HEADER_PE32PLUS@@H@Z|
	str         x0,[sp,#0x28]

; 94   : 
; 95   : 	if (nt->OptionalHeader.SectionAlignment == 512) {

	ldr         x8,[sp,#0x40]
	add         x8,x8,#0x18
	add         x8,x8,#0x20
	ldr         w8,[x8]
	cmp         w8,#0x200
	bne         |$LN11@XELdrLoadO|
|$LN2@XELdrLoadO|

; 96   : 		while (!stat->eof) {

	ldr         x8,[sp,#0x38]
	add         x8,x8,#0x24
	ldrb        w8,[x8]
	mov         w8,w8
	cmp         w8,#0
	bne         |$LN3@XELdrLoadO|

; 97   : 			uint64_t* block = (uint64_t*)_KeMemMap(NULL, 4096, 0, 0,file, 0);

	mov         x5,#0
	ldr         w4,[sp,#0x10]
	mov         w3,#0
	mov         w2,#0
	mov         x1,#0x1000
	mov         x0,#0
	bl          _KeMemMap
	str         x0,[sp,#0x98]

; 98   : 			_KeReadFile(file, block, 4096);

	mov         x2,#0x1000
	ldr         x1,[sp,#0x98]
	ldr         w0,[sp,#0x10]
	bl          _KeReadFile

; 99   : 			_KeFileStat(file, stat);

	ldr         x1,[sp,#0x38]
	ldr         w0,[sp,#0x10]
	bl          _KeFileStat

; 100  : 			obj->len += 4096;

	ldr         x8,[sp,#0x20]
	add         x8,x8,#0xC
	ldr         w8,[x8]
	add         w9,w8,#1,lsl #0xC
	ldr         x8,[sp,#0x20]
	add         x8,x8,#0xC
	str         w9,[x8]

; 101  : 		}

	b           |$LN2@XELdrLoadO|
|$LN3@XELdrLoadO|

; 102  : 	}

	b           |$LN12@XELdrLoadO|
|$LN11@XELdrLoadO|

; 103  : 	else {
; 104  : 		for (size_t i = 0; i < nt->FileHeader.NumberOfSections; ++i) {

	mov         x8,#0
	str         x8,[sp,#0x18]
	b           |$LN6@XELdrLoadO|
|$LN4@XELdrLoadO|
	ldr         x8,[sp,#0x18]
	add         x8,x8,#1
	str         x8,[sp,#0x18]
|$LN6@XELdrLoadO|
	ldr         x8,[sp,#0x40]
	add         x8,x8,#4
	add         x8,x8,#2
	ldrh        w8,[x8]
	mov         w8,w8
	sxtw        x9,w8
	ldr         x8,[sp,#0x18]
	cmp         x8,x9
	bhs         |$LN5@XELdrLoadO|

; 105  : 			size_t sect_ld_addr = _image_load_base_ + secthdr[i].VirtualAddress;

	ldr         x9,[sp,#0x18]
	mov         x8,#0x28
	mul         x9,x9,x8
	ldr         x8,[sp,#0x28]
	add         x8,x8,x9
	add         x8,x8,#0xC
	ldr         w8,[x8]
	uxtw        x9,w8
	ldr         x8,[sp,#0x50]
	add         x8,x8,x9
	str         x8,[sp,#0xC0]

; 106  : 			size_t sect_sz = secthdr[i].VirtualSize;

	ldr         x9,[sp,#0x18]
	mov         x8,#0x28
	mul         x9,x9,x8
	ldr         x8,[sp,#0x28]
	add         x8,x8,x9
	add         x8,x8,#8
	ldr         w8,[x8]
	uxtw        x8,w8
	str         x8,[sp,#0x78]

; 107  : 			int req_pages = sect_sz / 4096 +

	ldr         x10,[sp,#0x78]
	mov         x9,#0x1000
	udiv        x8,x10,x9
	mul         x8,x8,x9
	sub         x8,x10,x8
	cmp         x8,#0
	beq         |$LN19@XELdrLoadO|
	mov         w8,#1
	str         w8,[sp,#0x48]
	b           |$LN20@XELdrLoadO|
|$LN19@XELdrLoadO|
	mov         w8,#0
	str         w8,[sp,#0x48]
|$LN20@XELdrLoadO|
	ldr         x9,[sp,#0x78]
	mov         x8,#0x1000
	udiv        x9,x9,x8
	ldr         w8,[sp,#0x48]
	sxtw        x8,w8
	add         x8,x9,x8
	mov         w8,w8
	str         w8,[sp,#0x58]

; 108  : 				((sect_sz % 4096) ? 1 : 0);
; 109  : 			uint64_t* block = 0;

	mov         x8,#0
	str         x8,[sp,#0x80]

; 110  : 			_KeFileSetOffset(file, secthdr[i].PointerToRawData);

	ldr         x9,[sp,#0x18]
	mov         x8,#0x28
	mul         x9,x9,x8
	ldr         x8,[sp,#0x28]
	add         x8,x8,x9
	add         x8,x8,#0x14
	ldr         w8,[x8]
	uxtw        x1,w8
	ldr         w0,[sp,#0x10]
	bl          _KeFileSetOffset

; 111  : 			int flags = 0;

	mov         w8,#0
	str         w8,[sp,#0x14]

; 112  : 			if ((secthdr[i].Characteristics & IMAGE_SCN_MEM_WRITE) &&

	ldr         x9,[sp,#0x18]
	mov         x8,#0x28
	mul         x9,x9,x8
	ldr         x8,[sp,#0x28]
	add         x8,x8,x9
	add         x8,x8,#0x24
	ldr         w8,[x8]
	tbz         x8,#0x1F,|$LN13@XELdrLoadO|
	ldr         x9,[sp,#0x18]
	mov         x8,#0x28
	mul         x9,x9,x8
	ldr         x8,[sp,#0x28]
	add         x8,x8,x9
	add         x8,x8,#0x24
	ldr         w8,[x8]
	tbnz        x8,#0x1C,|$LN13@XELdrLoadO|

; 113  : 				!(secthdr[i].Characteristics & IMAGE_SCN_MEM_SHARED))
; 114  : 				flags |= MEMMAP_FLAG_COW;

	ldr         w8,[sp,#0x14]
	orr         w8,w8,#2
	str         w8,[sp,#0x14]
|$LN13@XELdrLoadO|

; 115  : 			if (secthdr[i].Characteristics & IMAGE_SCN_CNT_INITIALIZED_DATA)

	ldr         x9,[sp,#0x18]
	mov         x8,#0x28
	mul         x9,x9,x8
	ldr         x8,[sp,#0x28]
	add         x8,x8,x9
	add         x8,x8,#0x24
	ldr         w8,[x8]
	tbz         x8,#6,|$LN14@XELdrLoadO|

; 116  : 				flags |= MEMMAP_FLAG_COW;

	ldr         w8,[sp,#0x14]
	orr         w8,w8,#2
	str         w8,[sp,#0x14]
|$LN14@XELdrLoadO|

; 117  : 		
; 118  : 			for (int j = 0; j < req_pages; j++) {

	mov         w8,#0
	str         w8,[sp,#0x30]
	b           |$LN9@XELdrLoadO|
|$LN7@XELdrLoadO|
	ldr         w8,[sp,#0x30]
	add         w8,w8,#1
	str         w8,[sp,#0x30]
|$LN9@XELdrLoadO|
	ldr         w9,[sp,#0x58]
	ldr         w8,[sp,#0x30]
	cmp         w8,w9
	bge         |$LN8@XELdrLoadO|

; 119  : 				uint64_t* alloc = (uint64_t*)_KeMemMap(NULL, 4096, 0, flags, file, obj->len);

	ldr         x8,[sp,#0x20]
	add         x8,x8,#0xC
	ldr         w8,[x8]
	uxtw        x5,w8
	ldr         w4,[sp,#0x10]
	ldr         w3,[sp,#0x14]
	mov         w2,#0
	mov         x1,#0x1000
	mov         x0,#0
	bl          _KeMemMap
	str         x0,[sp,#0xA0]

; 120  : 				//memset(alloc, 0, 4096);
; 121  : 				if (!block)

	ldr         x8,[sp,#0x80]
	cmp         x8,#0
	bne         |$LN15@XELdrLoadO|

; 122  : 					block = alloc;

	ldr         x8,[sp,#0xA0]
	str         x8,[sp,#0x80]
|$LN15@XELdrLoadO|

; 123  : 				countbytes += 4096;

	ldr         w8,[sp,#0x4C]
	add         w8,w8,#1,lsl #0xC
	str         w8,[sp,#0x4C]

; 124  : 				//int bytes = _KeReadFile(file, alloc, 4096);
; 125  : 				_KeFileStat(file, stat);

	ldr         x1,[sp,#0x38]
	ldr         w0,[sp,#0x10]
	bl          _KeFileStat

; 126  : 				if (stat->eof) {

	ldr         x8,[sp,#0x38]
	add         x8,x8,#0x24
	ldrb        w8,[x8]
	mov         w8,w8
	cmp         w8,#0
	beq         |$LN16@XELdrLoadO|

; 127  : 					_KePrint("File already ended \n");

	adrp        x8,|$SG3960|
	add         x0,x8,PageOffset(|$SG3960|)
	bl          _KePrint
|$LN16@XELdrLoadO|

; 128  : 					//break;
; 129  : 				}
; 130  : 				//ret_bytes += bytes;
; 131  : 				obj->len += 4096;

	ldr         x8,[sp,#0x20]
	add         x8,x8,#0xC
	ldr         w8,[x8]
	add         w9,w8,#1,lsl #0xC
	ldr         x8,[sp,#0x20]
	add         x8,x8,#0xC
	str         w9,[x8]

; 132  : 			}

	b           |$LN7@XELdrLoadO|
|$LN8@XELdrLoadO|

; 133  : 
; 134  : 			if (secthdr[i].VirtualSize > secthdr[i].SizeOfRawData) {
; 135  : 				//memset(raw_offset<void*>(block, secthdr[i].SizeOfRawData), 0, secthdr[i].VirtualSize - secthdr[i].SizeOfRawData);
; 136  : 			}
; 137  : 		}

	b           |$LN4@XELdrLoadO|
|$LN5@XELdrLoadO|
|$LN12@XELdrLoadO|

; 138  : 	}
; 139  : 
; 140  : 	uint8_t* aligned_buf = (uint8_t*)first_ptr;

	ldr         x8,[sp,#0x60]
	str         x8,[sp,#0xB0]

; 141  : 
; 142  : 	XELdrRelocatePE(aligned_buf, nt, diff);

	ldr         x2,[sp,#0xA8]
	ldr         x1,[sp,#0x40]
	ldr         x0,[sp,#0xB0]
	bl          |?XELdrRelocatePE@@YAXPEAXPEAU_IMAGE_NT_HEADERS_PE32PLUS@@_K@Z|

; 143  : 
; 144  : 	XELdrCreatePEObjects(first_ptr);

	ldr         x0,[sp,#0x60]
	bl          |?XELdrCreatePEObjects@@YAXPEAX@Z|

; 145  : 	obj->load_addr = _image_load_base_;

	ldr         x8,[sp,#0x20]
	add         x9,x8,#0x10
	ldr         x8,[sp,#0x50]
	str         x8,[x9]

; 146  : 	obj->loaded = true;

	ldr         x8,[sp,#0x20]
	add         x9,x8,#8
	mov         w8,#1
	strb        w8,[x9]

; 147  : 	_KeMemMapDirty((void*)_image_load_base_, obj->len, 0, 0);

	ldr         x8,[sp,#0x20]
	add         x8,x8,#0xC
	ldr         w8,[x8]
	uxtw        x1,w8
	mov         w3,#0
	mov         w2,#0
	ldr         x0,[sp,#0x50]
	bl          _KeMemMapDirty

; 148  : 
; 149  : 	//_KeCloseFile(file);
; 150  : 	free(stat);

	ldr         x0,[sp,#0x38]
	bl          free

; 151  : 	return 0;

	mov         w0,#0
|$LN1@XELdrLoadO|
	ldp         fp,lr,[sp],#0xD0
	ret

	ENDP  ; |?XELdrLoadObject@@YAHPEAU_XELDR_OBJ_@@@Z|, XELdrLoadObject

	END
