; Listing generated by Microsoft (R) Optimizing Compiler Version 19.29.30159.0 

	TTL	C:\Users\paras\source\repos\grep-name\XenevaOS\XELoader\ARM64\Debug\pe_.obj
	ARM64

	AREA	|.drectve|, DRECTVE

	EXPORT	|?_proc_debug@@3DA| [ DATA ]		; _proc_debug
	EXPORT	|?_debug_buf@@3DA| [ DATA ]		; _debug_buf

	AREA	|.bss|, NOINIT
|?_proc_debug@@3DA| % 0x1				; _proc_debug
|?_debug_buf@@3DA| % 0x1				; _debug_buf

	AREA	|.rdata|, DATA, READONLY
|$SG3740| DCB	"Inside pe import dir %x ", 0xd, 0xa, 0x0
	%	1
|$SG3742| DCB	"/", 0x0
	%	2
|$SG3744| DCB	"iat -> %x %s ", 0xd, 0xa, 0x0
|$SG3776| DCB	"Finished debugging ", 0xd, 0xa, 0x0
	%	2
|$SG3793| DCB	"res id -> %d ", 0xa, 0x0
	EXPORT	|?XELdrRelocatePE@@YAXPEAXPEAU_IMAGE_NT_HEADERS_PE32PLUS@@_K@Z| ; XELdrRelocatePE
	EXPORT	|?XELdrLinkPE@@YAXPEAX@Z|		; XELdrLinkPE
	EXPORT	|?XELdrCreatePEObjects@@YAXPEAX@Z|	; XELdrCreatePEObjects
	EXPORT	|?XELdrGetIATBoundary@@YAXPEAXPEA_K1@Z|	; XELdrGetIATBoundary
	EXPORT	|?XELdrLinkDependencyPE@@YAXPEAU_XELDR_OBJ_@@@Z| ; XELdrLinkDependencyPE
	EXPORT	|?XELdrLoadResourceDirectory@@YAXPEAX@Z| ; XELdrLoadResourceDirectory
	EXPORT	|??$raw_offset@PEAU_IMAGE_RELOCATION_BLOCK_@@PEAX@@YAPEAU_IMAGE_RELOCATION_BLOCK_@@PEAXH@Z| ; raw_offset<_IMAGE_RELOCATION_BLOCK_ *,void *>
	EXPORT	|??$raw_diff@U_IMAGE_RELOCATION_BLOCK_@@U1@@@YAHPEAU_IMAGE_RELOCATION_BLOCK_@@0@Z| ; raw_diff<_IMAGE_RELOCATION_BLOCK_,_IMAGE_RELOCATION_BLOCK_>
	EXPORT	|??$raw_offset@PEAXPEAX@@YAPEAXPEAXH@Z|	; raw_offset<void *,void *>
	EXPORT	|??$raw_offset@PEAU_IMAGE_RELOCATION_BLOCK_@@PEAU1@@@YAPEAU_IMAGE_RELOCATION_BLOCK_@@PEAU0@H@Z| ; raw_offset<_IMAGE_RELOCATION_BLOCK_ *,_IMAGE_RELOCATION_BLOCK_ *>
	EXPORT	|?XELdrGetProcAddress@@YAPEAXPEAXPEBD@Z| ; XELdrGetProcAddress
	EXPORT	|??$raw_offset@PEAU_IMAGE_NT_HEADERS_PE32PLUS@@PEAU_IMAGE_DOS_HEADER_@@@@YAPEAU_IMAGE_NT_HEADERS_PE32PLUS@@PEAU_IMAGE_DOS_HEADER_@@H@Z| ; raw_offset<_IMAGE_NT_HEADERS_PE32PLUS *,_IMAGE_DOS_HEADER_ *>
	EXPORT	|??$raw_offset@PEAU_IMAGE_EXPORT_DIRECTORY@@PEAX@@YAPEAU_IMAGE_EXPORT_DIRECTORY@@PEAXH@Z| ; raw_offset<_IMAGE_EXPORT_DIRECTORY *,void *>
	EXPORT	|??$raw_offset@PEAIPEAX@@YAPEAIPEAXH@Z|	; raw_offset<unsigned int *,void *>
	EXPORT	|??$raw_offset@PEAGPEAX@@YAPEAGPEAXH@Z|	; raw_offset<unsigned short *,void *>
	EXPORT	|??$raw_offset@PEADPEAX@@YAPEADPEAXH@Z|	; raw_offset<char *,void *>
	EXPORT	|??$raw_offset@PEAU_IMAGE_IMPORT_DIRECTORY@@PEAX@@YAPEAU_IMAGE_IMPORT_DIRECTORY@@PEAXH@Z| ; raw_offset<_IMAGE_IMPORT_DIRECTORY *,void *>
	EXPORT	|??$raw_offset@PEBDPEAX@@YAPEBDPEAXH@Z|	; raw_offset<char const *,void *>
	EXPORT	|??$raw_offset@PEA_KPEAX@@YAPEA_KPEAXH@Z| ; raw_offset<unsigned __int64 *,void *>
	EXPORT	|??$raw_offset@PEAU_IMAGE_IMPORT_HINT_TABLE@@PEAX@@YAPEAU_IMAGE_IMPORT_HINT_TABLE@@PEAXH@Z| ; raw_offset<_IMAGE_IMPORT_HINT_TABLE *,void *>
	IMPORT	|?XELdrCreateObj@@YAPEAU_XELDR_OBJ_@@PEAD@Z| ; XELdrCreateObj
	IMPORT	|?XELdrCheckObject@@YADPEBD@Z|		; XELdrCheckObject
	IMPORT	|?XELdrGetObject@@YAPEAU_XELDR_OBJ_@@PEBD@Z| ; XELdrGetObject
	IMPORT	|_KePrint|
	IMPORT	|strcmp|
	IMPORT	|strcpy|
	IMPORT	|strlen|
	IMPORT	|strcat|
	IMPORT	|malloc|
	IMPORT	|free|

	AREA	|.pdata|, PDATA
|$pdata$?XELdrRelocatePE@@YAXPEAXPEAU_IMAGE_NT_HEADERS_PE32PLUS@@_K@Z| DCD imagerel |$LN35|
	DCD	0x3e00299
	;Flags[SingleProEpi] functionLength[664] RegF[0] RegI[0] H[0] frameChainReturn[Chained] frameSize[112]
|$pdata$?XELdrLinkPE@@YAXPEAX@Z| DCD imagerel |$LN12|
	DCD	0x46001c5
	;Flags[SingleProEpi] functionLength[452] RegF[0] RegI[0] H[0] frameChainReturn[Chained] frameSize[128]
|$pdata$?XELdrCreatePEObjects@@YAXPEAX@Z| DCD imagerel |$LN14|
	DCD	0x460023d
	;Flags[SingleProEpi] functionLength[572] RegF[0] RegI[0] H[0] frameChainReturn[Chained] frameSize[128]
|$pdata$?XELdrGetIATBoundary@@YAXPEAXPEA_K1@Z| DCD imagerel |$LN12|
	DCD	0x4e001f9
	;Flags[SingleProEpi] functionLength[504] RegF[0] RegI[0] H[0] frameChainReturn[Chained] frameSize[144]
|$pdata$?XELdrLinkDependencyPE@@YAXPEAU_XELDR_OBJ_@@@Z| DCD imagerel |$LN13|
	DCD	0x4600215
	;Flags[SingleProEpi] functionLength[532] RegF[0] RegI[0] H[0] frameChainReturn[Chained] frameSize[128]
|$pdata$?XELdrLoadResourceDirectory@@YAXPEAX@Z| DCD imagerel |$LN7|
	DCD	0x2e00109
	;Flags[SingleProEpi] functionLength[264] RegF[0] RegI[0] H[0] frameChainReturn[Chained] frameSize[80]

	AREA	|.pdata|, PDATA
|$pdata$??$raw_offset@PEAU_IMAGE_RELOCATION_BLOCK_@@PEAX@@YAPEAU_IMAGE_RELOCATION_BLOCK_@@PEAXH@Z| DCD imagerel |$LN3|
	DCD	0x800025
	;Flags[SingleProEpi] functionLength[36] RegF[0] RegI[0] H[0] frameChainReturn[UnChained] frameSize[16]

	AREA	|.pdata|, PDATA
|$pdata$??$raw_diff@U_IMAGE_RELOCATION_BLOCK_@@U1@@@YAHPEAU_IMAGE_RELOCATION_BLOCK_@@0@Z| DCD imagerel |$LN3|
	DCD	0x80002d
	;Flags[SingleProEpi] functionLength[44] RegF[0] RegI[0] H[0] frameChainReturn[UnChained] frameSize[16]

	AREA	|.pdata|, PDATA
|$pdata$??$raw_offset@PEAXPEAX@@YAPEAXPEAXH@Z| DCD imagerel |$LN3|
	DCD	0x800025
	;Flags[SingleProEpi] functionLength[36] RegF[0] RegI[0] H[0] frameChainReturn[UnChained] frameSize[16]

	AREA	|.pdata|, PDATA
|$pdata$??$raw_offset@PEAU_IMAGE_RELOCATION_BLOCK_@@PEAU1@@@YAPEAU_IMAGE_RELOCATION_BLOCK_@@PEAU0@H@Z| DCD imagerel |$LN3|
	DCD	0x800025
	;Flags[SingleProEpi] functionLength[36] RegF[0] RegI[0] H[0] frameChainReturn[UnChained] frameSize[16]

	AREA	|.pdata|, PDATA
|$pdata$?XELdrGetProcAddress@@YAPEAXPEAXPEBD@Z| DCD imagerel |$LN10|
	DCD	0x3e001c1
	;Flags[SingleProEpi] functionLength[448] RegF[0] RegI[0] H[0] frameChainReturn[Chained] frameSize[112]

	AREA	|.pdata|, PDATA
|$pdata$??$raw_offset@PEAU_IMAGE_NT_HEADERS_PE32PLUS@@PEAU_IMAGE_DOS_HEADER_@@@@YAPEAU_IMAGE_NT_HEADERS_PE32PLUS@@PEAU_IMAGE_DOS_HEADER_@@H@Z| DCD imagerel |$LN3|
	DCD	0x800025
	;Flags[SingleProEpi] functionLength[36] RegF[0] RegI[0] H[0] frameChainReturn[UnChained] frameSize[16]

	AREA	|.pdata|, PDATA
|$pdata$??$raw_offset@PEAU_IMAGE_EXPORT_DIRECTORY@@PEAX@@YAPEAU_IMAGE_EXPORT_DIRECTORY@@PEAXH@Z| DCD imagerel |$LN3|
	DCD	0x800025
	;Flags[SingleProEpi] functionLength[36] RegF[0] RegI[0] H[0] frameChainReturn[UnChained] frameSize[16]

	AREA	|.pdata|, PDATA
|$pdata$??$raw_offset@PEAIPEAX@@YAPEAIPEAXH@Z| DCD imagerel |$LN3|
	DCD	0x800025
	;Flags[SingleProEpi] functionLength[36] RegF[0] RegI[0] H[0] frameChainReturn[UnChained] frameSize[16]

	AREA	|.pdata|, PDATA
|$pdata$??$raw_offset@PEAGPEAX@@YAPEAGPEAXH@Z| DCD imagerel |$LN3|
	DCD	0x800025
	;Flags[SingleProEpi] functionLength[36] RegF[0] RegI[0] H[0] frameChainReturn[UnChained] frameSize[16]

	AREA	|.pdata|, PDATA
|$pdata$??$raw_offset@PEADPEAX@@YAPEADPEAXH@Z| DCD imagerel |$LN3|
	DCD	0x800025
	;Flags[SingleProEpi] functionLength[36] RegF[0] RegI[0] H[0] frameChainReturn[UnChained] frameSize[16]

	AREA	|.pdata|, PDATA
|$pdata$??$raw_offset@PEAU_IMAGE_IMPORT_DIRECTORY@@PEAX@@YAPEAU_IMAGE_IMPORT_DIRECTORY@@PEAXH@Z| DCD imagerel |$LN3|
	DCD	0x800025
	;Flags[SingleProEpi] functionLength[36] RegF[0] RegI[0] H[0] frameChainReturn[UnChained] frameSize[16]

	AREA	|.pdata|, PDATA
|$pdata$??$raw_offset@PEBDPEAX@@YAPEBDPEAXH@Z| DCD imagerel |$LN3|
	DCD	0x800025
	;Flags[SingleProEpi] functionLength[36] RegF[0] RegI[0] H[0] frameChainReturn[UnChained] frameSize[16]

	AREA	|.pdata|, PDATA
|$pdata$??$raw_offset@PEA_KPEAX@@YAPEA_KPEAXH@Z| DCD imagerel |$LN3|
	DCD	0x800025
	;Flags[SingleProEpi] functionLength[36] RegF[0] RegI[0] H[0] frameChainReturn[UnChained] frameSize[16]

	AREA	|.pdata|, PDATA
|$pdata$??$raw_offset@PEAU_IMAGE_IMPORT_HINT_TABLE@@PEAX@@YAPEAU_IMAGE_IMPORT_HINT_TABLE@@PEAXH@Z| DCD imagerel |$LN3|
	DCD	0x800025
	;Flags[SingleProEpi] functionLength[36] RegF[0] RegI[0] H[0] frameChainReturn[UnChained] frameSize[16]
; Function compile flags: /Odtp
; File C:\Users\paras\source\repos\grep-name\XenevaOS\Libs\XEClib\includes\stdint.h

	AREA	|.text$mn|, CODE, ARM64

|??$raw_offset@PEAU_IMAGE_IMPORT_HINT_TABLE@@PEAX@@YAPEAU_IMAGE_IMPORT_HINT_TABLE@@PEAXH@Z| PROC ; raw_offset<_IMAGE_IMPORT_HINT_TABLE *,void *>

; 203  : 	{

|$LN3|
	sub         sp,sp,#0x10
	str         x0,[sp,#8]
	str         w1,[sp]

; 204  : 		return (T)((size_t)p1 + offset);

	ldr         w8,[sp]
	sxtw        x9,w8
	ldr         x8,[sp,#8]
	add         x0,x8,x9
	add         sp,sp,#0x10
	ret

	ENDP  ; |??$raw_offset@PEAU_IMAGE_IMPORT_HINT_TABLE@@PEAX@@YAPEAU_IMAGE_IMPORT_HINT_TABLE@@PEAXH@Z|, raw_offset<_IMAGE_IMPORT_HINT_TABLE *,void *>

; Function compile flags: /Odtp
; File C:\Users\paras\source\repos\grep-name\XenevaOS\Libs\XEClib\includes\stdint.h

	AREA	|.text$mn|, CODE, ARM64

|??$raw_offset@PEA_KPEAX@@YAPEA_KPEAXH@Z| PROC		; raw_offset<unsigned __int64 *,void *>

; 203  : 	{

|$LN3|
	sub         sp,sp,#0x10
	str         x0,[sp,#8]
	str         w1,[sp]

; 204  : 		return (T)((size_t)p1 + offset);

	ldr         w8,[sp]
	sxtw        x9,w8
	ldr         x8,[sp,#8]
	add         x0,x8,x9
	add         sp,sp,#0x10
	ret

	ENDP  ; |??$raw_offset@PEA_KPEAX@@YAPEA_KPEAXH@Z|, raw_offset<unsigned __int64 *,void *>

; Function compile flags: /Odtp
; File C:\Users\paras\source\repos\grep-name\XenevaOS\Libs\XEClib\includes\stdint.h

	AREA	|.text$mn|, CODE, ARM64

|??$raw_offset@PEBDPEAX@@YAPEBDPEAXH@Z| PROC		; raw_offset<char const *,void *>

; 203  : 	{

|$LN3|
	sub         sp,sp,#0x10
	str         x0,[sp,#8]
	str         w1,[sp]

; 204  : 		return (T)((size_t)p1 + offset);

	ldr         w8,[sp]
	sxtw        x9,w8
	ldr         x8,[sp,#8]
	add         x0,x8,x9
	add         sp,sp,#0x10
	ret

	ENDP  ; |??$raw_offset@PEBDPEAX@@YAPEBDPEAXH@Z|, raw_offset<char const *,void *>

; Function compile flags: /Odtp
; File C:\Users\paras\source\repos\grep-name\XenevaOS\Libs\XEClib\includes\stdint.h

	AREA	|.text$mn|, CODE, ARM64

|??$raw_offset@PEAU_IMAGE_IMPORT_DIRECTORY@@PEAX@@YAPEAU_IMAGE_IMPORT_DIRECTORY@@PEAXH@Z| PROC ; raw_offset<_IMAGE_IMPORT_DIRECTORY *,void *>

; 203  : 	{

|$LN3|
	sub         sp,sp,#0x10
	str         x0,[sp,#8]
	str         w1,[sp]

; 204  : 		return (T)((size_t)p1 + offset);

	ldr         w8,[sp]
	sxtw        x9,w8
	ldr         x8,[sp,#8]
	add         x0,x8,x9
	add         sp,sp,#0x10
	ret

	ENDP  ; |??$raw_offset@PEAU_IMAGE_IMPORT_DIRECTORY@@PEAX@@YAPEAU_IMAGE_IMPORT_DIRECTORY@@PEAXH@Z|, raw_offset<_IMAGE_IMPORT_DIRECTORY *,void *>

; Function compile flags: /Odtp
; File C:\Users\paras\source\repos\grep-name\XenevaOS\Libs\XEClib\includes\stdint.h

	AREA	|.text$mn|, CODE, ARM64

|??$raw_offset@PEADPEAX@@YAPEADPEAXH@Z| PROC		; raw_offset<char *,void *>

; 203  : 	{

|$LN3|
	sub         sp,sp,#0x10
	str         x0,[sp,#8]
	str         w1,[sp]

; 204  : 		return (T)((size_t)p1 + offset);

	ldr         w8,[sp]
	sxtw        x9,w8
	ldr         x8,[sp,#8]
	add         x0,x8,x9
	add         sp,sp,#0x10
	ret

	ENDP  ; |??$raw_offset@PEADPEAX@@YAPEADPEAXH@Z|, raw_offset<char *,void *>

; Function compile flags: /Odtp
; File C:\Users\paras\source\repos\grep-name\XenevaOS\Libs\XEClib\includes\stdint.h

	AREA	|.text$mn|, CODE, ARM64

|??$raw_offset@PEAGPEAX@@YAPEAGPEAXH@Z| PROC		; raw_offset<unsigned short *,void *>

; 203  : 	{

|$LN3|
	sub         sp,sp,#0x10
	str         x0,[sp,#8]
	str         w1,[sp]

; 204  : 		return (T)((size_t)p1 + offset);

	ldr         w8,[sp]
	sxtw        x9,w8
	ldr         x8,[sp,#8]
	add         x0,x8,x9
	add         sp,sp,#0x10
	ret

	ENDP  ; |??$raw_offset@PEAGPEAX@@YAPEAGPEAXH@Z|, raw_offset<unsigned short *,void *>

; Function compile flags: /Odtp
; File C:\Users\paras\source\repos\grep-name\XenevaOS\Libs\XEClib\includes\stdint.h

	AREA	|.text$mn|, CODE, ARM64

|??$raw_offset@PEAIPEAX@@YAPEAIPEAXH@Z| PROC		; raw_offset<unsigned int *,void *>

; 203  : 	{

|$LN3|
	sub         sp,sp,#0x10
	str         x0,[sp,#8]
	str         w1,[sp]

; 204  : 		return (T)((size_t)p1 + offset);

	ldr         w8,[sp]
	sxtw        x9,w8
	ldr         x8,[sp,#8]
	add         x0,x8,x9
	add         sp,sp,#0x10
	ret

	ENDP  ; |??$raw_offset@PEAIPEAX@@YAPEAIPEAXH@Z|, raw_offset<unsigned int *,void *>

; Function compile flags: /Odtp
; File C:\Users\paras\source\repos\grep-name\XenevaOS\Libs\XEClib\includes\stdint.h

	AREA	|.text$mn|, CODE, ARM64

|??$raw_offset@PEAU_IMAGE_EXPORT_DIRECTORY@@PEAX@@YAPEAU_IMAGE_EXPORT_DIRECTORY@@PEAXH@Z| PROC ; raw_offset<_IMAGE_EXPORT_DIRECTORY *,void *>

; 203  : 	{

|$LN3|
	sub         sp,sp,#0x10
	str         x0,[sp,#8]
	str         w1,[sp]

; 204  : 		return (T)((size_t)p1 + offset);

	ldr         w8,[sp]
	sxtw        x9,w8
	ldr         x8,[sp,#8]
	add         x0,x8,x9
	add         sp,sp,#0x10
	ret

	ENDP  ; |??$raw_offset@PEAU_IMAGE_EXPORT_DIRECTORY@@PEAX@@YAPEAU_IMAGE_EXPORT_DIRECTORY@@PEAXH@Z|, raw_offset<_IMAGE_EXPORT_DIRECTORY *,void *>

; Function compile flags: /Odtp
; File C:\Users\paras\source\repos\grep-name\XenevaOS\Libs\XEClib\includes\stdint.h

	AREA	|.text$mn|, CODE, ARM64

|??$raw_offset@PEAU_IMAGE_NT_HEADERS_PE32PLUS@@PEAU_IMAGE_DOS_HEADER_@@@@YAPEAU_IMAGE_NT_HEADERS_PE32PLUS@@PEAU_IMAGE_DOS_HEADER_@@H@Z| PROC ; raw_offset<_IMAGE_NT_HEADERS_PE32PLUS *,_IMAGE_DOS_HEADER_ *>

; 203  : 	{

|$LN3|
	sub         sp,sp,#0x10
	str         x0,[sp,#8]
	str         w1,[sp]

; 204  : 		return (T)((size_t)p1 + offset);

	ldr         w8,[sp]
	sxtw        x9,w8
	ldr         x8,[sp,#8]
	add         x0,x8,x9
	add         sp,sp,#0x10
	ret

	ENDP  ; |??$raw_offset@PEAU_IMAGE_NT_HEADERS_PE32PLUS@@PEAU_IMAGE_DOS_HEADER_@@@@YAPEAU_IMAGE_NT_HEADERS_PE32PLUS@@PEAU_IMAGE_DOS_HEADER_@@H@Z|, raw_offset<_IMAGE_NT_HEADERS_PE32PLUS *,_IMAGE_DOS_HEADER_ *>

; Function compile flags: /Odtp
; File C:\Users\paras\source\repos\grep-name\XenevaOS\XELoader\pe_.cpp

	AREA	|.text$mn|, CODE, ARM64

|?XELdrGetProcAddress@@YAPEAXPEAXPEBD@Z| PROC		; XELdrGetProcAddress

; 135  : void* XELdrGetProcAddress(void *image, const char* procname){

|$LN10|
	stp         fp,lr,[sp,#-0x70]!
	mov         fp,sp
	str         x0,[sp,#0x18]
	str         x1,[sp,#0x50]

; 136  : 	PIMAGE_DOS_HEADER dos_header = (PIMAGE_DOS_HEADER)image;

	ldr         x8,[sp,#0x18]
	str         x8,[sp,#0x38]

; 137  : 	PIMAGE_NT_HEADERS ntHeaders = raw_offset<PIMAGE_NT_HEADERS>(dos_header, dos_header->e_lfanew);

	ldr         x8,[sp,#0x38]
	add         x8,x8,#0x3C
	ldrh        w1,[x8]
	mov         w1,w1
	mov         w1,w1
	ldr         x0,[sp,#0x38]
	bl          |??$raw_offset@PEAU_IMAGE_NT_HEADERS_PE32PLUS@@PEAU_IMAGE_DOS_HEADER_@@@@YAPEAU_IMAGE_NT_HEADERS_PE32PLUS@@PEAU_IMAGE_DOS_HEADER_@@H@Z|
	str         x0,[sp,#0x40]

; 138  : 	
; 139  : 	if (IMAGE_DATA_DIRECTORY_EXPORT + 1 > ntHeaders->OptionalHeader.NumberOfRvaAndSizes)

	ldr         x8,[sp,#0x40]
	add         x8,x8,#0x18
	add         x8,x8,#0x6C
	ldr         w9,[x8]
	mov         w8,#1
	cmp         w8,w9
	bls         |$LN5@XELdrGetPr|

; 140  : 		return NULL;

	mov         x0,#0
	b           |$LN1@XELdrGetPr|
|$LN5@XELdrGetPr|

; 141  : 	IMAGE_DATA_DIRECTORY& datadir = ntHeaders->OptionalHeader.DataDirectory[IMAGE_DATA_DIRECTORY_EXPORT];

	ldr         x8,[sp,#0x40]
	add         x8,x8,#0x88
	str         x8,[sp,#0x30]

; 142  : 	
; 143  : 	if (datadir.VirtualAddress == 0 || datadir.Size == 0)

	ldr         x8,[sp,#0x30]
	ldr         w8,[x8]
	cmp         w8,#0
	beq         |$LN7@XELdrGetPr|
	ldr         x8,[sp,#0x30]
	add         x8,x8,#4
	ldr         w8,[x8]
	cmp         w8,#0
	bne         |$LN6@XELdrGetPr|
|$LN7@XELdrGetPr|

; 144  : 		return NULL;

	mov         x0,#0
	b           |$LN1@XELdrGetPr|
|$LN6@XELdrGetPr|

; 145  : 
; 146  : 	PIMAGE_EXPORT_DIRECTORY exportdir = raw_offset<PIMAGE_EXPORT_DIRECTORY>(image, datadir.VirtualAddress);

	ldr         x8,[sp,#0x30]
	ldr         w1,[x8]
	ldr         x0,[sp,#0x18]
	bl          |??$raw_offset@PEAU_IMAGE_EXPORT_DIRECTORY@@PEAX@@YAPEAU_IMAGE_EXPORT_DIRECTORY@@PEAXH@Z|
	str         x0,[sp,#0x20]

; 147  : 	uint32_t* FuntionNameAddressArray = raw_offset<uint32_t*>(image, exportdir->AddressOfNames);

	ldr         x8,[sp,#0x20]
	add         x8,x8,#0x20
	ldr         w1,[x8]
	ldr         x0,[sp,#0x18]
	bl          |??$raw_offset@PEAIPEAX@@YAPEAIPEAXH@Z|
	str         x0,[sp,#0x48]

; 148  : 	uint16_t* FunctionOrdinalAddressArray = raw_offset<uint16_t*>(image, exportdir->AddressOfNameOrdinal);

	ldr         x8,[sp,#0x20]
	add         x8,x8,#0x24
	ldr         w1,[x8]
	ldr         x0,[sp,#0x18]
	bl          |??$raw_offset@PEAGPEAX@@YAPEAGPEAXH@Z|
	str         x0,[sp,#0x60]

; 149  : 	uint32_t* FunctionAddressArray = raw_offset<uint32_t*>(image, exportdir->AddressOfFunctions);

	ldr         x8,[sp,#0x20]
	add         x8,x8,#0x1C
	ldr         w1,[x8]
	ldr         x0,[sp,#0x18]
	bl          |??$raw_offset@PEAIPEAX@@YAPEAIPEAXH@Z|
	str         x0,[sp,#0x68]

; 150  : 
; 151  : 	for (int i = 0; i < exportdir->NumberOfNames; i++) {

	mov         w8,#0
	str         w8,[sp,#0x10]
	b           |$LN4@XELdrGetPr|
|$LN2@XELdrGetPr|
	ldr         w8,[sp,#0x10]
	add         w8,w8,#1
	str         w8,[sp,#0x10]
|$LN4@XELdrGetPr|
	ldr         x8,[sp,#0x20]
	add         x8,x8,#0x18
	ldr         w9,[x8]
	ldr         w8,[sp,#0x10]
	cmp         w8,w9
	bhs         |$LN3@XELdrGetPr|

; 152  : 		char* function_name = raw_offset<char*>(image, FuntionNameAddressArray[i]);

	ldr         w8,[sp,#0x10]
	sxtw        x9,w8
	mov         x8,#4
	mul         x9,x9,x8
	ldr         x8,[sp,#0x48]
	add         x8,x8,x9
	ldr         w1,[x8]
	ldr         x0,[sp,#0x18]
	bl          |??$raw_offset@PEADPEAX@@YAPEADPEAXH@Z|
	str         x0,[sp,#0x58]

; 153  : 		if (strcmp(function_name, procname) == 0) {

	ldr         x1,[sp,#0x50]
	ldr         x0,[sp,#0x58]
	bl          strcmp
	mov         w0,w0
	cmp         w0,#0
	bne         |$LN8@XELdrGetPr|

; 154  : 			uint16_t ordinal = FunctionOrdinalAddressArray[i];

	ldr         w8,[sp,#0x10]
	sxtw        x9,w8
	mov         x8,#2
	mul         x9,x9,x8
	ldr         x8,[sp,#0x60]
	add         x8,x8,x9
	ldrh        w8,[x8]
	strh        w8,[sp,#0x14]

; 155  : 			uint32_t FunctionAddress = FunctionAddressArray[ordinal];

	ldrh        w8,[sp,#0x14]
	mov         w9,w8
	mov         x8,#4
	mul         x9,x9,x8
	ldr         x8,[sp,#0x68]
	add         x8,x8,x9
	ldr         w8,[x8]
	str         w8,[sp,#0x28]

; 156  : 			return raw_offset<void*>(image, FunctionAddress);

	ldr         w1,[sp,#0x28]
	ldr         x0,[sp,#0x18]
	bl          |??$raw_offset@PEAXPEAX@@YAPEAXPEAXH@Z|
	b           |$LN1@XELdrGetPr|
|$LN8@XELdrGetPr|

; 157  : 		}
; 158  : 	}

	b           |$LN2@XELdrGetPr|
|$LN3@XELdrGetPr|

; 159  : 
; 160  : 	return nullptr;

	mov         x0,#0
|$LN1@XELdrGetPr|
	ldp         fp,lr,[sp],#0x70
	ret

	ENDP  ; |?XELdrGetProcAddress@@YAPEAXPEAXPEBD@Z|, XELdrGetProcAddress

; Function compile flags: /Odtp
; File C:\Users\paras\source\repos\grep-name\XenevaOS\Libs\XEClib\includes\stdint.h

	AREA	|.text$mn|, CODE, ARM64

|??$raw_offset@PEAU_IMAGE_RELOCATION_BLOCK_@@PEAU1@@@YAPEAU_IMAGE_RELOCATION_BLOCK_@@PEAU0@H@Z| PROC ; raw_offset<_IMAGE_RELOCATION_BLOCK_ *,_IMAGE_RELOCATION_BLOCK_ *>

; 203  : 	{

|$LN3|
	sub         sp,sp,#0x10
	str         x0,[sp,#8]
	str         w1,[sp]

; 204  : 		return (T)((size_t)p1 + offset);

	ldr         w8,[sp]
	sxtw        x9,w8
	ldr         x8,[sp,#8]
	add         x0,x8,x9
	add         sp,sp,#0x10
	ret

	ENDP  ; |??$raw_offset@PEAU_IMAGE_RELOCATION_BLOCK_@@PEAU1@@@YAPEAU_IMAGE_RELOCATION_BLOCK_@@PEAU0@H@Z|, raw_offset<_IMAGE_RELOCATION_BLOCK_ *,_IMAGE_RELOCATION_BLOCK_ *>

; Function compile flags: /Odtp
; File C:\Users\paras\source\repos\grep-name\XenevaOS\Libs\XEClib\includes\stdint.h

	AREA	|.text$mn|, CODE, ARM64

|??$raw_offset@PEAXPEAX@@YAPEAXPEAXH@Z| PROC		; raw_offset<void *,void *>

; 203  : 	{

|$LN3|
	sub         sp,sp,#0x10
	str         x0,[sp,#8]
	str         w1,[sp]

; 204  : 		return (T)((size_t)p1 + offset);

	ldr         w8,[sp]
	sxtw        x9,w8
	ldr         x8,[sp,#8]
	add         x0,x8,x9
	add         sp,sp,#0x10
	ret

	ENDP  ; |??$raw_offset@PEAXPEAX@@YAPEAXPEAXH@Z|, raw_offset<void *,void *>

; Function compile flags: /Odtp
; File C:\Users\paras\source\repos\grep-name\XenevaOS\Libs\XEClib\includes\stdint.h

	AREA	|.text$mn|, CODE, ARM64

|??$raw_diff@U_IMAGE_RELOCATION_BLOCK_@@U1@@@YAHPEAU_IMAGE_RELOCATION_BLOCK_@@0@Z| PROC ; raw_diff<_IMAGE_RELOCATION_BLOCK_,_IMAGE_RELOCATION_BLOCK_>

; 199  : 	{

|$LN3|
	sub         sp,sp,#0x10
	str         x0,[sp]
	str         x1,[sp,#8]

; 200  : 		return (intptr_t)p1 - (intptr_t)p2;

	ldr         x8,[sp]
	mov         w9,w8
	ldr         x8,[sp,#8]
	mov         w8,w8
	sub         w0,w9,w8
	mov         w0,w0
	add         sp,sp,#0x10
	ret

	ENDP  ; |??$raw_diff@U_IMAGE_RELOCATION_BLOCK_@@U1@@@YAHPEAU_IMAGE_RELOCATION_BLOCK_@@0@Z|, raw_diff<_IMAGE_RELOCATION_BLOCK_,_IMAGE_RELOCATION_BLOCK_>

; Function compile flags: /Odtp
; File C:\Users\paras\source\repos\grep-name\XenevaOS\Libs\XEClib\includes\stdint.h

	AREA	|.text$mn|, CODE, ARM64

|??$raw_offset@PEAU_IMAGE_RELOCATION_BLOCK_@@PEAX@@YAPEAU_IMAGE_RELOCATION_BLOCK_@@PEAXH@Z| PROC ; raw_offset<_IMAGE_RELOCATION_BLOCK_ *,void *>

; 203  : 	{

|$LN3|
	sub         sp,sp,#0x10
	str         x0,[sp,#8]
	str         w1,[sp]

; 204  : 		return (T)((size_t)p1 + offset);

	ldr         w8,[sp]
	sxtw        x9,w8
	ldr         x8,[sp,#8]
	add         x0,x8,x9
	add         sp,sp,#0x10
	ret

	ENDP  ; |??$raw_offset@PEAU_IMAGE_RELOCATION_BLOCK_@@PEAX@@YAPEAU_IMAGE_RELOCATION_BLOCK_@@PEAXH@Z|, raw_offset<_IMAGE_RELOCATION_BLOCK_ *,void *>

; Function compile flags: /Odtp
; File C:\Users\paras\source\repos\grep-name\XenevaOS\XELoader\pe_.cpp

	AREA	|.text$mn|, CODE, ARM64

|?XELdrLoadResourceDirectory@@YAXPEAX@Z| PROC		; XELdrLoadResourceDirectory

; 283  : void XELdrLoadResourceDirectory(void *image) {

|$LN7|
	stp         fp,lr,[sp,#-0x50]!
	mov         fp,sp
	str         x0,[sp,#0x38]

; 284  : 	PIMAGE_DOS_HEADER dos_header = (PIMAGE_DOS_HEADER)image;

	ldr         x8,[sp,#0x38]
	str         x8,[sp,#0x30]

; 285  : 	PIMAGE_NT_HEADERS nt_headers = raw_offset<PIMAGE_NT_HEADERS>(dos_header, dos_header->e_lfanew);

	ldr         x8,[sp,#0x30]
	add         x8,x8,#0x3C
	ldrh        w1,[x8]
	mov         w1,w1
	mov         w1,w1
	ldr         x0,[sp,#0x30]
	bl          |??$raw_offset@PEAU_IMAGE_NT_HEADERS_PE32PLUS@@PEAU_IMAGE_DOS_HEADER_@@@@YAPEAU_IMAGE_NT_HEADERS_PE32PLUS@@PEAU_IMAGE_DOS_HEADER_@@H@Z|
	str         x0,[sp,#0x40]

; 286  : 
; 287  : 	IMAGE_DATA_DIRECTORY& datadir = nt_headers->OptionalHeader.DataDirectory[2];

	ldr         x8,[sp,#0x40]
	add         x8,x8,#0x98
	str         x8,[sp,#0x18]

; 288  : 	if (datadir.VirtualAddress == 0 || datadir.Size == 0) {

	ldr         x8,[sp,#0x18]
	ldr         w8,[x8]
	cmp         w8,#0
	beq         |$LN5@XELdrLoadR|
	ldr         x8,[sp,#0x18]
	add         x8,x8,#4
	ldr         w8,[x8]
	cmp         w8,#0
	bne         |$LN4@XELdrLoadR|
|$LN5@XELdrLoadR|

; 289  : 		return;

	b           |$LN1@XELdrLoadR|
|$LN4@XELdrLoadR|

; 290  : 	}
; 291  : 
; 292  : 	PIMAGE_RESOURCE_DIRECTORY resdir = (PIMAGE_RESOURCE_DIRECTORY)(datadir.VirtualAddress + (uint64_t)image);

	ldr         x8,[sp,#0x18]
	ldr         w8,[x8]
	uxtw        x9,w8
	ldr         x8,[sp,#0x38]
	add         x8,x9,x8
	str         x8,[sp,#0x20]

; 293  : 	IMAGE_RESOURCE_DIRECTORY_ENTRY *lpResEntry = resdir->DirectoryEntries;

	ldr         x8,[sp,#0x20]
	add         x8,x8,#0x10
	str         x8,[sp,#0x28]

; 294  : 
; 295  : 	int entries = resdir->NumberOfIdEntries + resdir->NumberOfNamedEntries;

	ldr         x8,[sp,#0x20]
	add         x8,x8,#0xE
	ldrh        w9,[x8]
	mov         w9,w9
	ldr         x8,[sp,#0x20]
	add         x8,x8,#0xC
	ldrh        w8,[x8]
	mov         w8,w8
	add         w8,w9,w8
	str         w8,[sp,#0x10]
|$LN2@XELdrLoadR|

; 296  : 
; 297  : 	while (entries-- != 0) {

	ldr         w8,[sp,#0x10]
	str         w8,[sp,#0x14]
	ldr         w8,[sp,#0x10]
	sub         w8,w8,#1
	str         w8,[sp,#0x10]
	ldr         w8,[sp,#0x14]
	cmp         w8,#0
	beq         |$LN3@XELdrLoadR|

; 298  : 		_KePrint("res id -> %d \n", lpResEntry->Id);

	ldr         x8,[sp,#0x28]
	ldrh        w1,[x8]
	mov         w1,w1
	mov         w1,w1
	adrp        x8,|$SG3793|
	add         x0,x8,PageOffset(|$SG3793|)
	bl          _KePrint

; 299  : 		lpResEntry++;

	ldr         x8,[sp,#0x28]
	add         x8,x8,#8
	str         x8,[sp,#0x28]

; 300  : 	}

	b           |$LN2@XELdrLoadR|
|$LN3@XELdrLoadR|
|$LN1@XELdrLoadR|
	ldp         fp,lr,[sp],#0x50
	ret

	ENDP  ; |?XELdrLoadResourceDirectory@@YAXPEAX@Z|, XELdrLoadResourceDirectory

; Function compile flags: /Odtp
; File C:\Users\paras\source\repos\grep-name\XenevaOS\XELoader\pe_.cpp

	AREA	|.text$mn|, CODE, ARM64

|?XELdrLinkDependencyPE@@YAXPEAU_XELDR_OBJ_@@@Z| PROC	; XELdrLinkDependencyPE

; 246  : void XELdrLinkDependencyPE(XELoaderObject* obj) {

|$LN13|
	stp         fp,lr,[sp,#-0x80]!
	mov         fp,sp
	str         x0,[sp,#0x40]

; 247  : 	if (obj->linked)

	ldr         x8,[sp,#0x40]
	add         x8,x8,#9
	ldrsb       w8,[x8]
	mov         w8,w8
	cmp         w8,#0
	beq         |$LN7@XELdrLinkD|

; 248  : 		return;

	b           |$LN1@XELdrLinkD|
|$LN7@XELdrLinkD|

; 249  : 	void* exec = (void*)obj->load_addr;

	ldr         x8,[sp,#0x40]
	add         x8,x8,#0x10
	ldr         x8,[x8]
	str         x8,[sp,#0x18]

; 250  : 	PIMAGE_DOS_HEADER dos_header = (PIMAGE_DOS_HEADER)exec;

	ldr         x8,[sp,#0x18]
	str         x8,[sp,#0x48]

; 251  : 	PIMAGE_NT_HEADERS nt_headers = raw_offset<PIMAGE_NT_HEADERS>(dos_header, dos_header->e_lfanew);

	ldr         x8,[sp,#0x48]
	add         x8,x8,#0x3C
	ldrh        w1,[x8]
	mov         w1,w1
	mov         w1,w1
	ldr         x0,[sp,#0x48]
	bl          |??$raw_offset@PEAU_IMAGE_NT_HEADERS_PE32PLUS@@PEAU_IMAGE_DOS_HEADER_@@@@YAPEAU_IMAGE_NT_HEADERS_PE32PLUS@@PEAU_IMAGE_DOS_HEADER_@@H@Z|
	str         x0,[sp,#0x50]

; 252  : 	if (IMAGE_DATA_DIRECTORY_IMPORT + 1 > nt_headers->OptionalHeader.NumberOfRvaAndSizes)

	ldr         x8,[sp,#0x50]
	add         x8,x8,#0x18
	add         x8,x8,#0x6C
	ldr         w9,[x8]
	mov         w8,#2
	cmp         w8,w9
	bls         |$LN8@XELdrLinkD|

; 253  : 		return;

	b           |$LN1@XELdrLinkD|
|$LN8@XELdrLinkD|

; 254  : 
; 255  : 	IMAGE_DATA_DIRECTORY& datadir = nt_headers->OptionalHeader.DataDirectory[IMAGE_DATA_DIRECTORY_IMPORT];

	ldr         x8,[sp,#0x50]
	add         x8,x8,#0x90
	str         x8,[sp,#0x28]

; 256  : 	if (datadir.VirtualAddress == 0 || datadir.Size == 0) {

	ldr         x8,[sp,#0x28]
	ldr         w8,[x8]
	cmp         w8,#0
	beq         |$LN10@XELdrLinkD|
	ldr         x8,[sp,#0x28]
	add         x8,x8,#4
	ldr         w8,[x8]
	cmp         w8,#0
	bne         |$LN9@XELdrLinkD|
|$LN10@XELdrLinkD|

; 257  : 		return;

	b           |$LN1@XELdrLinkD|
|$LN9@XELdrLinkD|

; 258  : 	}
; 259  : 
; 260  : 	PIMAGE_IMPORT_DIRECTORY importdir = raw_offset<PIMAGE_IMPORT_DIRECTORY>(exec, datadir.VirtualAddress);

	ldr         x8,[sp,#0x28]
	ldr         w1,[x8]
	ldr         x0,[sp,#0x18]
	bl          |??$raw_offset@PEAU_IMAGE_IMPORT_DIRECTORY@@PEAX@@YAPEAU_IMAGE_IMPORT_DIRECTORY@@PEAXH@Z|
	str         x0,[sp,#0x38]

; 261  : 	for (size_t n = 0; importdir[n].ThunkTableRva; ++n) {

	mov         x8,#0
	str         x8,[sp,#0x10]
	b           |$LN4@XELdrLinkD|
|$LN2@XELdrLinkD|
	ldr         x8,[sp,#0x10]
	add         x8,x8,#1
	str         x8,[sp,#0x10]
|$LN4@XELdrLinkD|
	ldr         x9,[sp,#0x10]
	mov         x8,#0x14
	mul         x9,x9,x8
	ldr         x8,[sp,#0x38]
	add         x8,x8,x9
	add         x8,x8,#0x10
	ldr         w8,[x8]
	cmp         w8,#0
	beq         |$LN3@XELdrLinkD|

; 262  : 		const char* func = raw_offset<const char*>(exec, importdir[n].NameRva);

	ldr         x9,[sp,#0x10]
	mov         x8,#0x14
	mul         x9,x9,x8
	ldr         x8,[sp,#0x38]
	add         x8,x8,x9
	add         x8,x8,#0xC
	ldr         w1,[x8]
	ldr         x0,[sp,#0x18]
	bl          |??$raw_offset@PEBDPEAX@@YAPEBDPEAXH@Z|
	str         x0,[sp,#0x58]

; 263  : 		XELoaderObject* dep_obj = XELdrGetObject(func);

	ldr         x0,[sp,#0x58]
	bl          |?XELdrGetObject@@YAPEAU_XELDR_OBJ_@@PEBD@Z|
	str         x0,[sp,#0x30]

; 264  : 		if (!dep_obj){

	ldr         x8,[sp,#0x30]
	cmp         x8,#0
	bne         |$LN11@XELdrLinkD|

; 265  : 			return;

	b           |$LN1@XELdrLinkD|
|$LN11@XELdrLinkD|

; 266  : 		}
; 267  : 	
; 268  : 		XELdrLinkDependencyPE(dep_obj);

	ldr         x0,[sp,#0x30]
	bl          |?XELdrLinkDependencyPE@@YAXPEAU_XELDR_OBJ_@@@Z|

; 269  : 		void* dll_dep = (void*)dep_obj->load_addr;

	ldr         x8,[sp,#0x30]
	add         x8,x8,#0x10
	ldr         x8,[x8]
	str         x8,[sp,#0x70]

; 270  : 		PIMAGE_IMPORT_LOOKUP_TABLE_PE32P iat = raw_offset<PIMAGE_IMPORT_LOOKUP_TABLE_PE32P>(exec, importdir[n].ThunkTableRva);

	ldr         x9,[sp,#0x10]
	mov         x8,#0x14
	mul         x9,x9,x8
	ldr         x8,[sp,#0x38]
	add         x8,x8,x9
	add         x8,x8,#0x10
	ldr         w1,[x8]
	ldr         x0,[sp,#0x18]
	bl          |??$raw_offset@PEA_KPEAX@@YAPEA_KPEAXH@Z|
	str         x0,[sp,#0x20]
|$LN5@XELdrLinkD|

; 271  : 		while (*iat) {

	ldr         x8,[sp,#0x20]
	ldr         x8,[x8]
	cmp         x8,#0
	beq         |$LN6@XELdrLinkD|

; 272  : 			PIMAGE_IMPORT_HINT_TABLE hint = raw_offset<PIMAGE_IMPORT_HINT_TABLE>(exec, *iat);

	ldr         x8,[sp,#0x20]
	ldr         x8,[x8]
	mov         w1,w8
	mov         w1,w1
	ldr         x0,[sp,#0x18]
	bl          |??$raw_offset@PEAU_IMAGE_IMPORT_HINT_TABLE@@PEAX@@YAPEAU_IMAGE_IMPORT_HINT_TABLE@@PEAXH@Z|
	str         x0,[sp,#0x60]

; 273  : 			const char* fname = hint->name;

	ldr         x8,[sp,#0x60]
	add         x8,x8,#2
	str         x8,[sp,#0x68]

; 274  : 			void* procaddr = XELdrGetProcAddress((void*)dll_dep, fname);

	ldr         x1,[sp,#0x68]
	ldr         x0,[sp,#0x70]
	bl          |?XELdrGetProcAddress@@YAPEAXPEAXPEBD@Z|
	str         x0,[sp,#0x78]

; 275  : 			*iat = (uint64_t)procaddr;

	ldr         x9,[sp,#0x20]
	ldr         x8,[sp,#0x78]
	str         x8,[x9]

; 276  : 			++iat;

	ldr         x8,[sp,#0x20]
	add         x8,x8,#8
	str         x8,[sp,#0x20]

; 277  : 		}

	b           |$LN5@XELdrLinkD|
|$LN6@XELdrLinkD|

; 278  : 	}

	b           |$LN2@XELdrLinkD|
|$LN3@XELdrLinkD|

; 279  : 	_KePrint("Finished debugging \r\n");

	adrp        x8,|$SG3776|
	add         x0,x8,PageOffset(|$SG3776|)
	bl          _KePrint

; 280  : 	obj->linked = true;

	ldr         x8,[sp,#0x40]
	add         x9,x8,#9
	mov         w8,#1
	strb        w8,[x9]
|$LN1@XELdrLinkD|
	ldp         fp,lr,[sp],#0x80
	ret

	ENDP  ; |?XELdrLinkDependencyPE@@YAXPEAU_XELDR_OBJ_@@@Z|, XELdrLinkDependencyPE

; Function compile flags: /Odtp
; File C:\Users\paras\source\repos\grep-name\XenevaOS\XELoader\pe_.cpp

	AREA	|.text$mn|, CODE, ARM64

|?XELdrGetIATBoundary@@YAXPEAXPEA_K1@Z| PROC		; XELdrGetIATBoundary

; 304  : void XELdrGetIATBoundary(void* image,uint64_t* cowStart, uint64_t* cowEnd) {

|$LN12|
	stp         fp,lr,[sp,#-0x90]!
	mov         fp,sp
	str         x0,[sp,#0x10]
	str         x1,[sp,#0x58]
	str         x2,[sp,#0x60]

; 305  : 	PIMAGE_DOS_HEADER dos_header = (PIMAGE_DOS_HEADER)image;

	ldr         x8,[sp,#0x10]
	str         x8,[sp,#0x40]

; 306  : 	PIMAGE_NT_HEADERS nt_headers = raw_offset<PIMAGE_NT_HEADERS>(dos_header, dos_header->e_lfanew);

	ldr         x8,[sp,#0x40]
	add         x8,x8,#0x3C
	ldrh        w1,[x8]
	mov         w1,w1
	mov         w1,w1
	ldr         x0,[sp,#0x40]
	bl          |??$raw_offset@PEAU_IMAGE_NT_HEADERS_PE32PLUS@@PEAU_IMAGE_DOS_HEADER_@@@@YAPEAU_IMAGE_NT_HEADERS_PE32PLUS@@PEAU_IMAGE_DOS_HEADER_@@H@Z|
	str         x0,[sp,#0x48]

; 307  : 
; 308  : 	if (IMAGE_DATA_DIRECTORY_IMPORT + 1 > nt_headers->OptionalHeader.NumberOfRvaAndSizes)

	ldr         x8,[sp,#0x48]
	add         x8,x8,#0x18
	add         x8,x8,#0x6C
	ldr         w9,[x8]
	mov         w8,#2
	cmp         w8,w9
	bls         |$LN7@XELdrGetIA|

; 309  : 		return;

	b           |$LN1@XELdrGetIA|
|$LN7@XELdrGetIA|

; 310  : 
; 311  : 	IMAGE_DATA_DIRECTORY& datadir = nt_headers->OptionalHeader.DataDirectory[IMAGE_DATA_DIRECTORY_IMPORT];

	ldr         x8,[sp,#0x48]
	add         x8,x8,#0x90
	str         x8,[sp,#0x18]

; 312  : 	if (datadir.VirtualAddress == 0 || datadir.Size == 0) {

	ldr         x8,[sp,#0x18]
	ldr         w8,[x8]
	cmp         w8,#0
	beq         |$LN9@XELdrGetIA|
	ldr         x8,[sp,#0x18]
	add         x8,x8,#4
	ldr         w8,[x8]
	cmp         w8,#0
	bne         |$LN8@XELdrGetIA|
|$LN9@XELdrGetIA|

; 313  : 		return;

	b           |$LN1@XELdrGetIA|
|$LN8@XELdrGetIA|

; 314  : 	}
; 315  : 
; 316  : 	size_t iatStart = (size_t)image + datadir.VirtualAddress;

	ldr         x8,[sp,#0x18]
	ldr         w8,[x8]
	uxtw        x9,w8
	ldr         x8,[sp,#0x10]
	add         x8,x8,x9
	str         x8,[sp,#0x50]

; 317  : 	size_t iatEnd = iatStart + datadir.Size;

	ldr         x8,[sp,#0x18]
	add         x8,x8,#4
	ldr         w8,[x8]
	uxtw        x9,w8
	ldr         x8,[sp,#0x50]
	add         x8,x8,x9
	str         x8,[sp,#0x68]

; 318  : 
; 319  : 	*cowStart = iatStart; // iatStart & ~(0x1000 - 1);

	ldr         x9,[sp,#0x58]
	ldr         x8,[sp,#0x50]
	str         x8,[x9]

; 320  : 	*cowEnd = iatEnd; // (iatEnd + 0x1000 - 1) & ~(0x1000 - 1);

	ldr         x9,[sp,#0x60]
	ldr         x8,[sp,#0x68]
	str         x8,[x9]

; 321  : 
; 322  : 	PIMAGE_IMPORT_DIRECTORY importdir = raw_offset<PIMAGE_IMPORT_DIRECTORY>(image, datadir.VirtualAddress);

	ldr         x8,[sp,#0x18]
	ldr         w1,[x8]
	ldr         x0,[sp,#0x10]
	bl          |??$raw_offset@PEAU_IMAGE_IMPORT_DIRECTORY@@PEAX@@YAPEAU_IMAGE_IMPORT_DIRECTORY@@PEAXH@Z|
	str         x0,[sp,#0x38]

; 323  : 	for (size_t n = 0; importdir[n].ThunkTableRva; ++n) {

	mov         x8,#0
	str         x8,[sp,#0x20]
	b           |$LN4@XELdrGetIA|
|$LN2@XELdrGetIA|
	ldr         x8,[sp,#0x20]
	add         x8,x8,#1
	str         x8,[sp,#0x20]
|$LN4@XELdrGetIA|
	ldr         x9,[sp,#0x20]
	mov         x8,#0x14
	mul         x9,x9,x8
	ldr         x8,[sp,#0x38]
	add         x8,x8,x9
	add         x8,x8,#0x10
	ldr         w8,[x8]
	cmp         w8,#0
	beq         |$LN3@XELdrGetIA|

; 324  : 		const char* func = raw_offset<const char*>(image, importdir[n].NameRva);

	ldr         x9,[sp,#0x20]
	mov         x8,#0x14
	mul         x9,x9,x8
	ldr         x8,[sp,#0x38]
	add         x8,x8,x9
	add         x8,x8,#0xC
	ldr         w1,[x8]
	ldr         x0,[sp,#0x10]
	bl          |??$raw_offset@PEBDPEAX@@YAPEBDPEAXH@Z|
	str         x0,[sp,#0x70]

; 325  : 		XELoaderObject* dep_obj = XELdrGetObject(func);

	ldr         x0,[sp,#0x70]
	bl          |?XELdrGetObject@@YAPEAU_XELDR_OBJ_@@PEBD@Z|
	str         x0,[sp,#0x30]

; 326  : 		if (!dep_obj) {

	ldr         x8,[sp,#0x30]
	cmp         x8,#0
	bne         |$LN10@XELdrGetIA|

; 327  : 			return;

	b           |$LN1@XELdrGetIA|
|$LN10@XELdrGetIA|

; 328  : 		}
; 329  : 
; 330  : 		XELdrLinkDependencyPE(dep_obj);

	ldr         x0,[sp,#0x30]
	bl          |?XELdrLinkDependencyPE@@YAXPEAU_XELDR_OBJ_@@@Z|

; 331  : 		void* dll_dep = (void*)dep_obj->load_addr;

	ldr         x8,[sp,#0x30]
	add         x8,x8,#0x10
	ldr         x8,[x8]
	str         x8,[sp,#0x78]

; 332  : 		PIMAGE_IMPORT_LOOKUP_TABLE_PE32P iat = raw_offset<PIMAGE_IMPORT_LOOKUP_TABLE_PE32P>(image, importdir[n].ThunkTableRva);

	ldr         x9,[sp,#0x20]
	mov         x8,#0x14
	mul         x9,x9,x8
	ldr         x8,[sp,#0x38]
	add         x8,x8,x9
	add         x8,x8,#0x10
	ldr         w1,[x8]
	ldr         x0,[sp,#0x10]
	bl          |??$raw_offset@PEA_KPEAX@@YAPEA_KPEAXH@Z|
	str         x0,[sp,#0x28]
|$LN5@XELdrGetIA|

; 333  : 		while (*iat) {

	ldr         x8,[sp,#0x28]
	ldr         x8,[x8]
	cmp         x8,#0
	beq         |$LN6@XELdrGetIA|

; 334  : 			PIMAGE_IMPORT_HINT_TABLE hint = raw_offset<PIMAGE_IMPORT_HINT_TABLE>(image, *iat);

	ldr         x8,[sp,#0x28]
	ldr         x8,[x8]
	mov         w1,w8
	mov         w1,w1
	ldr         x0,[sp,#0x10]
	bl          |??$raw_offset@PEAU_IMAGE_IMPORT_HINT_TABLE@@PEAX@@YAPEAU_IMAGE_IMPORT_HINT_TABLE@@PEAXH@Z|
	str         x0,[sp,#0x80]

; 335  : 			++iat;

	ldr         x8,[sp,#0x28]
	add         x8,x8,#8
	str         x8,[sp,#0x28]

; 336  : 		}

	b           |$LN5@XELdrGetIA|
|$LN6@XELdrGetIA|

; 337  : 	}

	b           |$LN2@XELdrGetIA|
|$LN3@XELdrGetIA|
|$LN1@XELdrGetIA|
	ldp         fp,lr,[sp],#0x90
	ret

	ENDP  ; |?XELdrGetIATBoundary@@YAXPEAXPEA_K1@Z|, XELdrGetIATBoundary

; Function compile flags: /Odtp
; File C:\Users\paras\source\repos\grep-name\XenevaOS\XELoader\pe_.cpp

	AREA	|.text$mn|, CODE, ARM64

|?XELdrCreatePEObjects@@YAXPEAX@Z| PROC			; XELdrCreatePEObjects

; 203  : void XELdrCreatePEObjects(void* exec) {

|$LN14|
	stp         fp,lr,[sp,#-0x80]!
	mov         fp,sp
	str         x0,[sp,#0x10]

; 204  : 	PIMAGE_DOS_HEADER dos_header = (PIMAGE_DOS_HEADER)exec;

	ldr         x8,[sp,#0x10]
	str         x8,[sp,#0x50]

; 205  : 	PIMAGE_NT_HEADERS nt_headers = raw_offset<PIMAGE_NT_HEADERS>(dos_header, dos_header->e_lfanew);

	ldr         x8,[sp,#0x50]
	add         x8,x8,#0x3C
	ldrh        w1,[x8]
	mov         w1,w1
	mov         w1,w1
	ldr         x0,[sp,#0x50]
	bl          |??$raw_offset@PEAU_IMAGE_NT_HEADERS_PE32PLUS@@PEAU_IMAGE_DOS_HEADER_@@@@YAPEAU_IMAGE_NT_HEADERS_PE32PLUS@@PEAU_IMAGE_DOS_HEADER_@@H@Z|
	str         x0,[sp,#0x58]

; 206  : 
; 207  : 	if (IMAGE_DATA_DIRECTORY_IMPORT + 1 > nt_headers->OptionalHeader.NumberOfRvaAndSizes)

	ldr         x8,[sp,#0x58]
	add         x8,x8,#0x18
	add         x8,x8,#0x6C
	ldr         w9,[x8]
	mov         w8,#2
	cmp         w8,w9
	bls         |$LN7@XELdrCreat|

; 208  : 		return;

	b           |$LN1@XELdrCreat|
|$LN7@XELdrCreat|

; 209  : 
; 210  : 	IMAGE_DATA_DIRECTORY& datadir = nt_headers->OptionalHeader.DataDirectory[IMAGE_DATA_DIRECTORY_IMPORT];

	ldr         x8,[sp,#0x58]
	add         x8,x8,#0x90
	str         x8,[sp,#0x30]

; 211  : 	if (datadir.VirtualAddress == 0 || datadir.Size == 0) {

	ldr         x8,[sp,#0x30]
	ldr         w8,[x8]
	cmp         w8,#0
	beq         |$LN9@XELdrCreat|
	ldr         x8,[sp,#0x30]
	add         x8,x8,#4
	ldr         w8,[x8]
	cmp         w8,#0
	bne         |$LN8@XELdrCreat|
|$LN9@XELdrCreat|

; 212  : 		return;

	b           |$LN1@XELdrCreat|
|$LN8@XELdrCreat|

; 213  : 	}
; 214  : 	if (_debug_buf){

	adrp        x8,|?_debug_buf@@3DA|
	ldrsb       w8,[x8,PageOffset(|?_debug_buf@@3DA|)]
	mov         w8,w8
	cmp         w8,#0
	beq         |$LN10@XELdrCreat|

; 215  : 		_KePrint("Inside pe import dir %x \r\n", exec);

	ldr         x1,[sp,#0x10]
	adrp        x8,|$SG3740|
	add         x0,x8,PageOffset(|$SG3740|)
	bl          _KePrint
|$LN10@XELdrCreat|

; 216  : 	}
; 217  : 
; 218  : 	PIMAGE_IMPORT_DIRECTORY importdir = raw_offset<PIMAGE_IMPORT_DIRECTORY>(exec, datadir.VirtualAddress);

	ldr         x8,[sp,#0x30]
	ldr         w1,[x8]
	ldr         x0,[sp,#0x10]
	bl          |??$raw_offset@PEAU_IMAGE_IMPORT_DIRECTORY@@PEAX@@YAPEAU_IMAGE_IMPORT_DIRECTORY@@PEAXH@Z|
	str         x0,[sp,#0x48]

; 219  : 	for (size_t n = 0; importdir[n].ThunkTableRva; ++n) {

	mov         x8,#0
	str         x8,[sp,#0x18]
	b           |$LN4@XELdrCreat|
|$LN2@XELdrCreat|
	ldr         x8,[sp,#0x18]
	add         x8,x8,#1
	str         x8,[sp,#0x18]
|$LN4@XELdrCreat|
	ldr         x9,[sp,#0x18]
	mov         x8,#0x14
	mul         x9,x9,x8
	ldr         x8,[sp,#0x48]
	add         x8,x8,x9
	add         x8,x8,#0x10
	ldr         w8,[x8]
	cmp         w8,#0
	beq         |$LN3@XELdrCreat|

; 220  : 		const char* func = raw_offset<const char*>(exec, importdir[n].NameRva);

	ldr         x9,[sp,#0x18]
	mov         x8,#0x14
	mul         x9,x9,x8
	ldr         x8,[sp,#0x48]
	add         x8,x8,x9
	add         x8,x8,#0xC
	ldr         w1,[x8]
	ldr         x0,[sp,#0x10]
	bl          |??$raw_offset@PEBDPEAX@@YAPEBDPEAXH@Z|
	str         x0,[sp,#0x38]

; 221  : 		if (!XELdrCheckObject(func)) {

	ldr         x0,[sp,#0x38]
	bl          |?XELdrCheckObject@@YADPEBD@Z|
	sxtb        w8,w0
	mov         w8,w8
	cmp         w8,#0
	bne         |$LN11@XELdrCreat|

; 222  : 			int flen = strlen(func);

	ldr         x0,[sp,#0x38]
	bl          strlen
	mov         w8,w0
	str         w8,[sp,#0x28]

; 223  : 			char *separator = (char*)malloc(flen + 1);

	ldr         w8,[sp,#0x28]
	add         w0,w8,#1
	mov         w0,w0
	bl          malloc
	str         x0,[sp,#0x40]

; 224  : 			strcpy(separator, "/");

	adrp        x8,|$SG3742|
	add         x1,x8,PageOffset(|$SG3742|)
	ldr         x0,[sp,#0x40]
	bl          strcpy

; 225  : 			char *fname = strcat(separator, func);

	ldr         x1,[sp,#0x38]
	ldr         x0,[sp,#0x40]
	bl          strcat
	str         x0,[sp,#0x60]

; 226  : 			XELoaderObject* obj = XELdrCreateObj(fname);

	ldr         x0,[sp,#0x60]
	bl          |?XELdrCreateObj@@YAPEAU_XELDR_OBJ_@@PEAD@Z|
	str         x0,[sp,#0x78]

; 227  : 			free(separator);

	ldr         x0,[sp,#0x40]
	bl          free
|$LN11@XELdrCreat|

; 228  : 		}
; 229  : 		PIMAGE_IMPORT_LOOKUP_TABLE_PE32P iat = raw_offset<PIMAGE_IMPORT_LOOKUP_TABLE_PE32P>(exec, importdir[n].ThunkTableRva);

	ldr         x9,[sp,#0x18]
	mov         x8,#0x14
	mul         x9,x9,x8
	ldr         x8,[sp,#0x48]
	add         x8,x8,x9
	add         x8,x8,#0x10
	ldr         w1,[x8]
	ldr         x0,[sp,#0x10]
	bl          |??$raw_offset@PEA_KPEAX@@YAPEA_KPEAXH@Z|
	str         x0,[sp,#0x20]
|$LN5@XELdrCreat|

; 230  : 		while (*iat) {

	ldr         x8,[sp,#0x20]
	ldr         x8,[x8]
	cmp         x8,#0
	beq         |$LN6@XELdrCreat|

; 231  : 			PIMAGE_IMPORT_HINT_TABLE hint = raw_offset<PIMAGE_IMPORT_HINT_TABLE>(exec, *iat);

	ldr         x8,[sp,#0x20]
	ldr         x8,[x8]
	mov         w1,w8
	mov         w1,w1
	ldr         x0,[sp,#0x10]
	bl          |??$raw_offset@PEAU_IMAGE_IMPORT_HINT_TABLE@@PEAX@@YAPEAU_IMAGE_IMPORT_HINT_TABLE@@PEAXH@Z|
	str         x0,[sp,#0x68]

; 232  : 			const char* fname = hint->name;

	ldr         x8,[sp,#0x68]
	add         x8,x8,#2
	str         x8,[sp,#0x70]

; 233  : 			if (_debug_buf)

	adrp        x8,|?_debug_buf@@3DA|
	ldrsb       w8,[x8,PageOffset(|?_debug_buf@@3DA|)]
	mov         w8,w8
	cmp         w8,#0
	beq         |$LN12@XELdrCreat|

; 234  : 				_KePrint("iat -> %x %s \r\n", *iat, fname);

	ldr         x2,[sp,#0x70]
	ldr         x8,[sp,#0x20]
	ldr         x1,[x8]
	adrp        x8,|$SG3744|
	add         x0,x8,PageOffset(|$SG3744|)
	bl          _KePrint
|$LN12@XELdrCreat|

; 235  : 			++iat;

	ldr         x8,[sp,#0x20]
	add         x8,x8,#8
	str         x8,[sp,#0x20]

; 236  : 		}

	b           |$LN5@XELdrCreat|
|$LN6@XELdrCreat|

; 237  : 	}

	b           |$LN2@XELdrCreat|
|$LN3@XELdrCreat|
|$LN1@XELdrCreat|
	ldp         fp,lr,[sp],#0x80
	ret

	ENDP  ; |?XELdrCreatePEObjects@@YAXPEAX@Z|, XELdrCreatePEObjects

; Function compile flags: /Odtp
; File C:\Users\paras\source\repos\grep-name\XenevaOS\XELoader\pe_.cpp

	AREA	|.text$mn|, CODE, ARM64

|?XELdrLinkPE@@YAXPEAX@Z| PROC				; XELdrLinkPE

; 168  : void XELdrLinkPE(void* exec) {

|$LN12|
	stp         fp,lr,[sp,#-0x80]!
	mov         fp,sp
	str         x0,[sp,#0x18]

; 169  : 	PIMAGE_DOS_HEADER dos_header = (PIMAGE_DOS_HEADER)exec;

	ldr         x8,[sp,#0x18]
	str         x8,[sp,#0x38]

; 170  : 	PIMAGE_NT_HEADERS nt_headers = raw_offset<PIMAGE_NT_HEADERS>(dos_header, dos_header->e_lfanew);

	ldr         x8,[sp,#0x38]
	add         x8,x8,#0x3C
	ldrh        w1,[x8]
	mov         w1,w1
	mov         w1,w1
	ldr         x0,[sp,#0x38]
	bl          |??$raw_offset@PEAU_IMAGE_NT_HEADERS_PE32PLUS@@PEAU_IMAGE_DOS_HEADER_@@@@YAPEAU_IMAGE_NT_HEADERS_PE32PLUS@@PEAU_IMAGE_DOS_HEADER_@@H@Z|
	str         x0,[sp,#0x40]

; 171  : 	if (IMAGE_DATA_DIRECTORY_IMPORT + 1 > nt_headers->OptionalHeader.NumberOfRvaAndSizes)

	ldr         x8,[sp,#0x40]
	add         x8,x8,#0x18
	add         x8,x8,#0x6C
	ldr         w9,[x8]
	mov         w8,#2
	cmp         w8,w9
	bls         |$LN7@XELdrLinkP|

; 172  : 		return;

	b           |$LN1@XELdrLinkP|
|$LN7@XELdrLinkP|

; 173  : 
; 174  : 	IMAGE_DATA_DIRECTORY& datadir = nt_headers->OptionalHeader.DataDirectory[IMAGE_DATA_DIRECTORY_IMPORT];

	ldr         x8,[sp,#0x40]
	add         x8,x8,#0x90
	str         x8,[sp,#0x28]

; 175  : 	if (datadir.VirtualAddress == 0 || datadir.Size == 0) {

	ldr         x8,[sp,#0x28]
	ldr         w8,[x8]
	cmp         w8,#0
	beq         |$LN9@XELdrLinkP|
	ldr         x8,[sp,#0x28]
	add         x8,x8,#4
	ldr         w8,[x8]
	cmp         w8,#0
	bne         |$LN8@XELdrLinkP|
|$LN9@XELdrLinkP|

; 176  : 		return;

	b           |$LN1@XELdrLinkP|
|$LN8@XELdrLinkP|

; 177  : 	}
; 178  : 
; 179  : 	PIMAGE_IMPORT_DIRECTORY importdir = raw_offset<PIMAGE_IMPORT_DIRECTORY>(exec, datadir.VirtualAddress);

	ldr         x8,[sp,#0x28]
	ldr         w1,[x8]
	ldr         x0,[sp,#0x18]
	bl          |??$raw_offset@PEAU_IMAGE_IMPORT_DIRECTORY@@PEAX@@YAPEAU_IMAGE_IMPORT_DIRECTORY@@PEAXH@Z|
	str         x0,[sp,#0x30]

; 180  : 	for (size_t n = 0; importdir[n].ThunkTableRva; ++n) {

	mov         x8,#0
	str         x8,[sp,#0x10]
	b           |$LN4@XELdrLinkP|
|$LN2@XELdrLinkP|
	ldr         x8,[sp,#0x10]
	add         x8,x8,#1
	str         x8,[sp,#0x10]
|$LN4@XELdrLinkP|
	ldr         x9,[sp,#0x10]
	mov         x8,#0x14
	mul         x9,x9,x8
	ldr         x8,[sp,#0x30]
	add         x8,x8,x9
	add         x8,x8,#0x10
	ldr         w8,[x8]
	cmp         w8,#0
	beq         |$LN3@XELdrLinkP|

; 181  : 		const char* func = raw_offset<const char*>(exec, importdir[n].NameRva);

	ldr         x9,[sp,#0x10]
	mov         x8,#0x14
	mul         x9,x9,x8
	ldr         x8,[sp,#0x30]
	add         x8,x8,x9
	add         x8,x8,#0xC
	ldr         w1,[x8]
	ldr         x0,[sp,#0x18]
	bl          |??$raw_offset@PEBDPEAX@@YAPEBDPEAXH@Z|
	str         x0,[sp,#0x50]

; 182  : 		XELoaderObject* dep_obj = XELdrGetObject(func);

	ldr         x0,[sp,#0x50]
	bl          |?XELdrGetObject@@YAPEAU_XELDR_OBJ_@@PEBD@Z|
	str         x0,[sp,#0x48]

; 183  : 		if (!dep_obj)

	ldr         x8,[sp,#0x48]
	cmp         x8,#0
	bne         |$LN10@XELdrLinkP|

; 184  : 			return;

	b           |$LN1@XELdrLinkP|
|$LN10@XELdrLinkP|

; 185  : 		void* dll_dep = (void*)dep_obj->load_addr;

	ldr         x8,[sp,#0x48]
	add         x8,x8,#0x10
	ldr         x8,[x8]
	str         x8,[sp,#0x68]

; 186  : 		PIMAGE_IMPORT_LOOKUP_TABLE_PE32P iat = raw_offset<PIMAGE_IMPORT_LOOKUP_TABLE_PE32P>(exec, importdir[n].ThunkTableRva);

	ldr         x9,[sp,#0x10]
	mov         x8,#0x14
	mul         x9,x9,x8
	ldr         x8,[sp,#0x30]
	add         x8,x8,x9
	add         x8,x8,#0x10
	ldr         w1,[x8]
	ldr         x0,[sp,#0x18]
	bl          |??$raw_offset@PEA_KPEAX@@YAPEA_KPEAXH@Z|
	str         x0,[sp,#0x20]
|$LN5@XELdrLinkP|

; 187  : 		while (*iat) {

	ldr         x8,[sp,#0x20]
	ldr         x8,[x8]
	cmp         x8,#0
	beq         |$LN6@XELdrLinkP|

; 188  : 			PIMAGE_IMPORT_HINT_TABLE hint = raw_offset<PIMAGE_IMPORT_HINT_TABLE>(exec, *iat);

	ldr         x8,[sp,#0x20]
	ldr         x8,[x8]
	mov         w1,w8
	mov         w1,w1
	ldr         x0,[sp,#0x18]
	bl          |??$raw_offset@PEAU_IMAGE_IMPORT_HINT_TABLE@@PEAX@@YAPEAU_IMAGE_IMPORT_HINT_TABLE@@PEAXH@Z|
	str         x0,[sp,#0x58]

; 189  : 			const char* fname = hint->name;

	ldr         x8,[sp,#0x58]
	add         x8,x8,#2
	str         x8,[sp,#0x60]

; 190  : 			void* procaddr = XELdrGetProcAddress((void*)dll_dep, fname);

	ldr         x1,[sp,#0x60]
	ldr         x0,[sp,#0x68]
	bl          |?XELdrGetProcAddress@@YAPEAXPEAXPEBD@Z|
	str         x0,[sp,#0x70]

; 191  : 			*iat = (uint64_t)procaddr;

	ldr         x9,[sp,#0x20]
	ldr         x8,[sp,#0x70]
	str         x8,[x9]

; 192  : 			++iat;

	ldr         x8,[sp,#0x20]
	add         x8,x8,#8
	str         x8,[sp,#0x20]

; 193  : 		}

	b           |$LN5@XELdrLinkP|
|$LN6@XELdrLinkP|

; 194  : 	}

	b           |$LN2@XELdrLinkP|
|$LN3@XELdrLinkP|
|$LN1@XELdrLinkP|
	ldp         fp,lr,[sp],#0x80
	ret

	ENDP  ; |?XELdrLinkPE@@YAXPEAX@Z|, XELdrLinkPE

; Function compile flags: /Odtp
; File C:\Users\paras\source\repos\grep-name\XenevaOS\XELoader\pe_.cpp

	AREA	|.text$mn|, CODE, ARM64

|?XELdrRelocatePE@@YAXPEAXPEAU_IMAGE_NT_HEADERS_PE32PLUS@@_K@Z| PROC ; XELdrRelocatePE

; 79   : void XELdrRelocatePE(void* image, PIMAGE_NT_HEADERS nt, uint64_t diff) {

|$LN35|
	stp         fp,lr,[sp,#-0x70]!
	mov         fp,sp
	str         x0,[sp,#0x68]
	str         x1,[sp,#0x50]
	str         x2,[sp,#0x38]

; 80   : 	if (!diff)

	ldr         x8,[sp,#0x38]
	cmp         x8,#0
	bne         |$LN9@XELdrReloc|

; 81   : 		return;

	b           |$LN1@XELdrReloc|
|$LN9@XELdrReloc|

; 82   : 	if ((nt->OptionalHeader.DllCharacteristics & IMAGE_DLL_CHARACTERISTICS_DYNAMIC_BASE) == 0)

	ldr         x8,[sp,#0x50]
	add         x8,x8,#0x18
	add         x8,x8,#0x46
	ldrh        w8,[x8]
	mov         w8,w8
	tbnz        x8,#6,|$LN10@XELdrReloc|

; 83   : 		return;

	b           |$LN1@XELdrReloc|
|$LN10@XELdrReloc|

; 84   : 	if (IMAGE_DATA_DIRECTORY_RELOC + 1 > nt->OptionalHeader.NumberOfRvaAndSizes)

	ldr         x8,[sp,#0x50]
	add         x8,x8,#0x18
	add         x8,x8,#0x6C
	ldr         w9,[x8]
	mov         w8,#6
	cmp         w8,w9
	bls         |$LN11@XELdrReloc|

; 85   : 		return;

	b           |$LN1@XELdrReloc|
|$LN11@XELdrReloc|

; 86   : 	IMAGE_DATA_DIRECTORY& data_dir = nt->OptionalHeader.DataDirectory[IMAGE_DATA_DIRECTORY_RELOC];

	ldr         x8,[sp,#0x50]
	add         x8,x8,#0xB0
	str         x8,[sp,#0x40]

; 87   : 	if (data_dir.VirtualAddress == 0 || data_dir.Size == 0)

	ldr         x8,[sp,#0x40]
	ldr         w8,[x8]
	cmp         w8,#0
	beq         |$LN13@XELdrReloc|
	ldr         x8,[sp,#0x40]
	add         x8,x8,#4
	ldr         w8,[x8]
	cmp         w8,#0
	bne         |$LN12@XELdrReloc|
|$LN13@XELdrReloc|

; 88   : 		return;

	b           |$LN1@XELdrReloc|
|$LN12@XELdrReloc|

; 89   : 	PIMAGE_RELOCATION_BLOCK reloc_table = raw_offset<PIMAGE_RELOCATION_BLOCK>(image, data_dir.VirtualAddress);

	ldr         x8,[sp,#0x40]
	ldr         w1,[x8]
	ldr         x0,[sp,#0x68]
	bl          |??$raw_offset@PEAU_IMAGE_RELOCATION_BLOCK_@@PEAX@@YAPEAU_IMAGE_RELOCATION_BLOCK_@@PEAXH@Z|
	str         x0,[sp,#0x58]

; 90   : 	PIMAGE_RELOCATION_BLOCK cur_block = reloc_table;

	ldr         x8,[sp,#0x58]
	str         x8,[sp,#0x28]
|$LN2@XELdrReloc|

; 91   : 	while (raw_diff(cur_block, reloc_table) < data_dir.Size) {

	ldr         x1,[sp,#0x58]
	ldr         x0,[sp,#0x28]
	bl          |??$raw_diff@U_IMAGE_RELOCATION_BLOCK_@@U1@@@YAHPEAU_IMAGE_RELOCATION_BLOCK_@@0@Z|
	mov         w0,w0
	ldr         x8,[sp,#0x40]
	add         x8,x8,#4
	ldr         w8,[x8]
	cmp         w0,w8
	bhs         |$LN3@XELdrReloc|

; 92   : 		uint32_t entries = (cur_block->BlockSize - 8) / 2;

	ldr         x8,[sp,#0x28]
	add         x8,x8,#4
	ldr         w8,[x8]
	sub         w9,w8,#8
	mov         w8,#2
	udiv        w8,w9,w8
	str         w8,[sp,#0x48]

; 93   : 		for (uint32_t i = 0; i < entries; ++i) {

	mov         w8,#0
	str         w8,[sp,#0x10]
	b           |$LN6@XELdrReloc|
|$LN4@XELdrReloc|
	ldr         w8,[sp,#0x10]
	add         w8,w8,#1
	str         w8,[sp,#0x10]
|$LN6@XELdrReloc|
	ldr         w9,[sp,#0x48]
	ldr         w8,[sp,#0x10]
	cmp         w8,w9
	bhs         |$LN5@XELdrReloc|

; 94   : 			auto& entry = cur_block->entries[i];

	ldr         x8,[sp,#0x28]
	add         x10,x8,#8
	ldr         w8,[sp,#0x10]
	uxtw        x9,w8
	mov         x8,#2
	mul         x8,x9,x8
	add         x8,x10,x8
	str         x8,[sp,#0x60]

; 95   : 			uint16_t type = entry.type;

	ldr         x8,[sp,#0x60]
	ldrh        w8,[x8]
	ubfx        w8,w8,#0xC,#4
	strh        w8,[sp,#0x20]

; 96   : 			void* relocitem = raw_offset<void*>(image, entry.offset + cur_block->PageRVA);

	ldr         x8,[sp,#0x60]
	ldrh        w8,[x8]
	and         w8,w8,#0xFFF
	uxth        w9,w8
	mov         w9,w9
	ldr         x8,[sp,#0x28]
	ldr         w8,[x8]
	add         w1,w9,w8
	mov         w1,w1
	ldr         x0,[sp,#0x68]
	bl          |??$raw_offset@PEAXPEAX@@YAPEAXPEAXH@Z|
	str         x0,[sp,#0x18]

; 97   : 			switch (type){

	ldrh        w8,[sp,#0x20]
	mov         w8,w8
	str         w8,[sp,#0x30]
	ldr         w8,[sp,#0x30]
	cmp         w8,#0xA
	bhi         |$LN20@XELdrReloc|
	ldr         w10,[sp,#0x30]
	adr         x9,__swt
	ldrsb       x8,[x9,w10 uxtw #0]
	add         x8,x9,x8,lsl #2
	br          x8
|$LN14@XELdrReloc|

; 98   : 			case IMAGE_REL_BASED_ABSOLUTE:
; 99   : 				break;

	b           |$LN7@XELdrReloc|
|$LN15@XELdrReloc|

; 100  : 			case IMAGE_REL_BASED_HIGH:
; 101  : 				*reinterpret_cast<uint16_t*>(relocitem) += (diff >> 16) & UINT16_MAX;

	ldr         x8,[sp,#0x38]
	ubfx        x9,x8,#0x10,#0x10
	ldr         x8,[sp,#0x18]
	ldrh        w8,[x8]
	mov         w8,w8
	sxtw        x8,w8
	add         x8,x8,x9
	uxth        w9,w8
	ldr         x8,[sp,#0x18]
	strh        w9,[x8]

; 102  : 				break;

	b           |$LN7@XELdrReloc|
|$LN16@XELdrReloc|

; 103  : 			case IMAGE_REL_BASED_LOW:
; 104  : 				*reinterpret_cast<uint16_t*>(relocitem) += (diff & UINT16_MAX);

	ldr         x8,[sp,#0x38]
	and         x9,x8,#0xFFFF
	ldr         x8,[sp,#0x18]
	ldrh        w8,[x8]
	mov         w8,w8
	sxtw        x8,w8
	add         x8,x8,x9
	uxth        w9,w8
	ldr         x8,[sp,#0x18]
	strh        w9,[x8]

; 105  : 				break;

	b           |$LN7@XELdrReloc|
|$LN17@XELdrReloc|

; 106  : 			case IMAGE_REL_BASED_HIGHLOW:
; 107  : 				*reinterpret_cast<uint32_t*>(relocitem) += (diff & UINT32_MAX);

	ldr         x8,[sp,#0x38]
	and         x9,x8,#0xFFFFFFFF
	ldr         x8,[sp,#0x18]
	ldr         w8,[x8]
	uxtw        x8,w8
	add         x8,x8,x9
	mov         w9,w8
	ldr         x8,[sp,#0x18]
	str         w9,[x8]

; 108  : 				break;

	b           |$LN7@XELdrReloc|

; 109  : 			case IMAGE_REL_BASED_HIGHADJ:
; 110  : 				return;

	b           |$LN1@XELdrReloc|

; 111  : 				break;

	b           |$LN7@XELdrReloc|
|$LN19@XELdrReloc|

; 112  : 			case IMAGE_REL_BASED_DIR64:
; 113  : 				*reinterpret_cast<uint64_t*>(relocitem) += diff; // &UINT32_MAX);

	ldr         x8,[sp,#0x18]
	ldr         x9,[x8]
	ldr         x8,[sp,#0x38]
	add         x9,x9,x8
	ldr         x8,[sp,#0x18]
	str         x9,[x8]

; 114  : 				//_KePrint("Relocating executable dir64 %x, diff : %x \r\n", *reinterpret_cast<uint64_t*>(relocitem), diff);
; 115  : 				break;

	b           |$LN7@XELdrReloc|
|$LN20@XELdrReloc|

; 116  : 			default:
; 117  : 				return;

	b           |$LN1@XELdrReloc|
|$LN7@XELdrReloc|

; 118  : 				break;
; 119  : 			}
; 120  : 		
; 121  : 		}

	b           |$LN4@XELdrReloc|
|$LN5@XELdrReloc|

; 122  : 
; 123  : 		uint32_t next_off = DIV_ROUND_UP(cur_block->BlockSize, 4) * 4;

	ldr         x8,[sp,#0x28]
	add         x8,x8,#4
	ldr         w8,[x8]
	add         w8,w8,#4
	sub         w9,w8,#1
	mov         w8,#4
	udiv        w9,w9,w8
	mov         w8,#4
	mul         w8,w9,w8
	str         w8,[sp,#0x4C]

; 124  : 		cur_block = raw_offset<PIMAGE_RELOCATION_BLOCK>(cur_block, next_off);

	ldr         w1,[sp,#0x4C]
	ldr         x0,[sp,#0x28]
	bl          |??$raw_offset@PEAU_IMAGE_RELOCATION_BLOCK_@@PEAU1@@@YAPEAU_IMAGE_RELOCATION_BLOCK_@@PEAU0@H@Z|
	str         x0,[sp,#0x28]

; 125  : 	}

	b           |$LN2@XELdrReloc|
|$LN3@XELdrReloc|
|$LN1@XELdrReloc|
	ldp         fp,lr,[sp],#0x70
	ret
|__swt|
|$LN23@XELdrReloc|

; 97   : 			switch (type){

	DCB         0xc3
|$LN24@XELdrReloc|
	DCB         0xc4
|$LN25@XELdrReloc|
	DCB         0xcf
|$LN26@XELdrReloc|
	DCB         0xda
|$LN27@XELdrReloc|
	DCB         0xed
|$LN28@XELdrReloc|
	DCB         0xed
|$LN29@XELdrReloc|
	DCB         0xed
|$LN30@XELdrReloc|
	DCB         0xed
|$LN31@XELdrReloc|
	DCB         0xed
|$LN32@XELdrReloc|
	DCB         0xed
|$LN33@XELdrReloc|
	DCB         0xe6
|$LN34@XELdrReloc|
	DCB         0xe6

	ENDP  ; |?XELdrRelocatePE@@YAXPEAXPEAU_IMAGE_NT_HEADERS_PE32PLUS@@_K@Z|, XELdrRelocatePE

	END
