; Listing generated by Microsoft (R) Optimizing Compiler Version 19.29.30159.0 

	TTL	C:\Users\paras\source\repos\grep-name\XenevaOS\XELoader\ARM64\Debug\XELdrObject.obj
	ARM64

	AREA	|.drectve|, DRECTVE


	AREA	|.bss|, NOINIT
|?obj_first@@3PEAU_XELDR_OBJ_@@EA| % 0x8		; obj_first
|?obj_last@@3PEAU_XELDR_OBJ_@@EA| % 0x8			; obj_last

	AREA	|.rdata|, DATA, READONLY
|$SG3619| DCB	"Object -> %s load_addr -> %x ", 0xd, 0xa, 0x0
	EXPORT	|?XELdrInitObjectList@@YAXXZ|		; XELdrInitObjectList
	EXPORT	|?XELdrCreateObj@@YAPEAU_XELDR_OBJ_@@PEAD@Z| ; XELdrCreateObj
	EXPORT	|?XELdrDestroyObject@@YAXPEAU_XELDR_OBJ_@@@Z| ; XELdrDestroyObject
	EXPORT	|?XELdrCheckObject@@YADPEBD@Z|		; XELdrCheckObject
	EXPORT	|?XELdrLoadAllObject@@YAXXZ|		; XELdrLoadAllObject
	EXPORT	|?XELdrLinkAllObject@@YAXPEAU_XELDR_OBJ_@@@Z| ; XELdrLinkAllObject
	EXPORT	|?XELdrGetObject@@YAPEAU_XELDR_OBJ_@@PEBD@Z| ; XELdrGetObject
	EXPORT	|?XELdrLinkDepObject@@YAXPEAU_XELDR_OBJ_@@@Z| ; XELdrLinkDepObject
	EXPORT	|?XELdrPrintAllObject@@YAXXZ|		; XELdrPrintAllObject
	EXPORT	|?XELdrClearObjectList@@YAXXZ|		; XELdrClearObjectList
	EXPORT	|?XELoaderAddObject@@YAXPEAU_XELDR_OBJ_@@@Z| ; XELoaderAddObject
	EXPORT	|?XELdrRemoveObject@@YAXPEAU_XELDR_OBJ_@@@Z| ; XELdrRemoveObject
	IMPORT	|?XELdrLoadObject@@YAHPEAU_XELDR_OBJ_@@@Z| ; XELdrLoadObject
	IMPORT	|_KePrint|
	IMPORT	|malloc|
	IMPORT	|free|
	IMPORT	|?XELdrLinkPE@@YAXPEAX@Z|		; XELdrLinkPE
	IMPORT	|?XELdrLinkDependencyPE@@YAXPEAU_XELDR_OBJ_@@@Z| ; XELdrLinkDependencyPE
	IMPORT	|strcmp|
	IMPORT	|strcpy|
	IMPORT	|strlen|
	IMPORT	|strchr|
	IMPORT	|memset|

	AREA	|.pdata|, PDATA
|$pdata$?XELdrCreateObj@@YAPEAU_XELDR_OBJ_@@PEAD@Z| DCD imagerel |$LN3|
	DCD	0x160009d
	;Flags[SingleProEpi] functionLength[156] RegF[0] RegI[0] H[0] frameChainReturn[Chained] frameSize[32]
|$pdata$?XELdrDestroyObject@@YAXPEAU_XELDR_OBJ_@@@Z| DCD imagerel |$LN3|
	DCD	0x1600031
	;Flags[SingleProEpi] functionLength[48] RegF[0] RegI[0] H[0] frameChainReturn[Chained] frameSize[32]
|$pdata$?XELdrCheckObject@@YADPEBD@Z| DCD imagerel |$LN9|
	DCD	0x1e000ad
	;Flags[SingleProEpi] functionLength[172] RegF[0] RegI[0] H[0] frameChainReturn[Chained] frameSize[48]
|$pdata$?XELdrLoadAllObject@@YAXXZ| DCD imagerel |$LN7|
	DCD	0x1600069
	;Flags[SingleProEpi] functionLength[104] RegF[0] RegI[0] H[0] frameChainReturn[Chained] frameSize[32]
|$pdata$?XELdrLinkAllObject@@YAXPEAU_XELDR_OBJ_@@@Z| DCD imagerel |$LN3|
	DCD	0x1600025
	;Flags[SingleProEpi] functionLength[36] RegF[0] RegI[0] H[0] frameChainReturn[Chained] frameSize[32]
|$pdata$?XELdrGetObject@@YAPEAU_XELDR_OBJ_@@PEBD@Z| DCD imagerel |$LN8|
	DCD	0x1e0009d
	;Flags[SingleProEpi] functionLength[156] RegF[0] RegI[0] H[0] frameChainReturn[Chained] frameSize[48]
|$pdata$?XELdrLinkDepObject@@YAXPEAU_XELDR_OBJ_@@@Z| DCD imagerel |$LN7|
	DCD	0x1600069
	;Flags[SingleProEpi] functionLength[104] RegF[0] RegI[0] H[0] frameChainReturn[Chained] frameSize[32]
|$pdata$?XELdrPrintAllObject@@YAXXZ| DCD imagerel |$LN6|
	DCD	0x1600061
	;Flags[SingleProEpi] functionLength[96] RegF[0] RegI[0] H[0] frameChainReturn[Chained] frameSize[32]
|$pdata$?XELdrClearObjectList@@YAXXZ| DCD imagerel |$LN5|
	DCD	0x1600059
	;Flags[SingleProEpi] functionLength[88] RegF[0] RegI[0] H[0] frameChainReturn[Chained] frameSize[32]
|$pdata$?XELoaderAddObject@@YAXPEAU_XELDR_OBJ_@@@Z| DCD imagerel |$LN5|
	DCD	0x800091
	;Flags[SingleProEpi] functionLength[144] RegF[0] RegI[0] H[0] frameChainReturn[UnChained] frameSize[16]
|$pdata$?XELdrRemoveObject@@YAXPEAU_XELDR_OBJ_@@@Z| DCD imagerel |$LN8|
	DCD	0x8000c1
	;Flags[SingleProEpi] functionLength[192] RegF[0] RegI[0] H[0] frameChainReturn[UnChained] frameSize[16]
; Function compile flags: /Odtp
; File C:\Users\paras\source\repos\grep-name\XenevaOS\XELoader\XELdrObject.cpp

	AREA	|.text$mn|, CODE, ARM64

|?XELdrRemoveObject@@YAXPEAU_XELDR_OBJ_@@@Z| PROC	; XELdrRemoveObject

; 58   : void XELdrRemoveObject(XELoaderObject* obj) {

|$LN8|
	sub         sp,sp,#0x10
	str         x0,[sp]

; 59   : 	if (obj_first == NULL)

	adrp        x8,|?obj_first@@3PEAU_XELDR_OBJ_@@EA|
	ldr         x8,[x8,PageOffset(|?obj_first@@3PEAU_XELDR_OBJ_@@EA|)]
	cmp         x8,#0
	bne         |$LN2@XELdrRemov|

; 60   : 		return;

	b           |$LN1@XELdrRemov|
|$LN2@XELdrRemov|

; 61   : 
; 62   : 	if (obj == obj_first) {

	adrp        x8,|?obj_first@@3PEAU_XELDR_OBJ_@@EA|
	ldr         x9,[x8,PageOffset(|?obj_first@@3PEAU_XELDR_OBJ_@@EA|)]
	ldr         x8,[sp]
	cmp         x8,x9
	bne         |$LN3@XELdrRemov|

; 63   : 		obj_first = obj_first->next;

	adrp        x8,|?obj_first@@3PEAU_XELDR_OBJ_@@EA|
	ldr         x8,[x8,PageOffset(|?obj_first@@3PEAU_XELDR_OBJ_@@EA|)]
	add         x8,x8,#0x20
	adrp        x9,|?obj_first@@3PEAU_XELDR_OBJ_@@EA|
	ldr         x8,[x8]
	str         x8,[x9,PageOffset(|?obj_first@@3PEAU_XELDR_OBJ_@@EA|)]

; 64   : 	}

	b           |$LN4@XELdrRemov|
|$LN3@XELdrRemov|

; 65   : 	else {
; 66   : 		obj->prev->next = obj->next;

	ldr         x8,[sp]
	add         x10,x8,#0x20
	ldr         x8,[sp]
	add         x8,x8,#0x28
	ldr         x8,[x8]
	add         x9,x8,#0x20
	ldr         x8,[x10]
	str         x8,[x9]
|$LN4@XELdrRemov|

; 67   : 	}
; 68   : 
; 69   : 	if (obj == obj_last) {

	adrp        x8,|?obj_last@@3PEAU_XELDR_OBJ_@@EA|
	ldr         x9,[x8,PageOffset(|?obj_last@@3PEAU_XELDR_OBJ_@@EA|)]
	ldr         x8,[sp]
	cmp         x8,x9
	bne         |$LN5@XELdrRemov|

; 70   : 		obj_last = obj->prev;

	ldr         x8,[sp]
	add         x8,x8,#0x28
	adrp        x9,|?obj_last@@3PEAU_XELDR_OBJ_@@EA|
	ldr         x8,[x8]
	str         x8,[x9,PageOffset(|?obj_last@@3PEAU_XELDR_OBJ_@@EA|)]

; 71   : 	}

	b           |$LN6@XELdrRemov|
|$LN5@XELdrRemov|

; 72   : 	else {
; 73   : 		obj->next->prev = obj->prev;

	ldr         x8,[sp]
	add         x10,x8,#0x28
	ldr         x8,[sp]
	add         x8,x8,#0x20
	ldr         x8,[x8]
	add         x9,x8,#0x28
	ldr         x8,[x10]
	str         x8,[x9]
|$LN6@XELdrRemov|
|$LN1@XELdrRemov|
	add         sp,sp,#0x10
	ret

	ENDP  ; |?XELdrRemoveObject@@YAXPEAU_XELDR_OBJ_@@@Z|, XELdrRemoveObject

; Function compile flags: /Odtp
; File C:\Users\paras\source\repos\grep-name\XenevaOS\XELoader\XELdrObject.cpp

	AREA	|.text$mn|, CODE, ARM64

|?XELoaderAddObject@@YAXPEAU_XELDR_OBJ_@@@Z| PROC	; XELoaderAddObject

; 39   : void XELoaderAddObject(XELoaderObject* obj) {

|$LN5|
	sub         sp,sp,#0x10
	str         x0,[sp]

; 40   : 	obj->next = NULL;

	ldr         x8,[sp]
	add         x9,x8,#0x20
	mov         x8,#0
	str         x8,[x9]

; 41   : 	obj->prev = NULL;

	ldr         x8,[sp]
	add         x9,x8,#0x28
	mov         x8,#0
	str         x8,[x9]

; 42   : 
; 43   : 	if (obj_first == NULL) {

	adrp        x8,|?obj_first@@3PEAU_XELDR_OBJ_@@EA|
	ldr         x8,[x8,PageOffset(|?obj_first@@3PEAU_XELDR_OBJ_@@EA|)]
	cmp         x8,#0
	bne         |$LN2@XELoaderAd|

; 44   : 		obj_last = obj;

	adrp        x9,|?obj_last@@3PEAU_XELDR_OBJ_@@EA|
	ldr         x8,[sp]
	str         x8,[x9,PageOffset(|?obj_last@@3PEAU_XELDR_OBJ_@@EA|)]

; 45   : 		obj_first = obj;

	adrp        x9,|?obj_first@@3PEAU_XELDR_OBJ_@@EA|
	ldr         x8,[sp]
	str         x8,[x9,PageOffset(|?obj_first@@3PEAU_XELDR_OBJ_@@EA|)]

; 46   : 	}

	b           |$LN3@XELoaderAd|
|$LN2@XELoaderAd|

; 47   : 	else {
; 48   : 		obj_last->next = obj;

	adrp        x8,|?obj_last@@3PEAU_XELDR_OBJ_@@EA|
	ldr         x8,[x8,PageOffset(|?obj_last@@3PEAU_XELDR_OBJ_@@EA|)]
	add         x9,x8,#0x20
	ldr         x8,[sp]
	str         x8,[x9]

; 49   : 		obj->prev = obj_last;

	ldr         x8,[sp]
	add         x9,x8,#0x28
	adrp        x8,|?obj_last@@3PEAU_XELDR_OBJ_@@EA|
	ldr         x8,[x8,PageOffset(|?obj_last@@3PEAU_XELDR_OBJ_@@EA|)]
	str         x8,[x9]
|$LN3@XELoaderAd|

; 50   : 	}
; 51   : 	obj_last = obj;

	adrp        x9,|?obj_last@@3PEAU_XELDR_OBJ_@@EA|
	ldr         x8,[sp]
	str         x8,[x9,PageOffset(|?obj_last@@3PEAU_XELDR_OBJ_@@EA|)]
	add         sp,sp,#0x10
	ret

	ENDP  ; |?XELoaderAddObject@@YAXPEAU_XELDR_OBJ_@@@Z|, XELoaderAddObject

; Function compile flags: /Odtp
; File C:\Users\paras\source\repos\grep-name\XenevaOS\XELoader\XELdrObject.cpp

	AREA	|.text$mn|, CODE, ARM64

|?XELdrClearObjectList@@YAXXZ| PROC			; XELdrClearObjectList

; 190  : void XELdrClearObjectList() {

|$LN5|
	stp         fp,lr,[sp,#-0x20]!
	mov         fp,sp

; 191  : 	XELoaderObject* obj_ = obj_first;

	adrp        x8,|?obj_first@@3PEAU_XELDR_OBJ_@@EA|
	ldr         x8,[x8,PageOffset(|?obj_first@@3PEAU_XELDR_OBJ_@@EA|)]
	str         x8,[sp,#0x10]
|$LN2@XELdrClear|

; 192  : 	while (obj_) {

	ldr         x8,[sp,#0x10]
	cmp         x8,#0
	beq         |$LN3@XELdrClear|

; 193  : 		XELoaderObject *temp = obj_->next;

	ldr         x8,[sp,#0x10]
	add         x8,x8,#0x20
	ldr         x8,[x8]
	str         x8,[sp,#0x18]

; 194  : 		free(obj_->objname);

	ldr         x8,[sp,#0x10]
	ldr         x0,[x8]
	bl          free

; 195  : 		free(obj_);

	ldr         x0,[sp,#0x10]
	bl          free

; 196  : 		obj_ = temp;

	ldr         x8,[sp,#0x18]
	str         x8,[sp,#0x10]

; 197  : 	}

	b           |$LN2@XELdrClear|
|$LN3@XELdrClear|
	ldp         fp,lr,[sp],#0x20
	ret

	ENDP  ; |?XELdrClearObjectList@@YAXXZ|, XELdrClearObjectList

; Function compile flags: /Odtp
; File C:\Users\paras\source\repos\grep-name\XenevaOS\XELoader\XELdrObject.cpp

	AREA	|.text$mn|, CODE, ARM64

|?XELdrPrintAllObject@@YAXXZ| PROC			; XELdrPrintAllObject

; 182  : void XELdrPrintAllObject() {

|$LN6|
	stp         fp,lr,[sp,#-0x20]!
	mov         fp,sp

; 183  : 	for (XELoaderObject *obj_ = obj_first; obj_ != NULL; obj_ = obj_->next) 

	adrp        x8,|?obj_first@@3PEAU_XELDR_OBJ_@@EA|
	ldr         x8,[x8,PageOffset(|?obj_first@@3PEAU_XELDR_OBJ_@@EA|)]
	str         x8,[sp,#0x10]
	b           |$LN4@XELdrPrint|
|$LN2@XELdrPrint|
	ldr         x8,[sp,#0x10]
	add         x8,x8,#0x20
	ldr         x8,[x8]
	str         x8,[sp,#0x10]
|$LN4@XELdrPrint|
	ldr         x8,[sp,#0x10]
	cmp         x8,#0
	beq         |$LN3@XELdrPrint|

; 184  : 		_KePrint("Object -> %s load_addr -> %x \r\n", obj_->objname, obj_->load_addr);

	ldr         x8,[sp,#0x10]
	add         x9,x8,#0x10
	ldr         x8,[sp,#0x10]
	ldr         x2,[x9]
	ldr         x1,[x8]
	adrp        x8,|$SG3619|
	add         x0,x8,PageOffset(|$SG3619|)
	bl          _KePrint
	b           |$LN2@XELdrPrint|
|$LN3@XELdrPrint|
	ldp         fp,lr,[sp],#0x20
	ret

	ENDP  ; |?XELdrPrintAllObject@@YAXXZ|, XELdrPrintAllObject

; Function compile flags: /Odtp
; File C:\Users\paras\source\repos\grep-name\XenevaOS\XELoader\XELdrObject.cpp

	AREA	|.text$mn|, CODE, ARM64

|?XELdrLinkDepObject@@YAXPEAU_XELDR_OBJ_@@@Z| PROC	; XELdrLinkDepObject

; 173  : void XELdrLinkDepObject(XELoaderObject *mainobj) {

|$LN7|
	stp         fp,lr,[sp,#-0x20]!
	mov         fp,sp
	str         x0,[sp,#0x18]

; 174  : 	XELoaderObject* obj_ = NULL;

	mov         x8,#0
	str         x8,[sp,#0x10]

; 175  : 	for (obj_ = obj_first; obj_ != NULL; obj_ = obj_->next) {

	adrp        x8,|?obj_first@@3PEAU_XELDR_OBJ_@@EA|
	ldr         x8,[x8,PageOffset(|?obj_first@@3PEAU_XELDR_OBJ_@@EA|)]
	str         x8,[sp,#0x10]
	b           |$LN4@XELdrLinkD|
|$LN2@XELdrLinkD|
	ldr         x8,[sp,#0x10]
	add         x8,x8,#0x20
	ldr         x8,[x8]
	str         x8,[sp,#0x10]
|$LN4@XELdrLinkD|
	ldr         x8,[sp,#0x10]
	cmp         x8,#0
	beq         |$LN3@XELdrLinkD|

; 176  : 		if (obj_ == mainobj)

	ldr         x9,[sp,#0x18]
	ldr         x8,[sp,#0x10]
	cmp         x8,x9
	bne         |$LN5@XELdrLinkD|

; 177  : 			continue;

	b           |$LN2@XELdrLinkD|
|$LN5@XELdrLinkD|

; 178  : 		XELdrLinkDependencyPE(obj_);

	ldr         x0,[sp,#0x10]
	bl          |?XELdrLinkDependencyPE@@YAXPEAU_XELDR_OBJ_@@@Z|

; 179  : 	}

	b           |$LN2@XELdrLinkD|
|$LN3@XELdrLinkD|
	ldp         fp,lr,[sp],#0x20
	ret

	ENDP  ; |?XELdrLinkDepObject@@YAXPEAU_XELDR_OBJ_@@@Z|, XELdrLinkDepObject

; Function compile flags: /Odtp
; File C:\Users\paras\source\repos\grep-name\XenevaOS\XELoader\XELdrObject.cpp

	AREA	|.text$mn|, CODE, ARM64

|?XELdrGetObject@@YAPEAU_XELDR_OBJ_@@PEBD@Z| PROC	; XELdrGetObject

; 136  : XELoaderObject* XELdrGetObject(const char* name) {

|$LN8|
	stp         fp,lr,[sp,#-0x30]!
	mov         fp,sp
	str         x0,[sp,#0x20]

; 137  : 	XELoaderObject* obj_ = NULL;

	mov         x8,#0
	str         x8,[sp,#0x10]

; 138  : 	for (obj_ = obj_first; obj_ != NULL; obj_ = obj_->next) {

	adrp        x8,|?obj_first@@3PEAU_XELDR_OBJ_@@EA|
	ldr         x8,[x8,PageOffset(|?obj_first@@3PEAU_XELDR_OBJ_@@EA|)]
	str         x8,[sp,#0x10]
	b           |$LN4@XELdrGetOb|
|$LN2@XELdrGetOb|
	ldr         x8,[sp,#0x10]
	add         x8,x8,#0x20
	ldr         x8,[x8]
	str         x8,[sp,#0x10]
|$LN4@XELdrGetOb|
	ldr         x8,[sp,#0x10]
	cmp         x8,#0
	beq         |$LN3@XELdrGetOb|

; 139  : 		char* p = strchr(obj_->objname, '/');

	ldr         x8,[sp,#0x10]
	mov         w1,#0x2F
	ldr         x0,[x8]
	bl          strchr
	str         x0,[sp,#0x18]

; 140  : 		if (p)

	ldr         x8,[sp,#0x18]
	cmp         x8,#0
	beq         |$LN5@XELdrGetOb|

; 141  : 			p++;

	ldr         x8,[sp,#0x18]
	add         x8,x8,#1
	str         x8,[sp,#0x18]
|$LN5@XELdrGetOb|

; 142  : 		if (strcmp(p, name) == 0)

	ldr         x1,[sp,#0x20]
	ldr         x0,[sp,#0x18]
	bl          strcmp
	mov         w0,w0
	cmp         w0,#0
	bne         |$LN6@XELdrGetOb|

; 143  : 			return obj_;

	ldr         x0,[sp,#0x10]
	b           |$LN1@XELdrGetOb|
|$LN6@XELdrGetOb|

; 144  : 	}

	b           |$LN2@XELdrGetOb|
|$LN3@XELdrGetOb|

; 145  : 	return NULL;

	mov         x0,#0
|$LN1@XELdrGetOb|
	ldp         fp,lr,[sp],#0x30
	ret

	ENDP  ; |?XELdrGetObject@@YAPEAU_XELDR_OBJ_@@PEBD@Z|, XELdrGetObject

; Function compile flags: /Odtp
; File C:\Users\paras\source\repos\grep-name\XenevaOS\XELoader\XELdrObject.cpp

	AREA	|.text$mn|, CODE, ARM64

|?XELdrLinkAllObject@@YAXPEAU_XELDR_OBJ_@@@Z| PROC	; XELdrLinkAllObject

; 164  : void XELdrLinkAllObject(XELoaderObject *mainobj) {

|$LN3|
	stp         fp,lr,[sp,#-0x20]!
	mov         fp,sp
	str         x0,[sp,#0x10]

; 165  : 	XELdrLinkPE((void*)mainobj->load_addr);

	ldr         x8,[sp,#0x10]
	add         x8,x8,#0x10
	ldr         x0,[x8]
	bl          |?XELdrLinkPE@@YAXPEAX@Z|
	ldp         fp,lr,[sp],#0x20
	ret

	ENDP  ; |?XELdrLinkAllObject@@YAXPEAU_XELDR_OBJ_@@@Z|, XELdrLinkAllObject

; Function compile flags: /Odtp
; File C:\Users\paras\source\repos\grep-name\XenevaOS\XELoader\XELdrObject.cpp

	AREA	|.text$mn|, CODE, ARM64

|?XELdrLoadAllObject@@YAXXZ| PROC			; XELdrLoadAllObject

; 152  : void XELdrLoadAllObject() {

|$LN7|
	stp         fp,lr,[sp,#-0x20]!
	mov         fp,sp

; 153  : 	XELoaderObject* obj_ = NULL;

	mov         x8,#0
	str         x8,[sp,#0x10]

; 154  : 	for (obj_ = obj_first; obj_ != NULL; obj_ = obj_->next) {

	adrp        x8,|?obj_first@@3PEAU_XELDR_OBJ_@@EA|
	ldr         x8,[x8,PageOffset(|?obj_first@@3PEAU_XELDR_OBJ_@@EA|)]
	str         x8,[sp,#0x10]
	b           |$LN4@XELdrLoadA|
|$LN2@XELdrLoadA|
	ldr         x8,[sp,#0x10]
	add         x8,x8,#0x20
	ldr         x8,[x8]
	str         x8,[sp,#0x10]
|$LN4@XELdrLoadA|
	ldr         x8,[sp,#0x10]
	cmp         x8,#0
	beq         |$LN3@XELdrLoadA|

; 155  : 		if (obj_->loaded == false)

	ldr         x8,[sp,#0x10]
	add         x8,x8,#8
	ldrsb       w8,[x8]
	mov         w8,w8
	cmp         w8,#0
	bne         |$LN5@XELdrLoadA|

; 156  : 			XELdrLoadObject(obj_);

	ldr         x0,[sp,#0x10]
	bl          |?XELdrLoadObject@@YAHPEAU_XELDR_OBJ_@@@Z|
|$LN5@XELdrLoadA|

; 157  : 	}

	b           |$LN2@XELdrLoadA|
|$LN3@XELdrLoadA|
	ldp         fp,lr,[sp],#0x20
	ret

	ENDP  ; |?XELdrLoadAllObject@@YAXXZ|, XELdrLoadAllObject

; Function compile flags: /Odtp
; File C:\Users\paras\source\repos\grep-name\XenevaOS\XELoader\XELdrObject.cpp

	AREA	|.text$mn|, CODE, ARM64

|?XELdrCheckObject@@YADPEBD@Z| PROC			; XELdrCheckObject

; 118  : bool XELdrCheckObject(const char* name) {

|$LN9|
	stp         fp,lr,[sp,#-0x30]!
	mov         fp,sp
	str         x0,[sp,#0x20]

; 119  : 	XELoaderObject* obj_ = NULL;

	mov         x8,#0
	str         x8,[sp,#0x10]

; 120  : 	for (obj_ = obj_first; obj_ != NULL; obj_ = obj_->next) {

	adrp        x8,|?obj_first@@3PEAU_XELDR_OBJ_@@EA|
	ldr         x8,[x8,PageOffset(|?obj_first@@3PEAU_XELDR_OBJ_@@EA|)]
	str         x8,[sp,#0x10]
	b           |$LN4@XELdrCheck|
|$LN2@XELdrCheck|
	ldr         x8,[sp,#0x10]
	add         x8,x8,#0x20
	ldr         x8,[x8]
	str         x8,[sp,#0x10]
|$LN4@XELdrCheck|
	ldr         x8,[sp,#0x10]
	cmp         x8,#0
	beq         |$LN3@XELdrCheck|

; 121  : 		char* p = strchr(obj_->objname, '/');

	ldr         x8,[sp,#0x10]
	mov         w1,#0x2F
	ldr         x0,[x8]
	bl          strchr
	str         x0,[sp,#0x18]

; 122  : 		if (p)

	ldr         x8,[sp,#0x18]
	cmp         x8,#0
	beq         |$LN5@XELdrCheck|

; 123  : 			p++;

	ldr         x8,[sp,#0x18]
	add         x8,x8,#1
	str         x8,[sp,#0x18]
	b           |$LN6@XELdrCheck|
|$LN5@XELdrCheck|

; 124  : 		else
; 125  : 			p = obj_->objname;

	ldr         x8,[sp,#0x10]
	ldr         x8,[x8]
	str         x8,[sp,#0x18]
|$LN6@XELdrCheck|

; 126  : 		if (strcmp(p, name) == 0)

	ldr         x1,[sp,#0x20]
	ldr         x0,[sp,#0x18]
	bl          strcmp
	mov         w0,w0
	cmp         w0,#0
	bne         |$LN7@XELdrCheck|

; 127  : 			return true;

	mov         w0,#1
	b           |$LN1@XELdrCheck|
|$LN7@XELdrCheck|

; 128  : 	}

	b           |$LN2@XELdrCheck|
|$LN3@XELdrCheck|

; 129  : 	return false;

	mov         w0,#0
|$LN1@XELdrCheck|
	ldp         fp,lr,[sp],#0x30
	ret

	ENDP  ; |?XELdrCheckObject@@YADPEBD@Z|, XELdrCheckObject

; Function compile flags: /Odtp
; File C:\Users\paras\source\repos\grep-name\XenevaOS\XELoader\XELdrObject.cpp

	AREA	|.text$mn|, CODE, ARM64

|?XELdrDestroyObject@@YAXPEAU_XELDR_OBJ_@@@Z| PROC	; XELdrDestroyObject

; 98   : void XELdrDestroyObject(XELoaderObject *obj) {

|$LN3|
	stp         fp,lr,[sp,#-0x20]!
	mov         fp,sp
	str         x0,[sp,#0x10]

; 99   : 	XELdrRemoveObject(obj);

	ldr         x0,[sp,#0x10]
	bl          |?XELdrRemoveObject@@YAXPEAU_XELDR_OBJ_@@@Z|

; 100  : 	free(obj->objname);

	ldr         x8,[sp,#0x10]
	ldr         x0,[x8]
	bl          free

; 101  : 	free(obj);

	ldr         x0,[sp,#0x10]
	bl          free
	ldp         fp,lr,[sp],#0x20
	ret

	ENDP  ; |?XELdrDestroyObject@@YAXPEAU_XELDR_OBJ_@@@Z|, XELdrDestroyObject

; Function compile flags: /Odtp
; File C:\Users\paras\source\repos\grep-name\XenevaOS\XELoader\XELdrObject.cpp

	AREA	|.text$mn|, CODE, ARM64

|?XELdrCreateObj@@YAPEAU_XELDR_OBJ_@@PEAD@Z| PROC	; XELdrCreateObj

; 82   : XELoaderObject* XELdrCreateObj(char* objname) {

|$LN3|
	stp         fp,lr,[sp,#-0x20]!
	mov         fp,sp
	str         x0,[sp,#0x18]

; 83   : 	XELoaderObject* obj = (XELoaderObject*)malloc(sizeof(XELoaderObject));

	mov         w0,#0x30
	bl          malloc
	str         x0,[sp,#0x10]

; 84   : 	memset(obj, 0, sizeof(XELoaderObject));

	mov         x2,#0x30
	mov         w1,#0
	ldr         x0,[sp,#0x10]
	bl          memset

; 85   : 	obj->objname = (char*)malloc(strlen(objname) + 1);

	ldr         x0,[sp,#0x18]
	bl          strlen
	add         x8,x0,#1
	mov         w0,w8
	mov         w0,w0
	bl          malloc
	ldr         x8,[sp,#0x10]
	str         x0,[x8]

; 86   : 	strcpy(obj->objname, objname);

	ldr         x8,[sp,#0x10]
	ldr         x1,[sp,#0x18]
	ldr         x0,[x8]
	bl          strcpy

; 87   : 	obj->loaded = false;

	ldr         x8,[sp,#0x10]
	add         x9,x8,#8
	mov         w8,#0
	strb        w8,[x9]

; 88   : 	obj->load_addr = 0;

	ldr         x8,[sp,#0x10]
	add         x9,x8,#0x10
	mov         x8,#0
	str         x8,[x9]

; 89   : 	obj->entry_addr = 0;

	ldr         x8,[sp,#0x10]
	add         x9,x8,#0x18
	mov         x8,#0
	str         x8,[x9]

; 90   : 	XELoaderAddObject(obj);

	ldr         x0,[sp,#0x10]
	bl          |?XELoaderAddObject@@YAXPEAU_XELDR_OBJ_@@@Z|

; 91   : 	return obj;

	ldr         x0,[sp,#0x10]
	ldp         fp,lr,[sp],#0x20
	ret

	ENDP  ; |?XELdrCreateObj@@YAPEAU_XELDR_OBJ_@@PEAD@Z|, XELdrCreateObj

; Function compile flags: /Odtp
; File C:\Users\paras\source\repos\grep-name\XenevaOS\XELoader\XELdrObject.cpp

	AREA	|.text$mn|, CODE, ARM64

|?XELdrInitObjectList@@YAXXZ| PROC			; XELdrInitObjectList

; 109  : 	obj_first = NULL;

	adrp        x9,|?obj_first@@3PEAU_XELDR_OBJ_@@EA|
	mov         x8,#0
	str         x8,[x9,PageOffset(|?obj_first@@3PEAU_XELDR_OBJ_@@EA|)]

; 110  : 	obj_last = NULL;

	adrp        x9,|?obj_last@@3PEAU_XELDR_OBJ_@@EA|
	mov         x8,#0
	str         x8,[x9,PageOffset(|?obj_last@@3PEAU_XELDR_OBJ_@@EA|)]
	ret

	ENDP  ; |?XELdrInitObjectList@@YAXXZ|, XELdrInitObjectList

	END
