; Listing generated by Microsoft (R) Optimizing Compiler Version 19.29.30159.0 

	TTL	E:\Xeneva Project\Aurora\Libs\Chitralekha\ARM64\Debug\audio.obj
	ARM64

	AREA	|.drectve|, DRECTVE


	AREA	|.rdata|, DATA, READONLY
|$SG3698| DCB	"/pipe/DeodhaiAudio", 0x0
	%	5
|$SG3700| DCB	"DeodhaiAudo Connection failed : pipe -> %d ", 0xa, 0x0
	%	3
|$SG3703| DCB	"DeodhaiGetAudioConnection", 0x0
	%	6
|$SG3705| DCB	"DeodhaiAudioGetGlobalConnection", 0x0
|$SG3708| DCB	"DeodhaiAudio Handshake received ", 0xa, 0x0
	EXPORT	|DeodhaiAudioOpenConnection|
	EXPORT	|DeodhaiAudioWrite|
	EXPORT	|DeodhaiAudioCloseConnection|
	IMPORT	|_KePrint|
	IMPORT	|printf|
	IMPORT	|_KeGetThreadID|
	IMPORT	|_KeProcessSleep|
	IMPORT	|_KeOpenFile|
	IMPORT	|_KeWriteFile|
	IMPORT	|_KeCloseFile|
	IMPORT	|_KeFileIoControl|
	IMPORT	|_KeCreateSharedMem|
	IMPORT	|_KeObtainSharedMem|
	IMPORT	|_KeUnmapSharedMem|
	IMPORT	|malloc|
	IMPORT	|free|
	IMPORT	|memcpy|
	IMPORT	|_fltused|

	AREA	|.pdata|, PDATA
|$pdata$DeodhaiAudioOpenConnection| DCD imagerel |$LN11|
	DCD	0x96002f1
	;Flags[SingleProEpi] functionLength[752] RegF[0] RegI[0] H[0] frameChainReturn[Chained] frameSize[288]
|$pdata$DeodhaiAudioWrite| DCD imagerel |$LN3|
	DCD	0x1600045
	;Flags[SingleProEpi] functionLength[68] RegF[0] RegI[0] H[0] frameChainReturn[Chained] frameSize[32]
|$pdata$DeodhaiAudioCloseConnection| DCD imagerel |$LN3|
	DCD	0x1600061
	;Flags[SingleProEpi] functionLength[96] RegF[0] RegI[0] H[0] frameChainReturn[Chained] frameSize[32]
; Function compile flags: /Odtp
; File E:\Xeneva Project\Aurora\Libs\Chitralekha\audio\audio.cpp

	AREA	|.text$mn|, CODE, ARM64

|DeodhaiAudioCloseConnection| PROC

; 113  : void DeodhaiAudioCloseConnection(DeodhaiAudioBox* box) {

|$LN3|
	stp         fp,lr,[sp,#-0x20]!
	mov         fp,sp
	str         x0,[sp,#0x10]

; 114  : 	box->ctlPanel->close = true;

	ldr         x8,[sp,#0x10]
	ldr         x8,[x8]
	add         x9,x8,#0xF
	mov         w8,#1
	strb        w8,[x9]

; 115  : 	_KeCloseFile(box->pipe);

	ldr         x8,[sp,#0x10]
	add         x8,x8,#0x20
	ldr         w0,[x8]
	bl          _KeCloseFile

; 116  : 	_KeUnmapSharedMem(box->sampleBufferKey);

	ldr         x8,[sp,#0x10]
	add         x8,x8,#0xA
	ldrh        w0,[x8]
	bl          _KeUnmapSharedMem

; 117  : 	_KeUnmapSharedMem(box->controlPanelKey);

	ldr         x8,[sp,#0x10]
	add         x8,x8,#8
	ldrh        w0,[x8]
	bl          _KeUnmapSharedMem

; 118  : 	free(box);

	ldr         x0,[sp,#0x10]
	bl          free
	ldp         fp,lr,[sp],#0x20
	ret

	ENDP  ; |DeodhaiAudioCloseConnection|

; Function compile flags: /Odtp
; File E:\Xeneva Project\Aurora\Libs\Chitralekha\audio\audio.cpp

	AREA	|.text$mn|, CODE, ARM64

|DeodhaiAudioWrite| PROC

; 104  : void DeodhaiAudioWrite(DeodhaiAudioBox* box, void* buffer) {

|$LN3|
	stp         fp,lr,[sp,#-0x20]!
	mov         fp,sp
	str         x0,[sp,#0x10]
	str         x1,[sp,#0x18]

; 105  : 	memcpy(box->sampleBuffer, buffer, 4096);

	ldr         x8,[sp,#0x10]
	add         x8,x8,#0x10
	ldr         x0,[x8]
	ldr         x1,[sp,#0x18]
	mov         x2,#0x1000
	bl          memcpy

; 106  : 	box->ctlPanel->Samplefull = true;

	ldr         x8,[sp,#0x10]
	ldr         x8,[x8]
	add         x9,x8,#0xD
	mov         w8,#1
	strb        w8,[x9]
	ldp         fp,lr,[sp],#0x20
	ret

	ENDP  ; |DeodhaiAudioWrite|

; Function compile flags: /Odtp
; File E:\Xeneva Project\Aurora\Libs\Chitralekha\audio\audio.cpp

	AREA	|.text$mn|, CODE, ARM64

|DeodhaiAudioOpenConnection| PROC

; 39   : DeodhaiAudioBox* DeodhaiAudioOpenConnection(int postbox, uint8_t numChannel, uint8_t connectionType) {

|$LN11|
	stp         fp,lr,[sp,#-0x120]!
	mov         fp,sp
	str         w0,[sp,#0x38]
	uxtb        w8,w1
	strb        w8,[sp,#0x11]
	uxtb        w8,w2
	strb        w8,[sp,#0x10]

; 40   : 	int pipe = _KeOpenFile("/pipe/DeodhaiAudio", FILE_OPEN_READ_ONLY);

	mov         w1,#2
	adrp        x8,|$SG3698|
	add         x0,x8,PageOffset(|$SG3698|)
	bl          _KeOpenFile
	mov         w0,w0
	str         w0,[sp,#0x24]

; 41   : 	if (pipe == -1) {

	ldr         w8,[sp,#0x24]
	cmn         w8,#1
	bne         |$LN4@DeodhaiAud|

; 42   : 		printf("DeodhaiAudo Connection failed : pipe -> %d \n", pipe);

	ldr         w1,[sp,#0x24]
	adrp        x8,|$SG3700|
	add         x0,x8,PageOffset(|$SG3700|)
	bl          printf

; 43   : 		return NULL;

	mov         x0,#0
	b           |$LN1@DeodhaiAud|
|$LN4@DeodhaiAud|

; 44   : 	}
; 45   : 
; 46   : 	DeodhaiAudioBox* audioBox = (DeodhaiAudioBox*)malloc(sizeof(DeodhaiAudioBox));

	mov         w0,#0x28
	bl          malloc
	str         x0,[sp,#0x18]

; 47   : 	memset(audioBox, 0, sizeof(DeodhaiAudioBox));

	ldr         x9,[sp,#0x18]
	mov         x8,#0
	stp         x8,x8,[x9]
	stp         x8,x8,[x9,#0x10]
	str         x8,[x9,#0x20]

; 48   : 	audioBox->pipe = pipe;

	ldr         x8,[sp,#0x18]
	add         x9,x8,#0x20
	ldr         w8,[sp,#0x24]
	str         w8,[x9]

; 49   : 
; 50   : 	uint16_t threadID = _KeGetThreadID();

	bl          _KeGetThreadID
	uxth        w8,w0
	strh        w8,[sp,#0x28]

; 51   : 
; 52   : 	/* Open up the connection */
; 53   : 	DeodhaiAudioMessage* msg = (DeodhaiAudioMessage*)malloc(sizeof(DeodhaiAudioMessage));

	mov         w0,#0x40
	bl          malloc
	str         x0,[sp,#0x30]

; 54   : 	if (connectionType == DEODHAI_CONNECTION_TYPE_NORMAL)

	ldrb        w8,[sp,#0x10]
	mov         w8,w8
	cmp         w8,#0
	bne         |$LN5@DeodhaiAud|

; 55   : 		strcpy(msg->message, DEODHAI_GET_AUDIO_CONNECTION);

	ldr         x8,[sp,#0x30]
	str         x8,[sp,#0x50]
	ldr         x11,[sp,#0x50]
	adrp        x8,|$SG3703|
	add         x10,x8,PageOffset(|$SG3703|)
	ldp         x9,x8,[x10]
	stp         x9,x8,[x11]
	ldr         x8,[x10,#0x10]
	str         x8,[x11,#0x10]
	ldrsh       w8,[x10,#0x18]
	strh        w8,[x11,#0x18]
	b           |$LN6@DeodhaiAud|
|$LN5@DeodhaiAud|

; 56   : 	else if (connectionType == DEODHAI_CONNECTION_TYPE_GLOBAL)

	ldrb        w8,[sp,#0x10]
	mov         w8,w8
	cmp         w8,#1
	bne         |$LN7@DeodhaiAud|

; 57   : 		strcpy(msg->message, DEODHAI_AUDIO_GET_GLOBAL_CONNECTION);

	ldr         x8,[sp,#0x30]
	str         x8,[sp,#0x58]
	ldr         x11,[sp,#0x58]
	adrp        x8,|$SG3705|
	add         x10,x8,PageOffset(|$SG3705|)
	ldp         x9,x8,[x10]
	stp         x9,x8,[x11]
	ldp         x9,x8,[x10,#0x10]
	stp         x9,x8,[x11,#0x10]
|$LN7@DeodhaiAud|
|$LN6@DeodhaiAud|

; 58   : 
; 59   : 	msg->fromProcessId = threadID;

	ldr         x8,[sp,#0x30]
	add         x9,x8,#0x3C
	ldrh        w8,[sp,#0x28]
	strh        w8,[x9]

; 60   : 	msg->toProcessId = 0;

	ldr         x8,[sp,#0x30]
	add         x9,x8,#0x3E
	mov         w8,#0
	strh        w8,[x9]

; 61   : 	_KeWriteFile(pipe, msg, sizeof(DeodhaiAudioMessage));

	mov         x2,#0x40
	ldr         x1,[sp,#0x30]
	ldr         w0,[sp,#0x24]
	bl          _KeWriteFile
|$LN2@DeodhaiAud|

; 62   : 
; 63   : 
; 64   : 	PostEvent e;
; 65   : 	while (1) {

	mov         w8,#1
	cmp         w8,#0
	beq         |$LN3@DeodhaiAud|

; 66   : 		_KeFileIoControl(postbox, POSTBOX_GET_EVENT, &e);

	add         x2,sp,#0x70
	mov         w1,#0x194
	ldr         w0,[sp,#0x38]
	bl          _KeFileIoControl

; 67   : 		if (e.type != 0) {

	ldrb        w8,[sp,#0x70]
	mov         w8,w8
	cmp         w8,#0
	beq         |$LN8@DeodhaiAud|

; 68   : 			if (e.type == 11) {

	ldrb        w8,[sp,#0x70]
	mov         w8,w8
	cmp         w8,#0xB
	bne         |$LN9@DeodhaiAud|

; 69   : 				_KePrint("DeodhaiAudio Handshake received \n");

	adrp        x8,|$SG3708|
	add         x0,x8,PageOffset(|$SG3708|)
	bl          _KePrint

; 70   : 				uint16_t controlPanelKey = e.dword;

	ldr         w8,[sp,#0x78]
	uxth        w8,w8
	strh        w8,[sp,#0x20]

; 71   : 				uint16_t sampleBufferKey = e.dword2;

	ldr         w8,[sp,#0x7C]
	uxth        w8,w8
	strh        w8,[sp,#0x22]

; 72   : 				int id = _KeCreateSharedMem(controlPanelKey, 0, 0);

	mov         w2,#0
	mov         x1,#0
	ldrh        w0,[sp,#0x20]
	bl          _KeCreateSharedMem
	mov         w0,w0
	str         w0,[sp,#0x3C]

; 73   : 				int id2 = _KeCreateSharedMem(sampleBufferKey, 0, 0);

	mov         w2,#0
	mov         x1,#0
	ldrh        w0,[sp,#0x22]
	bl          _KeCreateSharedMem
	mov         w0,w0
	str         w0,[sp,#0x40]

; 74   : 				void* controlPanelBuff = _KeObtainSharedMem(id, 0, 0);

	ldr         w8,[sp,#0x3C]
	uxth        w0,w8
	mov         w2,#0
	mov         x1,#0
	mov         w0,w0
	bl          _KeObtainSharedMem
	str         x0,[sp,#0x48]

; 75   : 				void* sampleBuff = _KeObtainSharedMem(id2, 0, 0);

	ldr         w8,[sp,#0x40]
	uxth        w0,w8
	mov         w2,#0
	mov         x1,#0
	mov         w0,w0
	bl          _KeObtainSharedMem
	str         x0,[sp,#0x60]

; 76   : 				DeodhaiAudioControlPanel* panel= (DeodhaiAudioControlPanel*)controlPanelBuff;

	ldr         x8,[sp,#0x48]
	str         x8,[sp,#0x68]

; 77   : 				audioBox->sampleBuffer = sampleBuff;

	ldr         x8,[sp,#0x18]
	add         x9,x8,#0x10
	ldr         x8,[sp,#0x60]
	str         x8,[x9]

; 78   : 				audioBox->ctlPanelBuffer = controlPanelBuff;

	ldr         x8,[sp,#0x18]
	add         x9,x8,#0x18
	ldr         x8,[sp,#0x48]
	str         x8,[x9]

; 79   : 				audioBox->controlPanelKey = controlPanelKey;

	ldr         x8,[sp,#0x18]
	add         x9,x8,#8
	ldrh        w8,[sp,#0x20]
	strh        w8,[x9]

; 80   : 				audioBox->sampleBufferKey = sampleBufferKey;

	ldr         x8,[sp,#0x18]
	add         x9,x8,#0xA
	ldrh        w8,[sp,#0x22]
	strh        w8,[x9]

; 81   : 				audioBox->ctlPanel = panel;

	ldr         x9,[sp,#0x18]
	ldr         x8,[sp,#0x68]
	str         x8,[x9]

; 82   : 				break;

	b           |$LN3@DeodhaiAud|
|$LN9@DeodhaiAud|
|$LN8@DeodhaiAud|

; 83   : 			}
; 84   : 		}
; 85   : 		_KeProcessSleep(1000);

	mov         x0,#0x3E8
	bl          _KeProcessSleep

; 86   : 	}

	b           |$LN2@DeodhaiAud|
|$LN3@DeodhaiAud|

; 87   : 
; 88   : 	audioBox->ctlPanel->numChannel = numChannel;

	ldr         x8,[sp,#0x18]
	ldr         x9,[x8]
	ldrb        w8,[sp,#0x11]
	strb        w8,[x9]

; 89   : 	audioBox->ctlPanel->gain = 1.0;

	ldr         x8,[sp,#0x18]
	ldr         x8,[x8]
	add         x8,x8,#1
	fmov        s16,#1
	str         s16,[x8]

; 90   : 	audioBox->ctlPanel->leftSpeakerScale = 1.0;

	ldr         x8,[sp,#0x18]
	ldr         x8,[x8]
	add         x8,x8,#5
	fmov        s16,#1
	str         s16,[x8]

; 91   : 	audioBox->ctlPanel->rightSpeakerScale = 1.0;

	ldr         x8,[sp,#0x18]
	ldr         x8,[x8]
	add         x8,x8,#9
	fmov        s16,#1
	str         s16,[x8]

; 92   : 	audioBox->ctlPanel->Samplefull = false;

	ldr         x8,[sp,#0x18]
	ldr         x8,[x8]
	add         x9,x8,#0xD
	mov         w8,#0
	strb        w8,[x9]

; 93   : 	audioBox->ctlPanel->ready = true;

	ldr         x8,[sp,#0x18]
	ldr         x8,[x8]
	add         x9,x8,#0xE
	mov         w8,#1
	strb        w8,[x9]

; 94   : 	
; 95   : 	return audioBox;

	ldr         x0,[sp,#0x18]
|$LN1@DeodhaiAud|
	ldp         fp,lr,[sp],#0x120
	ret

	ENDP  ; |DeodhaiAudioOpenConnection|

	END
