; Listing generated by Microsoft (R) Optimizing Compiler Version 19.29.30159.0 

	TTL	E:\Xeneva Project\Aurora\Libs\Chitralekha\ARM64\Debug\base.obj
	ARM64

	AREA	|.drectve|, DRECTVE

	EXPORT	|?baseapp@@3PEAU_ChApp_@@EA| [ DATA ]	; baseapp

	AREA	|.bss|, NOINIT
|?baseapp@@3PEAU_ChApp_@@EA| % 0x8			; baseapp

	AREA	|.rdata|, DATA, READONLY
|$SG5117| DCB	"/dev/postbox", 0x0
	%	3
|$SG5118| DCB	"[Chitralekha]: postboxfd : %d ", 0xd, 0xa, 0x0
	%	7
|$SG5119| DCB	"[Chitralekha]: graph : %d ", 0xd, 0xa, 0x0
	%	3
|$SG5120| DCB	"Calibri", 0x0
	EXPORT	|ChitralekhaStartApp|
	EXPORT	|ChitralekhaStartSubApp|
	EXPORT	|ChitralekhaGetApp|
	IMPORT	|_KePrint|
	IMPORT	|malloc|
	IMPORT	|ChInitialiseFont|
	IMPORT	|_KeOpenFile|
	IMPORT	|_KeFileIoControl|
	IMPORT	|_KeGetThreadID|
	IMPORT	|ChitralekhaKeyInitialise|
	IMPORT	|?ChInitialiseDefaultIcons@@YAXXZ|	; ChInitialiseDefaultIcons

	AREA	|.pdata|, PDATA
|$pdata$ChitralekhaStartApp| DCD imagerel |$LN3|
	DCD	0x26000e5
	;Flags[SingleProEpi] functionLength[228] RegF[0] RegI[0] H[0] frameChainReturn[Chained] frameSize[64]
|$pdata$ChitralekhaStartSubApp| DCD imagerel |$LN3|
	DCD	0x1e00099
	;Flags[SingleProEpi] functionLength[152] RegF[0] RegI[0] H[0] frameChainReturn[Chained] frameSize[48]
; Function compile flags: /Odtp
; File E:\Xeneva Project\Aurora\Libs\Chitralekha\widgets\base.cpp

	AREA	|.text$mn|, CODE, ARM64

|ChitralekhaGetApp| PROC

; 93   : 	return baseapp;

	adrp        x8,|?baseapp@@3PEAU_ChApp_@@EA|
	ldr         x0,[x8,PageOffset(|?baseapp@@3PEAU_ChApp_@@EA|)]
	ret

	ENDP  ; |ChitralekhaGetApp|

; Function compile flags: /Odtp
; File E:\Xeneva Project\Aurora\Libs\Chitralekha\widgets\base.cpp

	AREA	|.text$mn|, CODE, ARM64

|ChitralekhaStartSubApp| PROC

; 79   : ChitralekhaApp* ChitralekhaStartSubApp(ChitralekhaApp* parent) {

|$LN3|
	stp         fp,lr,[sp,#-0x30]!
	mov         fp,sp
	str         x0,[sp,#0x20]

; 80   : 	ChitralekhaApp* app = (ChitralekhaApp*)malloc(sizeof(ChitralekhaApp));

	mov         w0,#0x48
	bl          malloc
	str         x0,[sp,#0x18]

; 81   : 	memset(app, 0, sizeof(ChitralekhaApp));

	ldr         x9,[sp,#0x18]
	mov         x8,#0
	stp         x8,x8,[x9]
	stp         x8,x8,[x9,#0x10]
	stp         x8,x8,[x9,#0x20]
	stp         x8,x8,[x9,#0x30]
	str         x8,[x9,#0x40]

; 82   : 	app->baseFont = parent->baseFont;

	ldr         x8,[sp,#0x20]
	add         x10,x8,#0x30
	ldr         x8,[sp,#0x18]
	add         x9,x8,#0x30
	ldr         x8,[x10]
	str         x8,[x9]

; 83   : 	app->postboxfd = parent->postboxfd;

	ldr         x8,[sp,#0x20]
	ldr         x9,[sp,#0x18]
	ldr         w8,[x8]
	str         w8,[x9]

; 84   : 	uint16_t thr_id = parent->currentID;

	ldr         x8,[sp,#0x20]
	add         x8,x8,#0x38
	ldrh        w8,[x8]
	strh        w8,[sp,#0x10]

; 85   : 	app->currentID = thr_id;

	ldr         x8,[sp,#0x18]
	add         x9,x8,#0x38
	ldrh        w8,[sp,#0x10]
	strh        w8,[x9]

; 86   : 	app->parent = parent;

	ldr         x8,[sp,#0x18]
	add         x9,x8,#0x40
	ldr         x8,[sp,#0x20]
	str         x8,[x9]

; 87   : 	return app;

	ldr         x0,[sp,#0x18]
	ldp         fp,lr,[sp],#0x30
	ret

	ENDP  ; |ChitralekhaStartSubApp|

; Function compile flags: /Odtp
; File E:\Xeneva Project\Aurora\Libs\Chitralekha\widgets\base.cpp

	AREA	|.text$mn|, CODE, ARM64

|ChitralekhaStartApp| PROC

; 44   : ChitralekhaApp* ChitralekhaStartApp(int argc, char* argv[]) {

|$LN3|
	stp         fp,lr,[sp,#-0x40]!
	mov         fp,sp
	str         w0,[sp,#0x1C]
	str         x1,[sp,#0x30]

; 45   : 	int postboxfd = _KeOpenFile("/dev/postbox", FILE_OPEN_READ_ONLY);

	mov         w1,#2
	adrp        x8,|$SG5117|
	add         x0,x8,PageOffset(|$SG5117|)
	bl          _KeOpenFile
	mov         w0,w0
	str         w0,[sp,#0x18]

; 46   : 	_KePrint("[Chitralekha]: postboxfd : %d \r\n", postboxfd);

	ldr         w1,[sp,#0x18]
	adrp        x8,|$SG5118|
	add         x0,x8,PageOffset(|$SG5118|)
	bl          _KePrint

; 47   : 	int fd = postboxfd;// _KeOpenFile("/dev/graph", FILE_OPEN_READ_ONLY);

	ldr         w8,[sp,#0x18]
	str         w8,[sp,#0x14]

; 48   : 	_KePrint("[Chitralekha]: graph : %d \r\n", fd);

	ldr         w1,[sp,#0x14]
	adrp        x8,|$SG5119|
	add         x0,x8,PageOffset(|$SG5119|)
	bl          _KePrint

; 49   : #ifdef ARCH_ARM64
; 50   : 	_KeFileIoControl(fd, POSTBOX_CREATE, NULL);

	mov         x2,#0
	mov         w1,#0x191
	ldr         w0,[sp,#0x14]
	bl          _KeFileIoControl

; 51   : #else
; 52   : 	_KeFileIoControl(postboxfd, POSTBOX_CREATE, NULL);
; 53   : #endif
; 54   : 
; 55   : //#ifdef ARCH_X64
; 56   : 	ChFont* font = ChInitialiseFont(XENEVA_DEFAULT_FONT);

	adrp        x8,|$SG5120|
	add         x0,x8,PageOffset(|$SG5120|)
	bl          ChInitialiseFont
	str         x0,[sp,#0x28]

; 57   : //#else
; 58   : 	//ChFont* font = 0;
; 59   : //#endif
; 60   : 	ChitralekhaApp* app = (ChitralekhaApp*)malloc(sizeof(ChitralekhaApp));

	mov         w0,#0x48
	bl          malloc
	str         x0,[sp,#0x20]

; 61   : 	memset(app, 0, sizeof(ChitralekhaApp));

	ldr         x9,[sp,#0x20]
	mov         x8,#0
	stp         x8,x8,[x9]
	stp         x8,x8,[x9,#0x10]
	stp         x8,x8,[x9,#0x20]
	stp         x8,x8,[x9,#0x30]
	str         x8,[x9,#0x40]

; 62   : 	app->baseFont = font;

	ldr         x8,[sp,#0x20]
	add         x9,x8,#0x30
	ldr         x8,[sp,#0x28]
	str         x8,[x9]

; 63   : #ifdef ARCH_ARM64
; 64   : 	app->postboxfd = fd;

	ldr         x9,[sp,#0x20]
	ldr         w8,[sp,#0x14]
	str         w8,[x9]

; 65   : #else
; 66   : 	app->postboxfd = postboxfd;
; 67   : #endif
; 68   : 	uint16_t thr_id = _KeGetThreadID();

	bl          _KeGetThreadID
	uxth        w8,w0
	strh        w8,[sp,#0x10]

; 69   : 	app->currentID = thr_id;

	ldr         x8,[sp,#0x20]
	add         x9,x8,#0x38
	ldrh        w8,[sp,#0x10]
	strh        w8,[x9]

; 70   : 
; 71   : 	ChitralekhaKeyInitialise();

	bl          ChitralekhaKeyInitialise

; 72   : 	ChInitialiseDefaultIcons();

	bl          |?ChInitialiseDefaultIcons@@YAXXZ|

; 73   : 	return app;

	ldr         x0,[sp,#0x20]
	ldp         fp,lr,[sp],#0x40
	ret

	ENDP  ; |ChitralekhaStartApp|

	END
