; Listing generated by Microsoft (R) Optimizing Compiler Version 19.29.30159.0 

	TTL	C:\Users\paras\source\repos\grep-name\XenevaOS\Libs\Chitralekha\ARM64\Debug\boxblur.obj
	ARM64

	AREA	|.drectve|, DRECTVE

	EXPORT	|ChBoxBlur|
	IMPORT	|make_col_a|

	AREA	|.pdata|, PDATA
|$pdata$ChBoxBlur| DCD imagerel |$LN16|
	DCD	0x3e002d1
	;Flags[SingleProEpi] functionLength[720] RegF[0] RegI[0] H[0] frameChainReturn[Chained] frameSize[112]
; Function compile flags: /Odtp
; File C:\Users\paras\source\repos\grep-name\XenevaOS\Libs\Chitralekha\boxblur.cpp

	AREA	|.text$mn|, CODE, ARM64

|ChBoxBlur| PROC

; 44   : void ChBoxBlur(ChCanvas* canv, uint32_t *inputpix, uint32_t* outpix, int cx, int cy, int w, int h){

|$LN16|
	stp         fp,lr,[sp,#-0x70]!
	mov         fp,sp
	str         x0,[sp,#0x58]
	str         x1,[sp,#0x60]
	str         x2,[sp,#0x68]
	str         w3,[sp,#0x4C]
	str         w4,[sp,#0x48]
	str         w5,[sp,#0x44]
	str         w6,[sp,#0x50]

; 45   : 	for (int j = 0; j < h; j++){

	mov         w8,#0
	str         w8,[sp,#0x18]
	b           |$LN4@ChBoxBlur|
|$LN2@ChBoxBlur|
	ldr         w8,[sp,#0x18]
	add         w8,w8,#1
	str         w8,[sp,#0x18]
|$LN4@ChBoxBlur|
	ldr         w9,[sp,#0x50]
	ldr         w8,[sp,#0x18]
	cmp         w8,w9
	bge         |$LN3@ChBoxBlur|

; 46   : 		for (int i = 0; i < w; i++) {

	mov         w8,#0
	str         w8,[sp,#0x1C]
	b           |$LN7@ChBoxBlur|
|$LN5@ChBoxBlur|
	ldr         w8,[sp,#0x1C]
	add         w8,w8,#1
	str         w8,[sp,#0x1C]
|$LN7@ChBoxBlur|
	ldr         w9,[sp,#0x44]
	ldr         w8,[sp,#0x1C]
	cmp         w8,w9
	bge         |$LN6@ChBoxBlur|

; 47   : 
; 48   : 			int redTotal = 0;

	mov         w8,#0
	str         w8,[sp,#0x34]

; 49   : 			int greenTotal = 0;

	mov         w8,#0
	str         w8,[sp,#0x38]

; 50   : 			int blueTotal = 0;

	mov         w8,#0
	str         w8,[sp,#0x3C]

; 51   : 			int alphaTotal = 0;

	mov         w8,#0
	str         w8,[sp,#0x40]

; 52   : 
; 53   : 			for (int row = -1; row <= 1; row++) {

	mov         w8,#-1
	str         w8,[sp,#0x24]
	b           |$LN10@ChBoxBlur|
|$LN8@ChBoxBlur|
	ldr         w8,[sp,#0x24]
	add         w8,w8,#1
	str         w8,[sp,#0x24]
|$LN10@ChBoxBlur|
	ldr         w8,[sp,#0x24]
	cmp         w8,#1
	bgt         |$LN9@ChBoxBlur|

; 54   : 				for (int col = -1; col <= 1; col++) {

	mov         w8,#-1
	str         w8,[sp,#0x20]
	b           |$LN13@ChBoxBlur|
|$LN11@ChBoxBlur|
	ldr         w8,[sp,#0x20]
	add         w8,w8,#1
	str         w8,[sp,#0x20]
|$LN13@ChBoxBlur|
	ldr         w8,[sp,#0x20]
	cmp         w8,#1
	bgt         |$LN12@ChBoxBlur|

; 55   : 					int currentX = cx + i + col;

	ldr         w9,[sp,#0x4C]
	ldr         w8,[sp,#0x1C]
	add         w9,w9,w8
	ldr         w8,[sp,#0x20]
	add         w8,w9,w8
	str         w8,[sp,#0x30]

; 56   : 					int currentY = cy + j + row;

	ldr         w9,[sp,#0x48]
	ldr         w8,[sp,#0x18]
	add         w9,w9,w8
	ldr         w8,[sp,#0x24]
	add         w8,w9,w8
	str         w8,[sp,#0x2C]

; 57   : 
; 58   : 					if (currentX >= 0 && currentX < canv->canvasWidth &&
; 59   : 						currentY >= 0 && currentY < canv->canvasHeight) {

	ldr         w8,[sp,#0x30]
	cmp         w8,#0
	blt         |$LN14@ChBoxBlur|
	ldr         x8,[sp,#0x58]
	add         x8,x8,#0x18
	ldr         w9,[x8]
	ldr         w8,[sp,#0x30]
	cmp         w8,w9
	bhs         |$LN14@ChBoxBlur|
	ldr         w8,[sp,#0x2C]
	cmp         w8,#0
	blt         |$LN14@ChBoxBlur|
	ldr         x8,[sp,#0x58]
	add         x8,x8,#0x1C
	ldr         w9,[x8]
	ldr         w8,[sp,#0x2C]
	cmp         w8,w9
	bhs         |$LN14@ChBoxBlur|

; 60   : 						uint32_t color = inputpix[(currentY * w + currentX)];

	ldr         w9,[sp,#0x2C]
	ldr         w8,[sp,#0x44]
	mul         w9,w9,w8
	ldr         w8,[sp,#0x30]
	add         w8,w9,w8
	sxtw        x9,w8
	mov         x8,#4
	mul         x9,x9,x8
	ldr         x8,[sp,#0x60]
	add         x8,x8,x9
	ldr         w8,[x8]
	str         w8,[sp,#0x28]

; 61   : 
; 62   : 						uint8_t red = GET_RED(color);

	ldr         w8,[sp,#0x28]
	ubfx        w8,w8,#0x10,#8
	uxtb        w8,w8
	strb        w8,[sp,#0x10]

; 63   : 						uint8_t green = GET_GREEN(color);

	ldr         w8,[sp,#0x28]
	ubfx        w8,w8,#8,#8
	uxtb        w8,w8
	strb        w8,[sp,#0x11]

; 64   : 						uint8_t blue = GET_BLUE(color);

	ldr         w8,[sp,#0x28]
	and         w8,w8,#0xFF
	uxtb        w8,w8
	strb        w8,[sp,#0x12]

; 65   : 						uint8_t alpha = GET_ALPHA(color);

	ldr         w8,[sp,#0x28]
	lsr         w8,w8,#0x18
	uxtb        w8,w8
	strb        w8,[sp,#0x13]

; 66   : 
; 67   : 						redTotal += red;

	ldrb        w9,[sp,#0x10]
	mov         w9,w9
	ldr         w8,[sp,#0x34]
	add         w8,w8,w9
	str         w8,[sp,#0x34]

; 68   : 						greenTotal += green;

	ldrb        w9,[sp,#0x11]
	mov         w9,w9
	ldr         w8,[sp,#0x38]
	add         w8,w8,w9
	str         w8,[sp,#0x38]

; 69   : 						blueTotal += blue;

	ldrb        w9,[sp,#0x12]
	mov         w9,w9
	ldr         w8,[sp,#0x3C]
	add         w8,w8,w9
	str         w8,[sp,#0x3C]

; 70   : 						alphaTotal += alpha;

	ldrb        w9,[sp,#0x13]
	mov         w9,w9
	ldr         w8,[sp,#0x40]
	add         w8,w8,w9
	str         w8,[sp,#0x40]
|$LN14@ChBoxBlur|

; 71   : 					}
; 72   : 				}

	b           |$LN11@ChBoxBlur|
|$LN12@ChBoxBlur|

; 73   : 			}

	b           |$LN8@ChBoxBlur|
|$LN9@ChBoxBlur|

; 74   : 
; 75   : 			uint8_t red = redTotal / 9;

	ldr         w9,[sp,#0x34]
	mov         w8,#9
	sdiv        w8,w9,w8
	uxtb        w8,w8
	strb        w8,[sp,#0x17]

; 76   : 			uint8_t green = greenTotal / 9;

	ldr         w9,[sp,#0x38]
	mov         w8,#9
	sdiv        w8,w9,w8
	uxtb        w8,w8
	strb        w8,[sp,#0x16]

; 77   : 			uint8_t blue = blueTotal / 9;

	ldr         w9,[sp,#0x3C]
	mov         w8,#9
	sdiv        w8,w9,w8
	uxtb        w8,w8
	strb        w8,[sp,#0x15]

; 78   : 			uint8_t alpha = alphaTotal / 9;

	ldr         w9,[sp,#0x40]
	mov         w8,#9
	sdiv        w8,w9,w8
	uxtb        w8,w8
	strb        w8,[sp,#0x14]

; 79   : 
; 80   : 			outpix[(cy + j) * w + (cx + i)] = make_col_a(red, green, blue, alpha);

	ldrb        w3,[sp,#0x14]
	ldrb        w2,[sp,#0x15]
	ldrb        w1,[sp,#0x16]
	ldrb        w0,[sp,#0x17]
	bl          make_col_a
	mov         w0,w0
	ldr         w9,[sp,#0x48]
	ldr         w8,[sp,#0x18]
	add         w9,w9,w8
	ldr         w8,[sp,#0x44]
	mul         w10,w9,w8
	ldr         w9,[sp,#0x4C]
	ldr         w8,[sp,#0x1C]
	add         w8,w9,w8
	add         w8,w10,w8
	sxtw        x9,w8
	mov         x8,#4
	mul         x9,x9,x8
	ldr         x8,[sp,#0x68]
	add         x8,x8,x9
	str         w0,[x8]

; 81   : 		}

	b           |$LN5@ChBoxBlur|
|$LN6@ChBoxBlur|

; 82   : 	}

	b           |$LN2@ChBoxBlur|
|$LN3@ChBoxBlur|
	ldp         fp,lr,[sp],#0x70
	ret

	ENDP  ; |ChBoxBlur|

	END
