; Listing generated by Microsoft (R) Optimizing Compiler Version 19.29.30159.0 

	TTL	C:\Users\paras\source\repos\grep-name\XenevaOS\Libs\Chitralekha\ARM64\Debug\button.obj
	ARM64

	AREA	|.drectve|, DRECTVE


	AREA	|.rdata|, DATA, READONLY
|$SG5096| DCB	"Button destroyed ", 0xd, 0xa, 0x0
	EXPORT	|ChCreateButton|
	EXPORT	|?ChButtonMouseEvent@@YAXPEAU_ChWidget_@@PEAU_chwin_@@HHH@Z| ; ChButtonMouseEvent
	EXPORT	|?ChButtonTouchEvent@@YAXPEAU_ChWidget_@@PEAU_chwin_@@HH@Z| ; ChButtonTouchEvent
	EXPORT	|?ChButtonDestroy@@YAXPEAU_ChWidget_@@PEAU_chwin_@@@Z| ; ChButtonDestroy
	EXPORT	|?ChButtonDefaultPainter@@YAXPEAU_ChWidget_@@PEAU_chwin_@@@Z| ; ChButtonDefaultPainter
	IMPORT	|_KePrint|
	IMPORT	|ChDrawRect|
	IMPORT	|ChDrawRectUnfilled|
	IMPORT	|malloc|
	IMPORT	|free|
	IMPORT	|ChFontSetSize|
	IMPORT	|ChFontDrawText|
	IMPORT	|ChFontGetWidth|
	IMPORT	|ChWindowUpdate|
	IMPORT	|memset|

	AREA	|.pdata|, PDATA
|$pdata$ChCreateButton| DCD imagerel |$LN8|
	DCD	0x3e001e9
	;Flags[SingleProEpi] functionLength[488] RegF[0] RegI[0] H[0] frameChainReturn[Chained] frameSize[112]
|$pdata$?ChButtonMouseEvent@@YAXPEAU_ChWidget_@@PEAU_chwin_@@HHH@Z| DCD imagerel |$LN14|
	DCD	0x1e00339
	;Flags[SingleProEpi] functionLength[824] RegF[0] RegI[0] H[0] frameChainReturn[Chained] frameSize[48]
|$pdata$?ChButtonTouchEvent@@YAXPEAU_ChWidget_@@PEAU_chwin_@@HH@Z| DCD imagerel |$LN13|
	DCD	0x1e002fd
	;Flags[SingleProEpi] functionLength[764] RegF[0] RegI[0] H[0] frameChainReturn[Chained] frameSize[48]
|$pdata$?ChButtonDestroy@@YAXPEAU_ChWidget_@@PEAU_chwin_@@@Z| DCD imagerel |$LN4|
	DCD	0x1e0006d
	;Flags[SingleProEpi] functionLength[108] RegF[0] RegI[0] H[0] frameChainReturn[Chained] frameSize[48]
|$pdata$?ChButtonDefaultPainter@@YAXPEAU_ChWidget_@@PEAU_chwin_@@@Z| DCD imagerel |$LN14|
	DCD	0x26002e9
	;Flags[SingleProEpi] functionLength[744] RegF[0] RegI[0] H[0] frameChainReturn[Chained] frameSize[64]
; Function compile flags: /Odtp
; File C:\Users\paras\source\repos\grep-name\XenevaOS\Libs\Chitralekha\widgets\button.cpp

	AREA	|.text$mn|, CODE, ARM64

|?ChButtonDefaultPainter@@YAXPEAU_ChWidget_@@PEAU_chwin_@@@Z| PROC ; ChButtonDefaultPainter

; 172  : void ChButtonDefaultPainter(ChWidget* widget, ChWindow* win) {

|$LN14|
	stp         fp,lr,[sp,#-0x40]!
	mov         fp,sp
	str         x0,[sp,#0x20]
	str         x1,[sp,#0x28]

; 173  : 	ChButton* button = (ChButton*)widget;

	ldr         x8,[sp,#0x20]
	str         x8,[sp,#0x30]

; 174  : 
; 175  : 	uint32_t color1 = BUTTON_NORMAL_LIGHT;

	ldr         w8,|$LN6@ChButtonDe|
	str         w8,[sp,#0x10]

; 176  : 	uint32_t color2 = BUTTON_NORMAL_DARK;

	ldr         w8,|$LN7@ChButtonDe|
	str         w8,[sp,#0x14]

; 177  : 
; 178  : 	if (button->base.hover) {

	ldr         x8,[sp,#0x30]
	add         x8,x8,#0x19
	ldrsb       w8,[x8]
	mov         w8,w8
	cmp         w8,#0
	beq         |$LN2@ChButtonDe|

; 179  : 		color1 = BUTTON_HOVER_LIGHT;

	ldr         w8,|$LN8@ChButtonDe|
	str         w8,[sp,#0x10]

; 180  : 		color2 = BUTTON_HOVER_DARK;

	ldr         w8,|$LN9@ChButtonDe|
	str         w8,[sp,#0x14]
|$LN2@ChButtonDe|

; 181  : 	}
; 182  : 
; 183  : 	if (button->base.clicked) {

	ldr         x8,[sp,#0x30]
	add         x8,x8,#0x18
	ldrsb       w8,[x8]
	mov         w8,w8
	cmp         w8,#0
	beq         |$LN3@ChButtonDe|

; 184  : 		color1 = BUTTON_CLICKED_LIGHT;

	ldr         w8,|$LN10@ChButtonDe|
	str         w8,[sp,#0x10]

; 185  : 		color2 = BUTTON_CLICKED_DARK;

	ldr         w8,|$LN11@ChButtonDe|
	str         w8,[sp,#0x14]
|$LN3@ChButtonDe|

; 186  : 	}
; 187  : 
; 188  : 	if (button->base.touched) {

	ldr         x8,[sp,#0x30]
	add         x8,x8,#0x1D
	ldrsb       w8,[x8]
	mov         w8,w8
	cmp         w8,#0
	beq         |$LN4@ChButtonDe|

; 189  : 		color1 = BUTTON_HOVER_LIGHT;

	ldr         w8,|$LN8@ChButtonDe|
	str         w8,[sp,#0x10]

; 190  : 		color2 = BUTTON_HOVER_DARK;

	ldr         w8,|$LN9@ChButtonDe|
	str         w8,[sp,#0x14]
|$LN4@ChButtonDe|

; 191  : 	}
; 192  : 
; 193  : 	ChDrawRect(win->canv, widget->x, widget->y,

	ldr         x8,[sp,#0x20]
	add         x12,x8,#0xC
	ldr         x8,[sp,#0x20]
	add         x11,x8,#8
	ldr         x8,[sp,#0x20]
	add         x10,x8,#4
	ldr         x9,[sp,#0x20]
	ldr         x8,[sp,#0x28]
	add         x8,x8,#0x18
	ldr         w5,[sp,#0x10]
	ldr         w4,[x12]
	ldr         w3,[x11]
	ldr         w2,[x10]
	ldr         w1,[x9]
	ldr         x0,[x8]
	bl          ChDrawRect

; 194  : 		widget->w, widget->h, color1);
; 195  : 	/*ChColorDrawVerticalGradient(win->canv,widget->x, widget->y, 
; 196  : 		widget->w, widget->h, color1, color2);*/
; 197  : 	ChFontSetSize(win->app->baseFont,11);

	ldr         x8,[sp,#0x28]
	add         x8,x8,#0x30
	ldr         x8,[x8]
	add         x8,x8,#0x30
	mov         w1,#0xB
	ldr         x0,[x8]
	bl          ChFontSetSize

; 198  : 	int font_w = ChFontGetWidth(win->app->baseFont, button->title);

	ldr         x8,[sp,#0x30]
	add         x9,x8,#0x50
	ldr         x8,[sp,#0x28]
	add         x8,x8,#0x30
	ldr         x8,[x8]
	add         x8,x8,#0x30
	ldr         x1,[x9]
	ldr         x0,[x8]
	bl          ChFontGetWidth
	mov         w8,w0
	str         w8,[sp,#0x18]

; 199  : 	int font_h = win->app->baseFont->fontHeight;//ChFontGetHeight(win->app->baseFont, button->title);

	ldr         x8,[sp,#0x28]
	add         x8,x8,#0x30
	ldr         x8,[x8]
	add         x8,x8,#0x30
	ldr         x8,[x8]
	add         x8,x8,#0x20
	ldr         w8,[x8]
	str         w8,[sp,#0x1C]

; 200  : 	ChFontDrawText(win->canv, win->app->baseFont, button->title,widget->x + widget->w/2 - font_w/2,

	ldr         x8,[sp,#0x20]
	add         x10,x8,#4
	ldr         x8,[sp,#0x20]
	add         x8,x8,#0xC
	ldr         w9,[x8]
	mov         w8,#2
	sdiv        w9,w9,w8
	ldr         w8,[x10]
	add         w8,w8,w9
	add         w4,w8,#4
	ldr         x10,[sp,#0x20]
	ldr         x8,[sp,#0x20]
	add         x8,x8,#8
	ldr         w9,[x8]
	mov         w8,#2
	sdiv        w9,w9,w8
	ldr         w8,[x10]
	add         w10,w8,w9
	ldr         w9,[sp,#0x18]
	mov         w8,#2
	sdiv        w8,w9,w8
	sub         w3,w10,w8
	ldr         x8,[sp,#0x30]
	add         x10,x8,#0x50
	ldr         x8,[sp,#0x28]
	add         x8,x8,#0x30
	ldr         x8,[x8]
	add         x9,x8,#0x30
	ldr         x8,[sp,#0x28]
	add         x8,x8,#0x18
	mov         w6,#-1
	mov         w5,#0xB
	mov         w4,w4
	mov         w3,w3
	ldr         x2,[x10]
	ldr         x1,[x9]
	ldr         x0,[x8]
	bl          ChFontDrawText

; 201  : 		widget->y + widget->h/2 + 4 , 11, WHITE);
; 202  : 	ChDrawRectUnfilled(win->canv, widget->x, widget->y,

	ldr         x8,[sp,#0x20]
	add         x12,x8,#0xC
	ldr         x8,[sp,#0x20]
	add         x11,x8,#8
	ldr         x8,[sp,#0x20]
	add         x10,x8,#4
	ldr         x9,[sp,#0x20]
	ldr         x8,[sp,#0x28]
	add         x8,x8,#0x18
	ldr         w5,|$LN12@ChButtonDe|
	ldr         w4,[x12]
	ldr         w3,[x11]
	ldr         w2,[x10]
	ldr         w1,[x9]
	ldr         x0,[x8]
	bl          ChDrawRectUnfilled

; 203  : 		widget->w, widget->h, GRAY);
; 204  : 	ChDrawRectUnfilled(win->canv, widget->x+1, widget->y+1,

	ldr         x8,[sp,#0x20]
	add         x8,x8,#0xC
	ldr         w8,[x8]
	sub         w4,w8,#2
	ldr         x8,[sp,#0x20]
	add         x8,x8,#8
	ldr         w8,[x8]
	sub         w3,w8,#2
	ldr         x8,[sp,#0x20]
	add         x8,x8,#4
	ldr         w8,[x8]
	add         w2,w8,#1
	ldr         x8,[sp,#0x20]
	ldr         w8,[x8]
	add         w1,w8,#1
	ldr         x8,[sp,#0x28]
	add         x8,x8,#0x18
	ldr         w5,|$LN13@ChButtonDe|
	mov         w4,w4
	mov         w3,w3
	mov         w2,w2
	mov         w1,w1
	ldr         x0,[x8]
	bl          ChDrawRectUnfilled

; 205  : 		widget->w-2, widget->h-2, 0xFF9A9A9A);
; 206  : 	ChDrawRectUnfilled(win->canv, widget->x + 2, widget->y + 2,

	ldr         x8,[sp,#0x20]
	add         x8,x8,#0xC
	ldr         w8,[x8]
	sub         w4,w8,#4
	ldr         x8,[sp,#0x20]
	add         x8,x8,#8
	ldr         w8,[x8]
	sub         w3,w8,#4
	ldr         x8,[sp,#0x20]
	add         x8,x8,#4
	ldr         w8,[x8]
	add         w2,w8,#2
	ldr         x8,[sp,#0x20]
	ldr         w8,[x8]
	add         w1,w8,#2
	ldr         x8,[sp,#0x28]
	add         x8,x8,#0x18
	ldr         w5,|$LN13@ChButtonDe|
	mov         w4,w4
	mov         w3,w3
	mov         w2,w2
	mov         w1,w1
	ldr         x0,[x8]
	bl          ChDrawRectUnfilled
	ldp         fp,lr,[sp],#0x40
	ret
|$LN6@ChButtonDe|
	DCD         0xff454343
|$LN7@ChButtonDe|
	DCD         0xff252525
|$LN8@ChButtonDe|
	DCD         0xff3f8eda
|$LN9@ChButtonDe|
	DCD         0xff0463c0
|$LN10@ChButtonDe|
	DCD         0xff485a6c
|$LN11@ChButtonDe|
	DCD         0xff374e64
|$LN12@ChButtonDe|
	DCD         0xff808080
|$LN13@ChButtonDe|
	DCD         0xff9a9a9a

	ENDP  ; |?ChButtonDefaultPainter@@YAXPEAU_ChWidget_@@PEAU_chwin_@@@Z|, ChButtonDefaultPainter

; Function compile flags: /Odtp
; File C:\Users\paras\source\repos\grep-name\XenevaOS\Libs\Chitralekha\widgets\button.cpp

	AREA	|.text$mn|, CODE, ARM64

|?ChButtonDestroy@@YAXPEAU_ChWidget_@@PEAU_chwin_@@@Z| PROC ; ChButtonDestroy

; 158  : void ChButtonDestroy(ChWidget *widget, ChWindow* win) {

|$LN4|
	stp         fp,lr,[sp,#-0x30]!
	mov         fp,sp
	str         x0,[sp,#0x10]
	str         x1,[sp,#0x18]

; 159  : 	ChButton* but = (ChButton*)widget;

	ldr         x8,[sp,#0x10]
	str         x8,[sp,#0x20]

; 160  : 	if (win->focusedWidget == widget)

	ldr         x8,[sp,#0x18]
	add         x8,x8,#0x80
	ldr         x9,[sp,#0x10]
	ldr         x8,[x8]
	cmp         x8,x9
	bne         |$LN2@ChButtonDe|

; 161  : 		win->focusedWidget = NULL;

	ldr         x8,[sp,#0x18]
	add         x9,x8,#0x80
	mov         x8,#0
	str         x8,[x9]
|$LN2@ChButtonDe|

; 162  : 	free(but->title);

	ldr         x8,[sp,#0x20]
	add         x8,x8,#0x50
	ldr         x0,[x8]
	bl          free

; 163  : 	free(but);

	ldr         x0,[sp,#0x20]
	bl          free

; 164  : 	_KePrint("Button destroyed \r\n");

	adrp        x8,|$SG5096|
	add         x0,x8,PageOffset(|$SG5096|)
	bl          _KePrint
	ldp         fp,lr,[sp],#0x30
	ret

	ENDP  ; |?ChButtonDestroy@@YAXPEAU_ChWidget_@@PEAU_chwin_@@@Z|, ChButtonDestroy

; Function compile flags: /Odtp
; File C:\Users\paras\source\repos\grep-name\XenevaOS\Libs\Chitralekha\widgets\button.cpp

	AREA	|.text$mn|, CODE, ARM64

|?ChButtonTouchEvent@@YAXPEAU_ChWidget_@@PEAU_chwin_@@HH@Z| PROC ; ChButtonTouchEvent

; 107  : void ChButtonTouchEvent(ChWidget* wid, ChWindow* win, int x, int y) {

|$LN13|
	stp         fp,lr,[sp,#-0x30]!
	mov         fp,sp
	str         x0,[sp,#0x20]
	str         x1,[sp,#0x28]
	str         w2,[sp,#0x14]
	str         w3,[sp,#0x18]

; 108  : 	if (!wid->KillFocus) {

	ldr         x8,[sp,#0x20]
	add         x8,x8,#0x1B
	ldrsb       w8,[x8]
	mov         w8,w8
	cmp         w8,#0
	bne         |$LN2@ChButtonTo|

; 109  : 		wid->clicked = true;

	ldr         x8,[sp,#0x20]
	add         x9,x8,#0x18
	mov         w8,#1
	strb        w8,[x9]

; 110  : 		wid->touched = true;

	ldr         x8,[sp,#0x20]
	add         x9,x8,#0x1D
	mov         w8,#1
	strb        w8,[x9]
|$LN2@ChButtonTo|

; 111  : 	}
; 112  : 
; 113  : 	if (wid->KillFocus) {

	ldr         x8,[sp,#0x20]
	add         x8,x8,#0x1B
	ldrsb       w8,[x8]
	mov         w8,w8
	cmp         w8,#0
	beq         |$LN3@ChButtonTo|

; 114  : 		wid->clicked = false;

	ldr         x8,[sp,#0x20]
	add         x9,x8,#0x18
	mov         w8,#0
	strb        w8,[x9]

; 115  : 		wid->touched = false;

	ldr         x8,[sp,#0x20]
	add         x9,x8,#0x1D
	mov         w8,#0
	strb        w8,[x9]
|$LN3@ChButtonTo|

; 116  : 	}
; 117  : 
; 118  : 	if (!wid->hoverPainted && wid->hover) {

	ldr         x8,[sp,#0x20]
	add         x8,x8,#0x1A
	ldrsb       w8,[x8]
	mov         w8,w8
	cmp         w8,#0
	bne         |$LN4@ChButtonTo|
	ldr         x8,[sp,#0x20]
	add         x8,x8,#0x19
	ldrsb       w8,[x8]
	mov         w8,w8
	cmp         w8,#0
	beq         |$LN4@ChButtonTo|

; 119  : 		if (wid->ChPaintHandler)

	ldr         x8,[sp,#0x20]
	add         x8,x8,#0x40
	ldr         x8,[x8]
	cmp         x8,#0
	beq         |$LN5@ChButtonTo|

; 120  : 			wid->ChPaintHandler(wid, win);

	ldr         x8,[sp,#0x20]
	add         x8,x8,#0x40
	ldr         x1,[sp,#0x28]
	ldr         x0,[sp,#0x20]
	ldr         x8,[x8]
	blr         x8
|$LN5@ChButtonTo|

; 121  : 		ChWindowUpdate(win, wid->x,

	ldr         x8,[sp,#0x20]
	add         x11,x8,#0xC
	ldr         x8,[sp,#0x20]
	add         x10,x8,#8
	ldr         x8,[sp,#0x20]
	add         x9,x8,#4
	ldr         x8,[sp,#0x20]
	mov         w6,#1
	mov         w5,#0
	ldr         w4,[x11]
	ldr         w3,[x10]
	ldr         w2,[x9]
	ldr         w1,[x8]
	ldr         x0,[sp,#0x28]
	bl          ChWindowUpdate

; 122  : 			wid->y, wid->w, wid->h, false, true);
; 123  : 		wid->hoverPainted = true;

	ldr         x8,[sp,#0x20]
	add         x9,x8,#0x1A
	mov         w8,#1
	strb        w8,[x9]
|$LN4@ChButtonTo|

; 124  : 	}
; 125  : 
; 126  : 	if (!wid->hover && wid->clicked == false) {

	ldr         x8,[sp,#0x20]
	add         x8,x8,#0x19
	ldrsb       w8,[x8]
	mov         w8,w8
	cmp         w8,#0
	bne         |$LN6@ChButtonTo|
	ldr         x8,[sp,#0x20]
	add         x8,x8,#0x18
	ldrsb       w8,[x8]
	mov         w8,w8
	cmp         w8,#0
	bne         |$LN6@ChButtonTo|

; 127  : 		wid->hoverPainted = false;

	ldr         x8,[sp,#0x20]
	add         x9,x8,#0x1A
	mov         w8,#0
	strb        w8,[x9]

; 128  : 		if (wid->ChPaintHandler)

	ldr         x8,[sp,#0x20]
	add         x8,x8,#0x40
	ldr         x8,[x8]
	cmp         x8,#0
	beq         |$LN7@ChButtonTo|

; 129  : 			wid->ChPaintHandler(wid, win);

	ldr         x8,[sp,#0x20]
	add         x8,x8,#0x40
	ldr         x1,[sp,#0x28]
	ldr         x0,[sp,#0x20]
	ldr         x8,[x8]
	blr         x8
|$LN7@ChButtonTo|

; 130  : 		ChWindowUpdate(win, wid->x,

	ldr         x8,[sp,#0x20]
	add         x11,x8,#0xC
	ldr         x8,[sp,#0x20]
	add         x10,x8,#8
	ldr         x8,[sp,#0x20]
	add         x9,x8,#4
	ldr         x8,[sp,#0x20]
	mov         w6,#1
	mov         w5,#0
	ldr         w4,[x11]
	ldr         w3,[x10]
	ldr         w2,[x9]
	ldr         w1,[x8]
	ldr         x0,[sp,#0x28]
	bl          ChWindowUpdate
|$LN6@ChButtonTo|

; 131  : 			wid->y, wid->w, wid->h, false, true);
; 132  : 	}
; 133  : 
; 134  : 	bool _action_required = false;

	mov         w8,#0
	strb        w8,[sp,#0x10]

; 135  : 	if (wid->clicked) {

	ldr         x8,[sp,#0x20]
	add         x8,x8,#0x18
	ldrsb       w8,[x8]
	mov         w8,w8
	cmp         w8,#0
	beq         |$LN8@ChButtonTo|

; 136  : 		if (wid->ChPaintHandler)

	ldr         x8,[sp,#0x20]
	add         x8,x8,#0x40
	ldr         x8,[x8]
	cmp         x8,#0
	beq         |$LN9@ChButtonTo|

; 137  : 			wid->ChPaintHandler(wid, win);

	ldr         x8,[sp,#0x20]
	add         x8,x8,#0x40
	ldr         x1,[sp,#0x28]
	ldr         x0,[sp,#0x20]
	ldr         x8,[x8]
	blr         x8
|$LN9@ChButtonTo|

; 138  : 		ChWindowUpdate(win, wid->x,

	ldr         x8,[sp,#0x20]
	add         x11,x8,#0xC
	ldr         x8,[sp,#0x20]
	add         x10,x8,#8
	ldr         x8,[sp,#0x20]
	add         x9,x8,#4
	ldr         x8,[sp,#0x20]
	mov         w6,#1
	mov         w5,#0
	ldr         w4,[x11]
	ldr         w3,[x10]
	ldr         w2,[x9]
	ldr         w1,[x8]
	ldr         x0,[sp,#0x28]
	bl          ChWindowUpdate

; 139  : 			wid->y, wid->w, wid->h, false, true);
; 140  : 
; 141  : 		_action_required = true;

	mov         w8,#1
	strb        w8,[sp,#0x10]

; 142  : 		win->focusedWidget = wid;

	ldr         x8,[sp,#0x28]
	add         x9,x8,#0x80
	ldr         x8,[sp,#0x20]
	str         x8,[x9]

; 143  : 		wid->hoverPainted = false;

	ldr         x8,[sp,#0x20]
	add         x9,x8,#0x1A
	mov         w8,#0
	strb        w8,[x9]

; 144  : 		wid->clicked = false;

	ldr         x8,[sp,#0x20]
	add         x9,x8,#0x18
	mov         w8,#0
	strb        w8,[x9]
|$LN8@ChButtonTo|

; 145  : 	}
; 146  : 
; 147  : 	if (_action_required) {

	ldrsb       w8,[sp,#0x10]
	mov         w8,w8
	cmp         w8,#0
	beq         |$LN10@ChButtonTo|

; 148  : 		/* call the action handler */
; 149  : 		if (wid->ChActionHandler)

	ldr         x8,[sp,#0x20]
	add         x8,x8,#0x20
	ldr         x8,[x8]
	cmp         x8,#0
	beq         |$LN11@ChButtonTo|

; 150  : 			wid->ChActionHandler(wid, win);

	ldr         x8,[sp,#0x20]
	add         x8,x8,#0x20
	ldr         x1,[sp,#0x28]
	ldr         x0,[sp,#0x20]
	ldr         x8,[x8]
	blr         x8
|$LN11@ChButtonTo|
|$LN10@ChButtonTo|

; 151  : 	}
; 152  : 
; 153  : 	wid->lastMouseX = x;

	ldr         x8,[sp,#0x20]
	add         x9,x8,#0x10
	ldr         w8,[sp,#0x14]
	str         w8,[x9]

; 154  : 	wid->lastMouseY = y;

	ldr         x8,[sp,#0x20]
	add         x9,x8,#0x14
	ldr         w8,[sp,#0x18]
	str         w8,[x9]
	ldp         fp,lr,[sp],#0x30
	ret

	ENDP  ; |?ChButtonTouchEvent@@YAXPEAU_ChWidget_@@PEAU_chwin_@@HH@Z|, ChButtonTouchEvent

; Function compile flags: /Odtp
; File C:\Users\paras\source\repos\grep-name\XenevaOS\Libs\Chitralekha\widgets\button.cpp

	AREA	|.text$mn|, CODE, ARM64

|?ChButtonMouseEvent@@YAXPEAU_ChWidget_@@PEAU_chwin_@@HHH@Z| PROC ; ChButtonMouseEvent

; 58   : void ChButtonMouseEvent(ChWidget* wid, ChWindow* win, int x, int y, int button) {

|$LN14|
	stp         fp,lr,[sp,#-0x30]!
	mov         fp,sp
	str         x0,[sp,#0x20]
	str         x1,[sp,#0x28]
	str         w2,[sp,#0x18]
	str         w3,[sp,#0x1C]
	str         w4,[sp,#0x14]

; 59   : 	if (button && !wid->KillFocus)

	ldr         w8,[sp,#0x14]
	cmp         w8,#0
	beq         |$LN2@ChButtonMo|
	ldr         x8,[sp,#0x20]
	add         x8,x8,#0x1B
	ldrsb       w8,[x8]
	mov         w8,w8
	cmp         w8,#0
	bne         |$LN2@ChButtonMo|

; 60   : 		wid->clicked = true;

	ldr         x8,[sp,#0x20]
	add         x9,x8,#0x18
	mov         w8,#1
	strb        w8,[x9]
|$LN2@ChButtonMo|

; 61   : 
; 62   : 	if (button == 0)

	ldr         w8,[sp,#0x14]
	cmp         w8,#0
	bne         |$LN3@ChButtonMo|

; 63   : 		wid->clicked = false;

	ldr         x8,[sp,#0x20]
	add         x9,x8,#0x18
	mov         w8,#0
	strb        w8,[x9]
|$LN3@ChButtonMo|

; 64   : 
; 65   : 	if (wid->KillFocus)

	ldr         x8,[sp,#0x20]
	add         x8,x8,#0x1B
	ldrsb       w8,[x8]
	mov         w8,w8
	cmp         w8,#0
	beq         |$LN4@ChButtonMo|

; 66   : 		wid->clicked = false;

	ldr         x8,[sp,#0x20]
	add         x9,x8,#0x18
	mov         w8,#0
	strb        w8,[x9]
|$LN4@ChButtonMo|

; 67   : 
; 68   : 	if (!wid->hoverPainted && wid->hover) {

	ldr         x8,[sp,#0x20]
	add         x8,x8,#0x1A
	ldrsb       w8,[x8]
	mov         w8,w8
	cmp         w8,#0
	bne         |$LN5@ChButtonMo|
	ldr         x8,[sp,#0x20]
	add         x8,x8,#0x19
	ldrsb       w8,[x8]
	mov         w8,w8
	cmp         w8,#0
	beq         |$LN5@ChButtonMo|

; 69   : 		if (wid->ChPaintHandler)

	ldr         x8,[sp,#0x20]
	add         x8,x8,#0x40
	ldr         x8,[x8]
	cmp         x8,#0
	beq         |$LN6@ChButtonMo|

; 70   : 			wid->ChPaintHandler(wid, win);

	ldr         x8,[sp,#0x20]
	add         x8,x8,#0x40
	ldr         x1,[sp,#0x28]
	ldr         x0,[sp,#0x20]
	ldr         x8,[x8]
	blr         x8
|$LN6@ChButtonMo|

; 71   : 		ChWindowUpdate(win,wid->x,

	ldr         x8,[sp,#0x20]
	add         x11,x8,#0xC
	ldr         x8,[sp,#0x20]
	add         x10,x8,#8
	ldr         x8,[sp,#0x20]
	add         x9,x8,#4
	ldr         x8,[sp,#0x20]
	mov         w6,#1
	mov         w5,#0
	ldr         w4,[x11]
	ldr         w3,[x10]
	ldr         w2,[x9]
	ldr         w1,[x8]
	ldr         x0,[sp,#0x28]
	bl          ChWindowUpdate

; 72   : 			wid->y, wid->w, wid->h, false, true);
; 73   : 		wid->hoverPainted = true;

	ldr         x8,[sp,#0x20]
	add         x9,x8,#0x1A
	mov         w8,#1
	strb        w8,[x9]
|$LN5@ChButtonMo|

; 74   : 	}
; 75   : 
; 76   : 	if (!wid->hover && wid->clicked == false) {

	ldr         x8,[sp,#0x20]
	add         x8,x8,#0x19
	ldrsb       w8,[x8]
	mov         w8,w8
	cmp         w8,#0
	bne         |$LN7@ChButtonMo|
	ldr         x8,[sp,#0x20]
	add         x8,x8,#0x18
	ldrsb       w8,[x8]
	mov         w8,w8
	cmp         w8,#0
	bne         |$LN7@ChButtonMo|

; 77   : 		wid->hoverPainted = false;

	ldr         x8,[sp,#0x20]
	add         x9,x8,#0x1A
	mov         w8,#0
	strb        w8,[x9]

; 78   : 		if (wid->ChPaintHandler)

	ldr         x8,[sp,#0x20]
	add         x8,x8,#0x40
	ldr         x8,[x8]
	cmp         x8,#0
	beq         |$LN8@ChButtonMo|

; 79   : 			wid->ChPaintHandler(wid, win);

	ldr         x8,[sp,#0x20]
	add         x8,x8,#0x40
	ldr         x1,[sp,#0x28]
	ldr         x0,[sp,#0x20]
	ldr         x8,[x8]
	blr         x8
|$LN8@ChButtonMo|

; 80   : 		ChWindowUpdate(win,wid->x,

	ldr         x8,[sp,#0x20]
	add         x11,x8,#0xC
	ldr         x8,[sp,#0x20]
	add         x10,x8,#8
	ldr         x8,[sp,#0x20]
	add         x9,x8,#4
	ldr         x8,[sp,#0x20]
	mov         w6,#1
	mov         w5,#0
	ldr         w4,[x11]
	ldr         w3,[x10]
	ldr         w2,[x9]
	ldr         w1,[x8]
	ldr         x0,[sp,#0x28]
	bl          ChWindowUpdate
|$LN7@ChButtonMo|

; 81   : 			wid->y, wid->w, wid->h, false, true);
; 82   : 	}
; 83   : 
; 84   : 	bool _action_required = false;

	mov         w8,#0
	strb        w8,[sp,#0x10]

; 85   : 	if (wid->clicked && wid->lastMouseX == x && wid->lastMouseY == y) {

	ldr         x8,[sp,#0x20]
	add         x8,x8,#0x18
	ldrsb       w8,[x8]
	mov         w8,w8
	cmp         w8,#0
	beq         |$LN9@ChButtonMo|
	ldr         x8,[sp,#0x20]
	add         x8,x8,#0x10
	ldr         w9,[sp,#0x18]
	ldr         w8,[x8]
	cmp         w8,w9
	bne         |$LN9@ChButtonMo|
	ldr         x8,[sp,#0x20]
	add         x8,x8,#0x14
	ldr         w9,[sp,#0x1C]
	ldr         w8,[x8]
	cmp         w8,w9
	bne         |$LN9@ChButtonMo|

; 86   : 		if (wid->ChPaintHandler)

	ldr         x8,[sp,#0x20]
	add         x8,x8,#0x40
	ldr         x8,[x8]
	cmp         x8,#0
	beq         |$LN10@ChButtonMo|

; 87   : 			wid->ChPaintHandler(wid, win);

	ldr         x8,[sp,#0x20]
	add         x8,x8,#0x40
	ldr         x1,[sp,#0x28]
	ldr         x0,[sp,#0x20]
	ldr         x8,[x8]
	blr         x8
|$LN10@ChButtonMo|

; 88   : 		ChWindowUpdate(win,wid->x,

	ldr         x8,[sp,#0x20]
	add         x11,x8,#0xC
	ldr         x8,[sp,#0x20]
	add         x10,x8,#8
	ldr         x8,[sp,#0x20]
	add         x9,x8,#4
	ldr         x8,[sp,#0x20]
	mov         w6,#1
	mov         w5,#0
	ldr         w4,[x11]
	ldr         w3,[x10]
	ldr         w2,[x9]
	ldr         w1,[x8]
	ldr         x0,[sp,#0x28]
	bl          ChWindowUpdate

; 89   : 			wid->y, wid->w, wid->h, false, true);
; 90   : 
; 91   : 		_action_required = true;

	mov         w8,#1
	strb        w8,[sp,#0x10]

; 92   : 		win->focusedWidget = wid;

	ldr         x8,[sp,#0x28]
	add         x9,x8,#0x80
	ldr         x8,[sp,#0x20]
	str         x8,[x9]

; 93   : 		wid->hoverPainted = false;

	ldr         x8,[sp,#0x20]
	add         x9,x8,#0x1A
	mov         w8,#0
	strb        w8,[x9]

; 94   : 		wid->clicked = false;

	ldr         x8,[sp,#0x20]
	add         x9,x8,#0x18
	mov         w8,#0
	strb        w8,[x9]
|$LN9@ChButtonMo|

; 95   : 	}
; 96   : 
; 97   : 	if (_action_required){

	ldrsb       w8,[sp,#0x10]
	mov         w8,w8
	cmp         w8,#0
	beq         |$LN11@ChButtonMo|

; 98   : 		/* call the action handler */
; 99   : 		if (wid->ChActionHandler)

	ldr         x8,[sp,#0x20]
	add         x8,x8,#0x20
	ldr         x8,[x8]
	cmp         x8,#0
	beq         |$LN12@ChButtonMo|

; 100  : 			wid->ChActionHandler(wid, win);

	ldr         x8,[sp,#0x20]
	add         x8,x8,#0x20
	ldr         x1,[sp,#0x28]
	ldr         x0,[sp,#0x20]
	ldr         x8,[x8]
	blr         x8
|$LN12@ChButtonMo|
|$LN11@ChButtonMo|

; 101  : 	}
; 102  : 
; 103  : 	wid->lastMouseX = x;

	ldr         x8,[sp,#0x20]
	add         x9,x8,#0x10
	ldr         w8,[sp,#0x18]
	str         w8,[x9]

; 104  : 	wid->lastMouseY = y;

	ldr         x8,[sp,#0x20]
	add         x9,x8,#0x14
	ldr         w8,[sp,#0x1C]
	str         w8,[x9]
	ldp         fp,lr,[sp],#0x30
	ret

	ENDP  ; |?ChButtonMouseEvent@@YAXPEAU_ChWidget_@@PEAU_chwin_@@HHH@Z|, ChButtonMouseEvent

; Function compile flags: /Odtp
; File C:\Users\paras\source\repos\grep-name\XenevaOS\Libs\Chitralekha\widgets\button.cpp

	AREA	|.text$mn|, CODE, ARM64

|ChCreateButton| PROC

; 217  : XE_EXTERN XE_EXPORT ChButton* ChCreateButton(int x, int y, int w, int h, char *text) {

|$LN8|
	stp         fp,lr,[sp,#-0x70]!
	mov         fp,sp
	str         w0,[sp,#0x40]
	str         w1,[sp,#0x44]
	str         w2,[sp,#0x48]
	str         w3,[sp,#0x4C]
	str         x4,[sp,#0x20]

; 218  : 	ChButton* button = (ChButton*)malloc(sizeof(ChButton));

	mov         w0,#0x58
	bl          malloc
	str         x0,[sp,#0x18]

; 219  : 	memset(button, 0, sizeof(ChButton));

	ldr         x9,[sp,#0x18]
	mov         x8,#0
	stp         x8,x8,[x9]
	stp         x8,x8,[x9,#0x10]
	stp         x8,x8,[x9,#0x20]
	stp         x8,x8,[x9,#0x30]
	stp         x8,x8,[x9,#0x40]
	str         x8,[x9,#0x50]

; 220  : 	button->base.x =CHITRALEKHA_WINDOW_DEFAULT_PAD_X + x;

	ldr         w8,[sp,#0x40]
	add         w9,w8,#1
	ldr         x8,[sp,#0x18]
	str         w9,[x8]

; 221  : 	button->base.y =CHITRALEKHA_WINDOW_DEFAULT_PAD_Y + y;

	ldr         w8,[sp,#0x44]
	add         w9,w8,#0x1A
	ldr         x8,[sp,#0x18]
	add         x8,x8,#4
	str         w9,[x8]

; 222  : 	button->base.w = w;

	ldr         x8,[sp,#0x18]
	add         x9,x8,#8
	ldr         w8,[sp,#0x48]
	str         w8,[x9]

; 223  : 	button->base.h = h;

	ldr         x8,[sp,#0x18]
	add         x9,x8,#0xC
	ldr         w8,[sp,#0x4C]
	str         w8,[x9]

; 224  : 	button->title = (char*)malloc(strlen(text));

	ldr         x8,[sp,#0x20]
	str         x8,[sp,#0x28]
|$LN4@ChCreateBu|
	ldr         x8,[sp,#0x28]
	ldrsb       w8,[x8]
	cmp         w8,#0
	beq         |$LN3@ChCreateBu|
	ldr         x8,[sp,#0x28]
	add         x8,x8,#1
	str         x8,[sp,#0x28]
	b           |$LN4@ChCreateBu|
|$LN3@ChCreateBu|
	ldr         x9,[sp,#0x28]
	ldr         x8,[sp,#0x20]
	sub         x8,x9,x8
	str         x8,[sp,#0x58]
	ldr         x8,[sp,#0x58]
	mov         w0,w8
	mov         w0,w0
	bl          malloc
	ldr         x8,[sp,#0x18]
	add         x8,x8,#0x50
	str         x0,[x8]

; 225  : 	memset(button->title, 0, strlen(text));

	ldr         x8,[sp,#0x20]
	str         x8,[sp,#0x30]
|$LN6@ChCreateBu|
	ldr         x8,[sp,#0x30]
	ldrsb       w8,[x8]
	cmp         w8,#0
	beq         |$LN5@ChCreateBu|
	ldr         x8,[sp,#0x30]
	add         x8,x8,#1
	str         x8,[sp,#0x30]
	b           |$LN6@ChCreateBu|
|$LN5@ChCreateBu|
	ldr         x9,[sp,#0x30]
	ldr         x8,[sp,#0x20]
	sub         x8,x9,x8
	str         x8,[sp,#0x60]
	ldr         x8,[sp,#0x18]
	add         x8,x8,#0x50
	ldr         x2,[sp,#0x60]
	mov         w1,#0
	ldr         x0,[x8]
	bl          memset

; 226  : 	strcpy(button->title, text);

	ldr         x8,[sp,#0x20]
	str         x8,[sp,#0x50]
	ldr         x8,[sp,#0x18]
	add         x8,x8,#0x50
	ldr         x8,[x8]
	str         x8,[sp,#0x38]
	ldr         x8,[sp,#0x38]
	str         x8,[sp,#0x68]
|$LN7@ChCreateBu|
	ldr         x8,[sp,#0x50]
	ldrsb       w8,[x8]
	strb        w8,[sp,#0x10]
	ldr         x9,[sp,#0x38]
	ldrsb       w8,[sp,#0x10]
	strb        w8,[x9]
	ldr         x8,[sp,#0x50]
	add         x8,x8,#1
	str         x8,[sp,#0x50]
	ldr         x8,[sp,#0x38]
	add         x8,x8,#1
	str         x8,[sp,#0x38]
	ldrsb       w8,[sp,#0x10]
	cmp         w8,#0
	bne         |$LN7@ChCreateBu|

; 227  : 	button->base.ChMouseEvent = ChButtonMouseEvent;

	ldr         x8,[sp,#0x18]
	add         x9,x8,#0x28
	adrp        x8,|?ChButtonMouseEvent@@YAXPEAU_ChWidget_@@PEAU_chwin_@@HHH@Z|
	add         x8,x8,PageOffset(|?ChButtonMouseEvent@@YAXPEAU_ChWidget_@@PEAU_chwin_@@HHH@Z|)
	str         x8,[x9]

; 228  : 	button->base.ChPaintHandler = ChButtonDefaultPainter;

	ldr         x8,[sp,#0x18]
	add         x9,x8,#0x40
	adrp        x8,|?ChButtonDefaultPainter@@YAXPEAU_ChWidget_@@PEAU_chwin_@@@Z|
	add         x8,x8,PageOffset(|?ChButtonDefaultPainter@@YAXPEAU_ChWidget_@@PEAU_chwin_@@@Z|)
	str         x8,[x9]

; 229  : 	button->base.ChDestroy = ChButtonDestroy;

	ldr         x8,[sp,#0x18]
	add         x9,x8,#0x48
	adrp        x8,|?ChButtonDestroy@@YAXPEAU_ChWidget_@@PEAU_chwin_@@@Z|
	add         x8,x8,PageOffset(|?ChButtonDestroy@@YAXPEAU_ChWidget_@@PEAU_chwin_@@@Z|)
	str         x8,[x9]

; 230  : 	button->base.ChTouchEvent = ChButtonTouchEvent;

	ldr         x8,[sp,#0x18]
	add         x9,x8,#0x30
	adrp        x8,|?ChButtonTouchEvent@@YAXPEAU_ChWidget_@@PEAU_chwin_@@HH@Z|
	add         x8,x8,PageOffset(|?ChButtonTouchEvent@@YAXPEAU_ChWidget_@@PEAU_chwin_@@HH@Z|)
	str         x8,[x9]

; 231  : 	return button;

	ldr         x0,[sp,#0x18]
	ldp         fp,lr,[sp],#0x70
	ret

	ENDP  ; |ChCreateButton|

	END
