; Listing generated by Microsoft (R) Optimizing Compiler Version 19.29.30159.0 

	TTL	E:\Xeneva Project\Aurora\Libs\Chitralekha\ARM64\Debug\chitralekha.obj
	ARM64

	AREA	|.drectve|, DRECTVE

	EXPORT	|_fltused| [ DATA ]

	AREA	|.rdata|, DATA, READONLY
|$SG3602| DCB	"Chitralekha Graphics Library v1.0 ", 0xa, 0x0
	%	4
|$SG3616| DCB	"/dev/graph", 0x0
	%	5
|$SG3628| DCB	"Buffer allocated, canvas : %x ", 0xa, 0x0
|$SG3673| DCB	"ChDrawPixel : suspected canvas address : %x ", 0xa, 0x0
	%	2
|$SG3675| DCB	"ChDrawPixel : suspected lfb address : %x ", 0xa, 0x0
	%	5
|$SG3677| DCB	"ChDrawPixel : corrupted x -> %d ", 0xd, 0xa, 0x0
	%	5
|$SG3692| DCB	"ChDrawPixel : suspected canvas address : %x ", 0xa, 0x0
	%	2
|$SG3694| DCB	"ChDrawPixel : suspected lfb address : %x ", 0xa, 0x0
	%	5
|$SG3696| DCB	"ChDrawPixel : corrupted x -> %d ", 0xd, 0xa, 0x0
	%	5
|$SG3698| DCB	"ChDrawPixel : corrupted y -> %d ", 0xd, 0xa, 0x0
	%	5
|$SG3700| DCB	"ChDrawPixel : corrupted x > canvasWidth ", 0xd, 0xa, 0x0
	%	5
|$SG3702| DCB	"ChDrawPixel : corrupted y > canvasHeight ", 0xd, 0xa, 0x0
	%	4
|$SG3720| DCB	"ChGetPixel : corrupted x -> %d ", 0xd, 0xa, 0x0
	%	6
|$SG3722| DCB	"ChGetPixel : corrupted y -> %d ", 0xd, 0xa, 0x0
	%	6
|$SG3724| DCB	"ChGetPixel: corrupted x > canvasWidth -> %x ", 0xd, 0xa, 0x0
	%	1
|$SG3726| DCB	"ChGetPixel: corrupted y > canvasHeight -> %x ", 0xd, 0xa
	DCB	0x0

	AREA	|.data|, DATA
|_fltused| DCD	0x1
	EXPORT	|ChPrintLibName|
	EXPORT	|ChCreateCanvas|
	EXPORT	|ChAllocateBuffer|
	EXPORT	|ChDeAllocateBuffer|
	EXPORT	|ChCanvasScreenUpdate|
	EXPORT	|ChDrawPixel|
	EXPORT	|ChDrawPixelRAW|
	EXPORT	|ChDrawPixelAA|
	EXPORT	|ChGetPixel|
	EXPORT	|ChCanvasFill|
	EXPORT	|ChGetScreenDiagonal|
	EXPORT	|ChGetScreenDPI|
	EXPORT	|ChGetScreenAspectRatio|
	IMPORT	|_KePrint|
	IMPORT	|_KeOpenFile|
	IMPORT	|_KeFileIoControl|
	IMPORT	|_KeMemMap|
	IMPORT	|_KeMemUnmap|
	IMPORT	|malloc|
	IMPORT	|_fastcpy|
	IMPORT	|ChColorAlphaBlend|
	IMPORT	|_fltused|

	AREA	|.pdata|, PDATA
|$pdata$ChPrintLibName| DCD imagerel |$LN3|
	DCD	0xe00021
	;Flags[SingleProEpi] functionLength[32] RegF[0] RegI[0] H[0] frameChainReturn[Chained] frameSize[16]
|$pdata$ChCreateCanvas| DCD imagerel |$LN4|
	DCD	0x2e001b9
	;Flags[SingleProEpi] functionLength[440] RegF[0] RegI[0] H[0] frameChainReturn[Chained] frameSize[80]
|$pdata$ChAllocateBuffer| DCD imagerel |$LN5|
	DCD	0x1e000ed
	;Flags[SingleProEpi] functionLength[236] RegF[0] RegI[0] H[0] frameChainReturn[Chained] frameSize[48]
|$pdata$ChDeAllocateBuffer| DCD imagerel |$LN4|
	DCD	0x1600051
	;Flags[SingleProEpi] functionLength[80] RegF[0] RegI[0] H[0] frameChainReturn[Chained] frameSize[32]
|$pdata$ChCanvasScreenUpdate| DCD imagerel |$LN16|
	DCD	0x3e002c1
	;Flags[SingleProEpi] functionLength[704] RegF[0] RegI[0] H[0] frameChainReturn[Chained] frameSize[112]
|$pdata$ChDrawPixel| DCD imagerel |$LN9|
	DCD	0x1e00129
	;Flags[SingleProEpi] functionLength[296] RegF[0] RegI[0] H[0] frameChainReturn[Chained] frameSize[48]
|$pdata$ChDrawPixelRAW| DCD imagerel |$LN9|
	DCD	0x1e00151
	;Flags[SingleProEpi] functionLength[336] RegF[0] RegI[0] H[0] frameChainReturn[Chained] frameSize[48]
|$pdata$ChDrawPixelAA| DCD imagerel |$LN3|
	DCD	0x2600059
	;Flags[SingleProEpi] functionLength[88] RegF[0] RegI[0] H[0] frameChainReturn[Chained] frameSize[64]
|$pdata$ChGetPixel| DCD imagerel |$LN7|
	DCD	0x1e00121
	;Flags[SingleProEpi] functionLength[288] RegF[0] RegI[0] H[0] frameChainReturn[Chained] frameSize[48]
|$pdata$ChCanvasFill| DCD imagerel |$LN9|
	DCD	0x1e0008d
	;Flags[SingleProEpi] functionLength[140] RegF[0] RegI[0] H[0] frameChainReturn[Chained] frameSize[48]
|$pdata$ChGetScreenDiagonal| DCD imagerel |$LN3|
	DCD	0x80005d
	;Flags[SingleProEpi] functionLength[92] RegF[0] RegI[0] H[0] frameChainReturn[UnChained] frameSize[16]
|$pdata$ChGetScreenDPI| DCD imagerel |$LN3|
	DCD	imagerel |$unwind$ChGetScreenDPI|
|$pdata$ChGetScreenAspectRatio| DCD imagerel |$LN4|
	DCD	0x80003d
	;Flags[SingleProEpi] functionLength[60] RegF[0] RegI[0] H[0] frameChainReturn[UnChained] frameSize[16]

	AREA	|.xdata|, DATA
|$unwind$ChGetScreenDPI| DCD 0x1060001d
	DCD	0x1de83e1
	DCD	0xe3e3e3e4
	;Code Words[2], Epilog Start Index[1], E[1], X[0], Function Length[29]=116 bytes
	;set_fp
	;save_fplr_x
	;save_freg_x
	;end
	;nop
	;nop
	;nop
; Function compile flags: /Odtp
; File E:\Xeneva Project\Aurora\Libs\Chitralekha\chitralekha.cpp

	AREA	|.text$mn|, CODE, ARM64

|ChGetScreenAspectRatio| PROC

; 333  : int ChGetScreenAspectRatio(ChCanvas* canv) {

|$LN4|
	sub         sp,sp,#0x10
	str         x0,[sp,#8]

; 334  : 	int ar = canv->screenWidth / canv->screenHeight;

	ldr         x8,[sp,#8]
	add         x9,x8,#4
	ldr         x8,[sp,#8]
	add         x8,x8,#8
	ldr         w9,[x9]
	ldr         w8,[x8]
	cbnz        w8,|$LN3@ChGetScree|
	brk         #0xF004
|$LN3@ChGetScree|
	udiv        w8,w9,w8
	str         w8,[sp]

; 335  : 	return ar;

	ldr         w0,[sp]
	add         sp,sp,#0x10
	ret

	ENDP  ; |ChGetScreenAspectRatio|

; Function compile flags: /Odtp
; File E:\Xeneva Project\Aurora\Libs\Chitralekha\chitralekha.cpp

	AREA	|.text$mn|, CODE, ARM64

|ChGetScreenDPI| PROC

; 323  : float ChGetScreenDPI(ChCanvas* canv) {

|$LN3|
	str         d8,[sp,#-0x10]!
	stp         fp,lr,[sp,#-0x20]!
	mov         fp,sp
	str         x0,[sp,#0x18]

; 324  : 	float dpi = sqrtf(canv->screenWidth * canv->screenWidth + canv->screenHeight * canv->screenHeight) / ChGetScreenDiagonal(canv);

	ldr         x8,[sp,#0x18]
	add         x9,x8,#4
	ldr         x8,[sp,#0x18]
	add         x8,x8,#4
	ldr         w9,[x9]
	ldr         w8,[x8]
	mul         w10,w9,w8
	ldr         x8,[sp,#0x18]
	add         x9,x8,#8
	ldr         x8,[sp,#0x18]
	add         x8,x8,#8
	ldr         w9,[x9]
	ldr         w8,[x8]
	mul         w8,w9,w8
	add         w8,w10,w8
	ucvtf       s16,w8
	fsqrt       s8,s16
	ldr         x0,[sp,#0x18]
	bl          ChGetScreenDiagonal
	fdiv        s16,s8,s0
	str         s16,[sp,#0x10]

; 325  : 	return dpi;

	ldr         s0,[sp,#0x10]
	ldp         fp,lr,[sp],#0x20
	ldr         d8,[sp],#0x10
	ret

	ENDP  ; |ChGetScreenDPI|

; Function compile flags: /Odtp
; File E:\Xeneva Project\Aurora\Libs\Chitralekha\chitralekha.cpp

	AREA	|.text$mn|, CODE, ARM64

|ChGetScreenDiagonal| PROC

; 313  : float ChGetScreenDiagonal(ChCanvas* canv) {

|$LN3|
	sub         sp,sp,#0x10
	str         x0,[sp,#8]

; 314  : 	float diagonal = sqrtf(canv->screenWidth * canv->screenWidth + canv->screenHeight * canv->screenHeight);

	ldr         x8,[sp,#8]
	add         x9,x8,#4
	ldr         x8,[sp,#8]
	add         x8,x8,#4
	ldr         w9,[x9]
	ldr         w8,[x8]
	mul         w10,w9,w8
	ldr         x8,[sp,#8]
	add         x9,x8,#8
	ldr         x8,[sp,#8]
	add         x8,x8,#8
	ldr         w9,[x9]
	ldr         w8,[x8]
	mul         w8,w9,w8
	add         w8,w10,w8
	ucvtf       s16,w8
	fsqrt       s16,s16
	str         s16,[sp]

; 315  : 	return diagonal;

	ldr         s0,[sp]
	add         sp,sp,#0x10
	ret

	ENDP  ; |ChGetScreenDiagonal|

; Function compile flags: /Odtp
; File E:\Xeneva Project\Aurora\Libs\Chitralekha\chitralekha.cpp

	AREA	|.text$mn|, CODE, ARM64

|ChCanvasFill| PROC

; 301  : void ChCanvasFill(ChCanvas* canvas, int w, int h, uint32_t color) {

|$LN9|
	stp         fp,lr,[sp,#-0x30]!
	mov         fp,sp
	str         x0,[sp,#0x28]
	str         w1,[sp,#0x18]
	str         w2,[sp,#0x1C]
	str         w3,[sp,#0x20]

; 302  : 	for (int i = 0; i < w; i++)

	mov         w8,#0
	str         w8,[sp,#0x14]
	b           |$LN4@ChCanvasFi|
|$LN2@ChCanvasFi|
	ldr         w8,[sp,#0x14]
	add         w8,w8,#1
	str         w8,[sp,#0x14]
|$LN4@ChCanvasFi|
	ldr         w9,[sp,#0x18]
	ldr         w8,[sp,#0x14]
	cmp         w8,w9
	bge         |$LN3@ChCanvasFi|

; 303  : 	for (int j = 0; j < h; j++)

	mov         w8,#0
	str         w8,[sp,#0x10]
	b           |$LN7@ChCanvasFi|
|$LN5@ChCanvasFi|
	ldr         w8,[sp,#0x10]
	add         w8,w8,#1
	str         w8,[sp,#0x10]
|$LN7@ChCanvasFi|
	ldr         w9,[sp,#0x1C]
	ldr         w8,[sp,#0x10]
	cmp         w8,w9
	bge         |$LN6@ChCanvasFi|

; 304  : 		ChDrawPixel(canvas, 0 + i, 0 + j, color);

	ldr         w3,[sp,#0x20]
	ldr         w2,[sp,#0x10]
	ldr         w1,[sp,#0x14]
	ldr         x0,[sp,#0x28]
	bl          ChDrawPixel
	b           |$LN5@ChCanvasFi|
|$LN6@ChCanvasFi|
	b           |$LN2@ChCanvasFi|
|$LN3@ChCanvasFi|
	ldp         fp,lr,[sp],#0x30
	ret

	ENDP  ; |ChCanvasFill|

; Function compile flags: /Odtp
; File E:\Xeneva Project\Aurora\Libs\Chitralekha\chitralekha.cpp

	AREA	|.text$mn|, CODE, ARM64

|ChGetPixel| PROC

; 269  : uint32_t ChGetPixel(ChCanvas* canvas, int x, int y) {

|$LN7|
	stp         fp,lr,[sp,#-0x30]!
	mov         fp,sp
	str         x0,[sp,#0x18]
	str         w1,[sp,#0x14]
	str         w2,[sp,#0x10]

; 270  : 	unsigned int *lfb = canvas->buffer;

	ldr         x8,[sp,#0x18]
	add         x8,x8,#0x20
	ldr         x8,[x8]
	str         x8,[sp,#0x20]

; 271  : 	if (x < 0) {

	ldr         w8,[sp,#0x14]
	cmp         w8,#0
	bge         |$LN2@ChGetPixel|

; 272  : 		_KePrint("ChGetPixel : corrupted x -> %d \r\n", x);

	ldr         w1,[sp,#0x14]
	adrp        x8,|$SG3720|
	add         x0,x8,PageOffset(|$SG3720|)
	bl          _KePrint

; 273  : 		x = 0;

	mov         w8,#0
	str         w8,[sp,#0x14]
|$LN2@ChGetPixel|

; 274  : 	}
; 275  : 
; 276  : 	if (y < 0) {

	ldr         w8,[sp,#0x10]
	cmp         w8,#0
	bge         |$LN3@ChGetPixel|

; 277  : 		_KePrint("ChGetPixel : corrupted y -> %d \r\n", y);

	ldr         w1,[sp,#0x10]
	adrp        x8,|$SG3722|
	add         x0,x8,PageOffset(|$SG3722|)
	bl          _KePrint

; 278  : 		y = 0;

	mov         w8,#0
	str         w8,[sp,#0x10]
|$LN3@ChGetPixel|

; 279  : 	}
; 280  : 
; 281  : 	if (x > canvas->canvasWidth) {

	ldr         x8,[sp,#0x18]
	add         x8,x8,#0x18
	ldr         w9,[x8]
	ldr         w8,[sp,#0x14]
	cmp         w8,w9
	bls         |$LN4@ChGetPixel|

; 282  : 		_KePrint("ChGetPixel: corrupted x > canvasWidth -> %x \r\n", x);

	ldr         w1,[sp,#0x14]
	adrp        x8,|$SG3724|
	add         x0,x8,PageOffset(|$SG3724|)
	bl          _KePrint

; 283  : 		x = canvas->canvasWidth;

	ldr         x8,[sp,#0x18]
	add         x8,x8,#0x18
	ldr         w8,[x8]
	str         w8,[sp,#0x14]
|$LN4@ChGetPixel|

; 284  : 	}
; 285  : 
; 286  : 	if (y > canvas->screenHeight) {

	ldr         x8,[sp,#0x18]
	add         x8,x8,#8
	ldr         w9,[x8]
	ldr         w8,[sp,#0x10]
	cmp         w8,w9
	bls         |$LN5@ChGetPixel|

; 287  : 		_KePrint("ChGetPixel: corrupted y > canvasHeight -> %x \r\n", y);

	ldr         w1,[sp,#0x10]
	adrp        x8,|$SG3726|
	add         x0,x8,PageOffset(|$SG3726|)
	bl          _KePrint

; 288  : 		y = canvas->canvasHeight;

	ldr         x8,[sp,#0x18]
	add         x8,x8,#0x1C
	ldr         w8,[x8]
	str         w8,[sp,#0x10]
|$LN5@ChGetPixel|

; 289  : 	}
; 290  : 
; 291  : 	return lfb[static_cast<int64_t>(y) * canvas->canvasWidth + x];

	ldr         w8,[sp,#0x10]
	sxtw        x9,w8
	ldr         x8,[sp,#0x18]
	add         x8,x8,#0x18
	ldr         w8,[x8]
	uxtw        x8,w8
	mul         x9,x9,x8
	ldr         w8,[sp,#0x14]
	sxtw        x8,w8
	add         x9,x9,x8
	mov         x8,#4
	mul         x9,x9,x8
	ldr         x8,[sp,#0x20]
	add         x8,x8,x9
	ldr         w0,[x8]
	ldp         fp,lr,[sp],#0x30
	ret

	ENDP  ; |ChGetPixel|

; Function compile flags: /Odtp
; File E:\Xeneva Project\Aurora\Libs\Chitralekha\chitralekha.cpp

	AREA	|.text$mn|, CODE, ARM64

|ChDrawPixelAA| PROC

; 257  : void ChDrawPixelAA(ChCanvas* canv, int x, int y, uint32_t color, double alpha) {

|$LN3|
	stp         fp,lr,[sp,#-0x40]!
	mov         fp,sp
	str         x0,[sp,#0x30]
	str         w1,[sp,#0x20]
	str         w2,[sp,#0x1C]
	str         w3,[sp,#0x10]
	str         d0,[sp,#0x28]

; 258  : 	uint32_t bgColor = 0xFFFFFFFF;

	mov         w8,#-1
	str         w8,[sp,#0x14]

; 259  : 	uint32_t blendedColor = ChColorAlphaBlend(bgColor, color, alpha);

	ldr         d0,[sp,#0x28]
	ldr         w1,[sp,#0x10]
	ldr         w0,[sp,#0x14]
	bl          ChColorAlphaBlend
	mov         w0,w0
	str         w0,[sp,#0x18]

; 260  : 	ChDrawPixel(canv, x, y, blendedColor);

	ldr         w3,[sp,#0x18]
	ldr         w2,[sp,#0x1C]
	ldr         w1,[sp,#0x20]
	ldr         x0,[sp,#0x30]
	bl          ChDrawPixel
	ldp         fp,lr,[sp],#0x40
	ret

	ENDP  ; |ChDrawPixelAA|

; Function compile flags: /Odtp
; File E:\Xeneva Project\Aurora\Libs\Chitralekha\chitralekha.cpp

	AREA	|.text$mn|, CODE, ARM64

|ChDrawPixelRAW| PROC

; 220  : void ChDrawPixelRAW(ChCanvas* canvas, int x, int y, uint32_t color) {

|$LN9|
	stp         fp,lr,[sp,#-0x30]!
	mov         fp,sp
	str         x0,[sp,#0x20]
	str         w1,[sp,#0x14]
	str         w2,[sp,#0x10]
	str         w3,[sp,#0x18]

; 221  : 	if (((uint64_t)canvas >> 48) == 0xFFFF)

	ldr         x8,[sp,#0x20]
	lsr         x9,x8,#0x30
	mov         x8,#0xFFFF
	cmp         x9,x8
	bne         |$LN2@ChDrawPixe|

; 222  : 		_KePrint("ChDrawPixel : suspected canvas address : %x \n", canvas);

	ldr         x1,[sp,#0x20]
	adrp        x8,|$SG3692|
	add         x0,x8,PageOffset(|$SG3692|)
	bl          _KePrint
|$LN2@ChDrawPixe|

; 223  : 	unsigned int* lfb = canvas->buffer;

	ldr         x8,[sp,#0x20]
	add         x8,x8,#0x20
	ldr         x8,[x8]
	str         x8,[sp,#0x28]

; 224  : 	if (((uint64_t)lfb >> 48) == 0xFFFF)

	ldr         x8,[sp,#0x28]
	lsr         x9,x8,#0x30
	mov         x8,#0xFFFF
	cmp         x9,x8
	bne         |$LN3@ChDrawPixe|

; 225  : 		_KePrint("ChDrawPixel : suspected lfb address : %x \n", lfb);

	ldr         x1,[sp,#0x28]
	adrp        x8,|$SG3694|
	add         x0,x8,PageOffset(|$SG3694|)
	bl          _KePrint
|$LN3@ChDrawPixe|

; 226  : 	if (x < 0) {

	ldr         w8,[sp,#0x14]
	cmp         w8,#0
	bge         |$LN4@ChDrawPixe|

; 227  : 		_KePrint("ChDrawPixel : corrupted x -> %d \r\n", x);

	ldr         w1,[sp,#0x14]
	adrp        x8,|$SG3696|
	add         x0,x8,PageOffset(|$SG3696|)
	bl          _KePrint

; 228  : 		x = 0;

	mov         w8,#0
	str         w8,[sp,#0x14]
|$LN4@ChDrawPixe|

; 229  : 	}
; 230  : 
; 231  : 	if (y < 0) {

	ldr         w8,[sp,#0x10]
	cmp         w8,#0
	bge         |$LN5@ChDrawPixe|

; 232  : 		_KePrint("ChDrawPixel : corrupted y -> %d \r\n", y);

	ldr         w1,[sp,#0x10]
	adrp        x8,|$SG3698|
	add         x0,x8,PageOffset(|$SG3698|)
	bl          _KePrint

; 233  : 		y = 0;

	mov         w8,#0
	str         w8,[sp,#0x10]
|$LN5@ChDrawPixe|

; 234  : 	}
; 235  : 
; 236  : 	if (x >= canvas->canvasWidth) {

	ldr         x8,[sp,#0x20]
	add         x8,x8,#0x18
	ldr         w9,[x8]
	ldr         w8,[sp,#0x14]
	cmp         w8,w9
	blo         |$LN6@ChDrawPixe|

; 237  : 		_KePrint("ChDrawPixel : corrupted x > canvasWidth \r\n");

	adrp        x8,|$SG3700|
	add         x0,x8,PageOffset(|$SG3700|)
	bl          _KePrint

; 238  : 		return;

	b           |$LN1@ChDrawPixe|
|$LN6@ChDrawPixe|

; 239  : 	}
; 240  : 
; 241  : 	if (y >= canvas->canvasHeight) {

	ldr         x8,[sp,#0x20]
	add         x8,x8,#0x1C
	ldr         w9,[x8]
	ldr         w8,[sp,#0x10]
	cmp         w8,w9
	blo         |$LN7@ChDrawPixe|

; 242  : 		_KePrint("ChDrawPixel : corrupted y > canvasHeight \r\n");

	adrp        x8,|$SG3702|
	add         x0,x8,PageOffset(|$SG3702|)
	bl          _KePrint

; 243  : 		return;

	b           |$LN1@ChDrawPixe|
|$LN7@ChDrawPixe|

; 244  : 	}
; 245  : 	lfb[static_cast<uint64_t>(y) * canvas->canvasWidth + x] = color;

	ldr         w8,[sp,#0x10]
	sxtw        x9,w8
	ldr         x8,[sp,#0x20]
	add         x8,x8,#0x18
	ldr         w8,[x8]
	uxtw        x8,w8
	mul         x9,x9,x8
	ldr         w8,[sp,#0x14]
	sxtw        x8,w8
	add         x9,x9,x8
	mov         x8,#4
	mul         x9,x9,x8
	ldr         x8,[sp,#0x28]
	add         x9,x8,x9
	ldr         w8,[sp,#0x18]
	str         w8,[x9]
|$LN1@ChDrawPixe|
	ldp         fp,lr,[sp],#0x30
	ret

	ENDP  ; |ChDrawPixelRAW|

; Function compile flags: /Odtp
; File E:\Xeneva Project\Aurora\Libs\Chitralekha\chitralekha.cpp

	AREA	|.text$mn|, CODE, ARM64

|ChDrawPixel| PROC

; 178  : void ChDrawPixel(ChCanvas* canvas, int x, int y, uint32_t color) {

|$LN9|
	stp         fp,lr,[sp,#-0x30]!
	mov         fp,sp
	str         x0,[sp,#0x20]
	str         w1,[sp,#0x10]
	str         w2,[sp,#0x14]
	str         w3,[sp,#0x18]

; 179  : 	if (((uint64_t)canvas >> 48) == 0xFFFF)

	ldr         x8,[sp,#0x20]
	lsr         x9,x8,#0x30
	mov         x8,#0xFFFF
	cmp         x9,x8
	bne         |$LN2@ChDrawPixe|

; 180  : 		_KePrint("ChDrawPixel : suspected canvas address : %x \n", canvas);

	ldr         x1,[sp,#0x20]
	adrp        x8,|$SG3673|
	add         x0,x8,PageOffset(|$SG3673|)
	bl          _KePrint
|$LN2@ChDrawPixe|

; 181  : 	unsigned int *lfb = canvas->buffer;

	ldr         x8,[sp,#0x20]
	add         x8,x8,#0x20
	ldr         x8,[x8]
	str         x8,[sp,#0x28]

; 182  : 	if (((uint64_t)lfb >> 48) == 0xFFFF)

	ldr         x8,[sp,#0x28]
	lsr         x9,x8,#0x30
	mov         x8,#0xFFFF
	cmp         x9,x8
	bne         |$LN3@ChDrawPixe|

; 183  : 		_KePrint("ChDrawPixel : suspected lfb address : %x \n", lfb);

	ldr         x1,[sp,#0x28]
	adrp        x8,|$SG3675|
	add         x0,x8,PageOffset(|$SG3675|)
	bl          _KePrint
|$LN3@ChDrawPixe|

; 184  : 	if (x < 0) {

	ldr         w8,[sp,#0x10]
	cmp         w8,#0
	bge         |$LN4@ChDrawPixe|

; 185  : 		_KePrint("ChDrawPixel : corrupted x -> %d \r\n", x);

	ldr         w1,[sp,#0x10]
	adrp        x8,|$SG3677|
	add         x0,x8,PageOffset(|$SG3677|)
	bl          _KePrint

; 186  : 		x = 0;

	mov         w8,#0
	str         w8,[sp,#0x10]
|$LN4@ChDrawPixe|

; 187  : 	}
; 188  : 
; 189  : 	if (y < 0) {

	ldr         w8,[sp,#0x14]
	cmp         w8,#0
	bge         |$LN5@ChDrawPixe|

; 190  : 		//_KePrint("ChDrawPixel : corrupted y -> %d \r\n", y);
; 191  : 		y = 0;

	mov         w8,#0
	str         w8,[sp,#0x14]
|$LN5@ChDrawPixe|

; 192  : 	}
; 193  : 
; 194  : 	if (x >= canvas->canvasWidth) {

	ldr         x8,[sp,#0x20]
	add         x8,x8,#0x18
	ldr         w9,[x8]
	ldr         w8,[sp,#0x10]
	cmp         w8,w9
	blo         |$LN6@ChDrawPixe|

; 195  : 		//_KePrint("ChDrawPixel : corrupted x > canvasWidth \r\n");
; 196  : 		return;

	b           |$LN1@ChDrawPixe|
|$LN6@ChDrawPixe|

; 197  : 	}
; 198  : 
; 199  : 	if (y >= canvas->canvasHeight) {

	ldr         x8,[sp,#0x20]
	add         x8,x8,#0x1C
	ldr         w9,[x8]
	ldr         w8,[sp,#0x14]
	cmp         w8,w9
	blo         |$LN7@ChDrawPixe|

; 200  : 		//_KePrint("ChDrawPixel : corrupted y > canvasHeight \r\n");
; 201  : 		return;

	b           |$LN1@ChDrawPixe|
|$LN7@ChDrawPixe|

; 202  : 	}
; 203  : #ifdef COLOR_BGRA
; 204  : 	uint32_t bgra = ChColorRGBAtoBGRA(color);
; 205  : 	lfb[static_cast<uint64_t>(y) * canvas->canvasWidth + x] = bgra;
; 206  : #elif COLOR_RGBA
; 207  : 	/* By default Chitralekha uses RGBA */
; 208  : 	lfb[static_cast<uint64_t>(y) * canvas->canvasWidth + x] = color;

	ldr         w8,[sp,#0x14]
	sxtw        x9,w8
	ldr         x8,[sp,#0x20]
	add         x8,x8,#0x18
	ldr         w8,[x8]
	uxtw        x8,w8
	mul         x9,x9,x8
	ldr         w8,[sp,#0x10]
	sxtw        x8,w8
	add         x9,x9,x8
	mov         x8,#4
	mul         x9,x9,x8
	ldr         x8,[sp,#0x28]
	add         x9,x8,x9
	ldr         w8,[sp,#0x18]
	str         w8,[x9]
|$LN1@ChDrawPixe|
	ldp         fp,lr,[sp],#0x30
	ret

	ENDP  ; |ChDrawPixel|

; Function compile flags: /Odtp
; File E:\Xeneva Project\Aurora\Libs\Chitralekha\chitralekha.cpp

	AREA	|.text$mn|, CODE, ARM64

|ChCanvasScreenUpdate| PROC

; 128  : void ChCanvasScreenUpdate(ChCanvas* canvas, int _x, int _y, int _w, int _h) {

|$LN16|
	stp         fp,lr,[sp,#-0x70]!
	mov         fp,sp
	str         x0,[sp,#0x10]
	str         w1,[sp,#0x40]
	str         w2,[sp,#0x44]
	str         w3,[sp,#0x48]
	str         w4,[sp,#0x4C]

; 129  : 	uint32_t* fb = canvas->framebuff;

	ldr         x8,[sp,#0x10]
	add         x8,x8,#0x30
	ldr         x8,[x8]
	str         x8,[sp,#0x50]

; 130  : 
; 131  : 	int64_t x = _x, y = _y, w = _w, h = _h;

	ldr         w8,[sp,#0x40]
	sxtw        x8,w8
	str         x8,[sp,#0x20]
	ldr         w8,[sp,#0x44]
	sxtw        x8,w8
	str         x8,[sp,#0x18]
	ldr         w8,[sp,#0x48]
	sxtw        x8,w8
	str         x8,[sp,#0x38]
	ldr         w8,[sp,#0x4C]
	sxtw        x8,w8
	str         x8,[sp,#0x28]

; 132  : 
; 133  : 	if (x > canvas->screenWidth)

	ldr         x8,[sp,#0x10]
	add         x8,x8,#4
	ldr         w8,[x8]
	uxtw        x9,w8
	ldr         x8,[sp,#0x20]
	cmp         x8,x9
	ble         |$LN5@ChCanvasSc|

; 134  : 		return;

	b           |$LN1@ChCanvasSc|
|$LN5@ChCanvasSc|

; 135  : 	if (y > canvas->screenHeight)

	ldr         x8,[sp,#0x10]
	add         x8,x8,#8
	ldr         w8,[x8]
	uxtw        x9,w8
	ldr         x8,[sp,#0x18]
	cmp         x8,x9
	ble         |$LN6@ChCanvasSc|

; 136  : 		return;

	b           |$LN1@ChCanvasSc|
|$LN6@ChCanvasSc|

; 137  : 
; 138  : 	if (x >= canvas->screenWidth)

	ldr         x8,[sp,#0x10]
	add         x8,x8,#4
	ldr         w8,[x8]
	uxtw        x9,w8
	ldr         x8,[sp,#0x20]
	cmp         x8,x9
	blt         |$LN7@ChCanvasSc|

; 139  : 		return;

	b           |$LN1@ChCanvasSc|
|$LN7@ChCanvasSc|

; 140  : 
; 141  : 	if (y >= canvas->screenHeight)

	ldr         x8,[sp,#0x10]
	add         x8,x8,#8
	ldr         w8,[x8]
	uxtw        x9,w8
	ldr         x8,[sp,#0x18]
	cmp         x8,x9
	blt         |$LN8@ChCanvasSc|

; 142  : 		return;

	b           |$LN1@ChCanvasSc|
|$LN8@ChCanvasSc|

; 143  : 
; 144  : 	if ((x + w) >= canvas->screenWidth)

	ldr         x9,[sp,#0x20]
	ldr         x8,[sp,#0x38]
	add         x9,x9,x8
	ldr         x8,[sp,#0x10]
	add         x8,x8,#4
	ldr         w8,[x8]
	uxtw        x8,w8
	cmp         x9,x8
	blt         |$LN9@ChCanvasSc|

; 145  : 		w = canvas->screenWidth - x;

	ldr         x8,[sp,#0x10]
	add         x8,x8,#4
	ldr         w8,[x8]
	uxtw        x9,w8
	ldr         x8,[sp,#0x20]
	sub         x8,x9,x8
	str         x8,[sp,#0x38]
|$LN9@ChCanvasSc|

; 146  : 
; 147  : 	if ((y + h) >= canvas->screenHeight)

	ldr         x9,[sp,#0x18]
	ldr         x8,[sp,#0x28]
	add         x9,x9,x8
	ldr         x8,[sp,#0x10]
	add         x8,x8,#8
	ldr         w8,[x8]
	uxtw        x8,w8
	cmp         x9,x8
	blt         |$LN10@ChCanvasSc|

; 148  : 		h = canvas->screenHeight - y;

	ldr         x8,[sp,#0x10]
	add         x8,x8,#8
	ldr         w8,[x8]
	uxtw        x9,w8
	ldr         x8,[sp,#0x18]
	sub         x8,x9,x8
	str         x8,[sp,#0x28]
|$LN10@ChCanvasSc|

; 149  : 
; 150  : 	if (w > canvas->screenWidth)

	ldr         x8,[sp,#0x10]
	add         x8,x8,#4
	ldr         w8,[x8]
	uxtw        x9,w8
	ldr         x8,[sp,#0x38]
	cmp         x8,x9
	ble         |$LN11@ChCanvasSc|

; 151  : 		w = canvas->screenWidth;

	ldr         x8,[sp,#0x10]
	add         x8,x8,#4
	ldr         w8,[x8]
	uxtw        x8,w8
	str         x8,[sp,#0x38]
|$LN11@ChCanvasSc|

; 152  : 	if (h > canvas->screenHeight)

	ldr         x8,[sp,#0x10]
	add         x8,x8,#8
	ldr         w8,[x8]
	uxtw        x9,w8
	ldr         x8,[sp,#0x28]
	cmp         x8,x9
	ble         |$LN12@ChCanvasSc|

; 153  : 		h = canvas->screenHeight;

	ldr         x8,[sp,#0x10]
	add         x8,x8,#8
	ldr         w8,[x8]
	uxtw        x8,w8
	str         x8,[sp,#0x28]
|$LN12@ChCanvasSc|

; 154  : 
; 155  : 
; 156  : 	if (x < 0)

	ldr         x8,[sp,#0x20]
	cmp         x8,#0
	bge         |$LN13@ChCanvasSc|

; 157  : 		x = 0;

	mov         x8,#0
	str         x8,[sp,#0x20]
|$LN13@ChCanvasSc|

; 158  : 	if (y < 0)

	ldr         x8,[sp,#0x18]
	cmp         x8,#0
	bge         |$LN14@ChCanvasSc|

; 159  : 		y = 0;

	mov         x8,#0
	str         x8,[sp,#0x18]
|$LN14@ChCanvasSc|

; 160  : 
; 161  : 	for (int64_t i = 0; i < h; i++){

	mov         x8,#0
	str         x8,[sp,#0x30]
	b           |$LN4@ChCanvasSc|
|$LN2@ChCanvasSc|
	ldr         x8,[sp,#0x30]
	add         x8,x8,#1
	str         x8,[sp,#0x30]
|$LN4@ChCanvasSc|
	ldr         x9,[sp,#0x28]
	ldr         x8,[sp,#0x30]
	cmp         x8,x9
	bge         |$LN3@ChCanvasSc|

; 162  : 		void* fb_mem = (fb + (y + i) * (canvas->screenWidth) + x);

	ldr         x9,[sp,#0x18]
	ldr         x8,[sp,#0x30]
	add         x9,x9,x8
	ldr         x8,[sp,#0x10]
	add         x8,x8,#4
	ldr         w8,[x8]
	uxtw        x8,w8
	mul         x9,x9,x8
	mov         x8,#4
	mul         x9,x9,x8
	ldr         x8,[sp,#0x50]
	add         x10,x8,x9
	ldr         x9,[sp,#0x20]
	mov         x8,#4
	mul         x8,x9,x8
	add         x8,x10,x8
	str         x8,[sp,#0x60]

; 163  : 		void* canvas_mem = (canvas->buffer + (y + i) * (canvas->canvasWidth) + x);

	ldr         x8,[sp,#0x10]
	add         x10,x8,#0x20
	ldr         x9,[sp,#0x18]
	ldr         x8,[sp,#0x30]
	add         x9,x9,x8
	ldr         x8,[sp,#0x10]
	add         x8,x8,#0x18
	ldr         w8,[x8]
	uxtw        x8,w8
	mul         x9,x9,x8
	mov         x8,#4
	mul         x9,x9,x8
	ldr         x8,[x10]
	add         x10,x8,x9
	ldr         x9,[sp,#0x20]
	mov         x8,#4
	mul         x8,x9,x8
	add         x8,x10,x8
	str         x8,[sp,#0x58]

; 164  : 		_fastcpy(fb_mem,

	ldr         x9,[sp,#0x38]
	mov         x8,#4
	mul         x2,x9,x8
	ldr         x1,[sp,#0x58]
	ldr         x0,[sp,#0x60]
	bl          _fastcpy

; 165  : 			canvas_mem, w*4);
; 166  : 
; 167  : 	}

	b           |$LN2@ChCanvasSc|
|$LN3@ChCanvasSc|
|$LN1@ChCanvasSc|
	ldp         fp,lr,[sp],#0x70
	ret

	ENDP  ; |ChCanvasScreenUpdate|

; Function compile flags: /Odtp
; File E:\Xeneva Project\Aurora\Libs\Chitralekha\chitralekha.cpp

	AREA	|.text$mn|, CODE, ARM64

|ChDeAllocateBuffer| PROC

; 111  : int ChDeAllocateBuffer(ChCanvas* canvas) {

|$LN4|
	stp         fp,lr,[sp,#-0x20]!
	mov         fp,sp
	str         x0,[sp,#0x10]

; 112  : 	if (!canvas)

	ldr         x8,[sp,#0x10]
	cmp         x8,#0
	bne         |$LN2@ChDeAlloca|

; 113  : 		return 0;

	mov         w0,#0
	b           |$LN1@ChDeAlloca|
|$LN2@ChDeAlloca|

; 114  : 	size_t sz = canvas->bufferSz;

	ldr         x8,[sp,#0x10]
	add         x8,x8,#0x28
	ldr         x8,[x8]
	str         x8,[sp,#0x18]

; 115  : 	_KeMemUnmap(canvas->buffer, sz);

	ldr         x8,[sp,#0x10]
	add         x8,x8,#0x20
	ldr         x1,[sp,#0x18]
	ldr         x0,[x8]
	bl          _KeMemUnmap

; 116  : 	return 1;

	mov         w0,#1
|$LN1@ChDeAlloca|
	ldp         fp,lr,[sp],#0x20
	ret

	ENDP  ; |ChDeAllocateBuffer|

; Function compile flags: /Odtp
; File E:\Xeneva Project\Aurora\Libs\Chitralekha\chitralekha.cpp

	AREA	|.text$mn|, CODE, ARM64

|ChAllocateBuffer| PROC

; 90   : int ChAllocateBuffer(ChCanvas* canvas) {

|$LN5|
	stp         fp,lr,[sp,#-0x30]!
	mov         fp,sp
	str         x0,[sp,#0x18]

; 91   : 	if (!canvas)

	ldr         x8,[sp,#0x18]
	cmp         x8,#0
	bne         |$LN2@ChAllocate|

; 92   : 		return 0;

	mov         w0,#0
	b           |$LN1@ChAllocate|
|$LN2@ChAllocate|

; 93   : 	int reqW = canvas->canvasWidth;

	ldr         x8,[sp,#0x18]
	add         x8,x8,#0x18
	ldr         w8,[x8]
	str         w8,[sp,#0x10]

; 94   : 	int reqH = canvas->canvasHeight;

	ldr         x8,[sp,#0x18]
	add         x8,x8,#0x1C
	ldr         w8,[x8]
	str         w8,[sp,#0x14]

; 95   : 
; 96   : 	size_t sz = (static_cast<size_t>(reqW) * reqH * (canvas->bpp / 8) + 0x1F) & (~0x1FULL);

	ldr         w8,[sp,#0x10]
	sxtw        x9,w8
	ldr         w8,[sp,#0x14]
	sxtw        x8,w8
	mul         x10,x9,x8
	ldr         x8,[sp,#0x18]
	add         x8,x8,#0xC
	ldr         w9,[x8]
	mov         w8,#8
	udiv        w8,w9,w8
	uxtw        x8,w8
	mul         x8,x10,x8
	add         x8,x8,#0x1F
	and         x8,x8,#-0x20
	str         x8,[sp,#0x28]

; 97   : 	void* addr = _KeMemMap(NULL, sz, 0, 0, MEMMAP_NO_FILEDESC, 0);

	mov         x5,#0
	mov         w4,#-1
	mov         w3,#0
	mov         w2,#0
	ldr         x1,[sp,#0x28]
	mov         x0,#0
	bl          _KeMemMap
	str         x0,[sp,#0x20]

; 98   : 	if (!addr)

	ldr         x8,[sp,#0x20]
	cmp         x8,#0
	bne         |$LN3@ChAllocate|

; 99   : 		return 0;

	mov         w0,#0
	b           |$LN1@ChAllocate|
|$LN3@ChAllocate|

; 100  : 	canvas->buffer = (uint32_t*)addr;

	ldr         x8,[sp,#0x18]
	add         x9,x8,#0x20
	ldr         x8,[sp,#0x20]
	str         x8,[x9]

; 101  : 	canvas->bufferSz = sz;

	ldr         x8,[sp,#0x18]
	add         x9,x8,#0x28
	ldr         x8,[sp,#0x28]
	str         x8,[x9]

; 102  : 	_KePrint("Buffer allocated, canvas : %x \n", canvas);

	ldr         x1,[sp,#0x18]
	adrp        x8,|$SG3628|
	add         x0,x8,PageOffset(|$SG3628|)
	bl          _KePrint

; 103  : 	return 1;

	mov         w0,#1
|$LN1@ChAllocate|
	ldp         fp,lr,[sp],#0x30
	ret

	ENDP  ; |ChAllocateBuffer|

; Function compile flags: /Odtp
; File E:\Xeneva Project\Aurora\Libs\Chitralekha\chitralekha.cpp

	AREA	|.text$mn|, CODE, ARM64

|ChCreateCanvas| PROC

; 55   : ChCanvas* ChCreateCanvas(int reqW, int reqH) {

|$LN4|
	stp         fp,lr,[sp,#-0x50]!
	mov         fp,sp
	str         w0,[sp,#0x1C]
	str         w1,[sp,#0x18]

; 56   : 	int graphFd = _KeOpenFile("/dev/graph", FILE_OPEN_WRITE);

	mov         w1,#4
	adrp        x8,|$SG3616|
	add         x0,x8,PageOffset(|$SG3616|)
	bl          _KeOpenFile
	mov         w0,w0
	str         w0,[sp,#0x10]

; 57   : 	XEFileIOControl ioctl;
; 58   : 	memset(&ioctl, 0, sizeof(XEFileIOControl));

	add         x9,sp,#0x28
	mov         x8,#0
	stp         x8,x8,[x9]
	stp         x8,x8,[x9,#0x10]
	str         x8,[x9,#0x20]

; 59   : 	ioctl.syscall_magic = AURORA_SYSCALL_MAGIC;

	ldr         w8,|$LN3@ChCreateCa|
	str         w8,[sp,#0x28]

; 60   : 	int ret = 0;

	mov         w8,#0
	str         w8,[sp,#0x14]

; 61   : 
; 62   : 	ChCanvas* canvas = (ChCanvas*)malloc(sizeof(ChCanvas));

	mov         w0,#0x38
	bl          malloc
	str         x0,[sp,#0x20]

; 63   : 	memset(canvas, 0, sizeof(ChCanvas));

	ldr         x9,[sp,#0x20]
	mov         x8,#0
	stp         x8,x8,[x9]
	stp         x8,x8,[x9,#0x10]
	stp         x8,x8,[x9,#0x20]
	str         x8,[x9,#0x30]

; 64   : 
; 65   : 	ret = _KeFileIoControl(graphFd, SCREEN_GETWIDTH, &ioctl);

	add         x2,sp,#0x28
	mov         w1,#0xC9
	ldr         w0,[sp,#0x10]
	bl          _KeFileIoControl
	mov         w0,w0
	str         w0,[sp,#0x14]

; 66   : 	canvas->screenWidth = ioctl.uint_1;

	ldr         x8,[sp,#0x20]
	add         x9,x8,#4
	ldr         w8,[sp,#0x34]
	str         w8,[x9]

; 67   : 	ret = _KeFileIoControl(graphFd, SCREEN_GETHEIGHT, &ioctl);

	add         x2,sp,#0x28
	mov         w1,#0xCA
	ldr         w0,[sp,#0x10]
	bl          _KeFileIoControl
	mov         w0,w0
	str         w0,[sp,#0x14]

; 68   : 	canvas->screenHeight = ioctl.uint_1;

	ldr         x8,[sp,#0x20]
	add         x9,x8,#8
	ldr         w8,[sp,#0x34]
	str         w8,[x9]

; 69   : 	ret = _KeFileIoControl(graphFd, SCREEN_GETBPP, &ioctl);

	add         x2,sp,#0x28
	mov         w1,#0xCB
	ldr         w0,[sp,#0x10]
	bl          _KeFileIoControl
	mov         w0,w0
	str         w0,[sp,#0x14]

; 70   : 	canvas->bpp = ioctl.uint_1;

	ldr         x8,[sp,#0x20]
	add         x9,x8,#0xC
	ldr         w8,[sp,#0x34]
	str         w8,[x9]

; 71   : 	ret = _KeFileIoControl(graphFd, SCREEN_GET_SCANLINE, &ioctl);

	add         x2,sp,#0x28
	mov         w1,#0xCE
	ldr         w0,[sp,#0x10]
	bl          _KeFileIoControl
	mov         w0,w0
	str         w0,[sp,#0x14]

; 72   : 	canvas->scanline = ioctl.ushort_1;

	ldr         x8,[sp,#0x20]
	add         x9,x8,#0x10
	ldrh        w8,[sp,#0x2E]
	strh        w8,[x9]

; 73   : 	ret = _KeFileIoControl(graphFd, SCREEN_GET_PITCH, &ioctl);

	add         x2,sp,#0x28
	mov         w1,#0xCF
	ldr         w0,[sp,#0x10]
	bl          _KeFileIoControl
	mov         w0,w0
	str         w0,[sp,#0x14]

; 74   : 	canvas->pitch = ioctl.uint_1;

	ldr         x8,[sp,#0x20]
	add         x9,x8,#0x14
	ldr         w8,[sp,#0x34]
	str         w8,[x9]

; 75   : 	canvas->canvasHeight = reqH;

	ldr         x8,[sp,#0x20]
	add         x9,x8,#0x1C
	ldr         w8,[sp,#0x18]
	str         w8,[x9]

; 76   : 	canvas->canvasWidth = reqW;

	ldr         x8,[sp,#0x20]
	add         x9,x8,#0x18
	ldr         w8,[sp,#0x1C]
	str         w8,[x9]

; 77   : 	canvas->buffer = 0;

	ldr         x8,[sp,#0x20]
	add         x9,x8,#0x20
	mov         x8,#0
	str         x8,[x9]

; 78   : 	canvas->bufferSz = 0;

	ldr         x8,[sp,#0x20]
	add         x9,x8,#0x28
	mov         x8,#0
	str         x8,[x9]

; 79   : 	canvas->graphics_fd = graphFd;

	ldr         x9,[sp,#0x20]
	ldr         w8,[sp,#0x10]
	str         w8,[x9]

; 80   : 	ret = _KeFileIoControl(graphFd, SCREEN_GET_FB, &ioctl);

	add         x2,sp,#0x28
	mov         w1,#0xD1
	ldr         w0,[sp,#0x10]
	bl          _KeFileIoControl
	mov         w0,w0
	str         w0,[sp,#0x14]

; 81   : 	canvas->framebuff = (uint32_t*)ioctl.ulong_1;

	ldr         x8,[sp,#0x20]
	add         x9,x8,#0x30
	ldr         x8,[sp,#0x40]
	str         x8,[x9]

; 82   : 
; 83   : 	return canvas;

	ldr         x0,[sp,#0x20]
	ldp         fp,lr,[sp],#0x50
	ret
|$LN3@ChCreateCa|
	DCD         0x15062023

	ENDP  ; |ChCreateCanvas|

; Function compile flags: /Odtp
; File E:\Xeneva Project\Aurora\Libs\Chitralekha\chitralekha.cpp

	AREA	|.text$mn|, CODE, ARM64

|ChPrintLibName| PROC

; 45   : int ChPrintLibName() {

|$LN3|
	stp         fp,lr,[sp,#-0x10]!
	mov         fp,sp

; 46   : 	_KePrint("Chitralekha Graphics Library v1.0 \n");

	adrp        x8,|$SG3602|
	add         x0,x8,PageOffset(|$SG3602|)
	bl          _KePrint

; 47   : 	return 0;

	mov         w0,#0
	ldp         fp,lr,[sp],#0x10
	ret

	ENDP  ; |ChPrintLibName|

	END
