; Listing generated by Microsoft (R) Optimizing Compiler Version 19.29.30159.0 

	TTL	C:\Users\paras\source\repos\grep-name\XenevaOS\Libs\Chitralekha\ARM64\Debug\color.obj
	ARM64

	AREA	|.drectve|, DRECTVE

	EXPORT	|ChColorAlphaBlend|
	EXPORT	|ChColorAlphaBlend2|
	EXPORT	|ChColorDrawVerticalGradient|
	EXPORT	|make_col|
	EXPORT	|make_col_a|
	EXPORT	|ChColorDrawHorizontalGradient|
	EXPORT	|clamp|
	EXPORT	|ChColorRGBAtoBGRA|
	IMPORT	|ChDrawRect|
	IMPORT	|_fltused|

	AREA	|.pdata|, PDATA
|$pdata$ChColorAlphaBlend| DCD imagerel |$LN3|
	DCD	0x1000169
	;Flags[SingleProEpi] functionLength[360] RegF[0] RegI[0] H[0] frameChainReturn[UnChained] frameSize[32]
|$pdata$ChColorAlphaBlend2| DCD imagerel |$LN7|
	DCD	0x10000dd
	;Flags[SingleProEpi] functionLength[220] RegF[0] RegI[0] H[0] frameChainReturn[UnChained] frameSize[32]
|$pdata$ChColorDrawVerticalGradient| DCD imagerel |$LN6|
	DCD	0x2e0027d
	;Flags[SingleProEpi] functionLength[636] RegF[0] RegI[0] H[0] frameChainReturn[Chained] frameSize[80]
|$pdata$make_col| DCD imagerel |$LN15|
	DCD	0x100018d
	;Flags[SingleProEpi] functionLength[396] RegF[0] RegI[0] H[0] frameChainReturn[UnChained] frameSize[32]
|$pdata$make_col_a| DCD imagerel |$LN19|
	DCD	0x180020d
	;Flags[SingleProEpi] functionLength[524] RegF[0] RegI[0] H[0] frameChainReturn[UnChained] frameSize[48]
|$pdata$ChColorDrawHorizontalGradient| DCD imagerel |$LN6|
	DCD	0x2e0027d
	;Flags[SingleProEpi] functionLength[636] RegF[0] RegI[0] H[0] frameChainReturn[Chained] frameSize[80]
|$pdata$clamp| DCD imagerel |$LN9|
	DCD	0x1800089
	;Flags[SingleProEpi] functionLength[136] RegF[0] RegI[0] H[0] frameChainReturn[UnChained] frameSize[48]
|$pdata$ChColorRGBAtoBGRA| DCD imagerel |$LN3|
	DCD	0x800049
	;Flags[SingleProEpi] functionLength[72] RegF[0] RegI[0] H[0] frameChainReturn[UnChained] frameSize[16]
; Function compile flags: /Odtp
; File C:\Users\paras\source\repos\grep-name\XenevaOS\Libs\Chitralekha\color.cpp

	AREA	|.text$mn|, CODE, ARM64

|ChColorRGBAtoBGRA| PROC

; 191  : uint32_t ChColorRGBAtoBGRA(uint32_t col) {

|$LN3|
	sub         sp,sp,#0x10
	str         w0,[sp]

; 192  : 	return ((col & 0xFF000000)) |

	ldr         w8,[sp]
	and         w9,w8,#0xFF000000
	ldr         w8,[sp]
	and         w8,w8,#0xFF0000
	lsr         w8,w8,#0x10
	orr         w9,w9,w8
	ldr         w8,[sp]
	and         w8,w8,#0xFF00
	orr         w9,w9,w8
	ldr         w8,[sp]
	and         w8,w8,#0xFF
	lsl         w8,w8,#0x10
	orr         w0,w9,w8
	mov         w0,w0
	add         sp,sp,#0x10
	ret

	ENDP  ; |ChColorRGBAtoBGRA|

; Function compile flags: /Odtp
; File C:\Users\paras\source\repos\grep-name\XenevaOS\Libs\Chitralekha\color.cpp

	AREA	|.text$mn|, CODE, ARM64

|clamp|	PROC

; 182  : double clamp(double x, double upper, double lower){

|$LN9|
	sub         sp,sp,#0x30
	str         d0,[sp]
	str         d1,[sp,#0x18]
	str         d2,[sp,#8]

; 183  : 	return min(upper, max(x, lower));

	ldr         d17,[sp,#8]
	ldr         d16,[sp]
	fcmpe       d16,d17
	ble         |$LN3@clamp|
	ldr         d16,[sp]
	str         d16,[sp,#0x10]
	b           |$LN4@clamp|
|$LN3@clamp|
	ldr         d16,[sp,#8]
	str         d16,[sp,#0x10]
|$LN4@clamp|
	ldr         d17,[sp,#0x10]
	ldr         d16,[sp,#0x18]
	fcmpe       d16,d17
	bhs         |$LN7@clamp|
	ldr         d16,[sp,#0x18]
	str         d16,[sp,#0x28]
	b           |$LN8@clamp|
|$LN7@clamp|
	ldr         d17,[sp,#8]
	ldr         d16,[sp]
	fcmpe       d16,d17
	ble         |$LN5@clamp|
	ldr         d16,[sp]
	str         d16,[sp,#0x20]
	b           |$LN6@clamp|
|$LN5@clamp|
	ldr         d16,[sp,#8]
	str         d16,[sp,#0x20]
|$LN6@clamp|
	ldr         d16,[sp,#0x20]
	str         d16,[sp,#0x28]
|$LN8@clamp|
	ldr         d0,[sp,#0x28]
	add         sp,sp,#0x30
	ret

	ENDP  ; |clamp|

; Function compile flags: /Odtp
; File C:\Users\paras\source\repos\grep-name\XenevaOS\Libs\Chitralekha\color.cpp

	AREA	|.text$mn|, CODE, ARM64

|ChColorDrawHorizontalGradient| PROC

; 160  : void ChColorDrawHorizontalGradient(ChCanvas *canv, int x, int y, int w, int h, uint32_t color1, uint32_t color2) {

|$LN6|
	stp         fp,lr,[sp,#-0x50]!
	mov         fp,sp
	str         x0,[sp,#0x40]
	str         w1,[sp,#0x2C]
	str         w2,[sp,#0x38]
	str         w3,[sp,#0x20]
	str         w4,[sp,#0x34]
	str         w5,[sp,#0x24]
	str         w6,[sp,#0x28]

; 161  : 	uint8_t r1 = GET_RED(color1);

	ldr         w8,[sp,#0x24]
	ubfx        w8,w8,#0x10,#8
	uxtb        w8,w8
	strb        w8,[sp,#0x11]

; 162  : 	uint8_t g1 = GET_GREEN(color1);

	ldr         w8,[sp,#0x24]
	ubfx        w8,w8,#8,#8
	uxtb        w8,w8
	strb        w8,[sp,#0x12]

; 163  : 	uint8_t b1 = GET_BLUE(color1);

	ldr         w8,[sp,#0x24]
	and         w8,w8,#0xFF
	uxtb        w8,w8
	strb        w8,[sp,#0x13]

; 164  : 	uint8_t a1 = GET_ALPHA(color1);

	ldr         w8,[sp,#0x24]
	lsr         w8,w8,#0x18
	uxtb        w8,w8
	strb        w8,[sp,#0x10]

; 165  : 
; 166  : 	uint8_t r2 = GET_RED(color2);

	ldr         w8,[sp,#0x28]
	ubfx        w8,w8,#0x10,#8
	uxtb        w8,w8
	strb        w8,[sp,#0x19]

; 167  : 	uint8_t g2 = GET_GREEN(color2);

	ldr         w8,[sp,#0x28]
	ubfx        w8,w8,#8,#8
	uxtb        w8,w8
	strb        w8,[sp,#0x1A]

; 168  : 	uint8_t b2 = GET_BLUE(color2);

	ldr         w8,[sp,#0x28]
	and         w8,w8,#0xFF
	uxtb        w8,w8
	strb        w8,[sp,#0x1B]

; 169  : 	uint8_t a2 = GET_ALPHA(color2);

	ldr         w8,[sp,#0x28]
	lsr         w8,w8,#0x18
	uxtb        w8,w8
	strb        w8,[sp,#0x18]

; 170  : 
; 171  : 	for (int j = 0; j < w; j++) {

	mov         w8,#0
	str         w8,[sp,#0x14]
	b           |$LN4@ChColorDra|
|$LN2@ChColorDra|
	ldr         w8,[sp,#0x14]
	add         w8,w8,#1
	str         w8,[sp,#0x14]
|$LN4@ChColorDra|
	ldr         w9,[sp,#0x20]
	ldr         w8,[sp,#0x14]
	cmp         w8,w9
	bge         |$LN3@ChColorDra|

; 172  : 		uint8_t a = (uint8_t)(j * (((double)a2 - a1) / w) + a1);

	ldr         w8,[sp,#0x14]
	scvtf       d18,w8
	ldrb        w8,[sp,#0x18]
	mov         w8,w8
	scvtf       d17,w8
	ldrb        w8,[sp,#0x10]
	mov         w8,w8
	scvtf       d16,w8
	fsub        d17,d17,d16
	ldr         w8,[sp,#0x20]
	scvtf       d16,w8
	fdiv        d16,d17,d16
	fmul        d17,d18,d16
	ldrb        w8,[sp,#0x10]
	mov         w8,w8
	scvtf       d16,w8
	fadd        d16,d17,d16
	fcvtzu      w8,d16
	uxtb        w8,w8
	strb        w8,[sp,#0x1C]

; 173  : 		uint8_t red = (uint8_t)(j * (((double)r2 - r1) / w) + r1);

	ldr         w8,[sp,#0x14]
	scvtf       d18,w8
	ldrb        w8,[sp,#0x19]
	mov         w8,w8
	scvtf       d17,w8
	ldrb        w8,[sp,#0x11]
	mov         w8,w8
	scvtf       d16,w8
	fsub        d17,d17,d16
	ldr         w8,[sp,#0x20]
	scvtf       d16,w8
	fdiv        d16,d17,d16
	fmul        d17,d18,d16
	ldrb        w8,[sp,#0x11]
	mov         w8,w8
	scvtf       d16,w8
	fadd        d16,d17,d16
	fcvtzu      w8,d16
	uxtb        w8,w8
	strb        w8,[sp,#0x1D]

; 174  : 		uint8_t green = (uint8_t)(j * (((double)g2 - g1) / w) + g1);

	ldr         w8,[sp,#0x14]
	scvtf       d18,w8
	ldrb        w8,[sp,#0x1A]
	mov         w8,w8
	scvtf       d17,w8
	ldrb        w8,[sp,#0x12]
	mov         w8,w8
	scvtf       d16,w8
	fsub        d17,d17,d16
	ldr         w8,[sp,#0x20]
	scvtf       d16,w8
	fdiv        d16,d17,d16
	fmul        d17,d18,d16
	ldrb        w8,[sp,#0x12]
	mov         w8,w8
	scvtf       d16,w8
	fadd        d16,d17,d16
	fcvtzu      w8,d16
	uxtb        w8,w8
	strb        w8,[sp,#0x1E]

; 175  : 		uint8_t blue = (uint8_t)(j * (((double)b2 - b1) / w) + b1);

	ldr         w8,[sp,#0x14]
	scvtf       d18,w8
	ldrb        w8,[sp,#0x1B]
	mov         w8,w8
	scvtf       d17,w8
	ldrb        w8,[sp,#0x13]
	mov         w8,w8
	scvtf       d16,w8
	fsub        d17,d17,d16
	ldr         w8,[sp,#0x20]
	scvtf       d16,w8
	fdiv        d16,d17,d16
	fmul        d17,d18,d16
	ldrb        w8,[sp,#0x13]
	mov         w8,w8
	scvtf       d16,w8
	fadd        d16,d17,d16
	fcvtzu      w8,d16
	uxtb        w8,w8
	strb        w8,[sp,#0x1F]

; 176  : 		uint32_t col = (a << 24) | (red << 16) | (green << 8) | (blue << 0);

	ldrb        w8,[sp,#0x1C]
	mov         w8,w8
	lsl         w9,w8,#0x18
	ldrb        w8,[sp,#0x1D]
	mov         w8,w8
	lsl         w8,w8,#0x10
	orr         w9,w9,w8
	ldrb        w8,[sp,#0x1E]
	mov         w8,w8
	lsl         w8,w8,#8
	orr         w9,w9,w8
	ldrb        w8,[sp,#0x1F]
	mov         w8,w8
	orr         w8,w9,w8
	str         w8,[sp,#0x30]

; 177  : 		ChDrawRect(canv, x + j, y, 1, h, col);

	ldr         w9,[sp,#0x2C]
	ldr         w8,[sp,#0x14]
	add         w1,w9,w8
	ldr         w5,[sp,#0x30]
	ldr         w4,[sp,#0x34]
	mov         w3,#1
	ldr         w2,[sp,#0x38]
	mov         w1,w1
	ldr         x0,[sp,#0x40]
	bl          ChDrawRect

; 178  : 	}

	b           |$LN2@ChColorDra|
|$LN3@ChColorDra|
	ldp         fp,lr,[sp],#0x50
	ret

	ENDP  ; |ChColorDrawHorizontalGradient|

; Function compile flags: /Odtp
; File C:\Users\paras\source\repos\grep-name\XenevaOS\Libs\Chitralekha\color.cpp

	AREA	|.text$mn|, CODE, ARM64

|make_col_a| PROC

; 103  : uint32_t make_col_a(uint8_t red, uint8_t green, uint8_t blue, uint8_t a) {

|$LN19|
	sub         sp,sp,#0x30
	uxtb        w8,w0
	strb        w8,[sp,#1]
	uxtb        w8,w1
	strb        w8,[sp,#2]
	uxtb        w8,w2
	strb        w8,[sp,#3]
	uxtb        w8,w3
	strb        w8,[sp]

; 104  : 	red = max(red, 0);

	ldrb        w8,[sp,#1]
	mov         w8,w8
	cmp         w8,#0
	ble         |$LN3@make_col_a|
	ldrb        w8,[sp,#1]
	mov         w8,w8
	str         w8,[sp,#4]
	b           |$LN4@make_col_a|
|$LN3@make_col_a|
	mov         w8,#0
	str         w8,[sp,#4]
|$LN4@make_col_a|
	ldr         w8,[sp,#4]
	uxtb        w8,w8
	strb        w8,[sp,#1]

; 105  : 	red = min(red, 255);

	ldrb        w8,[sp,#1]
	mov         w8,w8
	cmp         w8,#0xFF
	bge         |$LN5@make_col_a|
	ldrb        w8,[sp,#1]
	mov         w8,w8
	str         w8,[sp,#8]
	b           |$LN6@make_col_a|
|$LN5@make_col_a|
	mov         w8,#0xFF
	str         w8,[sp,#8]
|$LN6@make_col_a|
	ldr         w8,[sp,#8]
	uxtb        w8,w8
	strb        w8,[sp,#1]

; 106  : 	green = max(green, 0);

	ldrb        w8,[sp,#2]
	mov         w8,w8
	cmp         w8,#0
	ble         |$LN7@make_col_a|
	ldrb        w8,[sp,#2]
	mov         w8,w8
	str         w8,[sp,#0xC]
	b           |$LN8@make_col_a|
|$LN7@make_col_a|
	mov         w8,#0
	str         w8,[sp,#0xC]
|$LN8@make_col_a|
	ldr         w8,[sp,#0xC]
	uxtb        w8,w8
	strb        w8,[sp,#2]

; 107  : 	green = min(green, 255);

	ldrb        w8,[sp,#2]
	mov         w8,w8
	cmp         w8,#0xFF
	bge         |$LN9@make_col_a|
	ldrb        w8,[sp,#2]
	mov         w8,w8
	str         w8,[sp,#0x10]
	b           |$LN10@make_col_a|
|$LN9@make_col_a|
	mov         w8,#0xFF
	str         w8,[sp,#0x10]
|$LN10@make_col_a|
	ldr         w8,[sp,#0x10]
	uxtb        w8,w8
	strb        w8,[sp,#2]

; 108  : 	blue = max(blue, 0);

	ldrb        w8,[sp,#3]
	mov         w8,w8
	cmp         w8,#0
	ble         |$LN11@make_col_a|
	ldrb        w8,[sp,#3]
	mov         w8,w8
	str         w8,[sp,#0x14]
	b           |$LN12@make_col_a|
|$LN11@make_col_a|
	mov         w8,#0
	str         w8,[sp,#0x14]
|$LN12@make_col_a|
	ldr         w8,[sp,#0x14]
	uxtb        w8,w8
	strb        w8,[sp,#3]

; 109  : 	blue = min(blue, 255);

	ldrb        w8,[sp,#3]
	mov         w8,w8
	cmp         w8,#0xFF
	bge         |$LN13@make_col_a|
	ldrb        w8,[sp,#3]
	mov         w8,w8
	str         w8,[sp,#0x18]
	b           |$LN14@make_col_a|
|$LN13@make_col_a|
	mov         w8,#0xFF
	str         w8,[sp,#0x18]
|$LN14@make_col_a|
	ldr         w8,[sp,#0x18]
	uxtb        w8,w8
	strb        w8,[sp,#3]

; 110  : 	a = max(a, 0);

	ldrb        w8,[sp]
	mov         w8,w8
	cmp         w8,#0
	ble         |$LN15@make_col_a|
	ldrb        w8,[sp]
	mov         w8,w8
	str         w8,[sp,#0x1C]
	b           |$LN16@make_col_a|
|$LN15@make_col_a|
	mov         w8,#0
	str         w8,[sp,#0x1C]
|$LN16@make_col_a|
	ldr         w8,[sp,#0x1C]
	uxtb        w8,w8
	strb        w8,[sp]

; 111  : 	a = min(a, 255);

	ldrb        w8,[sp]
	mov         w8,w8
	cmp         w8,#0xFF
	bge         |$LN17@make_col_a|
	ldrb        w8,[sp]
	mov         w8,w8
	str         w8,[sp,#0x20]
	b           |$LN18@make_col_a|
|$LN17@make_col_a|
	mov         w8,#0xFF
	str         w8,[sp,#0x20]
|$LN18@make_col_a|
	ldr         w8,[sp,#0x20]
	uxtb        w8,w8
	strb        w8,[sp]

; 112  : 
; 113  : 	uint32_t ret = (a << 24) | (red << 16) | (green << 8) | (blue << 0);

	ldrb        w8,[sp]
	mov         w8,w8
	lsl         w9,w8,#0x18
	ldrb        w8,[sp,#1]
	mov         w8,w8
	lsl         w8,w8,#0x10
	orr         w9,w9,w8
	ldrb        w8,[sp,#2]
	mov         w8,w8
	lsl         w8,w8,#8
	orr         w9,w9,w8
	ldrb        w8,[sp,#3]
	mov         w8,w8
	orr         w8,w9,w8
	str         w8,[sp,#0x24]

; 114  : 	return ret;

	ldr         w0,[sp,#0x24]
	add         sp,sp,#0x30
	ret

	ENDP  ; |make_col_a|

; Function compile flags: /Odtp
; File C:\Users\paras\source\repos\grep-name\XenevaOS\Libs\Chitralekha\color.cpp

	AREA	|.text$mn|, CODE, ARM64

|make_col| PROC

; 90   : uint32_t make_col(uint8_t red, uint8_t green, uint8_t blue) {

|$LN15|
	sub         sp,sp,#0x20
	uxtb        w8,w0
	strb        w8,[sp]
	uxtb        w8,w1
	strb        w8,[sp,#1]
	uxtb        w8,w2
	strb        w8,[sp,#2]

; 91   : 	red = max(red, 0);

	ldrb        w8,[sp]
	mov         w8,w8
	cmp         w8,#0
	ble         |$LN3@make_col|
	ldrb        w8,[sp]
	mov         w8,w8
	str         w8,[sp,#4]
	b           |$LN4@make_col|
|$LN3@make_col|
	mov         w8,#0
	str         w8,[sp,#4]
|$LN4@make_col|
	ldr         w8,[sp,#4]
	uxtb        w8,w8
	strb        w8,[sp]

; 92   : 	red = min(red, 255);

	ldrb        w8,[sp]
	mov         w8,w8
	cmp         w8,#0xFF
	bge         |$LN5@make_col|
	ldrb        w8,[sp]
	mov         w8,w8
	str         w8,[sp,#8]
	b           |$LN6@make_col|
|$LN5@make_col|
	mov         w8,#0xFF
	str         w8,[sp,#8]
|$LN6@make_col|
	ldr         w8,[sp,#8]
	uxtb        w8,w8
	strb        w8,[sp]

; 93   : 	green = max(green, 0);

	ldrb        w8,[sp,#1]
	mov         w8,w8
	cmp         w8,#0
	ble         |$LN7@make_col|
	ldrb        w8,[sp,#1]
	mov         w8,w8
	str         w8,[sp,#0xC]
	b           |$LN8@make_col|
|$LN7@make_col|
	mov         w8,#0
	str         w8,[sp,#0xC]
|$LN8@make_col|
	ldr         w8,[sp,#0xC]
	uxtb        w8,w8
	strb        w8,[sp,#1]

; 94   : 	green = min(green, 255);

	ldrb        w8,[sp,#1]
	mov         w8,w8
	cmp         w8,#0xFF
	bge         |$LN9@make_col|
	ldrb        w8,[sp,#1]
	mov         w8,w8
	str         w8,[sp,#0x10]
	b           |$LN10@make_col|
|$LN9@make_col|
	mov         w8,#0xFF
	str         w8,[sp,#0x10]
|$LN10@make_col|
	ldr         w8,[sp,#0x10]
	uxtb        w8,w8
	strb        w8,[sp,#1]

; 95   : 	blue = max(blue, 0);

	ldrb        w8,[sp,#2]
	mov         w8,w8
	cmp         w8,#0
	ble         |$LN11@make_col|
	ldrb        w8,[sp,#2]
	mov         w8,w8
	str         w8,[sp,#0x14]
	b           |$LN12@make_col|
|$LN11@make_col|
	mov         w8,#0
	str         w8,[sp,#0x14]
|$LN12@make_col|
	ldr         w8,[sp,#0x14]
	uxtb        w8,w8
	strb        w8,[sp,#2]

; 96   : 	blue = min(blue, 255);

	ldrb        w8,[sp,#2]
	mov         w8,w8
	cmp         w8,#0xFF
	bge         |$LN13@make_col|
	ldrb        w8,[sp,#2]
	mov         w8,w8
	str         w8,[sp,#0x18]
	b           |$LN14@make_col|
|$LN13@make_col|
	mov         w8,#0xFF
	str         w8,[sp,#0x18]
|$LN14@make_col|
	ldr         w8,[sp,#0x18]
	uxtb        w8,w8
	strb        w8,[sp,#2]

; 97   : 
; 98   : 	uint32_t ret = (red << 16) | (green << 8) | (blue << 0);

	ldrb        w8,[sp]
	mov         w8,w8
	lsl         w9,w8,#0x10
	ldrb        w8,[sp,#1]
	mov         w8,w8
	lsl         w8,w8,#8
	orr         w9,w9,w8
	ldrb        w8,[sp,#2]
	mov         w8,w8
	orr         w8,w9,w8
	str         w8,[sp,#0x1C]

; 99   : 	return ret;

	ldr         w0,[sp,#0x1C]
	add         sp,sp,#0x20
	ret

	ENDP  ; |make_col|

; Function compile flags: /Odtp
; File C:\Users\paras\source\repos\grep-name\XenevaOS\Libs\Chitralekha\color.cpp

	AREA	|.text$mn|, CODE, ARM64

|ChColorDrawVerticalGradient| PROC

; 129  : void ChColorDrawVerticalGradient(ChCanvas* canv, int x, int y, int w, int h, uint32_t color1, uint32_t color2) {

|$LN6|
	stp         fp,lr,[sp,#-0x50]!
	mov         fp,sp
	str         x0,[sp,#0x40]
	str         w1,[sp,#0x38]
	str         w2,[sp,#0x2C]
	str         w3,[sp,#0x34]
	str         w4,[sp,#0x20]
	str         w5,[sp,#0x24]
	str         w6,[sp,#0x28]

; 130  : 	uint8_t r1 = GET_RED(color1);

	ldr         w8,[sp,#0x24]
	ubfx        w8,w8,#0x10,#8
	uxtb        w8,w8
	strb        w8,[sp,#0x11]

; 131  : 	uint8_t g1 = GET_GREEN(color1);

	ldr         w8,[sp,#0x24]
	ubfx        w8,w8,#8,#8
	uxtb        w8,w8
	strb        w8,[sp,#0x12]

; 132  : 	uint8_t b1 = GET_BLUE(color1);

	ldr         w8,[sp,#0x24]
	and         w8,w8,#0xFF
	uxtb        w8,w8
	strb        w8,[sp,#0x13]

; 133  : 	uint8_t a1 = GET_ALPHA(color1);

	ldr         w8,[sp,#0x24]
	lsr         w8,w8,#0x18
	uxtb        w8,w8
	strb        w8,[sp,#0x10]

; 134  : 
; 135  : 	uint8_t r2 = GET_RED(color2);

	ldr         w8,[sp,#0x28]
	ubfx        w8,w8,#0x10,#8
	uxtb        w8,w8
	strb        w8,[sp,#0x19]

; 136  : 	uint8_t g2 = GET_GREEN(color2);

	ldr         w8,[sp,#0x28]
	ubfx        w8,w8,#8,#8
	uxtb        w8,w8
	strb        w8,[sp,#0x1A]

; 137  : 	uint8_t b2 = GET_BLUE(color2);

	ldr         w8,[sp,#0x28]
	and         w8,w8,#0xFF
	uxtb        w8,w8
	strb        w8,[sp,#0x1B]

; 138  : 	uint8_t a2 = GET_ALPHA(color2);

	ldr         w8,[sp,#0x28]
	lsr         w8,w8,#0x18
	uxtb        w8,w8
	strb        w8,[sp,#0x18]

; 139  : 
; 140  : 	for (int j = 0; j < h; j++) {

	mov         w8,#0
	str         w8,[sp,#0x14]
	b           |$LN4@ChColorDra|
|$LN2@ChColorDra|
	ldr         w8,[sp,#0x14]
	add         w8,w8,#1
	str         w8,[sp,#0x14]
|$LN4@ChColorDra|
	ldr         w9,[sp,#0x20]
	ldr         w8,[sp,#0x14]
	cmp         w8,w9
	bge         |$LN3@ChColorDra|

; 141  : 		uint8_t a = (uint8_t)(j * (((double)a2 - a1) / h) + a1);

	ldr         w8,[sp,#0x14]
	scvtf       d18,w8
	ldrb        w8,[sp,#0x18]
	mov         w8,w8
	scvtf       d17,w8
	ldrb        w8,[sp,#0x10]
	mov         w8,w8
	scvtf       d16,w8
	fsub        d17,d17,d16
	ldr         w8,[sp,#0x20]
	scvtf       d16,w8
	fdiv        d16,d17,d16
	fmul        d17,d18,d16
	ldrb        w8,[sp,#0x10]
	mov         w8,w8
	scvtf       d16,w8
	fadd        d16,d17,d16
	fcvtzu      w8,d16
	uxtb        w8,w8
	strb        w8,[sp,#0x1C]

; 142  : 		uint8_t red = (uint8_t)(j * (((double)r2 - r1) / h) + r1);

	ldr         w8,[sp,#0x14]
	scvtf       d18,w8
	ldrb        w8,[sp,#0x19]
	mov         w8,w8
	scvtf       d17,w8
	ldrb        w8,[sp,#0x11]
	mov         w8,w8
	scvtf       d16,w8
	fsub        d17,d17,d16
	ldr         w8,[sp,#0x20]
	scvtf       d16,w8
	fdiv        d16,d17,d16
	fmul        d17,d18,d16
	ldrb        w8,[sp,#0x11]
	mov         w8,w8
	scvtf       d16,w8
	fadd        d16,d17,d16
	fcvtzu      w8,d16
	uxtb        w8,w8
	strb        w8,[sp,#0x1D]

; 143  : 		uint8_t green = (uint8_t)(j * (((double)g2 - g1) / h) + g1);

	ldr         w8,[sp,#0x14]
	scvtf       d18,w8
	ldrb        w8,[sp,#0x1A]
	mov         w8,w8
	scvtf       d17,w8
	ldrb        w8,[sp,#0x12]
	mov         w8,w8
	scvtf       d16,w8
	fsub        d17,d17,d16
	ldr         w8,[sp,#0x20]
	scvtf       d16,w8
	fdiv        d16,d17,d16
	fmul        d17,d18,d16
	ldrb        w8,[sp,#0x12]
	mov         w8,w8
	scvtf       d16,w8
	fadd        d16,d17,d16
	fcvtzu      w8,d16
	uxtb        w8,w8
	strb        w8,[sp,#0x1E]

; 144  : 		uint8_t blue = (uint8_t)(j * (((double)b2 - b1) / h) + b1);

	ldr         w8,[sp,#0x14]
	scvtf       d18,w8
	ldrb        w8,[sp,#0x1B]
	mov         w8,w8
	scvtf       d17,w8
	ldrb        w8,[sp,#0x13]
	mov         w8,w8
	scvtf       d16,w8
	fsub        d17,d17,d16
	ldr         w8,[sp,#0x20]
	scvtf       d16,w8
	fdiv        d16,d17,d16
	fmul        d17,d18,d16
	ldrb        w8,[sp,#0x13]
	mov         w8,w8
	scvtf       d16,w8
	fadd        d16,d17,d16
	fcvtzu      w8,d16
	uxtb        w8,w8
	strb        w8,[sp,#0x1F]

; 145  : 		uint32_t col = (a << 24) | (red << 16) | (green << 8) | (blue << 0);

	ldrb        w8,[sp,#0x1C]
	mov         w8,w8
	lsl         w9,w8,#0x18
	ldrb        w8,[sp,#0x1D]
	mov         w8,w8
	lsl         w8,w8,#0x10
	orr         w9,w9,w8
	ldrb        w8,[sp,#0x1E]
	mov         w8,w8
	lsl         w8,w8,#8
	orr         w9,w9,w8
	ldrb        w8,[sp,#0x1F]
	mov         w8,w8
	orr         w8,w9,w8
	str         w8,[sp,#0x30]

; 146  : 		ChDrawRect(canv, x, y + j, w, 1, col);

	ldr         w9,[sp,#0x2C]
	ldr         w8,[sp,#0x14]
	add         w2,w9,w8
	ldr         w5,[sp,#0x30]
	mov         w4,#1
	ldr         w3,[sp,#0x34]
	mov         w2,w2
	ldr         w1,[sp,#0x38]
	ldr         x0,[sp,#0x40]
	bl          ChDrawRect

; 147  : 	}

	b           |$LN2@ChColorDra|
|$LN3@ChColorDra|
	ldp         fp,lr,[sp],#0x50
	ret

	ENDP  ; |ChColorDrawVerticalGradient|

; Function compile flags: /Odtp
; File C:\Users\paras\source\repos\grep-name\XenevaOS\Libs\Chitralekha\color.cpp

	AREA	|.text$mn|, CODE, ARM64

|ChColorAlphaBlend2| PROC

; 74   : uint32_t ChColorAlphaBlend2(uint32_t color1, uint32_t color2) {

|$LN7|
	sub         sp,sp,#0x20
	str         w0,[sp,#8]
	str         w1,[sp,#4]

; 75   : 	uint32_t a = (color2 & AMASK) >> 24;

	ldr         w8,[sp,#4]
	and         w8,w8,#0xFF000000
	lsr         w8,w8,#0x18
	str         w8,[sp]

; 76   : 	if (a == 0)

	ldr         w8,[sp]
	cmp         w8,#0
	bne         |$LN2@ChColorAlp|

; 77   : 		return color1;

	ldr         w0,[sp,#8]
	b           |$LN1@ChColorAlp|
	b           |$LN3@ChColorAlp|
|$LN2@ChColorAlp|

; 78   : 	else if (a == 255)

	ldr         w8,[sp]
	cmp         w8,#0xFF
	bne         |$LN4@ChColorAlp|

; 79   : 		return color2;

	ldr         w0,[sp,#4]
	b           |$LN1@ChColorAlp|
	b           |$LN5@ChColorAlp|
|$LN4@ChColorAlp|

; 80   : 	else{
; 81   : 		uint32_t na = 255 - a;

	mov         w9,#0xFF
	ldr         w8,[sp]
	sub         w8,w9,w8
	str         w8,[sp,#0xC]

; 82   : 		uint32_t rb = ((na * (color1 & RBMASK)) + (a * (color2 & RBMASK))) >> 8;

	ldr         w8,[sp,#8]
	and         w9,w8,#0xFF00FF
	ldr         w8,[sp,#0xC]
	mul         w10,w8,w9
	ldr         w8,[sp,#4]
	and         w9,w8,#0xFF00FF
	ldr         w8,[sp]
	mul         w8,w8,w9
	add         w8,w10,w8
	lsr         w8,w8,#8
	str         w8,[sp,#0x10]

; 83   : 		uint32_t ag = (na * ((color1 & AGMASK) >> 8)) + (a * (ONEALPHA | ((color2 & GMASK) >> 8)));

	ldr         w8,[sp,#8]
	and         w8,w8,#0xFF00FF00
	lsr         w9,w8,#8
	ldr         w8,[sp,#0xC]
	mul         w10,w8,w9
	ldr         w8,[sp,#4]
	and         w8,w8,#0xFF00
	lsr         w8,w8,#8
	orr         w9,w8,#0x1000000
	ldr         w8,[sp]
	mul         w8,w8,w9
	add         w8,w10,w8
	str         w8,[sp,#0x14]

; 84   : 
; 85   : 		return ((rb & RBMASK) | (ag & AGMASK));

	ldr         w8,[sp,#0x10]
	and         w9,w8,#0xFF00FF
	ldr         w8,[sp,#0x14]
	and         w8,w8,#0xFF00FF00
	orr         w0,w9,w8
	mov         w0,w0
|$LN5@ChColorAlp|
|$LN3@ChColorAlp|
|$LN1@ChColorAlp|
	add         sp,sp,#0x20
	ret

	ENDP  ; |ChColorAlphaBlend2|

; Function compile flags: /Odtp
; File C:\Users\paras\source\repos\grep-name\XenevaOS\Libs\Chitralekha\color.cpp

	AREA	|.text$mn|, CODE, ARM64

|ChColorAlphaBlend| PROC

; 47   : uint32_t ChColorAlphaBlend(uint32_t dst, uint32_t src, double opacity) {

|$LN3|
	sub         sp,sp,#0x20
	str         w0,[sp,#0xC]
	str         w1,[sp,#0x10]
	str         d0,[sp,#0x18]

; 48   : 	/*int oldB = oldColor & 0xFF;
; 49   : 	int oldG = (oldColor >> 8) & 0xFF;
; 50   : 	int oldR = (oldColor >> 16) & 0xff;
; 51   : 	uint8_t r = GET_RED(color2);
; 52   : 	uint8_t b = GET_BLUE(color2);
; 53   : 	uint8_t g = GET_GREEN(color2);
; 54   : 	uint32_t newColor = (int)(b* opacity + oldB * (1 - opacity)) |
; 55   : 		(((int)(g * opacity + oldG * (1 - opacity)) << 8)) |
; 56   : 		(((int)(r * opacity + oldR * (1 - opacity)) << 16));
; 57   : 	return newColor;*/
; 58   : 	uint8_t dstR = (dst >> 16) & 0xFF;

	ldr         w8,[sp,#0xC]
	ubfx        w8,w8,#0x10,#8
	uxtb        w8,w8
	strb        w8,[sp,#1]

; 59   : 	uint8_t dstG = (dst >> 8) & 0xFF;

	ldr         w8,[sp,#0xC]
	ubfx        w8,w8,#8,#8
	uxtb        w8,w8
	strb        w8,[sp,#3]

; 60   : 	uint8_t dstB = dst & 0xFF;

	ldr         w8,[sp,#0xC]
	and         w8,w8,#0xFF
	uxtb        w8,w8
	strb        w8,[sp,#5]

; 61   : 
; 62   : 	uint8_t srcR = (src >> 16) & 0xFF;

	ldr         w8,[sp,#0x10]
	ubfx        w8,w8,#0x10,#8
	uxtb        w8,w8
	strb        w8,[sp]

; 63   : 	uint8_t srcG = (src >> 8) & 0xFF;

	ldr         w8,[sp,#0x10]
	ubfx        w8,w8,#8,#8
	uxtb        w8,w8
	strb        w8,[sp,#2]

; 64   : 	uint8_t srcB = src & 0xFF;

	ldr         w8,[sp,#0x10]
	and         w8,w8,#0xFF
	uxtb        w8,w8
	strb        w8,[sp,#4]

; 65   : 
; 66   : 	uint8_t outR = (uint8_t)(srcR * opacity + dstR * (1.0f - opacity));

	ldrb        w8,[sp]
	mov         w8,w8
	scvtf       d17,w8
	ldr         d16,[sp,#0x18]
	fmul        d19,d17,d16
	ldrb        w8,[sp,#1]
	mov         w8,w8
	scvtf       d18,w8
	fmov        d17,#1
	ldr         d16,[sp,#0x18]
	fsub        d16,d17,d16
	fmul        d16,d18,d16
	fadd        d16,d19,d16
	fcvtzu      w8,d16
	uxtb        w8,w8
	strb        w8,[sp,#6]

; 67   : 	uint8_t outG = (uint8_t)(srcG * opacity + dstG * (1.0f - opacity));

	ldrb        w8,[sp,#2]
	mov         w8,w8
	scvtf       d17,w8
	ldr         d16,[sp,#0x18]
	fmul        d19,d17,d16
	ldrb        w8,[sp,#3]
	mov         w8,w8
	scvtf       d18,w8
	fmov        d17,#1
	ldr         d16,[sp,#0x18]
	fsub        d16,d17,d16
	fmul        d16,d18,d16
	fadd        d16,d19,d16
	fcvtzu      w8,d16
	uxtb        w8,w8
	strb        w8,[sp,#7]

; 68   : 	uint8_t outB = (uint8_t)(srcB * opacity + dstB * (1.0f - opacity));

	ldrb        w8,[sp,#4]
	mov         w8,w8
	scvtf       d17,w8
	ldr         d16,[sp,#0x18]
	fmul        d19,d17,d16
	ldrb        w8,[sp,#5]
	mov         w8,w8
	scvtf       d18,w8
	fmov        d17,#1
	ldr         d16,[sp,#0x18]
	fsub        d16,d17,d16
	fmul        d16,d18,d16
	fadd        d16,d19,d16
	fcvtzu      w8,d16
	uxtb        w8,w8
	strb        w8,[sp,#8]

; 69   : 
; 70   : 	return (0xFF << 24) | (outR << 16) | (outG << 8) | outB;

	ldrb        w8,[sp,#6]
	mov         w8,w8
	lsl         w8,w8,#0x10
	orr         w9,w8,#0xFF000000
	ldrb        w8,[sp,#7]
	mov         w8,w8
	lsl         w8,w8,#8
	orr         w9,w9,w8
	ldrb        w8,[sp,#8]
	mov         w8,w8
	orr         w0,w9,w8
	mov         w0,w0
	add         sp,sp,#0x20
	ret

	ENDP  ; |ChColorAlphaBlend|

	END
