; Listing generated by Microsoft (R) Optimizing Compiler Version 19.29.30159.0 

	TTL	E:\Xeneva Project\Aurora\Libs\Chitralekha\ARM64\Debug\defaultmenu.obj
	ARM64

	AREA	|.drectve|, DRECTVE

	EXPORT	|?ChDefaultMenubarPainter@@YAXPEAU_ChWidget_@@PEAU_chwin_@@@Z| ; ChDefaultMenubarPainter
	EXPORT	|?ChPopupMenuAppendButton@@YAXPEAU_popup_menu_@@HHHH@Z| ; ChPopupMenuAppendButton
	EXPORT	|?ChPopupMenuPaint@@YAXPEAU_popup_menu_@@@Z| ; ChPopupMenuPaint
	IMPORT	|ChColorDrawVerticalGradient|
	IMPORT	|ChDrawRect|
	IMPORT	|ChDrawHorizontalLine|
	IMPORT	|ChDrawRectUnfilled|
	IMPORT	|ChDrawLine|
	IMPORT	|ChFontSetSize|
	IMPORT	|ChFontDrawText|
	IMPORT	|ChFontGetWidth|
	IMPORT	|ChFontGetHeight|
	IMPORT	|list_get_at|

	AREA	|.pdata|, PDATA
|$pdata$?ChDefaultMenubarPainter@@YAXPEAU_ChWidget_@@PEAU_chwin_@@@Z| DCD imagerel |$LN11|
	DCD	0x2e002c5
	;Flags[SingleProEpi] functionLength[708] RegF[0] RegI[0] H[0] frameChainReturn[Chained] frameSize[80]
|$pdata$?ChPopupMenuAppendButton@@YAXPEAU_popup_menu_@@HHHH@Z| DCD imagerel |$LN3|
	DCD	0x1e000c9
	;Flags[SingleProEpi] functionLength[200] RegF[0] RegI[0] H[0] frameChainReturn[Chained] frameSize[48]
|$pdata$?ChPopupMenuPaint@@YAXPEAU_popup_menu_@@@Z| DCD imagerel |$LN14|
	DCD	0x1e00295
	;Flags[SingleProEpi] functionLength[660] RegF[0] RegI[0] H[0] frameChainReturn[Chained] frameSize[48]
; Function compile flags: /Odtp
; File E:\Xeneva Project\Aurora\Libs\Chitralekha\widgets\defaultmenu.cpp

	AREA	|.text$mn|, CODE, ARM64

|?ChPopupMenuPaint@@YAXPEAU_popup_menu_@@@Z| PROC	; ChPopupMenuPaint

; 75   : void ChPopupMenuPaint(ChPopupMenu* popup){

|$LN14|
	stp         fp,lr,[sp,#-0x30]!
	mov         fp,sp
	str         x0,[sp,#0x20]

; 76   : 	ChDrawRect(popup->backWindow->canv, 0, 0, popup->wid.w, popup->wid.h, 0xFFE6CACA);

	ldr         x8,[sp,#0x20]
	add         x10,x8,#0xC
	ldr         x8,[sp,#0x20]
	add         x9,x8,#8
	ldr         x8,[sp,#0x20]
	add         x8,x8,#0x58
	ldr         x8,[x8]
	add         x8,x8,#0x18
	ldr         w5,|$LN11@ChPopupMen|
	ldr         w4,[x10]
	ldr         w3,[x9]
	mov         w2,#0
	mov         w1,#0
	ldr         x0,[x8]
	bl          ChDrawRect

; 77   : 	int menu_item_height = DEFAULT_MENU_ITEM_HEIGHT;

	mov         w8,#0x1C
	str         w8,[sp,#0x18]

; 78   : 	int menu_item_y = DEFAULT_MENU_ITEM_BUTTON_PADY;

	mov         w8,#0
	str         w8,[sp,#0x10]

; 79   : 	for (int i = 0; i < popup->MenuItems->pointer; i++) {

	mov         w8,#0
	str         w8,[sp,#0x14]
	b           |$LN4@ChPopupMen|
|$LN2@ChPopupMen|
	ldr         w8,[sp,#0x14]
	add         w8,w8,#1
	str         w8,[sp,#0x14]
|$LN4@ChPopupMen|
	ldr         x8,[sp,#0x20]
	add         x8,x8,#0x60
	ldr         x8,[x8]
	ldr         w9,[x8]
	ldr         w8,[sp,#0x14]
	cmp         w8,w9
	bhs         |$LN3@ChPopupMen|

; 80   : 		ChMenuItem* mi = (ChMenuItem*)list_get_at(popup->MenuItems, i);

	ldr         x8,[sp,#0x20]
	add         x8,x8,#0x60
	ldr         w1,[sp,#0x14]
	ldr         x0,[x8]
	bl          list_get_at
	str         x0,[sp,#0x28]

; 81   : 		if (mi->wid.y == 0)

	ldr         x8,[sp,#0x28]
	add         x8,x8,#4
	ldr         w8,[x8]
	cmp         w8,#0
	bne         |$LN5@ChPopupMen|

; 82   : 			mi->wid.y = menu_item_y;

	ldr         x8,[sp,#0x28]
	add         x9,x8,#4
	ldr         w8,[sp,#0x10]
	str         w8,[x9]
|$LN5@ChPopupMen|

; 83   : 		if (mi->wid.hover) {

	ldr         x8,[sp,#0x28]
	add         x8,x8,#0x19
	ldrsb       w8,[x8]
	mov         w8,w8
	cmp         w8,#0
	beq         |$LN6@ChPopupMen|

; 84   : 			/*ChColorDrawHorizontalGradient(popup->backWindow->canv, 
; 85   : 				0, mi->wid.y, popup->wid.w, DEFAULT_MENU_ITEM_HEIGHT, 0xFF658096, 0xFF8CA2B4);*/
; 86   : 			ChDrawRect(popup->backWindow->canv, 0, menu_item_y + 2, popup->wid.w, DEFAULT_MENU_ITEM_HEIGHT - 2, 0xFF8CA2B4);

	ldr         x8,[sp,#0x20]
	add         x9,x8,#8
	ldr         w8,[sp,#0x10]
	add         w2,w8,#2
	ldr         x8,[sp,#0x20]
	add         x8,x8,#0x58
	ldr         x8,[x8]
	add         x8,x8,#0x18
	ldr         w5,|$LN12@ChPopupMen|
	mov         w4,#0x1A
	ldr         w3,[x9]
	mov         w2,w2
	mov         w1,#0
	ldr         x0,[x8]
	bl          ChDrawRect
|$LN6@ChPopupMen|

; 87   : 		}
; 88   : 	/*	ChDrawRect(popup->backWindow->canv, 0, menu_item_y, popup->wid.w, DEFAULT_MENU_ITEM_HEIGHT, GREEN);*/
; 89   : 		ChFontDrawText(popup->backWindow->canv, popup->mainWindow->app->baseFont, mi->title, 10, menu_item_y +

	ldr         w9,[sp,#0x18]
	mov         w8,#2
	sdiv        w9,w9,w8
	ldr         w8,[sp,#0x10]
	add         w8,w8,w9
	add         w4,w8,#5
	ldr         x8,[sp,#0x28]
	add         x10,x8,#0x50
	ldr         x8,[sp,#0x20]
	add         x8,x8,#0x50
	ldr         x8,[x8]
	add         x8,x8,#0x30
	ldr         x8,[x8]
	add         x9,x8,#0x30
	ldr         x8,[sp,#0x20]
	add         x8,x8,#0x58
	ldr         x8,[x8]
	add         x8,x8,#0x18
	mov         w6,#0xFF000000
	mov         w5,#0xA
	mov         w4,w4
	mov         w3,#0xA
	ldr         x2,[x10]
	ldr         x1,[x9]
	ldr         x0,[x8]
	bl          ChFontDrawText

; 90   : 			(menu_item_height/2) + 5, 10, BLACK);
; 91   : 
; 92   : 		if (mi->menu)

	ldr         x8,[sp,#0x28]
	add         x8,x8,#0x58
	ldr         x8,[x8]
	cmp         x8,#0
	beq         |$LN7@ChPopupMen|

; 93   : 			ChPopupMenuAppendButton(popup, popup->wid.w - 15, menu_item_y + menu_item_height/2 - 7/2, 7,7);

	ldr         w9,[sp,#0x18]
	mov         w8,#2
	sdiv        w9,w9,w8
	ldr         w8,[sp,#0x10]
	add         w8,w8,w9
	sub         w2,w8,#3
	ldr         x8,[sp,#0x20]
	add         x8,x8,#8
	ldr         w8,[x8]
	sub         w1,w8,#0xF
	mov         w4,#7
	mov         w3,#7
	mov         w2,w2
	mov         w1,w1
	ldr         x0,[sp,#0x20]
	bl          |?ChPopupMenuAppendButton@@YAXPEAU_popup_menu_@@HHHH@Z|
|$LN7@ChPopupMen|

; 94   : 
; 95   : 		if (mi->seperator) {

	ldr         x8,[sp,#0x28]
	add         x8,x8,#0x68
	ldrsb       w8,[x8]
	mov         w8,w8
	cmp         w8,#0
	beq         |$LN8@ChPopupMen|

; 96   : 			ChDrawHorizontalLine(popup->backWindow->canv, 4, menu_item_y + 1, popup->wid.w - (4*2), GRAY);

	ldr         x8,[sp,#0x20]
	add         x8,x8,#8
	ldr         w8,[x8]
	sub         w3,w8,#8
	ldr         w8,[sp,#0x10]
	add         w2,w8,#1
	ldr         x8,[sp,#0x20]
	add         x8,x8,#0x58
	ldr         x8,[x8]
	add         x8,x8,#0x18
	ldr         w4,|$LN13@ChPopupMen|
	mov         w3,w3
	mov         w2,w2
	mov         w1,#4
	ldr         x0,[x8]
	bl          ChDrawHorizontalLine

; 97   : 			menu_item_y += DEFAULT_MENU_ITEM_HEIGHT + DEFAULT_MENU_ITEM_BUTTON_PADY + 2;

	ldr         w8,[sp,#0x10]
	add         w8,w8,#0x1E
	str         w8,[sp,#0x10]

; 98   : 		}

	b           |$LN9@ChPopupMen|
|$LN8@ChPopupMen|

; 99   : 		else
; 100  : 			menu_item_y += DEFAULT_MENU_ITEM_HEIGHT + DEFAULT_MENU_ITEM_BUTTON_PADY;

	ldr         w8,[sp,#0x10]
	add         w8,w8,#0x1C
	str         w8,[sp,#0x10]
|$LN9@ChPopupMen|

; 101  : 
; 102  : 		
; 103  : 
; 104  : 	}

	b           |$LN2@ChPopupMen|
|$LN3@ChPopupMen|

; 105  : 	ChDrawRectUnfilled(popup->backWindow->canv, 0, 0, popup->wid.w, popup->wid.h,GRAY);

	ldr         x8,[sp,#0x20]
	add         x10,x8,#0xC
	ldr         x8,[sp,#0x20]
	add         x9,x8,#8
	ldr         x8,[sp,#0x20]
	add         x8,x8,#0x58
	ldr         x8,[x8]
	add         x8,x8,#0x18
	ldr         w5,|$LN13@ChPopupMen|
	ldr         w4,[x10]
	ldr         w3,[x9]
	mov         w2,#0
	mov         w1,#0
	ldr         x0,[x8]
	bl          ChDrawRectUnfilled
	ldp         fp,lr,[sp],#0x30
	ret
	nop
|$LN11@ChPopupMen|
	DCD         0xffe6caca
|$LN12@ChPopupMen|
	DCD         0xff8ca2b4
|$LN13@ChPopupMen|
	DCD         0xff808080

	ENDP  ; |?ChPopupMenuPaint@@YAXPEAU_popup_menu_@@@Z|, ChPopupMenuPaint

; Function compile flags: /Odtp
; File E:\Xeneva Project\Aurora\Libs\Chitralekha\widgets\defaultmenu.cpp

	AREA	|.text$mn|, CODE, ARM64

|?ChPopupMenuAppendButton@@YAXPEAU_popup_menu_@@HHHH@Z| PROC ; ChPopupMenuAppendButton

; 69   : void ChPopupMenuAppendButton(ChPopupMenu* pm, int x, int y, int w, int h) {

|$LN3|
	stp         fp,lr,[sp,#-0x30]!
	mov         fp,sp
	str         x0,[sp,#0x20]
	str         w1,[sp,#0x14]
	str         w2,[sp,#0x10]
	str         w3,[sp,#0x1C]
	str         w4,[sp,#0x18]

; 70   : 	//ChDrawRect(pm->backWindow->canv, x, y, w, h, WHITE);
; 71   : 	ChDrawLine(pm->backWindow->canv, x, y, x + w, y + h/2, BLACK);

	ldr         w9,[sp,#0x18]
	mov         w8,#2
	sdiv        w9,w9,w8
	ldr         w8,[sp,#0x10]
	add         w4,w8,w9
	ldr         w9,[sp,#0x14]
	ldr         w8,[sp,#0x1C]
	add         w3,w9,w8
	ldr         x8,[sp,#0x20]
	add         x8,x8,#0x58
	ldr         x8,[x8]
	add         x8,x8,#0x18
	mov         w5,#0xFF000000
	mov         w4,w4
	mov         w3,w3
	ldr         w2,[sp,#0x10]
	ldr         w1,[sp,#0x14]
	ldr         x0,[x8]
	bl          ChDrawLine

; 72   : 	ChDrawLine(pm->backWindow->canv, x + w, y + h/2,x, y + h, BLACK);

	ldr         w9,[sp,#0x10]
	ldr         w8,[sp,#0x18]
	add         w4,w9,w8
	ldr         w9,[sp,#0x18]
	mov         w8,#2
	sdiv        w9,w9,w8
	ldr         w8,[sp,#0x10]
	add         w2,w8,w9
	ldr         w9,[sp,#0x14]
	ldr         w8,[sp,#0x1C]
	add         w1,w9,w8
	ldr         x8,[sp,#0x20]
	add         x8,x8,#0x58
	ldr         x8,[x8]
	add         x8,x8,#0x18
	mov         w5,#0xFF000000
	mov         w4,w4
	ldr         w3,[sp,#0x14]
	mov         w2,w2
	mov         w1,w1
	ldr         x0,[x8]
	bl          ChDrawLine
	ldp         fp,lr,[sp],#0x30
	ret

	ENDP  ; |?ChPopupMenuAppendButton@@YAXPEAU_popup_menu_@@HHHH@Z|, ChPopupMenuAppendButton

; Function compile flags: /Odtp
; File E:\Xeneva Project\Aurora\Libs\Chitralekha\widgets\defaultmenu.cpp

	AREA	|.text$mn|, CODE, ARM64

|?ChDefaultMenubarPainter@@YAXPEAU_ChWidget_@@PEAU_chwin_@@@Z| PROC ; ChDefaultMenubarPainter

; 43   : void ChDefaultMenubarPainter(ChWidget* wid, ChWindow* win) {

|$LN11|
	stp         fp,lr,[sp,#-0x50]!
	mov         fp,sp
	str         x0,[sp,#0x48]
	str         x1,[sp,#0x30]

; 44   : 	ChMenubar *mb = (ChMenubar*)wid;

	ldr         x8,[sp,#0x48]
	str         x8,[sp,#0x20]

; 45   : 	ChColorDrawVerticalGradient(win->canv, mb->wid.x, mb->wid.y, mb->wid.w, mb->wid.h, MENUBAR_COLORLIGHT,

	ldr         x8,[sp,#0x20]
	add         x12,x8,#0xC
	ldr         x8,[sp,#0x20]
	add         x11,x8,#8
	ldr         x8,[sp,#0x20]
	add         x10,x8,#4
	ldr         x9,[sp,#0x20]
	ldr         x8,[sp,#0x30]
	add         x8,x8,#0x18
	ldr         w6,|$LN8@ChDefaultM|
	ldr         w5,|$LN9@ChDefaultM|
	ldr         w4,[x12]
	ldr         w3,[x11]
	ldr         w2,[x10]
	ldr         w1,[x9]
	ldr         x0,[x8]
	bl          ChColorDrawVerticalGradient

; 46   : 		MENUBAR_COLORDARK);
; 47   : 	ChFont* mainFont = win->app->baseFont;

	ldr         x8,[sp,#0x30]
	add         x8,x8,#0x30
	ldr         x8,[x8]
	add         x8,x8,#0x30
	ldr         x8,[x8]
	str         x8,[sp,#0x38]

; 48   : 	ChFontSetSize(mainFont, 10);

	mov         w1,#0xA
	ldr         x0,[sp,#0x38]
	bl          ChFontSetSize

; 49   : 	int mbut_pox_x = mb->wid.x + 4;

	ldr         x8,[sp,#0x20]
	ldr         w8,[x8]
	add         w8,w8,#4
	str         w8,[sp,#0x28]

; 50   : 	for (int i = 0; i < mb->menubuttons->pointer; i++) {

	mov         w8,#0
	str         w8,[sp,#0x18]
	b           |$LN4@ChDefaultM|
|$LN2@ChDefaultM|
	ldr         w8,[sp,#0x18]
	add         w8,w8,#1
	str         w8,[sp,#0x18]
|$LN4@ChDefaultM|
	ldr         x8,[sp,#0x20]
	add         x8,x8,#0x50
	ldr         x8,[x8]
	ldr         w9,[x8]
	ldr         w8,[sp,#0x18]
	cmp         w8,w9
	bhs         |$LN3@ChDefaultM|

; 51   : 		ChMenuButton* mbut = (ChMenuButton*)list_get_at(mb->menubuttons, i);

	ldr         x8,[sp,#0x20]
	add         x8,x8,#0x50
	ldr         w1,[sp,#0x18]
	ldr         x0,[x8]
	bl          list_get_at
	str         x0,[sp,#0x10]

; 52   : 		int title_w = ChFontGetWidth(mainFont, mbut->title);

	ldr         x8,[sp,#0x10]
	add         x8,x8,#0x50
	ldr         x1,[x8]
	ldr         x0,[sp,#0x38]
	bl          ChFontGetWidth
	mov         w8,w0
	str         w8,[sp,#0x2C]

; 53   : 		int title_h = ChFontGetHeight(mainFont, mbut->title);

	ldr         x8,[sp,#0x10]
	add         x8,x8,#0x50
	ldr         x1,[x8]
	ldr         x0,[sp,#0x38]
	bl          ChFontGetHeight
	mov         w8,w0
	str         w8,[sp,#0x40]

; 54   : 		mbut->wid.w = title_w + 8;

	ldr         w8,[sp,#0x2C]
	add         w9,w8,#8
	ldr         x8,[sp,#0x10]
	add         x8,x8,#8
	str         w9,[x8]

; 55   : 		mbut->wid.x = mbut_pox_x;

	ldr         x9,[sp,#0x10]
	ldr         w8,[sp,#0x28]
	str         w8,[x9]

; 56   : 		ChColorDrawVerticalGradient(win->canv, mbut->wid.x, mbut->wid.y, mbut->wid.w, mbut->wid.h, MENUBAR_COLORLIGHT,

	ldr         x8,[sp,#0x10]
	add         x12,x8,#0xC
	ldr         x8,[sp,#0x10]
	add         x11,x8,#8
	ldr         x8,[sp,#0x10]
	add         x10,x8,#4
	ldr         x9,[sp,#0x10]
	ldr         x8,[sp,#0x30]
	add         x8,x8,#0x18
	ldr         w6,|$LN8@ChDefaultM|
	ldr         w5,|$LN9@ChDefaultM|
	ldr         w4,[x12]
	ldr         w3,[x11]
	ldr         w2,[x10]
	ldr         w1,[x9]
	ldr         x0,[x8]
	bl          ChColorDrawVerticalGradient

; 57   : 			MENUBAR_COLORDARK);
; 58   : 		if (mbut->hover)

	ldr         x8,[sp,#0x10]
	add         x8,x8,#0x58
	ldrsb       w8,[x8]
	mov         w8,w8
	cmp         w8,#0
	beq         |$LN5@ChDefaultM|

; 59   : 			ChDrawRect(win->canv, mbut->wid.x, mbut->wid.y, mbut->wid.w, mbut->wid.h, 0xFF3F8EDA);

	ldr         x8,[sp,#0x10]
	add         x12,x8,#0xC
	ldr         x8,[sp,#0x10]
	add         x11,x8,#8
	ldr         x8,[sp,#0x10]
	add         x10,x8,#4
	ldr         x9,[sp,#0x10]
	ldr         x8,[sp,#0x30]
	add         x8,x8,#0x18
	ldr         w5,|$LN10@ChDefaultM|
	ldr         w4,[x12]
	ldr         w3,[x11]
	ldr         w2,[x10]
	ldr         w1,[x9]
	ldr         x0,[x8]
	bl          ChDrawRect
|$LN5@ChDefaultM|

; 60   : 
; 61   : 		ChFontDrawText(win->canv, mainFont, mbut->title,mbut->wid.x + (mbut->wid.w/2)- title_w / 2,

	ldr         x8,[sp,#0x10]
	add         x10,x8,#4
	ldr         x8,[sp,#0x10]
	add         x9,x8,#4
	ldr         x8,[sp,#0x10]
	add         x8,x8,#0xC
	ldr         w9,[x9]
	ldr         w8,[x8]
	add         w9,w9,w8
	mov         w8,#2
	sdiv        w9,w9,w8
	ldr         w8,[x10]
	add         w10,w8,w9
	ldr         w9,[sp,#0x40]
	mov         w8,#2
	sdiv        w8,w9,w8
	sub         w4,w10,w8
	ldr         x10,[sp,#0x10]
	ldr         x8,[sp,#0x10]
	add         x8,x8,#8
	ldr         w9,[x8]
	mov         w8,#2
	sdiv        w9,w9,w8
	ldr         w8,[x10]
	add         w10,w8,w9
	ldr         w9,[sp,#0x2C]
	mov         w8,#2
	sdiv        w8,w9,w8
	sub         w3,w10,w8
	ldr         x8,[sp,#0x10]
	add         x9,x8,#0x50
	ldr         x8,[sp,#0x30]
	add         x8,x8,#0x18
	mov         w6,#-1
	mov         w5,#0xA
	mov         w4,w4
	mov         w3,w3
	ldr         x2,[x9]
	ldr         x1,[sp,#0x38]
	ldr         x0,[x8]
	bl          ChFontDrawText

; 62   : 			mbut->wid.y + ((mbut->wid.y + mbut->wid.h)/2) - title_h / 2, 10, WHITE);
; 63   : 		mbut_pox_x += mbut->wid.w + 4;

	ldr         x8,[sp,#0x10]
	add         x8,x8,#8
	ldr         w8,[x8]
	add         w9,w8,#4
	ldr         w8,[sp,#0x28]
	add         w8,w8,w9
	str         w8,[sp,#0x28]

; 64   : 	}

	b           |$LN2@ChDefaultM|
|$LN3@ChDefaultM|

; 65   : 	if (!mb->allpainted)

	ldr         x8,[sp,#0x20]
	add         x8,x8,#0x58
	ldrsb       w8,[x8]
	mov         w8,w8
	cmp         w8,#0
	bne         |$LN6@ChDefaultM|

; 66   : 		mb->allpainted = true;

	ldr         x8,[sp,#0x20]
	add         x9,x8,#0x58
	mov         w8,#1
	strb        w8,[x9]
|$LN6@ChDefaultM|
	ldp         fp,lr,[sp],#0x50
	ret
	nop
|$LN8@ChDefaultM|
	DCD         0xff232323
|$LN9@ChDefaultM|
	DCD         0xff474545
|$LN10@ChDefaultM|
	DCD         0xff3f8eda

	ENDP  ; |?ChDefaultMenubarPainter@@YAXPEAU_ChWidget_@@PEAU_chwin_@@@Z|, ChDefaultMenubarPainter

	END
