; Listing generated by Microsoft (R) Optimizing Compiler Version 19.29.30159.0 

	TTL	E:\Xeneva Project\Aurora\Libs\Chitralekha\ARM64\Debug\defaultviews.obj
	ARM64

	AREA	|.drectve|, DRECTVE

	EXPORT	|?ChDefaultListViewPainter@@YAXPEAU_ChWidget_@@PEAU_chwin_@@@Z| ; ChDefaultListViewPainter
	IMPORT	|ChDrawRect|
	IMPORT	|ChDrawRectClipped|
	IMPORT	|ChFontSetSize|
	IMPORT	|ChFontDrawTextClipped|
	IMPORT	|list_get_at|
	IMPORT	|ChDrawIconClipped|

	AREA	|.pdata|, PDATA
|$pdata$?ChDefaultListViewPainter@@YAXPEAU_ChWidget_@@PEAU_chwin_@@@Z| DCD imagerel |$LN11|
	DCD	0x3600399
	;Flags[SingleProEpi] functionLength[920] RegF[0] RegI[0] H[0] frameChainReturn[Chained] frameSize[96]
; Function compile flags: /Odtp
; File E:\Xeneva Project\Aurora\Libs\Chitralekha\widgets\defaultviews.cpp

	AREA	|.text$mn|, CODE, ARM64

|?ChDefaultListViewPainter@@YAXPEAU_ChWidget_@@PEAU_chwin_@@@Z| PROC ; ChDefaultListViewPainter

; 40   : void ChDefaultListViewPainter(ChWidget* wid, ChWindow* win) {

|$LN11|
	stp         fp,lr,[sp,#-0x60]!
	mov         fp,sp
	str         x0,[sp,#0x58]
	str         x1,[sp,#0x28]

; 41   : 	ChListView *lv = (ChListView*)wid;

	ldr         x8,[sp,#0x58]
	str         x8,[sp,#0x10]

; 42   : 	ChDrawRect(win->canv, lv->wid.x, lv->wid.y, lv->wid.w, lv->wid.h, WHITE);

	ldr         x8,[sp,#0x10]
	add         x12,x8,#0xC
	ldr         x8,[sp,#0x10]
	add         x11,x8,#8
	ldr         x8,[sp,#0x10]
	add         x10,x8,#4
	ldr         x9,[sp,#0x10]
	ldr         x8,[sp,#0x28]
	add         x8,x8,#0x18
	mov         w5,#-1
	ldr         w4,[x12]
	ldr         w3,[x11]
	ldr         w2,[x10]
	ldr         w1,[x9]
	ldr         x0,[x8]
	bl          ChDrawRect

; 43   : 	ChRect viewRect;
; 44   : 	viewRect.x = lv->wid.x;

	ldr         x8,[sp,#0x10]
	ldr         w8,[x8]
	str         w8,[sp,#0x38]

; 45   : 	viewRect.y = lv->wid.y;

	ldr         x8,[sp,#0x10]
	add         x8,x8,#4
	ldr         w8,[x8]
	str         w8,[sp,#0x3C]

; 46   : 	viewRect.w = lv->wid.w;

	ldr         x8,[sp,#0x10]
	add         x8,x8,#8
	ldr         w8,[x8]
	str         w8,[sp,#0x40]

; 47   : 	viewRect.h = lv->wid.h;

	ldr         x8,[sp,#0x10]
	add         x8,x8,#0xC
	ldr         w8,[x8]
	str         w8,[sp,#0x44]

; 48   : 	ChFontSetSize(win->app->baseFont, 14);

	ldr         x8,[sp,#0x28]
	add         x8,x8,#0x30
	ldr         x8,[x8]
	add         x8,x8,#0x30
	mov         w1,#0xE
	ldr         x0,[x8]
	bl          ChFontSetSize

; 49   : 	int nodePaddingHeight = LIST_VIEW_ITEM_HEIGHT;

	mov         w8,#0x18
	str         w8,[sp,#0x30]

; 50   : 	int max_visible_items = lv->currentStartIndex + lv->wid.h / LIST_VIEW_ITEM_HEIGHT + 2 * nodePaddingHeight;

	ldr         x8,[sp,#0x10]
	add         x10,x8,#0x74
	ldr         x8,[sp,#0x10]
	add         x8,x8,#0xC
	ldr         w9,[x8]
	mov         w8,#0x18
	sdiv        w9,w9,w8
	ldr         w8,[x10]
	add         w10,w8,w9
	ldr         w9,[sp,#0x30]
	mov         w8,#2
	mul         w8,w9,w8
	add         w8,w10,w8
	str         w8,[sp,#0x48]

; 51   : 
; 52   : 	
; 53   : 	int ypos = -((int)lv->scrollpane->vScrollBar.scrollOffset % LIST_VIEW_ITEM_HEIGHT); //(lv->wid.y + win->app->baseFont->fontHeight) +

	ldr         x8,[sp,#0x10]
	add         x8,x8,#0x60
	ldr         x8,[x8]
	add         x8,x8,#0xA0
	add         x8,x8,#0x40
	ldr         d16,[x8]
	fcvtzs      w10,d16
	mov         w9,#0x18
	sdiv        w8,w10,w9
	mul         w8,w8,w9
	sub         w8,w10,w8
	neg         w8,w8
	str         w8,[sp,#0x34]

; 54   : 	int xpos = (int)lv->scrollpane->hScrollBar.scrollOffset;

	ldr         x8,[sp,#0x10]
	add         x8,x8,#0x60
	ldr         x8,[x8]
	add         x8,x8,#0x50
	add         x8,x8,#0x40
	ldr         d16,[x8]
	fcvtzs      w8,d16
	str         w8,[sp,#0x4C]

; 55   : #define PADDING_Y 5
; 56   : 	
; 57   : 	int totalYpos = lv->wid.y + PADDING_Y + ypos;

	ldr         x8,[sp,#0x10]
	add         x8,x8,#4
	ldr         w8,[x8]
	add         w9,w8,#5
	ldr         w8,[sp,#0x34]
	add         w8,w9,w8
	str         w8,[sp,#0x20]

; 58   : 	/*if ((lv->lastNodeIndex == lv->currentStartIndex))
; 59   : 		ypos  -= (int)lv->scrollpane->vScrollBar.scrollAmount;*/
; 60   : 		
; 61   : 
; 62   : 
; 63   : 	for (int i = lv->currentStartIndex; i < lv->itemList->pointer /*&& i < max_visible_items*/; i++) {

	ldr         x8,[sp,#0x10]
	add         x8,x8,#0x74
	ldr         w8,[x8]
	str         w8,[sp,#0x24]
	b           |$LN4@ChDefaultL|
|$LN2@ChDefaultL|
	ldr         w8,[sp,#0x24]
	add         w8,w8,#1
	str         w8,[sp,#0x24]
|$LN4@ChDefaultL|
	ldr         x8,[sp,#0x10]
	add         x8,x8,#0x50
	ldr         x8,[x8]
	ldr         w9,[x8]
	ldr         w8,[sp,#0x24]
	cmp         w8,w9
	bhs         |$LN3@ChDefaultL|

; 64   : 		ChListItem* li = (ChListItem*)list_get_at(lv->itemList, i);

	ldr         x8,[sp,#0x10]
	add         x8,x8,#0x50
	ldr         w1,[sp,#0x24]
	ldr         x0,[x8]
	bl          list_get_at
	str         x0,[sp,#0x18]

; 65   : 		int originalXpos = li->xPos;

	ldr         x8,[sp,#0x18]
	ldr         w8,[x8]
	str         w8,[sp,#0x50]

; 66   : 		//li->xPos = originalXpos - xpos;
; 67   : 		if (li) {

	ldr         x8,[sp,#0x18]
	cmp         x8,#0
	beq         |$LN5@ChDefaultL|

; 68   : 			li->yPos = totalYpos;

	ldr         x8,[sp,#0x18]
	add         x9,x8,#4
	ldr         w8,[sp,#0x20]
	str         w8,[x9]

; 69   : 			if (li->selected)

	ldr         x8,[sp,#0x18]
	add         x8,x8,#8
	ldrsb       w8,[x8]
	mov         w8,w8
	cmp         w8,#0
	beq         |$LN6@ChDefaultL|

; 70   : 				ChDrawRectClipped(win->canv, lv->wid.x + li->xPos, li->yPos, li->width, li->height - 2, &viewRect, 0xFF6982B7);

	ldr         x8,[sp,#0x18]
	add         x8,x8,#0x10
	ldr         w8,[x8]
	sub         w4,w8,#2
	ldr         x8,[sp,#0x18]
	add         x11,x8,#0xC
	ldr         x8,[sp,#0x18]
	add         x10,x8,#4
	ldr         x9,[sp,#0x10]
	ldr         x8,[sp,#0x18]
	ldr         w9,[x9]
	ldr         w8,[x8]
	add         w1,w9,w8
	ldr         x8,[sp,#0x28]
	add         x8,x8,#0x18
	ldr         w6,|$LN10@ChDefaultL|
	add         x5,sp,#0x38
	mov         w4,w4
	ldr         w3,[x11]
	ldr         w2,[x10]
	mov         w1,w1
	ldr         x0,[x8]
	bl          ChDrawRectClipped
|$LN6@ChDefaultL|

; 71   : 
; 72   : 			if (li->icon){

	ldr         x8,[sp,#0x18]
	add         x8,x8,#0x18
	ldr         x8,[x8]
	cmp         x8,#0
	beq         |$LN7@ChDefaultL|

; 73   : 				ChDrawIconClipped(win->canv, li->icon, lv->wid.x + li->xPos + 10, li->yPos , &viewRect);

	ldr         x8,[sp,#0x18]
	add         x10,x8,#4
	ldr         x9,[sp,#0x10]
	ldr         x8,[sp,#0x18]
	ldr         w9,[x9]
	ldr         w8,[x8]
	add         w8,w9,w8
	add         w2,w8,#0xA
	ldr         x8,[sp,#0x18]
	add         x9,x8,#0x18
	ldr         x8,[sp,#0x28]
	add         x8,x8,#0x18
	add         x4,sp,#0x38
	ldr         w3,[x10]
	mov         w2,w2
	ldr         x1,[x9]
	ldr         x0,[x8]
	bl          ChDrawIconClipped

; 74   : 				ChFontDrawTextClipped(win->canv, win->app->baseFont,li->itemText, lv->wid.x + li->xPos + 40,

	ldr         x8,[sp,#0x18]
	add         x8,x8,#0x10
	ldr         w9,[x8]
	mov         w8,#2
	sdiv        w9,w9,w8
	ldr         w8,[sp,#0x20]
	add         w8,w8,w9
	add         w4,w8,#5
	ldr         x9,[sp,#0x10]
	ldr         x8,[sp,#0x18]
	ldr         w9,[x9]
	ldr         w8,[x8]
	add         w8,w9,w8
	add         w3,w8,#0x28
	ldr         x8,[sp,#0x18]
	add         x10,x8,#0x20
	ldr         x8,[sp,#0x28]
	add         x8,x8,#0x30
	ldr         x8,[x8]
	add         x9,x8,#0x30
	ldr         x8,[sp,#0x28]
	add         x8,x8,#0x18
	add         x6,sp,#0x38
	mov         w5,#0xFF000000
	mov         w4,w4
	mov         w3,w3
	ldr         x2,[x10]
	ldr         x1,[x9]
	ldr         x0,[x8]
	bl          ChFontDrawTextClipped

; 75   : 					totalYpos + (li->height/2) + 5, BLACK, &viewRect); //
; 76   : 			}

	b           |$LN8@ChDefaultL|
|$LN7@ChDefaultL|

; 77   : 			else
; 78   : 				ChFontDrawTextClipped(win->canv, win->app->baseFont,li->itemText, lv->wid.x + li->xPos + 10,

	ldr         x9,[sp,#0x10]
	ldr         x8,[sp,#0x18]
	ldr         w9,[x9]
	ldr         w8,[x8]
	add         w8,w9,w8
	add         w3,w8,#0xA
	ldr         x8,[sp,#0x18]
	add         x10,x8,#0x20
	ldr         x8,[sp,#0x28]
	add         x8,x8,#0x30
	ldr         x8,[x8]
	add         x9,x8,#0x30
	ldr         x8,[sp,#0x28]
	add         x8,x8,#0x18
	add         x6,sp,#0x38
	mov         w5,#0xFF000000
	ldr         w4,[sp,#0x20]
	mov         w3,w3
	ldr         x2,[x10]
	ldr         x1,[x9]
	ldr         x0,[x8]
	bl          ChFontDrawTextClipped
|$LN8@ChDefaultL|

; 79   : 				totalYpos , BLACK, &viewRect); //
; 80   : 			totalYpos += LIST_VIEW_ITEM_HEIGHT;

	ldr         w8,[sp,#0x20]
	add         w8,w8,#0x18
	str         w8,[sp,#0x20]
|$LN5@ChDefaultL|

; 81   : 		}
; 82   : 	}

	b           |$LN2@ChDefaultL|
|$LN3@ChDefaultL|
	ldp         fp,lr,[sp],#0x60
	ret
|$LN10@ChDefaultL|
	DCD         0xff6982b7

	ENDP  ; |?ChDefaultListViewPainter@@YAXPEAU_ChWidget_@@PEAU_chwin_@@@Z|, ChDefaultListViewPainter

	END
