; Listing generated by Microsoft (R) Optimizing Compiler Version 19.29.30159.0 

	TTL	C:\Users\paras\source\repos\grep-name\XenevaOS\Libs\Chitralekha\ARM64\Debug\defaultslider.obj
	ARM64

	AREA	|.drectve|, DRECTVE

	EXPORT	|?ChDefaultSliderPainter@@YAXPEAU_ChWidget_@@PEAU_chwin_@@@Z| ; ChDefaultSliderPainter
	IMPORT	|ChColorDrawVerticalGradient|
	IMPORT	|ChColorDrawHorizontalGradient|
	IMPORT	|ChDrawRect|
	IMPORT	|ChDrawRectUnfilled|
	IMPORT	|ChWindowGetBackgroundColor|
	IMPORT	|_fltused|

	AREA	|.pdata|, PDATA
|$pdata$?ChDefaultSliderPainter@@YAXPEAU_ChWidget_@@PEAU_chwin_@@@Z| DCD imagerel |$LN19|
	DCD	0x260057d
	;Flags[SingleProEpi] functionLength[1404] RegF[0] RegI[0] H[0] frameChainReturn[Chained] frameSize[64]
; Function compile flags: /Odtp
; File C:\Users\paras\source\repos\grep-name\XenevaOS\Libs\Chitralekha\widgets\defaultslider.cpp

	AREA	|.text$mn|, CODE, ARM64

|?ChDefaultSliderPainter@@YAXPEAU_ChWidget_@@PEAU_chwin_@@@Z| PROC ; ChDefaultSliderPainter

; 40   : void ChDefaultSliderPainter(ChWidget* wid, ChWindow* win) {

|$LN19|
	stp         fp,lr,[sp,#-0x40]!
	mov         fp,sp
	str         x0,[sp,#0x10]
	str         x1,[sp,#0x20]

; 41   : 	ChSlider* slider = (ChSlider*)wid;

	ldr         x8,[sp,#0x10]
	str         x8,[sp,#0x18]

; 42   : 
; 43   : 	if (slider->type == CHITRALEKHA_SLIDER_VERTICAL) {

	ldr         x8,[sp,#0x18]
	add         x8,x8,#0x94
	ldrb        w8,[x8]
	mov         w8,w8
	cmp         w8,#2
	bne         |$LN2@ChDefaultS|

; 44   : 		ChDrawRect(win->canv, slider->bound.x, slider->bound.y, slider->bound.w, slider->bound.h, ChWindowGetBackgroundColor(win));

	ldr         x0,[sp,#0x20]
	bl          ChWindowGetBackgroundColor
	mov         w0,w0
	ldr         x8,[sp,#0x18]
	add         x8,x8,#0x50
	add         x12,x8,#0xC
	ldr         x8,[sp,#0x18]
	add         x8,x8,#0x50
	add         x11,x8,#8
	ldr         x8,[sp,#0x18]
	add         x8,x8,#0x50
	add         x10,x8,#4
	ldr         x8,[sp,#0x18]
	add         x9,x8,#0x50
	ldr         x8,[sp,#0x20]
	add         x8,x8,#0x18
	mov         w5,w0
	ldr         w4,[x12]
	ldr         w3,[x11]
	ldr         w2,[x10]
	ldr         w1,[x9]
	ldr         x0,[x8]
	bl          ChDrawRect

; 45   : 		//ChDrawRect(win->canv, wid->x, wid->y, wid->w, wid->h, 0xFFDDDBDB);
; 46   : 
; 47   : 		/* draw the progress */
; 48   : 		if (slider->currentVal != 0){

	ldr         x8,[sp,#0x18]
	add         x8,x8,#0x78
	ldr         s16,[x8]
	fcmp        s16,#0
	beq         |$LN3@ChDefaultS|

; 49   : 			if (slider->progressPixel != 0){

	ldr         x8,[sp,#0x18]
	add         x8,x8,#0x7C
	ldr         w8,[x8]
	cmp         w8,#0
	beq         |$LN4@ChDefaultS|

; 50   : 				uint32_t col1 = 0xFF84C8EC;

	ldr         w8,|$LN14@ChDefaultS|
	str         w8,[sp,#0x2C]

; 51   : 				uint32_t col2 = 0xFF3A96AC;

	ldr         w8,|$LN15@ChDefaultS|
	str         w8,[sp,#0x28]

; 52   : 				if (slider->useCustomColor) {

	ldr         x8,[sp,#0x18]
	add         x8,x8,#0x85
	ldrsb       w8,[x8]
	mov         w8,w8
	cmp         w8,#0
	beq         |$LN5@ChDefaultS|

; 53   : 					col1 = slider->customColor1;

	ldr         x8,[sp,#0x18]
	add         x8,x8,#0x88
	ldr         w8,[x8]
	str         w8,[sp,#0x2C]

; 54   : 					col2 = slider->customColor2;

	ldr         x8,[sp,#0x18]
	add         x8,x8,#0x8C
	ldr         w8,[x8]
	str         w8,[sp,#0x28]
|$LN5@ChDefaultS|

; 55   : 				}
; 56   : 				ChColorDrawHorizontalGradient(win->canv, wid->x, wid->y + slider->progressPixel, 9,

	ldr         x8,[sp,#0x10]
	add         x9,x8,#4
	ldr         x8,[sp,#0x10]
	add         x8,x8,#0xC
	ldr         w9,[x9]
	ldr         w8,[x8]
	add         w10,w9,w8
	ldr         x8,[sp,#0x10]
	add         x9,x8,#4
	ldr         x8,[sp,#0x18]
	add         x8,x8,#0x7C
	ldr         w9,[x9]
	ldr         w8,[x8]
	add         w8,w9,w8
	sub         w4,w10,w8
	ldr         x8,[sp,#0x10]
	add         x9,x8,#4
	ldr         x8,[sp,#0x18]
	add         x8,x8,#0x7C
	ldr         w9,[x9]
	ldr         w8,[x8]
	add         w2,w9,w8
	ldr         x9,[sp,#0x10]
	ldr         x8,[sp,#0x20]
	add         x8,x8,#0x18
	ldr         w6,[sp,#0x28]
	ldr         w5,[sp,#0x2C]
	mov         w4,w4
	mov         w3,#9
	mov         w2,w2
	ldr         w1,[x9]
	ldr         x0,[x8]
	bl          ChColorDrawHorizontalGradient
|$LN4@ChDefaultS|
|$LN3@ChDefaultS|

; 57   : 					(wid->y + wid->h) - (wid->y + slider->progressPixel), col1, col2);
; 58   : 			}
; 59   : 		}
; 60   : 
; 61   : 		uint32_t outlineColor = 0xFF545454;

	ldr         w8,|$LN16@ChDefaultS|
	str         w8,[sp,#0x30]

; 62   : 		if (slider->useCustomColor)

	ldr         x8,[sp,#0x18]
	add         x8,x8,#0x85
	ldrsb       w8,[x8]
	mov         w8,w8
	cmp         w8,#0
	beq         |$LN6@ChDefaultS|

; 63   : 			outlineColor = slider->outlineColor;

	ldr         x8,[sp,#0x18]
	add         x8,x8,#0x90
	ldr         w8,[x8]
	str         w8,[sp,#0x30]
|$LN6@ChDefaultS|

; 64   : 		ChDrawRectUnfilled(win->canv, wid->x, wid->y, wid->w, wid->h, outlineColor);

	ldr         x8,[sp,#0x10]
	add         x12,x8,#0xC
	ldr         x8,[sp,#0x10]
	add         x11,x8,#8
	ldr         x8,[sp,#0x10]
	add         x10,x8,#4
	ldr         x9,[sp,#0x10]
	ldr         x8,[sp,#0x20]
	add         x8,x8,#0x18
	ldr         w5,[sp,#0x30]
	ldr         w4,[x12]
	ldr         w3,[x11]
	ldr         w2,[x10]
	ldr         w1,[x9]
	ldr         x0,[x8]
	bl          ChDrawRectUnfilled

; 65   : 
; 66   : 		/* ! Slider thumb */
; 67   : 		if (slider->thumbVisible) {

	ldr         x8,[sp,#0x18]
	add         x8,x8,#0x84
	ldrsb       w8,[x8]
	mov         w8,w8
	cmp         w8,#0
	beq         |$LN7@ChDefaultS|

; 68   : 			ChDrawRect(win->canv, wid->x - 5, wid->y + slider->thumbY, wid->w + 5 * 2, 15, SILVER);

	ldr         x8,[sp,#0x10]
	add         x8,x8,#8
	ldr         w8,[x8]
	add         w3,w8,#0xA
	ldr         x8,[sp,#0x10]
	add         x9,x8,#4
	ldr         x8,[sp,#0x18]
	add         x8,x8,#0x64
	ldr         w9,[x9]
	ldr         w8,[x8]
	add         w2,w9,w8
	ldr         x8,[sp,#0x10]
	ldr         w8,[x8]
	sub         w1,w8,#5
	ldr         x8,[sp,#0x20]
	add         x8,x8,#0x18
	ldr         w5,|$LN17@ChDefaultS|
	mov         w4,#0xF
	mov         w3,w3
	mov         w2,w2
	mov         w1,w1
	ldr         x0,[x8]
	bl          ChDrawRect

; 69   : 			ChDrawRectUnfilled(win->canv, wid->x - 5, wid->y + slider->thumbY, wid->w + 5 * 2, 15, GRAY);

	ldr         x8,[sp,#0x10]
	add         x8,x8,#8
	ldr         w8,[x8]
	add         w3,w8,#0xA
	ldr         x8,[sp,#0x10]
	add         x9,x8,#4
	ldr         x8,[sp,#0x18]
	add         x8,x8,#0x64
	ldr         w9,[x9]
	ldr         w8,[x8]
	add         w2,w9,w8
	ldr         x8,[sp,#0x10]
	ldr         w8,[x8]
	sub         w1,w8,#5
	ldr         x8,[sp,#0x20]
	add         x8,x8,#0x18
	ldr         w5,|$LN18@ChDefaultS|
	mov         w4,#0xF
	mov         w3,w3
	mov         w2,w2
	mov         w1,w1
	ldr         x0,[x8]
	bl          ChDrawRectUnfilled
|$LN7@ChDefaultS|
|$LN2@ChDefaultS|

; 70   : 		}
; 71   : 
; 72   : 	}
; 73   : 
; 74   : 	if (slider->type == CHITRALEKHA_SLIDER_HORIZONTAL) {

	ldr         x8,[sp,#0x18]
	add         x8,x8,#0x94
	ldrb        w8,[x8]
	mov         w8,w8
	cmp         w8,#1
	bne         |$LN8@ChDefaultS|

; 75   : 		ChDrawRect(win->canv, slider->bound.x, slider->bound.y, slider->bound.w, slider->bound.h, ChWindowGetBackgroundColor(win));

	ldr         x0,[sp,#0x20]
	bl          ChWindowGetBackgroundColor
	mov         w0,w0
	ldr         x8,[sp,#0x18]
	add         x8,x8,#0x50
	add         x12,x8,#0xC
	ldr         x8,[sp,#0x18]
	add         x8,x8,#0x50
	add         x11,x8,#8
	ldr         x8,[sp,#0x18]
	add         x8,x8,#0x50
	add         x10,x8,#4
	ldr         x8,[sp,#0x18]
	add         x9,x8,#0x50
	ldr         x8,[sp,#0x20]
	add         x8,x8,#0x18
	mov         w5,w0
	ldr         w4,[x12]
	ldr         w3,[x11]
	ldr         w2,[x10]
	ldr         w1,[x9]
	ldr         x0,[x8]
	bl          ChDrawRect

; 76   : 		ChDrawRect(win->canv, wid->x, wid->y, wid->w, wid->h,ChWindowGetBackgroundColor(win));

	ldr         x0,[sp,#0x20]
	bl          ChWindowGetBackgroundColor
	mov         w0,w0
	ldr         x8,[sp,#0x10]
	add         x12,x8,#0xC
	ldr         x8,[sp,#0x10]
	add         x11,x8,#8
	ldr         x8,[sp,#0x10]
	add         x10,x8,#4
	ldr         x9,[sp,#0x10]
	ldr         x8,[sp,#0x20]
	add         x8,x8,#0x18
	mov         w5,w0
	ldr         w4,[x12]
	ldr         w3,[x11]
	ldr         w2,[x10]
	ldr         w1,[x9]
	ldr         x0,[x8]
	bl          ChDrawRect

; 77   : 
; 78   : 		/* draw the progress */
; 79   : 		if (slider->currentVal != 0) {

	ldr         x8,[sp,#0x18]
	add         x8,x8,#0x78
	ldr         s16,[x8]
	fcmp        s16,#0
	beq         |$LN9@ChDefaultS|

; 80   : 			uint32_t col1 = 0xFF84C8EC;

	ldr         w8,|$LN14@ChDefaultS|
	str         w8,[sp,#0x38]

; 81   : 			uint32_t col2 = 0xFF3A96AC;

	ldr         w8,|$LN15@ChDefaultS|
	str         w8,[sp,#0x34]

; 82   : 			if (slider->useCustomColor) {

	ldr         x8,[sp,#0x18]
	add         x8,x8,#0x85
	ldrsb       w8,[x8]
	mov         w8,w8
	cmp         w8,#0
	beq         |$LN10@ChDefaultS|

; 83   : 				col1 = slider->customColor1;

	ldr         x8,[sp,#0x18]
	add         x8,x8,#0x88
	ldr         w8,[x8]
	str         w8,[sp,#0x38]

; 84   : 				col2 = slider->customColor2;

	ldr         x8,[sp,#0x18]
	add         x8,x8,#0x8C
	ldr         w8,[x8]
	str         w8,[sp,#0x34]
|$LN10@ChDefaultS|

; 85   : 			}
; 86   : 			ChColorDrawVerticalGradient(win->canv, wid->x, wid->y, ((wid->x + slider->progressPixel) - wid->x),

	ldr         x9,[sp,#0x10]
	ldr         x8,[sp,#0x18]
	add         x8,x8,#0x7C
	ldr         w9,[x9]
	ldr         w8,[x8]
	add         w9,w9,w8
	ldr         x8,[sp,#0x10]
	ldr         w8,[x8]
	sub         w3,w9,w8
	ldr         x8,[sp,#0x10]
	add         x10,x8,#4
	ldr         x9,[sp,#0x10]
	ldr         x8,[sp,#0x20]
	add         x8,x8,#0x18
	ldr         w6,[sp,#0x34]
	ldr         w5,[sp,#0x38]
	mov         w4,#9
	mov         w3,w3
	ldr         w2,[x10]
	ldr         w1,[x9]
	ldr         x0,[x8]
	bl          ChColorDrawVerticalGradient
|$LN9@ChDefaultS|

; 87   : 				9, col1, col2);
; 88   : 		}
; 89   : 		
; 90   : 		uint32_t outlineColor = 0xFF545454;

	ldr         w8,|$LN16@ChDefaultS|
	str         w8,[sp,#0x3C]

; 91   : 		if (slider->useCustomColor)

	ldr         x8,[sp,#0x18]
	add         x8,x8,#0x85
	ldrsb       w8,[x8]
	mov         w8,w8
	cmp         w8,#0
	beq         |$LN11@ChDefaultS|

; 92   : 			outlineColor = slider->outlineColor;

	ldr         x8,[sp,#0x18]
	add         x8,x8,#0x90
	ldr         w8,[x8]
	str         w8,[sp,#0x3C]
|$LN11@ChDefaultS|

; 93   : 		ChDrawRectUnfilled(win->canv, wid->x, wid->y, wid->w, wid->h, outlineColor);

	ldr         x8,[sp,#0x10]
	add         x12,x8,#0xC
	ldr         x8,[sp,#0x10]
	add         x11,x8,#8
	ldr         x8,[sp,#0x10]
	add         x10,x8,#4
	ldr         x9,[sp,#0x10]
	ldr         x8,[sp,#0x20]
	add         x8,x8,#0x18
	ldr         w5,[sp,#0x3C]
	ldr         w4,[x12]
	ldr         w3,[x11]
	ldr         w2,[x10]
	ldr         w1,[x9]
	ldr         x0,[x8]
	bl          ChDrawRectUnfilled

; 94   : 
; 95   : 		/* ! Slider thumb */
; 96   : 		if (slider->thumbVisible) {

	ldr         x8,[sp,#0x18]
	add         x8,x8,#0x84
	ldrsb       w8,[x8]
	mov         w8,w8
	cmp         w8,#0
	beq         |$LN12@ChDefaultS|

; 97   : 			ChDrawRect(win->canv, wid->x + slider->thumbX, wid->y - 5, 15, wid->h + 5 * 2, SILVER);

	ldr         x8,[sp,#0x10]
	add         x8,x8,#0xC
	ldr         w8,[x8]
	add         w4,w8,#0xA
	ldr         x8,[sp,#0x10]
	add         x8,x8,#4
	ldr         w8,[x8]
	sub         w2,w8,#5
	ldr         x9,[sp,#0x10]
	ldr         x8,[sp,#0x18]
	add         x8,x8,#0x60
	ldr         w9,[x9]
	ldr         w8,[x8]
	add         w1,w9,w8
	ldr         x8,[sp,#0x20]
	add         x8,x8,#0x18
	ldr         w5,|$LN17@ChDefaultS|
	mov         w4,w4
	mov         w3,#0xF
	mov         w2,w2
	mov         w1,w1
	ldr         x0,[x8]
	bl          ChDrawRect

; 98   : 			ChDrawRectUnfilled(win->canv, wid->x + slider->thumbX, wid->y - 5, 15, wid->h + 5 * 2, GRAY);

	ldr         x8,[sp,#0x10]
	add         x8,x8,#0xC
	ldr         w8,[x8]
	add         w4,w8,#0xA
	ldr         x8,[sp,#0x10]
	add         x8,x8,#4
	ldr         w8,[x8]
	sub         w2,w8,#5
	ldr         x9,[sp,#0x10]
	ldr         x8,[sp,#0x18]
	add         x8,x8,#0x60
	ldr         w9,[x9]
	ldr         w8,[x8]
	add         w1,w9,w8
	ldr         x8,[sp,#0x20]
	add         x8,x8,#0x18
	ldr         w5,|$LN18@ChDefaultS|
	mov         w4,w4
	mov         w3,#0xF
	mov         w2,w2
	mov         w1,w1
	ldr         x0,[x8]
	bl          ChDrawRectUnfilled
|$LN12@ChDefaultS|
|$LN8@ChDefaultS|
	ldp         fp,lr,[sp],#0x40
	ret
	nop
|$LN14@ChDefaultS|
	DCD         0xff84c8ec
|$LN15@ChDefaultS|
	DCD         0xff3a96ac
|$LN16@ChDefaultS|
	DCD         0xff545454
|$LN17@ChDefaultS|
	DCD         0xffc0c0c0
|$LN18@ChDefaultS|
	DCD         0xff808080

	ENDP  ; |?ChDefaultSliderPainter@@YAXPEAU_ChWidget_@@PEAU_chwin_@@@Z|, ChDefaultSliderPainter

	END
