; Listing generated by Microsoft (R) Optimizing Compiler Version 19.29.30159.0 

	TTL	E:\Xeneva Project\Aurora\Libs\Chitralekha\ARM64\Debug\defaultscrollbar.obj
	ARM64

	AREA	|.drectve|, DRECTVE

	EXPORT	|?ChDefaultScrollPanePainter@@YAXPEAU_ChWidget_@@PEAU_chwin_@@@Z| ; ChDefaultScrollPanePainter
	IMPORT	|ChColorDrawVerticalGradient|
	IMPORT	|ChColorDrawHorizontalGradient|
	IMPORT	|ChDrawRect|

	AREA	|.pdata|, PDATA
|$pdata$?ChDefaultScrollPanePainter@@YAXPEAU_ChWidget_@@PEAU_chwin_@@@Z| DCD imagerel |$LN14|
	DCD	0x1e00389
	;Flags[SingleProEpi] functionLength[904] RegF[0] RegI[0] H[0] frameChainReturn[Chained] frameSize[48]
; Function compile flags: /Odtp
; File E:\Xeneva Project\Aurora\Libs\Chitralekha\widgets\defaultscrollbar.cpp

	AREA	|.text$mn|, CODE, ARM64

|?ChDefaultScrollPanePainter@@YAXPEAU_ChWidget_@@PEAU_chwin_@@@Z| PROC ; ChDefaultScrollPanePainter

; 43   : void ChDefaultScrollPanePainter(ChWidget* wid, ChWindow* win) {

|$LN14|
	stp         fp,lr,[sp,#-0x30]!
	mov         fp,sp
	str         x0,[sp,#0x20]
	str         x1,[sp,#0x18]

; 44   : 	ChScrollPane *sp = (ChScrollPane*)wid;

	ldr         x8,[sp,#0x20]
	str         x8,[sp,#0x10]

; 45   : 
; 46   : 	if (sp->hScrollBar.update) {

	ldr         x8,[sp,#0x10]
	add         x8,x8,#0x50
	add         x8,x8,#1
	ldrsb       w8,[x8]
	mov         w8,w8
	cmp         w8,#0
	beq         |$LN2@ChDefaultS|

; 47   : 		/* draw the horizontal scroll bar first*/
; 48   : 		ChDrawRect(win->canv, sp->hScrollBar.bar_x, sp->hScrollBar.bar_y, sp->hScrollBar.bar_w,

	ldr         x8,[sp,#0x10]
	add         x8,x8,#0x50
	add         x12,x8,#0x10
	ldr         x8,[sp,#0x10]
	add         x8,x8,#0x50
	add         x11,x8,#0xC
	ldr         x8,[sp,#0x10]
	add         x8,x8,#0x50
	add         x10,x8,#8
	ldr         x8,[sp,#0x10]
	add         x8,x8,#0x50
	add         x9,x8,#4
	ldr         x8,[sp,#0x18]
	add         x8,x8,#0x18
	ldr         w5,|$LN9@ChDefaultS|
	ldr         w4,[x12]
	ldr         w3,[x11]
	ldr         w2,[x10]
	ldr         w1,[x9]
	ldr         x0,[x8]
	bl          ChDrawRect

; 49   : 			sp->hScrollBar.bar_h, SCROLLBAR_BACKGROUND_COLOR);
; 50   : 
; 51   : 		/* thumb */
; 52   : 		if (sp->hScrollBar.thumbHover) {

	ldr         x8,[sp,#0x10]
	add         x8,x8,#0x50
	add         x8,x8,#0x34
	ldrsb       w8,[x8]
	mov         w8,w8
	cmp         w8,#0
	beq         |$LN3@ChDefaultS|

; 53   : 			ChColorDrawVerticalGradient(win->canv, sp->hScrollBar.bar_x +

	ldr         x8,[sp,#0x10]
	add         x8,x8,#0x50
	add         x11,x8,#0x20
	ldr         x8,[sp,#0x10]
	add         x8,x8,#0x50
	add         x10,x8,#0x1C
	ldr         x8,[sp,#0x10]
	add         x8,x8,#0x50
	add         x9,x8,#8
	ldr         x8,[sp,#0x10]
	add         x8,x8,#0x50
	add         x8,x8,#0x18
	ldr         w9,[x9]
	ldr         w8,[x8]
	add         w2,w9,w8
	ldr         x8,[sp,#0x10]
	add         x8,x8,#0x50
	add         x9,x8,#4
	ldr         x8,[sp,#0x10]
	add         x8,x8,#0x50
	add         x8,x8,#0x14
	ldr         w9,[x9]
	ldr         w8,[x8]
	add         w1,w9,w8
	ldr         x8,[sp,#0x18]
	add         x8,x8,#0x18
	ldr         w6,|$LN10@ChDefaultS|
	ldr         w5,|$LN11@ChDefaultS|
	ldr         w4,[x11]
	ldr         w3,[x10]
	mov         w2,w2
	mov         w1,w1
	ldr         x0,[x8]
	bl          ChColorDrawVerticalGradient

; 54   : 				sp->hScrollBar.thumb_posx, sp->hScrollBar.bar_y + sp->hScrollBar.thumb_posy,
; 55   : 				sp->hScrollBar.thumb_width, sp->hScrollBar.thumb_height,
; 56   : 				SCROLLTHUMB_HOVER_LIGHT,SCROLLTHUMB_HOVER_DARK);
; 57   : 		}

	b           |$LN4@ChDefaultS|
|$LN3@ChDefaultS|

; 58   : 		else {
; 59   : 			ChColorDrawVerticalGradient(win->canv, sp->hScrollBar.bar_x +

	ldr         x8,[sp,#0x10]
	add         x8,x8,#0x50
	add         x11,x8,#0x20
	ldr         x8,[sp,#0x10]
	add         x8,x8,#0x50
	add         x10,x8,#0x1C
	ldr         x8,[sp,#0x10]
	add         x8,x8,#0x50
	add         x9,x8,#8
	ldr         x8,[sp,#0x10]
	add         x8,x8,#0x50
	add         x8,x8,#0x18
	ldr         w9,[x9]
	ldr         w8,[x8]
	add         w2,w9,w8
	ldr         x8,[sp,#0x10]
	add         x8,x8,#0x50
	add         x9,x8,#4
	ldr         x8,[sp,#0x10]
	add         x8,x8,#0x50
	add         x8,x8,#0x14
	ldr         w9,[x9]
	ldr         w8,[x8]
	add         w1,w9,w8
	ldr         x8,[sp,#0x18]
	add         x8,x8,#0x18
	ldr         w6,|$LN12@ChDefaultS|
	ldr         w5,|$LN13@ChDefaultS|
	ldr         w4,[x11]
	ldr         w3,[x10]
	mov         w2,w2
	mov         w1,w1
	ldr         x0,[x8]
	bl          ChColorDrawVerticalGradient
|$LN4@ChDefaultS|

; 60   : 				sp->hScrollBar.thumb_posx, sp->hScrollBar.bar_y + sp->hScrollBar.thumb_posy,
; 61   : 				sp->hScrollBar.thumb_width, sp->hScrollBar.thumb_height,
; 62   : 				SCROLLTHUMB_COLOR_LIGHT, SCROLLTHUMB_COLOR_DARK);
; 63   : 		}
; 64   : 		sp->hScrollBar.update = false;

	ldr         x8,[sp,#0x10]
	add         x8,x8,#0x50
	add         x9,x8,#1
	mov         w8,#0
	strb        w8,[x9]
|$LN2@ChDefaultS|

; 65   : 	}
; 66   : 	
; 67   : 
; 68   : 	if (sp->vScrollBar.update){

	ldr         x8,[sp,#0x10]
	add         x8,x8,#0xA0
	add         x8,x8,#1
	ldrsb       w8,[x8]
	mov         w8,w8
	cmp         w8,#0
	beq         |$LN5@ChDefaultS|

; 69   : 		/* draw the vertical scroll bar*/
; 70   : 		ChDrawRect(win->canv, sp->vScrollBar.bar_x, sp->vScrollBar.bar_y, sp->vScrollBar.bar_w,

	ldr         x8,[sp,#0x10]
	add         x8,x8,#0xA0
	add         x12,x8,#0x10
	ldr         x8,[sp,#0x10]
	add         x8,x8,#0xA0
	add         x11,x8,#0xC
	ldr         x8,[sp,#0x10]
	add         x8,x8,#0xA0
	add         x10,x8,#8
	ldr         x8,[sp,#0x10]
	add         x8,x8,#0xA0
	add         x9,x8,#4
	ldr         x8,[sp,#0x18]
	add         x8,x8,#0x18
	ldr         w5,|$LN9@ChDefaultS|
	ldr         w4,[x12]
	ldr         w3,[x11]
	ldr         w2,[x10]
	ldr         w1,[x9]
	ldr         x0,[x8]
	bl          ChDrawRect

; 71   : 			sp->vScrollBar.bar_h, SCROLLBAR_BACKGROUND_COLOR);
; 72   : 
; 73   : 		/* thumb */
; 74   : 		if (sp->vScrollBar.thumbHover) {

	ldr         x8,[sp,#0x10]
	add         x8,x8,#0xA0
	add         x8,x8,#0x34
	ldrsb       w8,[x8]
	mov         w8,w8
	cmp         w8,#0
	beq         |$LN6@ChDefaultS|

; 75   : 			ChColorDrawHorizontalGradient(win->canv, sp->vScrollBar.bar_x +

	ldr         x8,[sp,#0x10]
	add         x8,x8,#0xA0
	add         x11,x8,#0x20
	ldr         x8,[sp,#0x10]
	add         x8,x8,#0xA0
	add         x10,x8,#0x1C
	ldr         x8,[sp,#0x10]
	add         x8,x8,#0xA0
	add         x9,x8,#8
	ldr         x8,[sp,#0x10]
	add         x8,x8,#0xA0
	add         x8,x8,#0x18
	ldr         w9,[x9]
	ldr         w8,[x8]
	add         w2,w9,w8
	ldr         x8,[sp,#0x10]
	add         x8,x8,#0xA0
	add         x9,x8,#4
	ldr         x8,[sp,#0x10]
	add         x8,x8,#0xA0
	add         x8,x8,#0x14
	ldr         w9,[x9]
	ldr         w8,[x8]
	add         w1,w9,w8
	ldr         x8,[sp,#0x18]
	add         x8,x8,#0x18
	ldr         w6,|$LN10@ChDefaultS|
	ldr         w5,|$LN11@ChDefaultS|
	ldr         w4,[x11]
	ldr         w3,[x10]
	mov         w2,w2
	mov         w1,w1
	ldr         x0,[x8]
	bl          ChColorDrawHorizontalGradient

; 76   : 				sp->vScrollBar.thumb_posx, sp->vScrollBar.bar_y + sp->vScrollBar.thumb_posy,
; 77   : 				sp->vScrollBar.thumb_width, sp->vScrollBar.thumb_height,
; 78   : 				SCROLLTHUMB_HOVER_LIGHT, SCROLLTHUMB_HOVER_DARK);
; 79   : 		}

	b           |$LN7@ChDefaultS|
|$LN6@ChDefaultS|

; 80   : 		else {
; 81   : 			ChColorDrawHorizontalGradient(win->canv, sp->vScrollBar.bar_x +

	ldr         x8,[sp,#0x10]
	add         x8,x8,#0xA0
	add         x11,x8,#0x20
	ldr         x8,[sp,#0x10]
	add         x8,x8,#0xA0
	add         x10,x8,#0x1C
	ldr         x8,[sp,#0x10]
	add         x8,x8,#0xA0
	add         x9,x8,#8
	ldr         x8,[sp,#0x10]
	add         x8,x8,#0xA0
	add         x8,x8,#0x18
	ldr         w9,[x9]
	ldr         w8,[x8]
	add         w2,w9,w8
	ldr         x8,[sp,#0x10]
	add         x8,x8,#0xA0
	add         x9,x8,#4
	ldr         x8,[sp,#0x10]
	add         x8,x8,#0xA0
	add         x8,x8,#0x14
	ldr         w9,[x9]
	ldr         w8,[x8]
	add         w1,w9,w8
	ldr         x8,[sp,#0x18]
	add         x8,x8,#0x18
	ldr         w6,|$LN12@ChDefaultS|
	ldr         w5,|$LN13@ChDefaultS|
	ldr         w4,[x11]
	ldr         w3,[x10]
	mov         w2,w2
	mov         w1,w1
	ldr         x0,[x8]
	bl          ChColorDrawHorizontalGradient
|$LN7@ChDefaultS|

; 82   : 				sp->vScrollBar.thumb_posx, sp->vScrollBar.bar_y + sp->vScrollBar.thumb_posy,
; 83   : 				sp->vScrollBar.thumb_width, sp->vScrollBar.thumb_height,
; 84   : 				SCROLLTHUMB_COLOR_LIGHT, SCROLLTHUMB_COLOR_DARK);
; 85   : 		}
; 86   : 		sp->vScrollBar.update = false;

	ldr         x8,[sp,#0x10]
	add         x8,x8,#0xA0
	add         x9,x8,#1
	mov         w8,#0
	strb        w8,[x9]
|$LN5@ChDefaultS|
	ldp         fp,lr,[sp],#0x30
	ret
|$LN9@ChDefaultS|
	DCD         0xff3d3a3a
|$LN10@ChDefaultS|
	DCD         0xff718dca
|$LN11@ChDefaultS|
	DCD         0xff879ccb
|$LN12@ChDefaultS|
	DCD         0xff425c95
|$LN13@ChDefaultS|
	DCD         0xff6982b7

	ENDP  ; |?ChDefaultScrollPanePainter@@YAXPEAU_ChWidget_@@PEAU_chwin_@@@Z|, ChDefaultScrollPanePainter

	END
