; Listing generated by Microsoft (R) Optimizing Compiler Version 19.29.30159.0 

	TTL	E:\Xeneva Project\Aurora\Libs\Chitralekha\ARM64\Debug\defaulttextbox.obj
	ARM64

	AREA	|.drectve|, DRECTVE

	EXPORT	|?ChDefaultTextboxPrint@@YAXPEAU_ChCanvas_@@PEAU_text_box_@@PEAD@Z| ; ChDefaultTextboxPrint
	EXPORT	|?ChDefaultTextbox@@YAXPEAU_ChWidget_@@PEAU_chwin_@@@Z| ; ChDefaultTextbox
	IMPORT	|ChDrawRect|
	IMPORT	|ChDrawRectUnfilled|
	IMPORT	|ChFontDrawCharClipped|
	IMPORT	|ChFontGetWidthChar|
	IMPORT	|ChFontGetHeightChar|

	AREA	|.pdata|, PDATA
|$pdata$?ChDefaultTextboxPrint@@YAXPEAU_ChCanvas_@@PEAU_text_box_@@PEAD@Z| DCD imagerel |$LN11|
	DCD	0x46004b1
	;Flags[SingleProEpi] functionLength[1200] RegF[0] RegI[0] H[0] frameChainReturn[Chained] frameSize[128]
|$pdata$?ChDefaultTextbox@@YAXPEAU_ChWidget_@@PEAU_chwin_@@@Z| DCD imagerel |$LN7|
	DCD	0x2600191
	;Flags[SingleProEpi] functionLength[400] RegF[0] RegI[0] H[0] frameChainReturn[Chained] frameSize[64]
; Function compile flags: /Odtp
; File E:\Xeneva Project\Aurora\Libs\Chitralekha\widgets\defaulttextbox.cpp

	AREA	|.text$mn|, CODE, ARM64

|?ChDefaultTextbox@@YAXPEAU_ChWidget_@@PEAU_chwin_@@@Z| PROC ; ChDefaultTextbox

; 101  : void ChDefaultTextbox(ChWidget* wid, ChWindow* win) {

|$LN7|
	stp         fp,lr,[sp,#-0x40]!
	mov         fp,sp
	str         x0,[sp,#0x20]
	str         x1,[sp,#0x18]

; 102  : 	ChTextBox* tb = (ChTextBox*)wid;

	ldr         x8,[sp,#0x20]
	str         x8,[sp,#0x10]

; 103  : 	ChDrawRect(win->canv, tb->wid.x, tb->wid.y, tb->wid.w, tb->wid.h, tb->textBackgroundColor);

	ldr         x8,[sp,#0x10]
	add         x13,x8,#0x6C
	ldr         x8,[sp,#0x10]
	add         x12,x8,#0xC
	ldr         x8,[sp,#0x10]
	add         x11,x8,#8
	ldr         x8,[sp,#0x10]
	add         x10,x8,#4
	ldr         x9,[sp,#0x10]
	ldr         x8,[sp,#0x18]
	add         x8,x8,#0x18
	ldr         w5,[x13]
	ldr         w4,[x12]
	ldr         w3,[x11]
	ldr         w2,[x10]
	ldr         w1,[x9]
	ldr         x0,[x8]
	bl          ChDrawRect

; 104  : 	//ChDrawRectUnfilled(win->canv, tb->wid.x, tb->wid.y, tb->wid.w, tb->wid.h, GRAY);
; 105  : 	//ChFontSetSize(tb->font, 13);
; 106  : 	ChRect clipRect;
; 107  : 	clipRect.x = tb->wid.x;

	ldr         x8,[sp,#0x10]
	ldr         w8,[x8]
	str         w8,[sp,#0x28]

; 108  : 	clipRect.y = tb->wid.y;

	ldr         x8,[sp,#0x10]
	add         x8,x8,#4
	ldr         w8,[x8]
	str         w8,[sp,#0x2C]

; 109  : 	clipRect.w = tb->wid.w;

	ldr         x8,[sp,#0x10]
	add         x8,x8,#8
	ldr         w8,[x8]
	str         w8,[sp,#0x30]

; 110  : 	clipRect.h = tb->wid.h;

	ldr         x8,[sp,#0x10]
	add         x8,x8,#0xC
	ldr         w8,[x8]
	str         w8,[sp,#0x34]

; 111  : 	if (tb->text) {

	ldr         x8,[sp,#0x10]
	add         x8,x8,#0x58
	ldr         x8,[x8]
	cmp         x8,#0
	beq         |$LN2@ChDefaultT|

; 112  : 		ChDefaultTextboxPrint(win->canv, tb, tb->text);

	ldr         x8,[sp,#0x10]
	add         x9,x8,#0x58
	ldr         x8,[sp,#0x18]
	add         x8,x8,#0x18
	ldr         x2,[x9]
	ldr         x1,[sp,#0x10]
	ldr         x0,[x8]
	bl          |?ChDefaultTextboxPrint@@YAXPEAU_ChCanvas_@@PEAU_text_box_@@PEAD@Z|
|$LN2@ChDefaultT|

; 113  : 	}
; 114  : 	if (wid->hover) {

	ldr         x8,[sp,#0x20]
	add         x8,x8,#0x19
	ldrsb       w8,[x8]
	mov         w8,w8
	cmp         w8,#0
	beq         |$LN3@ChDefaultT|

; 115  : 		ChDrawRectUnfilled(win->canv, tb->wid.x, tb->wid.y,tb->wid.w,tb->wid.h, 0xFF4067BA);

	ldr         x8,[sp,#0x10]
	add         x12,x8,#0xC
	ldr         x8,[sp,#0x10]
	add         x11,x8,#8
	ldr         x8,[sp,#0x10]
	add         x10,x8,#4
	ldr         x9,[sp,#0x10]
	ldr         x8,[sp,#0x18]
	add         x8,x8,#0x18
	ldr         w5,|$LN5@ChDefaultT|
	ldr         w4,[x12]
	ldr         w3,[x11]
	ldr         w2,[x10]
	ldr         w1,[x9]
	ldr         x0,[x8]
	bl          ChDrawRectUnfilled

; 116  : 		ChDrawRectUnfilled(win->canv, tb->wid.x + 1,tb->wid.y + 1, tb->wid.w - 2, tb->wid.h - 2, 0xFF6689D5);

	ldr         x8,[sp,#0x10]
	add         x8,x8,#0xC
	ldr         w8,[x8]
	sub         w4,w8,#2
	ldr         x8,[sp,#0x10]
	add         x8,x8,#8
	ldr         w8,[x8]
	sub         w3,w8,#2
	ldr         x8,[sp,#0x10]
	add         x8,x8,#4
	ldr         w8,[x8]
	add         w2,w8,#1
	ldr         x8,[sp,#0x10]
	ldr         w8,[x8]
	add         w1,w8,#1
	ldr         x8,[sp,#0x18]
	add         x8,x8,#0x18
	ldr         w5,|$LN6@ChDefaultT|
	mov         w4,w4
	mov         w3,w3
	mov         w2,w2
	mov         w1,w1
	ldr         x0,[x8]
	bl          ChDrawRectUnfilled
|$LN3@ChDefaultT|
	ldp         fp,lr,[sp],#0x40
	ret
|$LN5@ChDefaultT|
	DCD         0xff4067ba
|$LN6@ChDefaultT|
	DCD         0xff6689d5

	ENDP  ; |?ChDefaultTextbox@@YAXPEAU_ChWidget_@@PEAU_chwin_@@@Z|, ChDefaultTextbox

; Function compile flags: /Odtp
; File E:\Xeneva Project\Aurora\Libs\Chitralekha\widgets\defaulttextbox.cpp

	AREA	|.text$mn|, CODE, ARM64

|?ChDefaultTextboxPrint@@YAXPEAU_ChCanvas_@@PEAU_text_box_@@PEAD@Z| PROC ; ChDefaultTextboxPrint

; 43   : void ChDefaultTextboxPrint(ChCanvas* canv, ChTextBox* tb, char* text) {

|$LN11|
	stp         fp,lr,[sp,#-0x80]!
	mov         fp,sp
	str         x0,[sp,#0x70]
	str         x1,[sp,#0x10]
	str         x2,[sp,#0x28]

; 44   : 	ChRect clipRect;
; 45   : 	clipRect.x = tb->wid.x;

	ldr         x8,[sp,#0x10]
	ldr         w8,[x8]
	str         w8,[sp,#0x48]

; 46   : 	clipRect.y = tb->wid.y;

	ldr         x8,[sp,#0x10]
	add         x8,x8,#4
	ldr         w8,[x8]
	str         w8,[sp,#0x4C]

; 47   : 	clipRect.w = tb->wid.w;

	ldr         x8,[sp,#0x10]
	add         x8,x8,#8
	ldr         w8,[x8]
	str         w8,[sp,#0x50]

; 48   : 	clipRect.h = tb->wid.h;

	ldr         x8,[sp,#0x10]
	add         x8,x8,#0xC
	ldr         w8,[x8]
	str         w8,[sp,#0x54]

; 49   : 	char buf[256];
; 50   : 	int textOff = 0;

	mov         w8,#0
	str         w8,[sp,#0x38]

; 51   : 	bool _has_newline = false;

	mov         w8,#0
	strb        w8,[sp,#0x1C]

; 52   : 	int penx = tb->wid.x + (tb->textCursorPosX * 2);

	ldr         x10,[sp,#0x10]
	ldr         x8,[sp,#0x10]
	add         x8,x8,#0x78
	ldr         w9,[x8]
	mov         w8,#2
	mul         w9,w9,w8
	ldr         w8,[x10]
	add         w8,w8,w9
	str         w8,[sp,#0x20]

; 53   : 	int peny = tb->wid.y + (tb->textCursorPosY * 19);

	ldr         x8,[sp,#0x10]
	add         x10,x8,#4
	ldr         x8,[sp,#0x10]
	add         x8,x8,#0x7C
	ldr         w9,[x8]
	mov         w8,#0x13
	mul         w9,w9,w8
	ldr         w8,[x10]
	add         w8,w8,w9
	str         w8,[sp,#0x24]

; 54   : 	for (int i = 0; i < strlen(text); i++) {

	mov         w8,#0
	str         w8,[sp,#0x18]
	b           |$LN4@ChDefaultT|
|$LN2@ChDefaultT|
	ldr         w8,[sp,#0x18]
	add         w8,w8,#1
	str         w8,[sp,#0x18]
|$LN4@ChDefaultT|
	ldr         x8,[sp,#0x28]
	str         x8,[sp,#0x30]
|$LN10@ChDefaultT|
	ldr         x8,[sp,#0x30]
	ldrsb       w8,[x8]
	cmp         w8,#0
	beq         |$LN9@ChDefaultT|
	ldr         x8,[sp,#0x30]
	add         x8,x8,#1
	str         x8,[sp,#0x30]
	b           |$LN10@ChDefaultT|
|$LN9@ChDefaultT|
	ldr         x9,[sp,#0x30]
	ldr         x8,[sp,#0x28]
	sub         x8,x9,x8
	str         x8,[sp,#0x68]
	ldr         w8,[sp,#0x18]
	sxtw        x9,w8
	ldr         x8,[sp,#0x68]
	cmp         x9,x8
	bhs         |$LN3@ChDefaultT|

; 55   : 		if (text[i] == '\n') {

	ldr         w8,[sp,#0x18]
	sxtw        x9,w8
	mov         x8,#1
	mul         x9,x9,x8
	ldr         x8,[sp,#0x28]
	add         x8,x8,x9
	ldrsb       w8,[x8]
	mov         w8,w8
	cmp         w8,#0xA
	bne         |$LN5@ChDefaultT|

; 56   : 			_has_newline = true;

	mov         w8,#1
	strb        w8,[sp,#0x1C]

; 57   : 			tb->textCursorPosY += 1;

	ldr         x8,[sp,#0x10]
	add         x8,x8,#0x7C
	ldr         w8,[x8]
	add         w9,w8,#1
	ldr         x8,[sp,#0x10]
	add         x8,x8,#0x7C
	str         w9,[x8]

; 58   : 			tb->textCursorPosX = 1;

	ldr         x8,[sp,#0x10]
	add         x9,x8,#0x78
	mov         w8,#1
	str         w8,[x9]

; 59   : 			penx = tb->wid.x + (tb->textCursorPosX * 2);

	ldr         x10,[sp,#0x10]
	ldr         x8,[sp,#0x10]
	add         x8,x8,#0x78
	ldr         w9,[x8]
	mov         w8,#2
	mul         w9,w9,w8
	ldr         w8,[x10]
	add         w8,w8,w9
	str         w8,[sp,#0x20]

; 60   : 			peny = tb->wid.y + (tb->textCursorPosY * 19);

	ldr         x8,[sp,#0x10]
	add         x10,x8,#4
	ldr         x8,[sp,#0x10]
	add         x8,x8,#0x7C
	ldr         w9,[x8]
	mov         w8,#0x13
	mul         w9,w9,w8
	ldr         w8,[x10]
	add         w8,w8,w9
	str         w8,[sp,#0x24]

; 61   : 			textOff = 0;

	mov         w8,#0
	str         w8,[sp,#0x38]

; 62   : 			continue;

	b           |$LN2@ChDefaultT|
|$LN5@ChDefaultT|

; 63   : 		}
; 64   : 		if (text[i] == '\0') 

	ldr         w8,[sp,#0x18]
	sxtw        x9,w8
	mov         x8,#1
	mul         x9,x9,x8
	ldr         x8,[sp,#0x28]
	add         x8,x8,x9
	ldrsb       w8,[x8]
	mov         w8,w8
	cmp         w8,#0
	bne         |$LN6@ChDefaultT|

; 65   : 			break;

	b           |$LN3@ChDefaultT|
|$LN6@ChDefaultT|

; 66   : 		int w = ChFontGetWidthChar(tb->font, text[i]);

	ldr         w8,[sp,#0x18]
	sxtw        x9,w8
	mov         x8,#1
	mul         x9,x9,x8
	ldr         x8,[sp,#0x28]
	add         x9,x8,x9
	ldr         x8,[sp,#0x10]
	add         x8,x8,#0x60
	ldrsb       w1,[x9]
	ldr         x0,[x8]
	bl          ChFontGetWidthChar
	mov         w8,w0
	str         w8,[sp,#0x58]

; 67   : 		int h = ChFontGetHeightChar(tb->font, text[i]);

	ldr         w8,[sp,#0x18]
	sxtw        x9,w8
	mov         x8,#1
	mul         x9,x9,x8
	ldr         x8,[sp,#0x28]
	add         x9,x8,x9
	ldr         x8,[sp,#0x10]
	add         x8,x8,#0x60
	ldrsb       w1,[x9]
	ldr         x0,[x8]
	bl          ChFontGetHeightChar
	mov         w8,w0
	str         w8,[sp,#0x5C]

; 68   : 		int x_v = penx + tb->font->face->glyph->bitmap_left;

	ldr         x8,[sp,#0x10]
	add         x8,x8,#0x60
	ldr         x8,[x8]
	add         x8,x8,#0x30
	ldr         x8,[x8]
	add         x8,x8,#0x78
	ldr         x8,[x8]
	add         x8,x8,#0x90
	ldr         w9,[sp,#0x20]
	ldr         w8,[x8]
	add         w8,w9,w8
	str         w8,[sp,#0x3C]

; 69   : 		int y_v = peny - tb->font->face->glyph->bitmap_top;

	ldr         x8,[sp,#0x10]
	add         x8,x8,#0x60
	ldr         x8,[x8]
	add         x8,x8,#0x30
	ldr         x8,[x8]
	add         x8,x8,#0x78
	ldr         x8,[x8]
	add         x8,x8,#0x94
	ldr         w9,[sp,#0x24]
	ldr         w8,[x8]
	sub         w8,w9,w8
	str         w8,[sp,#0x60]

; 70   : 		int b_w = tb->font->face->glyph->bitmap.width;

	ldr         x8,[sp,#0x10]
	add         x8,x8,#0x60
	ldr         x8,[x8]
	add         x8,x8,#0x30
	ldr         x8,[x8]
	add         x8,x8,#0x78
	ldr         x8,[x8]
	add         x8,x8,#0x68
	add         x8,x8,#4
	ldr         w8,[x8]
	str         w8,[sp,#0x64]

; 71   : 		int draw_width = tb->font->face->glyph->bitmap.width;

	ldr         x8,[sp,#0x10]
	add         x8,x8,#0x60
	ldr         x8,[x8]
	add         x8,x8,#0x30
	ldr         x8,[x8]
	add         x8,x8,#0x78
	ldr         x8,[x8]
	add         x8,x8,#0x68
	add         x8,x8,#4
	ldr         w8,[x8]
	str         w8,[sp,#0x40]

; 72   : 
; 73   : 		if (x_v + draw_width >= (tb->wid.x + tb->wid.w)) {

	ldr         w9,[sp,#0x3C]
	ldr         w8,[sp,#0x40]
	add         w10,w9,w8
	ldr         x9,[sp,#0x10]
	ldr         x8,[sp,#0x10]
	add         x8,x8,#8
	ldr         w9,[x9]
	ldr         w8,[x8]
	add         w8,w9,w8
	cmp         w10,w8
	blt         |$LN7@ChDefaultT|

; 74   : 			tb->textCursorPosY += 1;

	ldr         x8,[sp,#0x10]
	add         x8,x8,#0x7C
	ldr         w8,[x8]
	add         w9,w8,#1
	ldr         x8,[sp,#0x10]
	add         x8,x8,#0x7C
	str         w9,[x8]

; 75   : 			tb->textCursorPosX = 1;

	ldr         x8,[sp,#0x10]
	add         x9,x8,#0x78
	mov         w8,#1
	str         w8,[x9]

; 76   : 			penx = tb->wid.x + (tb->textCursorPosX * 2);

	ldr         x10,[sp,#0x10]
	ldr         x8,[sp,#0x10]
	add         x8,x8,#0x78
	ldr         w9,[x8]
	mov         w8,#2
	mul         w9,w9,w8
	ldr         w8,[x10]
	add         w8,w8,w9
	str         w8,[sp,#0x20]

; 77   : 			peny = tb->wid.y + (tb->textCursorPosY * 19);

	ldr         x8,[sp,#0x10]
	add         x10,x8,#4
	ldr         x8,[sp,#0x10]
	add         x8,x8,#0x7C
	ldr         w9,[x8]
	mov         w8,#0x13
	mul         w9,w9,w8
	ldr         w8,[x10]
	add         w8,w8,w9
	str         w8,[sp,#0x24]
|$LN7@ChDefaultT|

; 78   : 		}
; 79   : 
; 80   : 		ChFontDrawCharClipped(canv, tb->font, text[i], penx,

	ldr         x8,[sp,#0x10]
	add         x10,x8,#0x68
	ldr         w8,[sp,#0x18]
	sxtw        x9,w8
	mov         x8,#1
	mul         x9,x9,x8
	ldr         x8,[sp,#0x28]
	add         x9,x8,x9
	ldr         x8,[sp,#0x10]
	add         x8,x8,#0x60
	add         x6,sp,#0x48
	ldr         w5,[x10]
	ldr         w4,[sp,#0x24]
	ldr         w3,[sp,#0x20]
	ldrsb       w2,[x9]
	ldr         x1,[x8]
	ldr         x0,[sp,#0x70]
	bl          ChFontDrawCharClipped

; 81   : 			peny,
; 82   : 			tb->textColor, &clipRect);
; 83   : 		penx += tb->font->face->glyph->advance.x >> 6;

	ldr         x8,[sp,#0x10]
	add         x8,x8,#0x60
	ldr         x8,[x8]
	add         x8,x8,#0x30
	ldr         x8,[x8]
	add         x8,x8,#0x78
	ldr         x8,[x8]
	add         x8,x8,#0x58
	ldr         w8,[x8]
	asr         w9,w8,#6
	ldr         w8,[sp,#0x20]
	add         w8,w8,w9
	str         w8,[sp,#0x20]

; 84   : 		peny += tb->font->face->glyph->advance.y >> 6;

	ldr         x8,[sp,#0x10]
	add         x8,x8,#0x60
	ldr         x8,[x8]
	add         x8,x8,#0x30
	ldr         x8,[x8]
	add         x8,x8,#0x78
	ldr         x8,[x8]
	add         x8,x8,#0x58
	add         x8,x8,#4
	ldr         w8,[x8]
	asr         w9,w8,#6
	ldr         w8,[sp,#0x24]
	add         w8,w8,w9
	str         w8,[sp,#0x24]

; 85   : 		tb->textCursorPosX++;

	ldr         x8,[sp,#0x10]
	add         x8,x8,#0x78
	ldr         w8,[x8]
	add         w9,w8,#1
	ldr         x8,[sp,#0x10]
	add         x8,x8,#0x78
	str         w9,[x8]

; 86   : 	}

	b           |$LN2@ChDefaultT|
|$LN3@ChDefaultT|

; 87   : 
; 88   : 	//ChFontDrawTextClipped(canv, tb->font, buf, tb->wid.x + (tb->textCursorPosX * 2),
; 89   : 	//	tb->wid.y + (tb->textCursorPosY * 22),
; 90   : 	//	tb->textColor, &clipRect);
; 91   : 	tb->textCursorPosX = 2;

	ldr         x8,[sp,#0x10]
	add         x9,x8,#0x78
	mov         w8,#2
	str         w8,[x9]

; 92   : 	tb->textCursorPosY = 2;

	ldr         x8,[sp,#0x10]
	add         x9,x8,#0x7C
	mov         w8,#2
	str         w8,[x9]
	ldp         fp,lr,[sp],#0x80
	ret

	ENDP  ; |?ChDefaultTextboxPrint@@YAXPEAU_ChCanvas_@@PEAU_text_box_@@PEAD@Z|, ChDefaultTextboxPrint

	END
