; Listing generated by Microsoft (R) Optimizing Compiler Version 19.29.30159.0 

	TTL	C:\Users\paras\source\repos\grep-name\XenevaOS\Libs\Chitralekha\ARM64\Debug\defaultonoff.obj
	ARM64

	AREA	|.drectve|, DRECTVE

	EXPORT	|?ChDefaultOnOffPainter@@YAXPEAU_ChWidget_@@PEAU_chwin_@@@Z| ; ChDefaultOnOffPainter
	IMPORT	|ChDrawFilledCircle|
	IMPORT	|ChDrawCapsule|

	AREA	|.pdata|, PDATA
|$pdata$?ChDefaultOnOffPainter@@YAXPEAU_ChWidget_@@PEAU_chwin_@@@Z| DCD imagerel |$LN9|
	DCD	0x2e00225
	;Flags[SingleProEpi] functionLength[548] RegF[0] RegI[0] H[0] frameChainReturn[Chained] frameSize[80]
; Function compile flags: /Odtp
; File C:\Users\paras\source\repos\grep-name\XenevaOS\Libs\Chitralekha\widgets\defaultonoff.cpp

	AREA	|.text$mn|, CODE, ARM64

|?ChDefaultOnOffPainter@@YAXPEAU_ChWidget_@@PEAU_chwin_@@@Z| PROC ; ChDefaultOnOffPainter

; 46   : void ChDefaultOnOffPainter(ChWidget* wid, ChWindow* win) {

|$LN9|
	stp         fp,lr,[sp,#-0x50]!
	mov         fp,sp
	str         x0,[sp,#0x48]
	str         x1,[sp,#0x28]

; 47   : 	ChOnOffButton* onoff = (ChOnOffButton*)wid;

	ldr         x8,[sp,#0x48]
	str         x8,[sp,#0x10]

; 48   : 	int handle_radius = (onoff->wid.h / 2) - 1;

	ldr         x8,[sp,#0x10]
	add         x8,x8,#0xC
	ldr         w9,[x8]
	mov         w8,#2
	sdiv        w8,w9,w8
	sub         w8,w8,#1
	str         w8,[sp,#0x18]

; 49   : 
; 50   : 	uint32_t button_hover = ORANGE;

	mov         w8,#-0x5B00
	str         w8,[sp,#0x44]

; 51   : 	uint32_t button_color = 0xFFEBFAE8;

	ldr         w8,|$LN4@ChDefaultO|
	str         w8,[sp,#0x40]

; 52   : 	uint32_t capsule_off_col = 0xFFB4BCB2;

	ldr         w8,|$LN5@ChDefaultO|
	str         w8,[sp,#0x30]

; 53   : 	uint32_t capsule_on_col = 0xFF28B217;

	ldr         w8,|$LN6@ChDefaultO|
	str         w8,[sp,#0x3C]

; 54   : 	uint32_t capsule_col = capsule_off_col;

	ldr         w8,[sp,#0x30]
	str         w8,[sp,#0x20]

; 55   : 
; 56   : 	int off_posx = onoff->wid.x + onoff->wid.w / 2 - handle_radius - 2;

	ldr         x10,[sp,#0x10]
	ldr         x8,[sp,#0x10]
	add         x8,x8,#8
	ldr         w9,[x8]
	mov         w8,#2
	sdiv        w9,w9,w8
	ldr         w8,[x10]
	add         w9,w8,w9
	ldr         w8,[sp,#0x18]
	sub         w8,w9,w8
	sub         w8,w8,#2
	str         w8,[sp,#0x34]

; 57   : 	int on_posx = onoff->wid.x + onoff->wid.w / 2 + handle_radius + 2;

	ldr         x10,[sp,#0x10]
	ldr         x8,[sp,#0x10]
	add         x8,x8,#8
	ldr         w9,[x8]
	mov         w8,#2
	sdiv        w9,w9,w8
	ldr         w8,[x10]
	add         w9,w8,w9
	ldr         w8,[sp,#0x18]
	add         w8,w9,w8
	add         w8,w8,#2
	str         w8,[sp,#0x38]

; 58   : 
; 59   : 
; 60   : 	int button_posx = off_posx;

	ldr         w8,[sp,#0x34]
	str         w8,[sp,#0x1C]

; 61   : 	if (onoff->value) {

	ldr         x8,[sp,#0x10]
	add         x8,x8,#0x50
	ldrb        w8,[x8]
	mov         w8,w8
	cmp         w8,#0
	beq         |$LN2@ChDefaultO|

; 62   : 		button_posx = on_posx;

	ldr         w8,[sp,#0x38]
	str         w8,[sp,#0x1C]

; 63   : 		capsule_col = capsule_on_col;

	ldr         w8,[sp,#0x3C]
	str         w8,[sp,#0x20]
|$LN2@ChDefaultO|

; 64   : 	}
; 65   : 
; 66   : 	ChDrawCapsule(win->canv, onoff->wid.x, onoff->wid.y, onoff->wid.w, onoff->wid.h,0xFF5B6A59);

	ldr         x8,[sp,#0x10]
	add         x12,x8,#0xC
	ldr         x8,[sp,#0x10]
	add         x11,x8,#8
	ldr         x8,[sp,#0x10]
	add         x10,x8,#4
	ldr         x9,[sp,#0x10]
	ldr         x8,[sp,#0x28]
	add         x8,x8,#0x18
	ldr         w5,|$LN7@ChDefaultO|
	ldr         w4,[x12]
	ldr         w3,[x11]
	ldr         w2,[x10]
	ldr         w1,[x9]
	ldr         x0,[x8]
	bl          ChDrawCapsule

; 67   : 	ChDrawCapsule(win->canv, onoff->wid.x+1, onoff->wid.y+1, onoff->wid.w-2, onoff->wid.h-2, capsule_col);

	ldr         x8,[sp,#0x10]
	add         x8,x8,#0xC
	ldr         w8,[x8]
	sub         w4,w8,#2
	ldr         x8,[sp,#0x10]
	add         x8,x8,#8
	ldr         w8,[x8]
	sub         w3,w8,#2
	ldr         x8,[sp,#0x10]
	add         x8,x8,#4
	ldr         w8,[x8]
	add         w2,w8,#1
	ldr         x8,[sp,#0x10]
	ldr         w8,[x8]
	add         w1,w8,#1
	ldr         x8,[sp,#0x28]
	add         x8,x8,#0x18
	ldr         w5,[sp,#0x20]
	mov         w4,w4
	mov         w3,w3
	mov         w2,w2
	mov         w1,w1
	ldr         x0,[x8]
	bl          ChDrawCapsule

; 68   : 
; 69   : 	//button handle
; 70   : 	ChDrawFilledCircle(win->canv, button_posx, onoff->wid.y + onoff->wid.h / 2,

	ldr         x8,[sp,#0x10]
	add         x10,x8,#4
	ldr         x8,[sp,#0x10]
	add         x8,x8,#0xC
	ldr         w9,[x8]
	mov         w8,#2
	sdiv        w9,w9,w8
	ldr         w8,[x10]
	add         w2,w8,w9
	ldr         x8,[sp,#0x28]
	add         x8,x8,#0x18
	ldr         w4,|$LN8@ChDefaultO|
	ldr         w3,[sp,#0x18]
	mov         w2,w2
	ldr         w1,[sp,#0x1C]
	ldr         x0,[x8]
	bl          ChDrawFilledCircle

; 71   : 		handle_radius, 0xFF3E4B4C);
; 72   : 	ChDrawFilledCircle(win->canv, button_posx, onoff->wid.y + onoff->wid.h / 2,

	ldr         w8,[sp,#0x18]
	sub         w3,w8,#1
	ldr         x8,[sp,#0x10]
	add         x10,x8,#4
	ldr         x8,[sp,#0x10]
	add         x8,x8,#0xC
	ldr         w9,[x8]
	mov         w8,#2
	sdiv        w9,w9,w8
	ldr         w8,[x10]
	add         w2,w8,w9
	ldr         x8,[sp,#0x28]
	add         x8,x8,#0x18
	ldr         w4,[sp,#0x40]
	mov         w3,w3
	mov         w2,w2
	ldr         w1,[sp,#0x1C]
	ldr         x0,[x8]
	bl          ChDrawFilledCircle
	ldp         fp,lr,[sp],#0x50
	ret
	nop
|$LN4@ChDefaultO|
	DCD         0xffebfae8
|$LN5@ChDefaultO|
	DCD         0xffb4bcb2
|$LN6@ChDefaultO|
	DCD         0xff28b217
|$LN7@ChDefaultO|
	DCD         0xff5b6a59
|$LN8@ChDefaultO|
	DCD         0xff3e4b4c

	ENDP  ; |?ChDefaultOnOffPainter@@YAXPEAU_ChWidget_@@PEAU_chwin_@@@Z|, ChDefaultOnOffPainter

	END
