; Listing generated by Microsoft (R) Optimizing Compiler Version 19.29.30159.0 

	TTL	E:\Xeneva Project\Aurora\Libs\Chitralekha\ARM64\Debug\defaultwindow.obj
	ARM64

	AREA	|.drectve|, DRECTVE

	EXPORT	|?ChWindowPaintCloseButton@@YAXPEAU_chwin_@@PEAU_global_ctrl_@@@Z| ; ChWindowPaintCloseButton
	EXPORT	|?ChWindowPaintMaximButton@@YAXPEAU_chwin_@@PEAU_global_ctrl_@@@Z| ; ChWindowPaintMaximButton
	EXPORT	|?ChWindowPaintMinimButton@@YAXPEAU_chwin_@@PEAU_global_ctrl_@@@Z| ; ChWindowPaintMinimButton
	EXPORT	|?ChWindowPaintTitlebar@@YAXPEAU_chwin_@@@Z| ; ChWindowPaintTitlebar
	EXPORT	|?ChWindowPaintMainActivity@@YAXPEAU_chwin_@@@Z| ; ChWindowPaintMainActivity
	EXPORT	|?ChDefaultWinPaint@@YAXPEAU_chwin_@@@Z| ; ChDefaultWinPaint
	EXPORT	|?ChDefaultPopupWinPaint@@YAXPEAU_chwin_@@@Z| ; ChDefaultPopupWinPaint
	EXPORT	|?_apply_rounded_corner@@YAXPEAIHHH@Z|	; _apply_rounded_corner
	IMPORT	|ChDrawRect|
	IMPORT	|ChDrawHorizontalLine|
	IMPORT	|ChDrawRectUnfilled|
	IMPORT	|ChDrawLine|
	IMPORT	|ChFontSetSize|
	IMPORT	|ChFontDrawText|
	IMPORT	|ChFontGetWidth|
	IMPORT	|ChFontGetHeight|
	IMPORT	|list_get_at|
	IMPORT	|ChWindowUpdate|
	IMPORT	|fmaxf|
	IMPORT	|fminf|
	IMPORT	|_fltused|

	AREA	|.pdata|, PDATA
|$pdata$?ChWindowPaintCloseButton@@YAXPEAU_chwin_@@PEAU_global_ctrl_@@@Z| DCD imagerel |$LN5|
	DCD	0x1e00181
	;Flags[SingleProEpi] functionLength[384] RegF[0] RegI[0] H[0] frameChainReturn[Chained] frameSize[48]
|$pdata$?ChWindowPaintMaximButton@@YAXPEAU_chwin_@@PEAU_global_ctrl_@@@Z| DCD imagerel |$LN5|
	DCD	0x1e00105
	;Flags[SingleProEpi] functionLength[260] RegF[0] RegI[0] H[0] frameChainReturn[Chained] frameSize[48]
|$pdata$?ChWindowPaintMinimButton@@YAXPEAU_chwin_@@PEAU_global_ctrl_@@@Z| DCD imagerel |$LN5|
	DCD	0x1e0012d
	;Flags[SingleProEpi] functionLength[300] RegF[0] RegI[0] H[0] frameChainReturn[Chained] frameSize[48]
|$pdata$?ChWindowPaintTitlebar@@YAXPEAU_chwin_@@@Z| DCD imagerel |$LN14|
	DCD	0x2600211
	;Flags[SingleProEpi] functionLength[528] RegF[0] RegI[0] H[0] frameChainReturn[Chained] frameSize[64]
|$pdata$?ChWindowPaintMainActivity@@YAXPEAU_chwin_@@@Z| DCD imagerel |$LN8|
	DCD	0x1e000dd
	;Flags[SingleProEpi] functionLength[220] RegF[0] RegI[0] H[0] frameChainReturn[Chained] frameSize[48]
|$pdata$?ChDefaultWinPaint@@YAXPEAU_chwin_@@@Z| DCD imagerel |$LN3|
	DCD	0x16000c1
	;Flags[SingleProEpi] functionLength[192] RegF[0] RegI[0] H[0] frameChainReturn[Chained] frameSize[32]
|$pdata$?ChDefaultPopupWinPaint@@YAXPEAU_chwin_@@@Z| DCD imagerel |$LN9|
	DCD	0x1e00129
	;Flags[SingleProEpi] functionLength[296] RegF[0] RegI[0] H[0] frameChainReturn[Chained] frameSize[48]
|$pdata$?_apply_rounded_corner@@YAXPEAIHHH@Z| DCD imagerel |$LN10|
	DCD	0x3e002a1
	;Flags[SingleProEpi] functionLength[672] RegF[0] RegI[0] H[0] frameChainReturn[Chained] frameSize[112]
; Function compile flags: /Odtp
; File E:\Xeneva Project\Aurora\Libs\Chitralekha\widgets\defaultwindow.cpp

	AREA	|.text$mn|, CODE, ARM64

|?_apply_rounded_corner@@YAXPEAIHHH@Z| PROC		; _apply_rounded_corner

; 165  : void _apply_rounded_corner(uint32_t* backbuff, int radius, int winw, int winh) {

|$LN10|
	stp         fp,lr,[sp,#-0x70]!
	mov         fp,sp
	str         x0,[sp,#0x30]
	str         w1,[sp,#0x20]
	str         w2,[sp,#0x38]
	str         w3,[sp,#0x3C]

; 166  : 	int w = winw;

	ldr         w8,[sp,#0x38]
	str         w8,[sp,#0x1C]

; 167  : 	int h = winh;

	ldr         w8,[sp,#0x3C]
	str         w8,[sp,#0x2C]

; 168  : 	for (int y = 0; y < radius; y++) {

	mov         w8,#0
	str         w8,[sp,#0x14]
	b           |$LN4@apply_roun|
|$LN2@apply_roun|
	ldr         w8,[sp,#0x14]
	add         w8,w8,#1
	str         w8,[sp,#0x14]
|$LN4@apply_roun|
	ldr         w9,[sp,#0x20]
	ldr         w8,[sp,#0x14]
	cmp         w8,w9
	bge         |$LN3@apply_roun|

; 169  : 		for (int x = 0; x < radius; x++) {

	mov         w8,#0
	str         w8,[sp,#0x18]
	b           |$LN7@apply_roun|
|$LN5@apply_roun|
	ldr         w8,[sp,#0x18]
	add         w8,w8,#1
	str         w8,[sp,#0x18]
|$LN7@apply_roun|
	ldr         w9,[sp,#0x20]
	ldr         w8,[sp,#0x18]
	cmp         w8,w9
	bge         |$LN6@apply_roun|

; 170  : 
; 171  : 			float dx = (float)(radius - 1 - x);

	ldr         w8,[sp,#0x20]
	sub         w9,w8,#1
	ldr         w8,[sp,#0x18]
	sub         w8,w9,w8
	scvtf       s16,w8
	str         s16,[sp,#0x24]

; 172  : 			float dy = (float)(radius - 1 - y);

	ldr         w8,[sp,#0x20]
	sub         w9,w8,#1
	ldr         w8,[sp,#0x14]
	sub         w8,w9,w8
	scvtf       s16,w8
	str         s16,[sp,#0x28]

; 173  : 			float dist = sqrtf(dx * dx + dy * dy) - (float)(radius - 1);

	ldr         s17,[sp,#0x24]
	ldr         s16,[sp,#0x24]
	fmul        s18,s17,s16
	ldr         s17,[sp,#0x28]
	ldr         s16,[sp,#0x28]
	fmul        s16,s17,s16
	fadd        s16,s18,s16
	fsqrt       s17,s16
	ldr         w8,[sp,#0x20]
	sub         w8,w8,#1
	scvtf       s16,w8
	fsub        s16,s17,s16
	str         s16,[sp,#0x40]

; 174  : 
; 175  : 			float a = 1.0f - fmaxf(0.0f, fminf(1.0f, dist + 0.5f));

	ldr         s17,[sp,#0x40]
	fmov        s16,#0.5
	fadd        s1,s17,s16
	fmov        s0,#1
	bl          fminf
	fmov        s1,s0
	movi        d0,#0
	bl          fmaxf
	fmov        s16,#1
	fsub        s16,s16,s0
	str         s16,[sp,#0x44]

; 176  : 			uint8_t alpha = (uint8_t)(a * 255.0f);

	ldr         s17,[sp,#0x44]
	ldr         s16,|$LN9@apply_roun|
	fmul        s16,s17,s16
	fcvtzu      w8,s16
	uxtb        w8,w8
	strb        w8,[sp,#0x10]

; 177  : 
; 178  : 			uint32_t* tl = &backbuff[y * w + x];

	ldr         w9,[sp,#0x14]
	ldr         w8,[sp,#0x1C]
	mul         w9,w9,w8
	ldr         w8,[sp,#0x18]
	add         w8,w9,w8
	sxtw        x9,w8
	mov         x8,#4
	mul         x9,x9,x8
	ldr         x8,[sp,#0x30]
	add         x8,x8,x9
	str         x8,[sp,#0x48]

; 179  : 			*tl = (*tl & 0x00FFFFFF) | ((uint32_t)alpha << 24);

	ldr         x8,[sp,#0x48]
	ldr         w8,[x8]
	and         w9,w8,#0xFFFFFF
	ldrb        w8,[sp,#0x10]
	mov         w8,w8
	lsl         w8,w8,#0x18
	orr         w9,w9,w8
	ldr         x8,[sp,#0x48]
	str         w9,[x8]

; 180  : 
; 181  : 			uint32_t* tr = &backbuff[y * w + (w - 1 - x)];

	ldr         w9,[sp,#0x14]
	ldr         w8,[sp,#0x1C]
	mul         w10,w9,w8
	ldr         w8,[sp,#0x1C]
	sub         w9,w8,#1
	ldr         w8,[sp,#0x18]
	sub         w8,w9,w8
	add         w8,w10,w8
	sxtw        x9,w8
	mov         x8,#4
	mul         x9,x9,x8
	ldr         x8,[sp,#0x30]
	add         x8,x8,x9
	str         x8,[sp,#0x50]

; 182  : 			*tr = (*tr & 0x00FFFFFF) | ((uint32_t)alpha << 24);

	ldr         x8,[sp,#0x50]
	ldr         w8,[x8]
	and         w9,w8,#0xFFFFFF
	ldrb        w8,[sp,#0x10]
	mov         w8,w8
	lsl         w8,w8,#0x18
	orr         w9,w9,w8
	ldr         x8,[sp,#0x50]
	str         w9,[x8]

; 183  : 
; 184  : 			uint32_t* bl = &backbuff[(h - 1 - y) * w + x];

	ldr         w8,[sp,#0x2C]
	sub         w9,w8,#1
	ldr         w8,[sp,#0x14]
	sub         w9,w9,w8
	ldr         w8,[sp,#0x1C]
	mul         w9,w9,w8
	ldr         w8,[sp,#0x18]
	add         w8,w9,w8
	sxtw        x9,w8
	mov         x8,#4
	mul         x9,x9,x8
	ldr         x8,[sp,#0x30]
	add         x8,x8,x9
	str         x8,[sp,#0x58]

; 185  : 			*bl = (*bl & 0x00FFFFFF) | ((uint32_t)alpha << 24);

	ldr         x8,[sp,#0x58]
	ldr         w8,[x8]
	and         w9,w8,#0xFFFFFF
	ldrb        w8,[sp,#0x10]
	mov         w8,w8
	lsl         w8,w8,#0x18
	orr         w9,w9,w8
	ldr         x8,[sp,#0x58]
	str         w9,[x8]

; 186  : 
; 187  : 			uint32_t* br = &backbuff[(h - 1 - y) * w + (w - 1 - x)];

	ldr         w8,[sp,#0x2C]
	sub         w9,w8,#1
	ldr         w8,[sp,#0x14]
	sub         w9,w9,w8
	ldr         w8,[sp,#0x1C]
	mul         w10,w9,w8
	ldr         w8,[sp,#0x1C]
	sub         w9,w8,#1
	ldr         w8,[sp,#0x18]
	sub         w8,w9,w8
	add         w8,w10,w8
	sxtw        x9,w8
	mov         x8,#4
	mul         x9,x9,x8
	ldr         x8,[sp,#0x30]
	add         x8,x8,x9
	str         x8,[sp,#0x60]

; 188  : 			*br = (*br & 0x00FFFFFF) | ((uint32_t)alpha << 24);

	ldr         x8,[sp,#0x60]
	ldr         w8,[x8]
	and         w9,w8,#0xFFFFFF
	ldrb        w8,[sp,#0x10]
	mov         w8,w8
	lsl         w8,w8,#0x18
	orr         w9,w9,w8
	ldr         x8,[sp,#0x60]
	str         w9,[x8]

; 189  : 		}

	b           |$LN5@apply_roun|
|$LN6@apply_roun|

; 190  : 	}

	b           |$LN2@apply_roun|
|$LN3@apply_roun|
	ldp         fp,lr,[sp],#0x70
	ret
|$LN9@apply_roun|
	DCFS         255

	ENDP  ; |?_apply_rounded_corner@@YAXPEAIHHH@Z|, _apply_rounded_corner

; Function compile flags: /Odtp
; File E:\Xeneva Project\Aurora\Libs\Chitralekha\widgets\defaultwindow.cpp

	AREA	|.text$mn|, CODE, ARM64

|?ChDefaultPopupWinPaint@@YAXPEAU_chwin_@@@Z| PROC	; ChDefaultPopupWinPaint

; 152  : void ChDefaultPopupWinPaint(ChWindow* popup) {

|$LN9|
	stp         fp,lr,[sp,#-0x30]!
	mov         fp,sp
	str         x0,[sp,#0x18]

; 153  : 	ChDrawRect(popup->canv, 0, 0, popup->info->width, popup->info->height, 0xFFD2D2D2);

	ldr         x8,[sp,#0x18]
	add         x8,x8,#0x28
	ldr         x9,[x8]
	mov         x8,#0x1014
	add         x10,x9,x8
	ldr         x8,[sp,#0x18]
	add         x8,x8,#0x28
	ldr         x9,[x8]
	mov         x8,#0x1010
	add         x9,x9,x8
	ldr         x8,[sp,#0x18]
	add         x8,x8,#0x18
	ldr         w5,|$LN7@ChDefaultP|
	ldr         w4,[x10]
	ldr         w3,[x9]
	mov         w2,#0
	mov         w1,#0
	ldr         x0,[x8]
	bl          ChDrawRect

; 154  : 	for (int i = 0; i < popup->widgets->pointer; i++) {

	mov         w8,#0
	str         w8,[sp,#0x10]
	b           |$LN4@ChDefaultP|
|$LN2@ChDefaultP|
	ldr         w8,[sp,#0x10]
	add         w8,w8,#1
	str         w8,[sp,#0x10]
|$LN4@ChDefaultP|
	ldr         x8,[sp,#0x18]
	add         x8,x8,#0x50
	ldr         x8,[x8]
	ldr         w9,[x8]
	ldr         w8,[sp,#0x10]
	cmp         w8,w9
	bhs         |$LN3@ChDefaultP|

; 155  : 		ChWidget* wid = (ChWidget*)list_get_at(popup->widgets, i);

	ldr         x8,[sp,#0x18]
	add         x8,x8,#0x50
	ldr         w1,[sp,#0x10]
	ldr         x0,[x8]
	bl          list_get_at
	str         x0,[sp,#0x20]

; 156  : 		if (wid->ChPaintHandler)

	ldr         x8,[sp,#0x20]
	add         x8,x8,#0x40
	ldr         x8,[x8]
	cmp         x8,#0
	beq         |$LN5@ChDefaultP|

; 157  : 			wid->ChPaintHandler(wid, popup);

	ldr         x8,[sp,#0x20]
	add         x8,x8,#0x40
	ldr         x1,[sp,#0x18]
	ldr         x0,[sp,#0x20]
	ldr         x8,[x8]
	blr         x8
|$LN5@ChDefaultP|

; 158  : 	}

	b           |$LN2@ChDefaultP|
|$LN3@ChDefaultP|

; 159  : 	ChDrawRectUnfilled(popup->canv, 0, 0, popup->info->width, popup->info->height, GRAY);

	ldr         x8,[sp,#0x18]
	add         x8,x8,#0x28
	ldr         x9,[x8]
	mov         x8,#0x1014
	add         x10,x9,x8
	ldr         x8,[sp,#0x18]
	add         x8,x8,#0x28
	ldr         x9,[x8]
	mov         x8,#0x1010
	add         x9,x9,x8
	ldr         x8,[sp,#0x18]
	add         x8,x8,#0x18
	ldr         w5,|$LN8@ChDefaultP|
	ldr         w4,[x10]
	ldr         w3,[x9]
	mov         w2,#0
	mov         w1,#0
	ldr         x0,[x8]
	bl          ChDrawRectUnfilled
	ldp         fp,lr,[sp],#0x30
	ret
|$LN7@ChDefaultP|
	DCD         0xffd2d2d2
|$LN8@ChDefaultP|
	DCD         0xff808080

	ENDP  ; |?ChDefaultPopupWinPaint@@YAXPEAU_chwin_@@@Z|, ChDefaultPopupWinPaint

; Function compile flags: /Odtp
; File E:\Xeneva Project\Aurora\Libs\Chitralekha\widgets\defaultwindow.cpp

	AREA	|.text$mn|, CODE, ARM64

|?ChDefaultWinPaint@@YAXPEAU_chwin_@@@Z| PROC		; ChDefaultWinPaint

; 145  : void ChDefaultWinPaint(ChWindow* win){

|$LN3|
	stp         fp,lr,[sp,#-0x20]!
	mov         fp,sp
	str         x0,[sp,#0x10]

; 146  : 	ChDrawRect(win->canv, 0, 0, win->info->width, win->info->height,win->color);

	ldr         x8,[sp,#0x10]
	add         x11,x8,#0x3C
	ldr         x8,[sp,#0x10]
	add         x8,x8,#0x28
	ldr         x9,[x8]
	mov         x8,#0x1014
	add         x10,x9,x8
	ldr         x8,[sp,#0x10]
	add         x8,x8,#0x28
	ldr         x9,[x8]
	mov         x8,#0x1010
	add         x9,x9,x8
	ldr         x8,[sp,#0x10]
	add         x8,x8,#0x18
	ldr         w5,[x11]
	ldr         w4,[x10]
	ldr         w3,[x9]
	mov         w2,#0
	mov         w1,#0
	ldr         x0,[x8]
	bl          ChDrawRect

; 147  : 	ChWindowPaintTitlebar(win);

	ldr         x0,[sp,#0x10]
	bl          |?ChWindowPaintTitlebar@@YAXPEAU_chwin_@@@Z|

; 148  : 	ChWindowPaintMainActivity(win);

	ldr         x0,[sp,#0x10]
	bl          |?ChWindowPaintMainActivity@@YAXPEAU_chwin_@@@Z|

; 149  : 	ChWindowUpdate(win, 0, 0, win->info->width, win->info->height, 1,0);

	ldr         x8,[sp,#0x10]
	add         x8,x8,#0x28
	ldr         x9,[x8]
	mov         x8,#0x1014
	add         x10,x9,x8
	ldr         x8,[sp,#0x10]
	add         x8,x8,#0x28
	ldr         x9,[x8]
	mov         x8,#0x1010
	add         x8,x9,x8
	mov         w6,#0
	mov         w5,#1
	ldr         w4,[x10]
	ldr         w3,[x8]
	mov         w2,#0
	mov         w1,#0
	ldr         x0,[sp,#0x10]
	bl          ChWindowUpdate
	ldp         fp,lr,[sp],#0x20
	ret

	ENDP  ; |?ChDefaultWinPaint@@YAXPEAU_chwin_@@@Z|, ChDefaultWinPaint

; Function compile flags: /Odtp
; File E:\Xeneva Project\Aurora\Libs\Chitralekha\widgets\defaultwindow.cpp

	AREA	|.text$mn|, CODE, ARM64

|?ChWindowPaintMainActivity@@YAXPEAU_chwin_@@@Z| PROC	; ChWindowPaintMainActivity

; 136  : void ChWindowPaintMainActivity(ChWindow* win) {

|$LN8|
	stp         fp,lr,[sp,#-0x30]!
	mov         fp,sp
	str         x0,[sp,#0x18]

; 137  : 	for (int i = 0; i < win->widgets->pointer; i++) {

	mov         w8,#0
	str         w8,[sp,#0x10]
	b           |$LN4@ChWindowPa|
|$LN2@ChWindowPa|
	ldr         w8,[sp,#0x10]
	add         w8,w8,#1
	str         w8,[sp,#0x10]
|$LN4@ChWindowPa|
	ldr         x8,[sp,#0x18]
	add         x8,x8,#0x50
	ldr         x8,[x8]
	ldr         w9,[x8]
	ldr         w8,[sp,#0x10]
	cmp         w8,w9
	bhs         |$LN3@ChWindowPa|

; 138  : 		ChWidget* wid = (ChWidget*)list_get_at(win->widgets, i);

	ldr         x8,[sp,#0x18]
	add         x8,x8,#0x50
	ldr         w1,[sp,#0x10]
	ldr         x0,[x8]
	bl          list_get_at
	str         x0,[sp,#0x20]

; 139  : 		if (wid->ChPaintHandler)

	ldr         x8,[sp,#0x20]
	add         x8,x8,#0x40
	ldr         x8,[x8]
	cmp         x8,#0
	beq         |$LN5@ChWindowPa|

; 140  : 			wid->ChPaintHandler(wid, win);

	ldr         x8,[sp,#0x20]
	add         x8,x8,#0x40
	ldr         x1,[sp,#0x18]
	ldr         x0,[sp,#0x20]
	ldr         x8,[x8]
	blr         x8
|$LN5@ChWindowPa|

; 141  : 	}

	b           |$LN2@ChWindowPa|
|$LN3@ChWindowPa|

; 142  : 	ChDrawRectUnfilled(win->canv, 0,0, win->info->width, win->info->height, GRAY);

	ldr         x8,[sp,#0x18]
	add         x8,x8,#0x28
	ldr         x9,[x8]
	mov         x8,#0x1014
	add         x10,x9,x8
	ldr         x8,[sp,#0x18]
	add         x8,x8,#0x28
	ldr         x9,[x8]
	mov         x8,#0x1010
	add         x9,x9,x8
	ldr         x8,[sp,#0x18]
	add         x8,x8,#0x18
	ldr         w5,|$LN7@ChWindowPa|
	ldr         w4,[x10]
	ldr         w3,[x9]
	mov         w2,#0
	mov         w1,#0
	ldr         x0,[x8]
	bl          ChDrawRectUnfilled
	ldp         fp,lr,[sp],#0x30
	ret
	nop
|$LN7@ChWindowPa|
	DCD         0xff808080

	ENDP  ; |?ChWindowPaintMainActivity@@YAXPEAU_chwin_@@@Z|, ChWindowPaintMainActivity

; Function compile flags: /Odtp
; File E:\Xeneva Project\Aurora\Libs\Chitralekha\widgets\defaultwindow.cpp

	AREA	|.text$mn|, CODE, ARM64

|?ChWindowPaintTitlebar@@YAXPEAU_chwin_@@@Z| PROC	; ChWindowPaintTitlebar

; 108  : void ChWindowPaintTitlebar(ChWindow* win) {

|$LN14|
	stp         fp,lr,[sp,#-0x40]!
	mov         fp,sp
	str         x0,[sp,#0x28]

; 109  : 	uint32_t light_color = DEFAULT_TITLEBAR_LIGHT;

	ldr         w8,|$LN9@ChWindowPa|
	str         w8,[sp,#0x14]

; 110  : 	uint32_t dark_color = DEFAULT_TITLEBAR_DARK;

	ldr         w8,|$LN10@ChWindowPa|
	str         w8,[sp,#0x18]

; 111  : 	if (win->focused) {

	ldr         x8,[sp,#0x28]
	add         x8,x8,#0x40
	ldrsb       w8,[x8]
	mov         w8,w8
	cmp         w8,#0
	beq         |$LN5@ChWindowPa|

; 112  : 		light_color = DEFAULT_TITLEBAR_FOCUS_LIGHT;

	ldr         w8,|$LN11@ChWindowPa|
	str         w8,[sp,#0x14]

; 113  : 		dark_color = DEFAULT_TITLEBAR_FOCUS_DARK;

	ldr         w8,|$LN12@ChWindowPa|
	str         w8,[sp,#0x18]
|$LN5@ChWindowPa|

; 114  : 	}
; 115  : 
; 116  : 	ChDrawRect(win->canv, 0, 0, win->info->width, 26, light_color);

	ldr         x8,[sp,#0x28]
	add         x8,x8,#0x28
	ldr         x9,[x8]
	mov         x8,#0x1010
	add         x9,x9,x8
	ldr         x8,[sp,#0x28]
	add         x8,x8,#0x18
	ldr         w5,[sp,#0x14]
	mov         w4,#0x1A
	ldr         w3,[x9]
	mov         w2,#0
	mov         w1,#0
	ldr         x0,[x8]
	bl          ChDrawRect

; 117  : 	ChFont* font = win->app->baseFont;

	ldr         x8,[sp,#0x28]
	add         x8,x8,#0x30
	ldr         x8,[x8]
	add         x8,x8,#0x30
	ldr         x8,[x8]
	str         x8,[sp,#0x38]

; 118  : 	ChFontSetSize(win->app->baseFont, 10);

	ldr         x8,[sp,#0x28]
	add         x8,x8,#0x30
	ldr         x8,[x8]
	add         x8,x8,#0x30
	mov         w1,#0xA
	ldr         x0,[x8]
	bl          ChFontSetSize

; 119  : 	int font_width = ChFontGetWidth(font,win->title);

	ldr         x8,[sp,#0x28]
	add         x8,x8,#0x20
	ldr         x1,[x8]
	ldr         x0,[sp,#0x38]
	bl          ChFontGetWidth
	mov         w8,w0
	str         w8,[sp,#0x1C]

; 120  : 	int font_height = ChFontGetHeight(font,win->title);

	ldr         x8,[sp,#0x28]
	add         x8,x8,#0x20
	ldr         x1,[x8]
	ldr         x0,[sp,#0x38]
	bl          ChFontGetHeight
	mov         w8,w0
	str         w8,[sp,#0x20]

; 121  : 	ChFontDrawText(win->canv,font, win->title, win->info->width / 2 - font_width / 2, 26 / 2 + 4, 16, WHITE);

	ldr         x8,[sp,#0x28]
	add         x8,x8,#0x28
	ldr         x9,[x8]
	mov         x8,#0x1010
	add         x8,x9,x8
	ldr         w9,[x8]
	mov         w8,#2
	sdiv        w10,w9,w8
	ldr         w9,[sp,#0x1C]
	mov         w8,#2
	sdiv        w8,w9,w8
	sub         w3,w10,w8
	ldr         x8,[sp,#0x28]
	add         x9,x8,#0x20
	ldr         x8,[sp,#0x28]
	add         x8,x8,#0x18
	mov         w6,#-1
	mov         w5,#0x10
	mov         w4,#0x11
	mov         w3,w3
	ldr         x2,[x9]
	ldr         x1,[sp,#0x38]
	ldr         x0,[x8]
	bl          ChFontDrawText

; 122  : 	ChDrawRectUnfilled(win->canv, 0, 0, win->info->width, 26,	LIGHTBLACK);

	ldr         x8,[sp,#0x28]
	add         x8,x8,#0x28
	ldr         x9,[x8]
	mov         x8,#0x1010
	add         x9,x9,x8
	ldr         x8,[sp,#0x28]
	add         x8,x8,#0x18
	ldr         w5,|$LN13@ChWindowPa|
	mov         w4,#0x1A
	ldr         w3,[x9]
	mov         w2,#0
	mov         w1,#0
	ldr         x0,[x8]
	bl          ChDrawRectUnfilled

; 123  : 
; 124  : 	for (int i = 0; i < win->GlobalControls->pointer; i++) {

	mov         w8,#0
	str         w8,[sp,#0x10]
	b           |$LN4@ChWindowPa|
|$LN2@ChWindowPa|
	ldr         w8,[sp,#0x10]
	add         w8,w8,#1
	str         w8,[sp,#0x10]
|$LN4@ChWindowPa|
	ldr         x8,[sp,#0x28]
	add         x8,x8,#0x48
	ldr         x8,[x8]
	ldr         w9,[x8]
	ldr         w8,[sp,#0x10]
	cmp         w8,w9
	bhs         |$LN3@ChWindowPa|

; 125  : 		ChWinGlobalControl* global = (ChWinGlobalControl*)list_get_at(win->GlobalControls, i);

	ldr         x8,[sp,#0x28]
	add         x8,x8,#0x48
	ldr         w1,[sp,#0x10]
	ldr         x0,[x8]
	bl          list_get_at
	str         x0,[sp,#0x30]

; 126  : 		if (global) {

	ldr         x8,[sp,#0x30]
	cmp         x8,#0
	beq         |$LN6@ChWindowPa|

; 127  : 			if (global->ChGlobalButtonPaint)

	ldr         x8,[sp,#0x30]
	add         x8,x8,#0x28
	ldr         x8,[x8]
	cmp         x8,#0
	beq         |$LN7@ChWindowPa|

; 128  : 				global->ChGlobalButtonPaint(win, global);

	ldr         x8,[sp,#0x30]
	add         x8,x8,#0x28
	ldr         x1,[sp,#0x30]
	ldr         x0,[sp,#0x28]
	ldr         x8,[x8]
	blr         x8
|$LN7@ChWindowPa|
|$LN6@ChWindowPa|

; 129  : 		}
; 130  : 	}

	b           |$LN2@ChWindowPa|
|$LN3@ChWindowPa|
	ldp         fp,lr,[sp],#0x40
	ret
|$LN9@ChWindowPa|
	DCD         0xff454343
|$LN10@ChWindowPa|
	DCD         0xff252525
|$LN11@ChWindowPa|
	DCD         0xff576674
|$LN12@ChWindowPa|
	DCD         0xff454f58
|$LN13@ChWindowPa|
	DCD         0xff3e3e3e

	ENDP  ; |?ChWindowPaintTitlebar@@YAXPEAU_chwin_@@@Z|, ChWindowPaintTitlebar

; Function compile flags: /Odtp
; File E:\Xeneva Project\Aurora\Libs\Chitralekha\widgets\defaultwindow.cpp

	AREA	|.text$mn|, CODE, ARM64

|?ChWindowPaintMinimButton@@YAXPEAU_chwin_@@PEAU_global_ctrl_@@@Z| PROC ; ChWindowPaintMinimButton

; 92   : void ChWindowPaintMinimButton(ChWindow* win, ChWinGlobalControl* button) {

|$LN5|
	stp         fp,lr,[sp,#-0x30]!
	mov         fp,sp
	str         x0,[sp,#0x20]
	str         x1,[sp,#0x18]

; 93   : 	uint32_t outline_col = button->outlineColor;

	ldr         x8,[sp,#0x18]
	add         x8,x8,#0x18
	ldr         w8,[x8]
	str         w8,[sp,#0x10]

; 94   : 	if (button->hover){

	ldr         x8,[sp,#0x18]
	add         x8,x8,#0x11
	ldrsb       w8,[x8]
	mov         w8,w8
	cmp         w8,#0
	beq         |$LN2@ChWindowPa|

; 95   : 		outline_col = button->hoverOutlineColor;

	ldr         x8,[sp,#0x18]
	add         x8,x8,#0x1C
	ldr         w8,[x8]
	str         w8,[sp,#0x10]
|$LN2@ChWindowPa|

; 96   : 	}
; 97   : 
; 98   : 	if (button->clicked) {

	ldr         x8,[sp,#0x18]
	add         x8,x8,#0x12
	ldrsb       w8,[x8]
	mov         w8,w8
	cmp         w8,#0
	beq         |$LN3@ChWindowPa|

; 99   : 		outline_col = button->clickedOutlineColor;

	ldr         x8,[sp,#0x18]
	add         x8,x8,#0x24
	ldr         w8,[x8]
	str         w8,[sp,#0x10]

; 100  : 		button->clicked = false;

	ldr         x8,[sp,#0x18]
	add         x9,x8,#0x12
	mov         w8,#0
	strb        w8,[x9]
|$LN3@ChWindowPa|

; 101  : 	}
; 102  : 
; 103  : 
; 104  : 	ChDrawHorizontalLine(win->canv, button->x + 7, button->y + button->h / 2, 7, outline_col);

	ldr         x8,[sp,#0x18]
	add         x10,x8,#4
	ldr         x8,[sp,#0x18]
	add         x8,x8,#0xC
	ldr         w9,[x8]
	mov         w8,#2
	sdiv        w9,w9,w8
	ldr         w8,[x10]
	add         w2,w8,w9
	ldr         x8,[sp,#0x18]
	ldr         w8,[x8]
	add         w1,w8,#7
	ldr         x8,[sp,#0x20]
	add         x8,x8,#0x18
	ldr         w4,[sp,#0x10]
	mov         w3,#7
	mov         w2,w2
	mov         w1,w1
	ldr         x0,[x8]
	bl          ChDrawHorizontalLine

; 105  : 	ChDrawHorizontalLine(win->canv, button->x + 7, button->y + button->h / 2 + 1, 7, outline_col);

	ldr         x8,[sp,#0x18]
	add         x10,x8,#4
	ldr         x8,[sp,#0x18]
	add         x8,x8,#0xC
	ldr         w9,[x8]
	mov         w8,#2
	sdiv        w9,w9,w8
	ldr         w8,[x10]
	add         w8,w8,w9
	add         w2,w8,#1
	ldr         x8,[sp,#0x18]
	ldr         w8,[x8]
	add         w1,w8,#7
	ldr         x8,[sp,#0x20]
	add         x8,x8,#0x18
	ldr         w4,[sp,#0x10]
	mov         w3,#7
	mov         w2,w2
	mov         w1,w1
	ldr         x0,[x8]
	bl          ChDrawHorizontalLine
	ldp         fp,lr,[sp],#0x30
	ret

	ENDP  ; |?ChWindowPaintMinimButton@@YAXPEAU_chwin_@@PEAU_global_ctrl_@@@Z|, ChWindowPaintMinimButton

; Function compile flags: /Odtp
; File E:\Xeneva Project\Aurora\Libs\Chitralekha\widgets\defaultwindow.cpp

	AREA	|.text$mn|, CODE, ARM64

|?ChWindowPaintMaximButton@@YAXPEAU_chwin_@@PEAU_global_ctrl_@@@Z| PROC ; ChWindowPaintMaximButton

; 71   : void ChWindowPaintMaximButton(ChWindow* win, ChWinGlobalControl* button){

|$LN5|
	stp         fp,lr,[sp,#-0x30]!
	mov         fp,sp
	str         x0,[sp,#0x20]
	str         x1,[sp,#0x18]

; 72   : 	//ChDrawCircleUnfilled(win->canv, button->x + button->w / 2, button->y + button->h / 2, 8, button->outlineColor);
; 73   : 	/* draw the actual symbol */
; 74   : 	uint32_t outline_col = button->outlineColor;

	ldr         x8,[sp,#0x18]
	add         x8,x8,#0x18
	ldr         w8,[x8]
	str         w8,[sp,#0x10]

; 75   : 	if (button->hover){

	ldr         x8,[sp,#0x18]
	add         x8,x8,#0x11
	ldrsb       w8,[x8]
	mov         w8,w8
	cmp         w8,#0
	beq         |$LN2@ChWindowPa|

; 76   : 		outline_col = button->hoverOutlineColor;

	ldr         x8,[sp,#0x18]
	add         x8,x8,#0x1C
	ldr         w8,[x8]
	str         w8,[sp,#0x10]
|$LN2@ChWindowPa|

; 77   : 	}
; 78   : 
; 79   : 	if (button->clicked) {

	ldr         x8,[sp,#0x18]
	add         x8,x8,#0x12
	ldrsb       w8,[x8]
	mov         w8,w8
	cmp         w8,#0
	beq         |$LN3@ChWindowPa|

; 80   : 		outline_col = button->clickedOutlineColor;

	ldr         x8,[sp,#0x18]
	add         x8,x8,#0x24
	ldr         w8,[x8]
	str         w8,[sp,#0x10]

; 81   : 		button->clicked = false;

	ldr         x8,[sp,#0x18]
	add         x9,x8,#0x12
	mov         w8,#0
	strb        w8,[x9]
|$LN3@ChWindowPa|

; 82   : 	}
; 83   : 
; 84   : 
; 85   : 	ChDrawRectUnfilled(win->canv, button->x + 7, button->y + 7, 7, 7, outline_col);

	ldr         x8,[sp,#0x18]
	add         x8,x8,#4
	ldr         w8,[x8]
	add         w2,w8,#7
	ldr         x8,[sp,#0x18]
	ldr         w8,[x8]
	add         w1,w8,#7
	ldr         x8,[sp,#0x20]
	add         x8,x8,#0x18
	ldr         w5,[sp,#0x10]
	mov         w4,#7
	mov         w3,#7
	mov         w2,w2
	mov         w1,w1
	ldr         x0,[x8]
	bl          ChDrawRectUnfilled

; 86   : 	ChDrawHorizontalLine(win->canv, button->x + 7, button->y + 7 + 1, 7, outline_col);

	ldr         x8,[sp,#0x18]
	add         x8,x8,#4
	ldr         w8,[x8]
	add         w2,w8,#8
	ldr         x8,[sp,#0x18]
	ldr         w8,[x8]
	add         w1,w8,#7
	ldr         x8,[sp,#0x20]
	add         x8,x8,#0x18
	ldr         w4,[sp,#0x10]
	mov         w3,#7
	mov         w2,w2
	mov         w1,w1
	ldr         x0,[x8]
	bl          ChDrawHorizontalLine
	ldp         fp,lr,[sp],#0x30
	ret

	ENDP  ; |?ChWindowPaintMaximButton@@YAXPEAU_chwin_@@PEAU_global_ctrl_@@@Z|, ChWindowPaintMaximButton

; Function compile flags: /Odtp
; File E:\Xeneva Project\Aurora\Libs\Chitralekha\widgets\defaultwindow.cpp

	AREA	|.text$mn|, CODE, ARM64

|?ChWindowPaintCloseButton@@YAXPEAU_chwin_@@PEAU_global_ctrl_@@@Z| PROC ; ChWindowPaintCloseButton

; 51   : void ChWindowPaintCloseButton(ChWindow* win, ChWinGlobalControl* button){

|$LN5|
	stp         fp,lr,[sp,#-0x30]!
	mov         fp,sp
	str         x0,[sp,#0x20]
	str         x1,[sp,#0x18]

; 52   : 	//ChDrawCircleUnfilled(win->canv, button->x + button->w / 2,button->y + button->h / 2, 8, button->outlineColor);
; 53   : 	/* draw the actual symbol */
; 54   : 	uint32_t outline_col = button->outlineColor;

	ldr         x8,[sp,#0x18]
	add         x8,x8,#0x18
	ldr         w8,[x8]
	str         w8,[sp,#0x10]

; 55   : 	if (button->hover){

	ldr         x8,[sp,#0x18]
	add         x8,x8,#0x11
	ldrsb       w8,[x8]
	mov         w8,w8
	cmp         w8,#0
	beq         |$LN2@ChWindowPa|

; 56   : 		outline_col = button->hoverOutlineColor;

	ldr         x8,[sp,#0x18]
	add         x8,x8,#0x1C
	ldr         w8,[x8]
	str         w8,[sp,#0x10]
|$LN2@ChWindowPa|

; 57   : 	}
; 58   : 
; 59   : 	if (button->clicked) {

	ldr         x8,[sp,#0x18]
	add         x8,x8,#0x12
	ldrsb       w8,[x8]
	mov         w8,w8
	cmp         w8,#0
	beq         |$LN3@ChWindowPa|

; 60   : 		outline_col = button->clickedOutlineColor;

	ldr         x8,[sp,#0x18]
	add         x8,x8,#0x24
	ldr         w8,[x8]
	str         w8,[sp,#0x10]

; 61   : 		button->clicked = false;

	ldr         x8,[sp,#0x18]
	add         x9,x8,#0x12
	mov         w8,#0
	strb        w8,[x9]
|$LN3@ChWindowPa|

; 62   : 	}
; 63   : 
; 64   : 	ChDrawLine(win->canv, button->x + 7, button->y + 7, button->x + button->w - 7, button->y + button->h - 7, outline_col);

	ldr         x8,[sp,#0x18]
	add         x9,x8,#4
	ldr         x8,[sp,#0x18]
	add         x8,x8,#0xC
	ldr         w9,[x9]
	ldr         w8,[x8]
	add         w8,w9,w8
	sub         w4,w8,#7
	ldr         x9,[sp,#0x18]
	ldr         x8,[sp,#0x18]
	add         x8,x8,#8
	ldr         w9,[x9]
	ldr         w8,[x8]
	add         w8,w9,w8
	sub         w3,w8,#7
	ldr         x8,[sp,#0x18]
	add         x8,x8,#4
	ldr         w8,[x8]
	add         w2,w8,#7
	ldr         x8,[sp,#0x18]
	ldr         w8,[x8]
	add         w1,w8,#7
	ldr         x8,[sp,#0x20]
	add         x8,x8,#0x18
	ldr         w5,[sp,#0x10]
	mov         w4,w4
	mov         w3,w3
	mov         w2,w2
	mov         w1,w1
	ldr         x0,[x8]
	bl          ChDrawLine

; 65   : 	ChDrawLine(win->canv, button->x + button->w - 7, button->y + 7, button->x + 7, button->y + button->h - 7, outline_col);

	ldr         x8,[sp,#0x18]
	add         x9,x8,#4
	ldr         x8,[sp,#0x18]
	add         x8,x8,#0xC
	ldr         w9,[x9]
	ldr         w8,[x8]
	add         w8,w9,w8
	sub         w4,w8,#7
	ldr         x8,[sp,#0x18]
	ldr         w8,[x8]
	add         w3,w8,#7
	ldr         x8,[sp,#0x18]
	add         x8,x8,#4
	ldr         w8,[x8]
	add         w2,w8,#7
	ldr         x9,[sp,#0x18]
	ldr         x8,[sp,#0x18]
	add         x8,x8,#8
	ldr         w9,[x9]
	ldr         w8,[x8]
	add         w8,w9,w8
	sub         w1,w8,#7
	ldr         x8,[sp,#0x20]
	add         x8,x8,#0x18
	ldr         w5,[sp,#0x10]
	mov         w4,w4
	mov         w3,w3
	mov         w2,w2
	mov         w1,w1
	ldr         x0,[x8]
	bl          ChDrawLine
	ldp         fp,lr,[sp],#0x30
	ret

	ENDP  ; |?ChWindowPaintCloseButton@@YAXPEAU_chwin_@@PEAU_global_ctrl_@@@Z|, ChWindowPaintCloseButton

	END
