; Listing generated by Microsoft (R) Optimizing Compiler Version 19.29.30159.0 

	TTL	C:\Users\paras\source\repos\grep-name\XenevaOS\Libs\Chitralekha\ARM64\Debug\defaultprogressbar.obj
	ARM64

	AREA	|.drectve|, DRECTVE


	AREA	|.rdata|, DATA, READONLY
|$SG5080| DCB	"%f", 0x0
	EXPORT	|?ChDefaultProgressBarPainter@@YAXPEAU_ChWidget_@@PEAU_chwin_@@@Z| ; ChDefaultProgressBarPainter
	IMPORT	|sprintf|
	IMPORT	|ChColorDrawVerticalGradient|
	IMPORT	|ChDrawRect|
	IMPORT	|ChDrawRectUnfilled|
	IMPORT	|ChFontSetSize|
	IMPORT	|ChFontDrawText|
	IMPORT	|ChFontGetWidth|
	IMPORT	|_fltused|

	AREA	|.pdata|, PDATA
|$pdata$?ChDefaultProgressBarPainter@@YAXPEAU_ChWidget_@@PEAU_chwin_@@@Z| DCD imagerel |$LN9|
	DCD	0x5e0023d
	;Flags[SingleProEpi] functionLength[572] RegF[0] RegI[0] H[0] frameChainReturn[Chained] frameSize[176]
; Function compile flags: /Odtp
; File C:\Users\paras\source\repos\grep-name\XenevaOS\Libs\Chitralekha\widgets\defaultprogressbar.cpp

	AREA	|.text$mn|, CODE, ARM64

|?ChDefaultProgressBarPainter@@YAXPEAU_ChWidget_@@PEAU_chwin_@@@Z| PROC ; ChDefaultProgressBarPainter

; 38   : void ChDefaultProgressBarPainter(ChWidget* wid, ChWindow* win){

|$LN9|
	stp         fp,lr,[sp,#-0xB0]!
	mov         fp,sp
	str         x0,[sp,#0x38]
	str         x1,[sp,#0x18]

; 39   : 	ChProgressBar* pb = (ChProgressBar*)wid;

	ldr         x8,[sp,#0x38]
	str         x8,[sp,#0x10]

; 40   : 
; 41   : 	ChDrawRect(win->canv, pb->base.x, pb->base.y, pb->base.w, pb->base.h, 0xFFB9B9B9);

	ldr         x8,[sp,#0x10]
	add         x12,x8,#0xC
	ldr         x8,[sp,#0x10]
	add         x11,x8,#8
	ldr         x8,[sp,#0x10]
	add         x10,x8,#4
	ldr         x9,[sp,#0x10]
	ldr         x8,[sp,#0x18]
	add         x8,x8,#0x18
	ldr         w5,|$LN5@ChDefaultP|
	ldr         w4,[x12]
	ldr         w3,[x11]
	ldr         w2,[x10]
	ldr         w1,[x9]
	ldr         x0,[x8]
	bl          ChDrawRect

; 42   : 
; 43   : 	//draw progress width
; 44   : 	ChColorDrawVerticalGradient(win->canv, pb->base.x, pb->base.y, pb->progressPixelWidth, pb->base.h,0xFF2DBD11,0xFF217A10);

	ldr         x8,[sp,#0x10]
	add         x12,x8,#0xC
	ldr         x8,[sp,#0x10]
	add         x11,x8,#0x70
	ldr         x8,[sp,#0x10]
	add         x10,x8,#4
	ldr         x9,[sp,#0x10]
	ldr         x8,[sp,#0x18]
	add         x8,x8,#0x18
	ldr         w6,|$LN6@ChDefaultP|
	ldr         w5,|$LN7@ChDefaultP|
	ldr         w4,[x12]
	ldr         w3,[x11]
	ldr         w2,[x10]
	ldr         w1,[x9]
	ldr         x0,[x8]
	bl          ChColorDrawVerticalGradient

; 45   : 
; 46   : 	ChFontSetSize(win->app->baseFont, 13);

	ldr         x8,[sp,#0x18]
	add         x8,x8,#0x30
	ldr         x8,[x8]
	add         x8,x8,#0x30
	mov         w1,#0xD
	ldr         x0,[x8]
	bl          ChFontSetSize

; 47   : 	char num[100];
; 48   : 	sprintf(num, "%f", pb->progressPercent);

	ldr         x8,[sp,#0x10]
	add         x8,x8,#0x68
	ldr         x2,[x8]
	adrp        x8,|$SG5080|
	add         x1,x8,PageOffset(|$SG5080|)
	add         x0,sp,#0x48
	bl          sprintf

; 49   : 	int symbolIndex = strlen(num);

	add         x8,sp,#0x48
	str         x8,[sp,#0x30]
	ldr         x8,[sp,#0x30]
	str         x8,[sp,#0x20]
|$LN4@ChDefaultP|
	ldr         x8,[sp,#0x20]
	ldrsb       w8,[x8]
	cmp         w8,#0
	beq         |$LN3@ChDefaultP|
	ldr         x8,[sp,#0x20]
	add         x8,x8,#1
	str         x8,[sp,#0x20]
	b           |$LN4@ChDefaultP|
|$LN3@ChDefaultP|
	ldr         x9,[sp,#0x20]
	ldr         x8,[sp,#0x30]
	sub         x8,x9,x8
	str         x8,[sp,#0x40]
	ldr         x8,[sp,#0x40]
	mov         w8,w8
	str         w8,[sp,#0x28]

; 50   : 	num[symbolIndex - 1] = '%';

	ldr         w8,[sp,#0x28]
	sub         w8,w8,#1
	sxtw        x9,w8
	mov         x8,#1
	mul         x9,x9,x8
	add         x8,sp,#0x48
	add         x9,x8,x9
	mov         w8,#0x25
	strb        w8,[x9]

; 51   : 	int text_len = ChFontGetWidth(win->app->baseFont, num);

	ldr         x8,[sp,#0x18]
	add         x8,x8,#0x30
	ldr         x8,[x8]
	add         x8,x8,#0x30
	add         x1,sp,#0x48
	ldr         x0,[x8]
	bl          ChFontGetWidth
	mov         w8,w0
	str         w8,[sp,#0x2C]

; 52   : 	ChFontDrawText(win->canv, win->app->baseFont, num, pb->base.x + pb->base.w / 2 - text_len / 2, pb->base.y + pb->base.h / 2, 13, BLACK);

	ldr         x8,[sp,#0x10]
	add         x10,x8,#4
	ldr         x8,[sp,#0x10]
	add         x8,x8,#0xC
	ldr         w9,[x8]
	mov         w8,#2
	sdiv        w9,w9,w8
	ldr         w8,[x10]
	add         w4,w8,w9
	ldr         x10,[sp,#0x10]
	ldr         x8,[sp,#0x10]
	add         x8,x8,#8
	ldr         w9,[x8]
	mov         w8,#2
	sdiv        w9,w9,w8
	ldr         w8,[x10]
	add         w10,w8,w9
	ldr         w9,[sp,#0x2C]
	mov         w8,#2
	sdiv        w8,w9,w8
	sub         w3,w10,w8
	ldr         x8,[sp,#0x18]
	add         x8,x8,#0x30
	ldr         x8,[x8]
	add         x9,x8,#0x30
	ldr         x8,[sp,#0x18]
	add         x8,x8,#0x18
	mov         w6,#0xFF000000
	mov         w5,#0xD
	mov         w4,w4
	mov         w3,w3
	add         x2,sp,#0x48
	ldr         x1,[x9]
	ldr         x0,[x8]
	bl          ChFontDrawText

; 53   : 
; 54   : 	ChDrawRectUnfilled(win->canv, pb->base.x, pb->base.y, pb->base.w, pb->base.h, 0xFF827474);

	ldr         x8,[sp,#0x10]
	add         x12,x8,#0xC
	ldr         x8,[sp,#0x10]
	add         x11,x8,#8
	ldr         x8,[sp,#0x10]
	add         x10,x8,#4
	ldr         x9,[sp,#0x10]
	ldr         x8,[sp,#0x18]
	add         x8,x8,#0x18
	ldr         w5,|$LN8@ChDefaultP|
	ldr         w4,[x12]
	ldr         w3,[x11]
	ldr         w2,[x10]
	ldr         w1,[x9]
	ldr         x0,[x8]
	bl          ChDrawRectUnfilled
	ldp         fp,lr,[sp],#0xB0
	ret
	nop
|$LN5@ChDefaultP|
	DCD         0xffb9b9b9
|$LN6@ChDefaultP|
	DCD         0xff217a10
|$LN7@ChDefaultP|
	DCD         0xff2dbd11
|$LN8@ChDefaultP|
	DCD         0xff827474

	ENDP  ; |?ChDefaultProgressBarPainter@@YAXPEAU_ChWidget_@@PEAU_chwin_@@@Z|, ChDefaultProgressBarPainter

	END
