; Listing generated by Microsoft (R) Optimizing Compiler Version 19.29.30159.0 

	TTL	E:\Xeneva Project\Aurora\Libs\Chitralekha\ARM64\Debug\draw.obj
	ARM64

	AREA	|.drectve|, DRECTVE

	EXPORT	|ChDrawRect|
	EXPORT	|ChDrawRectClipped|
	EXPORT	|ChDrawVerticalLine|
	EXPORT	|ChDrawHorizontalLine|
	EXPORT	|ChDrawRectUnfilled|
	EXPORT	|ChDrawRectUnfilledClipped|
	EXPORT	|ChDrawFilledCircle|
	EXPORT	|ChDrawFilledCircleAA|
	EXPORT	|ChDrawLine|
	EXPORT	|ChDrawCircleUnfilled|
	EXPORT	|ChDrawCapsule|
	EXPORT	|?ChDrawBoxBlur@@YAXPEAU_ChCanvas_@@PEAI1HHHH@Z| ; ChDrawBoxBlur
	IMPORT	|ChDrawPixel|
	IMPORT	|ChDrawPixelAA|
	IMPORT	|make_col_a|
	IMPORT	|_fltused|

	AREA	|.pdata|, PDATA
|$pdata$ChDrawRect| DCD imagerel |$LN9|
	DCD	0x26000ad
	;Flags[SingleProEpi] functionLength[172] RegF[0] RegI[0] H[0] frameChainReturn[Chained] frameSize[64]
|$pdata$ChDrawRectClipped| DCD imagerel |$LN9|
	DCD	0x2e001d5
	;Flags[SingleProEpi] functionLength[468] RegF[0] RegI[0] H[0] frameChainReturn[Chained] frameSize[80]
|$pdata$ChDrawVerticalLine| DCD imagerel |$LN3|
	DCD	0x1e00041
	;Flags[SingleProEpi] functionLength[64] RegF[0] RegI[0] H[0] frameChainReturn[Chained] frameSize[48]
|$pdata$ChDrawHorizontalLine| DCD imagerel |$LN3|
	DCD	0x1e00041
	;Flags[SingleProEpi] functionLength[64] RegF[0] RegI[0] H[0] frameChainReturn[Chained] frameSize[48]
|$pdata$ChDrawRectUnfilled| DCD imagerel |$LN3|
	DCD	0x1e000c9
	;Flags[SingleProEpi] functionLength[200] RegF[0] RegI[0] H[0] frameChainReturn[Chained] frameSize[48]
|$pdata$ChDrawRectUnfilledClipped| DCD imagerel |$LN9|
	DCD	0x2e001ad
	;Flags[SingleProEpi] functionLength[428] RegF[0] RegI[0] H[0] frameChainReturn[Chained] frameSize[80]
|$pdata$ChDrawFilledCircle| DCD imagerel |$LN6|
	DCD	0x2600201
	;Flags[SingleProEpi] functionLength[512] RegF[0] RegI[0] H[0] frameChainReturn[Chained] frameSize[64]
|$pdata$ChDrawFilledCircleAA| DCD imagerel |$LN12|
	DCD	0x2e00131
	;Flags[SingleProEpi] functionLength[304] RegF[0] RegI[0] H[0] frameChainReturn[Chained] frameSize[80]
|$pdata$ChDrawLine| DCD imagerel |$LN21|
	DCD	0x4600281
	;Flags[SingleProEpi] functionLength[640] RegF[0] RegI[0] H[0] frameChainReturn[Chained] frameSize[128]
|$pdata$ChDrawCircleUnfilled| DCD imagerel |$LN6|
	DCD	0x26002ad
	;Flags[SingleProEpi] functionLength[684] RegF[0] RegI[0] H[0] frameChainReturn[Chained] frameSize[64]
|$pdata$ChDrawCapsule| DCD imagerel |$LN9|
	DCD	0x2600141
	;Flags[SingleProEpi] functionLength[320] RegF[0] RegI[0] H[0] frameChainReturn[Chained] frameSize[64]
|$pdata$?ChDrawBoxBlur@@YAXPEAU_ChCanvas_@@PEAI1HHHH@Z| DCD imagerel |$LN16|
	DCD	0x3e002e1
	;Flags[SingleProEpi] functionLength[736] RegF[0] RegI[0] H[0] frameChainReturn[Chained] frameSize[112]
; Function compile flags: /Odtp
; File E:\Xeneva Project\Aurora\Libs\Chitralekha\draw.cpp

	AREA	|.text$mn|, CODE, ARM64

|?ChDrawBoxBlur@@YAXPEAU_ChCanvas_@@PEAI1HHHH@Z| PROC	; ChDrawBoxBlur

; 341  : void ChDrawBoxBlur(ChCanvas * canv, uint32_t* inputBuf, uint32_t* outputBuf, int cx, int cy, int w, int h) {

|$LN16|
	stp         fp,lr,[sp,#-0x70]!
	mov         fp,sp
	str         x0,[sp,#0x50]
	str         x1,[sp,#0x60]
	str         x2,[sp,#0x68]
	str         w3,[sp,#0x48]
	str         w4,[sp,#0x44]
	str         w5,[sp,#0x5C]
	str         w6,[sp,#0x58]

; 342  : 
; 343  : 	for (int j = 0; j < h; j++){

	mov         w8,#0
	str         w8,[sp,#0x18]
	b           |$LN4@ChDrawBoxB|
|$LN2@ChDrawBoxB|
	ldr         w8,[sp,#0x18]
	add         w8,w8,#1
	str         w8,[sp,#0x18]
|$LN4@ChDrawBoxB|
	ldr         w9,[sp,#0x58]
	ldr         w8,[sp,#0x18]
	cmp         w8,w9
	bge         |$LN3@ChDrawBoxB|

; 344  : 		for (int i = 0; i < w; i++) {

	mov         w8,#0
	str         w8,[sp,#0x1C]
	b           |$LN7@ChDrawBoxB|
|$LN5@ChDrawBoxB|
	ldr         w8,[sp,#0x1C]
	add         w8,w8,#1
	str         w8,[sp,#0x1C]
|$LN7@ChDrawBoxB|
	ldr         w9,[sp,#0x5C]
	ldr         w8,[sp,#0x1C]
	cmp         w8,w9
	bge         |$LN6@ChDrawBoxB|

; 345  : 
; 346  : 			int redTotal = 0;

	mov         w8,#0
	str         w8,[sp,#0x34]

; 347  : 			int greenTotal = 0;

	mov         w8,#0
	str         w8,[sp,#0x38]

; 348  : 			int blueTotal = 0;

	mov         w8,#0
	str         w8,[sp,#0x3C]

; 349  : 			int alphaTotal = 0;

	mov         w8,#0
	str         w8,[sp,#0x40]

; 350  : 
; 351  : 			for (int row = -1; row <= 1; row++) {

	mov         w8,#-1
	str         w8,[sp,#0x24]
	b           |$LN10@ChDrawBoxB|
|$LN8@ChDrawBoxB|
	ldr         w8,[sp,#0x24]
	add         w8,w8,#1
	str         w8,[sp,#0x24]
|$LN10@ChDrawBoxB|
	ldr         w8,[sp,#0x24]
	cmp         w8,#1
	bgt         |$LN9@ChDrawBoxB|

; 352  : 				for (int col = -1; col <= 1; col++) {

	mov         w8,#-1
	str         w8,[sp,#0x20]
	b           |$LN13@ChDrawBoxB|
|$LN11@ChDrawBoxB|
	ldr         w8,[sp,#0x20]
	add         w8,w8,#1
	str         w8,[sp,#0x20]
|$LN13@ChDrawBoxB|
	ldr         w8,[sp,#0x20]
	cmp         w8,#1
	bgt         |$LN12@ChDrawBoxB|

; 353  : 					int currentX = cx + i + col;

	ldr         w9,[sp,#0x48]
	ldr         w8,[sp,#0x1C]
	add         w9,w9,w8
	ldr         w8,[sp,#0x20]
	add         w8,w9,w8
	str         w8,[sp,#0x30]

; 354  : 					int currentY = cy + j + row;

	ldr         w9,[sp,#0x44]
	ldr         w8,[sp,#0x18]
	add         w9,w9,w8
	ldr         w8,[sp,#0x24]
	add         w8,w9,w8
	str         w8,[sp,#0x2C]

; 355  : 
; 356  : 					if (currentX >= 0 && currentX < canv->canvasWidth &&
; 357  : 						currentY >= 0 && currentY < canv->canvasHeight) {

	ldr         w8,[sp,#0x30]
	cmp         w8,#0
	blt         |$LN14@ChDrawBoxB|
	ldr         x8,[sp,#0x50]
	add         x8,x8,#0x18
	ldr         w9,[x8]
	ldr         w8,[sp,#0x30]
	cmp         w8,w9
	bhs         |$LN14@ChDrawBoxB|
	ldr         w8,[sp,#0x2C]
	cmp         w8,#0
	blt         |$LN14@ChDrawBoxB|
	ldr         x8,[sp,#0x50]
	add         x8,x8,#0x1C
	ldr         w9,[x8]
	ldr         w8,[sp,#0x2C]
	cmp         w8,w9
	bhs         |$LN14@ChDrawBoxB|

; 358  : 						uint32_t color = inputBuf[(currentY * canv->canvasWidth + currentX)];

	ldr         x8,[sp,#0x50]
	add         x8,x8,#0x18
	ldr         w9,[sp,#0x2C]
	ldr         w8,[x8]
	mul         w9,w9,w8
	ldr         w8,[sp,#0x30]
	add         w8,w9,w8
	uxtw        x9,w8
	mov         x8,#4
	mul         x9,x9,x8
	ldr         x8,[sp,#0x60]
	add         x8,x8,x9
	ldr         w8,[x8]
	str         w8,[sp,#0x28]

; 359  : 
; 360  : 						uint8_t red = GET_RED(color);

	ldr         w8,[sp,#0x28]
	ubfx        w8,w8,#0x10,#8
	uxtb        w8,w8
	strb        w8,[sp,#0x10]

; 361  : 						uint8_t green = GET_GREEN(color);

	ldr         w8,[sp,#0x28]
	ubfx        w8,w8,#8,#8
	uxtb        w8,w8
	strb        w8,[sp,#0x11]

; 362  : 						uint8_t blue = GET_BLUE(color);

	ldr         w8,[sp,#0x28]
	and         w8,w8,#0xFF
	uxtb        w8,w8
	strb        w8,[sp,#0x12]

; 363  : 						uint8_t alpha = GET_ALPHA(color);

	ldr         w8,[sp,#0x28]
	lsr         w8,w8,#0x18
	uxtb        w8,w8
	strb        w8,[sp,#0x13]

; 364  : 
; 365  : 						redTotal += red;

	ldrb        w9,[sp,#0x10]
	mov         w9,w9
	ldr         w8,[sp,#0x34]
	add         w8,w8,w9
	str         w8,[sp,#0x34]

; 366  : 						greenTotal += green;

	ldrb        w9,[sp,#0x11]
	mov         w9,w9
	ldr         w8,[sp,#0x38]
	add         w8,w8,w9
	str         w8,[sp,#0x38]

; 367  : 						blueTotal += blue;

	ldrb        w9,[sp,#0x12]
	mov         w9,w9
	ldr         w8,[sp,#0x3C]
	add         w8,w8,w9
	str         w8,[sp,#0x3C]

; 368  : 						alphaTotal += alpha;

	ldrb        w9,[sp,#0x13]
	mov         w9,w9
	ldr         w8,[sp,#0x40]
	add         w8,w8,w9
	str         w8,[sp,#0x40]
|$LN14@ChDrawBoxB|

; 369  : 					}
; 370  : 				}

	b           |$LN11@ChDrawBoxB|
|$LN12@ChDrawBoxB|

; 371  : 			}

	b           |$LN8@ChDrawBoxB|
|$LN9@ChDrawBoxB|

; 372  : 
; 373  : 			uint8_t red = redTotal / 9;

	ldr         w9,[sp,#0x34]
	mov         w8,#9
	sdiv        w8,w9,w8
	uxtb        w8,w8
	strb        w8,[sp,#0x17]

; 374  : 			uint8_t green = greenTotal / 9;

	ldr         w9,[sp,#0x38]
	mov         w8,#9
	sdiv        w8,w9,w8
	uxtb        w8,w8
	strb        w8,[sp,#0x16]

; 375  : 			uint8_t blue = blueTotal / 9;

	ldr         w9,[sp,#0x3C]
	mov         w8,#9
	sdiv        w8,w9,w8
	uxtb        w8,w8
	strb        w8,[sp,#0x15]

; 376  : 			uint8_t alpha = alphaTotal / 9;

	ldr         w9,[sp,#0x40]
	mov         w8,#9
	sdiv        w8,w9,w8
	uxtb        w8,w8
	strb        w8,[sp,#0x14]

; 377  : 
; 378  : 			outputBuf[(cy + j) * canv->canvasWidth + (cx + i)] = make_col_a(red, green, blue, alpha);

	ldrb        w3,[sp,#0x14]
	ldrb        w2,[sp,#0x15]
	ldrb        w1,[sp,#0x16]
	ldrb        w0,[sp,#0x17]
	bl          make_col_a
	mov         w0,w0
	ldr         w9,[sp,#0x44]
	ldr         w8,[sp,#0x18]
	add         w9,w9,w8
	ldr         x8,[sp,#0x50]
	add         x8,x8,#0x18
	ldr         w8,[x8]
	mul         w10,w9,w8
	ldr         w9,[sp,#0x48]
	ldr         w8,[sp,#0x1C]
	add         w8,w9,w8
	add         w8,w10,w8
	uxtw        x9,w8
	mov         x8,#4
	mul         x9,x9,x8
	ldr         x8,[sp,#0x68]
	add         x8,x8,x9
	str         w0,[x8]

; 379  : 			
; 380  : 		}

	b           |$LN5@ChDrawBoxB|
|$LN6@ChDrawBoxB|

; 381  : 	}

	b           |$LN2@ChDrawBoxB|
|$LN3@ChDrawBoxB|
	ldp         fp,lr,[sp],#0x70
	ret

	ENDP  ; |?ChDrawBoxBlur@@YAXPEAU_ChCanvas_@@PEAI1HHHH@Z|, ChDrawBoxBlur

; Function compile flags: /Odtp
; File E:\Xeneva Project\Aurora\Libs\Chitralekha\draw.cpp

	AREA	|.text$mn|, CODE, ARM64

|ChDrawCapsule| PROC

; 318  : void ChDrawCapsule(ChCanvas* canv, int x, int y, int width, int height, uint32_t color) {

|$LN9|
	stp         fp,lr,[sp,#-0x40]!
	mov         fp,sp
	str         x0,[sp,#0x30]
	str         w1,[sp,#0x20]
	str         w2,[sp,#0x1C]
	str         w3,[sp,#0x2C]
	str         w4,[sp,#0x28]
	str         w5,[sp,#0x24]

; 319  : 	int radius = height / 2;

	ldr         w9,[sp,#0x28]
	mov         w8,#2
	sdiv        w8,w9,w8
	str         w8,[sp,#0x10]

; 320  : 	for (int i = 0; i < width - (2 * radius); i++) {

	mov         w8,#0
	str         w8,[sp,#0x18]
	b           |$LN4@ChDrawCaps|
|$LN2@ChDrawCaps|
	ldr         w8,[sp,#0x18]
	add         w8,w8,#1
	str         w8,[sp,#0x18]
|$LN4@ChDrawCaps|
	ldr         w9,[sp,#0x10]
	mov         w8,#2
	mul         w9,w9,w8
	ldr         w8,[sp,#0x2C]
	sub         w9,w8,w9
	ldr         w8,[sp,#0x18]
	cmp         w8,w9
	bge         |$LN3@ChDrawCaps|

; 321  : 		for (int j = 0; j < height; j++) {

	mov         w8,#0
	str         w8,[sp,#0x14]
	b           |$LN7@ChDrawCaps|
|$LN5@ChDrawCaps|
	ldr         w8,[sp,#0x14]
	add         w8,w8,#1
	str         w8,[sp,#0x14]
|$LN7@ChDrawCaps|
	ldr         w9,[sp,#0x28]
	ldr         w8,[sp,#0x14]
	cmp         w8,w9
	bge         |$LN6@ChDrawCaps|

; 322  : 			ChDrawPixel(canv,x + radius + i, y + j, color);

	ldr         w9,[sp,#0x1C]
	ldr         w8,[sp,#0x14]
	add         w2,w9,w8
	ldr         w9,[sp,#0x20]
	ldr         w8,[sp,#0x10]
	add         w9,w9,w8
	ldr         w8,[sp,#0x18]
	add         w1,w9,w8
	ldr         w3,[sp,#0x24]
	mov         w2,w2
	mov         w1,w1
	ldr         x0,[sp,#0x30]
	bl          ChDrawPixel

; 323  : 		}

	b           |$LN5@ChDrawCaps|
|$LN6@ChDrawCaps|

; 324  : 	}

	b           |$LN2@ChDrawCaps|
|$LN3@ChDrawCaps|

; 325  : 
; 326  : 	ChDrawFilledCircle(canv, x + radius, y + radius, radius, color);

	ldr         w9,[sp,#0x1C]
	ldr         w8,[sp,#0x10]
	add         w2,w9,w8
	ldr         w9,[sp,#0x20]
	ldr         w8,[sp,#0x10]
	add         w1,w9,w8
	ldr         w4,[sp,#0x24]
	ldr         w3,[sp,#0x10]
	mov         w2,w2
	mov         w1,w1
	ldr         x0,[sp,#0x30]
	bl          ChDrawFilledCircle

; 327  : 	ChDrawFilledCircle(canv, x + width - radius - 1, y + radius, radius, color);

	ldr         w9,[sp,#0x1C]
	ldr         w8,[sp,#0x10]
	add         w2,w9,w8
	ldr         w9,[sp,#0x20]
	ldr         w8,[sp,#0x2C]
	add         w9,w9,w8
	ldr         w8,[sp,#0x10]
	sub         w8,w9,w8
	sub         w1,w8,#1
	ldr         w4,[sp,#0x24]
	ldr         w3,[sp,#0x10]
	mov         w2,w2
	mov         w1,w1
	ldr         x0,[sp,#0x30]
	bl          ChDrawFilledCircle
	ldp         fp,lr,[sp],#0x40
	ret

	ENDP  ; |ChDrawCapsule|

; Function compile flags: /Odtp
; File E:\Xeneva Project\Aurora\Libs\Chitralekha\draw.cpp

	AREA	|.text$mn|, CODE, ARM64

|ChDrawCircleUnfilled| PROC

; 257  : void ChDrawCircleUnfilled(ChCanvas * canvas, int x, int y, int radius, uint32_t color) {

|$LN6|
	stp         fp,lr,[sp,#-0x40]!
	mov         fp,sp
	str         x0,[sp,#0x28]
	str         w1,[sp,#0x14]
	str         w2,[sp,#0x10]
	str         w3,[sp,#0x24]
	str         w4,[sp,#0x18]

; 258  : 	int f = 1 - radius;

	mov         w9,#1
	ldr         w8,[sp,#0x24]
	sub         w8,w9,w8
	str         w8,[sp,#0x30]

; 259  : 	int ddF_x = 1;

	mov         w8,#1
	str         w8,[sp,#0x38]

; 260  : 	int ddF_y = -2 * radius;

	ldr         w9,[sp,#0x24]
	mov         w8,#-2
	mul         w8,w9,w8
	str         w8,[sp,#0x34]

; 261  : 	int i = 0;

	mov         w8,#0
	str         w8,[sp,#0x1C]

; 262  : 	int j = radius;

	ldr         w8,[sp,#0x24]
	str         w8,[sp,#0x20]

; 263  : 
; 264  : 	ChDrawPixel(canvas, x, y + radius, color);

	ldr         w9,[sp,#0x10]
	ldr         w8,[sp,#0x24]
	add         w2,w9,w8
	ldr         w3,[sp,#0x18]
	mov         w2,w2
	ldr         w1,[sp,#0x14]
	ldr         x0,[sp,#0x28]
	bl          ChDrawPixel

; 265  : 	ChDrawPixel(canvas, x, y - radius, color);

	ldr         w9,[sp,#0x10]
	ldr         w8,[sp,#0x24]
	sub         w2,w9,w8
	ldr         w3,[sp,#0x18]
	mov         w2,w2
	ldr         w1,[sp,#0x14]
	ldr         x0,[sp,#0x28]
	bl          ChDrawPixel

; 266  : 	ChDrawPixel(canvas, x + radius, y, color);

	ldr         w9,[sp,#0x14]
	ldr         w8,[sp,#0x24]
	add         w1,w9,w8
	ldr         w3,[sp,#0x18]
	ldr         w2,[sp,#0x10]
	mov         w1,w1
	ldr         x0,[sp,#0x28]
	bl          ChDrawPixel

; 267  : 	ChDrawPixel(canvas, x - radius, y, color);

	ldr         w9,[sp,#0x14]
	ldr         w8,[sp,#0x24]
	sub         w1,w9,w8
	ldr         w3,[sp,#0x18]
	ldr         w2,[sp,#0x10]
	mov         w1,w1
	ldr         x0,[sp,#0x28]
	bl          ChDrawPixel
|$LN2@ChDrawCirc|

; 268  : 
; 269  : 	while (i < j) {

	ldr         w9,[sp,#0x20]
	ldr         w8,[sp,#0x1C]
	cmp         w8,w9
	bge         |$LN3@ChDrawCirc|

; 270  : 		if (f >= 0) {

	ldr         w8,[sp,#0x30]
	cmp         w8,#0
	blt         |$LN4@ChDrawCirc|

; 271  : 			j--;

	ldr         w8,[sp,#0x20]
	sub         w8,w8,#1
	str         w8,[sp,#0x20]

; 272  : 			ddF_y += 2;

	ldr         w8,[sp,#0x34]
	add         w8,w8,#2
	str         w8,[sp,#0x34]

; 273  : 			f += ddF_y;

	ldr         w9,[sp,#0x30]
	ldr         w8,[sp,#0x34]
	add         w8,w9,w8
	str         w8,[sp,#0x30]
|$LN4@ChDrawCirc|

; 274  : 		}
; 275  : 		i++;

	ldr         w8,[sp,#0x1C]
	add         w8,w8,#1
	str         w8,[sp,#0x1C]

; 276  : 		ddF_x += 2;

	ldr         w8,[sp,#0x38]
	add         w8,w8,#2
	str         w8,[sp,#0x38]

; 277  : 		f += ddF_x;

	ldr         w9,[sp,#0x30]
	ldr         w8,[sp,#0x38]
	add         w8,w9,w8
	str         w8,[sp,#0x30]

; 278  : 		ChDrawPixel(canvas, x + i, y + j, color);

	ldr         w9,[sp,#0x10]
	ldr         w8,[sp,#0x20]
	add         w2,w9,w8
	ldr         w9,[sp,#0x14]
	ldr         w8,[sp,#0x1C]
	add         w1,w9,w8
	ldr         w3,[sp,#0x18]
	mov         w2,w2
	mov         w1,w1
	ldr         x0,[sp,#0x28]
	bl          ChDrawPixel

; 279  : 		ChDrawPixel(canvas, x - i, y + j, color);

	ldr         w9,[sp,#0x10]
	ldr         w8,[sp,#0x20]
	add         w2,w9,w8
	ldr         w9,[sp,#0x14]
	ldr         w8,[sp,#0x1C]
	sub         w1,w9,w8
	ldr         w3,[sp,#0x18]
	mov         w2,w2
	mov         w1,w1
	ldr         x0,[sp,#0x28]
	bl          ChDrawPixel

; 280  : 		ChDrawPixel(canvas, x + i, y - j, color);

	ldr         w9,[sp,#0x10]
	ldr         w8,[sp,#0x20]
	sub         w2,w9,w8
	ldr         w9,[sp,#0x14]
	ldr         w8,[sp,#0x1C]
	add         w1,w9,w8
	ldr         w3,[sp,#0x18]
	mov         w2,w2
	mov         w1,w1
	ldr         x0,[sp,#0x28]
	bl          ChDrawPixel

; 281  : 		ChDrawPixel(canvas, x - i, y - j, color);

	ldr         w9,[sp,#0x10]
	ldr         w8,[sp,#0x20]
	sub         w2,w9,w8
	ldr         w9,[sp,#0x14]
	ldr         w8,[sp,#0x1C]
	sub         w1,w9,w8
	ldr         w3,[sp,#0x18]
	mov         w2,w2
	mov         w1,w1
	ldr         x0,[sp,#0x28]
	bl          ChDrawPixel

; 282  : 		ChDrawPixel(canvas, x + j, y + i, color);

	ldr         w9,[sp,#0x10]
	ldr         w8,[sp,#0x1C]
	add         w2,w9,w8
	ldr         w9,[sp,#0x14]
	ldr         w8,[sp,#0x20]
	add         w1,w9,w8
	ldr         w3,[sp,#0x18]
	mov         w2,w2
	mov         w1,w1
	ldr         x0,[sp,#0x28]
	bl          ChDrawPixel

; 283  : 		ChDrawPixel(canvas, x - j, y + i, color);

	ldr         w9,[sp,#0x10]
	ldr         w8,[sp,#0x1C]
	add         w2,w9,w8
	ldr         w9,[sp,#0x14]
	ldr         w8,[sp,#0x20]
	sub         w1,w9,w8
	ldr         w3,[sp,#0x18]
	mov         w2,w2
	mov         w1,w1
	ldr         x0,[sp,#0x28]
	bl          ChDrawPixel

; 284  : 		ChDrawPixel(canvas, x + j, y - i, color);

	ldr         w9,[sp,#0x10]
	ldr         w8,[sp,#0x1C]
	sub         w2,w9,w8
	ldr         w9,[sp,#0x14]
	ldr         w8,[sp,#0x20]
	add         w1,w9,w8
	ldr         w3,[sp,#0x18]
	mov         w2,w2
	mov         w1,w1
	ldr         x0,[sp,#0x28]
	bl          ChDrawPixel

; 285  : 		ChDrawPixel(canvas, x - j, y - i, color);

	ldr         w9,[sp,#0x10]
	ldr         w8,[sp,#0x1C]
	sub         w2,w9,w8
	ldr         w9,[sp,#0x14]
	ldr         w8,[sp,#0x20]
	sub         w1,w9,w8
	ldr         w3,[sp,#0x18]
	mov         w2,w2
	mov         w1,w1
	ldr         x0,[sp,#0x28]
	bl          ChDrawPixel

; 286  : 	}

	b           |$LN2@ChDrawCirc|
|$LN3@ChDrawCirc|
	ldp         fp,lr,[sp],#0x40
	ret

	ENDP  ; |ChDrawCircleUnfilled|

; Function compile flags: /Odtp
; File E:\Xeneva Project\Aurora\Libs\Chitralekha\draw.cpp

	AREA	|.text$mn|, CODE, ARM64

|ChDrawLine| PROC

; 212  : void ChDrawLine(ChCanvas* canv, int x1, int y1, int x2, int y2, uint32_t color) {

|$LN21|
	stp         fp,lr,[sp,#-0x80]!
	mov         fp,sp
	str         x0,[sp,#0x70]
	str         w1,[sp,#0x54]
	str         w2,[sp,#0x58]
	str         w3,[sp,#0x64]
	str         w4,[sp,#0x68]
	str         w5,[sp,#0x38]

; 213  : 	int dx = x2 - x1;

	ldr         w9,[sp,#0x64]
	ldr         w8,[sp,#0x54]
	sub         w8,w9,w8
	str         w8,[sp,#0x28]

; 214  : 	int dy = y2 - y1;

	ldr         w9,[sp,#0x68]
	ldr         w8,[sp,#0x58]
	sub         w8,w9,w8
	str         w8,[sp,#0x2C]

; 215  : 	int dxabs = abs(dx);

	ldr         w8,[sp,#0x28]
	str         w8,[sp,#0x3C]
	ldr         w8,[sp,#0x3C]
	asr         w9,w8,#0x1F
	ldr         w8,[sp,#0x3C]
	eor         w8,w8,w9
	sub         w8,w8,w9
	str         w8,[sp,#0x1C]

; 216  : 	int dyabs = abs(dy);

	ldr         w8,[sp,#0x2C]
	str         w8,[sp,#0x40]
	ldr         w8,[sp,#0x40]
	asr         w9,w8,#0x1F
	ldr         w8,[sp,#0x40]
	eor         w8,w8,w9
	sub         w8,w8,w9
	str         w8,[sp,#0x20]

; 217  : 	int sdx = sign(dx);

	ldr         w8,[sp,#0x28]
	cmp         w8,#0
	bge         |$LN15@ChDrawLine|
	mov         w8,#-1
	str         w8,[sp,#0x48]
	b           |$LN16@ChDrawLine|
|$LN15@ChDrawLine|
	ldr         w8,[sp,#0x28]
	cmp         w8,#0
	ble         |$LN13@ChDrawLine|
	mov         w8,#1
	str         w8,[sp,#0x44]
	b           |$LN14@ChDrawLine|
|$LN13@ChDrawLine|
	mov         w8,#0
	str         w8,[sp,#0x44]
|$LN14@ChDrawLine|
	ldr         w8,[sp,#0x44]
	str         w8,[sp,#0x48]
|$LN16@ChDrawLine|
	ldr         w8,[sp,#0x48]
	str         w8,[sp,#0x5C]

; 218  : 	int sdy = sign(dy);

	ldr         w8,[sp,#0x2C]
	cmp         w8,#0
	bge         |$LN19@ChDrawLine|
	mov         w8,#-1
	str         w8,[sp,#0x50]
	b           |$LN20@ChDrawLine|
|$LN19@ChDrawLine|
	ldr         w8,[sp,#0x2C]
	cmp         w8,#0
	ble         |$LN17@ChDrawLine|
	mov         w8,#1
	str         w8,[sp,#0x4C]
	b           |$LN18@ChDrawLine|
|$LN17@ChDrawLine|
	mov         w8,#0
	str         w8,[sp,#0x4C]
|$LN18@ChDrawLine|
	ldr         w8,[sp,#0x4C]
	str         w8,[sp,#0x50]
|$LN20@ChDrawLine|
	ldr         w8,[sp,#0x50]
	str         w8,[sp,#0x60]

; 219  : 	int x = 0;

	mov         w8,#0
	str         w8,[sp,#0x24]

; 220  : 	int y = 0;

	mov         w8,#0
	str         w8,[sp,#0x18]

; 221  : 	int px = x1;

	ldr         w8,[sp,#0x54]
	str         w8,[sp,#0x14]

; 222  : 	int py = y1;

	ldr         w8,[sp,#0x58]
	str         w8,[sp,#0x10]

; 223  : 
; 224  : 	ChDrawPixel(canv, px, py, color);

	ldr         w3,[sp,#0x38]
	ldr         w2,[sp,#0x10]
	ldr         w1,[sp,#0x14]
	ldr         x0,[sp,#0x70]
	bl          ChDrawPixel

; 225  : 	if (dxabs >= dyabs) {

	ldr         w9,[sp,#0x20]
	ldr         w8,[sp,#0x1C]
	cmp         w8,w9
	blt         |$LN8@ChDrawLine|

; 226  : 		for (int i = 0; i < dxabs; i++) {

	mov         w8,#0
	str         w8,[sp,#0x30]
	b           |$LN4@ChDrawLine|
|$LN2@ChDrawLine|
	ldr         w8,[sp,#0x30]
	add         w8,w8,#1
	str         w8,[sp,#0x30]
|$LN4@ChDrawLine|
	ldr         w9,[sp,#0x1C]
	ldr         w8,[sp,#0x30]
	cmp         w8,w9
	bge         |$LN3@ChDrawLine|

; 227  : 			y += dyabs;

	ldr         w9,[sp,#0x18]
	ldr         w8,[sp,#0x20]
	add         w8,w9,w8
	str         w8,[sp,#0x18]

; 228  : 			if (y >= dxabs) {

	ldr         w9,[sp,#0x1C]
	ldr         w8,[sp,#0x18]
	cmp         w8,w9
	blt         |$LN10@ChDrawLine|

; 229  : 				y -= dxabs;

	ldr         w9,[sp,#0x18]
	ldr         w8,[sp,#0x1C]
	sub         w8,w9,w8
	str         w8,[sp,#0x18]

; 230  : 				py += sdy;

	ldr         w9,[sp,#0x10]
	ldr         w8,[sp,#0x60]
	add         w8,w9,w8
	str         w8,[sp,#0x10]
|$LN10@ChDrawLine|

; 231  : 			}
; 232  : 			px += sdx;

	ldr         w9,[sp,#0x14]
	ldr         w8,[sp,#0x5C]
	add         w8,w9,w8
	str         w8,[sp,#0x14]

; 233  : 			ChDrawPixel(canv, px, py, color);

	ldr         w3,[sp,#0x38]
	ldr         w2,[sp,#0x10]
	ldr         w1,[sp,#0x14]
	ldr         x0,[sp,#0x70]
	bl          ChDrawPixel

; 234  : 		}

	b           |$LN2@ChDrawLine|
|$LN3@ChDrawLine|

; 235  : 	}

	b           |$LN9@ChDrawLine|
|$LN8@ChDrawLine|

; 236  : 	else {
; 237  : 		for (int i = 0; i < dyabs; i++) {

	mov         w8,#0
	str         w8,[sp,#0x34]
	b           |$LN7@ChDrawLine|
|$LN5@ChDrawLine|
	ldr         w8,[sp,#0x34]
	add         w8,w8,#1
	str         w8,[sp,#0x34]
|$LN7@ChDrawLine|
	ldr         w9,[sp,#0x20]
	ldr         w8,[sp,#0x34]
	cmp         w8,w9
	bge         |$LN6@ChDrawLine|

; 238  : 			x += dxabs;

	ldr         w9,[sp,#0x24]
	ldr         w8,[sp,#0x1C]
	add         w8,w9,w8
	str         w8,[sp,#0x24]

; 239  : 			if (x >= dyabs){

	ldr         w9,[sp,#0x20]
	ldr         w8,[sp,#0x24]
	cmp         w8,w9
	blt         |$LN11@ChDrawLine|

; 240  : 				x -= dyabs;

	ldr         w9,[sp,#0x24]
	ldr         w8,[sp,#0x20]
	sub         w8,w9,w8
	str         w8,[sp,#0x24]

; 241  : 				px += sdx;

	ldr         w9,[sp,#0x14]
	ldr         w8,[sp,#0x5C]
	add         w8,w9,w8
	str         w8,[sp,#0x14]
|$LN11@ChDrawLine|

; 242  : 			}
; 243  : 			py += sdy;

	ldr         w9,[sp,#0x10]
	ldr         w8,[sp,#0x60]
	add         w8,w9,w8
	str         w8,[sp,#0x10]

; 244  : 			ChDrawPixel(canv, px, py, color);

	ldr         w3,[sp,#0x38]
	ldr         w2,[sp,#0x10]
	ldr         w1,[sp,#0x14]
	ldr         x0,[sp,#0x70]
	bl          ChDrawPixel

; 245  : 		}

	b           |$LN5@ChDrawLine|
|$LN6@ChDrawLine|
|$LN9@ChDrawLine|
	ldp         fp,lr,[sp],#0x80
	ret

	ENDP  ; |ChDrawLine|

; Function compile flags: /Odtp
; File E:\Xeneva Project\Aurora\Libs\Chitralekha\draw.cpp

	AREA	|.text$mn|, CODE, ARM64

|ChDrawFilledCircleAA| PROC

; 297  : void ChDrawFilledCircleAA(ChCanvas *canv, int cx, int cy, int radius, uint32_t color) {

|$LN12|
	stp         fp,lr,[sp,#-0x50]!
	mov         fp,sp
	str         x0,[sp,#0x40]
	str         w1,[sp,#0x20]
	str         w2,[sp,#0x1C]
	str         w3,[sp,#0x10]
	str         w4,[sp,#0x24]

; 298  : 	for (int y = -radius; y <= radius; y++) {

	ldr         w8,[sp,#0x10]
	neg         w8,w8
	str         w8,[sp,#0x14]
	b           |$LN4@ChDrawFill|
|$LN2@ChDrawFill|
	ldr         w8,[sp,#0x14]
	add         w8,w8,#1
	str         w8,[sp,#0x14]
|$LN4@ChDrawFill|
	ldr         w9,[sp,#0x10]
	ldr         w8,[sp,#0x14]
	cmp         w8,w9
	bgt         |$LN3@ChDrawFill|

; 299  : 		for (int x = -radius; x <= radius; x++) {

	ldr         w8,[sp,#0x10]
	neg         w8,w8
	str         w8,[sp,#0x18]
	b           |$LN7@ChDrawFill|
|$LN5@ChDrawFill|
	ldr         w8,[sp,#0x18]
	add         w8,w8,#1
	str         w8,[sp,#0x18]
|$LN7@ChDrawFill|
	ldr         w9,[sp,#0x10]
	ldr         w8,[sp,#0x18]
	cmp         w8,w9
	bgt         |$LN6@ChDrawFill|

; 300  : 			double dist = sqrt(x * x + y * y);

	ldr         w9,[sp,#0x18]
	ldr         w8,[sp,#0x18]
	mul         w10,w9,w8
	ldr         w9,[sp,#0x14]
	ldr         w8,[sp,#0x14]
	mul         w8,w9,w8
	add         w8,w10,w8
	scvtf       d16,w8
	fsqrt       d16,d16
	str         d16,[sp,#0x28]

; 301  : 			double alpha = (radius - dist) / radius;

	ldr         w8,[sp,#0x10]
	scvtf       d17,w8
	ldr         d16,[sp,#0x28]
	fsub        d17,d17,d16
	ldr         w8,[sp,#0x10]
	scvtf       d16,w8
	fdiv        d16,d17,d16
	str         d16,[sp,#0x30]

; 302  : 			if (dist <= radius) {

	ldr         w8,[sp,#0x10]
	scvtf       d17,w8
	ldr         d16,[sp,#0x28]
	fcmpe       d16,d17
	bhi         |$LN8@ChDrawFill|

; 303  : 				ChDrawPixelAA(canv, cx + x, cy + y, color, alpha > 0 ? alpha : 0);

	ldr         d16,[sp,#0x30]
	fcmpe       d16,#0
	ble         |$LN10@ChDrawFill|
	ldr         d16,[sp,#0x30]
	str         d16,[sp,#0x38]
	b           |$LN11@ChDrawFill|
|$LN10@ChDrawFill|
	movi        d16,#0
	str         d16,[sp,#0x38]
|$LN11@ChDrawFill|
	ldr         w9,[sp,#0x1C]
	ldr         w8,[sp,#0x14]
	add         w2,w9,w8
	ldr         w9,[sp,#0x20]
	ldr         w8,[sp,#0x18]
	add         w1,w9,w8
	ldr         d0,[sp,#0x38]
	ldr         w3,[sp,#0x24]
	mov         w2,w2
	mov         w1,w1
	ldr         x0,[sp,#0x40]
	bl          ChDrawPixelAA
|$LN8@ChDrawFill|

; 304  : 			}
; 305  : 		}

	b           |$LN5@ChDrawFill|
|$LN6@ChDrawFill|

; 306  : 	}

	b           |$LN2@ChDrawFill|
|$LN3@ChDrawFill|
	ldp         fp,lr,[sp],#0x50
	ret

	ENDP  ; |ChDrawFilledCircleAA|

; Function compile flags: /Odtp
; File E:\Xeneva Project\Aurora\Libs\Chitralekha\draw.cpp

	AREA	|.text$mn|, CODE, ARM64

|ChDrawFilledCircle| PROC

; 178  : void ChDrawFilledCircle(ChCanvas* canv, int x, int y, int radius, uint32_t fill_col) {

|$LN6|
	stp         fp,lr,[sp,#-0x40]!
	mov         fp,sp
	str         x0,[sp,#0x38]
	str         w1,[sp,#0x24]
	str         w2,[sp,#0x20]
	str         w3,[sp,#0x18]
	str         w4,[sp,#0x28]

; 179  : 	ChDrawVerticalLine(canv, x, y - radius, 2 * radius + 1, fill_col);

	ldr         w9,[sp,#0x18]
	mov         w8,#2
	mul         w8,w9,w8
	add         w3,w8,#1
	ldr         w9,[sp,#0x20]
	ldr         w8,[sp,#0x18]
	sub         w2,w9,w8
	ldr         w4,[sp,#0x28]
	mov         w3,w3
	mov         w2,w2
	ldr         w1,[sp,#0x24]
	ldr         x0,[sp,#0x38]
	bl          ChDrawVerticalLine

; 180  : 	int f = 1 - radius;

	mov         w9,#1
	ldr         w8,[sp,#0x18]
	sub         w8,w9,w8
	str         w8,[sp,#0x1C]

; 181  : 	int ddF_x = 1;

	mov         w8,#1
	str         w8,[sp,#0x30]

; 182  : 	int ddF_y = -2 * radius;

	ldr         w9,[sp,#0x18]
	mov         w8,#-2
	mul         w8,w9,w8
	str         w8,[sp,#0x2C]

; 183  : 	int i = 0;

	mov         w8,#0
	str         w8,[sp,#0x10]

; 184  : 	int j = radius;

	ldr         w8,[sp,#0x18]
	str         w8,[sp,#0x14]
|$LN2@ChDrawFill|

; 185  : 
; 186  : 	while (i < j) {

	ldr         w9,[sp,#0x14]
	ldr         w8,[sp,#0x10]
	cmp         w8,w9
	bge         |$LN3@ChDrawFill|

; 187  : 		if (f >= 0) {

	ldr         w8,[sp,#0x1C]
	cmp         w8,#0
	blt         |$LN4@ChDrawFill|

; 188  : 			j--;

	ldr         w8,[sp,#0x14]
	sub         w8,w8,#1
	str         w8,[sp,#0x14]

; 189  : 			ddF_y += 2;

	ldr         w8,[sp,#0x2C]
	add         w8,w8,#2
	str         w8,[sp,#0x2C]

; 190  : 			f += ddF_y;

	ldr         w9,[sp,#0x1C]
	ldr         w8,[sp,#0x2C]
	add         w8,w9,w8
	str         w8,[sp,#0x1C]
|$LN4@ChDrawFill|

; 191  : 		}
; 192  : 		i++;

	ldr         w8,[sp,#0x10]
	add         w8,w8,#1
	str         w8,[sp,#0x10]

; 193  : 		ddF_x += 2;

	ldr         w8,[sp,#0x30]
	add         w8,w8,#2
	str         w8,[sp,#0x30]

; 194  : 		f += ddF_x;

	ldr         w9,[sp,#0x1C]
	ldr         w8,[sp,#0x30]
	add         w8,w9,w8
	str         w8,[sp,#0x1C]

; 195  : 
; 196  : 		ChDrawVerticalLine(canv, x + i, y - j, 2 * j + 1, fill_col);

	ldr         w9,[sp,#0x14]
	mov         w8,#2
	mul         w8,w9,w8
	add         w3,w8,#1
	ldr         w9,[sp,#0x20]
	ldr         w8,[sp,#0x14]
	sub         w2,w9,w8
	ldr         w9,[sp,#0x24]
	ldr         w8,[sp,#0x10]
	add         w1,w9,w8
	ldr         w4,[sp,#0x28]
	mov         w3,w3
	mov         w2,w2
	mov         w1,w1
	ldr         x0,[sp,#0x38]
	bl          ChDrawVerticalLine

; 197  : 		ChDrawVerticalLine(canv, x + j, y - i, 2 * i + 1, fill_col);

	ldr         w9,[sp,#0x10]
	mov         w8,#2
	mul         w8,w9,w8
	add         w3,w8,#1
	ldr         w9,[sp,#0x20]
	ldr         w8,[sp,#0x10]
	sub         w2,w9,w8
	ldr         w9,[sp,#0x24]
	ldr         w8,[sp,#0x14]
	add         w1,w9,w8
	ldr         w4,[sp,#0x28]
	mov         w3,w3
	mov         w2,w2
	mov         w1,w1
	ldr         x0,[sp,#0x38]
	bl          ChDrawVerticalLine

; 198  : 		ChDrawVerticalLine(canv, x - i, y - j, 2 * j + 1, fill_col);

	ldr         w9,[sp,#0x14]
	mov         w8,#2
	mul         w8,w9,w8
	add         w3,w8,#1
	ldr         w9,[sp,#0x20]
	ldr         w8,[sp,#0x14]
	sub         w2,w9,w8
	ldr         w9,[sp,#0x24]
	ldr         w8,[sp,#0x10]
	sub         w1,w9,w8
	ldr         w4,[sp,#0x28]
	mov         w3,w3
	mov         w2,w2
	mov         w1,w1
	ldr         x0,[sp,#0x38]
	bl          ChDrawVerticalLine

; 199  : 		ChDrawVerticalLine(canv, x - j, y - i, 2 * i + 1, fill_col);

	ldr         w9,[sp,#0x10]
	mov         w8,#2
	mul         w8,w9,w8
	add         w3,w8,#1
	ldr         w9,[sp,#0x20]
	ldr         w8,[sp,#0x10]
	sub         w2,w9,w8
	ldr         w9,[sp,#0x24]
	ldr         w8,[sp,#0x14]
	sub         w1,w9,w8
	ldr         w4,[sp,#0x28]
	mov         w3,w3
	mov         w2,w2
	mov         w1,w1
	ldr         x0,[sp,#0x38]
	bl          ChDrawVerticalLine

; 200  : 	}

	b           |$LN2@ChDrawFill|
|$LN3@ChDrawFill|
	ldp         fp,lr,[sp],#0x40
	ret

	ENDP  ; |ChDrawFilledCircle|

; Function compile flags: /Odtp
; File E:\Xeneva Project\Aurora\Libs\Chitralekha\draw.cpp

	AREA	|.text$mn|, CODE, ARM64

|ChDrawRectUnfilledClipped| PROC

; 143  : void ChDrawRectUnfilledClipped(ChCanvas* canv, unsigned x, unsigned y, unsigned w, unsigned h, ChRect* clip, uint32_t col) {

|$LN9|
	stp         fp,lr,[sp,#-0x50]!
	mov         fp,sp
	str         x0,[sp,#0x40]
	str         w1,[sp,#0x18]
	str         w2,[sp,#0x1C]
	str         w3,[sp,#0x20]
	str         w4,[sp,#0x24]
	str         x5,[sp,#0x10]
	str         w6,[sp,#0x38]

; 144  : 	int r_x = x;

	ldr         w8,[sp,#0x18]
	str         w8,[sp,#0x34]

; 145  : 	int r_y = y;

	ldr         w8,[sp,#0x1C]
	str         w8,[sp,#0x30]

; 146  : 	int r_w = w;

	ldr         w8,[sp,#0x20]
	str         w8,[sp,#0x2C]

; 147  : 	int r_h = h;

	ldr         w8,[sp,#0x24]
	str         w8,[sp,#0x28]

; 148  : 
; 149  : 	if (x >(clip->x + clip->w))

	ldr         x9,[sp,#0x10]
	ldr         x8,[sp,#0x10]
	add         x8,x8,#8
	ldr         w9,[x9]
	ldr         w8,[x8]
	add         w9,w9,w8
	ldr         w8,[sp,#0x18]
	cmp         w8,w9
	bls         |$LN2@ChDrawRect|

; 150  : 		return;

	b           |$LN1@ChDrawRect|
|$LN2@ChDrawRect|

; 151  : 
; 152  : 	if (y > (clip->y + clip->h))

	ldr         x8,[sp,#0x10]
	add         x9,x8,#4
	ldr         x8,[sp,#0x10]
	add         x8,x8,#0xC
	ldr         w9,[x9]
	ldr         w8,[x8]
	add         w9,w9,w8
	ldr         w8,[sp,#0x1C]
	cmp         w8,w9
	bls         |$LN3@ChDrawRect|

; 153  : 		return;

	b           |$LN1@ChDrawRect|
|$LN3@ChDrawRect|

; 154  : 
; 155  : 	if (y <= clip->y)

	ldr         x8,[sp,#0x10]
	add         x8,x8,#4
	ldr         w9,[x8]
	ldr         w8,[sp,#0x1C]
	cmp         w8,w9
	bhi         |$LN4@ChDrawRect|

; 156  : 		r_y = clip->y;

	ldr         x8,[sp,#0x10]
	add         x8,x8,#4
	ldr         w8,[x8]
	str         w8,[sp,#0x30]
|$LN4@ChDrawRect|

; 157  : 
; 158  : 	if (x <= clip->x)

	ldr         x8,[sp,#0x10]
	ldr         w9,[x8]
	ldr         w8,[sp,#0x18]
	cmp         w8,w9
	bhi         |$LN5@ChDrawRect|

; 159  : 		r_x = clip->x;

	ldr         x8,[sp,#0x10]
	ldr         w8,[x8]
	str         w8,[sp,#0x34]
|$LN5@ChDrawRect|

; 160  : 
; 161  : 	if ((x + w) > (clip->x + clip->w))

	ldr         w9,[sp,#0x18]
	ldr         w8,[sp,#0x20]
	add         w10,w9,w8
	ldr         x9,[sp,#0x10]
	ldr         x8,[sp,#0x10]
	add         x8,x8,#8
	ldr         w9,[x9]
	ldr         w8,[x8]
	add         w8,w9,w8
	cmp         w10,w8
	bls         |$LN6@ChDrawRect|

; 162  : 		r_w = (clip->w + clip->x) - x;

	ldr         x8,[sp,#0x10]
	add         x9,x8,#8
	ldr         x8,[sp,#0x10]
	ldr         w9,[x9]
	ldr         w8,[x8]
	add         w9,w9,w8
	ldr         w8,[sp,#0x18]
	sub         w8,w9,w8
	str         w8,[sp,#0x2C]
|$LN6@ChDrawRect|

; 163  : 
; 164  : 	if ((y + h) > (clip->y + clip->h))

	ldr         w9,[sp,#0x1C]
	ldr         w8,[sp,#0x24]
	add         w10,w9,w8
	ldr         x8,[sp,#0x10]
	add         x9,x8,#4
	ldr         x8,[sp,#0x10]
	add         x8,x8,#0xC
	ldr         w9,[x9]
	ldr         w8,[x8]
	add         w8,w9,w8
	cmp         w10,w8
	bls         |$LN7@ChDrawRect|

; 165  : 		r_h = (clip->h + clip->y) - y;

	ldr         x8,[sp,#0x10]
	add         x9,x8,#0xC
	ldr         x8,[sp,#0x10]
	add         x8,x8,#4
	ldr         w9,[x9]
	ldr         w8,[x8]
	add         w9,w9,w8
	ldr         w8,[sp,#0x1C]
	sub         w8,w9,w8
	str         w8,[sp,#0x28]
|$LN7@ChDrawRect|

; 166  : 
; 167  : 	ChDrawRectUnfilled(canv, r_x, r_y, r_w, r_h, col);

	ldr         w5,[sp,#0x38]
	ldr         w4,[sp,#0x28]
	ldr         w3,[sp,#0x2C]
	ldr         w2,[sp,#0x30]
	ldr         w1,[sp,#0x34]
	ldr         x0,[sp,#0x40]
	bl          ChDrawRectUnfilled
|$LN1@ChDrawRect|
	ldp         fp,lr,[sp],#0x50
	ret

	ENDP  ; |ChDrawRectUnfilledClipped|

; Function compile flags: /Odtp
; File E:\Xeneva Project\Aurora\Libs\Chitralekha\draw.cpp

	AREA	|.text$mn|, CODE, ARM64

|ChDrawRectUnfilled| PROC

; 126  : void ChDrawRectUnfilled(ChCanvas* canv, unsigned x, unsigned y, unsigned w, unsigned h, uint32_t color) {

|$LN3|
	stp         fp,lr,[sp,#-0x30]!
	mov         fp,sp
	str         x0,[sp,#0x28]
	str         w1,[sp,#0x14]
	str         w2,[sp,#0x10]
	str         w3,[sp,#0x20]
	str         w4,[sp,#0x1C]
	str         w5,[sp,#0x18]

; 127  : 	ChDrawHorizontalLine(canv, x, y, w, color);

	ldr         w4,[sp,#0x18]
	ldr         w3,[sp,#0x20]
	ldr         w2,[sp,#0x10]
	ldr         w1,[sp,#0x14]
	ldr         x0,[sp,#0x28]
	bl          ChDrawHorizontalLine

; 128  : 	ChDrawVerticalLine(canv, x, y + 1, h - 2, color);

	ldr         w8,[sp,#0x1C]
	sub         w3,w8,#2
	ldr         w8,[sp,#0x10]
	add         w2,w8,#1
	ldr         w4,[sp,#0x18]
	mov         w3,w3
	mov         w2,w2
	ldr         w1,[sp,#0x14]
	ldr         x0,[sp,#0x28]
	bl          ChDrawVerticalLine

; 129  : 	ChDrawHorizontalLine(canv, x, y + h - 1, w, color);

	ldr         w9,[sp,#0x10]
	ldr         w8,[sp,#0x1C]
	add         w8,w9,w8
	sub         w2,w8,#1
	ldr         w4,[sp,#0x18]
	ldr         w3,[sp,#0x20]
	mov         w2,w2
	ldr         w1,[sp,#0x14]
	ldr         x0,[sp,#0x28]
	bl          ChDrawHorizontalLine

; 130  : 	ChDrawVerticalLine(canv, x + w - 1, y + 1, h - 2, color);

	ldr         w8,[sp,#0x1C]
	sub         w3,w8,#2
	ldr         w8,[sp,#0x10]
	add         w2,w8,#1
	ldr         w9,[sp,#0x14]
	ldr         w8,[sp,#0x20]
	add         w8,w9,w8
	sub         w1,w8,#1
	ldr         w4,[sp,#0x18]
	mov         w3,w3
	mov         w2,w2
	mov         w1,w1
	ldr         x0,[sp,#0x28]
	bl          ChDrawVerticalLine
	ldp         fp,lr,[sp],#0x30
	ret

	ENDP  ; |ChDrawRectUnfilled|

; Function compile flags: /Odtp
; File E:\Xeneva Project\Aurora\Libs\Chitralekha\draw.cpp

	AREA	|.text$mn|, CODE, ARM64

|ChDrawHorizontalLine| PROC

; 114  : void ChDrawHorizontalLine(ChCanvas* canv, unsigned x, unsigned y, unsigned len, uint32_t col) {

|$LN3|
	stp         fp,lr,[sp,#-0x30]!
	mov         fp,sp
	str         x0,[sp,#0x20]
	str         w1,[sp,#0x1C]
	str         w2,[sp,#0x18]
	str         w3,[sp,#0x14]
	str         w4,[sp,#0x10]

; 115  : 	ChDrawRect(canv, x, y, len, 1, col);

	ldr         w5,[sp,#0x10]
	mov         w4,#1
	ldr         w3,[sp,#0x14]
	ldr         w2,[sp,#0x18]
	ldr         w1,[sp,#0x1C]
	ldr         x0,[sp,#0x20]
	bl          ChDrawRect
	ldp         fp,lr,[sp],#0x30
	ret

	ENDP  ; |ChDrawHorizontalLine|

; Function compile flags: /Odtp
; File E:\Xeneva Project\Aurora\Libs\Chitralekha\draw.cpp

	AREA	|.text$mn|, CODE, ARM64

|ChDrawVerticalLine| PROC

; 102  : void ChDrawVerticalLine(ChCanvas* canv, unsigned x, unsigned y, unsigned len, uint32_t col) {

|$LN3|
	stp         fp,lr,[sp,#-0x30]!
	mov         fp,sp
	str         x0,[sp,#0x20]
	str         w1,[sp,#0x1C]
	str         w2,[sp,#0x18]
	str         w3,[sp,#0x14]
	str         w4,[sp,#0x10]

; 103  : 	ChDrawRect(canv, x, y, 1, len, col);

	ldr         w5,[sp,#0x10]
	ldr         w4,[sp,#0x14]
	mov         w3,#1
	ldr         w2,[sp,#0x18]
	ldr         w1,[sp,#0x1C]
	ldr         x0,[sp,#0x20]
	bl          ChDrawRect
	ldp         fp,lr,[sp],#0x30
	ret

	ENDP  ; |ChDrawVerticalLine|

; Function compile flags: /Odtp
; File E:\Xeneva Project\Aurora\Libs\Chitralekha\draw.cpp

	AREA	|.text$mn|, CODE, ARM64

|ChDrawRectClipped| PROC

; 62   : void ChDrawRectClipped(ChCanvas* canv, unsigned x, unsigned y, unsigned w, unsigned h, ChRect* clip, uint32_t col) {

|$LN9|
	stp         fp,lr,[sp,#-0x50]!
	mov         fp,sp
	str         x0,[sp,#0x40]
	str         w1,[sp,#0x18]
	str         w2,[sp,#0x1C]
	str         w3,[sp,#0x28]
	str         w4,[sp,#0x2C]
	str         x5,[sp,#0x10]
	str         w6,[sp,#0x3C]

; 63   : 	int r_x = x;

	ldr         w8,[sp,#0x18]
	str         w8,[sp,#0x34]

; 64   : 	int r_y = y;

	ldr         w8,[sp,#0x1C]
	str         w8,[sp,#0x24]

; 65   : 	int r_w = w;

	ldr         w8,[sp,#0x28]
	str         w8,[sp,#0x30]

; 66   : 	int r_h = h;

	ldr         w8,[sp,#0x2C]
	str         w8,[sp,#0x20]

; 67   : 	
; 68   : 	if (x >(clip->x + clip->w))

	ldr         x9,[sp,#0x10]
	ldr         x8,[sp,#0x10]
	add         x8,x8,#8
	ldr         w9,[x9]
	ldr         w8,[x8]
	add         w9,w9,w8
	ldr         w8,[sp,#0x18]
	cmp         w8,w9
	bls         |$LN2@ChDrawRect|

; 69   : 		return;

	b           |$LN1@ChDrawRect|
|$LN2@ChDrawRect|

; 70   : 
; 71   : 	if (y > (clip->y + clip->h))

	ldr         x8,[sp,#0x10]
	add         x9,x8,#4
	ldr         x8,[sp,#0x10]
	add         x8,x8,#0xC
	ldr         w9,[x9]
	ldr         w8,[x8]
	add         w9,w9,w8
	ldr         w8,[sp,#0x1C]
	cmp         w8,w9
	bls         |$LN3@ChDrawRect|

; 72   : 		return;

	b           |$LN1@ChDrawRect|
|$LN3@ChDrawRect|

; 73   : 
; 74   : 	if (y <= clip->y){

	ldr         x8,[sp,#0x10]
	add         x8,x8,#4
	ldr         w9,[x8]
	ldr         w8,[sp,#0x1C]
	cmp         w8,w9
	bhi         |$LN4@ChDrawRect|

; 75   : 		int diffy = clip->y - r_y;

	ldr         x8,[sp,#0x10]
	add         x8,x8,#4
	ldr         w9,[x8]
	ldr         w8,[sp,#0x24]
	sub         w8,w9,w8
	str         w8,[sp,#0x38]

; 76   : 		r_y = clip->y;

	ldr         x8,[sp,#0x10]
	add         x8,x8,#4
	ldr         w8,[x8]
	str         w8,[sp,#0x24]

; 77   : 		r_h -= diffy;

	ldr         w9,[sp,#0x20]
	ldr         w8,[sp,#0x38]
	sub         w8,w9,w8
	str         w8,[sp,#0x20]
|$LN4@ChDrawRect|

; 78   : 	}
; 79   : 	
; 80   : 
; 81   : 	if (x <= clip->x)

	ldr         x8,[sp,#0x10]
	ldr         w9,[x8]
	ldr         w8,[sp,#0x18]
	cmp         w8,w9
	bhi         |$LN5@ChDrawRect|

; 82   : 		r_x = clip->x;

	ldr         x8,[sp,#0x10]
	ldr         w8,[x8]
	str         w8,[sp,#0x34]
|$LN5@ChDrawRect|

; 83   : 	
; 84   : 
; 85   : 	if ((x + w) > (clip->x + clip->w))

	ldr         w9,[sp,#0x18]
	ldr         w8,[sp,#0x28]
	add         w10,w9,w8
	ldr         x9,[sp,#0x10]
	ldr         x8,[sp,#0x10]
	add         x8,x8,#8
	ldr         w9,[x9]
	ldr         w8,[x8]
	add         w8,w9,w8
	cmp         w10,w8
	bls         |$LN6@ChDrawRect|

; 86   : 		r_w = (clip->x + clip->w) - x;

	ldr         x9,[sp,#0x10]
	ldr         x8,[sp,#0x10]
	add         x8,x8,#8
	ldr         w9,[x9]
	ldr         w8,[x8]
	add         w9,w9,w8
	ldr         w8,[sp,#0x18]
	sub         w8,w9,w8
	str         w8,[sp,#0x30]
|$LN6@ChDrawRect|

; 87   : 
; 88   : 	if ((y + h) > (clip->y + clip->h))

	ldr         w9,[sp,#0x1C]
	ldr         w8,[sp,#0x2C]
	add         w10,w9,w8
	ldr         x8,[sp,#0x10]
	add         x9,x8,#4
	ldr         x8,[sp,#0x10]
	add         x8,x8,#0xC
	ldr         w9,[x9]
	ldr         w8,[x8]
	add         w8,w9,w8
	cmp         w10,w8
	bls         |$LN7@ChDrawRect|

; 89   : 		r_h = (clip->y + clip->h) - y;

	ldr         x8,[sp,#0x10]
	add         x9,x8,#4
	ldr         x8,[sp,#0x10]
	add         x8,x8,#0xC
	ldr         w9,[x9]
	ldr         w8,[x8]
	add         w9,w9,w8
	ldr         w8,[sp,#0x1C]
	sub         w8,w9,w8
	str         w8,[sp,#0x20]
|$LN7@ChDrawRect|

; 90   : 
; 91   : 	ChDrawRect(canv, r_x, r_y, r_w, r_h, col);

	ldr         w5,[sp,#0x3C]
	ldr         w4,[sp,#0x20]
	ldr         w3,[sp,#0x30]
	ldr         w2,[sp,#0x24]
	ldr         w1,[sp,#0x34]
	ldr         x0,[sp,#0x40]
	bl          ChDrawRect
|$LN1@ChDrawRect|
	ldp         fp,lr,[sp],#0x50
	ret

	ENDP  ; |ChDrawRectClipped|

; Function compile flags: /Odtp
; File E:\Xeneva Project\Aurora\Libs\Chitralekha\draw.cpp

	AREA	|.text$mn|, CODE, ARM64

|ChDrawRect| PROC

; 46   : void ChDrawRect(ChCanvas* canvas, unsigned x, unsigned y, unsigned w, unsigned h, uint32_t col) {

|$LN9|
	stp         fp,lr,[sp,#-0x40]!
	mov         fp,sp
	str         x0,[sp,#0x30]
	str         w1,[sp,#0x24]
	str         w2,[sp,#0x20]
	str         w3,[sp,#0x18]
	str         w4,[sp,#0x1C]
	str         w5,[sp,#0x28]

; 47   : 	for (int i = 0; i < w; i++)

	mov         w8,#0
	str         w8,[sp,#0x14]
	b           |$LN4@ChDrawRect|
|$LN2@ChDrawRect|
	ldr         w8,[sp,#0x14]
	add         w8,w8,#1
	str         w8,[sp,#0x14]
|$LN4@ChDrawRect|
	ldr         w9,[sp,#0x18]
	ldr         w8,[sp,#0x14]
	cmp         w8,w9
	bhs         |$LN3@ChDrawRect|

; 48   : 	for (int j = 0; j < h; j++)

	mov         w8,#0
	str         w8,[sp,#0x10]
	b           |$LN7@ChDrawRect|
|$LN5@ChDrawRect|
	ldr         w8,[sp,#0x10]
	add         w8,w8,#1
	str         w8,[sp,#0x10]
|$LN7@ChDrawRect|
	ldr         w9,[sp,#0x1C]
	ldr         w8,[sp,#0x10]
	cmp         w8,w9
	bhs         |$LN6@ChDrawRect|

; 49   : 		ChDrawPixel(canvas, x + i, y + j, col);

	ldr         w9,[sp,#0x20]
	ldr         w8,[sp,#0x10]
	add         w2,w9,w8
	ldr         w9,[sp,#0x24]
	ldr         w8,[sp,#0x14]
	add         w1,w9,w8
	ldr         w3,[sp,#0x28]
	mov         w2,w2
	mov         w1,w1
	ldr         x0,[sp,#0x30]
	bl          ChDrawPixel
	b           |$LN5@ChDrawRect|
|$LN6@ChDrawRect|
	b           |$LN2@ChDrawRect|
|$LN3@ChDrawRect|
	ldp         fp,lr,[sp],#0x40
	ret

	ENDP  ; |ChDrawRect|

	END
