; Listing generated by Microsoft (R) Optimizing Compiler Version 19.29.30159.0 

	TTL	C:\Users\paras\source\repos\grep-name\XenevaOS\Libs\Chitralekha\ARM64\Debug\font.obj
	ARM64

	AREA	|.drectve|, DRECTVE

	EXPORT	|ChInitialiseFont|
	EXPORT	|ChFontSetSize|
	EXPORT	|ChFontDrawText|
	EXPORT	|ChFontDrawCharClipped|
	EXPORT	|ChFontDrawChar|
	EXPORT	|ChFontDrawTextClipped|
	EXPORT	|ChFontGetWidth|
	EXPORT	|ChFontGetWidthChar|
	EXPORT	|ChFontGetHeight|
	EXPORT	|ChFontGetHeightChar|
	EXPORT	|ChFontClose|
	EXPORT	|?ChFontClamp@@YAHHHH@Z|		; ChFontClamp
	IMPORT	|_KeGetFontID|
	IMPORT	|_KeGetFontSize|
	IMPORT	|malloc|
	IMPORT	|free|
	IMPORT	|FT_Init_FreeType|
	IMPORT	|FT_New_Memory_Face|
	IMPORT	|FT_Set_Pixel_Sizes|
	IMPORT	|FT_Load_Glyph|
	IMPORT	|FT_Load_Char|
	IMPORT	|FT_Get_Kerning|
	IMPORT	|FT_Get_Char_Index|
	IMPORT	|FT_MulFix|
	IMPORT	|ChColorAlphaBlend|
	IMPORT	|_KeObtainSharedMem|
	IMPORT	|_KeUnmapSharedMem|
	IMPORT	|_fltused|

	AREA	|.pdata|, PDATA
|$pdata$ChInitialiseFont| DCD imagerel |$LN6|
	DCD	0x26001f9
	;Flags[SingleProEpi] functionLength[504] RegF[0] RegI[0] H[0] frameChainReturn[Chained] frameSize[64]
|$pdata$ChFontSetSize| DCD imagerel |$LN6|
	DCD	0x1600089
	;Flags[SingleProEpi] functionLength[136] RegF[0] RegI[0] H[0] frameChainReturn[Chained] frameSize[32]
|$pdata$ChFontDrawText| DCD imagerel |$LN19|
	DCD	0x4600579
	;Flags[SingleProEpi] functionLength[1400] RegF[0] RegI[0] H[0] frameChainReturn[Chained] frameSize[128]
|$pdata$ChFontDrawCharClipped| DCD imagerel |$LN30|
	DCD	0x4e00791
	;Flags[SingleProEpi] functionLength[1936] RegF[0] RegI[0] H[0] frameChainReturn[Chained] frameSize[144]
|$pdata$ChFontDrawChar| DCD imagerel |$LN20|
	DCD	0x3e0055d
	;Flags[SingleProEpi] functionLength[1372] RegF[0] RegI[0] H[0] frameChainReturn[Chained] frameSize[112]
|$pdata$ChFontDrawTextClipped| DCD imagerel |$LN28|
	DCD	0x4e006d1
	;Flags[SingleProEpi] functionLength[1744] RegF[0] RegI[0] H[0] frameChainReturn[Chained] frameSize[144]
|$pdata$ChFontGetWidth| DCD imagerel |$LN9|
	DCD	0x2e00199
	;Flags[SingleProEpi] functionLength[408] RegF[0] RegI[0] H[0] frameChainReturn[Chained] frameSize[80]
|$pdata$ChFontGetWidthChar| DCD imagerel |$LN6|
	DCD	0x2e00179
	;Flags[SingleProEpi] functionLength[376] RegF[0] RegI[0] H[0] frameChainReturn[Chained] frameSize[80]
|$pdata$ChFontGetHeight| DCD imagerel |$LN9|
	DCD	0x2e00199
	;Flags[SingleProEpi] functionLength[408] RegF[0] RegI[0] H[0] frameChainReturn[Chained] frameSize[80]
|$pdata$ChFontGetHeightChar| DCD imagerel |$LN6|
	DCD	0x2e00181
	;Flags[SingleProEpi] functionLength[384] RegF[0] RegI[0] H[0] frameChainReturn[Chained] frameSize[80]
|$pdata$ChFontClose| DCD imagerel |$LN4|
	DCD	0x1600045
	;Flags[SingleProEpi] functionLength[68] RegF[0] RegI[0] H[0] frameChainReturn[Chained] frameSize[32]
|$pdata$?ChFontClamp@@YAHHHH@Z| DCD imagerel |$LN5|
	DCD	0x80004d
	;Flags[SingleProEpi] functionLength[76] RegF[0] RegI[0] H[0] frameChainReturn[UnChained] frameSize[16]
; Function compile flags: /Odtp
; File C:\Users\paras\source\repos\grep-name\XenevaOS\Libs\Chitralekha\font.cpp

	AREA	|.text$mn|, CODE, ARM64

|?ChFontClamp@@YAHHHH@Z| PROC				; ChFontClamp

; 424  : int ChFontClamp(int val, int min, int max) {

|$LN5|
	sub         sp,sp,#0x10
	str         w0,[sp]
	str         w1,[sp,#4]
	str         w2,[sp,#8]

; 425  : 	if (val < min) return min;

	ldr         w9,[sp,#4]
	ldr         w8,[sp]
	cmp         w8,w9
	bge         |$LN2@ChFontClam|
	ldr         w0,[sp,#4]
	b           |$LN1@ChFontClam|
|$LN2@ChFontClam|

; 426  : 	if (val > max)return max;

	ldr         w9,[sp,#8]
	ldr         w8,[sp]
	cmp         w8,w9
	ble         |$LN3@ChFontClam|
	ldr         w0,[sp,#8]
	b           |$LN1@ChFontClam|
|$LN3@ChFontClam|

; 427  : 	return val;

	ldr         w0,[sp]
|$LN1@ChFontClam|
	add         sp,sp,#0x10
	ret

	ENDP  ; |?ChFontClamp@@YAHHHH@Z|, ChFontClamp

; Function compile flags: /Odtp
; File C:\Users\paras\source\repos\grep-name\XenevaOS\Libs\Chitralekha\font.cpp

	AREA	|.text$mn|, CODE, ARM64

|ChFontClose| PROC

; 536  : int ChFontClose(ChFont* font) {

|$LN4|
	stp         fp,lr,[sp,#-0x20]!
	mov         fp,sp
	str         x0,[sp,#0x10]

; 537  : 	if (!font)

	ldr         x8,[sp,#0x10]
	cmp         x8,#0
	bne         |$LN2@ChFontClos|

; 538  : 		return -1;

	mov         w0,#-1
	b           |$LN1@ChFontClos|
|$LN2@ChFontClos|

; 539  : 	//FT_Done_Face(font->face);
; 540  : 	//FT_Done_FreeType(font->lib);
; 541  : 	_KeUnmapSharedMem(font->key);

	ldr         x8,[sp,#0x10]
	add         x8,x8,#0x14
	ldrh        w0,[x8]
	bl          _KeUnmapSharedMem

; 542  : 	free(font);

	ldr         x0,[sp,#0x10]
	bl          free

; 543  : 	return 0;

	mov         w0,#0
|$LN1@ChFontClos|
	ldp         fp,lr,[sp],#0x20
	ret

	ENDP  ; |ChFontClose|

; Function compile flags: /Odtp
; File C:\Users\paras\source\repos\grep-name\XenevaOS\Libs\Chitralekha\font.cpp

	AREA	|.text$mn|, CODE, ARM64

|ChFontGetHeightChar| PROC

; 404  : int64_t ChFontGetHeightChar(ChFont* font, char c) {

|$LN6|
	stp         fp,lr,[sp,#-0x50]!
	mov         fp,sp
	str         x0,[sp,#0x20]
	sxtb        w8,w1
	strb        w8,[sp,#0x10]

; 405  : 	if (!font)

	ldr         x8,[sp,#0x20]
	cmp         x8,#0
	bne         |$LN2@ChFontGetH|

; 406  : 		return -1;

	mov         x0,#-1
	b           |$LN1@ChFontGetH|
|$LN2@ChFontGetH|

; 407  : 	size_t font_h = 0;

	mov         x8,#0
	str         x8,[sp,#0x28]

; 408  : 	size_t peny = 0;

	mov         x8,#0
	str         x8,[sp,#0x30]

; 409  : 	int string_width = 0;

	mov         w8,#0
	str         w8,[sp,#0x18]

; 410  : 	FT_Error err = 0;

	mov         w8,#0
	str         w8,[sp,#0x14]

; 411  : 	err = FT_Load_Char(font->face, c, FT_LOAD_ADVANCE_ONLY);

	ldrsb       w1,[sp,#0x10]
	mov         w1,w1
	ldr         x8,[sp,#0x20]
	add         x8,x8,#0x30
	mov         w2,#0x100
	mov         w1,w1
	ldr         x0,[x8]
	bl          FT_Load_Char
	mov         w0,w0
	str         w0,[sp,#0x14]

; 412  : 	if (err)

	ldr         w8,[sp,#0x14]
	cmp         w8,#0
	beq         |$LN3@ChFontGetH|

; 413  : 		return 0;

	mov         x0,#0
	b           |$LN1@ChFontGetH|
|$LN3@ChFontGetH|

; 414  : 	peny += font->face->glyph->advance.y >> 6;

	ldr         x8,[sp,#0x20]
	add         x8,x8,#0x30
	ldr         x8,[x8]
	add         x8,x8,#0x78
	ldr         x8,[x8]
	add         x8,x8,#0x58
	add         x8,x8,#4
	ldr         w8,[x8]
	asr         w8,w8,#6
	sxtw        x9,w8
	ldr         x8,[sp,#0x30]
	add         x8,x8,x9
	str         x8,[sp,#0x30]

; 415  : 	font_h = peny;

	ldr         x8,[sp,#0x30]
	str         x8,[sp,#0x28]

; 416  : 	if (font_h == 0) {

	ldr         x8,[sp,#0x28]
	cmp         x8,#0
	bne         |$LN4@ChFontGetH|

; 417  : 		int64_t bbox_ymax = FT_MulFix(font->face->bbox.yMax, font->face->size->metrics.y_scale) >> 6;

	ldr         x8,[sp,#0x20]
	add         x8,x8,#0x30
	ldr         x8,[x8]
	add         x8,x8,#0x80
	ldr         x8,[x8]
	add         x8,x8,#0x18
	add         x9,x8,#8
	ldr         x8,[sp,#0x20]
	add         x8,x8,#0x30
	ldr         x8,[x8]
	add         x8,x8,#0x58
	add         x8,x8,#0xC
	ldr         w1,[x9]
	ldr         w0,[x8]
	bl          FT_MulFix
	mov         w0,w0
	asr         w8,w0,#6
	sxtw        x8,w8
	str         x8,[sp,#0x38]

; 418  : 		int64_t bbox_ymin = FT_MulFix(font->face->bbox.yMin, font->face->size->metrics.y_scale) >> 6;

	ldr         x8,[sp,#0x20]
	add         x8,x8,#0x30
	ldr         x8,[x8]
	add         x8,x8,#0x80
	ldr         x8,[x8]
	add         x8,x8,#0x18
	add         x9,x8,#8
	ldr         x8,[sp,#0x20]
	add         x8,x8,#0x30
	ldr         x8,[x8]
	add         x8,x8,#0x58
	add         x8,x8,#4
	ldr         w1,[x9]
	ldr         w0,[x8]
	bl          FT_MulFix
	mov         w0,w0
	asr         w8,w0,#6
	sxtw        x8,w8
	str         x8,[sp,#0x40]

; 419  : 		font_h = bbox_ymax - bbox_ymin;

	ldr         x9,[sp,#0x38]
	ldr         x8,[sp,#0x40]
	sub         x8,x9,x8
	str         x8,[sp,#0x28]
|$LN4@ChFontGetH|

; 420  : 	}
; 421  : 	return font_h;

	ldr         x0,[sp,#0x28]
|$LN1@ChFontGetH|
	ldp         fp,lr,[sp],#0x50
	ret

	ENDP  ; |ChFontGetHeightChar|

; Function compile flags: /Odtp
; File C:\Users\paras\source\repos\grep-name\XenevaOS\Libs\Chitralekha\font.cpp

	AREA	|.text$mn|, CODE, ARM64

|ChFontGetHeight| PROC

; 376  : int64_t ChFontGetHeight(ChFont* font, char* string) {

|$LN9|
	stp         fp,lr,[sp,#-0x50]!
	mov         fp,sp
	str         x0,[sp,#0x18]
	str         x1,[sp,#0x20]

; 377  : 	if (!font)

	ldr         x8,[sp,#0x18]
	cmp         x8,#0
	bne         |$LN4@ChFontGetH|

; 378  : 		return -1;

	mov         x0,#-1
	b           |$LN1@ChFontGetH|
|$LN4@ChFontGetH|

; 379  : 	size_t font_height = 0;

	mov         x8,#0
	str         x8,[sp,#0x28]

; 380  : 	size_t peny = 0;

	mov         x8,#0
	str         x8,[sp,#0x30]

; 381  : 	FT_Error err = 0;

	mov         w8,#0
	str         w8,[sp,#0x10]
|$LN8@ChFontGetH|
|$LN2@ChFontGetH|

; 382  : 	while (*string) {

	ldr         x8,[sp,#0x20]
	ldrsb       w8,[x8]
	mov         w8,w8
	cmp         w8,#0
	beq         |$LN3@ChFontGetH|

; 383  : 		err = FT_Load_Char(font->face, *string, FT_LOAD_ADVANCE_ONLY);

	ldr         x8,[sp,#0x20]
	ldrsb       w1,[x8]
	mov         w1,w1
	ldr         x8,[sp,#0x18]
	add         x8,x8,#0x30
	mov         w2,#0x100
	mov         w1,w1
	ldr         x0,[x8]
	bl          FT_Load_Char
	mov         w0,w0
	str         w0,[sp,#0x10]

; 384  : 		if (err)

	ldr         w8,[sp,#0x10]
	cmp         w8,#0
	beq         |$LN5@ChFontGetH|

; 385  : 			continue;

	b           |$LN2@ChFontGetH|
|$LN5@ChFontGetH|

; 386  : 		peny += font->face->glyph->advance.y >> 6;

	ldr         x8,[sp,#0x18]
	add         x8,x8,#0x30
	ldr         x8,[x8]
	add         x8,x8,#0x78
	ldr         x8,[x8]
	add         x8,x8,#0x58
	add         x8,x8,#4
	ldr         w8,[x8]
	asr         w8,w8,#6
	sxtw        x9,w8
	ldr         x8,[sp,#0x30]
	add         x8,x8,x9
	str         x8,[sp,#0x30]

; 387  : 		string++;

	ldr         x8,[sp,#0x20]
	add         x8,x8,#1
	str         x8,[sp,#0x20]

; 388  : 	}

	b           |$LN8@ChFontGetH|
|$LN3@ChFontGetH|

; 389  : 	font_height =  peny;

	ldr         x8,[sp,#0x30]
	str         x8,[sp,#0x28]

; 390  : 	if (font_height == 0) {

	ldr         x8,[sp,#0x28]
	cmp         x8,#0
	bne         |$LN6@ChFontGetH|

; 391  : 		int64_t bbox_ymax = FT_MulFix(font->face->bbox.yMax, font->face->size->metrics.y_scale) >> 6;

	ldr         x8,[sp,#0x18]
	add         x8,x8,#0x30
	ldr         x8,[x8]
	add         x8,x8,#0x80
	ldr         x8,[x8]
	add         x8,x8,#0x18
	add         x9,x8,#8
	ldr         x8,[sp,#0x18]
	add         x8,x8,#0x30
	ldr         x8,[x8]
	add         x8,x8,#0x58
	add         x8,x8,#0xC
	ldr         w1,[x9]
	ldr         w0,[x8]
	bl          FT_MulFix
	mov         w0,w0
	asr         w8,w0,#6
	sxtw        x8,w8
	str         x8,[sp,#0x38]

; 392  : 		int64_t bbox_ymin = FT_MulFix(font->face->bbox.yMin, font->face->size->metrics.y_scale) >> 6;

	ldr         x8,[sp,#0x18]
	add         x8,x8,#0x30
	ldr         x8,[x8]
	add         x8,x8,#0x80
	ldr         x8,[x8]
	add         x8,x8,#0x18
	add         x9,x8,#8
	ldr         x8,[sp,#0x18]
	add         x8,x8,#0x30
	ldr         x8,[x8]
	add         x8,x8,#0x58
	add         x8,x8,#4
	ldr         w1,[x9]
	ldr         w0,[x8]
	bl          FT_MulFix
	mov         w0,w0
	asr         w8,w0,#6
	sxtw        x8,w8
	str         x8,[sp,#0x40]

; 393  : 		font_height = bbox_ymax - bbox_ymin;

	ldr         x9,[sp,#0x38]
	ldr         x8,[sp,#0x40]
	sub         x8,x9,x8
	str         x8,[sp,#0x28]
|$LN6@ChFontGetH|

; 394  : 	}
; 395  : 	return font_height;

	ldr         x0,[sp,#0x28]
|$LN1@ChFontGetH|
	ldp         fp,lr,[sp],#0x50
	ret

	ENDP  ; |ChFontGetHeight|

; Function compile flags: /Odtp
; File C:\Users\paras\source\repos\grep-name\XenevaOS\Libs\Chitralekha\font.cpp

	AREA	|.text$mn|, CODE, ARM64

|ChFontGetWidthChar| PROC

; 350  : int64_t ChFontGetWidthChar(ChFont* font, char c) {

|$LN6|
	stp         fp,lr,[sp,#-0x50]!
	mov         fp,sp
	str         x0,[sp,#0x20]
	sxtb        w8,w1
	strb        w8,[sp,#0x10]

; 351  : 	if (!font)

	ldr         x8,[sp,#0x20]
	cmp         x8,#0
	bne         |$LN2@ChFontGetW|

; 352  : 		return -1;

	mov         x0,#-1
	b           |$LN1@ChFontGetW|
|$LN2@ChFontGetW|

; 353  : 	size_t font_width = 0;

	mov         x8,#0
	str         x8,[sp,#0x28]

; 354  : 	size_t penx = 0;

	mov         x8,#0
	str         x8,[sp,#0x30]

; 355  : 	int string_width = 0;

	mov         w8,#0
	str         w8,[sp,#0x18]

; 356  : 	FT_Error err = 0;

	mov         w8,#0
	str         w8,[sp,#0x14]

; 357  : 	err = FT_Load_Char(font->face, c, FT_LOAD_ADVANCE_ONLY);

	ldrsb       w1,[sp,#0x10]
	mov         w1,w1
	ldr         x8,[sp,#0x20]
	add         x8,x8,#0x30
	mov         w2,#0x100
	mov         w1,w1
	ldr         x0,[x8]
	bl          FT_Load_Char
	mov         w0,w0
	str         w0,[sp,#0x14]

; 358  : 	if (err)

	ldr         w8,[sp,#0x14]
	cmp         w8,#0
	beq         |$LN3@ChFontGetW|

; 359  : 		return 0;

	mov         x0,#0
	b           |$LN1@ChFontGetW|
|$LN3@ChFontGetW|

; 360  : 	penx += font->face->glyph->advance.x >> 6;

	ldr         x8,[sp,#0x20]
	add         x8,x8,#0x30
	ldr         x8,[x8]
	add         x8,x8,#0x78
	ldr         x8,[x8]
	add         x8,x8,#0x58
	ldr         w8,[x8]
	asr         w8,w8,#6
	sxtw        x9,w8
	ldr         x8,[sp,#0x30]
	add         x8,x8,x9
	str         x8,[sp,#0x30]

; 361  : 	font_width = penx;

	ldr         x8,[sp,#0x30]
	str         x8,[sp,#0x28]

; 362  : 	if (font_width == 0) {

	ldr         x8,[sp,#0x28]
	cmp         x8,#0
	bne         |$LN4@ChFontGetW|

; 363  : 		int64_t bbox_xmax = FT_MulFix(font->face->bbox.xMax, font->face->size->metrics.x_scale) >> 6;

	ldr         x8,[sp,#0x20]
	add         x8,x8,#0x30
	ldr         x8,[x8]
	add         x8,x8,#0x80
	ldr         x8,[x8]
	add         x8,x8,#0x18
	add         x9,x8,#4
	ldr         x8,[sp,#0x20]
	add         x8,x8,#0x30
	ldr         x8,[x8]
	add         x8,x8,#0x58
	add         x8,x8,#8
	ldr         w1,[x9]
	ldr         w0,[x8]
	bl          FT_MulFix
	mov         w0,w0
	asr         w8,w0,#6
	sxtw        x8,w8
	str         x8,[sp,#0x38]

; 364  : 		int64_t bbox_xmin = FT_MulFix(font->face->bbox.xMin, font->face->size->metrics.x_scale) >> 6;

	ldr         x8,[sp,#0x20]
	add         x8,x8,#0x30
	ldr         x8,[x8]
	add         x8,x8,#0x80
	ldr         x8,[x8]
	add         x8,x8,#0x18
	add         x9,x8,#4
	ldr         x8,[sp,#0x20]
	add         x8,x8,#0x30
	ldr         x8,[x8]
	add         x8,x8,#0x58
	ldr         w1,[x9]
	ldr         w0,[x8]
	bl          FT_MulFix
	mov         w0,w0
	asr         w8,w0,#6
	sxtw        x8,w8
	str         x8,[sp,#0x40]

; 365  : 		font_width = bbox_xmax - bbox_xmin;

	ldr         x9,[sp,#0x38]
	ldr         x8,[sp,#0x40]
	sub         x8,x9,x8
	str         x8,[sp,#0x28]
|$LN4@ChFontGetW|

; 366  : 	}
; 367  : 	return font_width;

	ldr         x0,[sp,#0x28]
|$LN1@ChFontGetW|
	ldp         fp,lr,[sp],#0x50
	ret

	ENDP  ; |ChFontGetWidthChar|

; Function compile flags: /Odtp
; File C:\Users\paras\source\repos\grep-name\XenevaOS\Libs\Chitralekha\font.cpp

	AREA	|.text$mn|, CODE, ARM64

|ChFontGetWidth| PROC

; 320  : int64_t ChFontGetWidth(ChFont* font,char* string) {

|$LN9|
	stp         fp,lr,[sp,#-0x50]!
	mov         fp,sp
	str         x0,[sp,#0x18]
	str         x1,[sp,#0x20]

; 321  : 	if (!font)

	ldr         x8,[sp,#0x18]
	cmp         x8,#0
	bne         |$LN4@ChFontGetW|

; 322  : 		return -1;

	mov         x0,#-1
	b           |$LN1@ChFontGetW|
|$LN4@ChFontGetW|

; 323  : 	size_t font_width = 0;

	mov         x8,#0
	str         x8,[sp,#0x28]

; 324  : 	size_t penx = 0;

	mov         x8,#0
	str         x8,[sp,#0x30]

; 325  : 	int string_width = 0;

	mov         w8,#0
	str         w8,[sp,#0x14]

; 326  : 	FT_Error err = 0;

	mov         w8,#0
	str         w8,[sp,#0x10]
|$LN8@ChFontGetW|
|$LN2@ChFontGetW|

; 327  : 	while (*string) {

	ldr         x8,[sp,#0x20]
	ldrsb       w8,[x8]
	mov         w8,w8
	cmp         w8,#0
	beq         |$LN3@ChFontGetW|

; 328  : 		err = FT_Load_Char(font->face, *string, FT_LOAD_ADVANCE_ONLY);

	ldr         x8,[sp,#0x20]
	ldrsb       w1,[x8]
	mov         w1,w1
	ldr         x8,[sp,#0x18]
	add         x8,x8,#0x30
	mov         w2,#0x100
	mov         w1,w1
	ldr         x0,[x8]
	bl          FT_Load_Char
	mov         w0,w0
	str         w0,[sp,#0x10]

; 329  : 		if (err)

	ldr         w8,[sp,#0x10]
	cmp         w8,#0
	beq         |$LN5@ChFontGetW|

; 330  : 			continue;

	b           |$LN2@ChFontGetW|
|$LN5@ChFontGetW|

; 331  : 		penx += font->face->glyph->advance.x >> 6;

	ldr         x8,[sp,#0x18]
	add         x8,x8,#0x30
	ldr         x8,[x8]
	add         x8,x8,#0x78
	ldr         x8,[x8]
	add         x8,x8,#0x58
	ldr         w8,[x8]
	asr         w8,w8,#6
	sxtw        x9,w8
	ldr         x8,[sp,#0x30]
	add         x8,x8,x9
	str         x8,[sp,#0x30]

; 332  : 		string++;

	ldr         x8,[sp,#0x20]
	add         x8,x8,#1
	str         x8,[sp,#0x20]

; 333  : 
; 334  : 	}

	b           |$LN8@ChFontGetW|
|$LN3@ChFontGetW|

; 335  : 	font_width = penx;

	ldr         x8,[sp,#0x30]
	str         x8,[sp,#0x28]

; 336  : 	if (font_width == 0) {

	ldr         x8,[sp,#0x28]
	cmp         x8,#0
	bne         |$LN6@ChFontGetW|

; 337  : 		int64_t bbox_xmax = FT_MulFix(font->face->bbox.xMax, font->face->size->metrics.x_scale) >> 6;

	ldr         x8,[sp,#0x18]
	add         x8,x8,#0x30
	ldr         x8,[x8]
	add         x8,x8,#0x80
	ldr         x8,[x8]
	add         x8,x8,#0x18
	add         x9,x8,#4
	ldr         x8,[sp,#0x18]
	add         x8,x8,#0x30
	ldr         x8,[x8]
	add         x8,x8,#0x58
	add         x8,x8,#8
	ldr         w1,[x9]
	ldr         w0,[x8]
	bl          FT_MulFix
	mov         w0,w0
	asr         w8,w0,#6
	sxtw        x8,w8
	str         x8,[sp,#0x38]

; 338  : 		int64_t bbox_xmin = FT_MulFix(font->face->bbox.xMin, font->face->size->metrics.x_scale) >> 6;

	ldr         x8,[sp,#0x18]
	add         x8,x8,#0x30
	ldr         x8,[x8]
	add         x8,x8,#0x80
	ldr         x8,[x8]
	add         x8,x8,#0x18
	add         x9,x8,#4
	ldr         x8,[sp,#0x18]
	add         x8,x8,#0x30
	ldr         x8,[x8]
	add         x8,x8,#0x58
	ldr         w1,[x9]
	ldr         w0,[x8]
	bl          FT_MulFix
	mov         w0,w0
	asr         w8,w0,#6
	sxtw        x8,w8
	str         x8,[sp,#0x40]

; 339  : 		font_width = bbox_xmax - bbox_xmin;

	ldr         x9,[sp,#0x38]
	ldr         x8,[sp,#0x40]
	sub         x8,x9,x8
	str         x8,[sp,#0x28]
|$LN6@ChFontGetW|

; 340  : 	}
; 341  : 	return font_width;

	ldr         x0,[sp,#0x28]
|$LN1@ChFontGetW|
	ldp         fp,lr,[sp],#0x50
	ret

	ENDP  ; |ChFontGetWidth|

; Function compile flags: /Odtp
; File C:\Users\paras\source\repos\grep-name\XenevaOS\Libs\Chitralekha\font.cpp

	AREA	|.text$mn|, CODE, ARM64

|ChFontDrawTextClipped| PROC

; 440  : int ChFontDrawTextClipped(ChCanvas *canv, ChFont* font, char* string, int penx, int peny, uint32_t color, ChRect* limit){

|$LN28|
	stp         fp,lr,[sp,#-0x90]!
	mov         fp,sp
	str         x0,[sp,#0x58]
	str         x1,[sp,#0x18]
	str         x2,[sp,#0x70]
	str         w3,[sp,#0x40]
	str         w4,[sp,#0x48]
	str         w5,[sp,#0x6C]
	str         x6,[sp,#0x10]

; 441  : #ifdef _USE_FREETYPE
; 442  : 	if (!font)

	ldr         x8,[sp,#0x18]
	cmp         x8,#0
	bne         |$LN10@ChFontDraw|

; 443  : 		return 1;

	mov         w0,#1
	b           |$LN1@ChFontDraw|
|$LN10@ChFontDraw|

; 444  : 	if (!limit)

	ldr         x8,[sp,#0x10]
	cmp         x8,#0
	bne         |$LN11@ChFontDraw|

; 445  : 		return 1;

	mov         w0,#1
	b           |$LN1@ChFontDraw|
|$LN11@ChFontDraw|

; 446  : 
; 447  : 	/*if ((penx >= canv->canvasWidth) || (peny >= canv->canvasHeight))
; 448  : 		return 1;*/
; 449  : 
; 450  : 	if (peny < limit->y)

	ldr         x8,[sp,#0x10]
	add         x8,x8,#4
	ldr         w9,[x8]
	ldr         w8,[sp,#0x48]
	cmp         w8,w9
	bge         |$LN12@ChFontDraw|

; 451  : 		return 1;

	mov         w0,#1
	b           |$LN1@ChFontDraw|
|$LN12@ChFontDraw|

; 452  : 
; 453  : 	if (penx < limit->x)

	ldr         x8,[sp,#0x10]
	ldr         w9,[x8]
	ldr         w8,[sp,#0x40]
	cmp         w8,w9
	bge         |$LN13@ChFontDraw|

; 454  : 		return 1;

	mov         w0,#1
	b           |$LN1@ChFontDraw|
|$LN13@ChFontDraw|

; 455  : 
; 456  : 
; 457  : 
; 458  : 	FT_Bool use_kerning = FT_HAS_KERNING(font->face);

	ldr         x8,[sp,#0x18]
	add         x8,x8,#0x30
	ldr         x8,[x8]
	add         x8,x8,#8
	ldr         w8,[x8]
	and         w8,w8,#0x40
	uxtb        w8,w8
	strb        w8,[sp,#0x20]

; 459  : 	uint32_t prev = 0;

	mov         w8,#0
	str         w8,[sp,#0x50]

; 460  : 	FT_UInt glyfIndx;
; 461  : 	FT_Error err = 0;

	mov         w8,#0
	str         w8,[sp,#0x60]
|$LN26@ChFontDraw|
|$LN2@ChFontDraw|

; 462  : 	while (*string) {

	ldr         x8,[sp,#0x70]
	ldrsb       w8,[x8]
	mov         w8,w8
	cmp         w8,#0
	beq         |$LN3@ChFontDraw|

; 463  : 		glyfIndx = FT_Get_Char_Index(font->face, *string);

	ldr         x8,[sp,#0x70]
	ldrsb       w1,[x8]
	mov         w1,w1
	ldr         x8,[sp,#0x18]
	add         x8,x8,#0x30
	mov         w1,w1
	ldr         x0,[x8]
	bl          FT_Get_Char_Index
	mov         w0,w0
	str         w0,[sp,#0x4C]

; 464  : 		err = FT_Load_Glyph(font->face, glyfIndx, FT_LOAD_RENDER);

	ldr         x8,[sp,#0x18]
	add         x8,x8,#0x30
	mov         w2,#4
	ldr         w1,[sp,#0x4C]
	ldr         x0,[x8]
	bl          FT_Load_Glyph
	mov         w0,w0
	str         w0,[sp,#0x60]

; 465  : 		if (err)

	ldr         w8,[sp,#0x60]
	cmp         w8,#0
	beq         |$LN14@ChFontDraw|

; 466  : 			continue;

	b           |$LN2@ChFontDraw|
|$LN14@ChFontDraw|

; 467  : 
; 468  : 		if (use_kerning && prev && glyfIndx) {

	ldrb        w8,[sp,#0x20]
	mov         w8,w8
	cmp         w8,#0
	beq         |$LN15@ChFontDraw|
	ldr         w8,[sp,#0x50]
	cmp         w8,#0
	beq         |$LN15@ChFontDraw|
	ldr         w8,[sp,#0x4C]
	cmp         w8,#0
	beq         |$LN15@ChFontDraw|

; 469  : 			FT_Vector delta;
; 470  : 			FT_Get_Kerning(font->face, prev, glyfIndx, FT_KERNING_DEFAULT, &delta);

	ldr         x8,[sp,#0x18]
	add         x8,x8,#0x30
	add         x4,sp,#0x78
	mov         w3,#0
	ldr         w2,[sp,#0x4C]
	ldr         w1,[sp,#0x50]
	ldr         x0,[x8]
	bl          FT_Get_Kerning

; 471  : 			penx += delta.x >> 6;

	ldr         w8,[sp,#0x78]
	asr         w9,w8,#6
	ldr         w8,[sp,#0x40]
	add         w8,w8,w9
	str         w8,[sp,#0x40]
|$LN15@ChFontDraw|

; 472  : 		}
; 473  : 
; 474  : 		int x_v = penx + font->face->glyph->bitmap_left;

	ldr         x8,[sp,#0x18]
	add         x8,x8,#0x30
	ldr         x8,[x8]
	add         x8,x8,#0x78
	ldr         x8,[x8]
	add         x8,x8,#0x90
	ldr         w9,[sp,#0x40]
	ldr         w8,[x8]
	add         w8,w9,w8
	str         w8,[sp,#0x24]

; 475  : 		int y_v = peny - font->face->glyph->bitmap_top;

	ldr         x8,[sp,#0x18]
	add         x8,x8,#0x30
	ldr         x8,[x8]
	add         x8,x8,#0x78
	ldr         x8,[x8]
	add         x8,x8,#0x94
	ldr         w9,[sp,#0x48]
	ldr         w8,[x8]
	sub         w8,w9,w8
	str         w8,[sp,#0x2C]

; 476  : 		int draw_width = font->face->glyph->bitmap.width;

	ldr         x8,[sp,#0x18]
	add         x8,x8,#0x30
	ldr         x8,[x8]
	add         x8,x8,#0x78
	ldr         x8,[x8]
	add         x8,x8,#0x68
	add         x8,x8,#4
	ldr         w8,[x8]
	str         w8,[sp,#0x28]

; 477  : 		int draw_height = font->face->glyph->bitmap.rows;

	ldr         x8,[sp,#0x18]
	add         x8,x8,#0x30
	ldr         x8,[x8]
	add         x8,x8,#0x78
	ldr         x8,[x8]
	add         x8,x8,#0x68
	ldr         w8,[x8]
	str         w8,[sp,#0x30]

; 478  : 
; 479  : 		/* here p = x and q = y*/
; 480  : 		int buff_p_off = 0;

	mov         w8,#0
	str         w8,[sp,#0x64]

; 481  : 		int buff_q_off = 0; 

	mov         w8,#0
	str         w8,[sp,#0x68]

; 482  : 
; 483  : 		/* Clip the text within clip boundary*/
; 484  : 		if (limit->x > x_v){

	ldr         x8,[sp,#0x10]
	ldr         w9,[sp,#0x24]
	ldr         w8,[x8]
	cmp         w8,w9
	ble         |$LN16@ChFontDraw|

; 485  : 			buff_p_off = limit->x - x_v;

	ldr         x8,[sp,#0x10]
	ldr         w9,[x8]
	ldr         w8,[sp,#0x24]
	sub         w8,w9,w8
	str         w8,[sp,#0x64]

; 486  : 			x_v = limit->x;

	ldr         x8,[sp,#0x10]
	ldr         w8,[x8]
	str         w8,[sp,#0x24]
|$LN16@ChFontDraw|

; 487  : 		}
; 488  : 
; 489  : 		if (limit->y > y_v){

	ldr         x8,[sp,#0x10]
	add         x8,x8,#4
	ldr         w9,[sp,#0x2C]
	ldr         w8,[x8]
	cmp         w8,w9
	ble         |$LN17@ChFontDraw|

; 490  : 			buff_q_off = limit->y - y_v;

	ldr         x8,[sp,#0x10]
	add         x8,x8,#4
	ldr         w9,[x8]
	ldr         w8,[sp,#0x2C]
	sub         w8,w9,w8
	str         w8,[sp,#0x68]

; 491  : 			y_v = limit->y;

	ldr         x8,[sp,#0x10]
	add         x8,x8,#4
	ldr         w8,[x8]
	str         w8,[sp,#0x2C]
|$LN17@ChFontDraw|

; 492  : 		}
; 493  : 		
; 494  : 		/* Check width and height for limiting drawing */
; 495  : 		if ((y_v + draw_height) > (limit->y + limit->h))

	ldr         w9,[sp,#0x2C]
	ldr         w8,[sp,#0x30]
	add         w10,w9,w8
	ldr         x8,[sp,#0x10]
	add         x9,x8,#4
	ldr         x8,[sp,#0x10]
	add         x8,x8,#0xC
	ldr         w9,[x9]
	ldr         w8,[x8]
	add         w8,w9,w8
	cmp         w10,w8
	ble         |$LN18@ChFontDraw|

; 496  : 			draw_height = (limit->y + limit->h) - peny;

	ldr         x8,[sp,#0x10]
	add         x9,x8,#4
	ldr         x8,[sp,#0x10]
	add         x8,x8,#0xC
	ldr         w9,[x9]
	ldr         w8,[x8]
	add         w9,w9,w8
	ldr         w8,[sp,#0x48]
	sub         w8,w9,w8
	str         w8,[sp,#0x30]
|$LN18@ChFontDraw|

; 497  : 
; 498  : 		if (draw_height < 0)

	ldr         w8,[sp,#0x30]
	cmp         w8,#0
	bge         |$LN19@ChFontDraw|

; 499  : 			draw_height = 0;

	mov         w8,#0
	str         w8,[sp,#0x30]
|$LN19@ChFontDraw|

; 500  : 
; 501  : 		if ((x_v + draw_width) > (limit->x + limit->w))

	ldr         w9,[sp,#0x24]
	ldr         w8,[sp,#0x28]
	add         w10,w9,w8
	ldr         x9,[sp,#0x10]
	ldr         x8,[sp,#0x10]
	add         x8,x8,#8
	ldr         w9,[x9]
	ldr         w8,[x8]
	add         w8,w9,w8
	cmp         w10,w8
	ble         |$LN20@ChFontDraw|

; 502  : 			draw_width = (limit->x + limit->w) - x_v;

	ldr         x9,[sp,#0x10]
	ldr         x8,[sp,#0x10]
	add         x8,x8,#8
	ldr         w9,[x9]
	ldr         w8,[x8]
	add         w9,w9,w8
	ldr         w8,[sp,#0x24]
	sub         w8,w9,w8
	str         w8,[sp,#0x28]
|$LN20@ChFontDraw|

; 503  : 
; 504  : 		if (draw_width < 0)

	ldr         w8,[sp,#0x28]
	cmp         w8,#0
	bge         |$LN21@ChFontDraw|

; 505  : 			draw_width = 0;

	mov         w8,#0
	str         w8,[sp,#0x28]
|$LN21@ChFontDraw|

; 506  : 
; 507  : 		for (int i = x_v, p = buff_p_off; i < x_v + draw_width && 

	ldr         w8,[sp,#0x24]
	str         w8,[sp,#0x3C]
	ldr         w8,[sp,#0x64]
	str         w8,[sp,#0x44]
	b           |$LN6@ChFontDraw|
|$LN4@ChFontDraw|

; 508  : 			p < draw_width; i++, p++) {

	ldr         w8,[sp,#0x3C]
	add         w8,w8,#1
	str         w8,[sp,#0x3C]
	ldr         w8,[sp,#0x44]
	add         w8,w8,#1
	str         w8,[sp,#0x44]
|$LN6@ChFontDraw|

; 506  : 
; 507  : 		for (int i = x_v, p = buff_p_off; i < x_v + draw_width && 

	ldr         w9,[sp,#0x24]
	ldr         w8,[sp,#0x28]
	add         w9,w9,w8
	ldr         w8,[sp,#0x3C]
	cmp         w8,w9
	bge         |$LN5@ChFontDraw|
	ldr         w9,[sp,#0x28]
	ldr         w8,[sp,#0x44]
	cmp         w8,w9
	bge         |$LN5@ChFontDraw|

; 509  : 			for (int j = y_v, q = buff_q_off; j < y_v + draw_height &&

	ldr         w8,[sp,#0x2C]
	str         w8,[sp,#0x38]
	ldr         w8,[sp,#0x68]
	str         w8,[sp,#0x34]
	b           |$LN9@ChFontDraw|
|$LN7@ChFontDraw|

; 510  : 				q < draw_height; j++, q++) {

	ldr         w8,[sp,#0x38]
	add         w8,w8,#1
	str         w8,[sp,#0x38]
	ldr         w8,[sp,#0x34]
	add         w8,w8,#1
	str         w8,[sp,#0x34]
|$LN9@ChFontDraw|

; 509  : 			for (int j = y_v, q = buff_q_off; j < y_v + draw_height &&

	ldr         w9,[sp,#0x2C]
	ldr         w8,[sp,#0x30]
	add         w9,w9,w8
	ldr         w8,[sp,#0x38]
	cmp         w8,w9
	bge         |$LN8@ChFontDraw|
	ldr         w9,[sp,#0x30]
	ldr         w8,[sp,#0x34]
	cmp         w8,w9
	bge         |$LN8@ChFontDraw|

; 511  : 				if (font->face->glyph->bitmap.buffer[q * font->face->glyph->bitmap.width + p] > 0){

	ldr         x8,[sp,#0x18]
	add         x8,x8,#0x30
	ldr         x8,[x8]
	add         x8,x8,#0x78
	ldr         x8,[x8]
	add         x8,x8,#0x68
	add         x10,x8,#0x10
	ldr         x8,[sp,#0x18]
	add         x8,x8,#0x30
	ldr         x8,[x8]
	add         x8,x8,#0x78
	ldr         x8,[x8]
	add         x8,x8,#0x68
	add         x8,x8,#4
	ldr         w9,[sp,#0x34]
	ldr         w8,[x8]
	mul         w9,w9,w8
	ldr         w8,[sp,#0x44]
	add         w8,w9,w8
	uxtw        x9,w8
	mov         x8,#1
	mul         x9,x9,x8
	ldr         x8,[x10]
	add         x8,x8,x9
	ldrb        w8,[x8]
	mov         w8,w8
	cmp         w8,#0
	ble         |$LN22@ChFontDraw|

; 512  : 					double val = font->face->glyph->bitmap.buffer[static_cast<uint64_t>(q) * font->face->glyph->bitmap.width + p] * 1.0 / 255;

	ldr         x8,[sp,#0x18]
	add         x8,x8,#0x30
	ldr         x8,[x8]
	add         x8,x8,#0x78
	ldr         x8,[x8]
	add         x8,x8,#0x68
	add         x10,x8,#0x10
	ldr         w8,[sp,#0x34]
	sxtw        x9,w8
	ldr         x8,[sp,#0x18]
	add         x8,x8,#0x30
	ldr         x8,[x8]
	add         x8,x8,#0x78
	ldr         x8,[x8]
	add         x8,x8,#0x68
	add         x8,x8,#4
	ldr         w8,[x8]
	uxtw        x8,w8
	mul         x9,x9,x8
	ldr         w8,[sp,#0x44]
	sxtw        x8,w8
	add         x9,x9,x8
	mov         x8,#1
	mul         x9,x9,x8
	ldr         x8,[x10]
	add         x8,x8,x9
	ldrb        w8,[x8]
	mov         w8,w8
	scvtf       d17,w8
	fmov        d16,#1
	fmul        d17,d17,d16
	ldr         d16,|$LN27@ChFontDraw|
	fdiv        d16,d17,d16
	str         d16,[sp,#0x80]

; 513  : 					canv->buffer[static_cast<uint64_t>(i) + static_cast<uint64_t>(j) * canv->canvasWidth] = 

	ldr         x8,[sp,#0x58]
	add         x11,x8,#0x20
	ldr         w8,[sp,#0x3C]
	sxtw        x10,w8
	ldr         w8,[sp,#0x38]
	sxtw        x9,w8
	ldr         x8,[sp,#0x58]
	add         x8,x8,#0x18
	ldr         w8,[x8]
	uxtw        x8,w8
	mul         x8,x9,x8
	add         x9,x10,x8
	mov         x8,#4
	mul         x9,x9,x8
	ldr         x8,[x11]
	add         x8,x8,x9
	ldr         d0,[sp,#0x80]
	ldr         w1,[sp,#0x6C]
	ldr         w0,[x8]
	bl          ChColorAlphaBlend
	mov         w0,w0
	ldr         x8,[sp,#0x58]
	add         x11,x8,#0x20
	ldr         w8,[sp,#0x3C]
	sxtw        x10,w8
	ldr         w8,[sp,#0x38]
	sxtw        x9,w8
	ldr         x8,[sp,#0x58]
	add         x8,x8,#0x18
	ldr         w8,[x8]
	uxtw        x8,w8
	mul         x8,x9,x8
	add         x9,x10,x8
	mov         x8,#4
	mul         x9,x9,x8
	ldr         x8,[x11]
	add         x8,x8,x9
	str         w0,[x8]

; 514  : 						ChColorAlphaBlend(canv->buffer[static_cast<uint64_t>(i) + static_cast<uint64_t>(j) * canv->canvasWidth],
; 515  : 						color, val);
; 516  : 				}

	b           |$LN23@ChFontDraw|
|$LN22@ChFontDraw|

; 517  : 				else if (font->face->glyph->bitmap.buffer[q * font->face->glyph->bitmap.width] == 255)

	ldr         x8,[sp,#0x18]
	add         x8,x8,#0x30
	ldr         x8,[x8]
	add         x8,x8,#0x78
	ldr         x8,[x8]
	add         x8,x8,#0x68
	add         x10,x8,#0x10
	ldr         x8,[sp,#0x18]
	add         x8,x8,#0x30
	ldr         x8,[x8]
	add         x8,x8,#0x78
	ldr         x8,[x8]
	add         x8,x8,#0x68
	add         x8,x8,#4
	ldr         w9,[sp,#0x34]
	ldr         w8,[x8]
	mul         w8,w9,w8
	uxtw        x9,w8
	mov         x8,#1
	mul         x9,x9,x8
	ldr         x8,[x10]
	add         x8,x8,x9
	ldrb        w8,[x8]
	mov         w8,w8
	cmp         w8,#0xFF
	bne         |$LN24@ChFontDraw|

; 518  : 					canv->buffer[i + j * canv->canvasWidth] = color;

	ldr         x8,[sp,#0x58]
	add         x10,x8,#0x20
	ldr         x8,[sp,#0x58]
	add         x8,x8,#0x18
	ldr         w9,[sp,#0x38]
	ldr         w8,[x8]
	mul         w9,w9,w8
	ldr         w8,[sp,#0x3C]
	add         w8,w8,w9
	uxtw        x9,w8
	mov         x8,#4
	mul         x9,x9,x8
	ldr         x8,[x10]
	add         x9,x8,x9
	ldr         w8,[sp,#0x6C]
	str         w8,[x9]
|$LN24@ChFontDraw|
|$LN23@ChFontDraw|

; 519  : 			}

	b           |$LN7@ChFontDraw|
|$LN8@ChFontDraw|

; 520  : 		}

	b           |$LN4@ChFontDraw|
|$LN5@ChFontDraw|

; 521  : 
; 522  : 		penx += font->face->glyph->advance.x >> 6;

	ldr         x8,[sp,#0x18]
	add         x8,x8,#0x30
	ldr         x8,[x8]
	add         x8,x8,#0x78
	ldr         x8,[x8]
	add         x8,x8,#0x58
	ldr         w8,[x8]
	asr         w9,w8,#6
	ldr         w8,[sp,#0x40]
	add         w8,w8,w9
	str         w8,[sp,#0x40]

; 523  : 		peny += font->face->glyph->advance.y >> 6;

	ldr         x8,[sp,#0x18]
	add         x8,x8,#0x30
	ldr         x8,[x8]
	add         x8,x8,#0x78
	ldr         x8,[x8]
	add         x8,x8,#0x58
	add         x8,x8,#4
	ldr         w8,[x8]
	asr         w9,w8,#6
	ldr         w8,[sp,#0x48]
	add         w8,w8,w9
	str         w8,[sp,#0x48]

; 524  : 
; 525  : 		prev = glyfIndx;

	ldr         w8,[sp,#0x4C]
	str         w8,[sp,#0x50]

; 526  : 		string++;

	ldr         x8,[sp,#0x70]
	add         x8,x8,#1
	str         x8,[sp,#0x70]

; 527  : 	}

	b           |$LN26@ChFontDraw|
|$LN3@ChFontDraw|
|$LN1@ChFontDraw|
	ldp         fp,lr,[sp],#0x90
	ret
|$LN27@ChFontDraw|
	DCFD         255

	ENDP  ; |ChFontDrawTextClipped|

; Function compile flags: /Odtp
; File C:\Users\paras\source\repos\grep-name\XenevaOS\Libs\Chitralekha\font.cpp

	AREA	|.text$mn|, CODE, ARM64

|ChFontDrawChar| PROC

; 163  : void ChFontDrawChar(ChCanvas *canv, ChFont* font, char c, int penx, int peny, uint32_t sz, uint32_t color){

|$LN20|
	stp         fp,lr,[sp,#-0x70]!
	mov         fp,sp
	str         x0,[sp,#0x28]
	str         x1,[sp,#0x10]
	sxtb        w8,w2
	strb        w8,[sp,#0x20]
	str         w3,[sp,#0x30]
	str         w4,[sp,#0x40]
	str         w5,[sp,#0x50]
	str         w6,[sp,#0x4C]

; 164  : #ifdef _USE_FREETYPE
; 165  : 	if (!font)

	ldr         x8,[sp,#0x10]
	cmp         x8,#0
	bne         |$LN8@ChFontDraw|

; 166  : 		return;

	b           |$LN1@ChFontDraw|
|$LN8@ChFontDraw|

; 167  : 	if (penx >= canv->canvasWidth)

	ldr         x8,[sp,#0x28]
	add         x8,x8,#0x18
	ldr         w9,[x8]
	ldr         w8,[sp,#0x30]
	cmp         w8,w9
	blo         |$LN9@ChFontDraw|

; 168  : 		return;

	b           |$LN1@ChFontDraw|
|$LN9@ChFontDraw|

; 169  : 	if (peny >= canv->canvasHeight)

	ldr         x8,[sp,#0x28]
	add         x8,x8,#0x1C
	ldr         w9,[x8]
	ldr         w8,[sp,#0x40]
	cmp         w8,w9
	blo         |$LN10@ChFontDraw|

; 170  : 		return;

	b           |$LN1@ChFontDraw|
|$LN10@ChFontDraw|

; 171  : 
; 172  : 	int w = font->face->glyph->metrics.width;

	ldr         x8,[sp,#0x10]
	add         x8,x8,#0x30
	ldr         x8,[x8]
	add         x8,x8,#0x78
	ldr         x8,[x8]
	add         x8,x8,#0x30
	ldr         w8,[x8]
	str         w8,[sp,#0x54]

; 173  : 	int h = font->face->glyph->metrics.height;

	ldr         x8,[sp,#0x10]
	add         x8,x8,#0x30
	ldr         x8,[x8]
	add         x8,x8,#0x78
	ldr         x8,[x8]
	add         x8,x8,#0x30
	add         x8,x8,#4
	ldr         w8,[x8]
	str         w8,[sp,#0x58]

; 174  : 	FT_Bool use_kerning = FT_HAS_KERNING(font->face);

	ldr         x8,[sp,#0x10]
	add         x8,x8,#0x30
	ldr         x8,[x8]
	add         x8,x8,#8
	ldr         w8,[x8]
	and         w8,w8,#0x40
	uxtb        w8,w8
	strb        w8,[sp,#0x21]

; 175  : 	FT_UInt glyfIndx;
; 176  : 	FT_Error err = 0;

	mov         w8,#0
	str         w8,[sp,#0x3C]

; 177  : 	glyfIndx = FT_Get_Char_Index(font->face, c);

	ldrsb       w1,[sp,#0x20]
	mov         w1,w1
	ldr         x8,[sp,#0x10]
	add         x8,x8,#0x30
	mov         w1,w1
	ldr         x0,[x8]
	bl          FT_Get_Char_Index
	mov         w0,w0
	str         w0,[sp,#0x38]

; 178  : 	err = FT_Load_Glyph(font->face, glyfIndx, FT_LOAD_RENDER);

	ldr         x8,[sp,#0x10]
	add         x8,x8,#0x30
	mov         w2,#4
	ldr         w1,[sp,#0x38]
	ldr         x0,[x8]
	bl          FT_Load_Glyph
	mov         w0,w0
	str         w0,[sp,#0x3C]

; 179  : 	if (err)

	ldr         w8,[sp,#0x3C]
	cmp         w8,#0
	beq         |$LN11@ChFontDraw|

; 180  : 		return;

	b           |$LN1@ChFontDraw|
|$LN11@ChFontDraw|

; 181  : 
; 182  : 	if (use_kerning && font->kern && glyfIndx) {

	ldrb        w8,[sp,#0x21]
	mov         w8,w8
	cmp         w8,#0
	beq         |$LN12@ChFontDraw|
	ldr         x8,[sp,#0x10]
	add         x8,x8,#0x18
	ldr         w8,[x8]
	cmp         w8,#0
	beq         |$LN12@ChFontDraw|
	ldr         w8,[sp,#0x38]
	cmp         w8,#0
	beq         |$LN12@ChFontDraw|

; 183  : 		FT_Vector delta;
; 184  : 		FT_Get_Kerning(font->face, font->kern, glyfIndx, FT_KERNING_DEFAULT, &delta);

	ldr         x8,[sp,#0x10]
	add         x9,x8,#0x18
	ldr         x8,[sp,#0x10]
	add         x8,x8,#0x30
	add         x4,sp,#0x60
	mov         w3,#0
	ldr         w2,[sp,#0x38]
	ldr         w1,[x9]
	ldr         x0,[x8]
	bl          FT_Get_Kerning

; 185  : 		penx += delta.x >> 6;

	ldr         w8,[sp,#0x60]
	asr         w9,w8,#6
	ldr         w8,[sp,#0x30]
	add         w8,w8,w9
	str         w8,[sp,#0x30]
|$LN12@ChFontDraw|

; 186  : 	}
; 187  : 
; 188  : 	int x_v = penx + font->face->glyph->bitmap_left;

	ldr         x8,[sp,#0x10]
	add         x8,x8,#0x30
	ldr         x8,[x8]
	add         x8,x8,#0x78
	ldr         x8,[x8]
	add         x8,x8,#0x90
	ldr         w9,[sp,#0x30]
	ldr         w8,[x8]
	add         w8,w9,w8
	str         w8,[sp,#0x48]

; 189  : 	int y_v = peny - font->face->glyph->bitmap_top;

	ldr         x8,[sp,#0x10]
	add         x8,x8,#0x30
	ldr         x8,[x8]
	add         x8,x8,#0x78
	ldr         x8,[x8]
	add         x8,x8,#0x94
	ldr         w9,[sp,#0x40]
	ldr         w8,[x8]
	sub         w8,w9,w8
	str         w8,[sp,#0x44]

; 190  : 	int b_w = font->face->glyph->bitmap.width;

	ldr         x8,[sp,#0x10]
	add         x8,x8,#0x30
	ldr         x8,[x8]
	add         x8,x8,#0x78
	ldr         x8,[x8]
	add         x8,x8,#0x68
	add         x8,x8,#4
	ldr         w8,[x8]
	str         w8,[sp,#0x5C]

; 191  : 	
; 192  : 	for (int j = y_v, q = 0; j < y_v + font->face->glyph->bitmap.rows; j++, q++) {

	ldr         w8,[sp,#0x44]
	str         w8,[sp,#0x18]
	mov         w8,#0
	str         w8,[sp,#0x24]
	b           |$LN4@ChFontDraw|
|$LN2@ChFontDraw|
	ldr         w8,[sp,#0x18]
	add         w8,w8,#1
	str         w8,[sp,#0x18]
	ldr         w8,[sp,#0x24]
	add         w8,w8,#1
	str         w8,[sp,#0x24]
|$LN4@ChFontDraw|
	ldr         x8,[sp,#0x10]
	add         x8,x8,#0x30
	ldr         x8,[x8]
	add         x8,x8,#0x78
	ldr         x8,[x8]
	add         x8,x8,#0x68
	ldr         w9,[sp,#0x44]
	ldr         w8,[x8]
	add         w9,w9,w8
	ldr         w8,[sp,#0x18]
	cmp         w8,w9
	bhs         |$LN3@ChFontDraw|

; 193  : 		for (int i = x_v, p = 0; i < x_v + font->face->glyph->bitmap.width; i++, p++) {

	ldr         w8,[sp,#0x48]
	str         w8,[sp,#0x1C]
	mov         w8,#0
	str         w8,[sp,#0x34]
	b           |$LN7@ChFontDraw|
|$LN5@ChFontDraw|
	ldr         w8,[sp,#0x1C]
	add         w8,w8,#1
	str         w8,[sp,#0x1C]
	ldr         w8,[sp,#0x34]
	add         w8,w8,#1
	str         w8,[sp,#0x34]
|$LN7@ChFontDraw|
	ldr         x8,[sp,#0x10]
	add         x8,x8,#0x30
	ldr         x8,[x8]
	add         x8,x8,#0x78
	ldr         x8,[x8]
	add         x8,x8,#0x68
	add         x8,x8,#4
	ldr         w9,[sp,#0x48]
	ldr         w8,[x8]
	add         w9,w9,w8
	ldr         w8,[sp,#0x1C]
	cmp         w8,w9
	bhs         |$LN6@ChFontDraw|

; 194  : 			if (i < 0 || j < 0 || i >= canv->canvasWidth || j >= canv->canvasHeight)

	ldr         w8,[sp,#0x1C]
	cmp         w8,#0
	blt         |$LN14@ChFontDraw|
	ldr         w8,[sp,#0x18]
	cmp         w8,#0
	blt         |$LN14@ChFontDraw|
	ldr         x8,[sp,#0x28]
	add         x8,x8,#0x18
	ldr         w9,[x8]
	ldr         w8,[sp,#0x1C]
	cmp         w8,w9
	bhs         |$LN14@ChFontDraw|
	ldr         x8,[sp,#0x28]
	add         x8,x8,#0x1C
	ldr         w9,[x8]
	ldr         w8,[sp,#0x18]
	cmp         w8,w9
	blo         |$LN13@ChFontDraw|
|$LN14@ChFontDraw|

; 195  : 				continue;

	b           |$LN5@ChFontDraw|
|$LN13@ChFontDraw|

; 196  : 			if (font->face->glyph->bitmap.buffer[q * font->face->glyph->bitmap.width + p] > 0){

	ldr         x8,[sp,#0x10]
	add         x8,x8,#0x30
	ldr         x8,[x8]
	add         x8,x8,#0x78
	ldr         x8,[x8]
	add         x8,x8,#0x68
	add         x10,x8,#0x10
	ldr         x8,[sp,#0x10]
	add         x8,x8,#0x30
	ldr         x8,[x8]
	add         x8,x8,#0x78
	ldr         x8,[x8]
	add         x8,x8,#0x68
	add         x8,x8,#4
	ldr         w9,[sp,#0x24]
	ldr         w8,[x8]
	mul         w9,w9,w8
	ldr         w8,[sp,#0x34]
	add         w8,w9,w8
	uxtw        x9,w8
	mov         x8,#1
	mul         x9,x9,x8
	ldr         x8,[x10]
	add         x8,x8,x9
	ldrb        w8,[x8]
	mov         w8,w8
	cmp         w8,#0
	ble         |$LN15@ChFontDraw|

; 197  : 				double val = font->face->glyph->bitmap.buffer[q * font->face->glyph->bitmap.width + p] * 1.0 / 255;

	ldr         x8,[sp,#0x10]
	add         x8,x8,#0x30
	ldr         x8,[x8]
	add         x8,x8,#0x78
	ldr         x8,[x8]
	add         x8,x8,#0x68
	add         x10,x8,#0x10
	ldr         x8,[sp,#0x10]
	add         x8,x8,#0x30
	ldr         x8,[x8]
	add         x8,x8,#0x78
	ldr         x8,[x8]
	add         x8,x8,#0x68
	add         x8,x8,#4
	ldr         w9,[sp,#0x24]
	ldr         w8,[x8]
	mul         w9,w9,w8
	ldr         w8,[sp,#0x34]
	add         w8,w9,w8
	uxtw        x9,w8
	mov         x8,#1
	mul         x9,x9,x8
	ldr         x8,[x10]
	add         x8,x8,x9
	ldrb        w8,[x8]
	mov         w8,w8
	scvtf       d17,w8
	fmov        d16,#1
	fmul        d17,d17,d16
	ldr         d16,|$LN19@ChFontDraw|
	fdiv        d16,d17,d16
	str         d16,[sp,#0x68]

; 198  : 				canv->buffer[i + j * canv->canvasWidth] = ChColorAlphaBlend(canv->buffer[i + j * canv->canvasWidth],

	ldr         x8,[sp,#0x28]
	add         x10,x8,#0x20
	ldr         x8,[sp,#0x28]
	add         x8,x8,#0x18
	ldr         w9,[sp,#0x18]
	ldr         w8,[x8]
	mul         w9,w9,w8
	ldr         w8,[sp,#0x1C]
	add         w8,w8,w9
	uxtw        x9,w8
	mov         x8,#4
	mul         x9,x9,x8
	ldr         x8,[x10]
	add         x8,x8,x9
	ldr         d0,[sp,#0x68]
	ldr         w1,[sp,#0x4C]
	ldr         w0,[x8]
	bl          ChColorAlphaBlend
	mov         w0,w0
	ldr         x8,[sp,#0x28]
	add         x10,x8,#0x20
	ldr         x8,[sp,#0x28]
	add         x8,x8,#0x18
	ldr         w9,[sp,#0x18]
	ldr         w8,[x8]
	mul         w9,w9,w8
	ldr         w8,[sp,#0x1C]
	add         w8,w8,w9
	uxtw        x9,w8
	mov         x8,#4
	mul         x9,x9,x8
	ldr         x8,[x10]
	add         x8,x8,x9
	str         w0,[x8]

; 199  : 					color, val);
; 200  : 			}

	b           |$LN16@ChFontDraw|
|$LN15@ChFontDraw|

; 201  : 			else if (font->face->glyph->bitmap.buffer[q * font->face->glyph->bitmap.width] == 255)

	ldr         x8,[sp,#0x10]
	add         x8,x8,#0x30
	ldr         x8,[x8]
	add         x8,x8,#0x78
	ldr         x8,[x8]
	add         x8,x8,#0x68
	add         x10,x8,#0x10
	ldr         x8,[sp,#0x10]
	add         x8,x8,#0x30
	ldr         x8,[x8]
	add         x8,x8,#0x78
	ldr         x8,[x8]
	add         x8,x8,#0x68
	add         x8,x8,#4
	ldr         w9,[sp,#0x24]
	ldr         w8,[x8]
	mul         w8,w9,w8
	uxtw        x9,w8
	mov         x8,#1
	mul         x9,x9,x8
	ldr         x8,[x10]
	add         x8,x8,x9
	ldrb        w8,[x8]
	mov         w8,w8
	cmp         w8,#0xFF
	bne         |$LN17@ChFontDraw|

; 202  : 				canv->buffer[i + j * canv->canvasWidth] = color;

	ldr         x8,[sp,#0x28]
	add         x10,x8,#0x20
	ldr         x8,[sp,#0x28]
	add         x8,x8,#0x18
	ldr         w9,[sp,#0x18]
	ldr         w8,[x8]
	mul         w9,w9,w8
	ldr         w8,[sp,#0x1C]
	add         w8,w8,w9
	uxtw        x9,w8
	mov         x8,#4
	mul         x9,x9,x8
	ldr         x8,[x10]
	add         x9,x8,x9
	ldr         w8,[sp,#0x4C]
	str         w8,[x9]
|$LN17@ChFontDraw|
|$LN16@ChFontDraw|

; 203  : 		}

	b           |$LN5@ChFontDraw|
|$LN6@ChFontDraw|

; 204  : 	}

	b           |$LN2@ChFontDraw|
|$LN3@ChFontDraw|

; 205  : 	font->kern = glyfIndx;

	ldr         x8,[sp,#0x10]
	add         x9,x8,#0x18
	ldr         w8,[sp,#0x38]
	str         w8,[x9]
|$LN1@ChFontDraw|
	ldp         fp,lr,[sp],#0x70
	ret
	nop
|$LN19@ChFontDraw|
	DCFD         255

	ENDP  ; |ChFontDrawChar|

; Function compile flags: /Odtp
; File C:\Users\paras\source\repos\grep-name\XenevaOS\Libs\Chitralekha\font.cpp

	AREA	|.text$mn|, CODE, ARM64

|ChFontDrawCharClipped| PROC

; 220  : void ChFontDrawCharClipped(ChCanvas* canv, ChFont* font, char c, int penx, int peny, uint32_t color, ChRect* limit) {

|$LN30|
	stp         fp,lr,[sp,#-0x90]!
	mov         fp,sp
	str         x0,[sp,#0x50]
	str         x1,[sp,#0x10]
	sxtb        w8,w2
	strb        w8,[sp,#0x28]
	str         w3,[sp,#0x30]
	str         w4,[sp,#0x44]
	str         w5,[sp,#0x68]
	str         x6,[sp,#0x20]

; 221  : #ifdef _USE_FREETYPE
; 222  : 	if (!font)

	ldr         x8,[sp,#0x10]
	cmp         x8,#0
	bne         |$LN8@ChFontDraw|

; 223  : 		return;

	b           |$LN1@ChFontDraw|
|$LN8@ChFontDraw|

; 224  : 	if (!limit)

	ldr         x8,[sp,#0x20]
	cmp         x8,#0
	bne         |$LN9@ChFontDraw|

; 225  : 		return;

	b           |$LN1@ChFontDraw|
|$LN9@ChFontDraw|

; 226  : 	if (penx >= canv->canvasWidth)

	ldr         x8,[sp,#0x50]
	add         x8,x8,#0x18
	ldr         w9,[x8]
	ldr         w8,[sp,#0x30]
	cmp         w8,w9
	blo         |$LN10@ChFontDraw|

; 227  : 		return;

	b           |$LN1@ChFontDraw|
|$LN10@ChFontDraw|

; 228  : 	if (peny >= canv->canvasHeight)

	ldr         x8,[sp,#0x50]
	add         x8,x8,#0x1C
	ldr         w9,[x8]
	ldr         w8,[sp,#0x44]
	cmp         w8,w9
	blo         |$LN11@ChFontDraw|

; 229  : 		return;

	b           |$LN1@ChFontDraw|
|$LN11@ChFontDraw|

; 230  : 
; 231  : 	if (!font)

	ldr         x8,[sp,#0x10]
	cmp         x8,#0
	bne         |$LN12@ChFontDraw|

; 232  : 		return;

	b           |$LN1@ChFontDraw|
|$LN12@ChFontDraw|

; 233  : 
; 234  : 	/*if ((penx >= canv->canvasWidth) || (peny >= canv->canvasHeight))
; 235  : 		return 1;*/
; 236  : 
; 237  : 	if (peny < limit->y)

	ldr         x8,[sp,#0x20]
	add         x8,x8,#4
	ldr         w9,[x8]
	ldr         w8,[sp,#0x44]
	cmp         w8,w9
	bge         |$LN13@ChFontDraw|

; 238  : 		return;

	b           |$LN1@ChFontDraw|
|$LN13@ChFontDraw|

; 239  : 
; 240  : 	if (penx < limit->x)

	ldr         x8,[sp,#0x20]
	ldr         w9,[x8]
	ldr         w8,[sp,#0x30]
	cmp         w8,w9
	bge         |$LN14@ChFontDraw|

; 241  : 		return;

	b           |$LN1@ChFontDraw|
|$LN14@ChFontDraw|

; 242  : 
; 243  : 	int w = font->face->glyph->metrics.width;

	ldr         x8,[sp,#0x10]
	add         x8,x8,#0x30
	ldr         x8,[x8]
	add         x8,x8,#0x78
	ldr         x8,[x8]
	add         x8,x8,#0x30
	ldr         w8,[x8]
	str         w8,[sp,#0x6C]

; 244  : 	int h = font->face->glyph->metrics.height;

	ldr         x8,[sp,#0x10]
	add         x8,x8,#0x30
	ldr         x8,[x8]
	add         x8,x8,#0x78
	ldr         x8,[x8]
	add         x8,x8,#0x30
	add         x8,x8,#4
	ldr         w8,[x8]
	str         w8,[sp,#0x70]

; 245  : 	FT_Bool use_kerning = FT_HAS_KERNING(font->face);

	ldr         x8,[sp,#0x10]
	add         x8,x8,#0x30
	ldr         x8,[x8]
	add         x8,x8,#8
	ldr         w8,[x8]
	and         w8,w8,#0x40
	uxtb        w8,w8
	strb        w8,[sp,#0x29]

; 246  : 	FT_UInt glyfIndx;
; 247  : 	FT_Error err = 0;

	mov         w8,#0
	str         w8,[sp,#0x5C]

; 248  : 	glyfIndx = FT_Get_Char_Index(font->face, c);

	ldrsb       w1,[sp,#0x28]
	mov         w1,w1
	ldr         x8,[sp,#0x10]
	add         x8,x8,#0x30
	mov         w1,w1
	ldr         x0,[x8]
	bl          FT_Get_Char_Index
	mov         w0,w0
	str         w0,[sp,#0x58]

; 249  : 	err = FT_Load_Glyph(font->face, glyfIndx, FT_LOAD_RENDER);

	ldr         x8,[sp,#0x10]
	add         x8,x8,#0x30
	mov         w2,#4
	ldr         w1,[sp,#0x58]
	ldr         x0,[x8]
	bl          FT_Load_Glyph
	mov         w0,w0
	str         w0,[sp,#0x5C]

; 250  : 	if (err)

	ldr         w8,[sp,#0x5C]
	cmp         w8,#0
	beq         |$LN15@ChFontDraw|

; 251  : 		return;

	b           |$LN1@ChFontDraw|
|$LN15@ChFontDraw|

; 252  : 
; 253  : 	if (use_kerning && font->kern && glyfIndx) {

	ldrb        w8,[sp,#0x29]
	mov         w8,w8
	cmp         w8,#0
	beq         |$LN16@ChFontDraw|
	ldr         x8,[sp,#0x10]
	add         x8,x8,#0x18
	ldr         w8,[x8]
	cmp         w8,#0
	beq         |$LN16@ChFontDraw|
	ldr         w8,[sp,#0x58]
	cmp         w8,#0
	beq         |$LN16@ChFontDraw|

; 254  : 		FT_Vector delta;
; 255  : 		FT_Get_Kerning(font->face, font->kern, glyfIndx, FT_KERNING_DEFAULT, &delta);

	ldr         x8,[sp,#0x10]
	add         x9,x8,#0x18
	ldr         x8,[sp,#0x10]
	add         x8,x8,#0x30
	add         x4,sp,#0x78
	mov         w3,#0
	ldr         w2,[sp,#0x58]
	ldr         w1,[x9]
	ldr         x0,[x8]
	bl          FT_Get_Kerning

; 256  : 		penx += delta.x >> 6;

	ldr         w8,[sp,#0x78]
	asr         w9,w8,#6
	ldr         w8,[sp,#0x30]
	add         w8,w8,w9
	str         w8,[sp,#0x30]
|$LN16@ChFontDraw|

; 257  : 	}
; 258  : 
; 259  : 	int x_v = penx + font->face->glyph->bitmap_left;

	ldr         x8,[sp,#0x10]
	add         x8,x8,#0x30
	ldr         x8,[x8]
	add         x8,x8,#0x78
	ldr         x8,[x8]
	add         x8,x8,#0x90
	ldr         w9,[sp,#0x30]
	ldr         w8,[x8]
	add         w8,w9,w8
	str         w8,[sp,#0x2C]

; 260  : 	int y_v = peny - font->face->glyph->bitmap_top;

	ldr         x8,[sp,#0x10]
	add         x8,x8,#0x30
	ldr         x8,[x8]
	add         x8,x8,#0x78
	ldr         x8,[x8]
	add         x8,x8,#0x94
	ldr         w9,[sp,#0x44]
	ldr         w8,[x8]
	sub         w8,w9,w8
	str         w8,[sp,#0x34]

; 261  : 	int b_w = font->face->glyph->bitmap.width;

	ldr         x8,[sp,#0x10]
	add         x8,x8,#0x30
	ldr         x8,[x8]
	add         x8,x8,#0x78
	ldr         x8,[x8]
	add         x8,x8,#0x68
	add         x8,x8,#4
	ldr         w8,[x8]
	str         w8,[sp,#0x74]

; 262  : 	int draw_width = font->face->glyph->bitmap.width;

	ldr         x8,[sp,#0x10]
	add         x8,x8,#0x30
	ldr         x8,[x8]
	add         x8,x8,#0x78
	ldr         x8,[x8]
	add         x8,x8,#0x68
	add         x8,x8,#4
	ldr         w8,[x8]
	str         w8,[sp,#0x3C]

; 263  : 	int draw_height = font->face->glyph->bitmap.rows;

	ldr         x8,[sp,#0x10]
	add         x8,x8,#0x30
	ldr         x8,[x8]
	add         x8,x8,#0x78
	ldr         x8,[x8]
	add         x8,x8,#0x68
	ldr         w8,[x8]
	str         w8,[sp,#0x38]

; 264  : 
; 265  : 	/* here p = x and q = y*/
; 266  : 	int buff_p_off = 0;

	mov         w8,#0
	str         w8,[sp,#0x64]

; 267  : 	int buff_q_off = 0;

	mov         w8,#0
	str         w8,[sp,#0x60]

; 268  : 
; 269  : 	/* Clip the text within clip boundary*/
; 270  : 	if (limit->x > x_v) {

	ldr         x8,[sp,#0x20]
	ldr         w9,[sp,#0x2C]
	ldr         w8,[x8]
	cmp         w8,w9
	ble         |$LN17@ChFontDraw|

; 271  : 		buff_p_off = limit->x - x_v;

	ldr         x8,[sp,#0x20]
	ldr         w9,[x8]
	ldr         w8,[sp,#0x2C]
	sub         w8,w9,w8
	str         w8,[sp,#0x64]

; 272  : 		x_v = limit->x;

	ldr         x8,[sp,#0x20]
	ldr         w8,[x8]
	str         w8,[sp,#0x2C]
|$LN17@ChFontDraw|

; 273  : 	}
; 274  : 
; 275  : 	if (limit->y > y_v) {

	ldr         x8,[sp,#0x20]
	add         x8,x8,#4
	ldr         w9,[sp,#0x34]
	ldr         w8,[x8]
	cmp         w8,w9
	ble         |$LN18@ChFontDraw|

; 276  : 		buff_q_off = limit->y - y_v;

	ldr         x8,[sp,#0x20]
	add         x8,x8,#4
	ldr         w9,[x8]
	ldr         w8,[sp,#0x34]
	sub         w8,w9,w8
	str         w8,[sp,#0x60]

; 277  : 		y_v = limit->y;

	ldr         x8,[sp,#0x20]
	add         x8,x8,#4
	ldr         w8,[x8]
	str         w8,[sp,#0x34]
|$LN18@ChFontDraw|

; 278  : 	}
; 279  : 
; 280  : 	/* Check width and height for limiting drawing */
; 281  : 	if ((y_v + draw_height) > (limit->y + limit->h))

	ldr         w9,[sp,#0x34]
	ldr         w8,[sp,#0x38]
	add         w10,w9,w8
	ldr         x8,[sp,#0x20]
	add         x9,x8,#4
	ldr         x8,[sp,#0x20]
	add         x8,x8,#0xC
	ldr         w9,[x9]
	ldr         w8,[x8]
	add         w8,w9,w8
	cmp         w10,w8
	ble         |$LN19@ChFontDraw|

; 282  : 		draw_height = (limit->y + limit->h) - peny;

	ldr         x8,[sp,#0x20]
	add         x9,x8,#4
	ldr         x8,[sp,#0x20]
	add         x8,x8,#0xC
	ldr         w9,[x9]
	ldr         w8,[x8]
	add         w9,w9,w8
	ldr         w8,[sp,#0x44]
	sub         w8,w9,w8
	str         w8,[sp,#0x38]
|$LN19@ChFontDraw|

; 283  : 
; 284  : 	if (draw_height < 0)

	ldr         w8,[sp,#0x38]
	cmp         w8,#0
	bge         |$LN20@ChFontDraw|

; 285  : 		draw_height = 0;

	mov         w8,#0
	str         w8,[sp,#0x38]
|$LN20@ChFontDraw|

; 286  : 
; 287  : 	if ((x_v + draw_width) > (limit->x + limit->w))

	ldr         w9,[sp,#0x2C]
	ldr         w8,[sp,#0x3C]
	add         w10,w9,w8
	ldr         x9,[sp,#0x20]
	ldr         x8,[sp,#0x20]
	add         x8,x8,#8
	ldr         w9,[x9]
	ldr         w8,[x8]
	add         w8,w9,w8
	cmp         w10,w8
	ble         |$LN21@ChFontDraw|

; 288  : 		draw_width = (limit->x + limit->w) - x_v;

	ldr         x9,[sp,#0x20]
	ldr         x8,[sp,#0x20]
	add         x8,x8,#8
	ldr         w9,[x9]
	ldr         w8,[x8]
	add         w9,w9,w8
	ldr         w8,[sp,#0x2C]
	sub         w8,w9,w8
	str         w8,[sp,#0x3C]
|$LN21@ChFontDraw|

; 289  : 
; 290  : 	if (draw_width < 0)

	ldr         w8,[sp,#0x3C]
	cmp         w8,#0
	bge         |$LN22@ChFontDraw|

; 291  : 		draw_width = 0;

	mov         w8,#0
	str         w8,[sp,#0x3C]
|$LN22@ChFontDraw|

; 292  : 
; 293  : 	for (int j = y_v, q = buff_q_off; j < y_v + draw_height &&

	ldr         w8,[sp,#0x34]
	str         w8,[sp,#0x18]
	ldr         w8,[sp,#0x60]
	str         w8,[sp,#0x40]
	b           |$LN4@ChFontDraw|
|$LN2@ChFontDraw|

; 294  : 		q < draw_height; j++, q++) {

	ldr         w8,[sp,#0x18]
	add         w8,w8,#1
	str         w8,[sp,#0x18]
	ldr         w8,[sp,#0x40]
	add         w8,w8,#1
	str         w8,[sp,#0x40]
|$LN4@ChFontDraw|

; 292  : 
; 293  : 	for (int j = y_v, q = buff_q_off; j < y_v + draw_height &&

	ldr         w9,[sp,#0x34]
	ldr         w8,[sp,#0x38]
	add         w9,w9,w8
	ldr         w8,[sp,#0x18]
	cmp         w8,w9
	bge         |$LN3@ChFontDraw|
	ldr         w9,[sp,#0x38]
	ldr         w8,[sp,#0x40]
	cmp         w8,w9
	bge         |$LN3@ChFontDraw|

; 295  : 		for (int i = x_v, p = buff_p_off; i < x_v + draw_width &&

	ldr         w8,[sp,#0x2C]
	str         w8,[sp,#0x1C]
	ldr         w8,[sp,#0x64]
	str         w8,[sp,#0x48]
	b           |$LN7@ChFontDraw|
|$LN5@ChFontDraw|

; 296  : 			p < draw_width; i++, p++) {

	ldr         w8,[sp,#0x1C]
	add         w8,w8,#1
	str         w8,[sp,#0x1C]
	ldr         w8,[sp,#0x48]
	add         w8,w8,#1
	str         w8,[sp,#0x48]
|$LN7@ChFontDraw|

; 295  : 		for (int i = x_v, p = buff_p_off; i < x_v + draw_width &&

	ldr         w9,[sp,#0x2C]
	ldr         w8,[sp,#0x3C]
	add         w9,w9,w8
	ldr         w8,[sp,#0x1C]
	cmp         w8,w9
	bge         |$LN6@ChFontDraw|
	ldr         w9,[sp,#0x3C]
	ldr         w8,[sp,#0x48]
	cmp         w8,w9
	bge         |$LN6@ChFontDraw|

; 297  : 			if (i < 0 || j < 0 || i >= canv->canvasWidth || j >= canv->canvasHeight)

	ldr         w8,[sp,#0x1C]
	cmp         w8,#0
	blt         |$LN24@ChFontDraw|
	ldr         w8,[sp,#0x18]
	cmp         w8,#0
	blt         |$LN24@ChFontDraw|
	ldr         x8,[sp,#0x50]
	add         x8,x8,#0x18
	ldr         w9,[x8]
	ldr         w8,[sp,#0x1C]
	cmp         w8,w9
	bhs         |$LN24@ChFontDraw|
	ldr         x8,[sp,#0x50]
	add         x8,x8,#0x1C
	ldr         w9,[x8]
	ldr         w8,[sp,#0x18]
	cmp         w8,w9
	blo         |$LN23@ChFontDraw|
|$LN24@ChFontDraw|

; 298  : 				continue;

	b           |$LN5@ChFontDraw|
|$LN23@ChFontDraw|

; 299  : 			if (font->face->glyph->bitmap.buffer[q * font->face->glyph->bitmap.width + p] > 0) {

	ldr         x8,[sp,#0x10]
	add         x8,x8,#0x30
	ldr         x8,[x8]
	add         x8,x8,#0x78
	ldr         x8,[x8]
	add         x8,x8,#0x68
	add         x10,x8,#0x10
	ldr         x8,[sp,#0x10]
	add         x8,x8,#0x30
	ldr         x8,[x8]
	add         x8,x8,#0x78
	ldr         x8,[x8]
	add         x8,x8,#0x68
	add         x8,x8,#4
	ldr         w9,[sp,#0x40]
	ldr         w8,[x8]
	mul         w9,w9,w8
	ldr         w8,[sp,#0x48]
	add         w8,w9,w8
	uxtw        x9,w8
	mov         x8,#1
	mul         x9,x9,x8
	ldr         x8,[x10]
	add         x8,x8,x9
	ldrb        w8,[x8]
	mov         w8,w8
	cmp         w8,#0
	ble         |$LN25@ChFontDraw|

; 300  : 				double val = font->face->glyph->bitmap.buffer[q * font->face->glyph->bitmap.width + p] * 1.0 / 255;

	ldr         x8,[sp,#0x10]
	add         x8,x8,#0x30
	ldr         x8,[x8]
	add         x8,x8,#0x78
	ldr         x8,[x8]
	add         x8,x8,#0x68
	add         x10,x8,#0x10
	ldr         x8,[sp,#0x10]
	add         x8,x8,#0x30
	ldr         x8,[x8]
	add         x8,x8,#0x78
	ldr         x8,[x8]
	add         x8,x8,#0x68
	add         x8,x8,#4
	ldr         w9,[sp,#0x40]
	ldr         w8,[x8]
	mul         w9,w9,w8
	ldr         w8,[sp,#0x48]
	add         w8,w9,w8
	uxtw        x9,w8
	mov         x8,#1
	mul         x9,x9,x8
	ldr         x8,[x10]
	add         x8,x8,x9
	ldrb        w8,[x8]
	mov         w8,w8
	scvtf       d17,w8
	fmov        d16,#1
	fmul        d17,d17,d16
	ldr         d16,|$LN29@ChFontDraw|
	fdiv        d16,d17,d16
	str         d16,[sp,#0x80]

; 301  : 				canv->buffer[i + j * canv->canvasWidth] = ChColorAlphaBlend(canv->buffer[i + j * canv->canvasWidth],

	ldr         x8,[sp,#0x50]
	add         x10,x8,#0x20
	ldr         x8,[sp,#0x50]
	add         x8,x8,#0x18
	ldr         w9,[sp,#0x18]
	ldr         w8,[x8]
	mul         w9,w9,w8
	ldr         w8,[sp,#0x1C]
	add         w8,w8,w9
	uxtw        x9,w8
	mov         x8,#4
	mul         x9,x9,x8
	ldr         x8,[x10]
	add         x8,x8,x9
	ldr         d0,[sp,#0x80]
	ldr         w1,[sp,#0x68]
	ldr         w0,[x8]
	bl          ChColorAlphaBlend
	mov         w0,w0
	ldr         x8,[sp,#0x50]
	add         x10,x8,#0x20
	ldr         x8,[sp,#0x50]
	add         x8,x8,#0x18
	ldr         w9,[sp,#0x18]
	ldr         w8,[x8]
	mul         w9,w9,w8
	ldr         w8,[sp,#0x1C]
	add         w8,w8,w9
	uxtw        x9,w8
	mov         x8,#4
	mul         x9,x9,x8
	ldr         x8,[x10]
	add         x8,x8,x9
	str         w0,[x8]

; 302  : 					color, val);
; 303  : 			}

	b           |$LN26@ChFontDraw|
|$LN25@ChFontDraw|

; 304  : 			else if (font->face->glyph->bitmap.buffer[q * font->face->glyph->bitmap.width] == 255)

	ldr         x8,[sp,#0x10]
	add         x8,x8,#0x30
	ldr         x8,[x8]
	add         x8,x8,#0x78
	ldr         x8,[x8]
	add         x8,x8,#0x68
	add         x10,x8,#0x10
	ldr         x8,[sp,#0x10]
	add         x8,x8,#0x30
	ldr         x8,[x8]
	add         x8,x8,#0x78
	ldr         x8,[x8]
	add         x8,x8,#0x68
	add         x8,x8,#4
	ldr         w9,[sp,#0x40]
	ldr         w8,[x8]
	mul         w8,w9,w8
	uxtw        x9,w8
	mov         x8,#1
	mul         x9,x9,x8
	ldr         x8,[x10]
	add         x8,x8,x9
	ldrb        w8,[x8]
	mov         w8,w8
	cmp         w8,#0xFF
	bne         |$LN27@ChFontDraw|

; 305  : 				canv->buffer[i + j * canv->canvasWidth] = color;

	ldr         x8,[sp,#0x50]
	add         x10,x8,#0x20
	ldr         x8,[sp,#0x50]
	add         x8,x8,#0x18
	ldr         w9,[sp,#0x18]
	ldr         w8,[x8]
	mul         w9,w9,w8
	ldr         w8,[sp,#0x1C]
	add         w8,w8,w9
	uxtw        x9,w8
	mov         x8,#4
	mul         x9,x9,x8
	ldr         x8,[x10]
	add         x9,x8,x9
	ldr         w8,[sp,#0x68]
	str         w8,[x9]
|$LN27@ChFontDraw|
|$LN26@ChFontDraw|

; 306  : 		}

	b           |$LN5@ChFontDraw|
|$LN6@ChFontDraw|

; 307  : 	}

	b           |$LN2@ChFontDraw|
|$LN3@ChFontDraw|

; 308  : 	font->kern = glyfIndx;

	ldr         x8,[sp,#0x10]
	add         x9,x8,#0x18
	ldr         w8,[sp,#0x58]
	str         w8,[x9]

; 309  : 	penx += font->face->glyph->advance.x >> 6;

	ldr         x8,[sp,#0x10]
	add         x8,x8,#0x30
	ldr         x8,[x8]
	add         x8,x8,#0x78
	ldr         x8,[x8]
	add         x8,x8,#0x58
	ldr         w8,[x8]
	asr         w9,w8,#6
	ldr         w8,[sp,#0x30]
	add         w8,w8,w9
	str         w8,[sp,#0x30]

; 310  : 	peny += font->face->glyph->advance.y >> 6;

	ldr         x8,[sp,#0x10]
	add         x8,x8,#0x30
	ldr         x8,[x8]
	add         x8,x8,#0x78
	ldr         x8,[x8]
	add         x8,x8,#0x58
	add         x8,x8,#4
	ldr         w8,[x8]
	asr         w9,w8,#6
	ldr         w8,[sp,#0x44]
	add         w8,w8,w9
	str         w8,[sp,#0x44]
|$LN1@ChFontDraw|
	ldp         fp,lr,[sp],#0x90
	ret
|$LN29@ChFontDraw|
	DCFD         255

	ENDP  ; |ChFontDrawCharClipped|

; Function compile flags: /Odtp
; File C:\Users\paras\source\repos\grep-name\XenevaOS\Libs\Chitralekha\font.cpp

	AREA	|.text$mn|, CODE, ARM64

|ChFontDrawText| PROC

; 106  : void ChFontDrawText(ChCanvas *canv, ChFont* font, char* string, int penx, int peny, uint32_t sz, uint32_t color){

|$LN19|
	stp         fp,lr,[sp,#-0x80]!
	mov         fp,sp
	str         x0,[sp,#0x40]
	str         x1,[sp,#0x10]
	str         x2,[sp,#0x58]
	str         w3,[sp,#0x2C]
	str         w4,[sp,#0x34]
	str         w5,[sp,#0x60]
	str         w6,[sp,#0x54]

; 107  : #ifdef _USE_FREETYPE
; 108  : 	if (!font)

	ldr         x8,[sp,#0x10]
	cmp         x8,#0
	bne         |$LN10@ChFontDraw|

; 109  : 		return;

	b           |$LN1@ChFontDraw|
|$LN10@ChFontDraw|

; 110  : 	int w = font->face->glyph->metrics.width;

	ldr         x8,[sp,#0x10]
	add         x8,x8,#0x30
	ldr         x8,[x8]
	add         x8,x8,#0x78
	ldr         x8,[x8]
	add         x8,x8,#0x30
	ldr         w8,[x8]
	str         w8,[sp,#0x64]

; 111  : 	int h = font->face->glyph->metrics.height;

	ldr         x8,[sp,#0x10]
	add         x8,x8,#0x30
	ldr         x8,[x8]
	add         x8,x8,#0x78
	ldr         x8,[x8]
	add         x8,x8,#0x30
	add         x8,x8,#4
	ldr         w8,[x8]
	str         w8,[sp,#0x68]

; 112  : 	FT_Bool use_kerning = FT_HAS_KERNING(font->face);

	ldr         x8,[sp,#0x10]
	add         x8,x8,#0x30
	ldr         x8,[x8]
	add         x8,x8,#8
	ldr         w8,[x8]
	and         w8,w8,#0x40
	uxtb        w8,w8
	strb        w8,[sp,#0x18]

; 113  : 	uint32_t prev = 0;

	mov         w8,#0
	str         w8,[sp,#0x38]

; 114  : 	FT_UInt glyfIndx;
; 115  : 	FT_Error err = 0;

	mov         w8,#0
	str         w8,[sp,#0x48]
|$LN17@ChFontDraw|
|$LN2@ChFontDraw|

; 116  : 	while (*string) {

	ldr         x8,[sp,#0x58]
	ldrsb       w8,[x8]
	mov         w8,w8
	cmp         w8,#0
	beq         |$LN3@ChFontDraw|

; 117  : 		glyfIndx = FT_Get_Char_Index(font->face, *string);

	ldr         x8,[sp,#0x58]
	ldrsb       w1,[x8]
	mov         w1,w1
	ldr         x8,[sp,#0x10]
	add         x8,x8,#0x30
	mov         w1,w1
	ldr         x0,[x8]
	bl          FT_Get_Char_Index
	mov         w0,w0
	str         w0,[sp,#0x30]

; 118  : 		err = FT_Load_Glyph(font->face, glyfIndx, FT_LOAD_RENDER);

	ldr         x8,[sp,#0x10]
	add         x8,x8,#0x30
	mov         w2,#4
	ldr         w1,[sp,#0x30]
	ldr         x0,[x8]
	bl          FT_Load_Glyph
	mov         w0,w0
	str         w0,[sp,#0x48]

; 119  : 		if (err)

	ldr         w8,[sp,#0x48]
	cmp         w8,#0
	beq         |$LN11@ChFontDraw|

; 120  : 			continue;

	b           |$LN2@ChFontDraw|
|$LN11@ChFontDraw|

; 121  : 
; 122  : 		if (use_kerning && prev && glyfIndx) {

	ldrb        w8,[sp,#0x18]
	mov         w8,w8
	cmp         w8,#0
	beq         |$LN12@ChFontDraw|
	ldr         w8,[sp,#0x38]
	cmp         w8,#0
	beq         |$LN12@ChFontDraw|
	ldr         w8,[sp,#0x30]
	cmp         w8,#0
	beq         |$LN12@ChFontDraw|

; 123  : 			FT_Vector delta;
; 124  : 			FT_Get_Kerning(font->face, prev, glyfIndx, FT_KERNING_DEFAULT, &delta);

	ldr         x8,[sp,#0x10]
	add         x8,x8,#0x30
	add         x4,sp,#0x70
	mov         w3,#0
	ldr         w2,[sp,#0x30]
	ldr         w1,[sp,#0x38]
	ldr         x0,[x8]
	bl          FT_Get_Kerning

; 125  : 			penx += delta.x >> 6;

	ldr         w8,[sp,#0x70]
	asr         w9,w8,#6
	ldr         w8,[sp,#0x2C]
	add         w8,w8,w9
	str         w8,[sp,#0x2C]
|$LN12@ChFontDraw|

; 126  : 		}
; 127  : 
; 128  : 		int x_v = penx + font->face->glyph->bitmap_left;

	ldr         x8,[sp,#0x10]
	add         x8,x8,#0x30
	ldr         x8,[x8]
	add         x8,x8,#0x78
	ldr         x8,[x8]
	add         x8,x8,#0x90
	ldr         w9,[sp,#0x2C]
	ldr         w8,[x8]
	add         w8,w9,w8
	str         w8,[sp,#0x4C]

; 129  : 		int y_v = peny - font->face->glyph->bitmap_top;

	ldr         x8,[sp,#0x10]
	add         x8,x8,#0x30
	ldr         x8,[x8]
	add         x8,x8,#0x78
	ldr         x8,[x8]
	add         x8,x8,#0x94
	ldr         w9,[sp,#0x34]
	ldr         w8,[x8]
	sub         w8,w9,w8
	str         w8,[sp,#0x50]

; 130  : 
; 131  : 		for (int i = x_v, p = 0; i < x_v + font->face->glyph->bitmap.width &&

	ldr         w8,[sp,#0x4C]
	str         w8,[sp,#0x24]
	mov         w8,#0
	str         w8,[sp,#0x28]
	b           |$LN6@ChFontDraw|
|$LN4@ChFontDraw|

; 132  : 			p < font->face->glyph->bitmap.width; i++, p++) {

	ldr         w8,[sp,#0x24]
	add         w8,w8,#1
	str         w8,[sp,#0x24]
	ldr         w8,[sp,#0x28]
	add         w8,w8,#1
	str         w8,[sp,#0x28]
|$LN6@ChFontDraw|

; 130  : 
; 131  : 		for (int i = x_v, p = 0; i < x_v + font->face->glyph->bitmap.width &&

	ldr         x8,[sp,#0x10]
	add         x8,x8,#0x30
	ldr         x8,[x8]
	add         x8,x8,#0x78
	ldr         x8,[x8]
	add         x8,x8,#0x68
	add         x8,x8,#4
	ldr         w9,[sp,#0x4C]
	ldr         w8,[x8]
	add         w9,w9,w8
	ldr         w8,[sp,#0x24]
	cmp         w8,w9
	bhs         |$LN5@ChFontDraw|
	ldr         x8,[sp,#0x10]
	add         x8,x8,#0x30
	ldr         x8,[x8]
	add         x8,x8,#0x78
	ldr         x8,[x8]
	add         x8,x8,#0x68
	add         x8,x8,#4
	ldr         w9,[x8]
	ldr         w8,[sp,#0x28]
	cmp         w8,w9
	bhs         |$LN5@ChFontDraw|

; 133  : 			for (int j = y_v, q = 0; j < y_v + font->face->glyph->bitmap.rows &&

	ldr         w8,[sp,#0x50]
	str         w8,[sp,#0x20]
	mov         w8,#0
	str         w8,[sp,#0x1C]
	b           |$LN9@ChFontDraw|
|$LN7@ChFontDraw|

; 134  : 				q < font->face->glyph->bitmap.rows; j++, q++) {

	ldr         w8,[sp,#0x20]
	add         w8,w8,#1
	str         w8,[sp,#0x20]
	ldr         w8,[sp,#0x1C]
	add         w8,w8,#1
	str         w8,[sp,#0x1C]
|$LN9@ChFontDraw|

; 133  : 			for (int j = y_v, q = 0; j < y_v + font->face->glyph->bitmap.rows &&

	ldr         x8,[sp,#0x10]
	add         x8,x8,#0x30
	ldr         x8,[x8]
	add         x8,x8,#0x78
	ldr         x8,[x8]
	add         x8,x8,#0x68
	ldr         w9,[sp,#0x50]
	ldr         w8,[x8]
	add         w9,w9,w8
	ldr         w8,[sp,#0x20]
	cmp         w8,w9
	bhs         |$LN8@ChFontDraw|
	ldr         x8,[sp,#0x10]
	add         x8,x8,#0x30
	ldr         x8,[x8]
	add         x8,x8,#0x78
	ldr         x8,[x8]
	add         x8,x8,#0x68
	ldr         w9,[x8]
	ldr         w8,[sp,#0x1C]
	cmp         w8,w9
	bhs         |$LN8@ChFontDraw|

; 135  : 				if (font->face->glyph->bitmap.buffer[q * font->face->glyph->bitmap.width + p] > 0){

	ldr         x8,[sp,#0x10]
	add         x8,x8,#0x30
	ldr         x8,[x8]
	add         x8,x8,#0x78
	ldr         x8,[x8]
	add         x8,x8,#0x68
	add         x10,x8,#0x10
	ldr         x8,[sp,#0x10]
	add         x8,x8,#0x30
	ldr         x8,[x8]
	add         x8,x8,#0x78
	ldr         x8,[x8]
	add         x8,x8,#0x68
	add         x8,x8,#4
	ldr         w9,[sp,#0x1C]
	ldr         w8,[x8]
	mul         w9,w9,w8
	ldr         w8,[sp,#0x28]
	add         w8,w9,w8
	uxtw        x9,w8
	mov         x8,#1
	mul         x9,x9,x8
	ldr         x8,[x10]
	add         x8,x8,x9
	ldrb        w8,[x8]
	mov         w8,w8
	cmp         w8,#0
	ble         |$LN13@ChFontDraw|

; 136  : 					double val = font->face->glyph->bitmap.buffer[q * font->face->glyph->bitmap.width + p] * 1.0 / 255;

	ldr         x8,[sp,#0x10]
	add         x8,x8,#0x30
	ldr         x8,[x8]
	add         x8,x8,#0x78
	ldr         x8,[x8]
	add         x8,x8,#0x68
	add         x10,x8,#0x10
	ldr         x8,[sp,#0x10]
	add         x8,x8,#0x30
	ldr         x8,[x8]
	add         x8,x8,#0x78
	ldr         x8,[x8]
	add         x8,x8,#0x68
	add         x8,x8,#4
	ldr         w9,[sp,#0x1C]
	ldr         w8,[x8]
	mul         w9,w9,w8
	ldr         w8,[sp,#0x28]
	add         w8,w9,w8
	uxtw        x9,w8
	mov         x8,#1
	mul         x9,x9,x8
	ldr         x8,[x10]
	add         x8,x8,x9
	ldrb        w8,[x8]
	mov         w8,w8
	scvtf       d17,w8
	fmov        d16,#1
	fmul        d17,d17,d16
	ldr         d16,|$LN18@ChFontDraw|
	fdiv        d16,d17,d16
	str         d16,[sp,#0x78]

; 137  : 					canv->buffer[i + j * canv->canvasWidth] =ChColorAlphaBlend(canv->buffer[i + j * canv->canvasWidth],

	ldr         x8,[sp,#0x40]
	add         x10,x8,#0x20
	ldr         x8,[sp,#0x40]
	add         x8,x8,#0x18
	ldr         w9,[sp,#0x20]
	ldr         w8,[x8]
	mul         w9,w9,w8
	ldr         w8,[sp,#0x24]
	add         w8,w8,w9
	uxtw        x9,w8
	mov         x8,#4
	mul         x9,x9,x8
	ldr         x8,[x10]
	add         x8,x8,x9
	ldr         d0,[sp,#0x78]
	ldr         w1,[sp,#0x54]
	ldr         w0,[x8]
	bl          ChColorAlphaBlend
	mov         w0,w0
	ldr         x8,[sp,#0x40]
	add         x10,x8,#0x20
	ldr         x8,[sp,#0x40]
	add         x8,x8,#0x18
	ldr         w9,[sp,#0x20]
	ldr         w8,[x8]
	mul         w9,w9,w8
	ldr         w8,[sp,#0x24]
	add         w8,w8,w9
	uxtw        x9,w8
	mov         x8,#4
	mul         x9,x9,x8
	ldr         x8,[x10]
	add         x8,x8,x9
	str         w0,[x8]

; 138  : 						color,val); //canv->buffer[i + j * canv->canvasWidth]
; 139  : 				}

	b           |$LN14@ChFontDraw|
|$LN13@ChFontDraw|

; 140  : 				else if (font->face->glyph->bitmap.buffer[q * font->face->glyph->bitmap.width] == 255)

	ldr         x8,[sp,#0x10]
	add         x8,x8,#0x30
	ldr         x8,[x8]
	add         x8,x8,#0x78
	ldr         x8,[x8]
	add         x8,x8,#0x68
	add         x10,x8,#0x10
	ldr         x8,[sp,#0x10]
	add         x8,x8,#0x30
	ldr         x8,[x8]
	add         x8,x8,#0x78
	ldr         x8,[x8]
	add         x8,x8,#0x68
	add         x8,x8,#4
	ldr         w9,[sp,#0x1C]
	ldr         w8,[x8]
	mul         w8,w9,w8
	uxtw        x9,w8
	mov         x8,#1
	mul         x9,x9,x8
	ldr         x8,[x10]
	add         x8,x8,x9
	ldrb        w8,[x8]
	mov         w8,w8
	cmp         w8,#0xFF
	bne         |$LN15@ChFontDraw|

; 141  : 					canv->buffer[i + j * canv->canvasWidth] = color;

	ldr         x8,[sp,#0x40]
	add         x10,x8,#0x20
	ldr         x8,[sp,#0x40]
	add         x8,x8,#0x18
	ldr         w9,[sp,#0x20]
	ldr         w8,[x8]
	mul         w9,w9,w8
	ldr         w8,[sp,#0x24]
	add         w8,w8,w9
	uxtw        x9,w8
	mov         x8,#4
	mul         x9,x9,x8
	ldr         x8,[x10]
	add         x9,x8,x9
	ldr         w8,[sp,#0x54]
	str         w8,[x9]
|$LN15@ChFontDraw|
|$LN14@ChFontDraw|

; 142  : 			}

	b           |$LN7@ChFontDraw|
|$LN8@ChFontDraw|

; 143  : 		}

	b           |$LN4@ChFontDraw|
|$LN5@ChFontDraw|

; 144  : 
; 145  : 		penx += font->face->glyph->advance.x >> 6;

	ldr         x8,[sp,#0x10]
	add         x8,x8,#0x30
	ldr         x8,[x8]
	add         x8,x8,#0x78
	ldr         x8,[x8]
	add         x8,x8,#0x58
	ldr         w8,[x8]
	asr         w9,w8,#6
	ldr         w8,[sp,#0x2C]
	add         w8,w8,w9
	str         w8,[sp,#0x2C]

; 146  : 		peny += font->face->glyph->advance.y >> 6;

	ldr         x8,[sp,#0x10]
	add         x8,x8,#0x30
	ldr         x8,[x8]
	add         x8,x8,#0x78
	ldr         x8,[x8]
	add         x8,x8,#0x58
	add         x8,x8,#4
	ldr         w8,[x8]
	asr         w9,w8,#6
	ldr         w8,[sp,#0x34]
	add         w8,w8,w9
	str         w8,[sp,#0x34]

; 147  : 		prev = glyfIndx;

	ldr         w8,[sp,#0x30]
	str         w8,[sp,#0x38]

; 148  : 		string++;

	ldr         x8,[sp,#0x58]
	add         x8,x8,#1
	str         x8,[sp,#0x58]

; 149  : 	}

	b           |$LN17@ChFontDraw|
|$LN3@ChFontDraw|
|$LN1@ChFontDraw|
	ldp         fp,lr,[sp],#0x80
	ret
|$LN18@ChFontDraw|
	DCFD         255

	ENDP  ; |ChFontDrawText|

; Function compile flags: /Odtp
; File C:\Users\paras\source\repos\grep-name\XenevaOS\Libs\Chitralekha\font.cpp

	AREA	|.text$mn|, CODE, ARM64

|ChFontSetSize| PROC

; 88   : void ChFontSetSize(ChFont* font, int size) {

|$LN6|
	stp         fp,lr,[sp,#-0x20]!
	mov         fp,sp
	str         x0,[sp,#0x18]
	str         w1,[sp,#0x10]

; 89   : 	if (!font)

	ldr         x8,[sp,#0x18]
	cmp         x8,#0
	bne         |$LN2@ChFontSetS|

; 90   : 		return;

	b           |$LN1@ChFontSetS|
|$LN2@ChFontSetS|

; 91   : 	font->fontSz = size / 72.f * 96;

	ldr         w8,[sp,#0x10]
	scvtf       s17,w8
	ldr         s16,|$LN4@ChFontSetS|
	fdiv        s17,s17,s16
	ldr         s16,|$LN5@ChFontSetS|
	fmul        s16,s17,s16
	fcvtzu      w9,s16
	ldr         x8,[sp,#0x18]
	add         x8,x8,#0x10
	str         w9,[x8]

; 92   : 	FT_Set_Pixel_Sizes(font->face, 0, font->fontSz);

	ldr         x8,[sp,#0x18]
	add         x9,x8,#0x10
	ldr         x8,[sp,#0x18]
	add         x8,x8,#0x30
	ldr         w2,[x9]
	mov         w1,#0
	ldr         x0,[x8]
	bl          FT_Set_Pixel_Sizes

; 93   : 	font->fontHeight = font->fontSz;

	ldr         x8,[sp,#0x18]
	add         x10,x8,#0x10
	ldr         x8,[sp,#0x18]
	add         x9,x8,#0x20
	ldr         w8,[x10]
	str         w8,[x9]
|$LN1@ChFontSetS|
	ldp         fp,lr,[sp],#0x20
	ret
|$LN4@ChFontSetS|
	DCFS         72
|$LN5@ChFontSetS|
	DCFS         96

	ENDP  ; |ChFontSetSize|

; Function compile flags: /Odtp
; File C:\Users\paras\source\repos\grep-name\XenevaOS\Libs\Chitralekha\font.cpp

	AREA	|.text$mn|, CODE, ARM64

|ChInitialiseFont| PROC

; 47   : ChFont *ChInitialiseFont(char* fontname) {

|$LN6|
	stp         fp,lr,[sp,#-0x40]!
	mov         fp,sp
	str         x0,[sp,#0x30]

; 48   : 	int id = _KeGetFontID(fontname);

	ldr         x0,[sp,#0x30]
	bl          _KeGetFontID
	mov         w0,w0
	str         w0,[sp,#0x10]

; 49   : 	if (id == 0)

	ldr         w8,[sp,#0x10]
	cmp         w8,#0
	bne         |$LN2@ChInitiali|

; 50   : 		return NULL;

	mov         x0,#0
	b           |$LN1@ChInitiali|
|$LN2@ChInitiali|

; 51   : 	int _font_id = (id >> 16) & UINT16_MAX;

	ldr         w8,[sp,#0x10]
	asr         w8,w8,#0x10
	and         w8,w8,#0xFFFF
	str         w8,[sp,#0x1C]

; 52   : 	int _font_key = id & UINT16_MAX;

	ldr         w8,[sp,#0x10]
	and         w8,w8,#0xFFFF
	str         w8,[sp,#0x20]

; 53   : 	void* buff = _KeObtainSharedMem(_font_id, NULL, 0);

	ldr         w8,[sp,#0x1C]
	uxth        w0,w8
	mov         w2,#0
	mov         x1,#0
	mov         w0,w0
	bl          _KeObtainSharedMem
	str         x0,[sp,#0x38]

; 54   : 	if (!buff)

	ldr         x8,[sp,#0x38]
	cmp         x8,#0
	bne         |$LN3@ChInitiali|

; 55   : 		return NULL;

	mov         x0,#0
	b           |$LN1@ChInitiali|
|$LN3@ChInitiali|

; 56   : 
; 57   : 	uint32_t fileSz = _KeGetFontSize(fontname);

	ldr         x0,[sp,#0x30]
	bl          _KeGetFontSize
	mov         w0,w0
	str         w0,[sp,#0x18]

; 58   : 	if (!fileSz)

	ldr         w8,[sp,#0x18]
	cmp         w8,#0
	bne         |$LN4@ChInitiali|

; 59   : 		return NULL;

	mov         x0,#0
	b           |$LN1@ChInitiali|
|$LN4@ChInitiali|

; 60   : 	
; 61   : 	ChFont* font = (ChFont*)malloc(sizeof(ChFont));

	mov         w0,#0x40
	bl          malloc
	str         x0,[sp,#0x28]

; 62   : 	memset(font, 0, sizeof(ChFont));

	ldr         x9,[sp,#0x28]
	mov         x8,#0
	stp         x8,x8,[x9]
	stp         x8,x8,[x9,#0x10]
	stp         x8,x8,[x9,#0x20]
	stp         x8,x8,[x9,#0x30]

; 63   : 	font->buffer = (uint8_t*)buff;

	ldr         x8,[sp,#0x28]
	add         x9,x8,#8
	ldr         x8,[sp,#0x38]
	str         x8,[x9]

; 64   : 	font->fileSz = fileSz;

	ldr         x9,[sp,#0x28]
	ldr         w8,[sp,#0x18]
	str         w8,[x9]

; 65   : 	font->fontSz = 32 / 72.f * 96;

	ldr         x8,[sp,#0x28]
	add         x9,x8,#0x10
	mov         w8,#0x2A
	str         w8,[x9]

; 66   : 	font->key = _font_key;

	ldr         w8,[sp,#0x20]
	uxth        w9,w8
	ldr         x8,[sp,#0x28]
	add         x8,x8,#0x14
	strh        w9,[x8]

; 67   : 	font->kern = 0;

	ldr         x8,[sp,#0x28]
	add         x9,x8,#0x18
	mov         w8,#0
	str         w8,[x9]

; 68   : #ifdef _USE_FREETYPE
; 69   : 	FT_Error err = 0;

	mov         w8,#0
	str         w8,[sp,#0x14]

; 70   : 	err = FT_Init_FreeType(&font->lib);

	ldr         x8,[sp,#0x28]
	add         x0,x8,#0x28
	bl          FT_Init_FreeType
	mov         w0,w0
	str         w0,[sp,#0x14]

; 71   : 	err = FT_New_Memory_Face(font->lib, font->buffer, font->fileSz, 0, &font->face);

	ldr         x8,[sp,#0x28]
	add         x4,x8,#0x30
	ldr         x10,[sp,#0x28]
	ldr         x8,[sp,#0x28]
	add         x9,x8,#8
	ldr         x8,[sp,#0x28]
	add         x8,x8,#0x28
	mov         w3,#0
	ldr         w2,[x10]
	ldr         x1,[x9]
	ldr         x0,[x8]
	bl          FT_New_Memory_Face
	mov         w0,w0
	str         w0,[sp,#0x14]

; 72   : 
; 73   : 	err = FT_Set_Pixel_Sizes(font->face, 0, 32);

	ldr         x8,[sp,#0x28]
	add         x8,x8,#0x30
	mov         w2,#0x20
	mov         w1,#0
	ldr         x0,[x8]
	bl          FT_Set_Pixel_Sizes
	mov         w0,w0
	str         w0,[sp,#0x14]

; 74   : 	font->slot = font->face->glyph;

	ldr         x8,[sp,#0x28]
	add         x8,x8,#0x30
	ldr         x8,[x8]
	add         x10,x8,#0x78
	ldr         x8,[sp,#0x28]
	add         x9,x8,#0x38
	ldr         x8,[x10]
	str         x8,[x9]

; 75   : 	font->lineHeight = font->face->size->metrics.height / 64;

	ldr         x8,[sp,#0x28]
	add         x8,x8,#0x30
	ldr         x8,[x8]
	add         x8,x8,#0x80
	ldr         x8,[x8]
	add         x8,x8,#0x18
	add         x8,x8,#0x14
	ldr         w9,[x8]
	mov         w8,#0x40
	sdiv        w9,w9,w8
	ldr         x8,[sp,#0x28]
	add         x8,x8,#0x1C
	str         w9,[x8]

; 76   : 	font->fontHeight = 32 / 72.f * 96;

	ldr         x8,[sp,#0x28]
	add         x9,x8,#0x20
	mov         w8,#0x2A
	str         w8,[x9]

; 77   : #endif
; 78   : 	/* start decoding true type font */
; 79   : 	//TTFLoadFont(canv,font->buffer);
; 80   : 	return font;

	ldr         x0,[sp,#0x28]
|$LN1@ChInitiali|
	ldp         fp,lr,[sp],#0x40
	ret

	ENDP  ; |ChInitialiseFont|

	END
