; Listing generated by Microsoft (R) Optimizing Compiler Version 19.29.30159.0 

	TTL	C:\Users\paras\source\repos\grep-name\XenevaOS\Libs\Chitralekha\ARM64\Debug\icon.obj
	ARM64

	AREA	|.drectve|, DRECTVE

	EXPORT	|?warning@@3PEAU_icon_@@EA| [ DATA ]	; warning
	EXPORT	|?success@@3PEAU_icon_@@EA| [ DATA ]	; success
	EXPORT	|?exclaim@@3PEAU_icon_@@EA| [ DATA ]	; exclaim
	EXPORT	|?information@@3PEAU_icon_@@EA| [ DATA ] ; information

	AREA	|.bss|, NOINIT
|?warning@@3PEAU_icon_@@EA| % 0x8			; warning
|?success@@3PEAU_icon_@@EA| % 0x8			; success
|?exclaim@@3PEAU_icon_@@EA| % 0x8			; exclaim
|?information@@3PEAU_icon_@@EA| % 0x8			; information
	EXPORT	|ChCreateIcon|
	EXPORT	|ChIconOpen|
	EXPORT	|ChIconRead|
	EXPORT	|ChDrawIcon|
	EXPORT	|ChDrawIconClipped|
	EXPORT	|?ChInitialiseDefaultIcons@@YAXXZ|	; ChInitialiseDefaultIcons
	EXPORT	|ChIconGetSystemIcon|
	IMPORT	|malloc|
	IMPORT	|ChDrawPixel|
	IMPORT	|_KeOpenFile|
	IMPORT	|_KeReadFile|
	IMPORT	|_KeFileStat|
	IMPORT	|_KeMemMap|

	AREA	|.pdata|, PDATA
|$pdata$ChCreateIcon| DCD imagerel |$LN3|
	DCD	0x1600049
	;Flags[SingleProEpi] functionLength[72] RegF[0] RegI[0] H[0] frameChainReturn[Chained] frameSize[32]
|$pdata$ChIconOpen| DCD imagerel |$LN4|
	DCD	0x2e000b1
	;Flags[SingleProEpi] functionLength[176] RegF[0] RegI[0] H[0] frameChainReturn[Chained] frameSize[80]
|$pdata$ChIconRead| DCD imagerel |$LN5|
	DCD	0x2e0013d
	;Flags[SingleProEpi] functionLength[316] RegF[0] RegI[0] H[0] frameChainReturn[Chained] frameSize[80]
|$pdata$ChDrawIcon| DCD imagerel |$LN11|
	DCD	0x3e00255
	;Flags[SingleProEpi] functionLength[596] RegF[0] RegI[0] H[0] frameChainReturn[Chained] frameSize[112]
|$pdata$ChDrawIconClipped| DCD imagerel |$LN19|
	DCD	0x4600421
	;Flags[SingleProEpi] functionLength[1056] RegF[0] RegI[0] H[0] frameChainReturn[Chained] frameSize[128]
|$pdata$ChIconGetSystemIcon| DCD imagerel |$LN15|
	DCD	0x800079
	;Flags[SingleProEpi] functionLength[120] RegF[0] RegI[0] H[0] frameChainReturn[UnChained] frameSize[16]
; Function compile flags: /Odtp
; File C:\Users\paras\source\repos\grep-name\XenevaOS\Libs\Chitralekha\widgets\icon.cpp

	AREA	|.text$mn|, CODE, ARM64

|ChIconGetSystemIcon| PROC

; 218  : ChIcon* ChIconGetSystemIcon(uint8_t iconnum){

|$LN15|
	sub         sp,sp,#0x10
	uxtb        w8,w0
	strb        w8,[sp]

; 219  : 	switch (iconnum) {

	ldrb        w8,[sp]
	mov         w8,w8
	str         w8,[sp,#4]
	ldr         w8,[sp,#4]
	sub         w8,w8,#0x64
	str         w8,[sp,#4]
	ldr         w8,[sp,#4]
	cmp         w8,#3
	bhi         |$LN8@ChIconGetS|
	ldr         w10,[sp,#4]
	adr         x9,__swt
	ldrsb       x8,[x9,w10 uxtw #0]
	add         x8,x9,x8,lsl #2
	br          x8
|$LN4@ChIconGetS|

; 220  : 	case CHITRALEKHA_ICON_WARNING:
; 221  : 		return 0;

	mov         x0,#0
	b           |$LN1@ChIconGetS|
|$LN5@ChIconGetS|

; 222  : 	case CHITRALEKHA_ICON_SUCCESS:
; 223  : 		return success;

	adrp        x8,|?success@@3PEAU_icon_@@EA|
	ldr         x0,[x8,PageOffset(|?success@@3PEAU_icon_@@EA|)]
	b           |$LN1@ChIconGetS|
|$LN6@ChIconGetS|

; 224  : 	case CHITRALEKHA_ICON_EXCLAIMATION:
; 225  : 		return 0;

	mov         x0,#0
	b           |$LN1@ChIconGetS|
|$LN7@ChIconGetS|

; 226  : 	case CHITRALEKHA_ICON_INFORMATION:
; 227  : 		return information;

	adrp        x8,|?information@@3PEAU_icon_@@EA|
	ldr         x0,[x8,PageOffset(|?information@@3PEAU_icon_@@EA|)]
	b           |$LN1@ChIconGetS|
|$LN8@ChIconGetS|

; 228  : 	default:
; 229  : 		return NULL;

	mov         x0,#0
|$LN1@ChIconGetS|
	add         sp,sp,#0x10
	ret
|__swt|
|$LN11@ChIconGetS|

; 219  : 	switch (iconnum) {

	DCB         0xf3
|$LN12@ChIconGetS|
	DCB         0xf5
|$LN13@ChIconGetS|
	DCB         0xfa
|$LN14@ChIconGetS|
	DCB         0xf8

	ENDP  ; |ChIconGetSystemIcon|

; Function compile flags: /Odtp
; File C:\Users\paras\source\repos\grep-name\XenevaOS\Libs\Chitralekha\widgets\icon.cpp

	AREA	|.text$mn|, CODE, ARM64

|?ChInitialiseDefaultIcons@@YAXXZ| PROC			; ChInitialiseDefaultIcons

; 202  : void ChInitialiseDefaultIcons() {

	ret

	ENDP  ; |?ChInitialiseDefaultIcons@@YAXXZ|, ChInitialiseDefaultIcons

; Function compile flags: /Odtp
; File C:\Users\paras\source\repos\grep-name\XenevaOS\Libs\Chitralekha\widgets\icon.cpp

	AREA	|.text$mn|, CODE, ARM64

|ChDrawIconClipped| PROC

; 137  : XE_EXTERN XE_LIB void ChDrawIconClipped(ChCanvas* canv, ChIcon* ico, int x, int y, ChRect *limit){

|$LN19|
	stp         fp,lr,[sp,#-0x80]!
	mov         fp,sp
	str         x0,[sp,#0x78]
	str         x1,[sp,#0x48]
	str         w2,[sp,#0x28]
	str         w3,[sp,#0x20]
	str         x4,[sp,#0x18]

; 138  : 	if (!ico)

	ldr         x8,[sp,#0x48]
	cmp         x8,#0
	bne         |$LN8@ChDrawIcon|

; 139  : 		return;

	b           |$LN1@ChDrawIcon|
|$LN8@ChDrawIcon|

; 140  : 
; 141  : 	uint32_t width = ico->image.width;

	ldr         x8,[sp,#0x48]
	add         x8,x8,#8
	add         x8,x8,#8
	ldr         w8,[x8]
	str         w8,[sp,#0x30]

; 142  : 	uint32_t height = ico->image.height;

	ldr         x8,[sp,#0x48]
	add         x8,x8,#8
	add         x8,x8,#0xC
	ldr         w8,[x8]
	str         w8,[sp,#0x24]

; 143  : 	uint32_t imageHeight = height;

	ldr         w8,[sp,#0x24]
	str         w8,[sp,#0x34]

; 144  : 	uint32_t j = 0;

	mov         w8,#0
	str         w8,[sp,#0x10]

; 145  : 
; 146  : 	if (x > (limit->x + limit->w))

	ldr         x9,[sp,#0x18]
	ldr         x8,[sp,#0x18]
	add         x8,x8,#8
	ldr         w9,[x9]
	ldr         w8,[x8]
	add         w9,w9,w8
	ldr         w8,[sp,#0x28]
	cmp         w8,w9
	ble         |$LN9@ChDrawIcon|

; 147  : 		return;

	b           |$LN1@ChDrawIcon|
|$LN9@ChDrawIcon|

; 148  : 
; 149  : 	if (y > (limit->y + limit->h))

	ldr         x8,[sp,#0x18]
	add         x9,x8,#4
	ldr         x8,[sp,#0x18]
	add         x8,x8,#0xC
	ldr         w9,[x9]
	ldr         w8,[x8]
	add         w9,w9,w8
	ldr         w8,[sp,#0x20]
	cmp         w8,w9
	ble         |$LN10@ChDrawIcon|

; 150  : 		return;

	b           |$LN1@ChDrawIcon|
|$LN10@ChDrawIcon|

; 151  : 
; 152  : 
; 153  : 	if (y <= limit->y){

	ldr         x8,[sp,#0x18]
	add         x8,x8,#4
	ldr         w9,[x8]
	ldr         w8,[sp,#0x20]
	cmp         w8,w9
	bgt         |$LN11@ChDrawIcon|

; 154  : 		int diff = limit->y - y;

	ldr         x8,[sp,#0x18]
	add         x8,x8,#4
	ldr         w9,[x8]
	ldr         w8,[sp,#0x20]
	sub         w8,w9,w8
	str         w8,[sp,#0x3C]

; 155  : 		y = limit->y;

	ldr         x8,[sp,#0x18]
	add         x8,x8,#4
	ldr         w8,[x8]
	str         w8,[sp,#0x20]

; 156  : 		height -= diff;

	ldr         w9,[sp,#0x24]
	ldr         w8,[sp,#0x3C]
	sub         w8,w9,w8
	str         w8,[sp,#0x24]

; 157  : 		imageHeight -= diff;

	ldr         w9,[sp,#0x34]
	ldr         w8,[sp,#0x3C]
	sub         w8,w9,w8
	str         w8,[sp,#0x34]
|$LN11@ChDrawIcon|

; 158  : 	}
; 159  : 
; 160  : 	if (x <= limit->x)

	ldr         x8,[sp,#0x18]
	ldr         w9,[x8]
	ldr         w8,[sp,#0x28]
	cmp         w8,w9
	bgt         |$LN12@ChDrawIcon|

; 161  : 		x = limit->x;

	ldr         x8,[sp,#0x18]
	ldr         w8,[x8]
	str         w8,[sp,#0x28]
|$LN12@ChDrawIcon|

; 162  : 
; 163  : 	if ((y + height) <= limit->y)

	ldr         w9,[sp,#0x20]
	ldr         w8,[sp,#0x24]
	add         w9,w9,w8
	ldr         x8,[sp,#0x18]
	add         x8,x8,#4
	ldr         w8,[x8]
	cmp         w9,w8
	bhi         |$LN13@ChDrawIcon|

; 164  : 		return;

	b           |$LN1@ChDrawIcon|
|$LN13@ChDrawIcon|

; 165  : 
; 166  : 	if ((x + width) <= limit->x)

	ldr         w9,[sp,#0x28]
	ldr         w8,[sp,#0x30]
	add         w9,w9,w8
	ldr         x8,[sp,#0x18]
	ldr         w8,[x8]
	cmp         w9,w8
	bhi         |$LN14@ChDrawIcon|

; 167  : 		return;

	b           |$LN1@ChDrawIcon|
|$LN14@ChDrawIcon|

; 168  : 
; 169  : 	if ((x + width) > (limit->x + limit->w))

	ldr         w9,[sp,#0x28]
	ldr         w8,[sp,#0x30]
	add         w10,w9,w8
	ldr         x9,[sp,#0x18]
	ldr         x8,[sp,#0x18]
	add         x8,x8,#8
	ldr         w9,[x9]
	ldr         w8,[x8]
	add         w8,w9,w8
	cmp         w10,w8
	bls         |$LN15@ChDrawIcon|

; 170  : 		width = (limit->x + limit->w) - x;

	ldr         x9,[sp,#0x18]
	ldr         x8,[sp,#0x18]
	add         x8,x8,#8
	ldr         w9,[x9]
	ldr         w8,[x8]
	add         w9,w9,w8
	ldr         w8,[sp,#0x28]
	sub         w8,w9,w8
	str         w8,[sp,#0x30]
|$LN15@ChDrawIcon|

; 171  : 
; 172  : 	if ((y + height) > (limit->y + limit->h))

	ldr         w9,[sp,#0x20]
	ldr         w8,[sp,#0x24]
	add         w10,w9,w8
	ldr         x8,[sp,#0x18]
	add         x9,x8,#4
	ldr         x8,[sp,#0x18]
	add         x8,x8,#0xC
	ldr         w9,[x9]
	ldr         w8,[x8]
	add         w8,w9,w8
	cmp         w10,w8
	bls         |$LN16@ChDrawIcon|

; 173  : 		height = (limit->y + limit->h) - y;

	ldr         x8,[sp,#0x18]
	add         x9,x8,#4
	ldr         x8,[sp,#0x18]
	add         x8,x8,#0xC
	ldr         w9,[x9]
	ldr         w8,[x8]
	add         w9,w9,w8
	ldr         w8,[sp,#0x20]
	sub         w8,w9,w8
	str         w8,[sp,#0x24]
|$LN16@ChDrawIcon|

; 174  : 
; 175  : 	uint8_t* image = ico->image.data;

	ldr         x8,[sp,#0x48]
	add         x8,x8,#8
	ldr         x8,[x8]
	str         x8,[sp,#0x70]

; 176  : 	for (int i = 0; i < height; i++) {

	mov         w8,#0
	str         w8,[sp,#0x2C]
	b           |$LN4@ChDrawIcon|
|$LN2@ChDrawIcon|
	ldr         w8,[sp,#0x2C]
	add         w8,w8,#1
	str         w8,[sp,#0x2C]
|$LN4@ChDrawIcon|
	ldr         w9,[sp,#0x24]
	ldr         w8,[sp,#0x2C]
	cmp         w8,w9
	bhs         |$LN3@ChDrawIcon|

; 177  : 		char* image_row = (char*)image + (static_cast<uint64_t>(imageHeight) - i - 1) * (

	ldr         w8,[sp,#0x34]
	uxtw        x9,w8
	ldr         w8,[sp,#0x2C]
	sxtw        x8,w8
	sub         x8,x9,x8
	sub         x10,x8,#1
	ldr         w8,[sp,#0x30]
	uxtw        x9,w8
	mov         x8,#4
	mul         x8,x9,x8
	mul         x9,x10,x8
	ldr         x8,[sp,#0x70]
	add         x8,x8,x9
	str         x8,[sp,#0x50]

; 178  : 			static_cast<uint64_t>(width) * 4);
; 179  : 		uint32_t h = imageHeight - 1 - i;

	ldr         w8,[sp,#0x34]
	sub         w9,w8,#1
	ldr         w8,[sp,#0x2C]
	sub         w8,w9,w8
	str         w8,[sp,#0x68]

; 180  : 		j = 0;

	mov         w8,#0
	str         w8,[sp,#0x10]

; 181  : 		for (int k = 0; k < width; k++) {

	mov         w8,#0
	str         w8,[sp,#0x38]
	b           |$LN7@ChDrawIcon|
|$LN5@ChDrawIcon|
	ldr         w8,[sp,#0x38]
	add         w8,w8,#1
	str         w8,[sp,#0x38]
|$LN7@ChDrawIcon|
	ldr         w9,[sp,#0x30]
	ldr         w8,[sp,#0x38]
	cmp         w8,w9
	bhs         |$LN6@ChDrawIcon|

; 182  : 			uint32_t b = image_row[j++] & 0xff;

	ldr         w8,[sp,#0x10]
	uxtw        x9,w8
	mov         x8,#1
	mul         x9,x9,x8
	ldr         x8,[sp,#0x50]
	add         x8,x8,x9
	ldrsb       w8,[x8]
	mov         w8,w8
	and         w8,w8,#0xFF
	str         w8,[sp,#0x64]
	ldr         w8,[sp,#0x10]
	add         w8,w8,#1
	str         w8,[sp,#0x10]

; 183  : 			uint32_t g = image_row[j++] & 0xff;

	ldr         w8,[sp,#0x10]
	uxtw        x9,w8
	mov         x8,#1
	mul         x9,x9,x8
	ldr         x8,[sp,#0x50]
	add         x8,x8,x9
	ldrsb       w8,[x8]
	mov         w8,w8
	and         w8,w8,#0xFF
	str         w8,[sp,#0x60]
	ldr         w8,[sp,#0x10]
	add         w8,w8,#1
	str         w8,[sp,#0x10]

; 184  : 			uint32_t r = image_row[j++] & 0xff;

	ldr         w8,[sp,#0x10]
	uxtw        x9,w8
	mov         x8,#1
	mul         x9,x9,x8
	ldr         x8,[sp,#0x50]
	add         x8,x8,x9
	ldrsb       w8,[x8]
	mov         w8,w8
	and         w8,w8,#0xFF
	str         w8,[sp,#0x5C]
	ldr         w8,[sp,#0x10]
	add         w8,w8,#1
	str         w8,[sp,#0x10]

; 185  : 			uint32_t a = image_row[j++] & 0xff;

	ldr         w8,[sp,#0x10]
	uxtw        x9,w8
	mov         x8,#1
	mul         x9,x9,x8
	ldr         x8,[sp,#0x50]
	add         x8,x8,x9
	ldrsb       w8,[x8]
	mov         w8,w8
	and         w8,w8,#0xFF
	str         w8,[sp,#0x58]
	ldr         w8,[sp,#0x10]
	add         w8,w8,#1
	str         w8,[sp,#0x10]

; 186  : 			uint32_t rgb = ((a << 24) | (r << 16) | (g << 8) | (b));

	ldr         w8,[sp,#0x58]
	lsl         w9,w8,#0x18
	ldr         w8,[sp,#0x5C]
	lsl         w8,w8,#0x10
	orr         w9,w9,w8
	ldr         w8,[sp,#0x60]
	lsl         w8,w8,#8
	orr         w9,w9,w8
	ldr         w8,[sp,#0x64]
	orr         w8,w9,w8
	str         w8,[sp,#0x40]

; 187  : 			if (rgb & 0xFF000000)

	ldr         w8,[sp,#0x40]
	and         w8,w8,#0xFF000000
	cmp         w8,#0
	beq         |$LN17@ChDrawIcon|

; 188  : 				ChDrawPixel(canv, x + k, y + i, rgb);

	ldr         w9,[sp,#0x20]
	ldr         w8,[sp,#0x2C]
	add         w2,w9,w8
	ldr         w9,[sp,#0x28]
	ldr         w8,[sp,#0x38]
	add         w1,w9,w8
	ldr         w3,[sp,#0x40]
	mov         w2,w2
	mov         w1,w1
	ldr         x0,[sp,#0x78]
	bl          ChDrawPixel
|$LN17@ChDrawIcon|

; 189  : 		}

	b           |$LN5@ChDrawIcon|
|$LN6@ChDrawIcon|

; 190  : 	}

	b           |$LN2@ChDrawIcon|
|$LN3@ChDrawIcon|
|$LN1@ChDrawIcon|
	ldp         fp,lr,[sp],#0x80
	ret

	ENDP  ; |ChDrawIconClipped|

; Function compile flags: /Odtp
; File C:\Users\paras\source\repos\grep-name\XenevaOS\Libs\Chitralekha\widgets\icon.cpp

	AREA	|.text$mn|, CODE, ARM64

|ChDrawIcon| PROC

; 103  : XE_EXTERN XE_LIB void ChDrawIcon(ChCanvas* canv, ChIcon* ico, int x, int y){

|$LN11|
	stp         fp,lr,[sp,#-0x70]!
	mov         fp,sp
	str         x0,[sp,#0x60]
	str         x1,[sp,#0x28]
	str         w2,[sp,#0x4C]
	str         w3,[sp,#0x48]

; 104  : 	if (!ico)

	ldr         x8,[sp,#0x28]
	cmp         x8,#0
	bne         |$LN8@ChDrawIcon|

; 105  : 		return;

	b           |$LN1@ChDrawIcon|
|$LN8@ChDrawIcon|

; 106  : 
; 107  : 	uint32_t width = ico->image.width;

	ldr         x8,[sp,#0x28]
	add         x8,x8,#8
	add         x8,x8,#8
	ldr         w8,[x8]
	str         w8,[sp,#0x20]

; 108  : 	uint32_t height = ico->image.height;

	ldr         x8,[sp,#0x28]
	add         x8,x8,#8
	add         x8,x8,#0xC
	ldr         w8,[x8]
	str         w8,[sp,#0x1C]

; 109  : 	uint32_t j = 0;

	mov         w8,#0
	str         w8,[sp,#0x10]

; 110  : 
; 111  : 	uint8_t* image = ico->image.data;

	ldr         x8,[sp,#0x28]
	add         x8,x8,#8
	ldr         x8,[x8]
	str         x8,[sp,#0x58]

; 112  : 	for (int i = 0; i < height; i++) {

	mov         w8,#0
	str         w8,[sp,#0x14]
	b           |$LN4@ChDrawIcon|
|$LN2@ChDrawIcon|
	ldr         w8,[sp,#0x14]
	add         w8,w8,#1
	str         w8,[sp,#0x14]
|$LN4@ChDrawIcon|
	ldr         w9,[sp,#0x1C]
	ldr         w8,[sp,#0x14]
	cmp         w8,w9
	bhs         |$LN3@ChDrawIcon|

; 113  : 		char* image_row = ((char*)image + (static_cast<uint64_t>(height) - i - 1) *

	ldr         w8,[sp,#0x1C]
	uxtw        x9,w8
	ldr         w8,[sp,#0x14]
	sxtw        x8,w8
	sub         x8,x9,x8
	sub         x10,x8,#1
	ldr         w8,[sp,#0x20]
	uxtw        x9,w8
	mov         x8,#4
	mul         x8,x9,x8
	mul         x9,x10,x8
	ldr         x8,[sp,#0x58]
	add         x8,x8,x9
	str         x8,[sp,#0x30]

; 114  : 			(static_cast<uint64_t>(width) * 4));
; 115  : 		uint32_t h = height - 1 - i;

	ldr         w8,[sp,#0x1C]
	sub         w9,w8,#1
	ldr         w8,[sp,#0x14]
	sub         w8,w9,w8
	str         w8,[sp,#0x50]

; 116  : 		j = 0;

	mov         w8,#0
	str         w8,[sp,#0x10]

; 117  : 		for (int k = 0; k < width; k++) {

	mov         w8,#0
	str         w8,[sp,#0x18]
	b           |$LN7@ChDrawIcon|
|$LN5@ChDrawIcon|
	ldr         w8,[sp,#0x18]
	add         w8,w8,#1
	str         w8,[sp,#0x18]
|$LN7@ChDrawIcon|
	ldr         w9,[sp,#0x20]
	ldr         w8,[sp,#0x18]
	cmp         w8,w9
	bhs         |$LN6@ChDrawIcon|

; 118  : 			uint32_t b = image_row[j++] & 0xff;

	ldr         w8,[sp,#0x10]
	uxtw        x9,w8
	mov         x8,#1
	mul         x9,x9,x8
	ldr         x8,[sp,#0x30]
	add         x8,x8,x9
	ldrsb       w8,[x8]
	mov         w8,w8
	and         w8,w8,#0xFF
	str         w8,[sp,#0x44]
	ldr         w8,[sp,#0x10]
	add         w8,w8,#1
	str         w8,[sp,#0x10]

; 119  : 			uint32_t g = image_row[j++] & 0xff;

	ldr         w8,[sp,#0x10]
	uxtw        x9,w8
	mov         x8,#1
	mul         x9,x9,x8
	ldr         x8,[sp,#0x30]
	add         x8,x8,x9
	ldrsb       w8,[x8]
	mov         w8,w8
	and         w8,w8,#0xFF
	str         w8,[sp,#0x40]
	ldr         w8,[sp,#0x10]
	add         w8,w8,#1
	str         w8,[sp,#0x10]

; 120  : 			uint32_t r = image_row[j++] & 0xff;

	ldr         w8,[sp,#0x10]
	uxtw        x9,w8
	mov         x8,#1
	mul         x9,x9,x8
	ldr         x8,[sp,#0x30]
	add         x8,x8,x9
	ldrsb       w8,[x8]
	mov         w8,w8
	and         w8,w8,#0xFF
	str         w8,[sp,#0x3C]
	ldr         w8,[sp,#0x10]
	add         w8,w8,#1
	str         w8,[sp,#0x10]

; 121  : 			uint32_t a = image_row[j++] & 0xff;

	ldr         w8,[sp,#0x10]
	uxtw        x9,w8
	mov         x8,#1
	mul         x9,x9,x8
	ldr         x8,[sp,#0x30]
	add         x8,x8,x9
	ldrsb       w8,[x8]
	mov         w8,w8
	and         w8,w8,#0xFF
	str         w8,[sp,#0x38]
	ldr         w8,[sp,#0x10]
	add         w8,w8,#1
	str         w8,[sp,#0x10]

; 122  : 			uint32_t rgb = ((a << 24) | (r << 16) | (g << 8) | (b));

	ldr         w8,[sp,#0x38]
	lsl         w9,w8,#0x18
	ldr         w8,[sp,#0x3C]
	lsl         w8,w8,#0x10
	orr         w9,w9,w8
	ldr         w8,[sp,#0x40]
	lsl         w8,w8,#8
	orr         w9,w9,w8
	ldr         w8,[sp,#0x44]
	orr         w8,w9,w8
	str         w8,[sp,#0x24]

; 123  : 			if (rgb & 0xFF000000)

	ldr         w8,[sp,#0x24]
	and         w8,w8,#0xFF000000
	cmp         w8,#0
	beq         |$LN9@ChDrawIcon|

; 124  : 				ChDrawPixel(canv, x + k, y + i, rgb);

	ldr         w9,[sp,#0x48]
	ldr         w8,[sp,#0x14]
	add         w2,w9,w8
	ldr         w9,[sp,#0x4C]
	ldr         w8,[sp,#0x18]
	add         w1,w9,w8
	ldr         w3,[sp,#0x24]
	mov         w2,w2
	mov         w1,w1
	ldr         x0,[sp,#0x60]
	bl          ChDrawPixel
|$LN9@ChDrawIcon|

; 125  : 		}

	b           |$LN5@ChDrawIcon|
|$LN6@ChDrawIcon|

; 126  : 	}

	b           |$LN2@ChDrawIcon|
|$LN3@ChDrawIcon|
|$LN1@ChDrawIcon|
	ldp         fp,lr,[sp],#0x70
	ret

	ENDP  ; |ChDrawIcon|

; Function compile flags: /Odtp
; File C:\Users\paras\source\repos\grep-name\XenevaOS\Libs\Chitralekha\widgets\icon.cpp

	AREA	|.text$mn|, CODE, ARM64

|ChIconRead| PROC

; 74   : XE_EXTERN XE_LIB void ChIconRead(ChIcon* ico) {

|$LN5|
	stp         fp,lr,[sp,#-0x50]!
	mov         fp,sp
	str         x0,[sp,#0x10]

; 75   : 	if (ico->image.fd == -1)

	ldr         x8,[sp,#0x10]
	add         x8,x8,#8
	add         x8,x8,#0x10
	ldr         w8,[x8]
	cmn         w8,#1
	bne         |$LN2@ChIconRead|

; 76   : 		return;

	b           |$LN1@ChIconRead|
|$LN2@ChIconRead|

; 77   : 	if (!ico->image.image)

	ldr         x8,[sp,#0x10]
	add         x8,x8,#8
	add         x8,x8,#0x18
	ldr         x8,[x8]
	cmp         x8,#0
	bne         |$LN3@ChIconRead|

; 78   : 		return;

	b           |$LN1@ChIconRead|
|$LN3@ChIconRead|

; 79   : 	_KeReadFile(ico->image.fd, ico->image.image, ico->image.filesz);

	ldr         x8,[sp,#0x10]
	add         x8,x8,#8
	add         x8,x8,#0x14
	ldr         w8,[x8]
	sxtw        x2,w8
	ldr         x8,[sp,#0x10]
	add         x8,x8,#8
	add         x9,x8,#0x18
	ldr         x8,[sp,#0x10]
	add         x8,x8,#8
	add         x8,x8,#0x10
	ldr         x1,[x9]
	ldr         w0,[x8]
	bl          _KeReadFile

; 80   : 	uint8_t* buffer = (uint8_t*)ico->image.image;

	ldr         x8,[sp,#0x10]
	add         x8,x8,#8
	add         x8,x8,#0x18
	ldr         x8,[x8]
	str         x8,[sp,#0x30]

; 81   : 
; 82   : 	BMP* bmp = (BMP*)buffer;

	ldr         x8,[sp,#0x30]
	str         x8,[sp,#0x40]

; 83   : 	unsigned int offset = bmp->off_bits;

	ldr         x8,[sp,#0x40]
	add         x8,x8,#0xA
	ldr         w8,[x8]
	str         w8,[sp,#0x18]

; 84   : 
; 85   : 	BMPInfo* info = (BMPInfo*)(buffer + sizeof(BMP));

	ldr         x8,[sp,#0x30]
	add         x8,x8,#0xE
	str         x8,[sp,#0x28]

; 86   : 	int width = info->biWidth;

	ldr         x8,[sp,#0x28]
	add         x8,x8,#4
	ldr         w8,[x8]
	str         w8,[sp,#0x1C]

; 87   : 	int height = info->biHeight;

	ldr         x8,[sp,#0x28]
	add         x8,x8,#8
	ldr         w8,[x8]
	str         w8,[sp,#0x20]

; 88   : 	int bpp = info->biBitCount;

	ldr         x8,[sp,#0x28]
	add         x8,x8,#0xE
	ldrh        w8,[x8]
	mov         w8,w8
	str         w8,[sp,#0x38]

; 89   : 
; 90   : 	void* image_bytes = (void*)(buffer + offset);

	ldr         w8,[sp,#0x18]
	uxtw        x9,w8
	ldr         x8,[sp,#0x30]
	add         x8,x8,x9
	str         x8,[sp,#0x48]

; 91   : 	ico->image.data = (uint8_t*)image_bytes;

	ldr         x8,[sp,#0x10]
	add         x9,x8,#8
	ldr         x8,[sp,#0x48]
	str         x8,[x9]

; 92   : 	ico->image.width = width;

	ldr         x8,[sp,#0x10]
	add         x8,x8,#8
	add         x9,x8,#8
	ldr         w8,[sp,#0x1C]
	str         w8,[x9]

; 93   : 	ico->image.height = height;

	ldr         x8,[sp,#0x10]
	add         x8,x8,#8
	add         x9,x8,#0xC
	ldr         w8,[sp,#0x20]
	str         w8,[x9]
|$LN1@ChIconRead|
	ldp         fp,lr,[sp],#0x50
	ret

	ENDP  ; |ChIconRead|

; Function compile flags: /Odtp
; File C:\Users\paras\source\repos\grep-name\XenevaOS\Libs\Chitralekha\widgets\icon.cpp

	AREA	|.text$mn|, CODE, ARM64

|ChIconOpen| PROC

; 55   : XE_EXTERN XE_LIB void ChIconOpen(ChIcon* ico, char* filename){

|$LN4|
	stp         fp,lr,[sp,#-0x50]!
	mov         fp,sp
	str         x0,[sp,#0x18]
	str         x1,[sp,#0x20]

; 56   : 	int fd = _KeOpenFile(filename, FILE_OPEN_READ_ONLY);

	mov         w1,#2
	ldr         x0,[sp,#0x20]
	bl          _KeOpenFile
	mov         w0,w0
	str         w0,[sp,#0x10]

; 57   : 
; 58   : 	if (fd == -1)

	ldr         w8,[sp,#0x10]
	cmn         w8,#1
	bne         |$LN2@ChIconOpen|

; 59   : 		return;

	b           |$LN1@ChIconOpen|
|$LN2@ChIconOpen|

; 60   : 
; 61   : 	XEFileStatus stat;
; 62   : 	_KeFileStat(fd, &stat);

	add         x1,sp,#0x28
	ldr         w0,[sp,#0x10]
	bl          _KeFileStat

; 63   : 
; 64   : 	ico->image.image = (uint8_t*)_KeMemMap(NULL, stat.size, 0, 0, MEMMAP_NO_FILEDESC, 0);

	mov         x5,#0
	mov         w4,#-1
	mov         w3,#0
	mov         w2,#0
	ldr         x1,[sp,#0x30]
	mov         x0,#0
	bl          _KeMemMap
	ldr         x8,[sp,#0x18]
	add         x8,x8,#8
	add         x8,x8,#0x18
	str         x0,[x8]

; 65   : 	ico->format = CHITRALEKHA_ICON_BMP;

	ldr         x8,[sp,#0x18]
	add         x9,x8,#0x28
	mov         w8,#2
	strb        w8,[x9]

; 66   : 	ico->image.fd = fd;

	ldr         x8,[sp,#0x18]
	add         x8,x8,#8
	add         x9,x8,#0x10
	ldr         w8,[sp,#0x10]
	str         w8,[x9]

; 67   : 	ico->image.filesz = stat.size;

	ldr         x8,[sp,#0x30]
	mov         w9,w8
	ldr         x8,[sp,#0x18]
	add         x8,x8,#8
	add         x8,x8,#0x14
	str         w9,[x8]
|$LN1@ChIconOpen|
	ldp         fp,lr,[sp],#0x50
	ret

	ENDP  ; |ChIconOpen|

; Function compile flags: /Odtp
; File C:\Users\paras\source\repos\grep-name\XenevaOS\Libs\Chitralekha\widgets\icon.cpp

	AREA	|.text$mn|, CODE, ARM64

|ChCreateIcon| PROC

; 43   : XE_EXTERN XE_LIB ChIcon *ChCreateIcon(){

|$LN3|
	stp         fp,lr,[sp,#-0x20]!
	mov         fp,sp

; 44   : 	ChIcon* ico = (ChIcon*)malloc(sizeof(ChIcon));

	mov         w0,#0x30
	bl          malloc
	str         x0,[sp,#0x10]

; 45   : 	memset(ico, 0, sizeof(ChIcon));

	ldr         x9,[sp,#0x10]
	mov         x8,#0
	stp         x8,x8,[x9]
	stp         x8,x8,[x9,#0x10]
	stp         x8,x8,[x9,#0x20]

; 46   : 	ico->image.fd = -1;

	ldr         x8,[sp,#0x10]
	add         x8,x8,#8
	add         x9,x8,#0x10
	mov         w8,#-1
	str         w8,[x9]

; 47   : 	return ico;

	ldr         x0,[sp,#0x10]
	ldp         fp,lr,[sp],#0x20
	ret

	ENDP  ; |ChCreateIcon|

	END
