; Listing generated by Microsoft (R) Optimizing Compiler Version 19.29.30159.0 

	TTL	C:\Users\paras\source\repos\grep-name\XenevaOS\Libs\Chitralekha\ARM64\Debug\keycode.obj
	ARM64

	AREA	|.drectve|, DRECTVE

	EXPORT	|?chkey@@3PEAU_chitralekha_key_@@EA| [ DATA ] ; chkey

	AREA	|.bss|, NOINIT
|?chkey@@3PEAU_chitralekha_key_@@EA| % 0x8		; chkey
	EXPORT	|ChitralekhaKeyInitialise|
	EXPORT	|ChitralekhaProcessKey|
	EXPORT	|ChitralekhaKeyToASCII|
	EXPORT	|ChitralekhaGetKeyPress|
	EXPORT	|ChitralekhaKeyGetCTRL|
	EXPORT	|ChitralekhaKeyGetAlt|
	EXPORT	|ChitralekhaKeyGetShift|
	EXPORT	|ChitralekhaKeySetCtrl|
	EXPORT	|ChitralekhaKeySetAlt|
	EXPORT	|ChitralekhaKeySetShift|
	EXPORT	|ChitralekhaKeySetCapslock|
	EXPORT	|ChitralekhaKeyGetCapslock|
	IMPORT	|isascii|
	IMPORT	|malloc|

	AREA	|.pdata|, PDATA
|$pdata$ChitralekhaKeyInitialise| DCD imagerel |$LN3|
	DCD	0xe00035
	;Flags[SingleProEpi] functionLength[52] RegF[0] RegI[0] H[0] frameChainReturn[Chained] frameSize[16]
|$pdata$ChitralekhaProcessKey| DCD imagerel |$LN54|
	DCD	0x10002c1
	;Flags[SingleProEpi] functionLength[704] RegF[0] RegI[0] H[0] frameChainReturn[UnChained] frameSize[32]
|$pdata$ChitralekhaKeyToASCII| DCD imagerel |$LN60|
	DCD	0x1e00301
	;Flags[SingleProEpi] functionLength[768] RegF[0] RegI[0] H[0] frameChainReturn[Chained] frameSize[48]
|$pdata$ChitralekhaGetKeyPress| DCD imagerel |$LN4|
	DCD	0x800055
	;Flags[SingleProEpi] functionLength[84] RegF[0] RegI[0] H[0] frameChainReturn[UnChained] frameSize[16]
|$pdata$ChitralekhaKeySetCtrl| DCD imagerel |$LN3|
	DCD	0x800029
	;Flags[SingleProEpi] functionLength[40] RegF[0] RegI[0] H[0] frameChainReturn[UnChained] frameSize[16]
|$pdata$ChitralekhaKeySetAlt| DCD imagerel |$LN3|
	DCD	0x800029
	;Flags[SingleProEpi] functionLength[40] RegF[0] RegI[0] H[0] frameChainReturn[UnChained] frameSize[16]
|$pdata$ChitralekhaKeySetShift| DCD imagerel |$LN3|
	DCD	0x800029
	;Flags[SingleProEpi] functionLength[40] RegF[0] RegI[0] H[0] frameChainReturn[UnChained] frameSize[16]
|$pdata$ChitralekhaKeySetCapslock| DCD imagerel |$LN3|
	DCD	0x800029
	;Flags[SingleProEpi] functionLength[40] RegF[0] RegI[0] H[0] frameChainReturn[UnChained] frameSize[16]

	AREA	|.data|, DATA
|?_kkybrd_scancode_std@@3PAHA| DCD 0x4012		; _kkybrd_scancode_std
	DCD	0x1001
	DCD	0x31
	DCD	0x32
	DCD	0x33
	DCD	0x34
	DCD	0x35
	DCD	0x36
	DCD	0x37
	DCD	0x38
	DCD	0x39
	DCD	0x30
	DCD	0x2d
	DCD	0x3d
	DCD	0x8
	DCD	0x4000
	DCD	0x71
	DCD	0x77
	DCD	0x65
	DCD	0x72
	DCD	0x74
	DCD	0x79
	DCD	0x75
	DCD	0x69
	DCD	0x6f
	DCD	0x70
	DCD	0x5b
	DCD	0x5d
	DCD	0xa
	DCD	0x4003
	DCD	0x61
	DCD	0x73
	DCD	0x64
	DCD	0x66
	DCD	0x67
	DCD	0x68
	DCD	0x6a
	DCD	0x6b
	DCD	0x6c
	DCD	0x3b
	DCD	0x27
	DCD	0x60
	DCD	0x4002
	DCD	0x5c
	DCD	0x7a
	DCD	0x78
	DCD	0x63
	DCD	0x76
	DCD	0x62
	DCD	0x6e
	DCD	0x6d
	DCD	0x2c
	DCD	0x2e
	DCD	0x2f
	DCD	0x4006
	DCD	0x2a
	DCD	0x4008
	DCD	0x20
	DCD	0x4001
	DCD	0x1201
	DCD	0x1202
	DCD	0x1203
	DCD	0x1204
	DCD	0x1205
	DCD	0x1206
	DCD	0x1207
	DCD	0x1208
	DCD	0x1209
	DCD	0x120a
	DCD	0x300f
	DCD	0x4010
	DCD	0x400c
	DCD	0x38
	DCD	0x400e
	DCD	0x32
	DCD	0x33
	DCD	0x30
	DCD	0x2e
	DCD	0x4012
	DCD	0x4012
	DCD	0x4012
	DCD	0x120b
	DCD	0x120b
; Function compile flags: /Odtp
; File C:\Users\paras\source\repos\grep-name\XenevaOS\Libs\Chitralekha\keycode.cpp

	AREA	|.text$mn|, CODE, ARM64

|ChitralekhaKeyGetCapslock| PROC

; 376  : 	return chkey->_capslock;

	adrp        x8,|?chkey@@3PEAU_chitralekha_key_@@EA|
	ldr         x8,[x8,PageOffset(|?chkey@@3PEAU_chitralekha_key_@@EA|)]
	add         x8,x8,#2
	ldrsb       w0,[x8]
	ret

	ENDP  ; |ChitralekhaKeyGetCapslock|

; Function compile flags: /Odtp
; File C:\Users\paras\source\repos\grep-name\XenevaOS\Libs\Chitralekha\keycode.cpp

	AREA	|.text$mn|, CODE, ARM64

|ChitralekhaKeySetCapslock| PROC

; 368  : void ChitralekhaKeySetCapslock(bool bit) {

|$LN3|
	sub         sp,sp,#0x10
	sxtb        w8,w0
	strb        w8,[sp]

; 369  : 	chkey->_capslock = bit;

	adrp        x8,|?chkey@@3PEAU_chitralekha_key_@@EA|
	ldr         x8,[x8,PageOffset(|?chkey@@3PEAU_chitralekha_key_@@EA|)]
	add         x9,x8,#2
	ldrsb       w8,[sp]
	strb        w8,[x9]
	add         sp,sp,#0x10
	ret

	ENDP  ; |ChitralekhaKeySetCapslock|

; Function compile flags: /Odtp
; File C:\Users\paras\source\repos\grep-name\XenevaOS\Libs\Chitralekha\keycode.cpp

	AREA	|.text$mn|, CODE, ARM64

|ChitralekhaKeySetShift| PROC

; 360  : void ChitralekhaKeySetShift(bool bit) {

|$LN3|
	sub         sp,sp,#0x10
	sxtb        w8,w0
	strb        w8,[sp]

; 361  : 	chkey->_shift = bit;

	adrp        x8,|?chkey@@3PEAU_chitralekha_key_@@EA|
	ldr         x8,[x8,PageOffset(|?chkey@@3PEAU_chitralekha_key_@@EA|)]
	add         x9,x8,#3
	ldrsb       w8,[sp]
	strb        w8,[x9]
	add         sp,sp,#0x10
	ret

	ENDP  ; |ChitralekhaKeySetShift|

; Function compile flags: /Odtp
; File C:\Users\paras\source\repos\grep-name\XenevaOS\Libs\Chitralekha\keycode.cpp

	AREA	|.text$mn|, CODE, ARM64

|ChitralekhaKeySetAlt| PROC

; 351  : void ChitralekhaKeySetAlt(bool bit) {

|$LN3|
	sub         sp,sp,#0x10
	sxtb        w8,w0
	strb        w8,[sp]

; 352  : 	chkey->_ctrl = bit;

	adrp        x8,|?chkey@@3PEAU_chitralekha_key_@@EA|
	ldr         x8,[x8,PageOffset(|?chkey@@3PEAU_chitralekha_key_@@EA|)]
	add         x9,x8,#5
	ldrsb       w8,[sp]
	strb        w8,[x9]
	add         sp,sp,#0x10
	ret

	ENDP  ; |ChitralekhaKeySetAlt|

; Function compile flags: /Odtp
; File C:\Users\paras\source\repos\grep-name\XenevaOS\Libs\Chitralekha\keycode.cpp

	AREA	|.text$mn|, CODE, ARM64

|ChitralekhaKeySetCtrl| PROC

; 343  : void ChitralekhaKeySetCtrl(bool bit) {

|$LN3|
	sub         sp,sp,#0x10
	sxtb        w8,w0
	strb        w8,[sp]

; 344  : 	chkey->_ctrl = bit;

	adrp        x8,|?chkey@@3PEAU_chitralekha_key_@@EA|
	ldr         x8,[x8,PageOffset(|?chkey@@3PEAU_chitralekha_key_@@EA|)]
	add         x9,x8,#5
	ldrsb       w8,[sp]
	strb        w8,[x9]
	add         sp,sp,#0x10
	ret

	ENDP  ; |ChitralekhaKeySetCtrl|

; Function compile flags: /Odtp
; File C:\Users\paras\source\repos\grep-name\XenevaOS\Libs\Chitralekha\keycode.cpp

	AREA	|.text$mn|, CODE, ARM64

|ChitralekhaKeyGetShift| PROC

; 336  : 	return chkey->_shift;

	adrp        x8,|?chkey@@3PEAU_chitralekha_key_@@EA|
	ldr         x8,[x8,PageOffset(|?chkey@@3PEAU_chitralekha_key_@@EA|)]
	add         x8,x8,#3
	ldrsb       w0,[x8]
	ret

	ENDP  ; |ChitralekhaKeyGetShift|

; Function compile flags: /Odtp
; File C:\Users\paras\source\repos\grep-name\XenevaOS\Libs\Chitralekha\keycode.cpp

	AREA	|.text$mn|, CODE, ARM64

|ChitralekhaKeyGetAlt| PROC

; 328  : 	return chkey->_alt;

	adrp        x8,|?chkey@@3PEAU_chitralekha_key_@@EA|
	ldr         x8,[x8,PageOffset(|?chkey@@3PEAU_chitralekha_key_@@EA|)]
	add         x8,x8,#4
	ldrsb       w0,[x8]
	ret

	ENDP  ; |ChitralekhaKeyGetAlt|

; Function compile flags: /Odtp
; File C:\Users\paras\source\repos\grep-name\XenevaOS\Libs\Chitralekha\keycode.cpp

	AREA	|.text$mn|, CODE, ARM64

|ChitralekhaKeyGetCTRL| PROC

; 321  : 	return chkey->_ctrl;

	adrp        x8,|?chkey@@3PEAU_chitralekha_key_@@EA|
	ldr         x8,[x8,PageOffset(|?chkey@@3PEAU_chitralekha_key_@@EA|)]
	add         x8,x8,#5
	ldrsb       w0,[x8]
	ret

	ENDP  ; |ChitralekhaKeyGetCTRL|

; Function compile flags: /Odtp
; File C:\Users\paras\source\repos\grep-name\XenevaOS\Libs\Chitralekha\keycode.cpp

	AREA	|.text$mn|, CODE, ARM64

|ChitralekhaGetKeyPress| PROC

; 194  : char ChitralekhaGetKeyPress(int code) {

|$LN4|
	sub         sp,sp,#0x10
	str         w0,[sp]

; 195  : 	int key = 0;

	mov         w8,#0
	str         w8,[sp,#4]

; 196  : 	if (code < 128) {

	ldr         w8,[sp]
	cmp         w8,#0x80
	bge         |$LN2@Chitralekh|

; 197  : 		key = _kkybrd_scancode_std[code];

	ldr         w8,[sp]
	sxtw        x9,w8
	mov         x8,#4
	mul         x9,x9,x8
	adrp        x8,|?_kkybrd_scancode_std@@3PAHA|
	add         x8,x8,PageOffset(|?_kkybrd_scancode_std@@3PAHA|)
	add         x8,x8,x9
	ldr         w8,[x8]
	str         w8,[sp,#4]
|$LN2@Chitralekh|

; 198  : 	}
; 199  : 	return key;

	ldr         w8,[sp,#4]
	sxtb        w0,w8
	mov         w0,w0
	add         sp,sp,#0x10
	ret

	ENDP  ; |ChitralekhaGetKeyPress|

; Function compile flags: /Odtp
; File C:\Users\paras\source\repos\grep-name\XenevaOS\Libs\Chitralekha\keycode.cpp

	AREA	|.text$mn|, CODE, ARM64

|ChitralekhaKeyToASCII| PROC

; 206  : char ChitralekhaKeyToASCII(int code) {

|$LN60|
	stp         fp,lr,[sp,#-0x30]!
	mov         fp,sp
	str         w0,[sp,#0x1C]

; 207  : 	int key = 0;

	mov         w8,#0
	str         w8,[sp,#0x10]

; 208  : 	int scode = code;

	ldr         w8,[sp,#0x1C]
	str         w8,[sp,#0x20]

; 209  : 
; 210  : 	/* for now only xt standard mapping is supported */
; 211  : 	if (code < 128) { //key press events

	ldr         w8,[sp,#0x1C]
	cmp         w8,#0x80
	bge         |$LN6@Chitralekh|

; 212  : 		key = _kkybrd_scancode_std[scode];

	ldr         w8,[sp,#0x20]
	sxtw        x9,w8
	mov         x8,#4
	mul         x9,x9,x8
	adrp        x8,|?_kkybrd_scancode_std@@3PAHA|
	add         x8,x8,PageOffset(|?_kkybrd_scancode_std@@3PAHA|)
	add         x8,x8,x9
	ldr         w8,[x8]
	str         w8,[sp,#0x10]

; 213  : 
; 214  : 		/*switch (key) {
; 215  : 		case KEY_LCTRL:
; 216  : 		case KEY_RCTRL:
; 217  : 			return 0;
; 218  : 		case KEY_LSHIFT:
; 219  : 		case KEY_RSHIFT:
; 220  : 			return 0;
; 221  : 		case KEY_LALT:
; 222  : 		case KEY_RALT:
; 223  : 			return 0;
; 224  : 		case KEY_CAPSLOCK:
; 225  : 			return 0;
; 226  : 		case KEY_KP_NUMLOCK:
; 227  : 			return 0;
; 228  : 		case KEY_SCROLLLOCK:
; 229  : 			return 0;
; 230  : 		}*/
; 231  : 		if (isascii(key)) {

	ldr         w0,[sp,#0x10]
	bl          isascii
	mov         w0,w0
	cmp         w0,#0
	beq         |$LN7@Chitralekh|

; 232  : 			if (chkey->_shift || chkey->_capslock)

	adrp        x8,|?chkey@@3PEAU_chitralekha_key_@@EA|
	ldr         x8,[x8,PageOffset(|?chkey@@3PEAU_chitralekha_key_@@EA|)]
	add         x8,x8,#3
	ldrsb       w8,[x8]
	mov         w8,w8
	cmp         w8,#0
	bne         |$LN9@Chitralekh|
	adrp        x8,|?chkey@@3PEAU_chitralekha_key_@@EA|
	ldr         x8,[x8,PageOffset(|?chkey@@3PEAU_chitralekha_key_@@EA|)]
	add         x8,x8,#2
	ldrsb       w8,[x8]
	mov         w8,w8
	cmp         w8,#0
	beq         |$LN8@Chitralekh|
|$LN9@Chitralekh|

; 233  : 			if (key >= 'a' && key <= 'z')

	ldr         w8,[sp,#0x10]
	cmp         w8,#0x61
	blt         |$LN10@Chitralekh|
	ldr         w8,[sp,#0x10]
	cmp         w8,#0x7A
	bgt         |$LN10@Chitralekh|

; 234  : 				key -= 32;

	ldr         w8,[sp,#0x10]
	sub         w8,w8,#0x20
	str         w8,[sp,#0x10]
|$LN10@Chitralekh|
|$LN8@Chitralekh|

; 235  : 
; 236  : 			if (chkey->_shift && !chkey->_capslock) {

	adrp        x8,|?chkey@@3PEAU_chitralekha_key_@@EA|
	ldr         x8,[x8,PageOffset(|?chkey@@3PEAU_chitralekha_key_@@EA|)]
	add         x8,x8,#3
	ldrsb       w8,[x8]
	mov         w8,w8
	cmp         w8,#0
	beq         |$LN11@Chitralekh|
	adrp        x8,|?chkey@@3PEAU_chitralekha_key_@@EA|
	ldr         x8,[x8,PageOffset(|?chkey@@3PEAU_chitralekha_key_@@EA|)]
	add         x8,x8,#2
	ldrsb       w8,[x8]
	mov         w8,w8
	cmp         w8,#0
	bne         |$LN11@Chitralekh|

; 237  : 				if (key >= '0' && key <= '9') {

	ldr         w8,[sp,#0x10]
	cmp         w8,#0x30
	blt         |$LN12@Chitralekh|
	ldr         w8,[sp,#0x10]
	cmp         w8,#0x39
	bgt         |$LN12@Chitralekh|

; 238  : 					switch (key) {

	ldr         w8,[sp,#0x10]
	str         w8,[sp,#0x18]
	ldr         w8,[sp,#0x18]
	sub         w8,w8,#0x30
	str         w8,[sp,#0x18]
	ldr         w8,[sp,#0x18]
	cmp         w8,#9
	bhi         |$LN2@Chitralekh|
	ldr         w10,[sp,#0x18]
	adr         x9,__swt
	ldrsb       x8,[x9,w10 uxtw #0]
	add         x8,x9,x8,lsl #2
	br          x8
|$LN14@Chitralekh|

; 239  : 					case '0':
; 240  : 						key = KEY_RIGHTPARENTHESIS;

	mov         w8,#0x29
	str         w8,[sp,#0x10]

; 241  : 						break;

	b           |$LN2@Chitralekh|
|$LN15@Chitralekh|

; 242  : 					case '1':
; 243  : 						key = KEY_EXCLAMATION;

	mov         w8,#0x21
	str         w8,[sp,#0x10]

; 244  : 						break;

	b           |$LN2@Chitralekh|
|$LN16@Chitralekh|

; 245  : 					case '2':
; 246  : 						key = KEY_AT;

	mov         w8,#0x40
	str         w8,[sp,#0x10]

; 247  : 						break;

	b           |$LN2@Chitralekh|
|$LN17@Chitralekh|

; 248  : 					case '3':
; 249  : 						key = KEY_HASH;

	mov         w8,#0x23
	str         w8,[sp,#0x10]

; 250  : 						break;

	b           |$LN2@Chitralekh|
|$LN18@Chitralekh|

; 251  : 					case '4':
; 252  : 						key = KEY_DOLLAR;

	mov         w8,#0x24
	str         w8,[sp,#0x10]

; 253  : 						break;

	b           |$LN2@Chitralekh|
|$LN19@Chitralekh|

; 254  : 					case '5':
; 255  : 						key = KEY_PERCENT;

	mov         w8,#0x25
	str         w8,[sp,#0x10]

; 256  : 						break;

	b           |$LN2@Chitralekh|
|$LN20@Chitralekh|

; 257  : 					case '6':
; 258  : 						key = KEY_CARRET;

	mov         w8,#0x5E
	str         w8,[sp,#0x10]

; 259  : 						break;

	b           |$LN2@Chitralekh|
|$LN21@Chitralekh|

; 260  : 					case '7':
; 261  : 						key = KEY_AMPERSAND;

	mov         w8,#0x26
	str         w8,[sp,#0x10]

; 262  : 						break;

	b           |$LN2@Chitralekh|
|$LN22@Chitralekh|

; 263  : 					case '9':
; 264  : 						key = KEY_LEFTPARENTHESIS;

	mov         w8,#0x28
	str         w8,[sp,#0x10]
|$LN2@Chitralekh|

; 265  : 						break;
; 266  : 
; 267  : 					}
; 268  : 				}

	b           |$LN13@Chitralekh|
|$LN12@Chitralekh|

; 269  : 				else {
; 270  : 					switch (key) {

	ldr         w8,[sp,#0x10]
	str         w8,[sp,#0x14]
	ldr         w8,[sp,#0x14]
	cmp         w8,#0x2F
	bgt         |$LN36@Chitralekh|
	ldr         w8,[sp,#0x14]
	cmp         w8,#0x2F
	beq         |$LN25@Chitralekh|
	ldr         w8,[sp,#0x14]
	sub         w8,w8,#0x27
	str         w8,[sp,#0x14]
	ldr         w8,[sp,#0x14]
	cmp         w8,#7
	bhi         |$LN4@Chitralekh|
	ldr         w10,[sp,#0x14]
	adr         x9,__swt
	ldrsb       x8,[x9,w10 uxtw #0]
	add         x8,x9,x8,lsl #2
	br          x8
|$LN36@Chitralekh|
	ldr         w8,[sp,#0x14]
	cmp         w8,#0x5C
	bgt         |$LN37@Chitralekh|
	ldr         w8,[sp,#0x14]
	cmp         w8,#0x5C
	beq         |$LN33@Chitralekh|
	ldr         w8,[sp,#0x14]
	cmp         w8,#0x3B
	beq         |$LN26@Chitralekh|
	ldr         w8,[sp,#0x14]
	cmp         w8,#0x5B
	beq         |$LN28@Chitralekh|
	b           |$LN4@Chitralekh|
|$LN37@Chitralekh|
	ldr         w8,[sp,#0x14]
	cmp         w8,#0x5D
	beq         |$LN29@Chitralekh|
	ldr         w8,[sp,#0x14]
	cmp         w8,#0x60
	beq         |$LN30@Chitralekh|
	b           |$LN4@Chitralekh|
|$LN23@Chitralekh|

; 271  : 					case KEY_COMMA:
; 272  : 						key = KEY_LESS;

	mov         w8,#0x3C
	str         w8,[sp,#0x10]

; 273  : 						break;

	b           |$LN4@Chitralekh|
|$LN24@Chitralekh|

; 274  : 					case KEY_DOT:
; 275  : 						key = KEY_GREATER;

	mov         w8,#0x3E
	str         w8,[sp,#0x10]

; 276  : 						break;

	b           |$LN4@Chitralekh|
|$LN25@Chitralekh|

; 277  : 					case KEY_SLASH:
; 278  : 						key = KEY_QUESTION;

	mov         w8,#0x3F
	str         w8,[sp,#0x10]

; 279  : 						break;

	b           |$LN4@Chitralekh|
|$LN26@Chitralekh|

; 280  : 					case KEY_SEMICOLON:
; 281  : 						key = KEY_COLON;

	mov         w8,#0x3A
	str         w8,[sp,#0x10]

; 282  : 						break;

	b           |$LN4@Chitralekh|
|$LN27@Chitralekh|

; 283  : 					case KEY_QUOTE:
; 284  : 						key = KEY_QUOTEDOUBLE;

	mov         w8,#0x22
	str         w8,[sp,#0x10]

; 285  : 						break;

	b           |$LN4@Chitralekh|
|$LN28@Chitralekh|

; 286  : 					case KEY_LEFTBRACKET:
; 287  : 						key = KEY_LEFTCURL;

	mov         w8,#0x7B
	str         w8,[sp,#0x10]

; 288  : 						break;

	b           |$LN4@Chitralekh|
|$LN29@Chitralekh|

; 289  : 					case KEY_RIGHTBRACKET:
; 290  : 						key = KEY_RIGHTCURL;

	mov         w8,#0x7D
	str         w8,[sp,#0x10]

; 291  : 						break;

	b           |$LN4@Chitralekh|
|$LN30@Chitralekh|

; 292  : 					case KEY_GRAVE:
; 293  : 						key = KEY_TILDE;

	mov         w8,#0x7E
	str         w8,[sp,#0x10]

; 294  : 						break;

	b           |$LN4@Chitralekh|
|$LN31@Chitralekh|

; 295  : 					case KEY_MINUS:
; 296  : 						key = KEY_UNDERSCORE;

	mov         w8,#0x5F
	str         w8,[sp,#0x10]

; 297  : 						break;

	b           |$LN4@Chitralekh|
|$LN32@Chitralekh|

; 298  : 					case KEY_PLUS:
; 299  : 						key = KEY_EQUAL;

	mov         w8,#0x3D
	str         w8,[sp,#0x10]

; 300  : 						break;

	b           |$LN4@Chitralekh|
|$LN33@Chitralekh|

; 301  : 					case KEY_BACKSLASH:
; 302  : 						key = KEY_BAR;

	mov         w8,#0x7C
	str         w8,[sp,#0x10]
|$LN4@Chitralekh|
|$LN13@Chitralekh|
|$LN11@Chitralekh|

; 303  : 						break;
; 304  : 					}
; 305  : 				}
; 306  : 			}
; 307  : 			return key;

	ldr         w8,[sp,#0x10]
	sxtb        w0,w8
	mov         w0,w0
	b           |$LN1@Chitralekh|
|$LN7@Chitralekh|

; 308  : 		}
; 309  : 		return 0;

	mov         w0,#0
	b           |$LN1@Chitralekh|
|$LN6@Chitralekh|

; 310  : 	}
; 311  : 	if (code > 128) 

	ldr         w8,[sp,#0x1C]
	cmp         w8,#0x80
	ble         |$LN34@Chitralekh|

; 312  : 		return 0;

	mov         w0,#0
	b           |$LN1@Chitralekh|
|$LN34@Chitralekh|

; 313  : 
; 314  : 	return 0;

	mov         w0,#0
|$LN1@Chitralekh|
	ldp         fp,lr,[sp],#0x30
	ret
|__swt|
|$LN39@Chitralekh|

; 238  : 					switch (key) {

	DCB         0x90
|$LN40@Chitralekh|
	DCB         0x93
|$LN41@Chitralekh|
	DCB         0x96
|$LN42@Chitralekh|
	DCB         0x99
|$LN43@Chitralekh|
	DCB         0x9c
|$LN44@Chitralekh|
	DCB         0x9f
|$LN45@Chitralekh|
	DCB         0xa2
|$LN46@Chitralekh|
	DCB         0xa5
|$LN47@Chitralekh|
	DCB         0xaa
|$LN48@Chitralekh|
	DCB         0xa8
|$LN58@Chitralekh|
	DCB         0xa8
|$LN59@Chitralekh|
	DCB         0xa8
|__swt|
|$LN50@Chitralekh|

; 269  : 				else {
; 270  : 					switch (key) {

	DCB         0xdb
|$LN51@Chitralekh|
	DCB         0xef
|$LN52@Chitralekh|
	DCB         0xef
|$LN53@Chitralekh|
	DCB         0xef
|$LN54@Chitralekh|
	DCB         0xea
|$LN55@Chitralekh|
	DCB         0xcf
|$LN56@Chitralekh|
	DCB         0xe7
|$LN57@Chitralekh|
	DCB         0xd2

	ENDP  ; |ChitralekhaKeyToASCII|

; Function compile flags: /Odtp
; File C:\Users\paras\source\repos\grep-name\XenevaOS\Libs\Chitralekha\keycode.cpp

	AREA	|.text$mn|, CODE, ARM64

|ChitralekhaProcessKey| PROC

; 141  : void ChitralekhaProcessKey(int code) {

|$LN54|
	sub         sp,sp,#0x20
	str         w0,[sp,#8]

; 142  : 
; 143  : 	if (code & 0x80) { //released key

	ldr         w8,[sp,#8]
	tbz         x8,#7,|$LN6@Chitralekh|

; 144  : 		code -= 0x80;

	ldr         w8,[sp,#8]
	sub         w8,w8,#0x80
	str         w8,[sp,#8]

; 145  : 		int key = _kkybrd_scancode_std[code];

	ldr         w8,[sp,#8]
	sxtw        x9,w8
	mov         x8,#4
	mul         x9,x9,x8
	adrp        x8,|?_kkybrd_scancode_std@@3PAHA|
	add         x8,x8,PageOffset(|?_kkybrd_scancode_std@@3PAHA|)
	add         x8,x8,x9
	ldr         w8,[x8]
	str         w8,[sp,#0x10]

; 146  : 
; 147  : 		switch (key)

	ldr         w8,[sp,#0x10]
	str         w8,[sp,#0xC]
	ldr         w9,[sp,#0xC]
	mov         w8,#0x4002
	sub         w8,w9,w8
	str         w8,[sp,#0xC]
	ldr         w8,[sp,#0xC]
	cmp         w8,#6
	bhi         |$LN2@Chitralekh|
	ldr         w10,[sp,#0xC]
	adr         x9,__swt
	ldrsw       x8,[x9,w10 uxtw #2]
	adr         x9,|$LN33@Chitralekh|
	add         x8,x9,x8,lsl #2
	br          x8
|$LN8@Chitralekh|
|$LN9@Chitralekh|

; 148  : 		{
; 149  : 		case KEY_LCTRL:
; 150  : 		case KEY_RCTRL:
; 151  : 			chkey->_ctrl = false;

	adrp        x8,|?chkey@@3PEAU_chitralekha_key_@@EA|
	ldr         x8,[x8,PageOffset(|?chkey@@3PEAU_chitralekha_key_@@EA|)]
	add         x9,x8,#5
	mov         w8,#0
	strb        w8,[x9]

; 152  : 			break;

	b           |$LN2@Chitralekh|
|$LN10@Chitralekh|
|$LN11@Chitralekh|
|$LN33@Chitralekh|

; 153  : 		case KEY_LSHIFT:
; 154  : 		case KEY_RSHIFT:
; 155  : 			chkey->_shift = false;

	adrp        x8,|?chkey@@3PEAU_chitralekha_key_@@EA|
	ldr         x8,[x8,PageOffset(|?chkey@@3PEAU_chitralekha_key_@@EA|)]
	add         x9,x8,#3
	mov         w8,#0
	strb        w8,[x9]

; 156  : 			break;

	b           |$LN2@Chitralekh|
|$LN12@Chitralekh|
|$LN13@Chitralekh|

; 157  : 		case KEY_LALT:
; 158  : 		case KEY_RALT:
; 159  : 			chkey->_alt = false;

	adrp        x8,|?chkey@@3PEAU_chitralekha_key_@@EA|
	ldr         x8,[x8,PageOffset(|?chkey@@3PEAU_chitralekha_key_@@EA|)]
	add         x9,x8,#4
	mov         w8,#0
	strb        w8,[x9]
|$LN2@Chitralekh|

; 160  : 			break;
; 161  : 		}
; 162  : 	}

	b           |$LN7@Chitralekh|
|$LN6@Chitralekh|

; 163  : 	else {
; 164  : 		int key = _kkybrd_scancode_std[code];

	ldr         w8,[sp,#8]
	sxtw        x9,w8
	mov         x8,#4
	mul         x9,x9,x8
	adrp        x8,|?_kkybrd_scancode_std@@3PAHA|
	add         x8,x8,PageOffset(|?_kkybrd_scancode_std@@3PAHA|)
	add         x8,x8,x9
	ldr         w8,[x8]
	str         w8,[sp,#0x14]

; 165  : 		switch (key) {

	ldr         w8,[sp,#0x14]
	str         w8,[sp,#4]
	mov         w9,#0x4004
	ldr         w8,[sp,#4]
	cmp         w8,w9
	bgt         |$LN30@Chitralekh|
	mov         w9,#0x4004
	ldr         w8,[sp,#4]
	cmp         w8,w9
	beq         |$LN18@Chitralekh|
	mov         w9,#0x4002
	ldr         w8,[sp,#4]
	cmp         w8,w9
	bgt         |$LN31@Chitralekh|
	mov         w9,#0x4002
	ldr         w8,[sp,#4]
	cmp         w8,w9
	beq         |$LN16@Chitralekh|
	mov         w9,#0x300F
	ldr         w8,[sp,#4]
	cmp         w8,w9
	beq         |$LN21@Chitralekh|
	mov         w9,#0x4001
	ldr         w8,[sp,#4]
	cmp         w8,w9
	beq         |$LN20@Chitralekh|
	b           |$LN4@Chitralekh|
|$LN31@Chitralekh|
	mov         w9,#0x4003
	ldr         w8,[sp,#4]
	cmp         w8,w9
	beq         |$LN14@Chitralekh|
	b           |$LN4@Chitralekh|
|$LN30@Chitralekh|
	ldr         w9,[sp,#4]
	mov         w8,#0x4006
	sub         w8,w9,w8
	str         w8,[sp,#4]
	ldr         w8,[sp,#4]
	cmp         w8,#0xA
	bhi         |$LN4@Chitralekh|
	ldr         w10,[sp,#4]
	adr         x9,__swt
	ldrsb       x8,[x9,w10 uxtw #0]
	add         x8,x9,x8,lsl #2
	br          x8
|$LN14@Chitralekh|
|$LN15@Chitralekh|

; 166  : 		case KEY_LCTRL:
; 167  : 		case KEY_RCTRL:
; 168  : 			chkey->_ctrl = true;

	adrp        x8,|?chkey@@3PEAU_chitralekha_key_@@EA|
	ldr         x8,[x8,PageOffset(|?chkey@@3PEAU_chitralekha_key_@@EA|)]
	add         x9,x8,#5
	mov         w8,#1
	strb        w8,[x9]

; 169  : 			break;

	b           |$LN4@Chitralekh|
|$LN16@Chitralekh|
|$LN17@Chitralekh|

; 170  : 		case KEY_LSHIFT:
; 171  : 		case KEY_RSHIFT:
; 172  : 			chkey->_shift = true;

	adrp        x8,|?chkey@@3PEAU_chitralekha_key_@@EA|
	ldr         x8,[x8,PageOffset(|?chkey@@3PEAU_chitralekha_key_@@EA|)]
	add         x9,x8,#3
	mov         w8,#1
	strb        w8,[x9]

; 173  : 			break;

	b           |$LN4@Chitralekh|
|$LN18@Chitralekh|
|$LN19@Chitralekh|

; 174  : 		case KEY_LALT:
; 175  : 		case KEY_RALT:
; 176  : 			chkey->_alt = true;

	adrp        x8,|?chkey@@3PEAU_chitralekha_key_@@EA|
	ldr         x8,[x8,PageOffset(|?chkey@@3PEAU_chitralekha_key_@@EA|)]
	add         x9,x8,#4
	mov         w8,#1
	strb        w8,[x9]

; 177  : 			break;

	b           |$LN4@Chitralekh|
|$LN20@Chitralekh|

; 178  : 		case KEY_CAPSLOCK:
; 179  : 			chkey->_capslock = (chkey->_capslock) ? false : true;

	adrp        x8,|?chkey@@3PEAU_chitralekha_key_@@EA|
	ldr         x8,[x8,PageOffset(|?chkey@@3PEAU_chitralekha_key_@@EA|)]
	add         x8,x8,#2
	ldrsb       w8,[x8]
	mov         w8,w8
	cmp         w8,#0
	beq         |$LN24@Chitralekh|
	mov         w8,#0
	strb        w8,[sp]
	b           |$LN25@Chitralekh|
|$LN24@Chitralekh|
	mov         w8,#1
	strb        w8,[sp]
|$LN25@Chitralekh|
	ldrb        w8,[sp]
	sxtb        w9,w8
	adrp        x8,|?chkey@@3PEAU_chitralekha_key_@@EA|
	ldr         x8,[x8,PageOffset(|?chkey@@3PEAU_chitralekha_key_@@EA|)]
	add         x8,x8,#2
	strb        w9,[x8]

; 180  : 			break;

	b           |$LN4@Chitralekh|
|$LN21@Chitralekh|

; 181  : 		case KEY_KP_NUMLOCK:
; 182  : 			chkey->_numlock = (chkey->_numlock) ? false : true;

	adrp        x8,|?chkey@@3PEAU_chitralekha_key_@@EA|
	ldr         x8,[x8,PageOffset(|?chkey@@3PEAU_chitralekha_key_@@EA|)]
	ldrsb       w8,[x8]
	mov         w8,w8
	cmp         w8,#0
	beq         |$LN26@Chitralekh|
	mov         w8,#0
	strb        w8,[sp,#1]
	b           |$LN27@Chitralekh|
|$LN26@Chitralekh|
	mov         w8,#1
	strb        w8,[sp,#1]
|$LN27@Chitralekh|
	ldrb        w8,[sp,#1]
	sxtb        w9,w8
	adrp        x8,|?chkey@@3PEAU_chitralekha_key_@@EA|
	ldr         x8,[x8,PageOffset(|?chkey@@3PEAU_chitralekha_key_@@EA|)]
	strb        w9,[x8]

; 183  : 			break;

	b           |$LN4@Chitralekh|
|$LN22@Chitralekh|

; 184  : 		case KEY_SCROLLLOCK:
; 185  : 			chkey->_scrolllock = (chkey->_scrolllock) ? false : true;

	adrp        x8,|?chkey@@3PEAU_chitralekha_key_@@EA|
	ldr         x8,[x8,PageOffset(|?chkey@@3PEAU_chitralekha_key_@@EA|)]
	add         x8,x8,#1
	ldrsb       w8,[x8]
	mov         w8,w8
	cmp         w8,#0
	beq         |$LN28@Chitralekh|
	mov         w8,#0
	strb        w8,[sp,#2]
	b           |$LN29@Chitralekh|
|$LN28@Chitralekh|
	mov         w8,#1
	strb        w8,[sp,#2]
|$LN29@Chitralekh|
	ldrb        w8,[sp,#2]
	sxtb        w9,w8
	adrp        x8,|?chkey@@3PEAU_chitralekha_key_@@EA|
	ldr         x8,[x8,PageOffset(|?chkey@@3PEAU_chitralekha_key_@@EA|)]
	add         x8,x8,#1
	strb        w9,[x8]
|$LN4@Chitralekh|
|$LN7@Chitralekh|
	add         sp,sp,#0x20
	ret
|__swt|
|$LN34@Chitralekh|

; 146  : 
; 147  : 		switch (key)

	DCD         0x0
|$LN35@Chitralekh|
	DCD         0xfffffffa
|$LN36@Chitralekh|
	DCD         0x6
|$LN37@Chitralekh|
	DCD         0xb
|$LN38@Chitralekh|
	DCD         0x0
|$LN39@Chitralekh|
	DCD         0xfffffffa
|$LN40@Chitralekh|
	DCD         0x6
|__swt|
|$LN42@Chitralekh|

; 165  : 		switch (key) {

	DCB         0xb5
|$LN43@Chitralekh|
	DCB         0xaf
|$LN44@Chitralekh|
	DCB         0xbb
|$LN45@Chitralekh|
	DCB         0xf7
|$LN46@Chitralekh|
	DCB         0xf7
|$LN47@Chitralekh|
	DCB         0xf7
|$LN48@Chitralekh|
	DCB         0xf7
|$LN49@Chitralekh|
	DCB         0xf7
|$LN50@Chitralekh|
	DCB         0xf7
|$LN51@Chitralekh|
	DCB         0xf7
|$LN52@Chitralekh|
	DCB         0xe5
|$LN53@Chitralekh|
	DCB         0xe5

	ENDP  ; |ChitralekhaProcessKey|

; Function compile flags: /Odtp
; File C:\Users\paras\source\repos\grep-name\XenevaOS\Libs\Chitralekha\keycode.cpp

	AREA	|.text$mn|, CODE, ARM64

|ChitralekhaKeyInitialise| PROC

; 132  : void ChitralekhaKeyInitialise() {

|$LN3|
	stp         fp,lr,[sp,#-0x10]!
	mov         fp,sp

; 133  : 	chkey = (ChitralekhaKey*)malloc(sizeof(ChitralekhaKey));

	mov         w0,#6
	bl          malloc
	adrp        x8,|?chkey@@3PEAU_chitralekha_key_@@EA|
	str         x0,[x8,PageOffset(|?chkey@@3PEAU_chitralekha_key_@@EA|)]

; 134  : 	memset(chkey, 0, sizeof(ChitralekhaKey));

	adrp        x8,|?chkey@@3PEAU_chitralekha_key_@@EA|
	ldr         x9,[x8,PageOffset(|?chkey@@3PEAU_chitralekha_key_@@EA|)]
	mov         w8,#0
	str         w8,[x9]
	strh        w8,[x9,#4]
	ldp         fp,lr,[sp],#0x10
	ret

	ENDP  ; |ChitralekhaKeyInitialise|

	END
