; Listing generated by Microsoft (R) Optimizing Compiler Version 19.29.30159.0 

	TTL	C:\Users\paras\source\repos\grep-name\XenevaOS\Libs\Chitralekha\ARM64\Debug\list.obj
	ARM64

	AREA	|.drectve|, DRECTVE

	EXPORT	|initialize_list|
	EXPORT	|list_add|
	EXPORT	|list_remove|
	EXPORT	|list_get_at|
	EXPORT	|list_clear_all|
	IMPORT	|malloc|
	IMPORT	|free|

	AREA	|.pdata|, PDATA
|$pdata$initialize_list| DCD imagerel |$LN3|
	DCD	0x160003d
	;Flags[SingleProEpi] functionLength[60] RegF[0] RegI[0] H[0] frameChainReturn[Chained] frameSize[32]
|$pdata$list_add| DCD imagerel |$LN7|
	DCD	0x1e000d9
	;Flags[SingleProEpi] functionLength[216] RegF[0] RegI[0] H[0] frameChainReturn[Chained] frameSize[48]
|$pdata$list_remove| DCD imagerel |$LN12|
	DCD	0x1e00155
	;Flags[SingleProEpi] functionLength[340] RegF[0] RegI[0] H[0] frameChainReturn[Chained] frameSize[48]
|$pdata$list_get_at| DCD imagerel |$LN10|
	DCD	0x10000c1
	;Flags[SingleProEpi] functionLength[192] RegF[0] RegI[0] H[0] frameChainReturn[UnChained] frameSize[32]
|$pdata$list_clear_all| DCD imagerel |$LN5|
	DCD	0x1e0006d
	;Flags[SingleProEpi] functionLength[108] RegF[0] RegI[0] H[0] frameChainReturn[Chained] frameSize[48]
; Function compile flags: /Odtp
; File C:\Users\paras\source\repos\grep-name\XenevaOS\Libs\Chitralekha\widgets\list.cpp

	AREA	|.text$mn|, CODE, ARM64

|list_clear_all| PROC

; 114  : void list_clear_all(list_t* list) {

|$LN5|
	stp         fp,lr,[sp,#-0x30]!
	mov         fp,sp
	str         x0,[sp,#0x20]

; 115  : 	dataentry *de = list->entry_current;

	ldr         x8,[sp,#0x20]
	add         x8,x8,#4
	ldr         x8,[x8]
	str         x8,[sp,#0x10]

; 116  : 	dataentry* current = de;

	ldr         x8,[sp,#0x10]
	str         x8,[sp,#0x18]
|$LN2@list_clear|

; 117  : 	while (current) {

	ldr         x8,[sp,#0x18]
	cmp         x8,#0
	beq         |$LN3@list_clear|

; 118  : 		de = de->next;

	ldr         x8,[sp,#0x10]
	ldr         x8,[x8]
	str         x8,[sp,#0x10]

; 119  : 		free(current);

	ldr         x0,[sp,#0x18]
	bl          free

; 120  : 		current = de;

	ldr         x8,[sp,#0x10]
	str         x8,[sp,#0x18]

; 121  : 		list->pointer--;

	ldr         x8,[sp,#0x20]
	ldr         w8,[x8]
	sub         w9,w8,#1
	ldr         x8,[sp,#0x20]
	str         w9,[x8]

; 122  : 	}

	b           |$LN2@list_clear|
|$LN3@list_clear|
	ldp         fp,lr,[sp],#0x30
	ret

	ENDP  ; |list_clear_all|

; Function compile flags: /Odtp
; File C:\Users\paras\source\repos\grep-name\XenevaOS\Libs\Chitralekha\widgets\list.cpp

	AREA	|.text$mn|, CODE, ARM64

|list_get_at| PROC

; 66   : void * list_get_at(list_t* list, unsigned int index) {

|$LN10|
	sub         sp,sp,#0x20
	str         x0,[sp,#0x10]
	str         w1,[sp,#4]

; 67   : 
; 68   : 	if (list->pointer == 0 || index >= list->pointer)

	ldr         x8,[sp,#0x10]
	ldr         w8,[x8]
	cmp         w8,#0
	beq         |$LN6@list_get_a|
	ldr         x8,[sp,#0x10]
	ldr         w9,[x8]
	ldr         w8,[sp,#4]
	cmp         w8,w9
	blo         |$LN5@list_get_a|
|$LN6@list_get_a|

; 69   : 		return nullptr;

	mov         x0,#0
	b           |$LN1@list_get_a|
|$LN5@list_get_a|

; 70   : 
; 71   : 	dataentry * current_node = list->entry_current;

	ldr         x8,[sp,#0x10]
	add         x8,x8,#4
	ldr         x8,[x8]
	str         x8,[sp,#8]

; 72   : 
; 73   : 	for (unsigned int current_index = 0; (current_index < index) && current_node; current_index++)

	mov         w8,#0
	str         w8,[sp]
	b           |$LN4@list_get_a|
|$LN2@list_get_a|
	ldr         w8,[sp]
	add         w8,w8,#1
	str         w8,[sp]
|$LN4@list_get_a|
	ldr         w9,[sp,#4]
	ldr         w8,[sp]
	cmp         w8,w9
	bhs         |$LN3@list_get_a|
	ldr         x8,[sp,#8]
	cmp         x8,#0
	beq         |$LN3@list_get_a|

; 74   : 		current_node = current_node->next;

	ldr         x8,[sp,#8]
	ldr         x8,[x8]
	str         x8,[sp,#8]
	b           |$LN2@list_get_a|
|$LN3@list_get_a|

; 75   : 
; 76   : 	return current_node ? current_node->data : nullptr;

	ldr         x8,[sp,#8]
	cmp         x8,#0
	beq         |$LN8@list_get_a|
	ldr         x8,[sp,#8]
	add         x8,x8,#0x10
	ldr         x8,[x8]
	str         x8,[sp,#0x18]
	b           |$LN9@list_get_a|
|$LN8@list_get_a|
	mov         x8,#0
	str         x8,[sp,#0x18]
|$LN9@list_get_a|
	ldr         x0,[sp,#0x18]
|$LN1@list_get_a|
	add         sp,sp,#0x20
	ret

	ENDP  ; |list_get_at|

; Function compile flags: /Odtp
; File C:\Users\paras\source\repos\grep-name\XenevaOS\Libs\Chitralekha\widgets\list.cpp

	AREA	|.text$mn|, CODE, ARM64

|list_remove| PROC

; 79   : void* list_remove(list_t* list, unsigned int index) {

|$LN12|
	stp         fp,lr,[sp,#-0x30]!
	mov         fp,sp
	str         x0,[sp,#0x20]
	str         w1,[sp,#0x14]

; 80   : 
; 81   : 	void* payload;
; 82   : 
; 83   : 	if (list->pointer == 0 || index >= list->pointer)

	ldr         x8,[sp,#0x20]
	ldr         w8,[x8]
	cmp         w8,#0
	beq         |$LN6@list_remov|
	ldr         x8,[sp,#0x20]
	ldr         w9,[x8]
	ldr         w8,[sp,#0x14]
	cmp         w8,w9
	blo         |$LN5@list_remov|
|$LN6@list_remov|

; 84   : 		return nullptr;

	mov         x0,#0
	b           |$LN1@list_remov|
|$LN5@list_remov|

; 85   : 
; 86   : 	dataentry* current_node = list->entry_current;

	ldr         x8,[sp,#0x20]
	add         x8,x8,#4
	ldr         x8,[x8]
	str         x8,[sp,#0x18]

; 87   : 
; 88   : 	for (unsigned int current_index = 0; (current_index < index) && current_node; current_index++)

	mov         w8,#0
	str         w8,[sp,#0x10]
	b           |$LN4@list_remov|
|$LN2@list_remov|
	ldr         w8,[sp,#0x10]
	add         w8,w8,#1
	str         w8,[sp,#0x10]
|$LN4@list_remov|
	ldr         w9,[sp,#0x14]
	ldr         w8,[sp,#0x10]
	cmp         w8,w9
	bhs         |$LN3@list_remov|
	ldr         x8,[sp,#0x18]
	cmp         x8,#0
	beq         |$LN3@list_remov|

; 89   : 		current_node = current_node->next;

	ldr         x8,[sp,#0x18]
	ldr         x8,[x8]
	str         x8,[sp,#0x18]
	b           |$LN2@list_remov|
|$LN3@list_remov|

; 90   : 
; 91   : 	if (!current_node)

	ldr         x8,[sp,#0x18]
	cmp         x8,#0
	bne         |$LN7@list_remov|

; 92   : 		return nullptr;

	mov         x0,#0
	b           |$LN1@list_remov|
|$LN7@list_remov|

; 93   : 	payload = current_node->data;

	ldr         x8,[sp,#0x18]
	add         x8,x8,#0x10
	ldr         x8,[x8]
	str         x8,[sp,#0x28]

; 94   : 
; 95   : 	if (current_node->prev)

	ldr         x8,[sp,#0x18]
	add         x8,x8,#8
	ldr         x8,[x8]
	cmp         x8,#0
	beq         |$LN8@list_remov|

; 96   : 		current_node->prev->next = current_node->next;

	ldr         x10,[sp,#0x18]
	ldr         x8,[sp,#0x18]
	add         x8,x8,#8
	ldr         x9,[x8]
	ldr         x8,[x10]
	str         x8,[x9]
|$LN8@list_remov|

; 97   : 
; 98   : 	if (current_node->next)

	ldr         x8,[sp,#0x18]
	ldr         x8,[x8]
	cmp         x8,#0
	beq         |$LN9@list_remov|

; 99   : 		current_node->next->prev = current_node->prev;

	ldr         x8,[sp,#0x18]
	add         x10,x8,#8
	ldr         x8,[sp,#0x18]
	ldr         x8,[x8]
	add         x9,x8,#8
	ldr         x8,[x10]
	str         x8,[x9]
|$LN9@list_remov|

; 100  : 
; 101  : 	if (index == 0)

	ldr         w8,[sp,#0x14]
	cmp         w8,#0
	bne         |$LN10@list_remov|

; 102  : 		list->entry_current = current_node->next;

	ldr         x10,[sp,#0x18]
	ldr         x8,[sp,#0x20]
	add         x9,x8,#4
	ldr         x8,[x10]
	str         x8,[x9]
|$LN10@list_remov|

; 103  : 
; 104  : 	free(current_node);

	ldr         x0,[sp,#0x18]
	bl          free

; 105  : 
; 106  : 	list->pointer--;

	ldr         x8,[sp,#0x20]
	ldr         w8,[x8]
	sub         w9,w8,#1
	ldr         x8,[sp,#0x20]
	str         w9,[x8]

; 107  : 
; 108  : 	return payload;

	ldr         x0,[sp,#0x28]
|$LN1@list_remov|
	ldp         fp,lr,[sp],#0x30
	ret

	ENDP  ; |list_remove|

; Function compile flags: /Odtp
; File C:\Users\paras\source\repos\grep-name\XenevaOS\Libs\Chitralekha\widgets\list.cpp

	AREA	|.text$mn|, CODE, ARM64

|list_add| PROC

; 43   : void list_add(list_t* list, void* data) {

|$LN7|
	stp         fp,lr,[sp,#-0x30]!
	mov         fp,sp
	str         x0,[sp,#0x20]
	str         x1,[sp,#0x28]

; 44   : 	dataentry *current_data = (dataentry*)malloc(sizeof(dataentry));

	mov         w0,#0x18
	bl          malloc
	str         x0,[sp,#0x10]

; 45   : 	current_data->next = nullptr;

	ldr         x9,[sp,#0x10]
	mov         x8,#0
	str         x8,[x9]

; 46   : 	current_data->prev = nullptr;

	ldr         x8,[sp,#0x10]
	add         x9,x8,#8
	mov         x8,#0
	str         x8,[x9]

; 47   : 	current_data->data = data;

	ldr         x8,[sp,#0x10]
	add         x9,x8,#0x10
	ldr         x8,[sp,#0x28]
	str         x8,[x9]

; 48   : 
; 49   : 
; 50   : 
; 51   : 	if (!list->entry_current) {

	ldr         x8,[sp,#0x20]
	add         x8,x8,#4
	ldr         x8,[x8]
	cmp         x8,#0
	bne         |$LN4@list_add|

; 52   : 		list->entry_current = current_data;

	ldr         x8,[sp,#0x20]
	add         x9,x8,#4
	ldr         x8,[sp,#0x10]
	str         x8,[x9]

; 53   : 	}

	b           |$LN5@list_add|
|$LN4@list_add|

; 54   : 	else {
; 55   : 		dataentry * current_entry = list->entry_current;

	ldr         x8,[sp,#0x20]
	add         x8,x8,#4
	ldr         x8,[x8]
	str         x8,[sp,#0x18]
|$LN2@list_add|

; 56   : 		while (current_entry->next) {

	ldr         x8,[sp,#0x18]
	ldr         x8,[x8]
	cmp         x8,#0
	beq         |$LN3@list_add|

; 57   : 			current_entry = current_entry->next;

	ldr         x8,[sp,#0x18]
	ldr         x8,[x8]
	str         x8,[sp,#0x18]

; 58   : 		}

	b           |$LN2@list_add|
|$LN3@list_add|

; 59   : 		current_entry->next = current_data;

	ldr         x9,[sp,#0x18]
	ldr         x8,[sp,#0x10]
	str         x8,[x9]

; 60   : 		current_data->prev = current_entry;

	ldr         x8,[sp,#0x10]
	add         x9,x8,#8
	ldr         x8,[sp,#0x18]
	str         x8,[x9]
|$LN5@list_add|

; 61   : 	}
; 62   : 
; 63   : 	list->pointer++;

	ldr         x8,[sp,#0x20]
	ldr         w8,[x8]
	add         w9,w8,#1
	ldr         x8,[sp,#0x20]
	str         w9,[x8]
	ldp         fp,lr,[sp],#0x30
	ret

	ENDP  ; |list_add|

; Function compile flags: /Odtp
; File C:\Users\paras\source\repos\grep-name\XenevaOS\Libs\Chitralekha\widgets\list.cpp

	AREA	|.text$mn|, CODE, ARM64

|initialize_list| PROC

; 35   : list_t* initialize_list() {

|$LN3|
	stp         fp,lr,[sp,#-0x20]!
	mov         fp,sp

; 36   : 	list_t *list = (list_t*)malloc(sizeof(list_t));

	mov         w0,#0xC
	bl          malloc
	str         x0,[sp,#0x10]

; 37   : 	list->entry_current = nullptr;

	ldr         x8,[sp,#0x10]
	add         x9,x8,#4
	mov         x8,#0
	str         x8,[x9]

; 38   : 	list->pointer = 0;

	ldr         x9,[sp,#0x10]
	mov         w8,#0
	str         w8,[x9]

; 39   : 	return list;

	ldr         x0,[sp,#0x10]
	ldp         fp,lr,[sp],#0x20
	ret

	ENDP  ; |initialize_list|

	END
