; Listing generated by Microsoft (R) Optimizing Compiler Version 19.29.30159.0 

	TTL	E:\Xeneva Project\Aurora\Libs\Chitralekha\ARM64\Debug\menu.obj
	ARM64

	AREA	|.drectve|, DRECTVE


	AREA	|.rdata|, DATA, READONLY
|$SG5158| DCB	"Popup menu destroying ", 0xd, 0xa, 0x0
	%	7
|$SG5160| DCB	"Popup Menu Destroyed ", 0xd, 0xa, 0x0
|$SG5176| DCB	"MenuItem destroying %s", 0xd, 0xa, 0x0
	%	3
|$SG5239| DCB	"Popup", 0x0
	%	6
|$SG5192| DCB	"Item clicked %s ", 0xd, 0xa, 0x0
	EXPORT	|ChCreatePopupMenu|
	EXPORT	|ChCreateMenuItem|
	EXPORT	|ChMenuShow|
	EXPORT	|ChMenuHide|
	EXPORT	|?ChPopupMenuMouseEvent@@YAXPEAU_ChWidget_@@PEAU_chwin_@@HHH@Z| ; ChPopupMenuMouseEvent
	EXPORT	|?ChPopupMenuDestroy@@YAXPEAU_ChWidget_@@PEAU_chwin_@@@Z| ; ChPopupMenuDestroy
	EXPORT	|?ChMenuItemDestroy@@YAXPEAU_ChWidget_@@PEAU_chwin_@@@Z| ; ChMenuItemDestroy
	EXPORT	|?ChMenuItemMouseEvent@@YAXPEAU_ChWidget_@@PEAU_chwin_@@HHH@Z| ; ChMenuItemMouseEvent
	EXPORT	|?ChMenuRecalculateDimensions@@YAXPEAU_popup_menu_@@@Z| ; ChMenuRecalculateDimensions
	IMPORT	|_KePrint|
	IMPORT	|malloc|
	IMPORT	|free|
	IMPORT	|ChFontSetSize|
	IMPORT	|ChFontGetWidth|
	IMPORT	|initialize_list|
	IMPORT	|list_add|
	IMPORT	|list_get_at|
	IMPORT	|list_clear_all|
	IMPORT	|ChWindowUpdate|
	IMPORT	|ChWindowHide|
	IMPORT	|ChWindowSetFocused|
	IMPORT	|ChWindowSetFlags|
	IMPORT	|ChCreatePopupWindow|
	IMPORT	|ChPopupWindowShow|
	IMPORT	|ChPopupWindowUpdateLocation|
	IMPORT	|_KeProcessSleep|
	IMPORT	|?ChPopupMenuPaint@@YAXPEAU_popup_menu_@@@Z| ; ChPopupMenuPaint

	AREA	|.pdata|, PDATA
|$pdata$ChCreatePopupMenu| DCD imagerel |$LN3|
	DCD	0x1e000a9
	;Flags[SingleProEpi] functionLength[168] RegF[0] RegI[0] H[0] frameChainReturn[Chained] frameSize[48]
|$pdata$ChCreateMenuItem| DCD imagerel |$LN6|
	DCD	0x3600175
	;Flags[SingleProEpi] functionLength[372] RegF[0] RegI[0] H[0] frameChainReturn[Chained] frameSize[96]
|$pdata$ChMenuShow| DCD imagerel |$LN5|
	DCD	0x16001b5
	;Flags[SingleProEpi] functionLength[436] RegF[0] RegI[0] H[0] frameChainReturn[Chained] frameSize[32]
|$pdata$ChMenuHide| DCD imagerel |$LN6|
	DCD	0x1600079
	;Flags[SingleProEpi] functionLength[120] RegF[0] RegI[0] H[0] frameChainReturn[Chained] frameSize[32]
|$pdata$?ChPopupMenuMouseEvent@@YAXPEAU_ChWidget_@@PEAU_chwin_@@HHH@Z| DCD imagerel |$LN12|
	DCD	0x3600281
	;Flags[SingleProEpi] functionLength[640] RegF[0] RegI[0] H[0] frameChainReturn[Chained] frameSize[96]
|$pdata$?ChPopupMenuDestroy@@YAXPEAU_ChWidget_@@PEAU_chwin_@@@Z| DCD imagerel |$LN7|
	DCD	0x26000cd
	;Flags[SingleProEpi] functionLength[204] RegF[0] RegI[0] H[0] frameChainReturn[Chained] frameSize[64]
|$pdata$?ChMenuItemDestroy@@YAXPEAU_ChWidget_@@PEAU_chwin_@@@Z| DCD imagerel |$LN5|
	DCD	0x1e000a9
	;Flags[SingleProEpi] functionLength[168] RegF[0] RegI[0] H[0] frameChainReturn[Chained] frameSize[48]
|$pdata$?ChMenuItemMouseEvent@@YAXPEAU_ChWidget_@@PEAU_chwin_@@HHH@Z| DCD imagerel |$LN8|
	DCD	0x2600189
	;Flags[SingleProEpi] functionLength[392] RegF[0] RegI[0] H[0] frameChainReturn[Chained] frameSize[64]
|$pdata$?ChMenuRecalculateDimensions@@YAXPEAU_popup_menu_@@@Z| DCD imagerel |$LN16|
	DCD	0x2600249
	;Flags[SingleProEpi] functionLength[584] RegF[0] RegI[0] H[0] frameChainReturn[Chained] frameSize[64]
; Function compile flags: /Odtp
; File E:\Xeneva Project\Aurora\Libs\Chitralekha\widgets\menu.cpp

	AREA	|.text$mn|, CODE, ARM64

|?ChMenuRecalculateDimensions@@YAXPEAU_popup_menu_@@@Z| PROC ; ChMenuRecalculateDimensions

; 163  : void ChMenuRecalculateDimensions(ChPopupMenu * pm) {

|$LN16|
	stp         fp,lr,[sp,#-0x40]!
	mov         fp,sp
	str         x0,[sp,#0x18]

; 164  : 	int w = 0;

	mov         w8,#0
	str         w8,[sp,#0x14]

; 165  : 	int h = 0;

	mov         w8,#0
	str         w8,[sp,#0x10]

; 166  : 	if (!pm->mainWindow)

	ldr         x8,[sp,#0x18]
	add         x8,x8,#0x50
	ldr         x8,[x8]
	cmp         x8,#0
	bne         |$LN8@ChMenuReca|

; 167  : 		return;

	b           |$LN1@ChMenuReca|
|$LN8@ChMenuReca|

; 168  : 	ChFontSetSize(pm->mainWindow->app->baseFont, 10);

	ldr         x8,[sp,#0x18]
	add         x8,x8,#0x50
	ldr         x8,[x8]
	add         x8,x8,#0x30
	ldr         x8,[x8]
	add         x8,x8,#0x30
	mov         w1,#0xA
	ldr         x0,[x8]
	bl          ChFontSetSize

; 169  : 	int pad_y = DEFAULT_MENU_ITEM_BUTTON_PADY;

	mov         w8,#0
	str         w8,[sp,#0x2C]

; 170  : 	h = pad_y;

	ldr         w8,[sp,#0x2C]
	str         w8,[sp,#0x10]

; 171  : 	for (int i = 0; i < pm->MenuItems->pointer; i++) {

	mov         w8,#0
	str         w8,[sp,#0x20]
	b           |$LN4@ChMenuReca|
|$LN2@ChMenuReca|
	ldr         w8,[sp,#0x20]
	add         w8,w8,#1
	str         w8,[sp,#0x20]
|$LN4@ChMenuReca|
	ldr         x8,[sp,#0x18]
	add         x8,x8,#0x60
	ldr         x8,[x8]
	ldr         w9,[x8]
	ldr         w8,[sp,#0x20]
	cmp         w8,w9
	bhs         |$LN3@ChMenuReca|

; 172  : 		ChMenuItem* mi = (ChMenuItem*)list_get_at(pm->MenuItems, i);

	ldr         x8,[sp,#0x18]
	add         x8,x8,#0x60
	ldr         w1,[sp,#0x20]
	ldr         x0,[x8]
	bl          list_get_at
	str         x0,[sp,#0x30]

; 173  : 		int stringW = ChFontGetWidth(pm->mainWindow->app->baseFont, mi->title);

	ldr         x8,[sp,#0x30]
	add         x9,x8,#0x50
	ldr         x8,[sp,#0x18]
	add         x8,x8,#0x50
	ldr         x8,[x8]
	add         x8,x8,#0x30
	ldr         x8,[x8]
	add         x8,x8,#0x30
	ldr         x1,[x9]
	ldr         x0,[x8]
	bl          ChFontGetWidth
	mov         w8,w0
	str         w8,[sp,#0x28]

; 174  : 		if (w < stringW)

	ldr         w9,[sp,#0x28]
	ldr         w8,[sp,#0x14]
	cmp         w8,w9
	bge         |$LN9@ChMenuReca|

; 175  : 			w = stringW;

	ldr         w8,[sp,#0x28]
	str         w8,[sp,#0x14]
|$LN9@ChMenuReca|

; 176  : 		if (mi->seperator)

	ldr         x8,[sp,#0x30]
	add         x8,x8,#0x68
	ldrsb       w8,[x8]
	mov         w8,w8
	cmp         w8,#0
	beq         |$LN10@ChMenuReca|

; 177  : 			h += DEFAULT_MENU_ITEM_HEIGHT + DEFAULT_MENU_ITEM_BUTTON_PADY + 2;

	ldr         w8,[sp,#0x10]
	add         w8,w8,#0x1E
	str         w8,[sp,#0x10]
	b           |$LN11@ChMenuReca|
|$LN10@ChMenuReca|

; 178  : 		else
; 179  : 			h += DEFAULT_MENU_ITEM_HEIGHT + DEFAULT_MENU_ITEM_BUTTON_PADY;

	ldr         w8,[sp,#0x10]
	add         w8,w8,#0x1C
	str         w8,[sp,#0x10]
|$LN11@ChMenuReca|

; 180  : 	}

	b           |$LN2@ChMenuReca|
|$LN3@ChMenuReca|

; 181  : 	if (!w && !h){

	ldr         w8,[sp,#0x14]
	cmp         w8,#0
	bne         |$LN12@ChMenuReca|
	ldr         w8,[sp,#0x10]
	cmp         w8,#0
	bne         |$LN12@ChMenuReca|

; 182  : 		w = DEFAULT_POPUP_MENU_WIDTH;

	mov         w8,#0x64
	str         w8,[sp,#0x14]

; 183  : 		h = DEFAULT_POPUP_MENU_HEIGHT;

	mov         w8,#0xF
	str         w8,[sp,#0x10]

; 184  : 	}

	b           |$LN13@ChMenuReca|
|$LN12@ChMenuReca|

; 185  : 	else 
; 186  : 		w += 20*2;

	ldr         w8,[sp,#0x14]
	add         w8,w8,#0x28
	str         w8,[sp,#0x14]
|$LN13@ChMenuReca|

; 187  : 
; 188  : 
; 189  : 	if (!pm->x_loc && !pm->y_loc){

	ldr         x8,[sp,#0x18]
	add         x8,x8,#0x68
	ldr         w8,[x8]
	cmp         w8,#0
	bne         |$LN14@ChMenuReca|
	ldr         x8,[sp,#0x18]
	add         x8,x8,#0x6C
	ldr         w8,[x8]
	cmp         w8,#0
	bne         |$LN14@ChMenuReca|

; 190  : 		pm->x_loc = 5;

	ldr         x8,[sp,#0x18]
	add         x9,x8,#0x68
	mov         w8,#5
	str         w8,[x9]

; 191  : 		pm->y_loc = 62;

	ldr         x8,[sp,#0x18]
	add         x9,x8,#0x6C
	mov         w8,#0x3E
	str         w8,[x9]
|$LN14@ChMenuReca|

; 192  : 	}
; 193  : 
; 194  : 	pm->wid.w = w;

	ldr         x8,[sp,#0x18]
	add         x9,x8,#8
	ldr         w8,[sp,#0x14]
	str         w8,[x9]

; 195  : 	pm->wid.h = h;

	ldr         x8,[sp,#0x18]
	add         x9,x8,#0xC
	ldr         w8,[sp,#0x10]
	str         w8,[x9]

; 196  : 	for (int i = 0; i < pm->MenuItems->pointer; i++) {

	mov         w8,#0
	str         w8,[sp,#0x24]
	b           |$LN7@ChMenuReca|
|$LN5@ChMenuReca|
	ldr         w8,[sp,#0x24]
	add         w8,w8,#1
	str         w8,[sp,#0x24]
|$LN7@ChMenuReca|
	ldr         x8,[sp,#0x18]
	add         x8,x8,#0x60
	ldr         x8,[x8]
	ldr         w9,[x8]
	ldr         w8,[sp,#0x24]
	cmp         w8,w9
	bhs         |$LN6@ChMenuReca|

; 197  : 		ChMenuItem* mi = (ChMenuItem*)list_get_at(pm->MenuItems, i);

	ldr         x8,[sp,#0x18]
	add         x8,x8,#0x60
	ldr         w1,[sp,#0x24]
	ldr         x0,[x8]
	bl          list_get_at
	str         x0,[sp,#0x38]

; 198  : 		mi->wid.w = pm->wid.w;

	ldr         x8,[sp,#0x18]
	add         x10,x8,#8
	ldr         x8,[sp,#0x38]
	add         x9,x8,#8
	ldr         w8,[x10]
	str         w8,[x9]

; 199  : 	}

	b           |$LN5@ChMenuReca|
|$LN6@ChMenuReca|
|$LN1@ChMenuReca|
	ldp         fp,lr,[sp],#0x40
	ret

	ENDP  ; |?ChMenuRecalculateDimensions@@YAXPEAU_popup_menu_@@@Z|, ChMenuRecalculateDimensions

; Function compile flags: /Odtp
; File E:\Xeneva Project\Aurora\Libs\Chitralekha\widgets\menu.cpp

	AREA	|.text$mn|, CODE, ARM64

|?ChMenuItemMouseEvent@@YAXPEAU_ChWidget_@@PEAU_chwin_@@HHH@Z| PROC ; ChMenuItemMouseEvent

; 118  : void ChMenuItemMouseEvent(ChWidget* wid, ChWindow* win, int x, int y, int button) {

|$LN8|
	stp         fp,lr,[sp,#-0x40]!
	mov         fp,sp
	str         x0,[sp,#0x30]
	str         x1,[sp,#0x38]
	str         w2,[sp,#0x18]
	str         w3,[sp,#0x1C]
	str         w4,[sp,#0x14]

; 119  : 	ChMenuItem* item = (ChMenuItem*)wid;

	ldr         x8,[sp,#0x30]
	str         x8,[sp,#0x20]

; 120  : 	ChPopupMenu* pm = item->parent;

	ldr         x8,[sp,#0x20]
	add         x8,x8,#0x60
	ldr         x8,[x8]
	str         x8,[sp,#0x28]

; 121  : 	
; 122  : 	bool _action_required = false;

	mov         w8,#0
	strb        w8,[sp,#0x10]

; 123  : 	if (button) {

	ldr         w8,[sp,#0x14]
	cmp         w8,#0
	beq         |$LN2@ChMenuItem|

; 124  : 		_KePrint("Item clicked %s \r\n", item->title);

	ldr         x8,[sp,#0x20]
	add         x8,x8,#0x50
	ldr         x1,[x8]
	adrp        x8,|$SG5192|
	add         x0,x8,PageOffset(|$SG5192|)
	bl          _KePrint

; 125  : 		if (item->menu) {

	ldr         x8,[sp,#0x20]
	add         x8,x8,#0x58
	ldr         x8,[x8]
	cmp         x8,#0
	beq         |$LN3@ChMenuItem|

; 126  : 			ChMenuShow(item->menu, item->parent->x_loc + item->wid.x + item->wid.w,

	ldr         x8,[sp,#0x20]
	add         x8,x8,#0x60
	ldr         x8,[x8]
	add         x9,x8,#0x6C
	ldr         x8,[sp,#0x20]
	add         x8,x8,#4
	ldr         w9,[x9]
	ldr         w8,[x8]
	add         w2,w9,w8
	ldr         x8,[sp,#0x20]
	add         x8,x8,#0x60
	ldr         x8,[x8]
	add         x9,x8,#0x68
	ldr         x8,[sp,#0x20]
	ldr         w9,[x9]
	ldr         w8,[x8]
	add         w9,w9,w8
	ldr         x8,[sp,#0x20]
	add         x8,x8,#8
	ldr         w8,[x8]
	add         w1,w9,w8
	ldr         x8,[sp,#0x20]
	add         x8,x8,#0x58
	mov         w2,w2
	mov         w1,w1
	ldr         x0,[x8]
	bl          ChMenuShow

; 127  : 				item->parent->y_loc + item->wid.y);
; 128  : 		}else {

	b           |$LN4@ChMenuItem|
|$LN3@ChMenuItem|

; 129  : 			ChMenuHide(pm);

	ldr         x0,[sp,#0x28]
	bl          ChMenuHide

; 130  : 			ChWindowSetFlags(pm->mainWindow, (pm->mainWindow->flags & ~(WINDOW_FLAG_STATIC)));

	ldr         x8,[sp,#0x28]
	add         x8,x8,#0x50
	ldr         x8,[x8]
	ldrh        w8,[x8]
	mov         w8,w8
	and         w8,w8,#0xFFFFFFFD
	uxth        w1,w8
	ldr         x8,[sp,#0x28]
	add         x8,x8,#0x50
	mov         w1,w1
	ldr         x0,[x8]
	bl          ChWindowSetFlags

; 131  : 			_KeProcessSleep(1000);

	mov         x0,#0x3E8
	bl          _KeProcessSleep

; 132  : 			ChWindowSetFocused(pm->mainWindow);

	ldr         x8,[sp,#0x28]
	add         x8,x8,#0x50
	ldr         x0,[x8]
	bl          ChWindowSetFocused

; 133  : 			_KeProcessSleep(500);

	mov         x0,#0x1F4
	bl          _KeProcessSleep

; 134  : 			//_KeProcessSleep(500);
; 135  : 			_action_required = true;

	mov         w8,#1
	strb        w8,[sp,#0x10]
|$LN4@ChMenuItem|
|$LN2@ChMenuItem|

; 136  : 		}
; 137  : 	}
; 138  : 
; 139  : 	if (_action_required)

	ldrsb       w8,[sp,#0x10]
	mov         w8,w8
	cmp         w8,#0
	beq         |$LN5@ChMenuItem|

; 140  : 		if (item->wid.ChActionHandler)

	ldr         x8,[sp,#0x20]
	add         x8,x8,#0x20
	ldr         x8,[x8]
	cmp         x8,#0
	beq         |$LN6@ChMenuItem|

; 141  : 			item->wid.ChActionHandler((ChWidget*)item, win);

	ldr         x8,[sp,#0x20]
	add         x8,x8,#0x20
	ldr         x1,[sp,#0x38]
	ldr         x0,[sp,#0x20]
	ldr         x8,[x8]
	blr         x8
|$LN6@ChMenuItem|
|$LN5@ChMenuItem|
	ldp         fp,lr,[sp],#0x40
	ret

	ENDP  ; |?ChMenuItemMouseEvent@@YAXPEAU_ChWidget_@@PEAU_chwin_@@HHH@Z|, ChMenuItemMouseEvent

; Function compile flags: /Odtp
; File E:\Xeneva Project\Aurora\Libs\Chitralekha\widgets\menu.cpp

	AREA	|.text$mn|, CODE, ARM64

|?ChMenuItemDestroy@@YAXPEAU_ChWidget_@@PEAU_chwin_@@@Z| PROC ; ChMenuItemDestroy

; 107  : void ChMenuItemDestroy(ChWidget* wid, ChWindow* win) {

|$LN5|
	stp         fp,lr,[sp,#-0x30]!
	mov         fp,sp
	str         x0,[sp,#0x18]
	str         x1,[sp,#0x20]

; 108  : 	ChMenuItem* mi = (ChMenuItem*)wid;

	ldr         x8,[sp,#0x18]
	str         x8,[sp,#0x10]

; 109  : 	_KePrint("MenuItem destroying %s\r\n", mi->title);

	ldr         x8,[sp,#0x10]
	add         x8,x8,#0x50
	ldr         x1,[x8]
	adrp        x8,|$SG5176|
	add         x0,x8,PageOffset(|$SG5176|)
	bl          _KePrint

; 110  : 	free(mi->title);

	ldr         x8,[sp,#0x10]
	add         x8,x8,#0x50
	ldr         x0,[x8]
	bl          free

; 111  : 	if (mi->menu){

	ldr         x8,[sp,#0x10]
	add         x8,x8,#0x58
	ldr         x8,[x8]
	cmp         x8,#0
	beq         |$LN2@ChMenuItem|

; 112  : 		if (mi->menu->wid.ChDestroy)

	ldr         x8,[sp,#0x10]
	add         x8,x8,#0x58
	ldr         x8,[x8]
	add         x8,x8,#0x48
	ldr         x8,[x8]
	cmp         x8,#0
	beq         |$LN3@ChMenuItem|

; 113  : 			mi->menu->wid.ChDestroy((ChWidget*)mi->menu, win);

	ldr         x8,[sp,#0x10]
	add         x9,x8,#0x58
	ldr         x8,[sp,#0x10]
	add         x8,x8,#0x58
	ldr         x8,[x8]
	add         x8,x8,#0x48
	ldr         x1,[sp,#0x20]
	ldr         x0,[x9]
	ldr         x8,[x8]
	blr         x8
|$LN3@ChMenuItem|
|$LN2@ChMenuItem|

; 114  : 	}
; 115  : 	free(mi);

	ldr         x0,[sp,#0x10]
	bl          free
	ldp         fp,lr,[sp],#0x30
	ret

	ENDP  ; |?ChMenuItemDestroy@@YAXPEAU_ChWidget_@@PEAU_chwin_@@@Z|, ChMenuItemDestroy

; Function compile flags: /Odtp
; File E:\Xeneva Project\Aurora\Libs\Chitralekha\widgets\menu.cpp

	AREA	|.text$mn|, CODE, ARM64

|?ChPopupMenuDestroy@@YAXPEAU_ChWidget_@@PEAU_chwin_@@@Z| PROC ; ChPopupMenuDestroy

; 78   : void ChPopupMenuDestroy(ChWidget* widget, ChWindow* win) {

|$LN7|
	stp         fp,lr,[sp,#-0x40]!
	mov         fp,sp
	str         x0,[sp,#0x28]
	str         x1,[sp,#0x30]

; 79   : 	_KePrint("Popup menu destroying \r\n");

	adrp        x8,|$SG5158|
	add         x0,x8,PageOffset(|$SG5158|)
	bl          _KePrint

; 80   : 	ChPopupMenu* pm = (ChPopupMenu*)widget;

	ldr         x8,[sp,#0x28]
	str         x8,[sp,#0x18]

; 81   : 	for (int i = 0; i < pm->MenuItems->pointer; i++) {

	mov         w8,#0
	str         w8,[sp,#0x10]
	b           |$LN4@ChPopupMen|
|$LN2@ChPopupMen|
	ldr         w8,[sp,#0x10]
	add         w8,w8,#1
	str         w8,[sp,#0x10]
|$LN4@ChPopupMen|
	ldr         x8,[sp,#0x18]
	add         x8,x8,#0x60
	ldr         x8,[x8]
	ldr         w9,[x8]
	ldr         w8,[sp,#0x10]
	cmp         w8,w9
	bhs         |$LN3@ChPopupMen|

; 82   : 		ChMenuItem* mi = (ChMenuItem*)list_get_at(pm->MenuItems, i);

	ldr         x8,[sp,#0x18]
	add         x8,x8,#0x60
	ldr         w1,[sp,#0x10]
	ldr         x0,[x8]
	bl          list_get_at
	str         x0,[sp,#0x20]

; 83   : 		if (mi->wid.ChDestroy)

	ldr         x8,[sp,#0x20]
	add         x8,x8,#0x48
	ldr         x8,[x8]
	cmp         x8,#0
	beq         |$LN5@ChPopupMen|

; 84   : 			mi->wid.ChDestroy((ChWidget*)mi, win);

	ldr         x8,[sp,#0x20]
	add         x8,x8,#0x48
	ldr         x1,[sp,#0x30]
	ldr         x0,[sp,#0x20]
	ldr         x8,[x8]
	blr         x8
|$LN5@ChPopupMen|

; 85   : 	}

	b           |$LN2@ChPopupMen|
|$LN3@ChPopupMen|

; 86   : 	list_clear_all(pm->MenuItems);

	ldr         x8,[sp,#0x18]
	add         x8,x8,#0x60
	ldr         x0,[x8]
	bl          list_clear_all

; 87   : 	free(pm);

	ldr         x0,[sp,#0x18]
	bl          free

; 88   : 	_KePrint("Popup Menu Destroyed \r\n");

	adrp        x8,|$SG5160|
	add         x0,x8,PageOffset(|$SG5160|)
	bl          _KePrint
	ldp         fp,lr,[sp],#0x40
	ret

	ENDP  ; |?ChPopupMenuDestroy@@YAXPEAU_ChWidget_@@PEAU_chwin_@@@Z|, ChPopupMenuDestroy

; Function compile flags: /Odtp
; File E:\Xeneva Project\Aurora\Libs\Chitralekha\widgets\menu.cpp

	AREA	|.text$mn|, CODE, ARM64

|?ChPopupMenuMouseEvent@@YAXPEAU_ChWidget_@@PEAU_chwin_@@HHH@Z| PROC ; ChPopupMenuMouseEvent

; 42   : void ChPopupMenuMouseEvent(ChWidget* wid, ChWindow* win, int x, int y, int button){

|$LN12|
	stp         fp,lr,[sp,#-0x60]!
	mov         fp,sp
	str         x0,[sp,#0x48]
	str         x1,[sp,#0x38]
	str         w2,[sp,#0x28]
	str         w3,[sp,#0x24]
	str         w4,[sp,#0x40]

; 43   : 	ChPopupMenu* pm = (ChPopupMenu*)wid;

	ldr         x8,[sp,#0x48]
	str         x8,[sp,#0x30]

; 44   : 	if (!pm->backWindow)

	ldr         x8,[sp,#0x30]
	add         x8,x8,#0x58
	ldr         x8,[x8]
	cmp         x8,#0
	bne         |$LN5@ChPopupMen|

; 45   : 		return;

	b           |$LN1@ChPopupMen|
|$LN5@ChPopupMen|

; 46   : 	bool _need_paint = false;

	mov         w8,#0
	strb        w8,[sp,#0x10]

; 47   : 	ChMenuItem *selectedItem = NULL;

	mov         x8,#0
	str         x8,[sp,#0x50]

; 48   : 	for (int i = 0; i < pm->MenuItems->pointer; i++) {

	mov         w8,#0
	str         w8,[sp,#0x20]
	b           |$LN4@ChPopupMen|
|$LN2@ChPopupMen|
	ldr         w8,[sp,#0x20]
	add         w8,w8,#1
	str         w8,[sp,#0x20]
|$LN4@ChPopupMen|
	ldr         x8,[sp,#0x30]
	add         x8,x8,#0x60
	ldr         x8,[x8]
	ldr         w9,[x8]
	ldr         w8,[sp,#0x20]
	cmp         w8,w9
	bhs         |$LN3@ChPopupMen|

; 49   : 		ChMenuItem* mi = (ChMenuItem*)list_get_at(pm->MenuItems, i);

	ldr         x8,[sp,#0x30]
	add         x8,x8,#0x60
	ldr         w1,[sp,#0x20]
	ldr         x0,[x8]
	bl          list_get_at
	str         x0,[sp,#0x18]

; 50   : 		if (x >= (win->info->x + mi->wid.x) && x < (win->info->x + mi->wid.x + mi->wid.w) &&
; 51   : 		    y >= (win->info->y + mi->wid.y) && y < (win->info->y + mi->wid.y + mi->wid.h)){

	ldr         x8,[sp,#0x38]
	add         x8,x8,#0x28
	ldr         x9,[x8]
	mov         x8,#0x1008
	add         x9,x9,x8
	ldr         x8,[sp,#0x18]
	ldr         w9,[x9]
	ldr         w8,[x8]
	add         w9,w9,w8
	ldr         w8,[sp,#0x28]
	cmp         w8,w9
	blt         |$LN6@ChPopupMen|
	ldr         x8,[sp,#0x38]
	add         x8,x8,#0x28
	ldr         x9,[x8]
	mov         x8,#0x1008
	add         x9,x9,x8
	ldr         x8,[sp,#0x18]
	ldr         w9,[x9]
	ldr         w8,[x8]
	add         w9,w9,w8
	ldr         x8,[sp,#0x18]
	add         x8,x8,#8
	ldr         w8,[x8]
	add         w9,w9,w8
	ldr         w8,[sp,#0x28]
	cmp         w8,w9
	bge         |$LN6@ChPopupMen|
	ldr         x8,[sp,#0x38]
	add         x8,x8,#0x28
	ldr         x9,[x8]
	mov         x8,#0x100C
	add         x9,x9,x8
	ldr         x8,[sp,#0x18]
	add         x8,x8,#4
	ldr         w9,[x9]
	ldr         w8,[x8]
	add         w9,w9,w8
	ldr         w8,[sp,#0x24]
	cmp         w8,w9
	blt         |$LN6@ChPopupMen|
	ldr         x8,[sp,#0x38]
	add         x8,x8,#0x28
	ldr         x9,[x8]
	mov         x8,#0x100C
	add         x9,x9,x8
	ldr         x8,[sp,#0x18]
	add         x8,x8,#4
	ldr         w9,[x9]
	ldr         w8,[x8]
	add         w9,w9,w8
	ldr         x8,[sp,#0x18]
	add         x8,x8,#0xC
	ldr         w8,[x8]
	add         w9,w9,w8
	ldr         w8,[sp,#0x24]
	cmp         w8,w9
	bge         |$LN6@ChPopupMen|

; 52   : 			mi->wid.hover = true;

	ldr         x8,[sp,#0x18]
	add         x9,x8,#0x19
	mov         w8,#1
	strb        w8,[x9]

; 53   : 			mi->wid.KillFocus = false;

	ldr         x8,[sp,#0x18]
	add         x9,x8,#0x1B
	mov         w8,#0
	strb        w8,[x9]

; 54   : 			if (mi->wid.ChMouseEvent)

	ldr         x8,[sp,#0x18]
	add         x8,x8,#0x28
	ldr         x8,[x8]
	cmp         x8,#0
	beq         |$LN8@ChPopupMen|

; 55   : 				mi->wid.ChMouseEvent((ChWidget*)mi, win, x, y, button);

	ldr         x8,[sp,#0x18]
	add         x8,x8,#0x28
	ldr         w4,[sp,#0x40]
	ldr         w3,[sp,#0x24]
	ldr         w2,[sp,#0x28]
	ldr         x1,[sp,#0x38]
	ldr         x0,[sp,#0x18]
	ldr         x8,[x8]
	blr         x8
|$LN8@ChPopupMen|

; 56   : 			_need_paint = true;

	mov         w8,#1
	strb        w8,[sp,#0x10]

; 57   : 		}

	b           |$LN7@ChPopupMen|
|$LN6@ChPopupMen|

; 58   : 		else {
; 59   : 			if (mi->wid.hover) {

	ldr         x8,[sp,#0x18]
	add         x8,x8,#0x19
	ldrsb       w8,[x8]
	mov         w8,w8
	cmp         w8,#0
	beq         |$LN9@ChPopupMen|

; 60   : 				mi->wid.hover = false;

	ldr         x8,[sp,#0x18]
	add         x9,x8,#0x19
	mov         w8,#0
	strb        w8,[x9]

; 61   : 				mi->wid.KillFocus = true;

	ldr         x8,[sp,#0x18]
	add         x9,x8,#0x1B
	mov         w8,#1
	strb        w8,[x9]

; 62   : 				_need_paint = true;

	mov         w8,#1
	strb        w8,[sp,#0x10]
|$LN9@ChPopupMen|
|$LN7@ChPopupMen|

; 63   : 			}
; 64   : 		}
; 65   : 	}

	b           |$LN2@ChPopupMen|
|$LN3@ChPopupMen|

; 66   : 
; 67   : 	if (_need_paint) {

	ldrsb       w8,[sp,#0x10]
	mov         w8,w8
	cmp         w8,#0
	beq         |$LN10@ChPopupMen|

; 68   : 		ChPopupMenuPaint(pm);

	ldr         x0,[sp,#0x30]
	bl          |?ChPopupMenuPaint@@YAXPEAU_popup_menu_@@@Z|

; 69   : 		ChWindowUpdate(pm->backWindow, 0, 0, pm->wid.w, pm->wid.h, 1, 0);

	ldr         x8,[sp,#0x30]
	add         x10,x8,#0xC
	ldr         x8,[sp,#0x30]
	add         x9,x8,#8
	ldr         x8,[sp,#0x30]
	add         x8,x8,#0x58
	mov         w6,#0
	mov         w5,#1
	ldr         w4,[x10]
	ldr         w3,[x9]
	mov         w2,#0
	mov         w1,#0
	ldr         x0,[x8]
	bl          ChWindowUpdate
|$LN10@ChPopupMen|
|$LN1@ChPopupMen|
	ldp         fp,lr,[sp],#0x60
	ret

	ENDP  ; |?ChPopupMenuMouseEvent@@YAXPEAU_ChWidget_@@PEAU_chwin_@@HHH@Z|, ChPopupMenuMouseEvent

; Function compile flags: /Odtp
; File E:\Xeneva Project\Aurora\Libs\Chitralekha\widgets\menu.cpp

	AREA	|.text$mn|, CODE, ARM64

|ChMenuHide| PROC

; 229  : void ChMenuHide(ChPopupMenu* menu) {

|$LN6|
	stp         fp,lr,[sp,#-0x20]!
	mov         fp,sp
	str         x0,[sp,#0x10]

; 230  : 	if (!menu)

	ldr         x8,[sp,#0x10]
	cmp         x8,#0
	bne         |$LN2@ChMenuHide|

; 231  : 		return;

	b           |$LN1@ChMenuHide|
|$LN2@ChMenuHide|

; 232  : 	if (!menu->backWindow)

	ldr         x8,[sp,#0x10]
	add         x8,x8,#0x58
	ldr         x8,[x8]
	cmp         x8,#0
	bne         |$LN3@ChMenuHide|

; 233  : 		return;

	b           |$LN1@ChMenuHide|
|$LN3@ChMenuHide|

; 234  : 	ChWindowHide(menu->backWindow);

	ldr         x8,[sp,#0x10]
	add         x8,x8,#0x58
	ldr         x0,[x8]
	bl          ChWindowHide

; 235  : 	_KeProcessSleep(500);

	mov         x0,#0x1F4
	bl          _KeProcessSleep

; 236  : 	if (menu->parent) {

	ldr         x8,[sp,#0x10]
	add         x8,x8,#0x78
	ldr         x8,[x8]
	cmp         x8,#0
	beq         |$LN4@ChMenuHide|

; 237  : 		ChMenuHide(menu->parent);

	ldr         x8,[sp,#0x10]
	add         x8,x8,#0x78
	ldr         x0,[x8]
	bl          ChMenuHide
|$LN4@ChMenuHide|
|$LN1@ChMenuHide|
	ldp         fp,lr,[sp],#0x20
	ret

	ENDP  ; |ChMenuHide|

; Function compile flags: /Odtp
; File E:\Xeneva Project\Aurora\Libs\Chitralekha\widgets\menu.cpp

	AREA	|.text$mn|, CODE, ARM64

|ChMenuShow| PROC

; 202  : void ChMenuShow(ChPopupMenu* menu, int x, int y) {

|$LN5|
	stp         fp,lr,[sp,#-0x20]!
	mov         fp,sp
	str         x0,[sp,#0x18]
	str         w1,[sp,#0x10]
	str         w2,[sp,#0x14]

; 203  : 	if (menu->backWindow) {

	ldr         x8,[sp,#0x18]
	add         x8,x8,#0x58
	ldr         x8,[x8]
	cmp         x8,#0
	beq         |$LN2@ChMenuShow|

; 204  : 		menu->x_loc = x + 5;

	ldr         w8,[sp,#0x10]
	add         w9,w8,#5
	ldr         x8,[sp,#0x18]
	add         x8,x8,#0x68
	str         w9,[x8]

; 205  : 		menu->y_loc = y;

	ldr         x8,[sp,#0x18]
	add         x9,x8,#0x6C
	ldr         w8,[sp,#0x14]
	str         w8,[x9]

; 206  : 		ChPopupWindowUpdateLocation(menu->backWindow, menu->mainWindow, x + 5, y);

	ldr         w8,[sp,#0x10]
	add         w2,w8,#5
	ldr         x8,[sp,#0x18]
	add         x9,x8,#0x50
	ldr         x8,[sp,#0x18]
	add         x8,x8,#0x58
	ldr         w3,[sp,#0x14]
	mov         w2,w2
	ldr         x1,[x9]
	ldr         x0,[x8]
	bl          ChPopupWindowUpdateLocation

; 207  : 		ChPopupWindowShow(menu->backWindow, menu->mainWindow);

	ldr         x8,[sp,#0x18]
	add         x9,x8,#0x50
	ldr         x8,[sp,#0x18]
	add         x8,x8,#0x58
	ldr         x1,[x9]
	ldr         x0,[x8]
	bl          ChPopupWindowShow

; 208  : 		_KeProcessSleep(1000);

	mov         x0,#0x3E8
	bl          _KeProcessSleep

; 209  : 		ChWindowSetFocused(menu->backWindow);

	ldr         x8,[sp,#0x18]
	add         x8,x8,#0x58
	ldr         x0,[x8]
	bl          ChWindowSetFocused

; 210  : 	}

	b           |$LN3@ChMenuShow|
|$LN2@ChMenuShow|

; 211  : 	else {
; 212  : 		ChMenuRecalculateDimensions(menu);

	ldr         x0,[sp,#0x18]
	bl          |?ChMenuRecalculateDimensions@@YAXPEAU_popup_menu_@@@Z|

; 213  : 		menu->x_loc = x + 5;

	ldr         w8,[sp,#0x10]
	add         w9,w8,#5
	ldr         x8,[sp,#0x18]
	add         x8,x8,#0x68
	str         w9,[x8]

; 214  : 		menu->y_loc = y;

	ldr         x8,[sp,#0x18]
	add         x9,x8,#0x6C
	ldr         w8,[sp,#0x14]
	str         w8,[x9]

; 215  : 		menu->backWindow = ChCreatePopupWindow(

	ldr         x8,[sp,#0x18]
	add         x13,x8,#0xC
	ldr         x8,[sp,#0x18]
	add         x12,x8,#8
	ldr         x8,[sp,#0x18]
	add         x11,x8,#0x6C
	ldr         x8,[sp,#0x18]
	add         x10,x8,#0x68
	ldr         x8,[sp,#0x18]
	add         x9,x8,#0x50
	adrp        x8,|$SG5239|
	add         x6,x8,PageOffset(|$SG5239|)
	mov         w5,#0x800
	ldr         w4,[x13]
	ldr         w3,[x12]
	ldr         w2,[x11]
	ldr         w1,[x10]
	ldr         x0,[x9]
	bl          ChCreatePopupWindow
	ldr         x8,[sp,#0x18]
	add         x8,x8,#0x58
	str         x0,[x8]

; 216  : 			menu->mainWindow, menu->x_loc, menu->y_loc, menu->wid.w, menu->wid.h,WINDOW_FLAG_POPUP,
; 217  : 			"Popup");
; 218  : 		ChPopupMenuPaint(menu);

	ldr         x0,[sp,#0x18]
	bl          |?ChPopupMenuPaint@@YAXPEAU_popup_menu_@@@Z|

; 219  : 		ChWindowUpdate(menu->backWindow,0,0,menu->wid.w, menu->wid.h, 1,0 );

	ldr         x8,[sp,#0x18]
	add         x10,x8,#0xC
	ldr         x8,[sp,#0x18]
	add         x9,x8,#8
	ldr         x8,[sp,#0x18]
	add         x8,x8,#0x58
	mov         w6,#0
	mov         w5,#1
	ldr         w4,[x10]
	ldr         w3,[x9]
	mov         w2,#0
	mov         w1,#0
	ldr         x0,[x8]
	bl          ChWindowUpdate

; 220  : 		ChPopupWindowShow(menu->backWindow,menu->mainWindow);

	ldr         x8,[sp,#0x18]
	add         x9,x8,#0x50
	ldr         x8,[sp,#0x18]
	add         x8,x8,#0x58
	ldr         x1,[x9]
	ldr         x0,[x8]
	bl          ChPopupWindowShow

; 221  : 		list_add(menu->backWindow->widgets, menu);

	ldr         x8,[sp,#0x18]
	add         x8,x8,#0x58
	ldr         x8,[x8]
	add         x8,x8,#0x50
	ldr         x1,[sp,#0x18]
	ldr         x0,[x8]
	bl          list_add
|$LN3@ChMenuShow|
	ldp         fp,lr,[sp],#0x20
	ret

	ENDP  ; |ChMenuShow|

; Function compile flags: /Odtp
; File E:\Xeneva Project\Aurora\Libs\Chitralekha\widgets\menu.cpp

	AREA	|.text$mn|, CODE, ARM64

|ChCreateMenuItem| PROC

; 148  : ChMenuItem* ChCreateMenuItem(char* title,ChPopupMenu* pm) {

|$LN6|
	stp         fp,lr,[sp,#-0x60]!
	mov         fp,sp
	str         x0,[sp,#0x30]
	str         x1,[sp,#0x40]

; 149  : 	ChMenuItem* mi = (ChMenuItem*)malloc(sizeof(ChMenuItem));

	mov         w0,#0x70
	bl          malloc
	str         x0,[sp,#0x18]

; 150  : 	memset(mi, 0, sizeof(ChMenuItem));

	ldr         x9,[sp,#0x18]
	mov         x8,#0
	stp         x8,x8,[x9]
	stp         x8,x8,[x9,#0x10]
	stp         x8,x8,[x9,#0x20]
	stp         x8,x8,[x9,#0x30]
	stp         x8,x8,[x9,#0x40]
	stp         x8,x8,[x9,#0x50]
	stp         x8,x8,[x9,#0x60]

; 151  : 	mi->wid.h = DEFAULT_MENU_ITEM_HEIGHT;

	ldr         x8,[sp,#0x18]
	add         x9,x8,#0xC
	mov         w8,#0x1C
	str         w8,[x9]

; 152  : 	mi->wid.x = 0;

	ldr         x9,[sp,#0x18]
	mov         w8,#0
	str         w8,[x9]

; 153  : 	mi->wid.ChMouseEvent = ChMenuItemMouseEvent;

	ldr         x8,[sp,#0x18]
	add         x9,x8,#0x28
	adrp        x8,|?ChMenuItemMouseEvent@@YAXPEAU_ChWidget_@@PEAU_chwin_@@HHH@Z|
	add         x8,x8,PageOffset(|?ChMenuItemMouseEvent@@YAXPEAU_ChWidget_@@PEAU_chwin_@@HHH@Z|)
	str         x8,[x9]

; 154  : 	mi->title = (char*)malloc(strlen(title));

	ldr         x8,[sp,#0x30]
	str         x8,[sp,#0x20]
|$LN4@ChCreateMe|
	ldr         x8,[sp,#0x20]
	ldrsb       w8,[x8]
	cmp         w8,#0
	beq         |$LN3@ChCreateMe|
	ldr         x8,[sp,#0x20]
	add         x8,x8,#1
	str         x8,[sp,#0x20]
	b           |$LN4@ChCreateMe|
|$LN3@ChCreateMe|
	ldr         x9,[sp,#0x20]
	ldr         x8,[sp,#0x30]
	sub         x8,x9,x8
	str         x8,[sp,#0x48]
	ldr         x8,[sp,#0x48]
	mov         w0,w8
	mov         w0,w0
	bl          malloc
	ldr         x8,[sp,#0x18]
	add         x8,x8,#0x50
	str         x0,[x8]

; 155  : 	strcpy(mi->title, title);

	ldr         x8,[sp,#0x30]
	str         x8,[sp,#0x38]
	ldr         x8,[sp,#0x18]
	add         x8,x8,#0x50
	ldr         x8,[x8]
	str         x8,[sp,#0x28]
	ldr         x8,[sp,#0x28]
	str         x8,[sp,#0x50]
|$LN5@ChCreateMe|
	ldr         x8,[sp,#0x38]
	ldrsb       w8,[x8]
	strb        w8,[sp,#0x10]
	ldr         x9,[sp,#0x28]
	ldrsb       w8,[sp,#0x10]
	strb        w8,[x9]
	ldr         x8,[sp,#0x38]
	add         x8,x8,#1
	str         x8,[sp,#0x38]
	ldr         x8,[sp,#0x28]
	add         x8,x8,#1
	str         x8,[sp,#0x28]
	ldrsb       w8,[sp,#0x10]
	cmp         w8,#0
	bne         |$LN5@ChCreateMe|

; 156  : 	mi->menu = NULL;

	ldr         x8,[sp,#0x18]
	add         x9,x8,#0x58
	mov         x8,#0
	str         x8,[x9]

; 157  : 	list_add(pm->MenuItems, mi);

	ldr         x8,[sp,#0x40]
	add         x8,x8,#0x60
	ldr         x1,[sp,#0x18]
	ldr         x0,[x8]
	bl          list_add

; 158  : 	mi->wid.ChDestroy = ChMenuItemDestroy;

	ldr         x8,[sp,#0x18]
	add         x9,x8,#0x48
	adrp        x8,|?ChMenuItemDestroy@@YAXPEAU_ChWidget_@@PEAU_chwin_@@@Z|
	add         x8,x8,PageOffset(|?ChMenuItemDestroy@@YAXPEAU_ChWidget_@@PEAU_chwin_@@@Z|)
	str         x8,[x9]

; 159  : 	mi->parent = pm;

	ldr         x8,[sp,#0x18]
	add         x9,x8,#0x60
	ldr         x8,[sp,#0x40]
	str         x8,[x9]

; 160  : 	return mi;

	ldr         x0,[sp,#0x18]
	ldp         fp,lr,[sp],#0x60
	ret

	ENDP  ; |ChCreateMenuItem|

; Function compile flags: /Odtp
; File E:\Xeneva Project\Aurora\Libs\Chitralekha\widgets\menu.cpp

	AREA	|.text$mn|, CODE, ARM64

|ChCreatePopupMenu| PROC

; 95   : ChPopupMenu* ChCreatePopupMenu(ChWindow* mainWin,ChPopupMenu* parent) {

|$LN3|
	stp         fp,lr,[sp,#-0x30]!
	mov         fp,sp
	str         x0,[sp,#0x18]
	str         x1,[sp,#0x20]

; 96   : 	ChPopupMenu* pm = (ChPopupMenu*)malloc(sizeof(ChPopupMenu));

	mov         w0,#0x80
	bl          malloc
	str         x0,[sp,#0x10]

; 97   : 	memset(pm, 0, sizeof(ChPopupMenu));

	ldr         x9,[sp,#0x10]
	mov         x8,#0
	stp         x8,x8,[x9]
	stp         x8,x8,[x9,#0x10]
	stp         x8,x8,[x9,#0x20]
	stp         x8,x8,[x9,#0x30]
	stp         x8,x8,[x9,#0x40]
	stp         x8,x8,[x9,#0x50]
	stp         x8,x8,[x9,#0x60]
	stp         x8,x8,[x9,#0x70]

; 98   : 	pm->mainWindow = mainWin;

	ldr         x8,[sp,#0x10]
	add         x9,x8,#0x50
	ldr         x8,[sp,#0x18]
	str         x8,[x9]

; 99   : 	pm->wid.ChMouseEvent = ChPopupMenuMouseEvent;

	ldr         x8,[sp,#0x10]
	add         x9,x8,#0x28
	adrp        x8,|?ChPopupMenuMouseEvent@@YAXPEAU_ChWidget_@@PEAU_chwin_@@HHH@Z|
	add         x8,x8,PageOffset(|?ChPopupMenuMouseEvent@@YAXPEAU_ChWidget_@@PEAU_chwin_@@HHH@Z|)
	str         x8,[x9]

; 100  : 	pm->MenuItems = initialize_list();

	bl          initialize_list
	ldr         x8,[sp,#0x10]
	add         x8,x8,#0x60
	str         x0,[x8]

; 101  : 	pm->wid.ChDestroy = ChPopupMenuDestroy;

	ldr         x8,[sp,#0x10]
	add         x9,x8,#0x48
	adrp        x8,|?ChPopupMenuDestroy@@YAXPEAU_ChWidget_@@PEAU_chwin_@@@Z|
	add         x8,x8,PageOffset(|?ChPopupMenuDestroy@@YAXPEAU_ChWidget_@@PEAU_chwin_@@@Z|)
	str         x8,[x9]

; 102  : 	pm->parent = parent;

	ldr         x8,[sp,#0x10]
	add         x9,x8,#0x78
	ldr         x8,[sp,#0x20]
	str         x8,[x9]

; 103  : 	return pm;

	ldr         x0,[sp,#0x10]
	ldp         fp,lr,[sp],#0x30
	ret

	ENDP  ; |ChCreatePopupMenu|

	END
