; Listing generated by Microsoft (R) Optimizing Compiler Version 19.29.30159.0 

	TTL	E:\Xeneva Project\Aurora\Libs\Chitralekha\ARM64\Debug\menubar.obj
	ARM64

	AREA	|.drectve|, DRECTVE


	AREA	|.rdata|, DATA, READONLY
|$SG5180| DCB	"Destroying menubar ", 0xd, 0xa, 0x0
	%	2
|$SG5207| DCB	"Popup menu availabled ", 0xd, 0xa, 0x0
	%	7
|$SG5222| DCB	"Menubutton destroyed ", 0xd, 0xa, 0x0
	EXPORT	|ChCreateMenubar|
	EXPORT	|ChCreateMenubutton|
	EXPORT	|ChMenubarAddButton|
	EXPORT	|ChMenuButtonAddMenu|
	EXPORT	|?ChMenubarDestroy@@YAXPEAU_ChWidget_@@PEAU_chwin_@@@Z| ; ChMenubarDestroy
	EXPORT	|?ChMenubarMouseEvent@@YAXPEAU_ChWidget_@@PEAU_chwin_@@HHH@Z| ; ChMenubarMouseEvent
	EXPORT	|?ChMenuButtonDestroy@@YAXPEAU_ChWidget_@@PEAU_chwin_@@@Z| ; ChMenuButtonDestroy
	IMPORT	|_KePrint|
	IMPORT	|malloc|
	IMPORT	|free|
	IMPORT	|initialize_list|
	IMPORT	|list_add|
	IMPORT	|list_get_at|
	IMPORT	|list_clear_all|
	IMPORT	|ChWindowUpdate|
	IMPORT	|ChMenuShow|
	IMPORT	|?ChDefaultMenubarPainter@@YAXPEAU_ChWidget_@@PEAU_chwin_@@@Z| ; ChDefaultMenubarPainter
	IMPORT	|memset|

	AREA	|.pdata|, PDATA
|$pdata$ChCreateMenubar| DCD imagerel |$LN3|
	DCD	0x16000f9
	;Flags[SingleProEpi] functionLength[248] RegF[0] RegI[0] H[0] frameChainReturn[Chained] frameSize[32]
|$pdata$ChCreateMenubutton| DCD imagerel |$LN10|
	DCD	0x460021d
	;Flags[SingleProEpi] functionLength[540] RegF[0] RegI[0] H[0] frameChainReturn[Chained] frameSize[128]
|$pdata$ChMenubarAddButton| DCD imagerel |$LN3|
	DCD	0x160002d
	;Flags[SingleProEpi] functionLength[44] RegF[0] RegI[0] H[0] frameChainReturn[Chained] frameSize[32]
|$pdata$ChMenuButtonAddMenu| DCD imagerel |$LN3|
	DCD	0x800025
	;Flags[SingleProEpi] functionLength[36] RegF[0] RegI[0] H[0] frameChainReturn[UnChained] frameSize[16]
|$pdata$?ChMenubarDestroy@@YAXPEAU_ChWidget_@@PEAU_chwin_@@@Z| DCD imagerel |$LN7|
	DCD	0x26000d1
	;Flags[SingleProEpi] functionLength[208] RegF[0] RegI[0] H[0] frameChainReturn[Chained] frameSize[64]
|$pdata$?ChMenubarMouseEvent@@YAXPEAU_ChWidget_@@PEAU_chwin_@@HHH@Z| DCD imagerel |$LN14|
	DCD	0x360033d
	;Flags[SingleProEpi] functionLength[828] RegF[0] RegI[0] H[0] frameChainReturn[Chained] frameSize[96]
|$pdata$?ChMenuButtonDestroy@@YAXPEAU_ChWidget_@@PEAU_chwin_@@@Z| DCD imagerel |$LN3|
	DCD	0x1e00045
	;Flags[SingleProEpi] functionLength[68] RegF[0] RegI[0] H[0] frameChainReturn[Chained] frameSize[48]
; Function compile flags: /Odtp
; File E:\Xeneva Project\Aurora\Libs\Chitralekha\widgets\menubar.cpp

	AREA	|.text$mn|, CODE, ARM64

|?ChMenuButtonDestroy@@YAXPEAU_ChWidget_@@PEAU_chwin_@@@Z| PROC ; ChMenuButtonDestroy

; 131  : void ChMenuButtonDestroy(ChWidget* wid, ChWindow* win) {

|$LN3|
	stp         fp,lr,[sp,#-0x30]!
	mov         fp,sp
	str         x0,[sp,#0x18]
	str         x1,[sp,#0x20]

; 132  : 	ChMenuButton *mbut = (ChMenuButton*)wid;

	ldr         x8,[sp,#0x18]
	str         x8,[sp,#0x10]

; 133  : 	_KePrint("Menubutton destroyed \r\n");

	adrp        x8,|$SG5222|
	add         x0,x8,PageOffset(|$SG5222|)
	bl          _KePrint

; 134  : 	free(mbut->title);

	ldr         x8,[sp,#0x10]
	add         x8,x8,#0x50
	ldr         x0,[x8]
	bl          free

; 135  : 	free(mbut);

	ldr         x0,[sp,#0x10]
	bl          free
	ldp         fp,lr,[sp],#0x30
	ret

	ENDP  ; |?ChMenuButtonDestroy@@YAXPEAU_ChWidget_@@PEAU_chwin_@@@Z|, ChMenuButtonDestroy

; Function compile flags: /Odtp
; File E:\Xeneva Project\Aurora\Libs\Chitralekha\widgets\menubar.cpp

	AREA	|.text$mn|, CODE, ARM64

|?ChMenubarMouseEvent@@YAXPEAU_ChWidget_@@PEAU_chwin_@@HHH@Z| PROC ; ChMenubarMouseEvent

; 64   : void ChMenubarMouseEvent(ChWidget* wid, ChWindow* win, int x, int y, int button) {

|$LN14|
	stp         fp,lr,[sp,#-0x60]!
	mov         fp,sp
	str         x0,[sp,#0x38]
	str         x1,[sp,#0x40]
	str         w2,[sp,#0x24]
	str         w3,[sp,#0x28]
	str         w4,[sp,#0x50]

; 65   : 	bool _need_repaint_ = false;

	mov         w8,#0
	strb        w8,[sp,#0x10]

; 66   : 	ChMenubar* mb = (ChMenubar*)wid;

	ldr         x8,[sp,#0x38]
	str         x8,[sp,#0x30]

; 67   : 	ChMenuButton* clickedButton = NULL;

	mov         x8,#0
	str         x8,[sp,#0x48]

; 68   : 	if (mb->allpainted) {

	ldr         x8,[sp,#0x30]
	add         x8,x8,#0x58
	ldrsb       w8,[x8]
	mov         w8,w8
	cmp         w8,#0
	beq         |$LN5@ChMenubarM|

; 69   : 		for (int i = 0; i < mb->menubuttons->pointer; i++) {

	mov         w8,#0
	str         w8,[sp,#0x20]
	b           |$LN4@ChMenubarM|
|$LN2@ChMenubarM|
	ldr         w8,[sp,#0x20]
	add         w8,w8,#1
	str         w8,[sp,#0x20]
|$LN4@ChMenubarM|
	ldr         x8,[sp,#0x30]
	add         x8,x8,#0x50
	ldr         x8,[x8]
	ldr         w9,[x8]
	ldr         w8,[sp,#0x20]
	cmp         w8,w9
	bhs         |$LN3@ChMenubarM|

; 70   : 			ChMenuButton* mbut = (ChMenuButton*)list_get_at(mb->menubuttons, i);

	ldr         x8,[sp,#0x30]
	add         x8,x8,#0x50
	ldr         w1,[sp,#0x20]
	ldr         x0,[x8]
	bl          list_get_at
	str         x0,[sp,#0x18]

; 71   : 			if (mbut->hover){

	ldr         x8,[sp,#0x18]
	add         x8,x8,#0x58
	ldrsb       w8,[x8]
	mov         w8,w8
	cmp         w8,#0
	beq         |$LN6@ChMenubarM|

; 72   : 				mbut->hover = false;

	ldr         x8,[sp,#0x18]
	add         x9,x8,#0x58
	mov         w8,#0
	strb        w8,[x9]

; 73   : 				_need_repaint_ = 1;

	mov         w8,#1
	strb        w8,[sp,#0x10]
|$LN6@ChMenubarM|

; 74   : 			}
; 75   : 			if (mbut->clicked){

	ldr         x8,[sp,#0x18]
	add         x8,x8,#0x59
	ldrsb       w8,[x8]
	mov         w8,w8
	cmp         w8,#0
	beq         |$LN7@ChMenubarM|

; 76   : 				mbut->clicked = false;

	ldr         x8,[sp,#0x18]
	add         x9,x8,#0x59
	mov         w8,#0
	strb        w8,[x9]

; 77   : 				_need_repaint_ = 1;

	mov         w8,#1
	strb        w8,[sp,#0x10]
|$LN7@ChMenubarM|

; 78   : 			}
; 79   : 			if ((x >(win->info->x + mbut->wid.x) && x < (win->info->x + mbut->wid.x + mbut->wid.w)) &&

	ldr         x8,[sp,#0x40]
	add         x8,x8,#0x28
	ldr         x9,[x8]
	mov         x8,#0x1008
	add         x9,x9,x8
	ldr         x8,[sp,#0x18]
	ldr         w9,[x9]
	ldr         w8,[x8]
	add         w9,w9,w8
	ldr         w8,[sp,#0x24]
	cmp         w8,w9
	ble         |$LN8@ChMenubarM|
	ldr         x8,[sp,#0x40]
	add         x8,x8,#0x28
	ldr         x9,[x8]
	mov         x8,#0x1008
	add         x9,x9,x8
	ldr         x8,[sp,#0x18]
	ldr         w9,[x9]
	ldr         w8,[x8]
	add         w9,w9,w8
	ldr         x8,[sp,#0x18]
	add         x8,x8,#8
	ldr         w8,[x8]
	add         w9,w9,w8
	ldr         w8,[sp,#0x24]
	cmp         w8,w9
	bge         |$LN8@ChMenubarM|
	ldr         x8,[sp,#0x40]
	add         x8,x8,#0x28
	ldr         x9,[x8]
	mov         x8,#0x100C
	add         x9,x9,x8
	ldr         x8,[sp,#0x18]
	add         x8,x8,#4
	ldr         w9,[x9]
	ldr         w8,[x8]
	add         w9,w9,w8
	ldr         w8,[sp,#0x28]
	cmp         w8,w9
	ble         |$LN8@ChMenubarM|
	ldr         x8,[sp,#0x40]
	add         x8,x8,#0x28
	ldr         x9,[x8]
	mov         x8,#0x100C
	add         x9,x9,x8
	ldr         x8,[sp,#0x18]
	add         x8,x8,#4
	ldr         w9,[x9]
	ldr         w8,[x8]
	add         w9,w9,w8
	ldr         x8,[sp,#0x18]
	add         x8,x8,#0xC
	ldr         w8,[x8]
	add         w9,w9,w8
	ldr         w8,[sp,#0x28]
	cmp         w8,w9
	bge         |$LN8@ChMenubarM|

; 80   : 				(y >(win->info->y + mbut->wid.y) && y < (win->info->y + mbut->wid.y + mbut->wid.h))) {
; 81   : 				mbut->hover = true;

	ldr         x8,[sp,#0x18]
	add         x9,x8,#0x58
	mov         w8,#1
	strb        w8,[x9]

; 82   : 				if (button && mb->wid.lastMouseX == x && mb->wid.lastMouseY == y) {

	ldr         w8,[sp,#0x50]
	cmp         w8,#0
	beq         |$LN9@ChMenubarM|
	ldr         x8,[sp,#0x30]
	add         x8,x8,#0x10
	ldr         w9,[sp,#0x24]
	ldr         w8,[x8]
	cmp         w8,w9
	bne         |$LN9@ChMenubarM|
	ldr         x8,[sp,#0x30]
	add         x8,x8,#0x14
	ldr         w9,[sp,#0x28]
	ldr         w8,[x8]
	cmp         w8,w9
	bne         |$LN9@ChMenubarM|

; 83   : 					clickedButton = mbut;

	ldr         x8,[sp,#0x18]
	str         x8,[sp,#0x48]

; 84   : 					mbut->clicked = true;

	ldr         x8,[sp,#0x18]
	add         x9,x8,#0x59
	mov         w8,#1
	strb        w8,[x9]
|$LN9@ChMenubarM|

; 85   : 				}
; 86   : 				_need_repaint_ = 1;

	mov         w8,#1
	strb        w8,[sp,#0x10]
|$LN8@ChMenubarM|

; 87   : 			}
; 88   : 		}

	b           |$LN2@ChMenubarM|
|$LN3@ChMenubarM|
|$LN5@ChMenubarM|

; 89   : 	}
; 90   : 
; 91   : 	if (clickedButton) {

	ldr         x8,[sp,#0x48]
	cmp         x8,#0
	beq         |$LN10@ChMenubarM|

; 92   : 		ChPopupMenu* pm = clickedButton->popupMenu;	

	ldr         x8,[sp,#0x48]
	add         x8,x8,#0x60
	ldr         x8,[x8]
	str         x8,[sp,#0x58]

; 93   : 		if (pm) {

	ldr         x8,[sp,#0x58]
	cmp         x8,#0
	beq         |$LN11@ChMenubarM|

; 94   : 			ChMenuShow(pm,clickedButton->wid.x, clickedButton->wid.y + 26);

	ldr         x8,[sp,#0x48]
	add         x8,x8,#4
	ldr         w8,[x8]
	add         w2,w8,#0x1A
	ldr         x8,[sp,#0x48]
	mov         w2,w2
	ldr         w1,[x8]
	ldr         x0,[sp,#0x58]
	bl          ChMenuShow

; 95   : 			_KePrint("Popup menu availabled \r\n");

	adrp        x8,|$SG5207|
	add         x0,x8,PageOffset(|$SG5207|)
	bl          _KePrint
|$LN11@ChMenubarM|
|$LN10@ChMenubarM|

; 96   : 		}
; 97   : 	}
; 98   : 
; 99   : 	if (_need_repaint_) {

	ldrsb       w8,[sp,#0x10]
	mov         w8,w8
	cmp         w8,#0
	beq         |$LN12@ChMenubarM|

; 100  : 		mb->wid.ChPaintHandler(wid, win);

	ldr         x8,[sp,#0x30]
	add         x8,x8,#0x40
	ldr         x1,[sp,#0x40]
	ldr         x0,[sp,#0x38]
	ldr         x8,[x8]
	blr         x8

; 101  : 		ChWindowUpdate(win, wid->x,

	ldr         x8,[sp,#0x38]
	add         x10,x8,#0xC
	ldr         x8,[sp,#0x38]
	add         x8,x8,#8
	ldr         w8,[x8]
	sub         w3,w8,#1
	ldr         x8,[sp,#0x38]
	add         x9,x8,#4
	ldr         x8,[sp,#0x38]
	mov         w6,#1
	mov         w5,#0
	ldr         w4,[x10]
	mov         w3,w3
	ldr         w2,[x9]
	ldr         w1,[x8]
	ldr         x0,[sp,#0x40]
	bl          ChWindowUpdate
|$LN12@ChMenubarM|

; 102  : 			wid->y, wid->w - 1, wid->h, false, true);
; 103  : 	}
; 104  : 
; 105  : 	mb->wid.lastMouseX = x;

	ldr         x8,[sp,#0x30]
	add         x9,x8,#0x10
	ldr         w8,[sp,#0x24]
	str         w8,[x9]

; 106  : 	mb->wid.lastMouseY = y;

	ldr         x8,[sp,#0x30]
	add         x9,x8,#0x14
	ldr         w8,[sp,#0x28]
	str         w8,[x9]
	ldp         fp,lr,[sp],#0x60
	ret

	ENDP  ; |?ChMenubarMouseEvent@@YAXPEAU_ChWidget_@@PEAU_chwin_@@HHH@Z|, ChMenubarMouseEvent

; Function compile flags: /Odtp
; File E:\Xeneva Project\Aurora\Libs\Chitralekha\widgets\menubar.cpp

	AREA	|.text$mn|, CODE, ARM64

|?ChMenubarDestroy@@YAXPEAU_ChWidget_@@PEAU_chwin_@@@Z| PROC ; ChMenubarDestroy

; 41   : void ChMenubarDestroy(ChWidget* wid, ChWindow* win) {

|$LN7|
	stp         fp,lr,[sp,#-0x40]!
	mov         fp,sp
	str         x0,[sp,#0x28]
	str         x1,[sp,#0x30]

; 42   : 	ChMenubar* mb = (ChMenubar*)wid;

	ldr         x8,[sp,#0x28]
	str         x8,[sp,#0x18]

; 43   : 	_KePrint("Destroying menubar \r\n");

	adrp        x8,|$SG5180|
	add         x0,x8,PageOffset(|$SG5180|)
	bl          _KePrint

; 44   : 	for (int i = 0; i < mb->menubuttons->pointer; i++) {

	mov         w8,#0
	str         w8,[sp,#0x10]
	b           |$LN4@ChMenubarD|
|$LN2@ChMenubarD|
	ldr         w8,[sp,#0x10]
	add         w8,w8,#1
	str         w8,[sp,#0x10]
|$LN4@ChMenubarD|
	ldr         x8,[sp,#0x18]
	add         x8,x8,#0x50
	ldr         x8,[x8]
	ldr         w9,[x8]
	ldr         w8,[sp,#0x10]
	cmp         w8,w9
	bhs         |$LN3@ChMenubarD|

; 45   : 		ChMenuButton *mbut = (ChMenuButton*)list_get_at(mb->menubuttons, i);

	ldr         x8,[sp,#0x18]
	add         x8,x8,#0x50
	ldr         w1,[sp,#0x10]
	ldr         x0,[x8]
	bl          list_get_at
	str         x0,[sp,#0x20]

; 46   : 		if (mbut->wid.ChDestroy)

	ldr         x8,[sp,#0x20]
	add         x8,x8,#0x48
	ldr         x8,[x8]
	cmp         x8,#0
	beq         |$LN5@ChMenubarD|

; 47   : 			mbut->wid.ChDestroy((ChWidget*)mbut, win);

	ldr         x8,[sp,#0x20]
	add         x8,x8,#0x48
	ldr         x1,[sp,#0x30]
	ldr         x0,[sp,#0x20]
	ldr         x8,[x8]
	blr         x8
|$LN5@ChMenubarD|

; 48   : 	}

	b           |$LN2@ChMenubarD|
|$LN3@ChMenubarD|

; 49   : 	list_clear_all(mb->menubuttons);

	ldr         x8,[sp,#0x18]
	add         x8,x8,#0x50
	ldr         x0,[x8]
	bl          list_clear_all

; 50   : 	free(mb->menubuttons);

	ldr         x8,[sp,#0x18]
	add         x8,x8,#0x50
	ldr         x0,[x8]
	bl          free

; 51   : 	free(mb);

	ldr         x0,[sp,#0x18]
	bl          free
	ldp         fp,lr,[sp],#0x40
	ret

	ENDP  ; |?ChMenubarDestroy@@YAXPEAU_ChWidget_@@PEAU_chwin_@@@Z|, ChMenubarDestroy

; Function compile flags: /Odtp
; File E:\Xeneva Project\Aurora\Libs\Chitralekha\widgets\menubar.cpp

	AREA	|.text$mn|, CODE, ARM64

|ChMenuButtonAddMenu| PROC

; 172  : void ChMenuButtonAddMenu(ChMenuButton* mbutton, ChPopupMenu* popup) {

|$LN3|
	sub         sp,sp,#0x10
	str         x0,[sp]
	str         x1,[sp,#8]

; 173  : 	mbutton->popupMenu = popup;

	ldr         x8,[sp]
	add         x9,x8,#0x60
	ldr         x8,[sp,#8]
	str         x8,[x9]
	add         sp,sp,#0x10
	ret

	ENDP  ; |ChMenuButtonAddMenu|

; Function compile flags: /Odtp
; File E:\Xeneva Project\Aurora\Libs\Chitralekha\widgets\menubar.cpp

	AREA	|.text$mn|, CODE, ARM64

|ChMenubarAddButton| PROC

; 163  : void ChMenubarAddButton(ChMenubar* mb, ChMenuButton *mbut) {

|$LN3|
	stp         fp,lr,[sp,#-0x20]!
	mov         fp,sp
	str         x0,[sp,#0x10]
	str         x1,[sp,#0x18]

; 164  : 	list_add(mb->menubuttons, mbut);

	ldr         x8,[sp,#0x10]
	add         x8,x8,#0x50
	ldr         x1,[sp,#0x18]
	ldr         x0,[x8]
	bl          list_add
	ldp         fp,lr,[sp],#0x20
	ret

	ENDP  ; |ChMenubarAddButton|

; Function compile flags: /Odtp
; File E:\Xeneva Project\Aurora\Libs\Chitralekha\widgets\menubar.cpp

	AREA	|.text$mn|, CODE, ARM64

|ChCreateMenubutton| PROC

; 142  : ChMenuButton *ChCreateMenubutton(ChMenubar* mb, char* title) {

|$LN10|
	stp         fp,lr,[sp,#-0x80]!
	mov         fp,sp
	str         x0,[sp,#0x58]
	str         x1,[sp,#0x20]

; 143  : 	int title_len = strlen(title);

	ldr         x8,[sp,#0x20]
	str         x8,[sp,#0x28]
|$LN4@ChCreateMe|
	ldr         x8,[sp,#0x28]
	ldrsb       w8,[x8]
	cmp         w8,#0
	beq         |$LN3@ChCreateMe|
	ldr         x8,[sp,#0x28]
	add         x8,x8,#1
	str         x8,[sp,#0x28]
	b           |$LN4@ChCreateMe|
|$LN3@ChCreateMe|
	ldr         x9,[sp,#0x28]
	ldr         x8,[sp,#0x20]
	sub         x8,x9,x8
	str         x8,[sp,#0x60]
	ldr         x8,[sp,#0x60]
	mov         w8,w8
	str         w8,[sp,#0x48]

; 144  : 	int mbut_w = title_len + 10;

	ldr         w8,[sp,#0x48]
	add         w8,w8,#0xA
	str         w8,[sp,#0x4C]

; 145  : 	ChMenuButton* mbut = (ChMenuButton*)malloc(sizeof(ChMenuButton));

	mov         w0,#0x68
	bl          malloc
	str         x0,[sp,#0x18]

; 146  : 	memset(mbut, 0, sizeof(ChMenuButton));

	ldr         x9,[sp,#0x18]
	mov         x8,#0
	stp         x8,x8,[x9]
	stp         x8,x8,[x9,#0x10]
	stp         x8,x8,[x9,#0x20]
	stp         x8,x8,[x9,#0x30]
	stp         x8,x8,[x9,#0x40]
	stp         x8,x8,[x9,#0x50]
	str         x8,[x9,#0x60]

; 147  : 	mbut->wid.x = 0;

	ldr         x9,[sp,#0x18]
	mov         w8,#0
	str         w8,[x9]

; 148  : 	mbut->wid.y = mb->wid.y;

	ldr         x8,[sp,#0x58]
	add         x10,x8,#4
	ldr         x8,[sp,#0x18]
	add         x9,x8,#4
	ldr         w8,[x10]
	str         w8,[x9]

; 149  : 	mbut->wid.w = mbut_w;

	ldr         x8,[sp,#0x18]
	add         x9,x8,#8
	ldr         w8,[sp,#0x4C]
	str         w8,[x9]

; 150  : 	mbut->wid.h = mb->wid.h;

	ldr         x8,[sp,#0x58]
	add         x10,x8,#0xC
	ldr         x8,[sp,#0x18]
	add         x9,x8,#0xC
	ldr         w8,[x10]
	str         w8,[x9]

; 151  : 	mbut->wid.ChDestroy = ChMenuButtonDestroy;

	ldr         x8,[sp,#0x18]
	add         x9,x8,#0x48
	adrp        x8,|?ChMenuButtonDestroy@@YAXPEAU_ChWidget_@@PEAU_chwin_@@@Z|
	add         x8,x8,PageOffset(|?ChMenuButtonDestroy@@YAXPEAU_ChWidget_@@PEAU_chwin_@@@Z|)
	str         x8,[x9]

; 152  : 	mbut->wid.ChActionHandler = 0;

	ldr         x8,[sp,#0x18]
	add         x9,x8,#0x20
	mov         x8,#0
	str         x8,[x9]

; 153  : 	mbut->title = (char*)malloc(strlen(title));

	ldr         x8,[sp,#0x20]
	str         x8,[sp,#0x30]
|$LN6@ChCreateMe|
	ldr         x8,[sp,#0x30]
	ldrsb       w8,[x8]
	cmp         w8,#0
	beq         |$LN5@ChCreateMe|
	ldr         x8,[sp,#0x30]
	add         x8,x8,#1
	str         x8,[sp,#0x30]
	b           |$LN6@ChCreateMe|
|$LN5@ChCreateMe|
	ldr         x9,[sp,#0x30]
	ldr         x8,[sp,#0x20]
	sub         x8,x9,x8
	str         x8,[sp,#0x68]
	ldr         x8,[sp,#0x68]
	mov         w0,w8
	mov         w0,w0
	bl          malloc
	ldr         x8,[sp,#0x18]
	add         x8,x8,#0x50
	str         x0,[x8]

; 154  : 	mbut->popupMenu = NULL;

	ldr         x8,[sp,#0x18]
	add         x9,x8,#0x60
	mov         x8,#0
	str         x8,[x9]

; 155  : 	memset(mbut->title, 0, strlen(title));

	ldr         x8,[sp,#0x20]
	str         x8,[sp,#0x38]
|$LN8@ChCreateMe|
	ldr         x8,[sp,#0x38]
	ldrsb       w8,[x8]
	cmp         w8,#0
	beq         |$LN7@ChCreateMe|
	ldr         x8,[sp,#0x38]
	add         x8,x8,#1
	str         x8,[sp,#0x38]
	b           |$LN8@ChCreateMe|
|$LN7@ChCreateMe|
	ldr         x9,[sp,#0x38]
	ldr         x8,[sp,#0x20]
	sub         x8,x9,x8
	str         x8,[sp,#0x70]
	ldr         x8,[sp,#0x18]
	add         x8,x8,#0x50
	ldr         x2,[sp,#0x70]
	mov         w1,#0
	ldr         x0,[x8]
	bl          memset

; 156  : 	strcpy(mbut->title, title);

	ldr         x8,[sp,#0x20]
	str         x8,[sp,#0x50]
	ldr         x8,[sp,#0x18]
	add         x8,x8,#0x50
	ldr         x8,[x8]
	str         x8,[sp,#0x40]
	ldr         x8,[sp,#0x40]
	str         x8,[sp,#0x78]
|$LN9@ChCreateMe|
	ldr         x8,[sp,#0x50]
	ldrsb       w8,[x8]
	strb        w8,[sp,#0x10]
	ldr         x9,[sp,#0x40]
	ldrsb       w8,[sp,#0x10]
	strb        w8,[x9]
	ldr         x8,[sp,#0x50]
	add         x8,x8,#1
	str         x8,[sp,#0x50]
	ldr         x8,[sp,#0x40]
	add         x8,x8,#1
	str         x8,[sp,#0x40]
	ldrsb       w8,[sp,#0x10]
	cmp         w8,#0
	bne         |$LN9@ChCreateMe|

; 157  : 	return mbut;

	ldr         x0,[sp,#0x18]
	ldp         fp,lr,[sp],#0x80
	ret

	ENDP  ; |ChCreateMenubutton|

; Function compile flags: /Odtp
; File E:\Xeneva Project\Aurora\Libs\Chitralekha\widgets\menubar.cpp

	AREA	|.text$mn|, CODE, ARM64

|ChCreateMenubar| PROC

; 112  : ChMenubar* ChCreateMenubar(ChWindow* win) {

|$LN3|
	stp         fp,lr,[sp,#-0x20]!
	mov         fp,sp
	str         x0,[sp,#0x18]

; 113  : 	ChMenubar* mb = (ChMenubar*)malloc(sizeof(ChMenubar));

	mov         w0,#0x61
	bl          malloc
	str         x0,[sp,#0x10]

; 114  : 	memset(mb, 0, sizeof(ChMenubar));

	ldr         x9,[sp,#0x10]
	mov         x8,#0
	stp         x8,x8,[x9]
	stp         x8,x8,[x9,#0x10]
	stp         x8,x8,[x9,#0x20]
	stp         x8,x8,[x9,#0x30]
	stp         x8,x8,[x9,#0x40]
	stp         x8,x8,[x9,#0x50]
	strb        w8,[x9,#0x60]

; 115  : 	mb->wid.x = 1;

	ldr         x9,[sp,#0x10]
	mov         w8,#1
	str         w8,[x9]

; 116  : 	mb->wid.y = 26; 

	ldr         x8,[sp,#0x10]
	add         x9,x8,#4
	mov         w8,#0x1A
	str         w8,[x9]

; 117  : 	mb->wid.w = win->info->width - 1;

	ldr         x8,[sp,#0x18]
	add         x8,x8,#0x28
	ldr         x9,[x8]
	mov         x8,#0x1010
	add         x8,x9,x8
	ldr         w8,[x8]
	sub         w9,w8,#1
	ldr         x8,[sp,#0x10]
	add         x8,x8,#8
	str         w9,[x8]

; 118  : 	mb->wid.h = 26;

	ldr         x8,[sp,#0x10]
	add         x9,x8,#0xC
	mov         w8,#0x1A
	str         w8,[x9]

; 119  : 	mb->wid.ChMouseEvent = ChMenubarMouseEvent;

	ldr         x8,[sp,#0x10]
	add         x9,x8,#0x28
	adrp        x8,|?ChMenubarMouseEvent@@YAXPEAU_ChWidget_@@PEAU_chwin_@@HHH@Z|
	add         x8,x8,PageOffset(|?ChMenubarMouseEvent@@YAXPEAU_ChWidget_@@PEAU_chwin_@@HHH@Z|)
	str         x8,[x9]

; 120  : 	mb->wid.ChPaintHandler = ChDefaultMenubarPainter;

	ldr         x8,[sp,#0x10]
	add         x9,x8,#0x40
	adrp        x8,|?ChDefaultMenubarPainter@@YAXPEAU_ChWidget_@@PEAU_chwin_@@@Z|
	add         x8,x8,PageOffset(|?ChDefaultMenubarPainter@@YAXPEAU_ChWidget_@@PEAU_chwin_@@@Z|)
	str         x8,[x9]

; 121  : 	mb->wid.ChDestroy = ChMenubarDestroy;

	ldr         x8,[sp,#0x10]
	add         x9,x8,#0x48
	adrp        x8,|?ChMenubarDestroy@@YAXPEAU_ChWidget_@@PEAU_chwin_@@@Z|
	add         x8,x8,PageOffset(|?ChMenubarDestroy@@YAXPEAU_ChWidget_@@PEAU_chwin_@@@Z|)
	str         x8,[x9]

; 122  : 	mb->menubuttons = initialize_list();

	bl          initialize_list
	ldr         x8,[sp,#0x10]
	add         x8,x8,#0x50
	str         x0,[x8]

; 123  : 	mb->allpainted = false;

	ldr         x8,[sp,#0x10]
	add         x9,x8,#0x58
	mov         w8,#0
	strb        w8,[x9]

; 124  : 	return mb;

	ldr         x0,[sp,#0x10]
	ldp         fp,lr,[sp],#0x20
	ret

	ENDP  ; |ChCreateMenubar|

	END
