; Listing generated by Microsoft (R) Optimizing Compiler Version 19.29.30159.0 

	TTL	E:\Xeneva Project\Aurora\Libs\Chitralekha\ARM64\Debug\msgbox.obj
	ARM64

	AREA	|.drectve|, DRECTVE


	AREA	|.rdata|, DATA, READONLY
|$SG5212| DCB	"Yes", 0x0
|$SG5213| DCB	"No", 0x0
	%	1
|$SG5215| DCB	"Okay", 0x0
	%	3
|$SG5216| DCB	"Cancel", 0x0
	%	1
|$SG5218| DCB	"Close", 0x0
	%	2
|$SG5220| DCB	"Cancel", 0x0
	EXPORT	|ChCreateMessageBox|
	EXPORT	|ChMessageBoxShow|
	EXPORT	|?ChMessageBoxDestroy@@YAXPEAU_ChWidget_@@PEAU_chwin_@@@Z| ; ChMessageBoxDestroy
	EXPORT	|?ChMessageBoxPaint@@YAXPEAU_ChWidget_@@PEAU_chwin_@@@Z| ; ChMessageBoxPaint
	EXPORT	|?ChMessageBoxClose@@YAXPEAU_chwin_@@PEAU_global_ctrl_@@@Z| ; ChMessageBoxClose
	EXPORT	|?ChMessageBoxPrepareButtons@@YAXPEAU_chwin_@@PEAU_msgbox_@@E@Z| ; ChMessageBoxPrepareButtons
	IMPORT	|ChDrawRect|
	IMPORT	|ChDrawRectUnfilled|
	IMPORT	|malloc|
	IMPORT	|free|
	IMPORT	|ChFontSetSize|
	IMPORT	|ChFontDrawText|
	IMPORT	|ChFontGetWidth|
	IMPORT	|ChFontGetHeight|
	IMPORT	|ChitralekhaStartSubApp|
	IMPORT	|list_get_at|
	IMPORT	|ChCreateWindow|
	IMPORT	|ChWindowAddSubWindow|
	IMPORT	|ChWindowPaint|
	IMPORT	|ChWindowAddWidget|
	IMPORT	|ChWindowSetFlags|
	IMPORT	|ChWindowCloseWindow|
	IMPORT	|ChDrawIcon|
	IMPORT	|ChIconGetSystemIcon|
	IMPORT	|_KeProcessSleep|
	IMPORT	|ChCreateButton|
	IMPORT	|memset|

	AREA	|.pdata|, PDATA
|$pdata$ChCreateMessageBox| DCD imagerel |$LN13|
	DCD	0x56003c1
	;Flags[SingleProEpi] functionLength[960] RegF[0] RegI[0] H[0] frameChainReturn[Chained] frameSize[160]
|$pdata$ChMessageBoxShow| DCD imagerel |$LN3|
	DCD	0x1e00061
	;Flags[SingleProEpi] functionLength[96] RegF[0] RegI[0] H[0] frameChainReturn[Chained] frameSize[48]
|$pdata$?ChMessageBoxDestroy@@YAXPEAU_ChWidget_@@PEAU_chwin_@@@Z| DCD imagerel |$LN3|
	DCD	0x1e00039
	;Flags[SingleProEpi] functionLength[56] RegF[0] RegI[0] H[0] frameChainReturn[Chained] frameSize[48]
|$pdata$?ChMessageBoxPaint@@YAXPEAU_ChWidget_@@PEAU_chwin_@@@Z| DCD imagerel |$LN7|
	DCD	0x2600239
	;Flags[SingleProEpi] functionLength[568] RegF[0] RegI[0] H[0] frameChainReturn[Chained] frameSize[64]
|$pdata$?ChMessageBoxClose@@YAXPEAU_chwin_@@PEAU_global_ctrl_@@@Z| DCD imagerel |$LN3|
	DCD	0x1e0004d
	;Flags[SingleProEpi] functionLength[76] RegF[0] RegI[0] H[0] frameChainReturn[Chained] frameSize[48]
|$pdata$?ChMessageBoxPrepareButtons@@YAXPEAU_chwin_@@PEAU_msgbox_@@E@Z| DCD imagerel |$LN15|
	DCD	0x36002f1
	;Flags[SingleProEpi] functionLength[752] RegF[0] RegI[0] H[0] frameChainReturn[Chained] frameSize[96]
; Function compile flags: /Odtp
; File E:\Xeneva Project\Aurora\Libs\Chitralekha\widgets\msgbox.cpp

	AREA	|.text$mn|, CODE, ARM64

|?ChMessageBoxPrepareButtons@@YAXPEAU_chwin_@@PEAU_msgbox_@@E@Z| PROC ; ChMessageBoxPrepareButtons

; 79   : void ChMessageBoxPrepareButtons(ChWindow* win, ChMessageBox *mb,uint8_t buttons) {

|$LN15|
	stp         fp,lr,[sp,#-0x60]!
	mov         fp,sp
	str         x0,[sp,#0x20]
	str         x1,[sp,#0x10]
	uxtb        w8,w2
	strb        w8,[sp,#0x18]

; 80   : 	switch (buttons) {

	ldrb        w8,[sp,#0x18]
	mov         w8,w8
	str         w8,[sp,#0x1C]
	ldr         w8,[sp,#0x1C]
	sub         w8,w8,#1
	str         w8,[sp,#0x1C]
	ldr         w8,[sp,#0x1C]
	cmp         w8,#3
	bhi         |$LN2@ChMessageB|
	ldr         w10,[sp,#0x1C]
	adr         x9,__swt
	ldrsw       x8,[x9,w10 uxtw #2]
	adr         x9,|$LN10@ChMessageB|
	add         x8,x9,x8,lsl #2
	br          x8
|$LN4@ChMessageB|

; 81   : 	case MSGBOX_TYPE_YESNO:{
; 82   : 							   ChButton *yes = ChCreateButton(mb->wid.x + mb->wid.w - 100*2 - 10, mb->wid.y + mb->wid.h - 60,

	ldr         x8,[sp,#0x10]
	add         x9,x8,#4
	ldr         x8,[sp,#0x10]
	add         x8,x8,#0xC
	ldr         w9,[x9]
	ldr         w8,[x8]
	add         w8,w9,w8
	sub         w1,w8,#0x3C
	ldr         x9,[sp,#0x10]
	ldr         x8,[sp,#0x10]
	add         x8,x8,#8
	ldr         w9,[x9]
	ldr         w8,[x8]
	add         w8,w9,w8
	sub         w8,w8,#0xC8
	sub         w0,w8,#0xA
	adrp        x8,|$SG5212|
	add         x4,x8,PageOffset(|$SG5212|)
	mov         w3,#0x1E
	mov         w2,#0x64
	mov         w1,w1
	mov         w0,w0
	bl          ChCreateButton
	str         x0,[sp,#0x28]

; 83   : 								   100, 30, "Yes"); //
; 84   : 							   ChWindowAddWidget(win, (ChWidget*)yes);

	ldr         x1,[sp,#0x28]
	ldr         x0,[sp,#0x20]
	bl          ChWindowAddWidget

; 85   : 							   ChButton* no = ChCreateButton(mb->wid.x + mb->wid.w - 100 - 5, mb->wid.y + mb->wid.h - 60,

	ldr         x8,[sp,#0x10]
	add         x9,x8,#4
	ldr         x8,[sp,#0x10]
	add         x8,x8,#0xC
	ldr         w9,[x9]
	ldr         w8,[x8]
	add         w8,w9,w8
	sub         w1,w8,#0x3C
	ldr         x9,[sp,#0x10]
	ldr         x8,[sp,#0x10]
	add         x8,x8,#8
	ldr         w9,[x9]
	ldr         w8,[x8]
	add         w8,w9,w8
	sub         w8,w8,#0x64
	sub         w0,w8,#5
	adrp        x8,|$SG5213|
	add         x4,x8,PageOffset(|$SG5213|)
	mov         w3,#0x1E
	mov         w2,#0x64
	mov         w1,w1
	mov         w0,w0
	bl          ChCreateButton
	str         x0,[sp,#0x30]

; 86   : 								   100, 30, "No");
; 87   : 							   ChWindowAddWidget(win, (ChWidget*)no);

	ldr         x1,[sp,#0x30]
	ldr         x0,[sp,#0x20]
	bl          ChWindowAddWidget

; 88   : 							   break;

	b           |$LN2@ChMessageB|
|$LN5@ChMessageB|

; 89   : 	}
; 90   : 	case MSGBOX_TYPE_OKCANCEL:{
; 91   : 								  ChButton *Ok = ChCreateButton(mb->wid.x + mb->wid.w - 100 * 2 - 10, mb->wid.y + mb->wid.h - 60,

	ldr         x8,[sp,#0x10]
	add         x9,x8,#4
	ldr         x8,[sp,#0x10]
	add         x8,x8,#0xC
	ldr         w9,[x9]
	ldr         w8,[x8]
	add         w8,w9,w8
	sub         w1,w8,#0x3C
	ldr         x9,[sp,#0x10]
	ldr         x8,[sp,#0x10]
	add         x8,x8,#8
	ldr         w9,[x9]
	ldr         w8,[x8]
	add         w8,w9,w8
	sub         w8,w8,#0xC8
	sub         w0,w8,#0xA
	adrp        x8,|$SG5215|
	add         x4,x8,PageOffset(|$SG5215|)
	mov         w3,#0x1E
	mov         w2,#0x64
	mov         w1,w1
	mov         w0,w0
	bl          ChCreateButton
	str         x0,[sp,#0x38]

; 92   : 									  100, 30, "Okay"); //
; 93   : 								  ChWindowAddWidget(win, (ChWidget*)Ok);

	ldr         x1,[sp,#0x38]
	ldr         x0,[sp,#0x20]
	bl          ChWindowAddWidget

; 94   : 								  ChButton* cancel = ChCreateButton(mb->wid.x + mb->wid.w - 100 - 5, mb->wid.y + mb->wid.h - 60,

	ldr         x8,[sp,#0x10]
	add         x9,x8,#4
	ldr         x8,[sp,#0x10]
	add         x8,x8,#0xC
	ldr         w9,[x9]
	ldr         w8,[x8]
	add         w8,w9,w8
	sub         w1,w8,#0x3C
	ldr         x9,[sp,#0x10]
	ldr         x8,[sp,#0x10]
	add         x8,x8,#8
	ldr         w9,[x9]
	ldr         w8,[x8]
	add         w8,w9,w8
	sub         w8,w8,#0x64
	sub         w0,w8,#5
	adrp        x8,|$SG5216|
	add         x4,x8,PageOffset(|$SG5216|)
	mov         w3,#0x1E
	mov         w2,#0x64
	mov         w1,w1
	mov         w0,w0
	bl          ChCreateButton
	str         x0,[sp,#0x40]

; 95   : 									  100, 30, "Cancel");
; 96   : 								  ChWindowAddWidget(win, (ChWidget*)cancel);

	ldr         x1,[sp,#0x40]
	ldr         x0,[sp,#0x20]
	bl          ChWindowAddWidget

; 97   : 								  break;

	b           |$LN2@ChMessageB|
|$LN6@ChMessageB|

; 98   : 	}
; 99   : 	case MSGBOX_TYPE_ONLYCLOSE: {
; 100  : 									ChButton *Close = ChCreateButton(mb->wid.x + mb->wid.w - 100 - 5, mb->wid.y + mb->wid.h - 60,

	ldr         x8,[sp,#0x10]
	add         x9,x8,#4
	ldr         x8,[sp,#0x10]
	add         x8,x8,#0xC
	ldr         w9,[x9]
	ldr         w8,[x8]
	add         w8,w9,w8
	sub         w1,w8,#0x3C
	ldr         x9,[sp,#0x10]
	ldr         x8,[sp,#0x10]
	add         x8,x8,#8
	ldr         w9,[x9]
	ldr         w8,[x8]
	add         w8,w9,w8
	sub         w8,w8,#0x64
	sub         w0,w8,#5
	adrp        x8,|$SG5218|
	add         x4,x8,PageOffset(|$SG5218|)
	mov         w3,#0x1E
	mov         w2,#0x64
	mov         w1,w1
	mov         w0,w0
	bl          ChCreateButton
	str         x0,[sp,#0x48]

; 101  : 										100, 30, "Close");
; 102  : 									ChWindowAddWidget(win, (ChWidget*)Close);

	ldr         x1,[sp,#0x48]
	ldr         x0,[sp,#0x20]
	bl          ChWindowAddWidget

; 103  : 									break;

	b           |$LN2@ChMessageB|
|$LN7@ChMessageB|
|$LN10@ChMessageB|

; 104  : 	}
; 105  : 	case MSGBOX_TYPE_ONLYCANCEL: {
; 106  : 									 ChButton* cancel = ChCreateButton(mb->wid.x + mb->wid.w - 100 - 5, mb->wid.y + mb->wid.h - 60,

	ldr         x8,[sp,#0x10]
	add         x9,x8,#4
	ldr         x8,[sp,#0x10]
	add         x8,x8,#0xC
	ldr         w9,[x9]
	ldr         w8,[x8]
	add         w8,w9,w8
	sub         w1,w8,#0x3C
	ldr         x9,[sp,#0x10]
	ldr         x8,[sp,#0x10]
	add         x8,x8,#8
	ldr         w9,[x9]
	ldr         w8,[x8]
	add         w8,w9,w8
	sub         w8,w8,#0x64
	sub         w0,w8,#5
	adrp        x8,|$SG5220|
	add         x4,x8,PageOffset(|$SG5220|)
	mov         w3,#0x1E
	mov         w2,#0x64
	mov         w1,w1
	mov         w0,w0
	bl          ChCreateButton
	str         x0,[sp,#0x50]

; 107  : 										 100, 30, "Cancel");
; 108  : 									 ChWindowAddWidget(win, (ChWidget*)cancel);

	ldr         x1,[sp,#0x50]
	ldr         x0,[sp,#0x20]
	bl          ChWindowAddWidget
|$LN2@ChMessageB|
	ldp         fp,lr,[sp],#0x60
	ret
|__swt|
|$LN11@ChMessageB|

; 80   : 	switch (buttons) {

	DCD         0xffffff76
|$LN12@ChMessageB|
	DCD         0xffffffad
|$LN13@ChMessageB|
	DCD         0x0
|$LN14@ChMessageB|
	DCD         0xffffffe4

	ENDP  ; |?ChMessageBoxPrepareButtons@@YAXPEAU_chwin_@@PEAU_msgbox_@@E@Z|, ChMessageBoxPrepareButtons

; Function compile flags: /Odtp
; File E:\Xeneva Project\Aurora\Libs\Chitralekha\widgets\msgbox.cpp

	AREA	|.text$mn|, CODE, ARM64

|?ChMessageBoxClose@@YAXPEAU_chwin_@@PEAU_global_ctrl_@@@Z| PROC ; ChMessageBoxClose

; 66   : void ChMessageBoxClose(ChWindow* win, ChWinGlobalControl *ctl){

|$LN3|
	stp         fp,lr,[sp,#-0x30]!
	mov         fp,sp
	str         x0,[sp,#0x18]
	str         x1,[sp,#0x20]

; 67   : 	uint8_t flags = WINDOW_FLAG_MOVABLE;

	mov         w8,#1
	strb        w8,[sp,#0x10]

; 68   : 	ChWindowSetFlags(win->parent, flags);

	ldrb        w1,[sp,#0x10]
	mov         w1,w1
	ldr         x8,[sp,#0x18]
	add         x8,x8,#0x68
	mov         w1,w1
	ldr         x0,[x8]
	bl          ChWindowSetFlags

; 69   : 	_KeProcessSleep(50);

	mov         x0,#0x32
	bl          _KeProcessSleep

; 70   : 	ChWindowCloseWindow(win);

	ldr         x0,[sp,#0x18]
	bl          ChWindowCloseWindow
	ldp         fp,lr,[sp],#0x30
	ret

	ENDP  ; |?ChMessageBoxClose@@YAXPEAU_chwin_@@PEAU_global_ctrl_@@@Z|, ChMessageBoxClose

; Function compile flags: /Odtp
; File E:\Xeneva Project\Aurora\Libs\Chitralekha\widgets\msgbox.cpp

	AREA	|.text$mn|, CODE, ARM64

|?ChMessageBoxPaint@@YAXPEAU_ChWidget_@@PEAU_chwin_@@@Z| PROC ; ChMessageBoxPaint

; 51   : void ChMessageBoxPaint(ChWidget* wid,ChWindow* win) {

|$LN7|
	stp         fp,lr,[sp,#-0x40]!
	mov         fp,sp
	str         x0,[sp,#0x30]
	str         x1,[sp,#0x20]

; 52   : 	ChMessageBox* mb = (ChMessageBox*)wid;

	ldr         x8,[sp,#0x30]
	str         x8,[sp,#0x18]

; 53   : 	ChDrawRect(win->canv, 0, mb->wid.y, mb->wid.w, mb->wid.h, MESSAGEBOX_BACKGROUND);

	ldr         x8,[sp,#0x18]
	add         x11,x8,#0xC
	ldr         x8,[sp,#0x18]
	add         x10,x8,#8
	ldr         x8,[sp,#0x18]
	add         x9,x8,#4
	ldr         x8,[sp,#0x20]
	add         x8,x8,#0x18
	ldr         w5,|$LN4@ChMessageB|
	ldr         w4,[x11]
	ldr         w3,[x10]
	ldr         w2,[x9]
	mov         w1,#0
	ldr         x0,[x8]
	bl          ChDrawRect

; 54   : 	ChFontSetSize(win->app->baseFont, 13);

	ldr         x8,[sp,#0x20]
	add         x8,x8,#0x30
	ldr         x8,[x8]
	add         x8,x8,#0x30
	mov         w1,#0xD
	ldr         x0,[x8]
	bl          ChFontSetSize

; 55   : 	int msgw = ChFontGetWidth(win->app->baseFont, mb->message);

	ldr         x8,[sp,#0x18]
	add         x9,x8,#0x58
	ldr         x8,[sp,#0x20]
	add         x8,x8,#0x30
	ldr         x8,[x8]
	add         x8,x8,#0x30
	ldr         x1,[x9]
	ldr         x0,[x8]
	bl          ChFontGetWidth
	mov         w8,w0
	str         w8,[sp,#0x10]

; 56   : 	int msgh = ChFontGetHeight(win->app->baseFont, mb->message);

	ldr         x8,[sp,#0x18]
	add         x9,x8,#0x58
	ldr         x8,[sp,#0x20]
	add         x8,x8,#0x30
	ldr         x8,[x8]
	add         x8,x8,#0x30
	ldr         x1,[x9]
	ldr         x0,[x8]
	bl          ChFontGetHeight
	mov         w8,w0
	str         w8,[sp,#0x14]

; 57   : 	ChFontDrawText(win->canv, win->app->baseFont, mb->message, mb->wid.w / 2 - msgw / 2,

	ldr         x8,[sp,#0x18]
	add         x8,x8,#0xC
	ldr         w9,[x8]
	mov         w8,#2
	sdiv        w4,w9,w8
	ldr         x8,[sp,#0x18]
	add         x8,x8,#8
	ldr         w9,[x8]
	mov         w8,#2
	sdiv        w10,w9,w8
	ldr         w9,[sp,#0x10]
	mov         w8,#2
	sdiv        w8,w9,w8
	sub         w3,w10,w8
	ldr         x8,[sp,#0x18]
	add         x10,x8,#0x58
	ldr         x8,[sp,#0x20]
	add         x8,x8,#0x30
	ldr         x8,[x8]
	add         x9,x8,#0x30
	ldr         x8,[sp,#0x20]
	add         x8,x8,#0x18
	mov         w6,#0xFF000000
	mov         w5,#0xC
	mov         w4,w4
	mov         w3,w3
	ldr         x2,[x10]
	ldr         x1,[x9]
	ldr         x0,[x8]
	bl          ChFontDrawText

; 58   : 		mb->wid.h / 2 /*- msgh / 2*/, 12, BLACK);
; 59   : 	ChDrawRect(win->canv, 0,mb->wid.y + mb->wid.h - 60, mb->wid.w, 60,0xFFC0C8CF);

	ldr         x8,[sp,#0x18]
	add         x10,x8,#8
	ldr         x8,[sp,#0x18]
	add         x9,x8,#4
	ldr         x8,[sp,#0x18]
	add         x8,x8,#0xC
	ldr         w9,[x9]
	ldr         w8,[x8]
	add         w8,w9,w8
	sub         w2,w8,#0x3C
	ldr         x8,[sp,#0x20]
	add         x8,x8,#0x18
	ldr         w5,|$LN5@ChMessageB|
	mov         w4,#0x3C
	ldr         w3,[x10]
	mov         w2,w2
	mov         w1,#0
	ldr         x0,[x8]
	bl          ChDrawRect

; 60   : 	ChIcon *icon = ChIconGetSystemIcon(mb->icon);

	ldr         x8,[sp,#0x18]
	add         x8,x8,#0x60
	ldrb        w0,[x8]
	bl          ChIconGetSystemIcon
	str         x0,[sp,#0x28]

; 61   : 	if (icon)

	ldr         x8,[sp,#0x28]
	cmp         x8,#0
	beq         |$LN2@ChMessageB|

; 62   : 		ChDrawIcon(win->canv, icon, 10, ((mb->wid.y + 60)/ 2) - 15);

	ldr         x8,[sp,#0x18]
	add         x8,x8,#4
	ldr         w8,[x8]
	add         w9,w8,#0x3C
	mov         w8,#2
	sdiv        w8,w9,w8
	sub         w3,w8,#0xF
	ldr         x8,[sp,#0x20]
	add         x8,x8,#0x18
	mov         w3,w3
	mov         w2,#0xA
	ldr         x1,[sp,#0x28]
	ldr         x0,[x8]
	bl          ChDrawIcon
|$LN2@ChMessageB|

; 63   : 	ChDrawRectUnfilled(win->canv, 0, mb->wid.y + mb->wid.h - 60, mb->wid.w, 60, 0xFF324352);

	ldr         x8,[sp,#0x18]
	add         x10,x8,#8
	ldr         x8,[sp,#0x18]
	add         x9,x8,#4
	ldr         x8,[sp,#0x18]
	add         x8,x8,#0xC
	ldr         w9,[x9]
	ldr         w8,[x8]
	add         w8,w9,w8
	sub         w2,w8,#0x3C
	ldr         x8,[sp,#0x20]
	add         x8,x8,#0x18
	ldr         w5,|$LN6@ChMessageB|
	mov         w4,#0x3C
	ldr         w3,[x10]
	mov         w2,w2
	mov         w1,#0
	ldr         x0,[x8]
	bl          ChDrawRectUnfilled
	ldp         fp,lr,[sp],#0x40
	ret
|$LN4@ChMessageB|
	DCD         0xffd2d2d2
|$LN5@ChMessageB|
	DCD         0xffc0c8cf
|$LN6@ChMessageB|
	DCD         0xff324352

	ENDP  ; |?ChMessageBoxPaint@@YAXPEAU_ChWidget_@@PEAU_chwin_@@@Z|, ChMessageBoxPaint

; Function compile flags: /Odtp
; File E:\Xeneva Project\Aurora\Libs\Chitralekha\widgets\msgbox.cpp

	AREA	|.text$mn|, CODE, ARM64

|?ChMessageBoxDestroy@@YAXPEAU_ChWidget_@@PEAU_chwin_@@@Z| PROC ; ChMessageBoxDestroy

; 42   : void ChMessageBoxDestroy(ChWidget* wid, ChWindow* win) {

|$LN3|
	stp         fp,lr,[sp,#-0x30]!
	mov         fp,sp
	str         x0,[sp,#0x18]
	str         x1,[sp,#0x20]

; 43   : 	ChMessageBox* mb = (ChMessageBox*)wid;

	ldr         x8,[sp,#0x18]
	str         x8,[sp,#0x10]

; 44   : 	free(mb->message);

	ldr         x8,[sp,#0x10]
	add         x8,x8,#0x58
	ldr         x0,[x8]
	bl          free

; 45   : 	free(mb);

	ldr         x0,[sp,#0x10]
	bl          free
	ldp         fp,lr,[sp],#0x30
	ret

	ENDP  ; |?ChMessageBoxDestroy@@YAXPEAU_ChWidget_@@PEAU_chwin_@@@Z|, ChMessageBoxDestroy

; Function compile flags: /Odtp
; File E:\Xeneva Project\Aurora\Libs\Chitralekha\widgets\msgbox.cpp

	AREA	|.text$mn|, CODE, ARM64

|ChMessageBoxShow| PROC

; 167  : XE_EXTERN XE_EXPORT void ChMessageBoxShow(ChMessageBox* mb) {

|$LN3|
	stp         fp,lr,[sp,#-0x30]!
	mov         fp,sp
	str         x0,[sp,#0x20]

; 168  : 	ChWindow* win = (ChWindow*)mb->backedWindow;

	ldr         x8,[sp,#0x20]
	add         x8,x8,#0x68
	ldr         x8,[x8]
	str         x8,[sp,#0x18]

; 169  : 	ChWindowPaint(win);

	ldr         x0,[sp,#0x18]
	bl          ChWindowPaint

; 170  : 	_KeProcessSleep(20);

	mov         x0,#0x14
	bl          _KeProcessSleep

; 171  : 	uint8_t flags = WINDOW_FLAG_STATIC | WINDOW_FLAG_NON_RESIZABLE | WINDOW_FLAG_BLOCKED;

	mov         w8,#0x4A
	strb        w8,[sp,#0x10]

; 172  : 	ChWindowSetFlags(win->parent, flags);

	ldrb        w1,[sp,#0x10]
	mov         w1,w1
	ldr         x8,[sp,#0x18]
	add         x8,x8,#0x68
	mov         w1,w1
	ldr         x0,[x8]
	bl          ChWindowSetFlags

; 173  : 	_KeProcessSleep(60);

	mov         x0,#0x3C
	bl          _KeProcessSleep
	ldp         fp,lr,[sp],#0x30
	ret

	ENDP  ; |ChMessageBoxShow|

; Function compile flags: /Odtp
; File E:\Xeneva Project\Aurora\Libs\Chitralekha\widgets\msgbox.cpp

	AREA	|.text$mn|, CODE, ARM64

|ChCreateMessageBox| PROC

; 123  : XE_EXTERN XE_EXPORT ChMessageBox* ChCreateMessageBox(ChWindow* mainWin,char* title, char* msg, uint8_t buttons, uint8_t icon) {

|$LN13|
	stp         fp,lr,[sp,#-0xA0]!
	mov         fp,sp
	str         x0,[sp,#0x30]
	str         x1,[sp,#0x80]
	str         x2,[sp,#0x38]
	uxtb        w8,w3
	strb        w8,[sp,#0x11]
	uxtb        w8,w4
	strb        w8,[sp,#0x20]

; 124  : 	ChMessageBox* mb = (ChMessageBox*)malloc(sizeof(ChMessageBox));

	mov         w0,#0x70
	bl          malloc
	str         x0,[sp,#0x18]

; 125  : 	memset(mb, 0, sizeof(ChMessageBox));

	ldr         x9,[sp,#0x18]
	mov         x8,#0
	stp         x8,x8,[x9]
	stp         x8,x8,[x9,#0x10]
	stp         x8,x8,[x9,#0x20]
	stp         x8,x8,[x9,#0x30]
	stp         x8,x8,[x9,#0x40]
	stp         x8,x8,[x9,#0x50]
	stp         x8,x8,[x9,#0x60]

; 126  : 	mb->message = (char*)malloc(strlen(msg) - 1);

	ldr         x8,[sp,#0x38]
	str         x8,[sp,#0x48]
|$LN9@ChCreateMe|
	ldr         x8,[sp,#0x48]
	ldrsb       w8,[x8]
	cmp         w8,#0
	beq         |$LN8@ChCreateMe|
	ldr         x8,[sp,#0x48]
	add         x8,x8,#1
	str         x8,[sp,#0x48]
	b           |$LN9@ChCreateMe|
|$LN8@ChCreateMe|
	ldr         x9,[sp,#0x48]
	ldr         x8,[sp,#0x38]
	sub         x8,x9,x8
	str         x8,[sp,#0x70]
	ldr         x8,[sp,#0x70]
	sub         x8,x8,#1
	mov         w0,w8
	mov         w0,w0
	bl          malloc
	ldr         x8,[sp,#0x18]
	add         x8,x8,#0x58
	str         x0,[x8]

; 127  : 	memset(mb->message, 0, (strlen(msg) - 1));

	ldr         x8,[sp,#0x38]
	str         x8,[sp,#0x50]
|$LN11@ChCreateMe|
	ldr         x8,[sp,#0x50]
	ldrsb       w8,[x8]
	cmp         w8,#0
	beq         |$LN10@ChCreateMe|
	ldr         x8,[sp,#0x50]
	add         x8,x8,#1
	str         x8,[sp,#0x50]
	b           |$LN11@ChCreateMe|
|$LN10@ChCreateMe|
	ldr         x9,[sp,#0x50]
	ldr         x8,[sp,#0x38]
	sub         x8,x9,x8
	str         x8,[sp,#0x78]
	ldr         x8,[sp,#0x78]
	sub         x2,x8,#1
	ldr         x8,[sp,#0x18]
	add         x8,x8,#0x58
	mov         w1,#0
	ldr         x0,[x8]
	bl          memset

; 128  : 	strcpy(mb->message, msg);

	ldr         x8,[sp,#0x38]
	str         x8,[sp,#0x60]
	ldr         x8,[sp,#0x18]
	add         x8,x8,#0x58
	ldr         x8,[x8]
	str         x8,[sp,#0x58]
	ldr         x8,[sp,#0x58]
	str         x8,[sp,#0x90]
|$LN12@ChCreateMe|
	ldr         x8,[sp,#0x60]
	ldrsb       w8,[x8]
	strb        w8,[sp,#0x10]
	ldr         x9,[sp,#0x58]
	ldrsb       w8,[sp,#0x10]
	strb        w8,[x9]
	ldr         x8,[sp,#0x60]
	add         x8,x8,#1
	str         x8,[sp,#0x60]
	ldr         x8,[sp,#0x58]
	add         x8,x8,#1
	str         x8,[sp,#0x58]
	ldrsb       w8,[sp,#0x10]
	cmp         w8,#0
	bne         |$LN12@ChCreateMe|

; 129  : 	mb->icon = icon;

	ldr         x8,[sp,#0x18]
	add         x9,x8,#0x60
	ldrb        w8,[sp,#0x20]
	strb        w8,[x9]

; 130  : 	mb->type = buttons;

	ldr         x8,[sp,#0x18]
	add         x9,x8,#0x50
	ldrb        w8,[sp,#0x11]
	strb        w8,[x9]

; 131  : 	mb->wid.ChDestroy = ChMessageBoxDestroy;

	ldr         x8,[sp,#0x18]
	add         x9,x8,#0x48
	adrp        x8,|?ChMessageBoxDestroy@@YAXPEAU_ChWidget_@@PEAU_chwin_@@@Z|
	add         x8,x8,PageOffset(|?ChMessageBoxDestroy@@YAXPEAU_ChWidget_@@PEAU_chwin_@@@Z|)
	str         x8,[x9]

; 132  : 	mb->wid.x = 0;

	ldr         x9,[sp,#0x18]
	mov         w8,#0
	str         w8,[x9]

; 133  : 	mb->wid.y = 26;

	ldr         x8,[sp,#0x18]
	add         x9,x8,#4
	mov         w8,#0x1A
	str         w8,[x9]

; 134  : 	mb->wid.ChPaintHandler = ChMessageBoxPaint;

	ldr         x8,[sp,#0x18]
	add         x9,x8,#0x40
	adrp        x8,|?ChMessageBoxPaint@@YAXPEAU_ChWidget_@@PEAU_chwin_@@@Z|
	add         x8,x8,PageOffset(|?ChMessageBoxPaint@@YAXPEAU_ChWidget_@@PEAU_chwin_@@@Z|)
	str         x8,[x9]

; 135  : 	ChitralekhaApp* app = ChitralekhaStartSubApp(mainWin->app);

	ldr         x8,[sp,#0x30]
	add         x8,x8,#0x30
	ldr         x0,[x8]
	bl          ChitralekhaStartSubApp
	str         x0,[sp,#0x88]

; 136  : 	ChFontSetSize(mainWin->app->baseFont, 13);

	ldr         x8,[sp,#0x30]
	add         x8,x8,#0x30
	ldr         x8,[x8]
	add         x8,x8,#0x30
	mov         w1,#0xD
	ldr         x0,[x8]
	bl          ChFontSetSize

; 137  : 
; 138  : 	/* calculate message box width */
; 139  : 	int msgboxWidth = ChFontGetWidth(mainWin->app->baseFont, msg) + 65*2;

	ldr         x8,[sp,#0x30]
	add         x8,x8,#0x30
	ldr         x8,[x8]
	add         x8,x8,#0x30
	ldr         x1,[sp,#0x38]
	ldr         x0,[x8]
	bl          ChFontGetWidth
	add         x8,x0,#0x82
	mov         w8,w8
	str         w8,[sp,#0x24]

; 140  : 	if (msgboxWidth <= 100)

	ldr         w8,[sp,#0x24]
	cmp         w8,#0x64
	bgt         |$LN5@ChCreateMe|

; 141  : 		msgboxWidth = MESSAGEBOX_WIDTH;

	mov         w8,#0x190
	str         w8,[sp,#0x24]
|$LN5@ChCreateMe|

; 142  : 
; 143  : 	ChWindow *msgwin = ChCreateWindow(app, WINDOW_FLAG_MOVABLE | WINDOW_FLAG_MESSAGEBOX, title, mainWin->info->x + mainWin->info->width / 2 - msgboxWidth / 2,

	ldr         x8,[sp,#0x30]
	add         x8,x8,#0x28
	ldr         x9,[x8]
	mov         x8,#0x100C
	add         x10,x9,x8
	ldr         x8,[sp,#0x30]
	add         x8,x8,#0x28
	ldr         x9,[x8]
	mov         x8,#0x1014
	add         x8,x9,x8
	ldr         w9,[x8]
	mov         w8,#2
	sdiv        w9,w9,w8
	ldr         w8,[x10]
	add         w8,w8,w9
	sub         w4,w8,#0x4B
	ldr         x8,[sp,#0x30]
	add         x8,x8,#0x28
	ldr         x9,[x8]
	mov         x8,#0x1008
	add         x10,x9,x8
	ldr         x8,[sp,#0x30]
	add         x8,x8,#0x28
	ldr         x9,[x8]
	mov         x8,#0x1010
	add         x8,x9,x8
	ldr         w9,[x8]
	mov         w8,#2
	sdiv        w9,w9,w8
	ldr         w8,[x10]
	add         w10,w8,w9
	ldr         w9,[sp,#0x24]
	mov         w8,#2
	sdiv        w8,w9,w8
	sub         w3,w10,w8
	mov         w6,#0x96
	ldr         w5,[sp,#0x24]
	mov         w4,w4
	mov         w3,w3
	ldr         x2,[sp,#0x80]
	mov         w1,#0x81
	ldr         x0,[sp,#0x88]
	bl          ChCreateWindow
	str         x0,[sp,#0x40]

; 144  : 		mainWin->info->y + mainWin->info->height / 2 - MESSAGEBOX_HEIGHT / 2, msgboxWidth, MESSAGEBOX_HEIGHT);
; 145  : 	mb->wid.w = msgboxWidth;

	ldr         x8,[sp,#0x18]
	add         x9,x8,#8
	ldr         w8,[sp,#0x24]
	str         w8,[x9]

; 146  : 	mb->wid.h = MESSAGEBOX_HEIGHT - 26;

	ldr         x8,[sp,#0x18]
	add         x9,x8,#0xC
	mov         w8,#0x7C
	str         w8,[x9]

; 147  : 	ChWindowAddSubWindow(mainWin, msgwin);

	ldr         x1,[sp,#0x40]
	ldr         x0,[sp,#0x30]
	bl          ChWindowAddSubWindow

; 148  : 	ChWindowAddWidget(msgwin, (ChWidget*)mb);

	ldr         x1,[sp,#0x18]
	ldr         x0,[sp,#0x40]
	bl          ChWindowAddWidget

; 149  : 
; 150  : 
; 151  : 	for (int i = 0; i < msgwin->GlobalControls->pointer; i++) {

	mov         w8,#0
	str         w8,[sp,#0x28]
	b           |$LN4@ChCreateMe|
|$LN2@ChCreateMe|
	ldr         w8,[sp,#0x28]
	add         w8,w8,#1
	str         w8,[sp,#0x28]
|$LN4@ChCreateMe|
	ldr         x8,[sp,#0x40]
	add         x8,x8,#0x48
	ldr         x8,[x8]
	ldr         w9,[x8]
	ldr         w8,[sp,#0x28]
	cmp         w8,w9
	bhs         |$LN3@ChCreateMe|

; 152  : 		ChWinGlobalControl* glbl = (ChWinGlobalControl*)list_get_at(msgwin->GlobalControls, i);

	ldr         x8,[sp,#0x40]
	add         x8,x8,#0x48
	ldr         w1,[sp,#0x28]
	ldr         x0,[x8]
	bl          list_get_at
	str         x0,[sp,#0x68]

; 153  : 		if (glbl->type == WINDOW_GLOBAL_CONTROL_CLOSE) {

	ldr         x8,[sp,#0x68]
	add         x8,x8,#0x10
	ldrb        w8,[x8]
	mov         w8,w8
	cmp         w8,#1
	bne         |$LN6@ChCreateMe|

; 154  : 			glbl->ChGlobalActionEvent = ChMessageBoxClose;

	ldr         x8,[sp,#0x68]
	add         x9,x8,#0x40
	adrp        x8,|?ChMessageBoxClose@@YAXPEAU_chwin_@@PEAU_global_ctrl_@@@Z|
	add         x8,x8,PageOffset(|?ChMessageBoxClose@@YAXPEAU_chwin_@@PEAU_global_ctrl_@@@Z|)
	str         x8,[x9]

; 155  : 			break;

	b           |$LN3@ChCreateMe|
|$LN6@ChCreateMe|

; 156  : 		}
; 157  : 	}

	b           |$LN2@ChCreateMe|
|$LN3@ChCreateMe|

; 158  : 	mb->backedWindow = msgwin;

	ldr         x8,[sp,#0x18]
	add         x9,x8,#0x68
	ldr         x8,[sp,#0x40]
	str         x8,[x9]

; 159  : 	ChMessageBoxPrepareButtons(msgwin, mb, buttons);

	ldrb        w2,[sp,#0x11]
	ldr         x1,[sp,#0x18]
	ldr         x0,[sp,#0x40]
	bl          |?ChMessageBoxPrepareButtons@@YAXPEAU_chwin_@@PEAU_msgbox_@@E@Z|

; 160  : 	return mb;

	ldr         x0,[sp,#0x18]
	ldp         fp,lr,[sp],#0xA0
	ret

	ENDP  ; |ChCreateMessageBox|

	END
