; Listing generated by Microsoft (R) Optimizing Compiler Version 19.29.30159.0 

	TTL	E:\Xeneva Project\Aurora\Libs\Chitralekha\ARM64\Debug\onoff.obj
	ARM64

	AREA	|.drectve|, DRECTVE

	EXPORT	|ChCreateOnOffButton|
	EXPORT	|ChOnOffGetValue|
	EXPORT	|?ChOnOffMouseEvent@@YAXPEAU_ChWidget_@@PEAU_chwin_@@HHH@Z| ; ChOnOffMouseEvent
	EXPORT	|?ChOnOffScrollEvent@@YAXPEAU_ChWidget_@@PEAU_chwin_@@HE@Z| ; ChOnOffScrollEvent
	EXPORT	|?ChOnOffDestroy@@YAXPEAU_ChWidget_@@PEAU_chwin_@@@Z| ; ChOnOffDestroy
	IMPORT	|malloc|
	IMPORT	|free|
	IMPORT	|ChWindowUpdate|
	IMPORT	|?ChDefaultOnOffPainter@@YAXPEAU_ChWidget_@@PEAU_chwin_@@@Z| ; ChDefaultOnOffPainter

	AREA	|.pdata|, PDATA
|$pdata$ChCreateOnOffButton| DCD imagerel |$LN4|
	DCD	0x1e00105
	;Flags[SingleProEpi] functionLength[260] RegF[0] RegI[0] H[0] frameChainReturn[Chained] frameSize[48]
|$pdata$ChOnOffGetValue| DCD imagerel |$LN3|
	DCD	0x80001d
	;Flags[SingleProEpi] functionLength[28] RegF[0] RegI[0] H[0] frameChainReturn[UnChained] frameSize[16]
|$pdata$?ChOnOffMouseEvent@@YAXPEAU_ChWidget_@@PEAU_chwin_@@HHH@Z| DCD imagerel |$LN9|
	DCD	0x2600189
	;Flags[SingleProEpi] functionLength[392] RegF[0] RegI[0] H[0] frameChainReturn[Chained] frameSize[64]
|$pdata$?ChOnOffScrollEvent@@YAXPEAU_ChWidget_@@PEAU_chwin_@@HE@Z| DCD imagerel |$LN3|
	DCD	0x1000021
	;Flags[SingleProEpi] functionLength[32] RegF[0] RegI[0] H[0] frameChainReturn[UnChained] frameSize[32]
|$pdata$?ChOnOffDestroy@@YAXPEAU_ChWidget_@@PEAU_chwin_@@@Z| DCD imagerel |$LN3|
	DCD	0x1e00029
	;Flags[SingleProEpi] functionLength[40] RegF[0] RegI[0] H[0] frameChainReturn[Chained] frameSize[48]
; Function compile flags: /Odtp
; File E:\Xeneva Project\Aurora\Libs\Chitralekha\widgets\onoff.cpp

	AREA	|.text$mn|, CODE, ARM64

|?ChOnOffDestroy@@YAXPEAU_ChWidget_@@PEAU_chwin_@@@Z| PROC ; ChOnOffDestroy

; 86   : void ChOnOffDestroy(ChWidget* wid, ChWindow* win) {

|$LN3|
	stp         fp,lr,[sp,#-0x30]!
	mov         fp,sp
	str         x0,[sp,#0x10]
	str         x1,[sp,#0x20]

; 87   : 	ChOnOffButton* onoff = (ChOnOffButton*)wid;

	ldr         x8,[sp,#0x10]
	str         x8,[sp,#0x18]

; 88   : 	free(onoff);

	ldr         x0,[sp,#0x18]
	bl          free
	ldp         fp,lr,[sp],#0x30
	ret

	ENDP  ; |?ChOnOffDestroy@@YAXPEAU_ChWidget_@@PEAU_chwin_@@@Z|, ChOnOffDestroy

; Function compile flags: /Odtp
; File E:\Xeneva Project\Aurora\Libs\Chitralekha\widgets\onoff.cpp

	AREA	|.text$mn|, CODE, ARM64

|?ChOnOffScrollEvent@@YAXPEAU_ChWidget_@@PEAU_chwin_@@HE@Z| PROC ; ChOnOffScrollEvent

; 77   : void ChOnOffScrollEvent(ChWidget* wid, ChWindow* win, int scrollval, uint8_t scrollType) {

|$LN3|
	sub         sp,sp,#0x20
	str         x0,[sp,#8]
	str         x1,[sp,#0x10]
	str         w2,[sp,#4]
	uxtb        w8,w3
	strb        w8,[sp]
	add         sp,sp,#0x20
	ret

	ENDP  ; |?ChOnOffScrollEvent@@YAXPEAU_ChWidget_@@PEAU_chwin_@@HE@Z|, ChOnOffScrollEvent

; Function compile flags: /Odtp
; File E:\Xeneva Project\Aurora\Libs\Chitralekha\widgets\onoff.cpp

	AREA	|.text$mn|, CODE, ARM64

|?ChOnOffMouseEvent@@YAXPEAU_ChWidget_@@PEAU_chwin_@@HHH@Z| PROC ; ChOnOffMouseEvent

; 44   : void ChOnOffMouseEvent(ChWidget* wid, ChWindow* win, int x, int y, int button) {

|$LN9|
	stp         fp,lr,[sp,#-0x40]!
	mov         fp,sp
	str         x0,[sp,#0x28]
	str         x1,[sp,#0x30]
	str         w2,[sp,#0x14]
	str         w3,[sp,#0x18]
	str         w4,[sp,#0x1C]

; 45   : 	ChOnOffButton* onoff = (ChOnOffButton*)wid;

	ldr         x8,[sp,#0x28]
	str         x8,[sp,#0x20]

; 46   : 	bool actionRequired = false;

	mov         w8,#0
	strb        w8,[sp,#0x10]

; 47   : 	if (button && onoff->wid.lastMouseX == x && onoff->wid.lastMouseY == y) {

	ldr         w8,[sp,#0x1C]
	cmp         w8,#0
	beq         |$LN2@ChOnOffMou|
	ldr         x8,[sp,#0x20]
	add         x8,x8,#0x10
	ldr         w9,[sp,#0x14]
	ldr         w8,[x8]
	cmp         w8,w9
	bne         |$LN2@ChOnOffMou|
	ldr         x8,[sp,#0x20]
	add         x8,x8,#0x14
	ldr         w9,[sp,#0x18]
	ldr         w8,[x8]
	cmp         w8,w9
	bne         |$LN2@ChOnOffMou|

; 48   : 		if (onoff->value)

	ldr         x8,[sp,#0x20]
	add         x8,x8,#0x50
	ldrb        w8,[x8]
	mov         w8,w8
	cmp         w8,#0
	beq         |$LN3@ChOnOffMou|

; 49   : 			onoff->value = 0;

	ldr         x8,[sp,#0x20]
	add         x9,x8,#0x50
	mov         w8,#0
	strb        w8,[x9]
	b           |$LN4@ChOnOffMou|
|$LN3@ChOnOffMou|

; 50   : 		else
; 51   : 			onoff->value = CH_ONOFF_VALUE_ON;

	ldr         x8,[sp,#0x20]
	add         x9,x8,#0x50
	mov         w8,#1
	strb        w8,[x9]
|$LN4@ChOnOffMou|

; 52   : 
; 53   : 		if (onoff->wid.ChPaintHandler)

	ldr         x8,[sp,#0x20]
	add         x8,x8,#0x40
	ldr         x8,[x8]
	cmp         x8,#0
	beq         |$LN5@ChOnOffMou|

; 54   : 			onoff->wid.ChPaintHandler(wid, win);

	ldr         x8,[sp,#0x20]
	add         x8,x8,#0x40
	ldr         x1,[sp,#0x30]
	ldr         x0,[sp,#0x28]
	ldr         x8,[x8]
	blr         x8
|$LN5@ChOnOffMou|

; 55   : 
; 56   : 		ChWindowUpdate(win, onoff->wid.x, onoff->wid.y, onoff->wid.w, onoff->wid.h, 0, 1);

	ldr         x8,[sp,#0x20]
	add         x11,x8,#0xC
	ldr         x8,[sp,#0x20]
	add         x10,x8,#8
	ldr         x8,[sp,#0x20]
	add         x9,x8,#4
	ldr         x8,[sp,#0x20]
	mov         w6,#1
	mov         w5,#0
	ldr         w4,[x11]
	ldr         w3,[x10]
	ldr         w2,[x9]
	ldr         w1,[x8]
	ldr         x0,[sp,#0x30]
	bl          ChWindowUpdate

; 57   : 		wid->hoverPainted = false;

	ldr         x8,[sp,#0x28]
	add         x9,x8,#0x1A
	mov         w8,#0
	strb        w8,[x9]

; 58   : 		actionRequired = true;

	mov         w8,#1
	strb        w8,[sp,#0x10]
|$LN2@ChOnOffMou|

; 59   : 	}
; 60   : 
; 61   : 	/* call appropriate action handler */
; 62   : 	if (actionRequired)

	ldrsb       w8,[sp,#0x10]
	mov         w8,w8
	cmp         w8,#0
	beq         |$LN6@ChOnOffMou|

; 63   : 		if (wid->ChActionHandler)

	ldr         x8,[sp,#0x28]
	add         x8,x8,#0x20
	ldr         x8,[x8]
	cmp         x8,#0
	beq         |$LN7@ChOnOffMou|

; 64   : 			wid->ChActionHandler(wid, win);

	ldr         x8,[sp,#0x28]
	add         x8,x8,#0x20
	ldr         x1,[sp,#0x30]
	ldr         x0,[sp,#0x28]
	ldr         x8,[x8]
	blr         x8
|$LN7@ChOnOffMou|
|$LN6@ChOnOffMou|

; 65   : 
; 66   : 	onoff->wid.lastMouseX = x;

	ldr         x8,[sp,#0x20]
	add         x9,x8,#0x10
	ldr         w8,[sp,#0x14]
	str         w8,[x9]

; 67   : 	onoff->wid.lastMouseY = y;

	ldr         x8,[sp,#0x20]
	add         x9,x8,#0x14
	ldr         w8,[sp,#0x18]
	str         w8,[x9]
	ldp         fp,lr,[sp],#0x40
	ret

	ENDP  ; |?ChOnOffMouseEvent@@YAXPEAU_ChWidget_@@PEAU_chwin_@@HHH@Z|, ChOnOffMouseEvent

; Function compile flags: /Odtp
; File E:\Xeneva Project\Aurora\Libs\Chitralekha\widgets\onoff.cpp

	AREA	|.text$mn|, CODE, ARM64

|ChOnOffGetValue| PROC

; 118  : uint8_t ChOnOffGetValue(ChOnOffButton* onoff) {

|$LN3|
	sub         sp,sp,#0x10
	str         x0,[sp]

; 119  : 	return onoff->value;

	ldr         x8,[sp]
	add         x8,x8,#0x50
	ldrb        w0,[x8]
	add         sp,sp,#0x10
	ret

	ENDP  ; |ChOnOffGetValue|

; Function compile flags: /Odtp
; File E:\Xeneva Project\Aurora\Libs\Chitralekha\widgets\onoff.cpp

	AREA	|.text$mn|, CODE, ARM64

|ChCreateOnOffButton| PROC

; 96   : ChOnOffButton* ChCreateOnOffButton(int x, int y, uint8_t defaultState) {

|$LN4|
	stp         fp,lr,[sp,#-0x30]!
	mov         fp,sp
	str         w0,[sp,#0x14]
	str         w1,[sp,#0x18]
	uxtb        w8,w2
	strb        w8,[sp,#0x10]

; 97   : 	ChOnOffButton* onoff = (ChOnOffButton*)malloc(sizeof(ChOnOffButton));

	mov         w0,#0x58
	bl          malloc
	str         x0,[sp,#0x20]

; 98   : 	memset(onoff, 0, sizeof(ChOnOffButton));

	ldr         x9,[sp,#0x20]
	mov         x8,#0
	stp         x8,x8,[x9]
	stp         x8,x8,[x9,#0x10]
	stp         x8,x8,[x9,#0x20]
	stp         x8,x8,[x9,#0x30]
	stp         x8,x8,[x9,#0x40]
	str         x8,[x9,#0x50]

; 99   : 	onoff->wid.x = x;

	ldr         x9,[sp,#0x20]
	ldr         w8,[sp,#0x14]
	str         w8,[x9]

; 100  : 	onoff->wid.y = y;

	ldr         x8,[sp,#0x20]
	add         x9,x8,#4
	ldr         w8,[sp,#0x18]
	str         w8,[x9]

; 101  : 	onoff->wid.w = 50;

	ldr         x8,[sp,#0x20]
	add         x9,x8,#8
	mov         w8,#0x32
	str         w8,[x9]

; 102  : 	onoff->wid.h = 25;

	ldr         x8,[sp,#0x20]
	add         x9,x8,#0xC
	mov         w8,#0x19
	str         w8,[x9]

; 103  : 	onoff->wid.ChPaintHandler = ChDefaultOnOffPainter;

	ldr         x8,[sp,#0x20]
	add         x9,x8,#0x40
	adrp        x8,|?ChDefaultOnOffPainter@@YAXPEAU_ChWidget_@@PEAU_chwin_@@@Z|
	add         x8,x8,PageOffset(|?ChDefaultOnOffPainter@@YAXPEAU_ChWidget_@@PEAU_chwin_@@@Z|)
	str         x8,[x9]

; 104  : 	onoff->wid.ChMouseEvent = ChOnOffMouseEvent;

	ldr         x8,[sp,#0x20]
	add         x9,x8,#0x28
	adrp        x8,|?ChOnOffMouseEvent@@YAXPEAU_ChWidget_@@PEAU_chwin_@@HHH@Z|
	add         x8,x8,PageOffset(|?ChOnOffMouseEvent@@YAXPEAU_ChWidget_@@PEAU_chwin_@@HHH@Z|)
	str         x8,[x9]

; 105  : 	onoff->wid.ChScrollEvent = ChOnOffScrollEvent;

	ldr         x8,[sp,#0x20]
	add         x9,x8,#0x38
	adrp        x8,|?ChOnOffScrollEvent@@YAXPEAU_ChWidget_@@PEAU_chwin_@@HE@Z|
	add         x8,x8,PageOffset(|?ChOnOffScrollEvent@@YAXPEAU_ChWidget_@@PEAU_chwin_@@HE@Z|)
	str         x8,[x9]

; 106  : 	onoff->wid.ChDestroy = ChOnOffDestroy;

	ldr         x8,[sp,#0x20]
	add         x9,x8,#0x48
	adrp        x8,|?ChOnOffDestroy@@YAXPEAU_ChWidget_@@PEAU_chwin_@@@Z|
	add         x8,x8,PageOffset(|?ChOnOffDestroy@@YAXPEAU_ChWidget_@@PEAU_chwin_@@@Z|)
	str         x8,[x9]

; 107  : 	if (defaultState > 1)

	ldrb        w8,[sp,#0x10]
	mov         w8,w8
	cmp         w8,#1
	ble         |$LN2@ChCreateOn|

; 108  : 		defaultState = 0;

	mov         w8,#0
	strb        w8,[sp,#0x10]
|$LN2@ChCreateOn|

; 109  : 
; 110  : 	onoff->value = defaultState;

	ldr         x8,[sp,#0x20]
	add         x9,x8,#0x50
	ldrb        w8,[sp,#0x10]
	strb        w8,[x9]

; 111  : 	return onoff;

	ldr         x0,[sp,#0x20]
	ldp         fp,lr,[sp],#0x30
	ret

	ENDP  ; |ChCreateOnOffButton|

	END
