; Listing generated by Microsoft (R) Optimizing Compiler Version 19.29.30159.0 

	TTL	E:\Xeneva Project\Aurora\Libs\Chitralekha\ARM64\Debug\progress.obj
	ARM64

	AREA	|.drectve|, DRECTVE


	AREA	|.rdata|, DATA, READONLY
|$SG5078| DCB	"ChProgressBar destroy ", 0xd, 0xa, 0x0
	EXPORT	|ChCreateProgressBar|
	EXPORT	|ChProgressBarSetMax|
	EXPORT	|ChProgressBarSetMin|
	EXPORT	|ChProgressBarGetMax|
	EXPORT	|ChProgressBarGetMin|
	EXPORT	|ChProgressBarSetValue|
	EXPORT	|?ChProgressBarDestroy@@YAXPEAU_ChWidget_@@PEAU_chwin_@@@Z| ; ChProgressBarDestroy
	IMPORT	|_KePrint|
	IMPORT	|malloc|
	IMPORT	|free|
	IMPORT	|ChWindowUpdate|
	IMPORT	|?ChDefaultProgressBarPainter@@YAXPEAU_ChWidget_@@PEAU_chwin_@@@Z| ; ChDefaultProgressBarPainter
	IMPORT	|_fltused|

	AREA	|.pdata|, PDATA
|$pdata$ChCreateProgressBar| DCD imagerel |$LN4|
	DCD	0x260016d
	;Flags[SingleProEpi] functionLength[364] RegF[0] RegI[0] H[0] frameChainReturn[Chained] frameSize[64]
|$pdata$ChProgressBarSetMax| DCD imagerel |$LN3|
	DCD	0x800029
	;Flags[SingleProEpi] functionLength[40] RegF[0] RegI[0] H[0] frameChainReturn[UnChained] frameSize[16]
|$pdata$ChProgressBarSetMin| DCD imagerel |$LN3|
	DCD	0x800029
	;Flags[SingleProEpi] functionLength[40] RegF[0] RegI[0] H[0] frameChainReturn[UnChained] frameSize[16]
|$pdata$ChProgressBarGetMax| DCD imagerel |$LN3|
	DCD	0x800025
	;Flags[SingleProEpi] functionLength[36] RegF[0] RegI[0] H[0] frameChainReturn[UnChained] frameSize[16]
|$pdata$ChProgressBarGetMin| DCD imagerel |$LN3|
	DCD	0x800025
	;Flags[SingleProEpi] functionLength[36] RegF[0] RegI[0] H[0] frameChainReturn[UnChained] frameSize[16]
|$pdata$ChProgressBarSetValue| DCD imagerel |$LN8|
	DCD	0x1e0019d
	;Flags[SingleProEpi] functionLength[412] RegF[0] RegI[0] H[0] frameChainReturn[Chained] frameSize[48]
|$pdata$?ChProgressBarDestroy@@YAXPEAU_ChWidget_@@PEAU_chwin_@@@Z| DCD imagerel |$LN3|
	DCD	0x1e00035
	;Flags[SingleProEpi] functionLength[52] RegF[0] RegI[0] H[0] frameChainReturn[Chained] frameSize[48]
; Function compile flags: /Odtp
; File E:\Xeneva Project\Aurora\Libs\Chitralekha\widgets\progress.cpp

	AREA	|.text$mn|, CODE, ARM64

|?ChProgressBarDestroy@@YAXPEAU_ChWidget_@@PEAU_chwin_@@@Z| PROC ; ChProgressBarDestroy

; 37   : void ChProgressBarDestroy(ChWidget* widget, ChWindow* win){

|$LN3|
	stp         fp,lr,[sp,#-0x30]!
	mov         fp,sp
	str         x0,[sp,#0x10]
	str         x1,[sp,#0x20]

; 38   : 	ChProgressBar* pb = (ChProgressBar*)widget;

	ldr         x8,[sp,#0x10]
	str         x8,[sp,#0x18]

; 39   : 	free(pb);

	ldr         x0,[sp,#0x18]
	bl          free

; 40   : 	_KePrint("ChProgressBar destroy \r\n");

	adrp        x8,|$SG5078|
	add         x0,x8,PageOffset(|$SG5078|)
	bl          _KePrint
	ldp         fp,lr,[sp],#0x30
	ret

	ENDP  ; |?ChProgressBarDestroy@@YAXPEAU_ChWidget_@@PEAU_chwin_@@@Z|, ChProgressBarDestroy

; Function compile flags: /Odtp
; File E:\Xeneva Project\Aurora\Libs\Chitralekha\widgets\progress.cpp

	AREA	|.text$mn|, CODE, ARM64

|ChProgressBarSetValue| PROC

; 108  : void ChProgressBarSetValue(ChProgressBar* pb,ChWindow* win,double value) {

|$LN8|
	stp         fp,lr,[sp,#-0x30]!
	mov         fp,sp
	str         x0,[sp,#0x10]
	str         x1,[sp,#0x18]
	str         d0,[sp,#0x20]

; 109  : 	pb->currentProgress = value;

	ldr         x8,[sp,#0x10]
	add         x8,x8,#0x60
	ldr         d16,[sp,#0x20]
	str         d16,[x8]

; 110  : 	double progressValue = (pb->currentProgress / pb->maximumProgress) * pb->base.w;

	ldr         x8,[sp,#0x10]
	add         x9,x8,#0x60
	ldr         x8,[sp,#0x10]
	add         x8,x8,#0x50
	ldr         d17,[x9]
	ldr         d16,[x8]
	fdiv        d17,d17,d16
	ldr         x8,[sp,#0x10]
	add         x8,x8,#8
	ldr         w8,[x8]
	scvtf       d16,w8
	fmul        d16,d17,d16
	str         d16,[sp,#0x28]

; 111  : 	pb->progressPixelWidth = (int)progressValue;

	ldr         d16,[sp,#0x28]
	fcvtzs      w9,d16
	ldr         x8,[sp,#0x10]
	add         x8,x8,#0x70
	str         w9,[x8]

; 112  : 
; 113  : 	if (pb->currentProgress <= pb->minimumProgress)

	ldr         x8,[sp,#0x10]
	add         x9,x8,#0x60
	ldr         x8,[sp,#0x10]
	add         x8,x8,#0x58
	ldr         d17,[x8]
	ldr         d16,[x9]
	fcmpe       d16,d17
	bhi         |$LN2@ChProgress|

; 114  : 		pb->currentProgress = pb->minimumProgress;

	ldr         x8,[sp,#0x10]
	add         x9,x8,#0x58
	ldr         x8,[sp,#0x10]
	add         x8,x8,#0x60
	ldr         d16,[x9]
	str         d16,[x8]
|$LN2@ChProgress|

; 115  : 
; 116  : 	if (pb->currentProgress >= pb->maximumProgress)

	ldr         x8,[sp,#0x10]
	add         x9,x8,#0x60
	ldr         x8,[sp,#0x10]
	add         x8,x8,#0x50
	ldr         d17,[x8]
	ldr         d16,[x9]
	fcmpe       d16,d17
	blt         |$LN3@ChProgress|

; 117  : 		pb->currentProgress = pb->maximumProgress;

	ldr         x8,[sp,#0x10]
	add         x9,x8,#0x50
	ldr         x8,[sp,#0x10]
	add         x8,x8,#0x60
	ldr         d16,[x9]
	str         d16,[x8]
|$LN3@ChProgress|

; 118  : 
; 119  : 	if (pb->currentProgress != pb->maximumProgress) {

	ldr         x8,[sp,#0x10]
	add         x9,x8,#0x60
	ldr         x8,[sp,#0x10]
	add         x8,x8,#0x50
	ldr         d17,[x8]
	ldr         d16,[x9]
	fcmp        d16,d17
	beq         |$LN4@ChProgress|

; 120  : 		if (pb->base.ChPaintHandler)

	ldr         x8,[sp,#0x10]
	add         x8,x8,#0x40
	ldr         x8,[x8]
	cmp         x8,#0
	beq         |$LN5@ChProgress|

; 121  : 			pb->base.ChPaintHandler((ChWidget*)pb, win);

	ldr         x8,[sp,#0x10]
	add         x8,x8,#0x40
	ldr         x1,[sp,#0x18]
	ldr         x0,[sp,#0x10]
	ldr         x8,[x8]
	blr         x8
|$LN5@ChProgress|

; 122  : 
; 123  : 		pb->progressPercent = (pb->currentProgress / pb->maximumProgress) * 100;

	ldr         x8,[sp,#0x10]
	add         x9,x8,#0x60
	ldr         x8,[sp,#0x10]
	add         x8,x8,#0x50
	ldr         d17,[x9]
	ldr         d16,[x8]
	fdiv        d17,d17,d16
	ldr         d16,|$LN7@ChProgress|
	fmul        d16,d17,d16
	ldr         x8,[sp,#0x10]
	add         x8,x8,#0x68
	str         d16,[x8]

; 124  : 		ChWindowUpdate(win, pb->base.x, pb->base.y, pb->base.w, pb->base.h, 0, 1);

	ldr         x8,[sp,#0x10]
	add         x11,x8,#0xC
	ldr         x8,[sp,#0x10]
	add         x10,x8,#8
	ldr         x8,[sp,#0x10]
	add         x9,x8,#4
	ldr         x8,[sp,#0x10]
	mov         w6,#1
	mov         w5,#0
	ldr         w4,[x11]
	ldr         w3,[x10]
	ldr         w2,[x9]
	ldr         w1,[x8]
	ldr         x0,[sp,#0x18]
	bl          ChWindowUpdate
|$LN4@ChProgress|
	ldp         fp,lr,[sp],#0x30
	ret
	nop
|$LN7@ChProgress|
	DCFD         100

	ENDP  ; |ChProgressBarSetValue|

; Function compile flags: /Odtp
; File E:\Xeneva Project\Aurora\Libs\Chitralekha\widgets\progress.cpp

	AREA	|.text$mn|, CODE, ARM64

|ChProgressBarGetMin| PROC

; 98   : int ChProgressBarGetMin(ChProgressBar* pb) {

|$LN3|
	sub         sp,sp,#0x10
	str         x0,[sp]

; 99   : 	return pb->minimumProgress;

	ldr         x8,[sp]
	add         x8,x8,#0x58
	ldr         d16,[x8]
	fcvtzs      w0,d16
	mov         w0,w0
	add         sp,sp,#0x10
	ret

	ENDP  ; |ChProgressBarGetMin|

; Function compile flags: /Odtp
; File E:\Xeneva Project\Aurora\Libs\Chitralekha\widgets\progress.cpp

	AREA	|.text$mn|, CODE, ARM64

|ChProgressBarGetMax| PROC

; 90   : int ChProgressBarGetMax(ChProgressBar* pb) {

|$LN3|
	sub         sp,sp,#0x10
	str         x0,[sp]

; 91   : 	return pb->maximumProgress;

	ldr         x8,[sp]
	add         x8,x8,#0x50
	ldr         d16,[x8]
	fcvtzs      w0,d16
	mov         w0,w0
	add         sp,sp,#0x10
	ret

	ENDP  ; |ChProgressBarGetMax|

; Function compile flags: /Odtp
; File E:\Xeneva Project\Aurora\Libs\Chitralekha\widgets\progress.cpp

	AREA	|.text$mn|, CODE, ARM64

|ChProgressBarSetMin| PROC

; 82   : void ChProgressBarSetMin(ChProgressBar* pb, int min){

|$LN3|
	sub         sp,sp,#0x10
	str         x0,[sp,#8]
	str         w1,[sp]

; 83   : 	pb->minimumProgress = min;

	ldr         w8,[sp]
	scvtf       d16,w8
	ldr         x8,[sp,#8]
	add         x8,x8,#0x58
	str         d16,[x8]
	add         sp,sp,#0x10
	ret

	ENDP  ; |ChProgressBarSetMin|

; Function compile flags: /Odtp
; File E:\Xeneva Project\Aurora\Libs\Chitralekha\widgets\progress.cpp

	AREA	|.text$mn|, CODE, ARM64

|ChProgressBarSetMax| PROC

; 73   : void ChProgressBarSetMax(ChProgressBar* pb, int max) {

|$LN3|
	sub         sp,sp,#0x10
	str         x0,[sp,#8]
	str         w1,[sp]

; 74   : 	pb->maximumProgress = max;

	ldr         w8,[sp]
	scvtf       d16,w8
	ldr         x8,[sp,#8]
	add         x8,x8,#0x50
	str         d16,[x8]
	add         sp,sp,#0x10
	ret

	ENDP  ; |ChProgressBarSetMax|

; Function compile flags: /Odtp
; File E:\Xeneva Project\Aurora\Libs\Chitralekha\widgets\progress.cpp

	AREA	|.text$mn|, CODE, ARM64

|ChCreateProgressBar| PROC

; 50   : ChProgressBar *ChCreateProgressBar(int x, int y, int w, int h, double progress) {

|$LN4|
	stp         fp,lr,[sp,#-0x40]!
	mov         fp,sp
	str         w0,[sp,#0x10]
	str         w1,[sp,#0x14]
	str         w2,[sp,#0x18]
	str         w3,[sp,#0x1C]
	str         d0,[sp,#0x28]

; 51   : 	ChProgressBar* pb = (ChProgressBar*)malloc(sizeof(ChProgressBar));

	mov         w0,#0x78
	bl          malloc
	str         x0,[sp,#0x20]

; 52   : 	memset(pb, 0, sizeof(ChProgressBar));

	ldr         x9,[sp,#0x20]
	mov         x8,#0
	stp         x8,x8,[x9]
	stp         x8,x8,[x9,#0x10]
	stp         x8,x8,[x9,#0x20]
	stp         x8,x8,[x9,#0x30]
	stp         x8,x8,[x9,#0x40]
	stp         x8,x8,[x9,#0x50]
	stp         x8,x8,[x9,#0x60]
	str         x8,[x9,#0x70]

; 53   : 	pb->base.x = x;

	ldr         x9,[sp,#0x20]
	ldr         w8,[sp,#0x10]
	str         w8,[x9]

; 54   : 	pb->base.y = 26 + y;

	ldr         w8,[sp,#0x14]
	add         w9,w8,#0x1A
	ldr         x8,[sp,#0x20]
	add         x8,x8,#4
	str         w9,[x8]

; 55   : 	pb->base.w = w;

	ldr         x8,[sp,#0x20]
	add         x9,x8,#8
	ldr         w8,[sp,#0x18]
	str         w8,[x9]

; 56   : 	pb->base.h = h;

	ldr         x8,[sp,#0x20]
	add         x9,x8,#0xC
	ldr         w8,[sp,#0x1C]
	str         w8,[x9]

; 57   : 	pb->base.ChDestroy = ChProgressBarDestroy;

	ldr         x8,[sp,#0x20]
	add         x9,x8,#0x48
	adrp        x8,|?ChProgressBarDestroy@@YAXPEAU_ChWidget_@@PEAU_chwin_@@@Z|
	add         x8,x8,PageOffset(|?ChProgressBarDestroy@@YAXPEAU_ChWidget_@@PEAU_chwin_@@@Z|)
	str         x8,[x9]

; 58   : 	pb->base.ChPaintHandler = ChDefaultProgressBarPainter;

	ldr         x8,[sp,#0x20]
	add         x9,x8,#0x40
	adrp        x8,|?ChDefaultProgressBarPainter@@YAXPEAU_ChWidget_@@PEAU_chwin_@@@Z|
	add         x8,x8,PageOffset(|?ChDefaultProgressBarPainter@@YAXPEAU_ChWidget_@@PEAU_chwin_@@@Z|)
	str         x8,[x9]

; 59   : 	pb->minimumProgress = 0;

	ldr         x8,[sp,#0x20]
	add         x8,x8,#0x58
	movi        d16,#0
	str         d16,[x8]

; 60   : 	pb->maximumProgress = 100;

	ldr         x8,[sp,#0x20]
	add         x8,x8,#0x50
	ldr         d16,|$LN3@ChCreatePr|
	str         d16,[x8]

; 61   : 	pb->currentProgress = progress;

	ldr         x8,[sp,#0x20]
	add         x8,x8,#0x60
	ldr         d16,[sp,#0x28]
	str         d16,[x8]

; 62   : 	double progressValue = (pb->currentProgress / pb->maximumProgress) * pb->base.w;

	ldr         x8,[sp,#0x20]
	add         x9,x8,#0x60
	ldr         x8,[sp,#0x20]
	add         x8,x8,#0x50
	ldr         d17,[x9]
	ldr         d16,[x8]
	fdiv        d17,d17,d16
	ldr         x8,[sp,#0x20]
	add         x8,x8,#8
	ldr         w8,[x8]
	scvtf       d16,w8
	fmul        d16,d17,d16
	str         d16,[sp,#0x30]

; 63   : 	pb->progressPixelWidth =  (int)progressValue;

	ldr         d16,[sp,#0x30]
	fcvtzs      w9,d16
	ldr         x8,[sp,#0x20]
	add         x8,x8,#0x70
	str         w9,[x8]

; 64   : 	pb->progressPercent = (pb->currentProgress / pb->maximumProgress) * 100;

	ldr         x8,[sp,#0x20]
	add         x9,x8,#0x60
	ldr         x8,[sp,#0x20]
	add         x8,x8,#0x50
	ldr         d17,[x9]
	ldr         d16,[x8]
	fdiv        d17,d17,d16
	ldr         d16,|$LN3@ChCreatePr|
	fmul        d16,d17,d16
	ldr         x8,[sp,#0x20]
	add         x8,x8,#0x68
	str         d16,[x8]

; 65   : 	return pb;

	ldr         x0,[sp,#0x20]
	ldp         fp,lr,[sp],#0x40
	ret
	nop
|$LN3@ChCreatePr|
	DCFD         100

	ENDP  ; |ChCreateProgressBar|

	END
