; Listing generated by Microsoft (R) Optimizing Compiler Version 19.29.30159.0 

	TTL	E:\Xeneva Project\Aurora\Libs\Chitralekha\ARM64\Debug\scrollpane.obj
	ARM64

	AREA	|.drectve|, DRECTVE


	AREA	|.rdata|, DATA, READONLY
|$SG5330| DCB	"Scrollpane destroyed ", 0xd, 0xa, 0x0
	EXPORT	|ChCreateScrollPane|
	EXPORT	|ChScrollUpdateVerticalScroll|
	EXPORT	|ChScrollUpdateHorizontalScroll|
	EXPORT	|?ChDefaultScrollPaneMouseEvent@@YAXPEAU_ChWidget_@@PEAU_chwin_@@HHH@Z| ; ChDefaultScrollPaneMouseEvent
	EXPORT	|?ChScrollpaneDestroy@@YAXPEAU_ChWidget_@@PEAU_chwin_@@@Z| ; ChScrollpaneDestroy
	IMPORT	|_KePrint|
	IMPORT	|malloc|
	IMPORT	|free|
	IMPORT	|ChWindowUpdate|
	IMPORT	|_KeProcessSleep|
	IMPORT	|?ChDefaultScrollPanePainter@@YAXPEAU_ChWidget_@@PEAU_chwin_@@@Z| ; ChDefaultScrollPanePainter
	IMPORT	|_fltused|

	AREA	|.pdata|, PDATA
|$pdata$ChCreateScrollPane| DCD imagerel |$LN6|
	DCD	0x260030d
	;Flags[SingleProEpi] functionLength[780] RegF[0] RegI[0] H[0] frameChainReturn[Chained] frameSize[64]
|$pdata$ChScrollUpdateVerticalScroll| DCD imagerel |$LN6|
	DCD	0x1800165
	;Flags[SingleProEpi] functionLength[356] RegF[0] RegI[0] H[0] frameChainReturn[UnChained] frameSize[48]
|$pdata$ChScrollUpdateHorizontalScroll| DCD imagerel |$LN6|
	DCD	0x1800155
	;Flags[SingleProEpi] functionLength[340] RegF[0] RegI[0] H[0] frameChainReturn[UnChained] frameSize[48]
|$pdata$?ChDefaultScrollPaneMouseEvent@@YAXPEAU_ChWidget_@@PEAU_chwin_@@HHH@Z| DCD imagerel |$LN36|
	DCD	0x2e011bd
	;Flags[SingleProEpi] functionLength[4540] RegF[0] RegI[0] H[0] frameChainReturn[Chained] frameSize[80]
|$pdata$?ChScrollpaneDestroy@@YAXPEAU_ChWidget_@@PEAU_chwin_@@@Z| DCD imagerel |$LN3|
	DCD	0x1e00035
	;Flags[SingleProEpi] functionLength[52] RegF[0] RegI[0] H[0] frameChainReturn[Chained] frameSize[48]
; Function compile flags: /Odtp
; File E:\Xeneva Project\Aurora\Libs\Chitralekha\widgets\scrollpane.cpp

	AREA	|.text$mn|, CODE, ARM64

|?ChScrollpaneDestroy@@YAXPEAU_ChWidget_@@PEAU_chwin_@@@Z| PROC ; ChScrollpaneDestroy

; 252  : void ChScrollpaneDestroy(ChWidget* wid, ChWindow* win) {

|$LN3|
	stp         fp,lr,[sp,#-0x30]!
	mov         fp,sp
	str         x0,[sp,#0x10]
	str         x1,[sp,#0x20]

; 253  : 	ChScrollPane* sp = (ChScrollPane*)wid;

	ldr         x8,[sp,#0x10]
	str         x8,[sp,#0x18]

; 254  : 	free(sp);

	ldr         x0,[sp,#0x18]
	bl          free

; 255  : 	_KePrint("Scrollpane destroyed \r\n");

	adrp        x8,|$SG5330|
	add         x0,x8,PageOffset(|$SG5330|)
	bl          _KePrint
	ldp         fp,lr,[sp],#0x30
	ret

	ENDP  ; |?ChScrollpaneDestroy@@YAXPEAU_ChWidget_@@PEAU_chwin_@@@Z|, ChScrollpaneDestroy

; Function compile flags: /Odtp
; File E:\Xeneva Project\Aurora\Libs\Chitralekha\widgets\scrollpane.cpp

	AREA	|.text$mn|, CODE, ARM64

|?ChDefaultScrollPaneMouseEvent@@YAXPEAU_ChWidget_@@PEAU_chwin_@@HHH@Z| PROC ; ChDefaultScrollPaneMouseEvent

; 40   : void ChDefaultScrollPaneMouseEvent(ChWidget* wid, ChWindow* win, int x, int y, int button){

|$LN36|
	stp         fp,lr,[sp,#-0x50]!
	mov         fp,sp
	str         x0,[sp,#0x48]
	str         x1,[sp,#0x18]
	str         w2,[sp,#0x24]
	str         w3,[sp,#0x28]
	str         w4,[sp,#0x2C]

; 41   : 	ChScrollPane *sp = (ChScrollPane*)wid;

	ldr         x8,[sp,#0x48]
	str         x8,[sp,#0x10]

; 42   : 
; 43   : 	if (button == DEODHAI_MOUSE_MSG_SCROLL_UP) {

	ldr         w8,[sp,#0x2C]
	cmp         w8,#5
	bne         |$LN2@ChDefaultS|

; 44   : 		sp->vScrollBar.thumb_posy -= sp->vScrollBar.scrollAmount;

	ldr         x8,[sp,#0x10]
	add         x8,x8,#0xA0
	add         x10,x8,#0x18
	ldr         x8,[sp,#0x10]
	add         x8,x8,#0xA0
	add         x9,x8,#0x38
	ldr         w8,[x10]
	scvtf       d17,w8
	ldr         d16,[x9]
	fsub        d16,d17,d16
	ldr         x8,[sp,#0x10]
	add         x8,x8,#0xA0
	add         x9,x8,#0x18
	fcvtzs      w8,d16
	str         w8,[x9]

; 45   : 
; 46   : 		if ((sp->vScrollBar.bar_y + sp->vScrollBar.thumb_posy) <= sp->vScrollBar.bar_y)

	ldr         x8,[sp,#0x10]
	add         x8,x8,#0xA0
	add         x9,x8,#8
	ldr         x8,[sp,#0x10]
	add         x8,x8,#0xA0
	add         x8,x8,#0x18
	ldr         w9,[x9]
	ldr         w8,[x8]
	add         w9,w9,w8
	ldr         x8,[sp,#0x10]
	add         x8,x8,#0xA0
	add         x8,x8,#8
	ldr         w8,[x8]
	cmp         w9,w8
	bgt         |$LN3@ChDefaultS|

; 47   : 			sp->vScrollBar.thumb_posy = 0;// sp->vScrollBar.bar_y;

	ldr         x8,[sp,#0x10]
	add         x8,x8,#0xA0
	add         x9,x8,#0x18
	mov         w8,#0
	str         w8,[x9]
|$LN3@ChDefaultS|

; 48   : 
; 49   : 		sp->vScrollBar.scrollOffset = sp->vScrollBar.thumb_posy;

	ldr         x8,[sp,#0x10]
	add         x8,x8,#0xA0
	add         x8,x8,#0x18
	ldr         w8,[x8]
	scvtf       d16,w8
	ldr         x8,[sp,#0x10]
	add         x8,x8,#0xA0
	add         x8,x8,#0x40
	str         d16,[x8]

; 50   : 		if (sp->wid.ChPaintHandler)

	ldr         x8,[sp,#0x10]
	add         x8,x8,#0x40
	ldr         x8,[x8]
	cmp         x8,#0
	beq         |$LN4@ChDefaultS|

; 51   : 			sp->wid.ChPaintHandler((ChWidget*)sp, win);

	ldr         x8,[sp,#0x10]
	add         x8,x8,#0x40
	ldr         x1,[sp,#0x18]
	ldr         x0,[sp,#0x10]
	ldr         x8,[x8]
	blr         x8
|$LN4@ChDefaultS|

; 52   : 
; 53   : 		if (!sp->scrollableView)

	ldr         x8,[sp,#0x10]
	add         x8,x8,#0xF8
	ldr         x8,[x8]
	cmp         x8,#0
	bne         |$LN5@ChDefaultS|

; 54   : 			ChWindowUpdate(win, sp->vScrollBar.bar_x, sp->vScrollBar.bar_y, sp->vScrollBar.bar_w, sp->vScrollBar.bar_h, 0, 1);

	ldr         x8,[sp,#0x10]
	add         x8,x8,#0xA0
	add         x11,x8,#0x10
	ldr         x8,[sp,#0x10]
	add         x8,x8,#0xA0
	add         x10,x8,#0xC
	ldr         x8,[sp,#0x10]
	add         x8,x8,#0xA0
	add         x9,x8,#8
	ldr         x8,[sp,#0x10]
	add         x8,x8,#0xA0
	add         x8,x8,#4
	mov         w6,#1
	mov         w5,#0
	ldr         w4,[x11]
	ldr         w3,[x10]
	ldr         w2,[x9]
	ldr         w1,[x8]
	ldr         x0,[sp,#0x18]
	bl          ChWindowUpdate
|$LN5@ChDefaultS|

; 55   : 
; 56   : #ifdef ARCH_X64
; 57   : 		_KeProcessSleep(100);
; 58   : #elif ARCH_ARM64
; 59   : 		_KeProcessSleep(1);

	mov         x0,#1
	bl          _KeProcessSleep

; 60   : #endif
; 61   : 
; 62   : 		if (sp->scrollableView)

	ldr         x8,[sp,#0x10]
	add         x8,x8,#0xF8
	ldr         x8,[x8]
	cmp         x8,#0
	beq         |$LN6@ChDefaultS|

; 63   : 			sp->scrollableView->ChScrollEvent(sp->scrollableView, win, sp->vScrollBar.thumb_posy, CHITRALEKHA_SCROLL_TYPE_VERTICAL);

	ldr         x8,[sp,#0x10]
	add         x8,x8,#0xA0
	add         x10,x8,#0x18
	ldr         x8,[sp,#0x10]
	add         x9,x8,#0xF8
	ldr         x8,[sp,#0x10]
	add         x8,x8,#0xF8
	ldr         x8,[x8]
	add         x8,x8,#0x38
	mov         w3,#2
	ldr         w2,[x10]
	ldr         x1,[sp,#0x18]
	ldr         x0,[x9]
	ldr         x8,[x8]
	blr         x8
|$LN6@ChDefaultS|

; 64   : 
; 65   : #ifdef ARCH_X64
; 66   : 		_KeProcessSleep(200);
; 67   : #elif ARCH_ARM64
; 68   : 		_KeProcessSleep(1);

	mov         x0,#1
	bl          _KeProcessSleep
|$LN2@ChDefaultS|

; 69   : #endif
; 70   : 	}
; 71   : 
; 72   : 	if (button == DEODHAI_MOUSE_MSG_SCROLL_DOWN) {

	ldr         w8,[sp,#0x2C]
	cmp         w8,#6
	bne         |$LN7@ChDefaultS|

; 73   : 		sp->vScrollBar.thumb_posy += sp->vScrollBar.scrollAmount;

	ldr         x8,[sp,#0x10]
	add         x8,x8,#0xA0
	add         x10,x8,#0x18
	ldr         x8,[sp,#0x10]
	add         x8,x8,#0xA0
	add         x9,x8,#0x38
	ldr         w8,[x10]
	scvtf       d17,w8
	ldr         d16,[x9]
	fadd        d16,d17,d16
	ldr         x8,[sp,#0x10]
	add         x8,x8,#0xA0
	add         x9,x8,#0x18
	fcvtzs      w8,d16
	str         w8,[x9]

; 74   : 
; 75   : 		if ((sp->vScrollBar.bar_y + sp->vScrollBar.thumb_posy + sp->vScrollBar.thumb_height) >= sp->vScrollBar.bar_y + sp->vScrollBar.bar_h){

	ldr         x8,[sp,#0x10]
	add         x8,x8,#0xA0
	add         x9,x8,#8
	ldr         x8,[sp,#0x10]
	add         x8,x8,#0xA0
	add         x8,x8,#0x18
	ldr         w9,[x9]
	ldr         w8,[x8]
	add         w9,w9,w8
	ldr         x8,[sp,#0x10]
	add         x8,x8,#0xA0
	add         x8,x8,#0x20
	ldr         w8,[x8]
	add         w10,w9,w8
	ldr         x8,[sp,#0x10]
	add         x8,x8,#0xA0
	add         x9,x8,#8
	ldr         x8,[sp,#0x10]
	add         x8,x8,#0xA0
	add         x8,x8,#0x10
	ldr         w9,[x9]
	ldr         w8,[x8]
	add         w8,w9,w8
	cmp         w10,w8
	blt         |$LN8@ChDefaultS|

; 76   : 			sp->vScrollBar.thumb_posy = (win->info->y + sp->vScrollBar.bar_y + sp->vScrollBar.bar_h) -

	ldr         x8,[sp,#0x18]
	add         x8,x8,#0x28
	ldr         x9,[x8]
	mov         x8,#0x100C
	add         x9,x9,x8
	ldr         x8,[sp,#0x10]
	add         x8,x8,#0xA0
	add         x8,x8,#8
	ldr         w9,[x9]
	ldr         w8,[x8]
	add         w9,w9,w8
	ldr         x8,[sp,#0x10]
	add         x8,x8,#0xA0
	add         x8,x8,#0x10
	ldr         w8,[x8]
	add         w10,w9,w8
	ldr         x8,[sp,#0x18]
	add         x8,x8,#0x28
	ldr         x9,[x8]
	mov         x8,#0x100C
	add         x9,x9,x8
	ldr         x8,[sp,#0x10]
	add         x8,x8,#0xA0
	add         x8,x8,#8
	ldr         w9,[x9]
	ldr         w8,[x8]
	add         w9,w9,w8
	ldr         x8,[sp,#0x10]
	add         x8,x8,#0xA0
	add         x8,x8,#0x20
	ldr         w8,[x8]
	add         w8,w9,w8
	sub         w8,w10,w8
	sub         w9,w8,#2
	ldr         x8,[sp,#0x10]
	add         x8,x8,#0xA0
	add         x8,x8,#0x18
	str         w9,[x8]
|$LN8@ChDefaultS|

; 77   : 				(win->info->y + sp->vScrollBar.bar_y + sp->vScrollBar.thumb_height) - 2;
; 78   : 		}
; 79   : 
; 80   : 		if ((sp->vScrollBar.bar_y + sp->vScrollBar.thumb_posy) <= sp->vScrollBar.bar_y)

	ldr         x8,[sp,#0x10]
	add         x8,x8,#0xA0
	add         x9,x8,#8
	ldr         x8,[sp,#0x10]
	add         x8,x8,#0xA0
	add         x8,x8,#0x18
	ldr         w9,[x9]
	ldr         w8,[x8]
	add         w9,w9,w8
	ldr         x8,[sp,#0x10]
	add         x8,x8,#0xA0
	add         x8,x8,#8
	ldr         w8,[x8]
	cmp         w9,w8
	bgt         |$LN9@ChDefaultS|

; 81   : 			sp->vScrollBar.thumb_posy = 1;// sp->vScrollBar.bar_y;

	ldr         x8,[sp,#0x10]
	add         x8,x8,#0xA0
	add         x9,x8,#0x18
	mov         w8,#1
	str         w8,[x9]
|$LN9@ChDefaultS|

; 82   : 
; 83   : 		sp->vScrollBar.scrollOffset = sp->vScrollBar.thumb_posy;

	ldr         x8,[sp,#0x10]
	add         x8,x8,#0xA0
	add         x8,x8,#0x18
	ldr         w8,[x8]
	scvtf       d16,w8
	ldr         x8,[sp,#0x10]
	add         x8,x8,#0xA0
	add         x8,x8,#0x40
	str         d16,[x8]

; 84   : 		if (sp->wid.ChPaintHandler)

	ldr         x8,[sp,#0x10]
	add         x8,x8,#0x40
	ldr         x8,[x8]
	cmp         x8,#0
	beq         |$LN10@ChDefaultS|

; 85   : 			sp->wid.ChPaintHandler((ChWidget*)sp, win);

	ldr         x8,[sp,#0x10]
	add         x8,x8,#0x40
	ldr         x1,[sp,#0x18]
	ldr         x0,[sp,#0x10]
	ldr         x8,[x8]
	blr         x8
|$LN10@ChDefaultS|

; 86   : 
; 87   : 		if (!sp->scrollableView)

	ldr         x8,[sp,#0x10]
	add         x8,x8,#0xF8
	ldr         x8,[x8]
	cmp         x8,#0
	bne         |$LN11@ChDefaultS|

; 88   : 			ChWindowUpdate(win, sp->vScrollBar.bar_x, sp->vScrollBar.bar_y, sp->vScrollBar.bar_w, sp->vScrollBar.bar_h, 0, 1);

	ldr         x8,[sp,#0x10]
	add         x8,x8,#0xA0
	add         x11,x8,#0x10
	ldr         x8,[sp,#0x10]
	add         x8,x8,#0xA0
	add         x10,x8,#0xC
	ldr         x8,[sp,#0x10]
	add         x8,x8,#0xA0
	add         x9,x8,#8
	ldr         x8,[sp,#0x10]
	add         x8,x8,#0xA0
	add         x8,x8,#4
	mov         w6,#1
	mov         w5,#0
	ldr         w4,[x11]
	ldr         w3,[x10]
	ldr         w2,[x9]
	ldr         w1,[x8]
	ldr         x0,[sp,#0x18]
	bl          ChWindowUpdate
|$LN11@ChDefaultS|

; 89   : 
; 90   : #ifdef ARCH_X64
; 91   : 		_KeProcessSleep(100);
; 92   : #elif ARCH_ARM64
; 93   : 		_KeProcessSleep(1);

	mov         x0,#1
	bl          _KeProcessSleep

; 94   : #endif
; 95   : 
; 96   : 		if (sp->scrollableView)

	ldr         x8,[sp,#0x10]
	add         x8,x8,#0xF8
	ldr         x8,[x8]
	cmp         x8,#0
	beq         |$LN12@ChDefaultS|

; 97   : 			sp->scrollableView->ChScrollEvent(sp->scrollableView, win, sp->vScrollBar.thumb_posy, CHITRALEKHA_SCROLL_TYPE_VERTICAL);

	ldr         x8,[sp,#0x10]
	add         x8,x8,#0xA0
	add         x10,x8,#0x18
	ldr         x8,[sp,#0x10]
	add         x9,x8,#0xF8
	ldr         x8,[sp,#0x10]
	add         x8,x8,#0xF8
	ldr         x8,[x8]
	add         x8,x8,#0x38
	mov         w3,#2
	ldr         w2,[x10]
	ldr         x1,[sp,#0x18]
	ldr         x0,[x9]
	ldr         x8,[x8]
	blr         x8
|$LN12@ChDefaultS|

; 98   : 
; 99   : #ifdef ARCH_X64
; 100  : 		_KeProcessSleep(200);
; 101  : #elif ARCH_ARM64
; 102  : 		_KeProcessSleep(1);

	mov         x0,#1
	bl          _KeProcessSleep
|$LN7@ChDefaultS|

; 103  : #endif
; 104  : 	}
; 105  : 
; 106  : 
; 107  : 	/* check for any scrollbar pending updates */
; 108  : 	if (x >= (win->info->x + sp->hScrollBar.bar_x) &&
; 109  : 		x < (win->info->x + sp->hScrollBar.bar_x + sp->hScrollBar.bar_w) &&
; 110  : 		y >= (win->info->y + sp->hScrollBar.bar_y) &&

	ldr         x8,[sp,#0x18]
	add         x8,x8,#0x28
	ldr         x9,[x8]
	mov         x8,#0x1008
	add         x9,x9,x8
	ldr         x8,[sp,#0x10]
	add         x8,x8,#0x50
	add         x8,x8,#4
	ldr         w9,[x9]
	ldr         w8,[x8]
	add         w9,w9,w8
	ldr         w8,[sp,#0x24]
	cmp         w8,w9
	blt         |$LN13@ChDefaultS|
	ldr         x8,[sp,#0x18]
	add         x8,x8,#0x28
	ldr         x9,[x8]
	mov         x8,#0x1008
	add         x9,x9,x8
	ldr         x8,[sp,#0x10]
	add         x8,x8,#0x50
	add         x8,x8,#4
	ldr         w9,[x9]
	ldr         w8,[x8]
	add         w9,w9,w8
	ldr         x8,[sp,#0x10]
	add         x8,x8,#0x50
	add         x8,x8,#0xC
	ldr         w8,[x8]
	add         w9,w9,w8
	ldr         w8,[sp,#0x24]
	cmp         w8,w9
	bge         |$LN13@ChDefaultS|
	ldr         x8,[sp,#0x18]
	add         x8,x8,#0x28
	ldr         x9,[x8]
	mov         x8,#0x100C
	add         x9,x9,x8
	ldr         x8,[sp,#0x10]
	add         x8,x8,#0x50
	add         x8,x8,#8
	ldr         w9,[x9]
	ldr         w8,[x8]
	add         w9,w9,w8
	ldr         w8,[sp,#0x28]
	cmp         w8,w9
	blt         |$LN13@ChDefaultS|
	ldr         x8,[sp,#0x18]
	add         x8,x8,#0x28
	ldr         x9,[x8]
	mov         x8,#0x100C
	add         x9,x9,x8
	ldr         x8,[sp,#0x10]
	add         x8,x8,#0x50
	add         x8,x8,#8
	ldr         w9,[x9]
	ldr         w8,[x8]
	add         w9,w9,w8
	ldr         x8,[sp,#0x10]
	add         x8,x8,#0x50
	add         x8,x8,#0x10
	ldr         w8,[x8]
	add         w9,w9,w8
	ldr         w8,[sp,#0x28]
	cmp         w8,w9
	bge         |$LN13@ChDefaultS|

; 111  : 		y < (win->info->y + sp->hScrollBar.bar_y + sp->hScrollBar.bar_h)){
; 112  : 		if (sp->hScrollBar.thumbHover){

	ldr         x8,[sp,#0x10]
	add         x8,x8,#0x50
	add         x8,x8,#0x34
	ldrsb       w8,[x8]
	mov         w8,w8
	cmp         w8,#0
	beq         |$LN14@ChDefaultS|

; 113  : 			sp->hScrollBar.update = 1;

	ldr         x8,[sp,#0x10]
	add         x8,x8,#0x50
	add         x9,x8,#1
	mov         w8,#1
	strb        w8,[x9]

; 114  : 			sp->hScrollBar.thumbHover = 0;

	ldr         x8,[sp,#0x10]
	add         x8,x8,#0x50
	add         x9,x8,#0x34
	mov         w8,#0
	strb        w8,[x9]

; 115  : 			if (sp->wid.ChPaintHandler)

	ldr         x8,[sp,#0x10]
	add         x8,x8,#0x40
	ldr         x8,[x8]
	cmp         x8,#0
	beq         |$LN15@ChDefaultS|

; 116  : 				sp->wid.ChPaintHandler((ChWidget*)sp, win);

	ldr         x8,[sp,#0x10]
	add         x8,x8,#0x40
	ldr         x1,[sp,#0x18]
	ldr         x0,[sp,#0x10]
	ldr         x8,[x8]
	blr         x8
|$LN15@ChDefaultS|

; 117  : 			ChWindowUpdate(win, sp->hScrollBar.bar_x, sp->hScrollBar.bar_y, sp->hScrollBar.bar_w, sp->hScrollBar.bar_h, 0, 1);

	ldr         x8,[sp,#0x10]
	add         x8,x8,#0x50
	add         x11,x8,#0x10
	ldr         x8,[sp,#0x10]
	add         x8,x8,#0x50
	add         x10,x8,#0xC
	ldr         x8,[sp,#0x10]
	add         x8,x8,#0x50
	add         x9,x8,#8
	ldr         x8,[sp,#0x10]
	add         x8,x8,#0x50
	add         x8,x8,#4
	mov         w6,#1
	mov         w5,#0
	ldr         w4,[x11]
	ldr         w3,[x10]
	ldr         w2,[x9]
	ldr         w1,[x8]
	ldr         x0,[sp,#0x18]
	bl          ChWindowUpdate
|$LN14@ChDefaultS|
|$LN13@ChDefaultS|

; 118  : 		}
; 119  : 	}
; 120  : 
; 121  : 	if (x >= (win->info->x + sp->vScrollBar.bar_x) &&
; 122  : 		x < (win->info->x + sp->vScrollBar.bar_x + sp->vScrollBar.bar_w) &&
; 123  : 		y >= (win->info->y + sp->vScrollBar.bar_y) &&

	ldr         x8,[sp,#0x18]
	add         x8,x8,#0x28
	ldr         x9,[x8]
	mov         x8,#0x1008
	add         x9,x9,x8
	ldr         x8,[sp,#0x10]
	add         x8,x8,#0xA0
	add         x8,x8,#4
	ldr         w9,[x9]
	ldr         w8,[x8]
	add         w9,w9,w8
	ldr         w8,[sp,#0x24]
	cmp         w8,w9
	blt         |$LN16@ChDefaultS|
	ldr         x8,[sp,#0x18]
	add         x8,x8,#0x28
	ldr         x9,[x8]
	mov         x8,#0x1008
	add         x9,x9,x8
	ldr         x8,[sp,#0x10]
	add         x8,x8,#0xA0
	add         x8,x8,#4
	ldr         w9,[x9]
	ldr         w8,[x8]
	add         w9,w9,w8
	ldr         x8,[sp,#0x10]
	add         x8,x8,#0xA0
	add         x8,x8,#0xC
	ldr         w8,[x8]
	add         w9,w9,w8
	ldr         w8,[sp,#0x24]
	cmp         w8,w9
	bge         |$LN16@ChDefaultS|
	ldr         x8,[sp,#0x18]
	add         x8,x8,#0x28
	ldr         x9,[x8]
	mov         x8,#0x100C
	add         x9,x9,x8
	ldr         x8,[sp,#0x10]
	add         x8,x8,#0xA0
	add         x8,x8,#8
	ldr         w9,[x9]
	ldr         w8,[x8]
	add         w9,w9,w8
	ldr         w8,[sp,#0x28]
	cmp         w8,w9
	blt         |$LN16@ChDefaultS|
	ldr         x8,[sp,#0x18]
	add         x8,x8,#0x28
	ldr         x9,[x8]
	mov         x8,#0x100C
	add         x9,x9,x8
	ldr         x8,[sp,#0x10]
	add         x8,x8,#0xA0
	add         x8,x8,#8
	ldr         w9,[x9]
	ldr         w8,[x8]
	add         w9,w9,w8
	ldr         x8,[sp,#0x10]
	add         x8,x8,#0xA0
	add         x8,x8,#0x10
	ldr         w8,[x8]
	add         w9,w9,w8
	ldr         w8,[sp,#0x28]
	cmp         w8,w9
	bge         |$LN16@ChDefaultS|

; 124  : 		y < (win->info->y + sp->vScrollBar.bar_y + sp->vScrollBar.bar_h)){
; 125  : 		if (sp->vScrollBar.thumbHover){

	ldr         x8,[sp,#0x10]
	add         x8,x8,#0xA0
	add         x8,x8,#0x34
	ldrsb       w8,[x8]
	mov         w8,w8
	cmp         w8,#0
	beq         |$LN17@ChDefaultS|

; 126  : 			sp->vScrollBar.update = 1;

	ldr         x8,[sp,#0x10]
	add         x8,x8,#0xA0
	add         x9,x8,#1
	mov         w8,#1
	strb        w8,[x9]

; 127  : 			sp->vScrollBar.thumbHover = 0;

	ldr         x8,[sp,#0x10]
	add         x8,x8,#0xA0
	add         x9,x8,#0x34
	mov         w8,#0
	strb        w8,[x9]

; 128  : 			if (sp->wid.ChPaintHandler)

	ldr         x8,[sp,#0x10]
	add         x8,x8,#0x40
	ldr         x8,[x8]
	cmp         x8,#0
	beq         |$LN18@ChDefaultS|

; 129  : 				sp->wid.ChPaintHandler((ChWidget*)sp, win);

	ldr         x8,[sp,#0x10]
	add         x8,x8,#0x40
	ldr         x1,[sp,#0x18]
	ldr         x0,[sp,#0x10]
	ldr         x8,[x8]
	blr         x8
|$LN18@ChDefaultS|

; 130  : 			ChWindowUpdate(win, sp->vScrollBar.bar_x, sp->vScrollBar.bar_y, sp->vScrollBar.bar_w, sp->vScrollBar.bar_h, 0, 1);

	ldr         x8,[sp,#0x10]
	add         x8,x8,#0xA0
	add         x11,x8,#0x10
	ldr         x8,[sp,#0x10]
	add         x8,x8,#0xA0
	add         x10,x8,#0xC
	ldr         x8,[sp,#0x10]
	add         x8,x8,#0xA0
	add         x9,x8,#8
	ldr         x8,[sp,#0x10]
	add         x8,x8,#0xA0
	add         x8,x8,#4
	mov         w6,#1
	mov         w5,#0
	ldr         w4,[x11]
	ldr         w3,[x10]
	ldr         w2,[x9]
	ldr         w1,[x8]
	ldr         x0,[sp,#0x18]
	bl          ChWindowUpdate
|$LN17@ChDefaultS|
|$LN16@ChDefaultS|

; 131  : 		}
; 132  : 	}
; 133  : 
; 134  : 	/* Horizontal Scroll bars mouse events */
; 135  : 	if (x >= (win->info->x + sp->hScrollBar.bar_x + sp->hScrollBar.thumb_posx) &&
; 136  : 		x < (win->info->x + sp->hScrollBar.bar_x + sp->hScrollBar.thumb_posx + sp->hScrollBar.thumb_width) &&
; 137  : 		y >= (win->info->y + sp->hScrollBar.bar_y + sp->hScrollBar.thumb_posy) &&

	ldr         x8,[sp,#0x18]
	add         x8,x8,#0x28
	ldr         x9,[x8]
	mov         x8,#0x1008
	add         x9,x9,x8
	ldr         x8,[sp,#0x10]
	add         x8,x8,#0x50
	add         x8,x8,#4
	ldr         w9,[x9]
	ldr         w8,[x8]
	add         w9,w9,w8
	ldr         x8,[sp,#0x10]
	add         x8,x8,#0x50
	add         x8,x8,#0x14
	ldr         w8,[x8]
	add         w9,w9,w8
	ldr         w8,[sp,#0x24]
	cmp         w8,w9
	blt         |$LN19@ChDefaultS|
	ldr         x8,[sp,#0x18]
	add         x8,x8,#0x28
	ldr         x9,[x8]
	mov         x8,#0x1008
	add         x9,x9,x8
	ldr         x8,[sp,#0x10]
	add         x8,x8,#0x50
	add         x8,x8,#4
	ldr         w9,[x9]
	ldr         w8,[x8]
	add         w9,w9,w8
	ldr         x8,[sp,#0x10]
	add         x8,x8,#0x50
	add         x8,x8,#0x14
	ldr         w8,[x8]
	add         w9,w9,w8
	ldr         x8,[sp,#0x10]
	add         x8,x8,#0x50
	add         x8,x8,#0x1C
	ldr         w8,[x8]
	add         w9,w9,w8
	ldr         w8,[sp,#0x24]
	cmp         w8,w9
	bge         |$LN19@ChDefaultS|
	ldr         x8,[sp,#0x18]
	add         x8,x8,#0x28
	ldr         x9,[x8]
	mov         x8,#0x100C
	add         x9,x9,x8
	ldr         x8,[sp,#0x10]
	add         x8,x8,#0x50
	add         x8,x8,#8
	ldr         w9,[x9]
	ldr         w8,[x8]
	add         w9,w9,w8
	ldr         x8,[sp,#0x10]
	add         x8,x8,#0x50
	add         x8,x8,#0x18
	ldr         w8,[x8]
	add         w9,w9,w8
	ldr         w8,[sp,#0x28]
	cmp         w8,w9
	blt         |$LN19@ChDefaultS|
	ldr         x8,[sp,#0x18]
	add         x8,x8,#0x28
	ldr         x9,[x8]
	mov         x8,#0x100C
	add         x9,x9,x8
	ldr         x8,[sp,#0x10]
	add         x8,x8,#0x50
	add         x8,x8,#8
	ldr         w9,[x9]
	ldr         w8,[x8]
	add         w9,w9,w8
	ldr         x8,[sp,#0x10]
	add         x8,x8,#0x50
	add         x8,x8,#0x18
	ldr         w8,[x8]
	add         w9,w9,w8
	ldr         x8,[sp,#0x10]
	add         x8,x8,#0x50
	add         x8,x8,#0x20
	ldr         w8,[x8]
	add         w9,w9,w8
	ldr         w8,[sp,#0x28]
	cmp         w8,w9
	bge         |$LN19@ChDefaultS|

; 138  : 		y < (win->info->y + sp->hScrollBar.bar_y + sp->hScrollBar.thumb_posy + sp->hScrollBar.thumb_height)){
; 139  : 		sp->hScrollBar.update = 1;

	ldr         x8,[sp,#0x10]
	add         x8,x8,#0x50
	add         x9,x8,#1
	mov         w8,#1
	strb        w8,[x9]

; 140  : 		sp->hScrollBar.thumbHover = 1;

	ldr         x8,[sp,#0x10]
	add         x8,x8,#0x50
	add         x9,x8,#0x34
	mov         w8,#1
	strb        w8,[x9]

; 141  : 		bool _scrolled = false;

	mov         w8,#0
	strb        w8,[sp,#0x20]

; 142  : 	
; 143  : 		if (button) {

	ldr         w8,[sp,#0x2C]
	cmp         w8,#0
	beq         |$LN20@ChDefaultS|

; 144  : 			sp->hScrollBar.thumb_posx = x - (win->info->x + sp->hScrollBar.bar_x + sp->hScrollBar.thumb_width / 2);

	ldr         x8,[sp,#0x18]
	add         x8,x8,#0x28
	ldr         x9,[x8]
	mov         x8,#0x1008
	add         x9,x9,x8
	ldr         x8,[sp,#0x10]
	add         x8,x8,#0x50
	add         x8,x8,#4
	ldr         w9,[x9]
	ldr         w8,[x8]
	add         w10,w9,w8
	ldr         x8,[sp,#0x10]
	add         x8,x8,#0x50
	add         x8,x8,#0x1C
	ldr         w9,[x8]
	mov         w8,#2
	sdiv        w8,w9,w8
	add         w9,w10,w8
	ldr         w8,[sp,#0x24]
	sub         w9,w8,w9
	ldr         x8,[sp,#0x10]
	add         x8,x8,#0x50
	add         x8,x8,#0x14
	str         w9,[x8]

; 145  : 
; 146  : 			if ((sp->hScrollBar.bar_x + sp->hScrollBar.thumb_posx + sp->hScrollBar.thumb_width) >= (sp->hScrollBar.bar_x + sp->hScrollBar.bar_w)){

	ldr         x8,[sp,#0x10]
	add         x8,x8,#0x50
	add         x9,x8,#4
	ldr         x8,[sp,#0x10]
	add         x8,x8,#0x50
	add         x8,x8,#0x14
	ldr         w9,[x9]
	ldr         w8,[x8]
	add         w9,w9,w8
	ldr         x8,[sp,#0x10]
	add         x8,x8,#0x50
	add         x8,x8,#0x1C
	ldr         w8,[x8]
	add         w10,w9,w8
	ldr         x8,[sp,#0x10]
	add         x8,x8,#0x50
	add         x9,x8,#4
	ldr         x8,[sp,#0x10]
	add         x8,x8,#0x50
	add         x8,x8,#0xC
	ldr         w9,[x9]
	ldr         w8,[x8]
	add         w8,w9,w8
	cmp         w10,w8
	blt         |$LN21@ChDefaultS|

; 147  : 				sp->hScrollBar.thumb_posx = (win->info->x + sp->hScrollBar.bar_x + sp->hScrollBar.bar_w) -

	ldr         x8,[sp,#0x18]
	add         x8,x8,#0x28
	ldr         x9,[x8]
	mov         x8,#0x1008
	add         x9,x9,x8
	ldr         x8,[sp,#0x10]
	add         x8,x8,#0x50
	add         x8,x8,#4
	ldr         w9,[x9]
	ldr         w8,[x8]
	add         w9,w9,w8
	ldr         x8,[sp,#0x10]
	add         x8,x8,#0x50
	add         x8,x8,#0xC
	ldr         w8,[x8]
	add         w10,w9,w8
	ldr         x8,[sp,#0x18]
	add         x8,x8,#0x28
	ldr         x9,[x8]
	mov         x8,#0x1008
	add         x9,x9,x8
	ldr         x8,[sp,#0x10]
	add         x8,x8,#0x50
	add         x8,x8,#4
	ldr         w9,[x9]
	ldr         w8,[x8]
	add         w9,w9,w8
	ldr         x8,[sp,#0x10]
	add         x8,x8,#0x50
	add         x8,x8,#0x1C
	ldr         w8,[x8]
	add         w8,w9,w8
	sub         w9,w10,w8
	ldr         x8,[sp,#0x10]
	add         x8,x8,#0x50
	add         x8,x8,#0x14
	str         w9,[x8]
|$LN21@ChDefaultS|

; 148  : 					(win->info->x + sp->hScrollBar.bar_x + sp->hScrollBar.thumb_width);
; 149  : 			}
; 150  : 
; 151  : 			if ((sp->hScrollBar.thumb_posx <= sp->hScrollBar.bar_x))

	ldr         x8,[sp,#0x10]
	add         x8,x8,#0x50
	add         x10,x8,#0x14
	ldr         x8,[sp,#0x10]
	add         x8,x8,#0x50
	add         x8,x8,#4
	ldr         w9,[x8]
	ldr         w8,[x10]
	cmp         w8,w9
	bgt         |$LN22@ChDefaultS|

; 152  : 				sp->hScrollBar.thumb_posx = 0; // sp->hScrollBar.bar_x;

	ldr         x8,[sp,#0x10]
	add         x8,x8,#0x50
	add         x9,x8,#0x14
	mov         w8,#0
	str         w8,[x9]
|$LN22@ChDefaultS|

; 153  : 
; 154  : 			int maxThumbX = sp->hScrollBar.bar_w - sp->hScrollBar.thumb_width;

	ldr         x8,[sp,#0x10]
	add         x8,x8,#0x50
	add         x9,x8,#0xC
	ldr         x8,[sp,#0x10]
	add         x8,x8,#0x50
	add         x8,x8,#0x1C
	ldr         w9,[x9]
	ldr         w8,[x8]
	sub         w8,w9,w8
	str         w8,[sp,#0x34]

; 155  : 			//double scrollSpeed = ((double)sp->vScrollBar.bar_h / (double)sp->vScrollBar.contentSize) * 3.0;
; 156  : 			//_KePrint("maxTHUMBY -> %d \r\n", maxThumbY);
; 157  : 			int maxScrollOffset = sp->hScrollBar.contentSize - sp->scrollableView->w;

	ldr         x8,[sp,#0x10]
	add         x8,x8,#0x50
	add         x9,x8,#0x48
	ldr         x8,[sp,#0x10]
	add         x8,x8,#0xF8
	ldr         x8,[x8]
	add         x8,x8,#8
	ldr         w9,[x9]
	ldr         w8,[x8]
	sub         w8,w9,w8
	str         w8,[sp,#0x38]

; 158  : 			sp->hScrollBar.scrollOffset = ((double)sp->hScrollBar.thumb_posx / (double)maxThumbX) * (double)maxScrollOffset;

	ldr         x8,[sp,#0x10]
	add         x8,x8,#0x50
	add         x8,x8,#0x14
	ldr         w8,[x8]
	scvtf       d17,w8
	ldr         w8,[sp,#0x34]
	scvtf       d16,w8
	fdiv        d17,d17,d16
	ldr         w8,[sp,#0x38]
	scvtf       d16,w8
	fmul        d16,d17,d16
	ldr         x8,[sp,#0x10]
	add         x8,x8,#0x50
	add         x8,x8,#0x40
	str         d16,[x8]

; 159  : 			_scrolled = true;

	mov         w8,#1
	strb        w8,[sp,#0x20]
|$LN20@ChDefaultS|

; 160  : 		}
; 161  : 
; 162  : 
; 163  : 		if (sp->wid.ChPaintHandler)

	ldr         x8,[sp,#0x10]
	add         x8,x8,#0x40
	ldr         x8,[x8]
	cmp         x8,#0
	beq         |$LN23@ChDefaultS|

; 164  : 			sp->wid.ChPaintHandler((ChWidget*)sp, win);

	ldr         x8,[sp,#0x10]
	add         x8,x8,#0x40
	ldr         x1,[sp,#0x18]
	ldr         x0,[sp,#0x10]
	ldr         x8,[x8]
	blr         x8
|$LN23@ChDefaultS|

; 165  : 
; 166  : 		if (!sp->scrollableView)

	ldr         x8,[sp,#0x10]
	add         x8,x8,#0xF8
	ldr         x8,[x8]
	cmp         x8,#0
	bne         |$LN24@ChDefaultS|

; 167  : 			ChWindowUpdate(win, sp->hScrollBar.bar_x, sp->hScrollBar.bar_y, sp->hScrollBar.bar_w, sp->hScrollBar.bar_h, 0, 1);

	ldr         x8,[sp,#0x10]
	add         x8,x8,#0x50
	add         x11,x8,#0x10
	ldr         x8,[sp,#0x10]
	add         x8,x8,#0x50
	add         x10,x8,#0xC
	ldr         x8,[sp,#0x10]
	add         x8,x8,#0x50
	add         x9,x8,#8
	ldr         x8,[sp,#0x10]
	add         x8,x8,#0x50
	add         x8,x8,#4
	mov         w6,#1
	mov         w5,#0
	ldr         w4,[x11]
	ldr         w3,[x10]
	ldr         w2,[x9]
	ldr         w1,[x8]
	ldr         x0,[sp,#0x18]
	bl          ChWindowUpdate
|$LN24@ChDefaultS|

; 168  : 
; 169  : 		if (_scrolled){

	ldrsb       w8,[sp,#0x20]
	mov         w8,w8
	cmp         w8,#0
	beq         |$LN25@ChDefaultS|

; 170  : 		
; 171  : 			if (sp->scrollableView)

	ldr         x8,[sp,#0x10]
	add         x8,x8,#0xF8
	ldr         x8,[x8]
	cmp         x8,#0
	beq         |$LN26@ChDefaultS|

; 172  : 				sp->scrollableView->ChScrollEvent(sp->scrollableView, win, sp->hScrollBar.thumb_posx, CHITRALEKHA_SCROLL_TYPE_HORIZONTAL);

	ldr         x8,[sp,#0x10]
	add         x8,x8,#0x50
	add         x10,x8,#0x14
	ldr         x8,[sp,#0x10]
	add         x9,x8,#0xF8
	ldr         x8,[sp,#0x10]
	add         x8,x8,#0xF8
	ldr         x8,[x8]
	add         x8,x8,#0x38
	mov         w3,#1
	ldr         w2,[x10]
	ldr         x1,[sp,#0x18]
	ldr         x0,[x9]
	ldr         x8,[x8]
	blr         x8
|$LN26@ChDefaultS|

; 173  : 			/*Process sleep because, slowing down the process little bit,
; 174  : 			 * because freetype frequenctly allocates and frees up memory
; 175  : 			 * which effects the kernel system HeapUnmapProcess due to
; 176  : 			 * heavy speed of scroll, TODO: fix this speed problem
; 177  : 			 * alternative solution is: we can use bitmap fonts for rendering
; 178  : 			 * fast widgets
; 179  : 			 */
; 180  : #ifdef ARCH_X64
; 181  : 			_KeProcessSleep(200);
; 182  : #elif ARCH_ARM64
; 183  : 			_KeProcessSleep(1);

	mov         x0,#1
	bl          _KeProcessSleep
|$LN25@ChDefaultS|
|$LN19@ChDefaultS|

; 184  : #endif
; 185  : 		}
; 186  : 	}
; 187  : 
; 188  : 
; 189  : 	/*
; 190  : 	 * Vertical Scrollbars mouse event 
; 191  : 	 */
; 192  : 	if (x >= (win->info->x + sp->vScrollBar.bar_x + sp->vScrollBar.thumb_posx) &&
; 193  : 		x < (win->info->x + sp->vScrollBar.bar_x + sp->vScrollBar.thumb_posx + sp->vScrollBar.thumb_width) &&
; 194  : 		y >= (win->info->y + sp->vScrollBar.bar_y + sp->vScrollBar.thumb_posy) &&

	ldr         x8,[sp,#0x18]
	add         x8,x8,#0x28
	ldr         x9,[x8]
	mov         x8,#0x1008
	add         x9,x9,x8
	ldr         x8,[sp,#0x10]
	add         x8,x8,#0xA0
	add         x8,x8,#4
	ldr         w9,[x9]
	ldr         w8,[x8]
	add         w9,w9,w8
	ldr         x8,[sp,#0x10]
	add         x8,x8,#0xA0
	add         x8,x8,#0x14
	ldr         w8,[x8]
	add         w9,w9,w8
	ldr         w8,[sp,#0x24]
	cmp         w8,w9
	blt         |$LN27@ChDefaultS|
	ldr         x8,[sp,#0x18]
	add         x8,x8,#0x28
	ldr         x9,[x8]
	mov         x8,#0x1008
	add         x9,x9,x8
	ldr         x8,[sp,#0x10]
	add         x8,x8,#0xA0
	add         x8,x8,#4
	ldr         w9,[x9]
	ldr         w8,[x8]
	add         w9,w9,w8
	ldr         x8,[sp,#0x10]
	add         x8,x8,#0xA0
	add         x8,x8,#0x14
	ldr         w8,[x8]
	add         w9,w9,w8
	ldr         x8,[sp,#0x10]
	add         x8,x8,#0xA0
	add         x8,x8,#0x1C
	ldr         w8,[x8]
	add         w9,w9,w8
	ldr         w8,[sp,#0x24]
	cmp         w8,w9
	bge         |$LN27@ChDefaultS|
	ldr         x8,[sp,#0x18]
	add         x8,x8,#0x28
	ldr         x9,[x8]
	mov         x8,#0x100C
	add         x9,x9,x8
	ldr         x8,[sp,#0x10]
	add         x8,x8,#0xA0
	add         x8,x8,#8
	ldr         w9,[x9]
	ldr         w8,[x8]
	add         w9,w9,w8
	ldr         x8,[sp,#0x10]
	add         x8,x8,#0xA0
	add         x8,x8,#0x18
	ldr         w8,[x8]
	add         w9,w9,w8
	ldr         w8,[sp,#0x28]
	cmp         w8,w9
	blt         |$LN27@ChDefaultS|
	ldr         x8,[sp,#0x18]
	add         x8,x8,#0x28
	ldr         x9,[x8]
	mov         x8,#0x100C
	add         x9,x9,x8
	ldr         x8,[sp,#0x10]
	add         x8,x8,#0xA0
	add         x8,x8,#8
	ldr         w9,[x9]
	ldr         w8,[x8]
	add         w9,w9,w8
	ldr         x8,[sp,#0x10]
	add         x8,x8,#0xA0
	add         x8,x8,#0x18
	ldr         w8,[x8]
	add         w9,w9,w8
	ldr         x8,[sp,#0x10]
	add         x8,x8,#0xA0
	add         x8,x8,#0x20
	ldr         w8,[x8]
	add         w9,w9,w8
	ldr         w8,[sp,#0x28]
	cmp         w8,w9
	bge         |$LN27@ChDefaultS|

; 195  : 		y < (win->info->y + sp->vScrollBar.bar_y + sp->vScrollBar.thumb_posy + sp->vScrollBar.thumb_height)){
; 196  : 		sp->vScrollBar.update = 1;

	ldr         x8,[sp,#0x10]
	add         x8,x8,#0xA0
	add         x9,x8,#1
	mov         w8,#1
	strb        w8,[x9]

; 197  : 		sp->vScrollBar.thumbHover = 1;

	ldr         x8,[sp,#0x10]
	add         x8,x8,#0xA0
	add         x9,x8,#0x34
	mov         w8,#1
	strb        w8,[x9]

; 198  : 		int thumbDragOffset = 0;

	mov         w8,#0
	str         w8,[sp,#0x44]

; 199  : 		bool _scrolled = false;

	mov         w8,#0
	strb        w8,[sp,#0x21]

; 200  : 		bool isDragging = false;

	mov         w8,#0
	strb        w8,[sp,#0x30]

; 201  : 
; 202  : 
; 203  : 		if (button && !((button == DEODHAI_MOUSE_MSG_SCROLL_DOWN) || (button == DEODHAI_MOUSE_MSG_SCROLL_UP)))  {

	ldr         w8,[sp,#0x2C]
	cmp         w8,#0
	beq         |$LN28@ChDefaultS|
	ldr         w8,[sp,#0x2C]
	cmp         w8,#6
	beq         |$LN28@ChDefaultS|
	ldr         w8,[sp,#0x2C]
	cmp         w8,#5
	beq         |$LN28@ChDefaultS|

; 204  : 			sp->vScrollBar.thumb_posy = y - (win->info->y + sp->vScrollBar.bar_y + sp->vScrollBar.thumb_height/2);

	ldr         x8,[sp,#0x18]
	add         x8,x8,#0x28
	ldr         x9,[x8]
	mov         x8,#0x100C
	add         x9,x9,x8
	ldr         x8,[sp,#0x10]
	add         x8,x8,#0xA0
	add         x8,x8,#8
	ldr         w9,[x9]
	ldr         w8,[x8]
	add         w10,w9,w8
	ldr         x8,[sp,#0x10]
	add         x8,x8,#0xA0
	add         x8,x8,#0x20
	ldr         w9,[x8]
	mov         w8,#2
	sdiv        w8,w9,w8
	add         w9,w10,w8
	ldr         w8,[sp,#0x28]
	sub         w9,w8,w9
	ldr         x8,[sp,#0x10]
	add         x8,x8,#0xA0
	add         x8,x8,#0x18
	str         w9,[x8]

; 205  : 
; 206  : 			if ((sp->vScrollBar.bar_y + sp->vScrollBar.thumb_posy + sp->vScrollBar.thumb_height) >= sp->vScrollBar.bar_y + sp->vScrollBar.bar_h){

	ldr         x8,[sp,#0x10]
	add         x8,x8,#0xA0
	add         x9,x8,#8
	ldr         x8,[sp,#0x10]
	add         x8,x8,#0xA0
	add         x8,x8,#0x18
	ldr         w9,[x9]
	ldr         w8,[x8]
	add         w9,w9,w8
	ldr         x8,[sp,#0x10]
	add         x8,x8,#0xA0
	add         x8,x8,#0x20
	ldr         w8,[x8]
	add         w10,w9,w8
	ldr         x8,[sp,#0x10]
	add         x8,x8,#0xA0
	add         x9,x8,#8
	ldr         x8,[sp,#0x10]
	add         x8,x8,#0xA0
	add         x8,x8,#0x10
	ldr         w9,[x9]
	ldr         w8,[x8]
	add         w8,w9,w8
	cmp         w10,w8
	blt         |$LN29@ChDefaultS|

; 207  : 				sp->vScrollBar.thumb_posy = (win->info->y + sp->vScrollBar.bar_y + sp->vScrollBar.bar_h) -

	ldr         x8,[sp,#0x18]
	add         x8,x8,#0x28
	ldr         x9,[x8]
	mov         x8,#0x100C
	add         x9,x9,x8
	ldr         x8,[sp,#0x10]
	add         x8,x8,#0xA0
	add         x8,x8,#8
	ldr         w9,[x9]
	ldr         w8,[x8]
	add         w9,w9,w8
	ldr         x8,[sp,#0x10]
	add         x8,x8,#0xA0
	add         x8,x8,#0x10
	ldr         w8,[x8]
	add         w10,w9,w8
	ldr         x8,[sp,#0x18]
	add         x8,x8,#0x28
	ldr         x9,[x8]
	mov         x8,#0x100C
	add         x9,x9,x8
	ldr         x8,[sp,#0x10]
	add         x8,x8,#0xA0
	add         x8,x8,#8
	ldr         w9,[x9]
	ldr         w8,[x8]
	add         w9,w9,w8
	ldr         x8,[sp,#0x10]
	add         x8,x8,#0xA0
	add         x8,x8,#0x20
	ldr         w8,[x8]
	add         w8,w9,w8
	sub         w9,w10,w8
	ldr         x8,[sp,#0x10]
	add         x8,x8,#0xA0
	add         x8,x8,#0x18
	str         w9,[x8]
|$LN29@ChDefaultS|

; 208  : 					(win->info->y + sp->vScrollBar.bar_y + sp->vScrollBar.thumb_height); //-2;
; 209  : 			}
; 210  : 
; 211  : 			if ( (sp->vScrollBar.bar_y + sp->vScrollBar.thumb_posy) <= sp->vScrollBar.bar_y)

	ldr         x8,[sp,#0x10]
	add         x8,x8,#0xA0
	add         x9,x8,#8
	ldr         x8,[sp,#0x10]
	add         x8,x8,#0xA0
	add         x8,x8,#0x18
	ldr         w9,[x9]
	ldr         w8,[x8]
	add         w9,w9,w8
	ldr         x8,[sp,#0x10]
	add         x8,x8,#0xA0
	add         x8,x8,#8
	ldr         w8,[x8]
	cmp         w9,w8
	bgt         |$LN30@ChDefaultS|

; 212  : 				sp->vScrollBar.thumb_posy = 0;// sp->vScrollBar.bar_y;

	ldr         x8,[sp,#0x10]
	add         x8,x8,#0xA0
	add         x9,x8,#0x18
	mov         w8,#0
	str         w8,[x9]
|$LN30@ChDefaultS|

; 213  : 
; 214  : 			int maxThumbY = sp->vScrollBar.bar_h - sp->vScrollBar.thumb_height;

	ldr         x8,[sp,#0x10]
	add         x8,x8,#0xA0
	add         x9,x8,#0x10
	ldr         x8,[sp,#0x10]
	add         x8,x8,#0xA0
	add         x8,x8,#0x20
	ldr         w9,[x9]
	ldr         w8,[x8]
	sub         w8,w9,w8
	str         w8,[sp,#0x3C]

; 215  : 			//double scrollSpeed = ((double)sp->vScrollBar.bar_h / (double)sp->vScrollBar.contentSize) * 3.0;
; 216  : 			//_KePrint("maxTHUMBY -> %d \r\n", maxThumbY);
; 217  : 			int maxScrollOffset = sp->vScrollBar.contentSize - sp->scrollableView->h;

	ldr         x8,[sp,#0x10]
	add         x8,x8,#0xA0
	add         x9,x8,#0x48
	ldr         x8,[sp,#0x10]
	add         x8,x8,#0xF8
	ldr         x8,[x8]
	add         x8,x8,#0xC
	ldr         w9,[x9]
	ldr         w8,[x8]
	sub         w8,w9,w8
	str         w8,[sp,#0x40]

; 218  : 			sp->vScrollBar.scrollOffset = ((double)sp->vScrollBar.thumb_posy / (double)maxThumbY) * (double)maxScrollOffset;

	ldr         x8,[sp,#0x10]
	add         x8,x8,#0xA0
	add         x8,x8,#0x18
	ldr         w8,[x8]
	scvtf       d17,w8
	ldr         w8,[sp,#0x3C]
	scvtf       d16,w8
	fdiv        d17,d17,d16
	ldr         w8,[sp,#0x40]
	scvtf       d16,w8
	fmul        d16,d17,d16
	ldr         x8,[sp,#0x10]
	add         x8,x8,#0xA0
	add         x8,x8,#0x40
	str         d16,[x8]

; 219  : 			//sp->vScrollBar.scrollOffset *= scrollSpeed;
; 220  : 			_scrolled = true;

	mov         w8,#1
	strb        w8,[sp,#0x21]
|$LN28@ChDefaultS|

; 221  : 		}
; 222  : 
; 223  : 
; 224  : 		if (sp->wid.ChPaintHandler)

	ldr         x8,[sp,#0x10]
	add         x8,x8,#0x40
	ldr         x8,[x8]
	cmp         x8,#0
	beq         |$LN31@ChDefaultS|

; 225  : 			sp->wid.ChPaintHandler((ChWidget*)sp, win);

	ldr         x8,[sp,#0x10]
	add         x8,x8,#0x40
	ldr         x1,[sp,#0x18]
	ldr         x0,[sp,#0x10]
	ldr         x8,[x8]
	blr         x8
|$LN31@ChDefaultS|

; 226  : 
; 227  : 		if (!sp->scrollableView)

	ldr         x8,[sp,#0x10]
	add         x8,x8,#0xF8
	ldr         x8,[x8]
	cmp         x8,#0
	bne         |$LN32@ChDefaultS|

; 228  : 			ChWindowUpdate(win, sp->vScrollBar.bar_x, sp->vScrollBar.bar_y, sp->vScrollBar.bar_w, sp->vScrollBar.bar_h, 0, 1);

	ldr         x8,[sp,#0x10]
	add         x8,x8,#0xA0
	add         x11,x8,#0x10
	ldr         x8,[sp,#0x10]
	add         x8,x8,#0xA0
	add         x10,x8,#0xC
	ldr         x8,[sp,#0x10]
	add         x8,x8,#0xA0
	add         x9,x8,#8
	ldr         x8,[sp,#0x10]
	add         x8,x8,#0xA0
	add         x8,x8,#4
	mov         w6,#1
	mov         w5,#0
	ldr         w4,[x11]
	ldr         w3,[x10]
	ldr         w2,[x9]
	ldr         w1,[x8]
	ldr         x0,[sp,#0x18]
	bl          ChWindowUpdate
|$LN32@ChDefaultS|

; 229  : 
; 230  : 		if (_scrolled) {

	ldrsb       w8,[sp,#0x21]
	mov         w8,w8
	cmp         w8,#0
	beq         |$LN33@ChDefaultS|

; 231  : 			if (sp->scrollableView)

	ldr         x8,[sp,#0x10]
	add         x8,x8,#0xF8
	ldr         x8,[x8]
	cmp         x8,#0
	beq         |$LN34@ChDefaultS|

; 232  : 				sp->scrollableView->ChScrollEvent(sp->scrollableView, win, sp->vScrollBar.thumb_posy, CHITRALEKHA_SCROLL_TYPE_VERTICAL);

	ldr         x8,[sp,#0x10]
	add         x8,x8,#0xA0
	add         x10,x8,#0x18
	ldr         x8,[sp,#0x10]
	add         x9,x8,#0xF8
	ldr         x8,[sp,#0x10]
	add         x8,x8,#0xF8
	ldr         x8,[x8]
	add         x8,x8,#0x38
	mov         w3,#2
	ldr         w2,[x10]
	ldr         x1,[sp,#0x18]
	ldr         x0,[x9]
	ldr         x8,[x8]
	blr         x8
|$LN34@ChDefaultS|

; 233  : 			/*Process sleep because, slowing down the process little bit,
; 234  : 			 * because freetype frequenctly allocates and frees up memory
; 235  : 			 * which effects the kernel system HeapUnmapProcess due to
; 236  : 			 * heavy speed of scroll, TODO: fix this speed problem 
; 237  : 			 * alternative solution : we can use bitmap fonts for
; 238  : 			 * rendering fast widgets
; 239  : 			 */
; 240  : #ifdef ARCH_X64
; 241  : 			_KeProcessSleep(200);
; 242  : #elif ARCH_ARM64
; 243  : 			_KeProcessSleep(1);

	mov         x0,#1
	bl          _KeProcessSleep
|$LN33@ChDefaultS|
|$LN27@ChDefaultS|
	ldp         fp,lr,[sp],#0x50
	ret

	ENDP  ; |?ChDefaultScrollPaneMouseEvent@@YAXPEAU_ChWidget_@@PEAU_chwin_@@HHH@Z|, ChDefaultScrollPaneMouseEvent

; Function compile flags: /Odtp
; File E:\Xeneva Project\Aurora\Libs\Chitralekha\widgets\scrollpane.cpp

	AREA	|.text$mn|, CODE, ARM64

|ChScrollUpdateHorizontalScroll| PROC

; 343  : void ChScrollUpdateHorizontalScroll(ChScrollPane* sp,ChRect* viewport, int contentSz){

|$LN6|
	sub         sp,sp,#0x30
	str         x0,[sp,#8]
	str         x1,[sp,#0x10]
	str         w2,[sp]

; 344  : 	//sp->hScrollBar.thumb_width = viewport->x - viewport->w / contentSz;
; 345  : 
; 346  : 	if (contentSz == 0) {

	ldr         w8,[sp]
	cmp         w8,#0
	bne         |$LN2@ChScrollUp|

; 347  : 		sp->vScrollBar.thumb_height = 0;

	ldr         x8,[sp,#8]
	add         x8,x8,#0xA0
	add         x9,x8,#0x20
	mov         w8,#0
	str         w8,[x9]

; 348  : 		return;

	b           |$LN1@ChScrollUp|
|$LN2@ChScrollUp|

; 349  : 	}
; 350  : 
; 351  : 	if (contentSz < viewport->w) {

	ldr         x8,[sp,#0x10]
	add         x8,x8,#8
	ldr         w9,[x8]
	ldr         w8,[sp]
	cmp         w8,w9
	bge         |$LN3@ChScrollUp|

; 352  : 		sp->hScrollBar.thumb_width = 0;

	ldr         x8,[sp,#8]
	add         x8,x8,#0x50
	add         x9,x8,#0x1C
	mov         w8,#0
	str         w8,[x9]

; 353  : 		return;

	b           |$LN1@ChScrollUp|
|$LN3@ChScrollUp|

; 354  : 	}
; 355  : 
; 356  : 	double range = ((double)contentSz) / (double)viewport->w;

	ldr         w8,[sp]
	scvtf       d17,w8
	ldr         x8,[sp,#0x10]
	add         x8,x8,#8
	ldr         w8,[x8]
	scvtf       d16,w8
	fdiv        d16,d17,d16
	str         d16,[sp,#0x18]

; 357  : 
; 358  : 	//double range = ((viewport->h - viewport->y) / contentSz);
; 359  : 	sp->hScrollBar.scrollAmount = ceil(range);

	ldr         d16,[sp,#0x18]
	frintp      d16,d16
	ldr         x8,[sp,#8]
	add         x8,x8,#0x50
	add         x8,x8,#0x38
	str         d16,[x8]

; 360  : 	double viewableRatio = (double)viewport->w / (double)contentSz;

	ldr         x8,[sp,#0x10]
	add         x8,x8,#8
	ldr         w8,[x8]
	scvtf       d17,w8
	ldr         w8,[sp]
	scvtf       d16,w8
	fdiv        d16,d17,d16
	str         d16,[sp,#0x28]

; 361  : 	double thumbWidth = ((double)viewport->w / (double)contentSz) * sp->hScrollBar.bar_w;//(double)viewport->h * viewableRatio;

	ldr         x8,[sp,#0x10]
	add         x8,x8,#8
	ldr         w8,[x8]
	scvtf       d17,w8
	ldr         w8,[sp]
	scvtf       d16,w8
	fdiv        d17,d17,d16
	ldr         x8,[sp,#8]
	add         x8,x8,#0x50
	add         x8,x8,#0xC
	ldr         w8,[x8]
	scvtf       d16,w8
	fmul        d16,d17,d16
	str         d16,[sp,#0x20]

; 362  : 	sp->hScrollBar.thumb_width = thumbWidth;

	ldr         d16,[sp,#0x20]
	fcvtzs      w9,d16
	ldr         x8,[sp,#8]
	add         x8,x8,#0x50
	add         x8,x8,#0x1C
	str         w9,[x8]

; 363  : 	if (sp->hScrollBar.thumb_width <= 0) {

	ldr         x8,[sp,#8]
	add         x8,x8,#0x50
	add         x8,x8,#0x1C
	ldr         w8,[x8]
	cmp         w8,#0
	bgt         |$LN4@ChScrollUp|

; 364  : 		sp->hScrollBar.thumb_width = 30;

	ldr         x8,[sp,#8]
	add         x8,x8,#0x50
	add         x9,x8,#0x1C
	mov         w8,#0x1E
	str         w8,[x9]
|$LN4@ChScrollUp|

; 365  : 	}
; 366  : 	sp->hScrollBar.contentSize = contentSz;

	ldr         x8,[sp,#8]
	add         x8,x8,#0x50
	add         x9,x8,#0x48
	ldr         w8,[sp]
	str         w8,[x9]
|$LN1@ChScrollUp|
	add         sp,sp,#0x30
	ret

	ENDP  ; |ChScrollUpdateHorizontalScroll|

; Function compile flags: /Odtp
; File E:\Xeneva Project\Aurora\Libs\Chitralekha\widgets\scrollpane.cpp

	AREA	|.text$mn|, CODE, ARM64

|ChScrollUpdateVerticalScroll| PROC

; 312  : void ChScrollUpdateVerticalScroll(ChScrollPane* sp, ChRect* viewport, int contentSz){

|$LN6|
	sub         sp,sp,#0x30
	str         x0,[sp,#8]
	str         x1,[sp,#0x10]
	str         w2,[sp]

; 313  : 
; 314  : 	if (contentSz == 0){

	ldr         w8,[sp]
	cmp         w8,#0
	bne         |$LN2@ChScrollUp|

; 315  : 		sp->vScrollBar.thumb_height = 0;

	ldr         x8,[sp,#8]
	add         x8,x8,#0xA0
	add         x9,x8,#0x20
	mov         w8,#0
	str         w8,[x9]

; 316  : 		return;

	b           |$LN1@ChScrollUp|
|$LN2@ChScrollUp|

; 317  : 	}
; 318  : 
; 319  : 	if (contentSz < (viewport->y + viewport->h)){

	ldr         x8,[sp,#0x10]
	add         x9,x8,#4
	ldr         x8,[sp,#0x10]
	add         x8,x8,#0xC
	ldr         w9,[x9]
	ldr         w8,[x8]
	add         w9,w9,w8
	ldr         w8,[sp]
	cmp         w8,w9
	bge         |$LN3@ChScrollUp|

; 320  : 		sp->vScrollBar.thumb_height = 0;

	ldr         x8,[sp,#8]
	add         x8,x8,#0xA0
	add         x9,x8,#0x20
	mov         w8,#0
	str         w8,[x9]

; 321  : 		return;

	b           |$LN1@ChScrollUp|
|$LN3@ChScrollUp|

; 322  : 	}
; 323  : 	
; 324  : 	double range = ((double)contentSz) / (double)viewport->h ;

	ldr         w8,[sp]
	scvtf       d17,w8
	ldr         x8,[sp,#0x10]
	add         x8,x8,#0xC
	ldr         w8,[x8]
	scvtf       d16,w8
	fdiv        d16,d17,d16
	str         d16,[sp,#0x18]

; 325  : 
; 326  : 	//double range = ((viewport->h - viewport->y) / contentSz);
; 327  : 	sp->vScrollBar.scrollAmount = ceil(range);

	ldr         d16,[sp,#0x18]
	frintp      d16,d16
	ldr         x8,[sp,#8]
	add         x8,x8,#0xA0
	add         x8,x8,#0x38
	str         d16,[x8]

; 328  : 	double viewableRatio = (double)viewport->h / (double)contentSz;

	ldr         x8,[sp,#0x10]
	add         x8,x8,#0xC
	ldr         w8,[x8]
	scvtf       d17,w8
	ldr         w8,[sp]
	scvtf       d16,w8
	fdiv        d16,d17,d16
	str         d16,[sp,#0x28]

; 329  : 	double thumbHeight = ((double)viewport->h / (double)contentSz) * sp->vScrollBar.bar_h;//(double)viewport->h * viewableRatio;

	ldr         x8,[sp,#0x10]
	add         x8,x8,#0xC
	ldr         w8,[x8]
	scvtf       d17,w8
	ldr         w8,[sp]
	scvtf       d16,w8
	fdiv        d17,d17,d16
	ldr         x8,[sp,#8]
	add         x8,x8,#0xA0
	add         x8,x8,#0x10
	ldr         w8,[x8]
	scvtf       d16,w8
	fmul        d16,d17,d16
	str         d16,[sp,#0x20]

; 330  : 	sp->vScrollBar.thumb_height = thumbHeight;

	ldr         d16,[sp,#0x20]
	fcvtzs      w9,d16
	ldr         x8,[sp,#8]
	add         x8,x8,#0xA0
	add         x8,x8,#0x20
	str         w9,[x8]

; 331  : 	if (sp->vScrollBar.thumb_height <= 0){

	ldr         x8,[sp,#8]
	add         x8,x8,#0xA0
	add         x8,x8,#0x20
	ldr         w8,[x8]
	cmp         w8,#0
	bgt         |$LN4@ChScrollUp|

; 332  : 		sp->vScrollBar.thumb_height = 30;

	ldr         x8,[sp,#8]
	add         x8,x8,#0xA0
	add         x9,x8,#0x20
	mov         w8,#0x1E
	str         w8,[x9]
|$LN4@ChScrollUp|

; 333  : 	}
; 334  : 	sp->vScrollBar.contentSize = contentSz;

	ldr         x8,[sp,#8]
	add         x8,x8,#0xA0
	add         x9,x8,#0x48
	ldr         w8,[sp]
	str         w8,[x9]
|$LN1@ChScrollUp|
	add         sp,sp,#0x30
	ret

	ENDP  ; |ChScrollUpdateVerticalScroll|

; Function compile flags: /Odtp
; File E:\Xeneva Project\Aurora\Libs\Chitralekha\widgets\scrollpane.cpp

	AREA	|.text$mn|, CODE, ARM64

|ChCreateScrollPane| PROC

; 266  : ChScrollPane* ChCreateScrollPane(ChWindow* win,int x, int y, int width, int height) {

|$LN6|
	stp         fp,lr,[sp,#-0x40]!
	mov         fp,sp
	str         x0,[sp,#0x28]
	str         w1,[sp,#0x14]
	str         w2,[sp,#0x1C]
	str         w3,[sp,#0x18]
	str         w4,[sp,#0x10]

; 267  : 	ChScrollPane* sp = (ChScrollPane*)malloc(sizeof(ChScrollPane));

	mov         w0,#0x100
	bl          malloc
	str         x0,[sp,#0x20]

; 268  : 	memset(sp, 0, sizeof(ChScrollPane));

	ldr         x10,[sp,#0x20]
	mov         x9,#0
	add         x8,x10,#0x100
|$LN3@ChCreateSc|
	stp         x9,x9,[x10]
	add         x10,x10,#0x10
	cmp         x10,x8
	bne         |$LN3@ChCreateSc|

; 269  : 	sp->wid.ChPaintHandler = ChDefaultScrollPanePainter;

	ldr         x8,[sp,#0x20]
	add         x9,x8,#0x40
	adrp        x8,|?ChDefaultScrollPanePainter@@YAXPEAU_ChWidget_@@PEAU_chwin_@@@Z|
	add         x8,x8,PageOffset(|?ChDefaultScrollPanePainter@@YAXPEAU_ChWidget_@@PEAU_chwin_@@@Z|)
	str         x8,[x9]

; 270  : 	sp->wid.ChMouseEvent = ChDefaultScrollPaneMouseEvent;

	ldr         x8,[sp,#0x20]
	add         x9,x8,#0x28
	adrp        x8,|?ChDefaultScrollPaneMouseEvent@@YAXPEAU_ChWidget_@@PEAU_chwin_@@HHH@Z|
	add         x8,x8,PageOffset(|?ChDefaultScrollPaneMouseEvent@@YAXPEAU_ChWidget_@@PEAU_chwin_@@HHH@Z|)
	str         x8,[x9]

; 271  : 	sp->wid.ChDestroy = ChScrollpaneDestroy;

	ldr         x8,[sp,#0x20]
	add         x9,x8,#0x48
	adrp        x8,|?ChScrollpaneDestroy@@YAXPEAU_ChWidget_@@PEAU_chwin_@@@Z|
	add         x8,x8,PageOffset(|?ChScrollpaneDestroy@@YAXPEAU_ChWidget_@@PEAU_chwin_@@@Z|)
	str         x8,[x9]

; 272  : 	sp->wid.x = x;

	ldr         x9,[sp,#0x20]
	ldr         w8,[sp,#0x14]
	str         w8,[x9]

; 273  : 	sp->wid.y = y;

	ldr         x8,[sp,#0x20]
	add         x9,x8,#4
	ldr         w8,[sp,#0x1C]
	str         w8,[x9]

; 274  : 	sp->wid.w = width;

	ldr         x8,[sp,#0x20]
	add         x9,x8,#8
	ldr         w8,[sp,#0x18]
	str         w8,[x9]

; 275  : 	sp->wid.h = height;

	ldr         x8,[sp,#0x20]
	add         x9,x8,#0xC
	ldr         w8,[sp,#0x10]
	str         w8,[x9]

; 276  : 	sp->hScrollBar.bar_x = x;

	ldr         x8,[sp,#0x20]
	add         x8,x8,#0x50
	add         x9,x8,#4
	ldr         w8,[sp,#0x14]
	str         w8,[x9]

; 277  : 	sp->hScrollBar.bar_y = y + height - SCROLLBAR_SIZE;

	ldr         w9,[sp,#0x1C]
	ldr         w8,[sp,#0x10]
	add         w8,w9,w8
	sub         w9,w8,#0x12
	ldr         x8,[sp,#0x20]
	add         x8,x8,#0x50
	add         x8,x8,#8
	str         w9,[x8]

; 278  : 	sp->hScrollBar.bar_w = width - SCROLLBAR_SIZE;

	ldr         w8,[sp,#0x18]
	sub         w9,w8,#0x12
	ldr         x8,[sp,#0x20]
	add         x8,x8,#0x50
	add         x8,x8,#0xC
	str         w9,[x8]

; 279  : 	sp->hScrollBar.bar_h = SCROLLBAR_SIZE;

	ldr         x8,[sp,#0x20]
	add         x8,x8,#0x50
	add         x9,x8,#0x10
	mov         w8,#0x12
	str         w8,[x9]

; 280  : 	sp->hScrollBar.thumb_posx = 1;

	ldr         x8,[sp,#0x20]
	add         x8,x8,#0x50
	add         x9,x8,#0x14
	mov         w8,#1
	str         w8,[x9]

; 281  : 	sp->hScrollBar.thumb_posy = 2;

	ldr         x8,[sp,#0x20]
	add         x8,x8,#0x50
	add         x9,x8,#0x18
	mov         w8,#2
	str         w8,[x9]

; 282  : 	sp->hScrollBar.thumb_width = 0;

	ldr         x8,[sp,#0x20]
	add         x8,x8,#0x50
	add         x9,x8,#0x1C
	mov         w8,#0
	str         w8,[x9]

; 283  : 	sp->hScrollBar.thumb_height = sp->hScrollBar.bar_h - 4;

	ldr         x8,[sp,#0x20]
	add         x8,x8,#0x50
	add         x8,x8,#0x10
	ldr         w8,[x8]
	sub         w9,w8,#4
	ldr         x8,[sp,#0x20]
	add         x8,x8,#0x50
	add         x8,x8,#0x20
	str         w9,[x8]

; 284  : 	sp->hScrollBar.type = CHITRALEKHA_SCROLL_TYPE_HORIZONTAL;

	ldr         x8,[sp,#0x20]
	add         x9,x8,#0x50
	mov         w8,#1
	strb        w8,[x9]

; 285  : 	sp->hScrollBar.scrollAmount = 1.8;

	ldr         x8,[sp,#0x20]
	add         x8,x8,#0x50
	add         x8,x8,#0x38
	ldr         d16,|$LN5@ChCreateSc|
	str         d16,[x8]

; 286  : 	sp->hScrollBar.scrollOffset = 0;

	ldr         x8,[sp,#0x20]
	add         x8,x8,#0x50
	add         x8,x8,#0x40
	movi        d16,#0
	str         d16,[x8]

; 287  : 	sp->hScrollBar.update = 1;

	ldr         x8,[sp,#0x20]
	add         x8,x8,#0x50
	add         x9,x8,#1
	mov         w8,#1
	strb        w8,[x9]

; 288  : 
; 289  : 	sp->vScrollBar.bar_x = x + width - SCROLLBAR_SIZE;

	ldr         w9,[sp,#0x14]
	ldr         w8,[sp,#0x18]
	add         w8,w9,w8
	sub         w9,w8,#0x12
	ldr         x8,[sp,#0x20]
	add         x8,x8,#0xA0
	add         x8,x8,#4
	str         w9,[x8]

; 290  : 	sp->vScrollBar.bar_y = y;

	ldr         x8,[sp,#0x20]
	add         x8,x8,#0xA0
	add         x9,x8,#8
	ldr         w8,[sp,#0x1C]
	str         w8,[x9]

; 291  : 	sp->vScrollBar.bar_w = SCROLLBAR_SIZE;

	ldr         x8,[sp,#0x20]
	add         x8,x8,#0xA0
	add         x9,x8,#0xC
	mov         w8,#0x12
	str         w8,[x9]

; 292  : 	sp->vScrollBar.bar_h = height - SCROLLBAR_SIZE;

	ldr         w8,[sp,#0x10]
	sub         w9,w8,#0x12
	ldr         x8,[sp,#0x20]
	add         x8,x8,#0xA0
	add         x8,x8,#0x10
	str         w9,[x8]

; 293  : 	sp->vScrollBar.scrollOffset = 0;

	ldr         x8,[sp,#0x20]
	add         x8,x8,#0xA0
	add         x8,x8,#0x40
	movi        d16,#0
	str         d16,[x8]

; 294  : 	double scrollDisplayRange = ((double)height / win->canv->screenHeight);

	ldr         w8,[sp,#0x10]
	scvtf       d17,w8
	ldr         x8,[sp,#0x28]
	add         x8,x8,#0x18
	ldr         x8,[x8]
	add         x8,x8,#8
	ldr         w8,[x8]
	ucvtf       d16,w8
	fdiv        d16,d17,d16
	str         d16,[sp,#0x30]

; 295  : 	sp->vScrollBar.scrollAmount = ceil(scrollDisplayRange);

	ldr         d16,[sp,#0x30]
	frintp      d16,d16
	ldr         x8,[sp,#0x20]
	add         x8,x8,#0xA0
	add         x8,x8,#0x38
	str         d16,[x8]

; 296  : 	sp->vScrollBar.type = CHITRALEKHA_SCROLL_TYPE_VERTICAL;

	ldr         x8,[sp,#0x20]
	add         x9,x8,#0xA0
	mov         w8,#2
	strb        w8,[x9]

; 297  : 	sp->vScrollBar.update = 1;

	ldr         x8,[sp,#0x20]
	add         x8,x8,#0xA0
	add         x9,x8,#1
	mov         w8,#1
	strb        w8,[x9]

; 298  : 	sp->vScrollBar.thumb_posx = 2;

	ldr         x8,[sp,#0x20]
	add         x8,x8,#0xA0
	add         x9,x8,#0x14
	mov         w8,#2
	str         w8,[x9]

; 299  : 	sp->vScrollBar.thumb_posy = 1;

	ldr         x8,[sp,#0x20]
	add         x8,x8,#0xA0
	add         x9,x8,#0x18
	mov         w8,#1
	str         w8,[x9]

; 300  : 	sp->vScrollBar.thumb_width = sp->vScrollBar.bar_w - 4;

	ldr         x8,[sp,#0x20]
	add         x8,x8,#0xA0
	add         x8,x8,#0xC
	ldr         w8,[x8]
	sub         w9,w8,#4
	ldr         x8,[sp,#0x20]
	add         x8,x8,#0xA0
	add         x8,x8,#0x1C
	str         w9,[x8]

; 301  : 	sp->vScrollBar.thumb_height = 0;

	ldr         x8,[sp,#0x20]
	add         x8,x8,#0xA0
	add         x9,x8,#0x20
	mov         w8,#0
	str         w8,[x9]

; 302  : 
; 303  : 	return sp;

	ldr         x0,[sp,#0x20]
	ldp         fp,lr,[sp],#0x40
	ret
	nop
|$LN5@ChCreateSc|
	DCFD         1.8

	ENDP  ; |ChCreateScrollPane|

	END
