; Listing generated by Microsoft (R) Optimizing Compiler Version 19.29.30159.0 

	TTL	C:\Users\paras\source\repos\grep-name\XenevaOS\Libs\Chitralekha\ARM64\Debug\slider.obj
	ARM64

	AREA	|.drectve|, DRECTVE


	AREA	|.rdata|, DATA, READONLY
|$SG5097| DCB	"Slider destroyed ", 0xd, 0xa, 0x0
	EXPORT	|ChCreateSlider|
	EXPORT	|ChSliderSetStepSize|
	EXPORT	|ChSliderGetStepSize|
	EXPORT	|ChSliderGetCurrentValue|
	EXPORT	|ChSliderSetValue|
	EXPORT	|ChSliderSetMax|
	EXPORT	|ChSliderGetMax|
	EXPORT	|ChSliderSetMin|
	EXPORT	|ChSliderGetMin|
	EXPORT	|?ChSliderDestroy@@YAXPEAU_ChWidget_@@PEAU_chwin_@@@Z| ; ChSliderDestroy
	EXPORT	|?ChSliderMouseEvent@@YAXPEAU_ChWidget_@@PEAU_chwin_@@HHH@Z| ; ChSliderMouseEvent
	IMPORT	|_KePrint|
	IMPORT	|malloc|
	IMPORT	|free|
	IMPORT	|ChWindowUpdate|
	IMPORT	|?ChDefaultSliderPainter@@YAXPEAU_ChWidget_@@PEAU_chwin_@@@Z| ; ChDefaultSliderPainter
	IMPORT	|_fltused|

	AREA	|.pdata|, PDATA
|$pdata$ChCreateSlider| DCD imagerel |$LN14|
	DCD	0x1e003a9
	;Flags[SingleProEpi] functionLength[936] RegF[0] RegI[0] H[0] frameChainReturn[Chained] frameSize[48]
|$pdata$ChSliderSetStepSize| DCD imagerel |$LN3|
	DCD	0x800025
	;Flags[SingleProEpi] functionLength[36] RegF[0] RegI[0] H[0] frameChainReturn[UnChained] frameSize[16]
|$pdata$ChSliderGetStepSize| DCD imagerel |$LN3|
	DCD	0x80001d
	;Flags[SingleProEpi] functionLength[28] RegF[0] RegI[0] H[0] frameChainReturn[UnChained] frameSize[16]
|$pdata$ChSliderGetCurrentValue| DCD imagerel |$LN3|
	DCD	0x80001d
	;Flags[SingleProEpi] functionLength[28] RegF[0] RegI[0] H[0] frameChainReturn[UnChained] frameSize[16]
|$pdata$ChSliderSetValue| DCD imagerel |$LN9|
	DCD	0x800149
	;Flags[SingleProEpi] functionLength[328] RegF[0] RegI[0] H[0] frameChainReturn[UnChained] frameSize[16]
|$pdata$ChSliderSetMax| DCD imagerel |$LN3|
	DCD	0x800025
	;Flags[SingleProEpi] functionLength[36] RegF[0] RegI[0] H[0] frameChainReturn[UnChained] frameSize[16]
|$pdata$ChSliderGetMax| DCD imagerel |$LN3|
	DCD	0x80001d
	;Flags[SingleProEpi] functionLength[28] RegF[0] RegI[0] H[0] frameChainReturn[UnChained] frameSize[16]
|$pdata$ChSliderSetMin| DCD imagerel |$LN3|
	DCD	0x80003d
	;Flags[SingleProEpi] functionLength[60] RegF[0] RegI[0] H[0] frameChainReturn[UnChained] frameSize[16]
|$pdata$ChSliderGetMin| DCD imagerel |$LN3|
	DCD	0x80001d
	;Flags[SingleProEpi] functionLength[28] RegF[0] RegI[0] H[0] frameChainReturn[UnChained] frameSize[16]
|$pdata$?ChSliderDestroy@@YAXPEAU_ChWidget_@@PEAU_chwin_@@@Z| DCD imagerel |$LN4|
	DCD	0x1e0005d
	;Flags[SingleProEpi] functionLength[92] RegF[0] RegI[0] H[0] frameChainReturn[Chained] frameSize[48]
|$pdata$?ChSliderMouseEvent@@YAXPEAU_ChWidget_@@PEAU_chwin_@@HHH@Z| DCD imagerel |$LN21|
	DCD	0x260073d
	;Flags[SingleProEpi] functionLength[1852] RegF[0] RegI[0] H[0] frameChainReturn[Chained] frameSize[64]
; Function compile flags: /Odtp
; File C:\Users\paras\source\repos\grep-name\XenevaOS\Libs\Chitralekha\widgets\slider.cpp

	AREA	|.text$mn|, CODE, ARM64

|?ChSliderMouseEvent@@YAXPEAU_ChWidget_@@PEAU_chwin_@@HHH@Z| PROC ; ChSliderMouseEvent

; 47   : void ChSliderMouseEvent(ChWidget* widget, ChWindow* win, int x, int y, int button) {

|$LN21|
	stp         fp,lr,[sp,#-0x40]!
	mov         fp,sp
	str         x0,[sp,#0x30]
	str         x1,[sp,#0x38]
	str         w2,[sp,#0x20]
	str         w3,[sp,#0x18]
	str         w4,[sp,#0x14]

; 48   : 	ChSlider* slider = (ChSlider*)widget;

	ldr         x8,[sp,#0x30]
	str         x8,[sp,#0x28]

; 49   : 	bool actionRequired = false;

	mov         w8,#0
	strb        w8,[sp,#0x10]

; 50   : 	if (button) {

	ldr         w8,[sp,#0x14]
	cmp         w8,#0
	beq         |$LN2@ChSliderMo|

; 51   : 		if (slider->type == CHITRALEKHA_SLIDER_VERTICAL){

	ldr         x8,[sp,#0x28]
	add         x8,x8,#0x94
	ldrb        w8,[x8]
	mov         w8,w8
	cmp         w8,#2
	bne         |$LN3@ChSliderMo|

; 52   : 			slider->thumbY = y - (win->info->y + widget->y + 15 / 2);

	ldr         x8,[sp,#0x38]
	add         x8,x8,#0x28
	ldr         x9,[x8]
	mov         x8,#0x100C
	add         x9,x9,x8
	ldr         x8,[sp,#0x30]
	add         x8,x8,#4
	ldr         w9,[x9]
	ldr         w8,[x8]
	add         w8,w9,w8
	add         w9,w8,#7
	ldr         w8,[sp,#0x18]
	sub         w9,w8,w9
	ldr         x8,[sp,#0x28]
	add         x8,x8,#0x64
	str         w9,[x8]

; 53   : 			if (slider->thumbY <= 0)

	ldr         x8,[sp,#0x28]
	add         x8,x8,#0x64
	ldr         w8,[x8]
	cmp         w8,#0
	bgt         |$LN4@ChSliderMo|

; 54   : 				slider->thumbY = 0;

	ldr         x8,[sp,#0x28]
	add         x9,x8,#0x64
	mov         w8,#0
	str         w8,[x9]
|$LN4@ChSliderMo|

; 55   : 			slider->progressPixel = slider->thumbY;

	ldr         x8,[sp,#0x28]
	add         x10,x8,#0x64
	ldr         x8,[sp,#0x28]
	add         x9,x8,#0x7C
	ldr         w8,[x10]
	str         w8,[x9]

; 56   : 			if (slider->progressPixel == 0)

	ldr         x8,[sp,#0x28]
	add         x8,x8,#0x7C
	ldr         w8,[x8]
	cmp         w8,#0
	bne         |$LN5@ChSliderMo|

; 57   : 				slider->progressPixel = 1;

	ldr         x8,[sp,#0x28]
	add         x9,x8,#0x7C
	mov         w8,#1
	str         w8,[x9]
|$LN5@ChSliderMo|

; 58   : 			
; 59   : 			//! update the current values
; 60   : 			//if (slider->thumbY < slider->lastThumbY) {
; 61   : 			//	slider->currentVal = ((float)slider->thumbY / (float)slider->base.h); //+= slider->stepSize;
; 62   : 			//	/*if (slider->currentVal >= slider->max)
; 63   : 			//		slider->currentVal = slider->max;*/
; 64   : 			//}else if (slider->lastThumbY < slider->thumbY) {
; 65   : 			//	slider->currentVal -= slider->stepSize;
; 66   : 			//	if (slider->currentVal <= slider->min)
; 67   : 			//		slider->currentVal = slider->min;
; 68   : 			//}
; 69   : 			float ratio = 1.0f - ((float)slider->thumbY / (float)slider->base.h);

	ldr         x8,[sp,#0x28]
	add         x8,x8,#0x64
	ldr         w8,[x8]
	scvtf       s17,w8
	ldr         x8,[sp,#0x28]
	add         x8,x8,#0xC
	ldr         w8,[x8]
	scvtf       s16,w8
	fdiv        s17,s17,s16
	fmov        s16,#1
	fsub        s16,s16,s17
	str         s16,[sp,#0x1C]

; 70   : 			slider->currentVal = slider->min + ratio * (slider->max - slider->min);

	ldr         x8,[sp,#0x28]
	add         x10,x8,#0x74
	ldr         x8,[sp,#0x28]
	add         x9,x8,#0x70
	ldr         x8,[sp,#0x28]
	add         x8,x8,#0x74
	ldr         s17,[x9]
	ldr         s16,[x8]
	fsub        s17,s17,s16
	ldr         s16,[sp,#0x1C]
	fmul        s17,s16,s17
	ldr         s16,[x10]
	fadd        s16,s16,s17
	ldr         x8,[sp,#0x28]
	add         x8,x8,#0x78
	str         s16,[x8]

; 71   : 
; 72   : 			if ((win->info->y + widget->y + slider->thumbY) <= (win->info->y + widget->y))

	ldr         x8,[sp,#0x38]
	add         x8,x8,#0x28
	ldr         x9,[x8]
	mov         x8,#0x100C
	add         x9,x9,x8
	ldr         x8,[sp,#0x30]
	add         x8,x8,#4
	ldr         w9,[x9]
	ldr         w8,[x8]
	add         w9,w9,w8
	ldr         x8,[sp,#0x28]
	add         x8,x8,#0x64
	ldr         w8,[x8]
	add         w10,w9,w8
	ldr         x8,[sp,#0x38]
	add         x8,x8,#0x28
	ldr         x9,[x8]
	mov         x8,#0x100C
	add         x9,x9,x8
	ldr         x8,[sp,#0x30]
	add         x8,x8,#4
	ldr         w9,[x9]
	ldr         w8,[x8]
	add         w8,w9,w8
	cmp         w10,w8
	bgt         |$LN6@ChSliderMo|

; 73   : 				slider->thumbY = 0;

	ldr         x8,[sp,#0x28]
	add         x9,x8,#0x64
	mov         w8,#0
	str         w8,[x9]
|$LN6@ChSliderMo|

; 74   : 			
; 75   : 
; 76   : 			if ((win->info->y + widget->y + slider->thumbY + 15) >= (win->info->y + widget->y + widget->h)){

	ldr         x8,[sp,#0x38]
	add         x8,x8,#0x28
	ldr         x9,[x8]
	mov         x8,#0x100C
	add         x9,x9,x8
	ldr         x8,[sp,#0x30]
	add         x8,x8,#4
	ldr         w9,[x9]
	ldr         w8,[x8]
	add         w9,w9,w8
	ldr         x8,[sp,#0x28]
	add         x8,x8,#0x64
	ldr         w8,[x8]
	add         w8,w9,w8
	add         w10,w8,#0xF
	ldr         x8,[sp,#0x38]
	add         x8,x8,#0x28
	ldr         x9,[x8]
	mov         x8,#0x100C
	add         x9,x9,x8
	ldr         x8,[sp,#0x30]
	add         x8,x8,#4
	ldr         w9,[x9]
	ldr         w8,[x8]
	add         w9,w9,w8
	ldr         x8,[sp,#0x30]
	add         x8,x8,#0xC
	ldr         w8,[x8]
	add         w8,w9,w8
	cmp         w10,w8
	blt         |$LN7@ChSliderMo|

; 77   : 				slider->thumbY = (win->info->y + widget->y + widget->h) - (win->info->y + widget->y + 15);

	ldr         x8,[sp,#0x38]
	add         x8,x8,#0x28
	ldr         x9,[x8]
	mov         x8,#0x100C
	add         x9,x9,x8
	ldr         x8,[sp,#0x30]
	add         x8,x8,#4
	ldr         w9,[x9]
	ldr         w8,[x8]
	add         w9,w9,w8
	ldr         x8,[sp,#0x30]
	add         x8,x8,#0xC
	ldr         w8,[x8]
	add         w10,w9,w8
	ldr         x8,[sp,#0x38]
	add         x8,x8,#0x28
	ldr         x9,[x8]
	mov         x8,#0x100C
	add         x9,x9,x8
	ldr         x8,[sp,#0x30]
	add         x8,x8,#4
	ldr         w9,[x9]
	ldr         w8,[x8]
	add         w8,w9,w8
	add         w8,w8,#0xF
	sub         w9,w10,w8
	ldr         x8,[sp,#0x28]
	add         x8,x8,#0x64
	str         w9,[x8]

; 78   : 				slider->progressPixel = 0;

	ldr         x8,[sp,#0x28]
	add         x9,x8,#0x7C
	mov         w8,#0
	str         w8,[x9]
|$LN7@ChSliderMo|

; 79   : 			}
; 80   : 
; 81   : 			slider->lastThumbY = slider->thumbY;

	ldr         x8,[sp,#0x28]
	add         x10,x8,#0x64
	ldr         x8,[sp,#0x28]
	add         x9,x8,#0x6C
	ldr         w8,[x10]
	str         w8,[x9]

; 82   : 			if (slider->base.ChPaintHandler)

	ldr         x8,[sp,#0x28]
	add         x8,x8,#0x40
	ldr         x8,[x8]
	cmp         x8,#0
	beq         |$LN8@ChSliderMo|

; 83   : 				slider->base.ChPaintHandler((ChWidget*)slider, win);

	ldr         x8,[sp,#0x28]
	add         x8,x8,#0x40
	ldr         x1,[sp,#0x38]
	ldr         x0,[sp,#0x28]
	ldr         x8,[x8]
	blr         x8
|$LN8@ChSliderMo|

; 84   : 			ChWindowUpdate(win, slider->bound.x, slider->bound.y, slider->bound.w, slider->bound.h, 0, 1);

	ldr         x8,[sp,#0x28]
	add         x8,x8,#0x50
	add         x11,x8,#0xC
	ldr         x8,[sp,#0x28]
	add         x8,x8,#0x50
	add         x10,x8,#8
	ldr         x8,[sp,#0x28]
	add         x8,x8,#0x50
	add         x9,x8,#4
	ldr         x8,[sp,#0x28]
	add         x8,x8,#0x50
	mov         w6,#1
	mov         w5,#0
	ldr         w4,[x11]
	ldr         w3,[x10]
	ldr         w2,[x9]
	ldr         w1,[x8]
	ldr         x0,[sp,#0x38]
	bl          ChWindowUpdate

; 85   : 
; 86   : 			win->focusedWidget = widget;

	ldr         x8,[sp,#0x38]
	add         x9,x8,#0x80
	ldr         x8,[sp,#0x30]
	str         x8,[x9]

; 87   : 			actionRequired = true;

	mov         w8,#1
	strb        w8,[sp,#0x10]
|$LN3@ChSliderMo|

; 88   : 		}
; 89   : 
; 90   : 		if (slider->type == CHITRALEKHA_SLIDER_HORIZONTAL) {

	ldr         x8,[sp,#0x28]
	add         x8,x8,#0x94
	ldrb        w8,[x8]
	mov         w8,w8
	cmp         w8,#1
	bne         |$LN9@ChSliderMo|

; 91   : 			slider->thumbX = x - (win->info->x + widget->x + 15 / 2);

	ldr         x8,[sp,#0x38]
	add         x8,x8,#0x28
	ldr         x9,[x8]
	mov         x8,#0x1008
	add         x9,x9,x8
	ldr         x8,[sp,#0x30]
	ldr         w9,[x9]
	ldr         w8,[x8]
	add         w8,w9,w8
	add         w9,w8,#7
	ldr         w8,[sp,#0x20]
	sub         w9,w8,w9
	ldr         x8,[sp,#0x28]
	add         x8,x8,#0x60
	str         w9,[x8]

; 92   : 			slider->progressPixel = slider->thumbX;

	ldr         x8,[sp,#0x28]
	add         x10,x8,#0x60
	ldr         x8,[sp,#0x28]
	add         x9,x8,#0x7C
	ldr         w8,[x10]
	str         w8,[x9]

; 93   : 
; 94   : 			if (slider->thumbX > slider->lastThumbX){

	ldr         x8,[sp,#0x28]
	add         x10,x8,#0x60
	ldr         x8,[sp,#0x28]
	add         x8,x8,#0x68
	ldr         w9,[x8]
	ldr         w8,[x10]
	cmp         w8,w9
	ble         |$LN10@ChSliderMo|

; 95   : 				slider->currentVal += slider->stepSize;

	ldr         x8,[sp,#0x28]
	add         x9,x8,#0x78
	ldr         x8,[sp,#0x28]
	add         x8,x8,#0x80
	ldr         s17,[x9]
	ldr         s16,[x8]
	fadd        s16,s17,s16
	ldr         x8,[sp,#0x28]
	add         x8,x8,#0x78
	str         s16,[x8]

; 96   : 				if (slider->currentVal >= slider->max)

	ldr         x8,[sp,#0x28]
	add         x9,x8,#0x78
	ldr         x8,[sp,#0x28]
	add         x8,x8,#0x70
	ldr         s17,[x8]
	ldr         s16,[x9]
	fcmpe       s16,s17
	blt         |$LN12@ChSliderMo|

; 97   : 					slider->currentVal = slider->max;

	ldr         x8,[sp,#0x28]
	add         x9,x8,#0x70
	ldr         x8,[sp,#0x28]
	add         x8,x8,#0x78
	ldr         s16,[x9]
	str         s16,[x8]
|$LN12@ChSliderMo|

; 98   : 			}

	b           |$LN11@ChSliderMo|
|$LN10@ChSliderMo|

; 99   : 			else if (slider->lastThumbX > slider->thumbX){

	ldr         x8,[sp,#0x28]
	add         x10,x8,#0x68
	ldr         x8,[sp,#0x28]
	add         x8,x8,#0x60
	ldr         w9,[x8]
	ldr         w8,[x10]
	cmp         w8,w9
	ble         |$LN13@ChSliderMo|

; 100  : 				slider->currentVal -= slider->stepSize;

	ldr         x8,[sp,#0x28]
	add         x9,x8,#0x78
	ldr         x8,[sp,#0x28]
	add         x8,x8,#0x80
	ldr         s17,[x9]
	ldr         s16,[x8]
	fsub        s16,s17,s16
	ldr         x8,[sp,#0x28]
	add         x8,x8,#0x78
	str         s16,[x8]

; 101  : 				if (slider->currentVal <= slider->min)

	ldr         x8,[sp,#0x28]
	add         x9,x8,#0x78
	ldr         x8,[sp,#0x28]
	add         x8,x8,#0x74
	ldr         s17,[x8]
	ldr         s16,[x9]
	fcmpe       s16,s17
	bhi         |$LN14@ChSliderMo|

; 102  : 					slider->currentVal = slider->min;

	ldr         x8,[sp,#0x28]
	add         x9,x8,#0x74
	ldr         x8,[sp,#0x28]
	add         x8,x8,#0x78
	ldr         s16,[x9]
	str         s16,[x8]
|$LN14@ChSliderMo|
|$LN13@ChSliderMo|
|$LN11@ChSliderMo|

; 103  : 			}
; 104  : 
; 105  : 			if ((win->info->x + widget->x + slider->thumbX) <= (win->info->x + widget->x)){

	ldr         x8,[sp,#0x38]
	add         x8,x8,#0x28
	ldr         x9,[x8]
	mov         x8,#0x1008
	add         x9,x9,x8
	ldr         x8,[sp,#0x30]
	ldr         w9,[x9]
	ldr         w8,[x8]
	add         w9,w9,w8
	ldr         x8,[sp,#0x28]
	add         x8,x8,#0x60
	ldr         w8,[x8]
	add         w10,w9,w8
	ldr         x8,[sp,#0x38]
	add         x8,x8,#0x28
	ldr         x9,[x8]
	mov         x8,#0x1008
	add         x9,x9,x8
	ldr         x8,[sp,#0x30]
	ldr         w9,[x9]
	ldr         w8,[x8]
	add         w8,w9,w8
	cmp         w10,w8
	bgt         |$LN15@ChSliderMo|

; 106  : 				slider->thumbX = 0;

	ldr         x8,[sp,#0x28]
	add         x9,x8,#0x60
	mov         w8,#0
	str         w8,[x9]

; 107  : 				slider->progressPixel = 0;

	ldr         x8,[sp,#0x28]
	add         x9,x8,#0x7C
	mov         w8,#0
	str         w8,[x9]
|$LN15@ChSliderMo|

; 108  : 			}
; 109  : 
; 110  : 			if ((win->info->x + widget->x + slider->thumbX + 15) >= (win->info->x + widget->x + widget->w)){

	ldr         x8,[sp,#0x38]
	add         x8,x8,#0x28
	ldr         x9,[x8]
	mov         x8,#0x1008
	add         x9,x9,x8
	ldr         x8,[sp,#0x30]
	ldr         w9,[x9]
	ldr         w8,[x8]
	add         w9,w9,w8
	ldr         x8,[sp,#0x28]
	add         x8,x8,#0x60
	ldr         w8,[x8]
	add         w8,w9,w8
	add         w10,w8,#0xF
	ldr         x8,[sp,#0x38]
	add         x8,x8,#0x28
	ldr         x9,[x8]
	mov         x8,#0x1008
	add         x9,x9,x8
	ldr         x8,[sp,#0x30]
	ldr         w9,[x9]
	ldr         w8,[x8]
	add         w9,w9,w8
	ldr         x8,[sp,#0x30]
	add         x8,x8,#8
	ldr         w8,[x8]
	add         w8,w9,w8
	cmp         w10,w8
	blt         |$LN16@ChSliderMo|

; 111  : 				slider->thumbX = (win->info->x + widget->x + widget->w) - (win->info->x + widget->x + 15);

	ldr         x8,[sp,#0x38]
	add         x8,x8,#0x28
	ldr         x9,[x8]
	mov         x8,#0x1008
	add         x9,x9,x8
	ldr         x8,[sp,#0x30]
	ldr         w9,[x9]
	ldr         w8,[x8]
	add         w9,w9,w8
	ldr         x8,[sp,#0x30]
	add         x8,x8,#8
	ldr         w8,[x8]
	add         w10,w9,w8
	ldr         x8,[sp,#0x38]
	add         x8,x8,#0x28
	ldr         x9,[x8]
	mov         x8,#0x1008
	add         x9,x9,x8
	ldr         x8,[sp,#0x30]
	ldr         w9,[x9]
	ldr         w8,[x8]
	add         w8,w9,w8
	add         w8,w8,#0xF
	sub         w9,w10,w8
	ldr         x8,[sp,#0x28]
	add         x8,x8,#0x60
	str         w9,[x8]
|$LN16@ChSliderMo|

; 112  : 			}
; 113  : 
; 114  : 			slider->lastThumbX = slider->thumbX;

	ldr         x8,[sp,#0x28]
	add         x10,x8,#0x60
	ldr         x8,[sp,#0x28]
	add         x9,x8,#0x68
	ldr         w8,[x10]
	str         w8,[x9]

; 115  : 			if (slider->base.ChPaintHandler)

	ldr         x8,[sp,#0x28]
	add         x8,x8,#0x40
	ldr         x8,[x8]
	cmp         x8,#0
	beq         |$LN17@ChSliderMo|

; 116  : 				slider->base.ChPaintHandler((ChWidget*)slider, win);

	ldr         x8,[sp,#0x28]
	add         x8,x8,#0x40
	ldr         x1,[sp,#0x38]
	ldr         x0,[sp,#0x28]
	ldr         x8,[x8]
	blr         x8
|$LN17@ChSliderMo|

; 117  : 			ChWindowUpdate(win, slider->bound.x, slider->bound.y, slider->bound.w, slider->bound.h, 0, 1);

	ldr         x8,[sp,#0x28]
	add         x8,x8,#0x50
	add         x11,x8,#0xC
	ldr         x8,[sp,#0x28]
	add         x8,x8,#0x50
	add         x10,x8,#8
	ldr         x8,[sp,#0x28]
	add         x8,x8,#0x50
	add         x9,x8,#4
	ldr         x8,[sp,#0x28]
	add         x8,x8,#0x50
	mov         w6,#1
	mov         w5,#0
	ldr         w4,[x11]
	ldr         w3,[x10]
	ldr         w2,[x9]
	ldr         w1,[x8]
	ldr         x0,[sp,#0x38]
	bl          ChWindowUpdate

; 118  : 			win->focusedWidget = widget;

	ldr         x8,[sp,#0x38]
	add         x9,x8,#0x80
	ldr         x8,[sp,#0x30]
	str         x8,[x9]

; 119  : 			actionRequired = true;

	mov         w8,#1
	strb        w8,[sp,#0x10]
|$LN9@ChSliderMo|
|$LN2@ChSliderMo|

; 120  : 		}
; 121  : 	}
; 122  : 
; 123  : 	/* call the action handler for required action */
; 124  : 	if (actionRequired) {

	ldrsb       w8,[sp,#0x10]
	mov         w8,w8
	cmp         w8,#0
	beq         |$LN18@ChSliderMo|

; 125  : 		if (widget->ChActionHandler)

	ldr         x8,[sp,#0x30]
	add         x8,x8,#0x20
	ldr         x8,[x8]
	cmp         x8,#0
	beq         |$LN19@ChSliderMo|

; 126  : 			widget->ChActionHandler(widget, win);

	ldr         x8,[sp,#0x30]
	add         x8,x8,#0x20
	ldr         x1,[sp,#0x38]
	ldr         x0,[sp,#0x30]
	ldr         x8,[x8]
	blr         x8
|$LN19@ChSliderMo|
|$LN18@ChSliderMo|
	ldp         fp,lr,[sp],#0x40
	ret

	ENDP  ; |?ChSliderMouseEvent@@YAXPEAU_ChWidget_@@PEAU_chwin_@@HHH@Z|, ChSliderMouseEvent

; Function compile flags: /Odtp
; File C:\Users\paras\source\repos\grep-name\XenevaOS\Libs\Chitralekha\widgets\slider.cpp

	AREA	|.text$mn|, CODE, ARM64

|?ChSliderDestroy@@YAXPEAU_ChWidget_@@PEAU_chwin_@@@Z| PROC ; ChSliderDestroy

; 36   : void ChSliderDestroy(ChWidget* widget, ChWindow* win) {

|$LN4|
	stp         fp,lr,[sp,#-0x30]!
	mov         fp,sp
	str         x0,[sp,#0x10]
	str         x1,[sp,#0x18]

; 37   : 	ChSlider *slider = (ChSlider*)widget;

	ldr         x8,[sp,#0x10]
	str         x8,[sp,#0x20]

; 38   : 	if (win->focusedWidget == widget)

	ldr         x8,[sp,#0x18]
	add         x8,x8,#0x80
	ldr         x9,[sp,#0x10]
	ldr         x8,[x8]
	cmp         x8,x9
	bne         |$LN2@ChSliderDe|

; 39   : 		win->focusedWidget = NULL;

	ldr         x8,[sp,#0x18]
	add         x9,x8,#0x80
	mov         x8,#0
	str         x8,[x9]
|$LN2@ChSliderDe|

; 40   : 	free(slider);

	ldr         x0,[sp,#0x20]
	bl          free

; 41   : 	_KePrint("Slider destroyed \r\n");

	adrp        x8,|$SG5097|
	add         x0,x8,PageOffset(|$SG5097|)
	bl          _KePrint
	ldp         fp,lr,[sp],#0x30
	ret

	ENDP  ; |?ChSliderDestroy@@YAXPEAU_ChWidget_@@PEAU_chwin_@@@Z|, ChSliderDestroy

; Function compile flags: /Odtp
; File C:\Users\paras\source\repos\grep-name\XenevaOS\Libs\Chitralekha\widgets\slider.cpp

	AREA	|.text$mn|, CODE, ARM64

|ChSliderGetMin| PROC

; 273  : float ChSliderGetMin(ChSlider* slider) {

|$LN3|
	sub         sp,sp,#0x10
	str         x0,[sp]

; 274  : 	return slider->min;

	ldr         x8,[sp]
	add         x8,x8,#0x74
	ldr         s0,[x8]
	add         sp,sp,#0x10
	ret

	ENDP  ; |ChSliderGetMin|

; Function compile flags: /Odtp
; File C:\Users\paras\source\repos\grep-name\XenevaOS\Libs\Chitralekha\widgets\slider.cpp

	AREA	|.text$mn|, CODE, ARM64

|ChSliderSetMin| PROC

; 263  : void ChSliderSetMin(ChSlider* slider, float min) {

|$LN3|
	sub         sp,sp,#0x10
	str         x0,[sp,#8]
	str         s0,[sp]

; 264  : 	slider->min = min;

	ldr         x8,[sp,#8]
	add         x8,x8,#0x74
	ldr         s16,[sp]
	str         s16,[x8]

; 265  : 	slider->currentVal = slider->min;

	ldr         x8,[sp,#8]
	add         x9,x8,#0x74
	ldr         x8,[sp,#8]
	add         x8,x8,#0x78
	ldr         s16,[x9]
	str         s16,[x8]
	add         sp,sp,#0x10
	ret

	ENDP  ; |ChSliderSetMin|

; Function compile flags: /Odtp
; File C:\Users\paras\source\repos\grep-name\XenevaOS\Libs\Chitralekha\widgets\slider.cpp

	AREA	|.text$mn|, CODE, ARM64

|ChSliderGetMax| PROC

; 253  : float ChSliderGetMax(ChSlider* slider){

|$LN3|
	sub         sp,sp,#0x10
	str         x0,[sp]

; 254  : 	return slider->max;

	ldr         x8,[sp]
	add         x8,x8,#0x70
	ldr         s0,[x8]
	add         sp,sp,#0x10
	ret

	ENDP  ; |ChSliderGetMax|

; Function compile flags: /Odtp
; File C:\Users\paras\source\repos\grep-name\XenevaOS\Libs\Chitralekha\widgets\slider.cpp

	AREA	|.text$mn|, CODE, ARM64

|ChSliderSetMax| PROC

; 245  : void ChSliderSetMax(ChSlider* slider, float max) {

|$LN3|
	sub         sp,sp,#0x10
	str         x0,[sp,#8]
	str         s0,[sp]

; 246  : 	slider->max = max;

	ldr         x8,[sp,#8]
	add         x8,x8,#0x70
	ldr         s16,[sp]
	str         s16,[x8]
	add         sp,sp,#0x10
	ret

	ENDP  ; |ChSliderSetMax|

; Function compile flags: /Odtp
; File C:\Users\paras\source\repos\grep-name\XenevaOS\Libs\Chitralekha\widgets\slider.cpp

	AREA	|.text$mn|, CODE, ARM64

|ChSliderSetValue| PROC

; 222  : void ChSliderSetValue(ChSlider* slider, float value) {

|$LN9|
	sub         sp,sp,#0x10
	str         x0,[sp,#8]
	str         s0,[sp,#4]

; 223  : 	slider->currentVal = value * slider->stepSize;

	ldr         x8,[sp,#8]
	add         x8,x8,#0x80
	ldr         s17,[sp,#4]
	ldr         s16,[x8]
	fmul        s16,s17,s16
	ldr         x8,[sp,#8]
	add         x8,x8,#0x78
	str         s16,[x8]

; 224  : 	if (slider->currentVal > slider->max)

	ldr         x8,[sp,#8]
	add         x9,x8,#0x78
	ldr         x8,[sp,#8]
	add         x8,x8,#0x70
	ldr         s17,[x8]
	ldr         s16,[x9]
	fcmpe       s16,s17
	ble         |$LN4@ChSliderSe|

; 225  : 		slider->currentVal = slider->max;

	ldr         x8,[sp,#8]
	add         x9,x8,#0x70
	ldr         x8,[sp,#8]
	add         x8,x8,#0x78
	ldr         s16,[x9]
	str         s16,[x8]
|$LN4@ChSliderSe|

; 226  : 	if (slider->currentVal < slider->min)

	ldr         x8,[sp,#8]
	add         x9,x8,#0x78
	ldr         x8,[sp,#8]
	add         x8,x8,#0x74
	ldr         s17,[x8]
	ldr         s16,[x9]
	fcmpe       s16,s17
	bhs         |$LN5@ChSliderSe|

; 227  : 		slider->currentVal = slider->min;

	ldr         x8,[sp,#8]
	add         x9,x8,#0x74
	ldr         x8,[sp,#8]
	add         x8,x8,#0x78
	ldr         s16,[x9]
	str         s16,[x8]
|$LN5@ChSliderSe|

; 228  : 	switch (slider->type) {

	ldr         x8,[sp,#8]
	add         x8,x8,#0x94
	ldrb        w8,[x8]
	mov         w8,w8
	str         w8,[sp]
	ldr         w8,[sp]
	cmp         w8,#1
	beq         |$LN7@ChSliderSe|
	ldr         w8,[sp]
	cmp         w8,#2
	beq         |$LN6@ChSliderSe|
	b           |$LN2@ChSliderSe|
|$LN6@ChSliderSe|

; 229  : 	case CHITRALEKHA_SLIDER_VERTICAL:
; 230  : 		slider->progressPixel = (int)slider->currentVal;

	ldr         x8,[sp,#8]
	add         x8,x8,#0x78
	ldr         s16,[x8]
	fcvtzs      w9,s16
	ldr         x8,[sp,#8]
	add         x8,x8,#0x7C
	str         w9,[x8]

; 231  : 		slider->thumbY = slider->progressPixel - 15;

	ldr         x8,[sp,#8]
	add         x8,x8,#0x7C
	ldr         w8,[x8]
	sub         w9,w8,#0xF
	ldr         x8,[sp,#8]
	add         x8,x8,#0x64
	str         w9,[x8]

; 232  : 		break;

	b           |$LN2@ChSliderSe|
|$LN7@ChSliderSe|

; 233  : 	case CHITRALEKHA_SLIDER_HORIZONTAL:
; 234  : 		slider->progressPixel = (int)slider->currentVal;

	ldr         x8,[sp,#8]
	add         x8,x8,#0x78
	ldr         s16,[x8]
	fcvtzs      w9,s16
	ldr         x8,[sp,#8]
	add         x8,x8,#0x7C
	str         w9,[x8]

; 235  : 		slider->thumbX = slider->progressPixel - 15;

	ldr         x8,[sp,#8]
	add         x8,x8,#0x7C
	ldr         w8,[x8]
	sub         w9,w8,#0xF
	ldr         x8,[sp,#8]
	add         x8,x8,#0x60
	str         w9,[x8]
|$LN2@ChSliderSe|
	add         sp,sp,#0x10
	ret

	ENDP  ; |ChSliderSetValue|

; Function compile flags: /Odtp
; File C:\Users\paras\source\repos\grep-name\XenevaOS\Libs\Chitralekha\widgets\slider.cpp

	AREA	|.text$mn|, CODE, ARM64

|ChSliderGetCurrentValue| PROC

; 212  : float ChSliderGetCurrentValue(ChSlider* slider) {

|$LN3|
	sub         sp,sp,#0x10
	str         x0,[sp]

; 213  : 	return slider->currentVal;

	ldr         x8,[sp]
	add         x8,x8,#0x78
	ldr         s0,[x8]
	add         sp,sp,#0x10
	ret

	ENDP  ; |ChSliderGetCurrentValue|

; Function compile flags: /Odtp
; File C:\Users\paras\source\repos\grep-name\XenevaOS\Libs\Chitralekha\widgets\slider.cpp

	AREA	|.text$mn|, CODE, ARM64

|ChSliderGetStepSize| PROC

; 203  : float ChSliderGetStepSize(ChSlider* slider) {

|$LN3|
	sub         sp,sp,#0x10
	str         x0,[sp]

; 204  : 	return slider->stepSize;

	ldr         x8,[sp]
	add         x8,x8,#0x80
	ldr         s0,[x8]
	add         sp,sp,#0x10
	ret

	ENDP  ; |ChSliderGetStepSize|

; Function compile flags: /Odtp
; File C:\Users\paras\source\repos\grep-name\XenevaOS\Libs\Chitralekha\widgets\slider.cpp

	AREA	|.text$mn|, CODE, ARM64

|ChSliderSetStepSize| PROC

; 194  : void ChSliderSetStepSize(ChSlider* slider, float stepSz){

|$LN3|
	sub         sp,sp,#0x10
	str         x0,[sp,#8]
	str         s0,[sp]

; 195  : 	slider->stepSize = stepSz;

	ldr         x8,[sp,#8]
	add         x8,x8,#0x80
	ldr         s16,[sp]
	str         s16,[x8]
	add         sp,sp,#0x10
	ret

	ENDP  ; |ChSliderSetStepSize|

; Function compile flags: /Odtp
; File C:\Users\paras\source\repos\grep-name\XenevaOS\Libs\Chitralekha\widgets\slider.cpp

	AREA	|.text$mn|, CODE, ARM64

|ChCreateSlider| PROC

; 134  : ChSlider *ChCreateSlider(uint8_t sliderType, int x, int y, int length) {

|$LN14|
	stp         fp,lr,[sp,#-0x30]!
	mov         fp,sp
	uxtb        w8,w0
	strb        w8,[sp,#0x10]
	str         w1,[sp,#0x1C]
	str         w2,[sp,#0x20]
	str         w3,[sp,#0x18]

; 135  : 	ChSlider* slider = (ChSlider*)malloc(sizeof(ChSlider));

	mov         w0,#0x98
	bl          malloc
	str         x0,[sp,#0x28]

; 136  : 	memset(slider, 0, sizeof(ChSlider));

	ldr         x10,[sp,#0x28]
	mov         x9,#0
	add         x8,x10,#0x90
|$LN11@ChCreateSl|
	stp         x9,x9,[x10]
	add         x10,x10,#0x10
	cmp         x10,x8
	bne         |$LN11@ChCreateSl|
	str         x9,[x10]

; 137  : 	slider->base.x = x;

	ldr         x9,[sp,#0x28]
	ldr         w8,[sp,#0x1C]
	str         w8,[x9]

; 138  : 	slider->base.y = 26 + y;

	ldr         w8,[sp,#0x20]
	add         w9,w8,#0x1A
	ldr         x8,[sp,#0x28]
	add         x8,x8,#4
	str         w9,[x8]

; 139  : 	slider->thumbVisible = true;

	ldr         x8,[sp,#0x28]
	add         x9,x8,#0x84
	mov         w8,#1
	strb        w8,[x9]

; 140  : 	slider->useCustomColor = 0;

	ldr         x8,[sp,#0x28]
	add         x9,x8,#0x85
	mov         w8,#0
	strb        w8,[x9]

; 141  : 	switch (sliderType){

	ldrb        w8,[sp,#0x10]
	mov         w8,w8
	str         w8,[sp,#0x14]
	ldr         w8,[sp,#0x14]
	cmp         w8,#1
	beq         |$LN7@ChCreateSl|
	ldr         w8,[sp,#0x14]
	cmp         w8,#2
	beq         |$LN4@ChCreateSl|
	b           |$LN2@ChCreateSl|
|$LN4@ChCreateSl|

; 142  : 	case CHITRALEKHA_SLIDER_VERTICAL:
; 143  : 		slider->base.w = 10;

	ldr         x8,[sp,#0x28]
	add         x9,x8,#8
	mov         w8,#0xA
	str         w8,[x9]

; 144  : 		slider->base.h = length;

	ldr         x8,[sp,#0x28]
	add         x9,x8,#0xC
	ldr         w8,[sp,#0x18]
	str         w8,[x9]

; 145  : 		slider->thumbY = slider->base.h - 15;

	ldr         x8,[sp,#0x28]
	add         x8,x8,#0xC
	ldr         w8,[x8]
	sub         w9,w8,#0xF
	ldr         x8,[sp,#0x28]
	add         x8,x8,#0x64
	str         w9,[x8]

; 146  : 		if (slider->thumbVisible) {

	ldr         x8,[sp,#0x28]
	add         x8,x8,#0x84
	ldrsb       w8,[x8]
	mov         w8,w8
	cmp         w8,#0
	beq         |$LN5@ChCreateSl|

; 147  : 			slider->bound.x = slider->base.x - 5;

	ldr         x8,[sp,#0x28]
	ldr         w8,[x8]
	sub         w9,w8,#5
	ldr         x8,[sp,#0x28]
	add         x8,x8,#0x50
	str         w9,[x8]

; 148  : 			slider->bound.w = slider->base.w + 5 * 2;

	ldr         x8,[sp,#0x28]
	add         x8,x8,#8
	ldr         w8,[x8]
	add         w9,w8,#0xA
	ldr         x8,[sp,#0x28]
	add         x8,x8,#0x50
	add         x8,x8,#8
	str         w9,[x8]

; 149  : 			slider->bound.y = slider->base.y;

	ldr         x8,[sp,#0x28]
	add         x10,x8,#4
	ldr         x8,[sp,#0x28]
	add         x8,x8,#0x50
	add         x9,x8,#4
	ldr         w8,[x10]
	str         w8,[x9]

; 150  : 			slider->bound.h = slider->base.h;

	ldr         x8,[sp,#0x28]
	add         x10,x8,#0xC
	ldr         x8,[sp,#0x28]
	add         x8,x8,#0x50
	add         x9,x8,#0xC
	ldr         w8,[x10]
	str         w8,[x9]

; 151  : 		}

	b           |$LN6@ChCreateSl|
|$LN5@ChCreateSl|

; 152  : 		else {
; 153  : 			slider->bound.x = slider->base.x;

	ldr         x10,[sp,#0x28]
	ldr         x8,[sp,#0x28]
	add         x9,x8,#0x50
	ldr         w8,[x10]
	str         w8,[x9]

; 154  : 			slider->bound.w = slider->base.w; // +5 * 2;

	ldr         x8,[sp,#0x28]
	add         x10,x8,#8
	ldr         x8,[sp,#0x28]
	add         x8,x8,#0x50
	add         x9,x8,#8
	ldr         w8,[x10]
	str         w8,[x9]

; 155  : 			slider->bound.y = slider->base.y;

	ldr         x8,[sp,#0x28]
	add         x10,x8,#4
	ldr         x8,[sp,#0x28]
	add         x8,x8,#0x50
	add         x9,x8,#4
	ldr         w8,[x10]
	str         w8,[x9]

; 156  : 			slider->bound.h = slider->base.h;

	ldr         x8,[sp,#0x28]
	add         x10,x8,#0xC
	ldr         x8,[sp,#0x28]
	add         x8,x8,#0x50
	add         x9,x8,#0xC
	ldr         w8,[x10]
	str         w8,[x9]
|$LN6@ChCreateSl|

; 157  : 		}
; 158  : 		break;

	b           |$LN2@ChCreateSl|
|$LN7@ChCreateSl|

; 159  : 	case CHITRALEKHA_SLIDER_HORIZONTAL:
; 160  : 		slider->base.w = length;

	ldr         x8,[sp,#0x28]
	add         x9,x8,#8
	ldr         w8,[sp,#0x18]
	str         w8,[x9]

; 161  : 		slider->base.h = 10;

	ldr         x8,[sp,#0x28]
	add         x9,x8,#0xC
	mov         w8,#0xA
	str         w8,[x9]

; 162  : 		slider->thumbX = 0;

	ldr         x8,[sp,#0x28]
	add         x9,x8,#0x60
	mov         w8,#0
	str         w8,[x9]

; 163  : 		if (slider->thumbVisible) {

	ldr         x8,[sp,#0x28]
	add         x8,x8,#0x84
	ldrsb       w8,[x8]
	mov         w8,w8
	cmp         w8,#0
	beq         |$LN8@ChCreateSl|

; 164  : 			slider->bound.x = slider->base.x;

	ldr         x10,[sp,#0x28]
	ldr         x8,[sp,#0x28]
	add         x9,x8,#0x50
	ldr         w8,[x10]
	str         w8,[x9]

; 165  : 			slider->bound.w = slider->base.w;

	ldr         x8,[sp,#0x28]
	add         x10,x8,#8
	ldr         x8,[sp,#0x28]
	add         x8,x8,#0x50
	add         x9,x8,#8
	ldr         w8,[x10]
	str         w8,[x9]

; 166  : 			slider->bound.y = slider->base.y - 5;

	ldr         x8,[sp,#0x28]
	add         x8,x8,#4
	ldr         w8,[x8]
	sub         w9,w8,#5
	ldr         x8,[sp,#0x28]
	add         x8,x8,#0x50
	add         x8,x8,#4
	str         w9,[x8]

; 167  : 			slider->bound.h = slider->base.h + 5 * 2;

	ldr         x8,[sp,#0x28]
	add         x8,x8,#0xC
	ldr         w8,[x8]
	add         w9,w8,#0xA
	ldr         x8,[sp,#0x28]
	add         x8,x8,#0x50
	add         x8,x8,#0xC
	str         w9,[x8]

; 168  : 		}

	b           |$LN9@ChCreateSl|
|$LN8@ChCreateSl|

; 169  : 		else {
; 170  : 			slider->bound.x = slider->base.x;

	ldr         x10,[sp,#0x28]
	ldr         x8,[sp,#0x28]
	add         x9,x8,#0x50
	ldr         w8,[x10]
	str         w8,[x9]

; 171  : 			slider->bound.w = slider->base.w; // +5 * 2;

	ldr         x8,[sp,#0x28]
	add         x10,x8,#8
	ldr         x8,[sp,#0x28]
	add         x8,x8,#0x50
	add         x9,x8,#8
	ldr         w8,[x10]
	str         w8,[x9]

; 172  : 			slider->bound.y = slider->base.y;

	ldr         x8,[sp,#0x28]
	add         x10,x8,#4
	ldr         x8,[sp,#0x28]
	add         x8,x8,#0x50
	add         x9,x8,#4
	ldr         w8,[x10]
	str         w8,[x9]

; 173  : 			slider->bound.h = slider->base.h;

	ldr         x8,[sp,#0x28]
	add         x10,x8,#0xC
	ldr         x8,[sp,#0x28]
	add         x8,x8,#0x50
	add         x9,x8,#0xC
	ldr         w8,[x10]
	str         w8,[x9]
|$LN9@ChCreateSl|
|$LN2@ChCreateSl|

; 174  : 		}
; 175  : 		break;
; 176  : 	}
; 177  : 
; 178  : 	slider->type = sliderType;

	ldr         x8,[sp,#0x28]
	add         x9,x8,#0x94
	ldrb        w8,[sp,#0x10]
	strb        w8,[x9]

; 179  : 	slider->base.ChDestroy = ChSliderDestroy;

	ldr         x8,[sp,#0x28]
	add         x9,x8,#0x48
	adrp        x8,|?ChSliderDestroy@@YAXPEAU_ChWidget_@@PEAU_chwin_@@@Z|
	add         x8,x8,PageOffset(|?ChSliderDestroy@@YAXPEAU_ChWidget_@@PEAU_chwin_@@@Z|)
	str         x8,[x9]

; 180  : 	slider->base.ChMouseEvent = ChSliderMouseEvent;

	ldr         x8,[sp,#0x28]
	add         x9,x8,#0x28
	adrp        x8,|?ChSliderMouseEvent@@YAXPEAU_ChWidget_@@PEAU_chwin_@@HHH@Z|
	add         x8,x8,PageOffset(|?ChSliderMouseEvent@@YAXPEAU_ChWidget_@@PEAU_chwin_@@HHH@Z|)
	str         x8,[x9]

; 181  : 	slider->base.ChPaintHandler = ChDefaultSliderPainter;

	ldr         x8,[sp,#0x28]
	add         x9,x8,#0x40
	adrp        x8,|?ChDefaultSliderPainter@@YAXPEAU_ChWidget_@@PEAU_chwin_@@@Z|
	add         x8,x8,PageOffset(|?ChDefaultSliderPainter@@YAXPEAU_ChWidget_@@PEAU_chwin_@@@Z|)
	str         x8,[x9]

; 182  : 	slider->stepSize = 1.0;

	ldr         x8,[sp,#0x28]
	add         x8,x8,#0x80
	fmov        s16,#1
	str         s16,[x8]

; 183  : 	slider->min = 0.0;

	ldr         x8,[sp,#0x28]
	add         x8,x8,#0x74
	movi        d16,#0
	str         s16,[x8]

; 184  : 	slider->currentVal = slider->min;

	ldr         x8,[sp,#0x28]
	add         x9,x8,#0x74
	ldr         x8,[sp,#0x28]
	add         x8,x8,#0x78
	ldr         s16,[x9]
	str         s16,[x8]

; 185  : 	slider->max = 100.0;

	ldr         x8,[sp,#0x28]
	add         x8,x8,#0x70
	ldr         s16,|$LN13@ChCreateSl|
	str         s16,[x8]

; 186  : 	return slider;

	ldr         x0,[sp,#0x28]
	ldp         fp,lr,[sp],#0x30
	ret
|$LN13@ChCreateSl|
	DCFS         100

	ENDP  ; |ChCreateSlider|

	END
