; Listing generated by Microsoft (R) Optimizing Compiler Version 19.29.30159.0 

	TTL	C:\Users\paras\source\repos\grep-name\XenevaOS\Libs\Chitralekha\ARM64\Debug\textbox.obj
	ARM64

	AREA	|.drectve|, DRECTVE

	EXPORT	|ChCreateTextBox|
	EXPORT	|ChTextBoxSetText|
	EXPORT	|ChTextBoxUpdate|
	EXPORT	|ChTextBoxSetFont|
	EXPORT	|ChTextBoxSetFontSize|
	EXPORT	|?ChTextBoxDestroy@@YAXPEAU_ChWidget_@@PEAU_chwin_@@@Z| ; ChTextBoxDestroy
	EXPORT	|?ChTextBoxMouseEvent@@YAXPEAU_ChWidget_@@PEAU_chwin_@@HHH@Z| ; ChTextBoxMouseEvent
	IMPORT	|malloc|
	IMPORT	|free|
	IMPORT	|ChFontSetSize|
	IMPORT	|ChWindowUpdate|
	IMPORT	|?ChDefaultTextbox@@YAXPEAU_ChWidget_@@PEAU_chwin_@@@Z| ; ChDefaultTextbox

	AREA	|.pdata|, PDATA
|$pdata$ChCreateTextBox| DCD imagerel |$LN4|
	DCD	0x1e00169
	;Flags[SingleProEpi] functionLength[360] RegF[0] RegI[0] H[0] frameChainReturn[Chained] frameSize[48]
|$pdata$ChTextBoxSetText| DCD imagerel |$LN5|
	DCD	0x1800085
	;Flags[SingleProEpi] functionLength[132] RegF[0] RegI[0] H[0] frameChainReturn[UnChained] frameSize[48]
|$pdata$ChTextBoxUpdate| DCD imagerel |$LN4|
	DCD	0x1600081
	;Flags[SingleProEpi] functionLength[128] RegF[0] RegI[0] H[0] frameChainReturn[Chained] frameSize[32]
|$pdata$ChTextBoxSetFont| DCD imagerel |$LN3|
	DCD	0x800025
	;Flags[SingleProEpi] functionLength[36] RegF[0] RegI[0] H[0] frameChainReturn[UnChained] frameSize[16]
|$pdata$ChTextBoxSetFontSize| DCD imagerel |$LN3|
	DCD	0x160002d
	;Flags[SingleProEpi] functionLength[44] RegF[0] RegI[0] H[0] frameChainReturn[Chained] frameSize[32]
|$pdata$?ChTextBoxDestroy@@YAXPEAU_ChWidget_@@PEAU_chwin_@@@Z| DCD imagerel |$LN4|
	DCD	0x1e00061
	;Flags[SingleProEpi] functionLength[96] RegF[0] RegI[0] H[0] frameChainReturn[Chained] frameSize[48]
|$pdata$?ChTextBoxMouseEvent@@YAXPEAU_ChWidget_@@PEAU_chwin_@@HHH@Z| DCD imagerel |$LN8|
	DCD	0x2600181
	;Flags[SingleProEpi] functionLength[384] RegF[0] RegI[0] H[0] frameChainReturn[Chained] frameSize[64]
; Function compile flags: /Odtp
; File C:\Users\paras\source\repos\grep-name\XenevaOS\Libs\Chitralekha\widgets\textbox.cpp

	AREA	|.text$mn|, CODE, ARM64

|?ChTextBoxMouseEvent@@YAXPEAU_ChWidget_@@PEAU_chwin_@@HHH@Z| PROC ; ChTextBoxMouseEvent

; 62   : void ChTextBoxMouseEvent(ChWidget* wid, ChWindow* win, int x, int y, int button) {

|$LN8|
	stp         fp,lr,[sp,#-0x40]!
	mov         fp,sp
	str         x0,[sp,#0x20]
	str         x1,[sp,#0x28]
	str         w2,[sp,#0x10]
	str         w3,[sp,#0x14]
	str         w4,[sp,#0x18]

; 63   : 	ChTextBox* tb = (ChTextBox*)wid;

	ldr         x8,[sp,#0x20]
	str         x8,[sp,#0x30]

; 64   : 	if (!tb->editable)

	ldr         x8,[sp,#0x30]
	add         x8,x8,#0x50
	ldrsb       w8,[x8]
	mov         w8,w8
	cmp         w8,#0
	bne         |$LN2@ChTextBoxM|

; 65   : 		return;

	b           |$LN1@ChTextBoxM|
|$LN2@ChTextBoxM|

; 66   : 	if (wid->hover) {

	ldr         x8,[sp,#0x20]
	add         x8,x8,#0x19
	ldrsb       w8,[x8]
	mov         w8,w8
	cmp         w8,#0
	beq         |$LN3@ChTextBoxM|

; 67   : 		if (wid->ChPaintHandler) {

	ldr         x8,[sp,#0x20]
	add         x8,x8,#0x40
	ldr         x8,[x8]
	cmp         x8,#0
	beq         |$LN4@ChTextBoxM|

; 68   : 			wid->ChPaintHandler(wid, win);

	ldr         x8,[sp,#0x20]
	add         x8,x8,#0x40
	ldr         x1,[sp,#0x28]
	ldr         x0,[sp,#0x20]
	ldr         x8,[x8]
	blr         x8

; 69   : 			ChWindowUpdate(win, wid->x, wid->y, wid->w, wid->h, 0, 1);

	ldr         x8,[sp,#0x20]
	add         x11,x8,#0xC
	ldr         x8,[sp,#0x20]
	add         x10,x8,#8
	ldr         x8,[sp,#0x20]
	add         x9,x8,#4
	ldr         x8,[sp,#0x20]
	mov         w6,#1
	mov         w5,#0
	ldr         w4,[x11]
	ldr         w3,[x10]
	ldr         w2,[x9]
	ldr         w1,[x8]
	ldr         x0,[sp,#0x28]
	bl          ChWindowUpdate
|$LN4@ChTextBoxM|

; 70   : 		}
; 71   : 		wid->hoverPainted = true;

	ldr         x8,[sp,#0x20]
	add         x9,x8,#0x1A
	mov         w8,#1
	strb        w8,[x9]
|$LN3@ChTextBoxM|

; 72   : 	}
; 73   : 
; 74   : 
; 75   : 	if (!wid->hover && wid->hoverPainted) {

	ldr         x8,[sp,#0x20]
	add         x8,x8,#0x19
	ldrsb       w8,[x8]
	mov         w8,w8
	cmp         w8,#0
	bne         |$LN5@ChTextBoxM|
	ldr         x8,[sp,#0x20]
	add         x8,x8,#0x1A
	ldrsb       w8,[x8]
	mov         w8,w8
	cmp         w8,#0
	beq         |$LN5@ChTextBoxM|

; 76   : 		if (wid->ChPaintHandler) {

	ldr         x8,[sp,#0x20]
	add         x8,x8,#0x40
	ldr         x8,[x8]
	cmp         x8,#0
	beq         |$LN6@ChTextBoxM|

; 77   : 			wid->ChPaintHandler(wid, win);

	ldr         x8,[sp,#0x20]
	add         x8,x8,#0x40
	ldr         x1,[sp,#0x28]
	ldr         x0,[sp,#0x20]
	ldr         x8,[x8]
	blr         x8

; 78   : 			ChWindowUpdate(win, wid->x, wid->y, wid->w, wid->h, 0, 1);

	ldr         x8,[sp,#0x20]
	add         x11,x8,#0xC
	ldr         x8,[sp,#0x20]
	add         x10,x8,#8
	ldr         x8,[sp,#0x20]
	add         x9,x8,#4
	ldr         x8,[sp,#0x20]
	mov         w6,#1
	mov         w5,#0
	ldr         w4,[x11]
	ldr         w3,[x10]
	ldr         w2,[x9]
	ldr         w1,[x8]
	ldr         x0,[sp,#0x28]
	bl          ChWindowUpdate
|$LN6@ChTextBoxM|

; 79   : 		}
; 80   : 		wid->hoverPainted = true;

	ldr         x8,[sp,#0x20]
	add         x9,x8,#0x1A
	mov         w8,#1
	strb        w8,[x9]
|$LN5@ChTextBoxM|
|$LN1@ChTextBoxM|
	ldp         fp,lr,[sp],#0x40
	ret

	ENDP  ; |?ChTextBoxMouseEvent@@YAXPEAU_ChWidget_@@PEAU_chwin_@@HHH@Z|, ChTextBoxMouseEvent

; Function compile flags: /Odtp
; File C:\Users\paras\source\repos\grep-name\XenevaOS\Libs\Chitralekha\widgets\textbox.cpp

	AREA	|.text$mn|, CODE, ARM64

|?ChTextBoxDestroy@@YAXPEAU_ChWidget_@@PEAU_chwin_@@@Z| PROC ; ChTextBoxDestroy

; 46   : void ChTextBoxDestroy(ChWidget* widget, ChWindow* win) {

|$LN4|
	stp         fp,lr,[sp,#-0x30]!
	mov         fp,sp
	str         x0,[sp,#0x10]
	str         x1,[sp,#0x18]

; 47   : 	ChTextBox* textb = (ChTextBox*)widget;

	ldr         x8,[sp,#0x10]
	str         x8,[sp,#0x20]

; 48   : 	if (win->focusedWidget == widget)

	ldr         x8,[sp,#0x18]
	add         x8,x8,#0x80
	ldr         x9,[sp,#0x10]
	ldr         x8,[x8]
	cmp         x8,x9
	bne         |$LN2@ChTextBoxD|

; 49   : 		win->focusedWidget = NULL;

	ldr         x8,[sp,#0x18]
	add         x9,x8,#0x80
	mov         x8,#0
	str         x8,[x9]
|$LN2@ChTextBoxD|

; 50   : 	free(textb->text);

	ldr         x8,[sp,#0x20]
	add         x8,x8,#0x58
	ldr         x0,[x8]
	bl          free

; 51   : 	free(textb);

	ldr         x0,[sp,#0x20]
	bl          free
	ldp         fp,lr,[sp],#0x30
	ret

	ENDP  ; |?ChTextBoxDestroy@@YAXPEAU_ChWidget_@@PEAU_chwin_@@@Z|, ChTextBoxDestroy

; Function compile flags: /Odtp
; File C:\Users\paras\source\repos\grep-name\XenevaOS\Libs\Chitralekha\widgets\textbox.cpp

	AREA	|.text$mn|, CODE, ARM64

|ChTextBoxSetFontSize| PROC

; 151  : void ChTextBoxSetFontSize(ChTextBox* tb, int sz) {

|$LN3|
	stp         fp,lr,[sp,#-0x20]!
	mov         fp,sp
	str         x0,[sp,#0x18]
	str         w1,[sp,#0x10]

; 152  : 	ChFontSetSize(tb->font, sz);

	ldr         x8,[sp,#0x18]
	add         x8,x8,#0x60
	ldr         w1,[sp,#0x10]
	ldr         x0,[x8]
	bl          ChFontSetSize
	ldp         fp,lr,[sp],#0x20
	ret

	ENDP  ; |ChTextBoxSetFontSize|

; Function compile flags: /Odtp
; File C:\Users\paras\source\repos\grep-name\XenevaOS\Libs\Chitralekha\widgets\textbox.cpp

	AREA	|.text$mn|, CODE, ARM64

|ChTextBoxSetFont| PROC

; 142  : void ChTextBoxSetFont(ChTextBox* tb, ChFont* font) {

|$LN3|
	sub         sp,sp,#0x10
	str         x0,[sp]
	str         x1,[sp,#8]

; 143  : 	tb->font = font;

	ldr         x8,[sp]
	add         x9,x8,#0x60
	ldr         x8,[sp,#8]
	str         x8,[x9]
	add         sp,sp,#0x10
	ret

	ENDP  ; |ChTextBoxSetFont|

; Function compile flags: /Odtp
; File C:\Users\paras\source\repos\grep-name\XenevaOS\Libs\Chitralekha\widgets\textbox.cpp

	AREA	|.text$mn|, CODE, ARM64

|ChTextBoxUpdate| PROC

; 90   : void ChTextBoxUpdate(ChTextBox* tb, ChWindow* mainWin) {

|$LN4|
	stp         fp,lr,[sp,#-0x20]!
	mov         fp,sp
	str         x0,[sp,#0x10]
	str         x1,[sp,#0x18]

; 91   : 	if (tb->wid.ChPaintHandler) {

	ldr         x8,[sp,#0x10]
	add         x8,x8,#0x40
	ldr         x8,[x8]
	cmp         x8,#0
	beq         |$LN2@ChTextBoxU|

; 92   : 		tb->wid.ChPaintHandler(&tb->wid, mainWin);

	ldr         x0,[sp,#0x10]
	ldr         x8,[sp,#0x10]
	add         x8,x8,#0x40
	ldr         x1,[sp,#0x18]
	ldr         x8,[x8]
	blr         x8

; 93   : 		ChWindowUpdate(mainWin,tb->wid.x,tb->wid.y, tb->wid.w, tb->wid.h, 0, 1);

	ldr         x8,[sp,#0x10]
	add         x11,x8,#0xC
	ldr         x8,[sp,#0x10]
	add         x10,x8,#8
	ldr         x8,[sp,#0x10]
	add         x9,x8,#4
	ldr         x8,[sp,#0x10]
	mov         w6,#1
	mov         w5,#0
	ldr         w4,[x11]
	ldr         w3,[x10]
	ldr         w2,[x9]
	ldr         w1,[x8]
	ldr         x0,[sp,#0x18]
	bl          ChWindowUpdate
|$LN2@ChTextBoxU|
	ldp         fp,lr,[sp],#0x20
	ret

	ENDP  ; |ChTextBoxUpdate|

; Function compile flags: /Odtp
; File C:\Users\paras\source\repos\grep-name\XenevaOS\Libs\Chitralekha\widgets\textbox.cpp

	AREA	|.text$mn|, CODE, ARM64

|ChTextBoxSetText| PROC

; 130  : void ChTextBoxSetText(ChTextBox* tb, char* text) {

|$LN5|
	sub         sp,sp,#0x30
	str         x0,[sp,#0x18]
	str         x1,[sp,#0x20]

; 131  : 	if (tb->text) {

	ldr         x8,[sp,#0x18]
	add         x8,x8,#0x58
	ldr         x8,[x8]
	cmp         x8,#0
	beq         |$LN2@ChTextBoxS|

; 132  : 		strcpy(tb->text, text);

	ldr         x8,[sp,#0x20]
	str         x8,[sp,#0x10]
	ldr         x8,[sp,#0x18]
	add         x8,x8,#0x58
	ldr         x8,[x8]
	str         x8,[sp,#8]
	ldr         x8,[sp,#8]
	str         x8,[sp,#0x28]
|$LN4@ChTextBoxS|
	ldr         x8,[sp,#0x10]
	ldrsb       w8,[x8]
	strb        w8,[sp]
	ldr         x9,[sp,#8]
	ldrsb       w8,[sp]
	strb        w8,[x9]
	ldr         x8,[sp,#0x10]
	add         x8,x8,#1
	str         x8,[sp,#0x10]
	ldr         x8,[sp,#8]
	add         x8,x8,#1
	str         x8,[sp,#8]
	ldrsb       w8,[sp]
	cmp         w8,#0
	bne         |$LN4@ChTextBoxS|
|$LN2@ChTextBoxS|
	add         sp,sp,#0x30
	ret

	ENDP  ; |ChTextBoxSetText|

; Function compile flags: /Odtp
; File C:\Users\paras\source\repos\grep-name\XenevaOS\Libs\Chitralekha\widgets\textbox.cpp

	AREA	|.text$mn|, CODE, ARM64

|ChCreateTextBox| PROC

; 104  : ChTextBox* ChCreateTextBox(ChWindow* win,int x, int y, int width, int height) {

|$LN4|
	stp         fp,lr,[sp,#-0x30]!
	mov         fp,sp
	str         x0,[sp,#0x28]
	str         w1,[sp,#0x10]
	str         w2,[sp,#0x14]
	str         w3,[sp,#0x18]
	str         w4,[sp,#0x1C]

; 105  : 	ChTextBox* text = (ChTextBox*)malloc(sizeof(ChTextBox));

	mov         w0,#0x80
	bl          malloc
	str         x0,[sp,#0x20]

; 106  : 	memset(text, 0, sizeof(ChTextBox));

	ldr         x9,[sp,#0x20]
	mov         x8,#0
	stp         x8,x8,[x9]
	stp         x8,x8,[x9,#0x10]
	stp         x8,x8,[x9,#0x20]
	stp         x8,x8,[x9,#0x30]
	stp         x8,x8,[x9,#0x40]
	stp         x8,x8,[x9,#0x50]
	stp         x8,x8,[x9,#0x60]
	stp         x8,x8,[x9,#0x70]

; 107  : 	text->wid.x = x;

	ldr         x9,[sp,#0x20]
	ldr         w8,[sp,#0x10]
	str         w8,[x9]

; 108  : 	text->wid.y = 26 + y;

	ldr         w8,[sp,#0x14]
	add         w9,w8,#0x1A
	ldr         x8,[sp,#0x20]
	add         x8,x8,#4
	str         w9,[x8]

; 109  : 	text->wid.w = width;

	ldr         x8,[sp,#0x20]
	add         x9,x8,#8
	ldr         w8,[sp,#0x18]
	str         w8,[x9]

; 110  : 	text->wid.h = height;

	ldr         x8,[sp,#0x20]
	add         x9,x8,#0xC
	ldr         w8,[sp,#0x1C]
	str         w8,[x9]

; 111  : 	text->wid.ChDestroy = ChTextBoxDestroy;

	ldr         x8,[sp,#0x20]
	add         x9,x8,#0x48
	adrp        x8,|?ChTextBoxDestroy@@YAXPEAU_ChWidget_@@PEAU_chwin_@@@Z|
	add         x8,x8,PageOffset(|?ChTextBoxDestroy@@YAXPEAU_ChWidget_@@PEAU_chwin_@@@Z|)
	str         x8,[x9]

; 112  : 	text->wid.ChMouseEvent = ChTextBoxMouseEvent;

	ldr         x8,[sp,#0x20]
	add         x9,x8,#0x28
	adrp        x8,|?ChTextBoxMouseEvent@@YAXPEAU_ChWidget_@@PEAU_chwin_@@HHH@Z|
	add         x8,x8,PageOffset(|?ChTextBoxMouseEvent@@YAXPEAU_ChWidget_@@PEAU_chwin_@@HHH@Z|)
	str         x8,[x9]

; 113  : 	text->wid.ChPaintHandler = ChDefaultTextbox;

	ldr         x8,[sp,#0x20]
	add         x9,x8,#0x40
	adrp        x8,|?ChDefaultTextbox@@YAXPEAU_ChWidget_@@PEAU_chwin_@@@Z|
	add         x8,x8,PageOffset(|?ChDefaultTextbox@@YAXPEAU_ChWidget_@@PEAU_chwin_@@@Z|)
	str         x8,[x9]

; 114  : 	text->text = (char*)malloc(CH_TEXTBOX_MAX_STRING);

	mov         w0,#0x7FFF
	bl          malloc
	ldr         x8,[sp,#0x20]
	add         x8,x8,#0x58
	str         x0,[x8]

; 115  : 	text->editable = true;

	ldr         x8,[sp,#0x20]
	add         x9,x8,#0x50
	mov         w8,#1
	strb        w8,[x9]

; 116  : 	text->textColor = BLACK;

	ldr         x8,[sp,#0x20]
	add         x9,x8,#0x68
	mov         w8,#0xFF000000
	str         w8,[x9]

; 117  : 	text->textCursorPosX = 2;

	ldr         x8,[sp,#0x20]
	add         x9,x8,#0x78
	mov         w8,#2
	str         w8,[x9]

; 118  : 	text->textCursorPosY = 2;

	ldr         x8,[sp,#0x20]
	add         x9,x8,#0x7C
	mov         w8,#2
	str         w8,[x9]

; 119  : 	if (win)

	ldr         x8,[sp,#0x28]
	cmp         x8,#0
	beq         |$LN2@ChCreateTe|

; 120  : 		text->font = win->app->baseFont;

	ldr         x8,[sp,#0x28]
	add         x8,x8,#0x30
	ldr         x8,[x8]
	add         x10,x8,#0x30
	ldr         x8,[sp,#0x20]
	add         x9,x8,#0x60
	ldr         x8,[x10]
	str         x8,[x9]
|$LN2@ChCreateTe|

; 121  : 	text->textBackgroundColor = WHITE;

	ldr         x8,[sp,#0x20]
	add         x9,x8,#0x6C
	mov         w8,#-1
	str         w8,[x9]

; 122  : 	return text;

	ldr         x0,[sp,#0x20]
	ldp         fp,lr,[sp],#0x30
	ret

	ENDP  ; |ChCreateTextBox|

	END
