; Listing generated by Microsoft (R) Optimizing Compiler Version 19.29.30159.0 

	TTL	C:\Users\paras\source\repos\grep-name\XenevaOS\Libs\Chitralekha\ARM64\Debug\ttf.obj
	ARM64

	AREA	|.drectve|, DRECTVE


	AREA	|.rdata|, DATA, READONLY
|$SG5060| DCB	"start code is greater than code point %d ", 0xa, 0x0
	%	5
|$SG5063| DCB	"Index -> %d ", 0xa, 0x0
	EXPORT	|?TTFLoadFont@@YAPEAU_ttf_@@PEAU_ChCanvas_@@PEAE@Z| ; TTFLoadFont
	EXPORT	|?TTFSetFontSize@@YAXPEAU_ttf_@@M@Z|	; TTFSetFontSize
	EXPORT	|?TTFSwap32@@YAHH@Z|			; TTFSwap32
	EXPORT	|?TTFSwap16@@YAGG@Z|			; TTFSwap16
	EXPORT	|?TTF_READ_8@@YAEPEAU_ttf_@@@Z|		; TTF_READ_8
	EXPORT	|?TTF_READ_16@@YAGPEAU_ttf_@@@Z|	; TTF_READ_16
	EXPORT	|?UTF8toUnicode@@YAIE@Z|		; UTF8toUnicode
	EXPORT	|?TTFGetGlyph@@YAIPEAU_ttf_@@I@Z|	; TTFGetGlyph
	EXPORT	|?TTFDrawSimpleGlyf@@YAXPEAU_ttf_@@IMM@Z| ; TTFDrawSimpleGlyf
	EXPORT	|?TTFDrawGlyph@@YAXPEAU_ttf_@@IHH@Z|	; TTFDrawGlyph
	IMPORT	|_KePrint|
	IMPORT	|malloc|
	IMPORT	|memset|
	IMPORT	|_fltused|

	AREA	|.pdata|, PDATA
|$pdata$?TTFLoadFont@@YAPEAU_ttf_@@PEAU_ChCanvas_@@PEAE@Z| DCD imagerel |$LN43|
	DCD	0x5600689
	;Flags[SingleProEpi] functionLength[1672] RegF[0] RegI[0] H[0] frameChainReturn[Chained] frameSize[160]
|$pdata$?TTFSetFontSize@@YAXPEAU_ttf_@@M@Z| DCD imagerel |$LN4|
	DCD	0x800055
	;Flags[SingleProEpi] functionLength[84] RegF[0] RegI[0] H[0] frameChainReturn[UnChained] frameSize[16]
|$pdata$?TTFSwap32@@YAHH@Z| DCD imagerel |$LN3|
	DCD	0x100008d
	;Flags[SingleProEpi] functionLength[140] RegF[0] RegI[0] H[0] frameChainReturn[UnChained] frameSize[32]
|$pdata$?TTFSwap16@@YAGG@Z| DCD imagerel |$LN3|
	DCD	0x800061
	;Flags[SingleProEpi] functionLength[96] RegF[0] RegI[0] H[0] frameChainReturn[UnChained] frameSize[16]
|$pdata$?TTF_READ_8@@YAEPEAU_ttf_@@@Z| DCD imagerel |$LN3|
	DCD	0x800045
	;Flags[SingleProEpi] functionLength[68] RegF[0] RegI[0] H[0] frameChainReturn[UnChained] frameSize[16]
|$pdata$?TTF_READ_16@@YAGPEAU_ttf_@@@Z| DCD imagerel |$LN5|
	DCD	0x160007d
	;Flags[SingleProEpi] functionLength[124] RegF[0] RegI[0] H[0] frameChainReturn[Chained] frameSize[32]
|$pdata$?UTF8toUnicode@@YAIE@Z| DCD imagerel |$LN7|
	DCD	0x8000b5
	;Flags[SingleProEpi] functionLength[180] RegF[0] RegI[0] H[0] frameChainReturn[UnChained] frameSize[16]
|$pdata$?TTFGetGlyph@@YAIPEAU_ttf_@@I@Z| DCD imagerel |$LN18|
	DCD	0x5600495
	;Flags[SingleProEpi] functionLength[1172] RegF[0] RegI[0] H[0] frameChainReturn[Chained] frameSize[160]
|$pdata$?TTFDrawSimpleGlyf@@YAXPEAU_ttf_@@IMM@Z| DCD imagerel |$LN27|
	DCD	0x46005d9
	;Flags[SingleProEpi] functionLength[1496] RegF[0] RegI[0] H[0] frameChainReturn[Chained] frameSize[128]
|$pdata$?TTFDrawGlyph@@YAXPEAU_ttf_@@IHH@Z| DCD imagerel |$LN6|
	DCD	0x2e00111
	;Flags[SingleProEpi] functionLength[272] RegF[0] RegI[0] H[0] frameChainReturn[Chained] frameSize[80]
; Function compile flags: /Odtp
; File C:\Users\paras\source\repos\grep-name\XenevaOS\Libs\Chitralekha\ttf.cpp

	AREA	|.text$mn|, CODE, ARM64

|?TTFDrawGlyph@@YAXPEAU_ttf_@@IHH@Z| PROC		; TTFDrawGlyph

; 291  : void TTFDrawGlyph(TTFont *font, uint32_t glyph, int xOff, int yOff) {

|$LN6|
	stp         fp,lr,[sp,#-0x50]!
	mov         fp,sp
	str         x0,[sp,#0x18]
	str         w1,[sp,#0x20]
	str         w2,[sp,#0x28]
	str         w3,[sp,#0x24]

; 292  : 	uint32_t glyph_offset = 0;

	mov         w8,#0
	str         w8,[sp,#0x10]

; 293  : 	if (font->loca_type == 0) {

	ldr         x8,[sp,#0x18]
	add         x8,x8,#0x80
	ldrh        w8,[x8]
	mov         w8,w8
	cmp         w8,#0
	bne         |$LN2@TTFDrawGly|

; 294  : 		uint16_t* loca = (uint16_t*)font->loca.base;

	ldr         x8,[sp,#0x18]
	add         x8,x8,#0x44
	ldr         x8,[x8]
	str         x8,[sp,#0x30]

; 295  : 		glyph_offset = TTFSwap16(loca[glyph]) * 2;

	ldr         w8,[sp,#0x20]
	uxtw        x9,w8
	mov         x8,#2
	mul         x9,x9,x8
	ldr         x8,[sp,#0x30]
	add         x8,x8,x9
	ldrh        w0,[x8]
	bl          |?TTFSwap16@@YAGG@Z|
	uxth        w9,w0
	mov         w9,w9
	mov         w8,#2
	mul         w8,w9,w8
	str         w8,[sp,#0x10]

; 296  : 	}

	b           |$LN3@TTFDrawGly|
|$LN2@TTFDrawGly|

; 297  : 	else {
; 298  : 		uint32_t* longTable = (uint32_t*)font->loca.base;

	ldr         x8,[sp,#0x18]
	add         x8,x8,#0x44
	ldr         x8,[x8]
	str         x8,[sp,#0x38]

; 299  : 		glyph_offset = longTable[2];

	ldr         x8,[sp,#0x38]
	add         x8,x8,#8
	ldr         w8,[x8]
	str         w8,[sp,#0x10]
|$LN3@TTFDrawGly|

; 300  : 	}
; 301  : 
; 302  : 	TTFGlyphDesc* glyfdesc = (TTFGlyphDesc*)(font->glyf.base + glyph_offset);

	ldr         x8,[sp,#0x18]
	add         x10,x8,#0x14
	ldr         w8,[sp,#0x10]
	uxtw        x9,w8
	ldr         x8,[x10]
	add         x8,x8,x9
	str         x8,[sp,#0x40]

; 303  : 
; 304  : 	int16_t numContours = TTFSwap16(glyfdesc->numContours);

	ldr         x8,[sp,#0x40]
	ldrsh       w8,[x8]
	uxth        w0,w8
	mov         w0,w0
	bl          |?TTFSwap16@@YAGG@Z|
	uxth        w8,w0
	sxth        w8,w8
	strh        w8,[sp,#0x14]

; 305  : 	if (numContours >= 0)

	ldrsh       w8,[sp,#0x14]
	mov         w8,w8
	cmp         w8,#0
	blt         |$LN4@TTFDrawGly|

; 306  : 		TTFDrawSimpleGlyf(font, glyph_offset, xOff,yOff);

	ldr         w8,[sp,#0x24]
	scvtf       s1,w8
	ldr         w8,[sp,#0x28]
	scvtf       s0,w8
	ldr         w1,[sp,#0x10]
	ldr         x0,[sp,#0x18]
	bl          |?TTFDrawSimpleGlyf@@YAXPEAU_ttf_@@IMM@Z|
|$LN4@TTFDrawGly|
	ldp         fp,lr,[sp],#0x50
	ret

	ENDP  ; |?TTFDrawGlyph@@YAXPEAU_ttf_@@IHH@Z|, TTFDrawGlyph

; Function compile flags: /Odtp
; File C:\Users\paras\source\repos\grep-name\XenevaOS\Libs\Chitralekha\ttf.cpp

	AREA	|.text$mn|, CODE, ARM64

|?TTFDrawSimpleGlyf@@YAXPEAU_ttf_@@IMM@Z| PROC		; TTFDrawSimpleGlyf

; 202  : void TTFDrawSimpleGlyf( TTFont* font, uint32_t glyphOffset, float xoff, float yoff) {

|$LN27|
	stp         fp,lr,[sp,#-0x80]!
	mov         fp,sp
	str         x0,[sp,#0x20]
	str         w1,[sp,#0x30]
	str         s0,[sp,#0x48]
	str         s1,[sp,#0x4C]

; 203  : 	TTFGlyphDesc* glyfdesc = (TTFGlyphDesc*)(font->glyf.base + glyphOffset);

	ldr         x8,[sp,#0x20]
	add         x10,x8,#0x14
	ldr         w8,[sp,#0x30]
	uxtw        x9,w8
	ldr         x8,[x10]
	add         x8,x8,x9
	str         x8,[sp,#0x50]

; 204  : 	int16_t numContours = TTFSwap16(glyfdesc->numContours);

	ldr         x8,[sp,#0x50]
	ldrsh       w8,[x8]
	uxth        w0,w8
	mov         w0,w0
	bl          |?TTFSwap16@@YAGG@Z|
	uxth        w8,w0
	sxth        w8,w8
	strh        w8,[sp,#0x16]

; 205  : 	uint16_t* endPointsContours = (uint16_t*)(font->glyf.base + glyphOffset + sizeof(TTFGlyphDesc));

	ldr         x8,[sp,#0x20]
	add         x10,x8,#0x14
	ldr         w8,[sp,#0x30]
	uxtw        x9,w8
	ldr         x8,[x10]
	add         x8,x8,x9
	add         x8,x8,#0xA
	str         x8,[sp,#0x60]

; 206  : 	uint16_t* intLen = (uint16_t*)(font->glyf.base + glyphOffset + sizeof(TTFGlyphDesc)+numContours * 2);

	ldr         x8,[sp,#0x20]
	add         x10,x8,#0x14
	ldr         w8,[sp,#0x30]
	uxtw        x9,w8
	ldr         x8,[x10]
	add         x8,x8,x9
	add         x10,x8,#0xA
	ldrsh       w9,[sp,#0x16]
	mov         w9,w9
	mov         w8,#2
	mul         w8,w9,w8
	sxtw        x8,w8
	add         x8,x10,x8
	str         x8,[sp,#0x58]

; 207  : 	uint16_t instructionLen = TTFSwap16(*intLen);

	ldr         x8,[sp,#0x58]
	ldrh        w0,[x8]
	bl          |?TTFSwap16@@YAGG@Z|
	uxth        w8,w0
	strh        w8,[sp,#0x40]

; 208  : 	uint8_t* instructions = (uint8_t*)(font->glyf.base + glyphOffset + sizeof(TTFGlyphDesc)+numContours * 2 + 2);

	ldr         x8,[sp,#0x20]
	add         x10,x8,#0x14
	ldr         w8,[sp,#0x30]
	uxtw        x9,w8
	ldr         x8,[x10]
	add         x8,x8,x9
	add         x10,x8,#0xA
	ldrsh       w9,[sp,#0x16]
	mov         w9,w9
	mov         w8,#2
	mul         w8,w9,w8
	sxtw        x8,w8
	add         x8,x10,x8
	add         x8,x8,#2
	str         x8,[sp,#0x78]

; 209  : 	uint8_t *flags = (uint8_t*)(font->glyf.base + glyphOffset + sizeof(TTFGlyphDesc)+numContours * 2 + 2 +

	ldr         x8,[sp,#0x20]
	add         x10,x8,#0x14
	ldr         w8,[sp,#0x30]
	uxtw        x9,w8
	ldr         x8,[x10]
	add         x8,x8,x9
	add         x10,x8,#0xA
	ldrsh       w9,[sp,#0x16]
	mov         w9,w9
	mov         w8,#2
	mul         w8,w9,w8
	sxtw        x8,w8
	add         x8,x10,x8
	add         x9,x8,#2
	ldrh        w8,[sp,#0x40]
	mov         w8,w8
	add         x8,x9,x8
	str         x8,[sp,#0x68]

; 210  : 		instructionLen);
; 211  : 
; 212  : 	uint16_t endPoint = TTFSwap16(endPointsContours[numContours-1]);

	ldrsh       w8,[sp,#0x16]
	mov         w8,w8
	sub         w8,w8,#1
	sxtw        x9,w8
	mov         x8,#2
	mul         x9,x9,x8
	ldr         x8,[sp,#0x60]
	add         x8,x8,x9
	ldrh        w0,[x8]
	bl          |?TTFSwap16@@YAGG@Z|
	uxth        w8,w0
	strh        w8,[sp,#0x14]

; 213  : 
; 214  : 	uint8_t* buffer_tag = flags; // we will increament this

	ldr         x8,[sp,#0x68]
	str         x8,[sp,#0x70]

; 215  : 	font->memptr = buffer_tag;

	ldr         x8,[sp,#0x20]
	add         x9,x8,#0x88
	ldr         x8,[sp,#0x70]
	str         x8,[x9]

; 216  : 	
; 217  : 	int last_x = 0;

	mov         w8,#0
	str         w8,[sp,#0x38]

; 218  : 	int last_y = 0;

	mov         w8,#0
	str         w8,[sp,#0x3C]

; 219  : 
; 220  : 	/* read all flags */
; 221  : 	TTFVertices* vert = (TTFVertices*)malloc(sizeof(TTFVertices)* endPoint + 1);

	ldrh        w8,[sp,#0x14]
	mov         w8,w8
	sxtw        x9,w8
	mov         x8,#0xC
	mul         x8,x9,x8
	add         x8,x8,#1
	mov         w0,w8
	mov         w0,w0
	bl          malloc
	str         x0,[sp,#0x28]

; 222  : 	memset(vert, 0, sizeof(TTFVertices)* endPoint + 1);

	ldrh        w8,[sp,#0x14]
	mov         w8,w8
	sxtw        x9,w8
	mov         x8,#0xC
	mul         x8,x9,x8
	add         x2,x8,#1
	mov         w1,#0
	ldr         x0,[sp,#0x28]
	bl          memset

; 223  : 	for (int i = 0; i < endPoint + 1;) {

	mov         w8,#0
	str         w8,[sp,#0x34]
|$LN2@TTFDrawSim|
	ldrh        w8,[sp,#0x14]
	mov         w8,w8
	add         w9,w8,#1
	ldr         w8,[sp,#0x34]
	cmp         w8,w9
	bge         |$LN3@TTFDrawSim|

; 224  : 		uint8_t flag = TTF_READ_8(font);

	ldr         x0,[sp,#0x20]
	bl          |?TTF_READ_8@@YAEPEAU_ttf_@@@Z|
	uxtb        w8,w0
	strb        w8,[sp,#0x10]

; 225  : 		vert[i].flags = flag;

	ldr         w8,[sp,#0x34]
	sxtw        x9,w8
	mov         x8,#0xC
	mul         x9,x9,x8
	ldr         x8,[sp,#0x28]
	add         x9,x8,x9
	ldrb        w8,[sp,#0x10]
	strb        w8,[x9]

; 226  : 		if (flag & GLYF_FLAG_REPEAT) {

	ldrb        w8,[sp,#0x10]
	mov         w8,w8
	tbz         x8,#3,|$LN13@TTFDrawSim|

; 227  : 			uint8_t repeatval = TTF_READ_8(font);

	ldr         x0,[sp,#0x20]
	bl          |?TTF_READ_8@@YAEPEAU_ttf_@@@Z|
	uxtb        w8,w0
	strb        w8,[sp,#0x11]
|$LN5@TTFDrawSim|

; 228  : 			while (repeatval) {

	ldrb        w8,[sp,#0x11]
	mov         w8,w8
	cmp         w8,#0
	beq         |$LN6@TTFDrawSim|

; 229  : 				vert[i].flags = flag;

	ldr         w8,[sp,#0x34]
	sxtw        x9,w8
	mov         x8,#0xC
	mul         x9,x9,x8
	ldr         x8,[sp,#0x28]
	add         x9,x8,x9
	ldrb        w8,[sp,#0x10]
	strb        w8,[x9]

; 230  : 				repeatval--;

	ldrb        w8,[sp,#0x11]
	sub         w8,w8,#1
	uxtb        w8,w8
	strb        w8,[sp,#0x11]

; 231  : 				i++;

	ldr         w8,[sp,#0x34]
	add         w8,w8,#1
	str         w8,[sp,#0x34]

; 232  : 			}

	b           |$LN5@TTFDrawSim|
|$LN6@TTFDrawSim|
|$LN13@TTFDrawSim|

; 233  : 		}
; 234  : 	}

	b           |$LN2@TTFDrawSim|
|$LN3@TTFDrawSim|

; 235  : 
; 236  : 
; 237  : 	/* read all X-Coords */
; 238  : 	for (int i = 0; i < endPoint + 1; i++) {

	mov         w8,#0
	str         w8,[sp,#0x18]
	b           |$LN9@TTFDrawSim|
|$LN7@TTFDrawSim|
	ldr         w8,[sp,#0x18]
	add         w8,w8,#1
	str         w8,[sp,#0x18]
|$LN9@TTFDrawSim|
	ldrh        w8,[sp,#0x14]
	mov         w8,w8
	add         w9,w8,#1
	ldr         w8,[sp,#0x18]
	cmp         w8,w9
	bge         |$LN8@TTFDrawSim|

; 239  : 		uint8_t flag = vert[i].flags;

	ldr         w8,[sp,#0x18]
	sxtw        x9,w8
	mov         x8,#0xC
	mul         x9,x9,x8
	ldr         x8,[sp,#0x28]
	add         x8,x8,x9
	ldrb        w8,[x8]
	strb        w8,[sp,#0x12]

; 240  : 		if (flag & GLYF_FLAG_ONCURVE){

	ldrb        w8,[sp,#0x12]
	mov         w8,w8
	tbz         x8,#0,|$LN14@TTFDrawSim|

; 241  : 			if (flag & GLYF_FLAG_POSITIVE_XSHORT_VECT) 

	ldrb        w8,[sp,#0x12]
	mov         w8,w8
	tbz         x8,#4,|$LN16@TTFDrawSim|

; 242  : 				vert[i].x = last_x + TTF_READ_8(font);

	ldr         x0,[sp,#0x20]
	bl          |?TTF_READ_8@@YAEPEAU_ttf_@@@Z|
	uxtb        w9,w0
	mov         w9,w9
	ldr         w8,[sp,#0x38]
	add         w10,w8,w9
	ldr         w8,[sp,#0x18]
	sxtw        x9,w8
	mov         x8,#0xC
	mul         x9,x9,x8
	ldr         x8,[sp,#0x28]
	add         x8,x8,x9
	add         x8,x8,#4
	str         w10,[x8]
	b           |$LN17@TTFDrawSim|
|$LN16@TTFDrawSim|

; 243  : 			else {
; 244  : 				vert[i].x = last_x - TTF_READ_8(font);

	ldr         x0,[sp,#0x20]
	bl          |?TTF_READ_8@@YAEPEAU_ttf_@@@Z|
	uxtb        w9,w0
	mov         w9,w9
	ldr         w8,[sp,#0x38]
	sub         w10,w8,w9
	ldr         w8,[sp,#0x18]
	sxtw        x9,w8
	mov         x8,#0xC
	mul         x9,x9,x8
	ldr         x8,[sp,#0x28]
	add         x8,x8,x9
	add         x8,x8,#4
	str         w10,[x8]
|$LN17@TTFDrawSim|

; 245  : 			}
; 246  : 		}

	b           |$LN15@TTFDrawSim|
|$LN14@TTFDrawSim|

; 247  : 		else {
; 248  : 			if (flag & GLYF_FLAG_POSITIVE_XSHORT_VECT)

	ldrb        w8,[sp,#0x12]
	mov         w8,w8
	tbz         x8,#4,|$LN18@TTFDrawSim|

; 249  : 				vert[i].x = last_x;

	ldr         w8,[sp,#0x18]
	sxtw        x9,w8
	mov         x8,#0xC
	mul         x9,x9,x8
	ldr         x8,[sp,#0x28]
	add         x8,x8,x9
	add         x9,x8,#4
	ldr         w8,[sp,#0x38]
	str         w8,[x9]
	b           |$LN19@TTFDrawSim|
|$LN18@TTFDrawSim|

; 250  : 			else {
; 251  : 				int16_t diff = TTF_READ_16(font);

	ldr         x0,[sp,#0x20]
	bl          |?TTF_READ_16@@YAGPEAU_ttf_@@@Z|
	uxth        w8,w0
	sxth        w8,w8
	strh        w8,[sp,#0x42]

; 252  : 				vert[i].x = last_x + diff;

	ldrsh       w9,[sp,#0x42]
	mov         w9,w9
	ldr         w8,[sp,#0x38]
	add         w10,w8,w9
	ldr         w8,[sp,#0x18]
	sxtw        x9,w8
	mov         x8,#0xC
	mul         x9,x9,x8
	ldr         x8,[sp,#0x28]
	add         x8,x8,x9
	add         x8,x8,#4
	str         w10,[x8]
|$LN19@TTFDrawSim|
|$LN15@TTFDrawSim|

; 253  : 			}
; 254  : 		}
; 255  : 		last_x = vert[i].x;

	ldr         w8,[sp,#0x18]
	sxtw        x9,w8
	mov         x8,#0xC
	mul         x9,x9,x8
	ldr         x8,[sp,#0x28]
	add         x8,x8,x9
	add         x8,x8,#4
	ldr         w8,[x8]
	str         w8,[sp,#0x38]

; 256  : 	}

	b           |$LN7@TTFDrawSim|
|$LN8@TTFDrawSim|

; 257  : 
; 258  : 	/* Y coord */
; 259  : 	for (int i = 0; i < endPoint + 1; i++) {

	mov         w8,#0
	str         w8,[sp,#0x1C]
	b           |$LN12@TTFDrawSim|
|$LN10@TTFDrawSim|
	ldr         w8,[sp,#0x1C]
	add         w8,w8,#1
	str         w8,[sp,#0x1C]
|$LN12@TTFDrawSim|
	ldrh        w8,[sp,#0x14]
	mov         w8,w8
	add         w9,w8,#1
	ldr         w8,[sp,#0x1C]
	cmp         w8,w9
	bge         |$LN11@TTFDrawSim|

; 260  : 		uint8_t flag = vert[i].flags;

	ldr         w8,[sp,#0x1C]
	sxtw        x9,w8
	mov         x8,#0xC
	mul         x9,x9,x8
	ldr         x8,[sp,#0x28]
	add         x8,x8,x9
	ldrb        w8,[x8]
	strb        w8,[sp,#0x13]

; 261  : 		if (flag & GLYF_FLAG_ONCURVE) {

	ldrb        w8,[sp,#0x13]
	mov         w8,w8
	tbz         x8,#0,|$LN20@TTFDrawSim|

; 262  : 			if (flag & GLYF_FLAG_POSITIVE_YSHORT_VECT)

	ldrb        w8,[sp,#0x13]
	mov         w8,w8
	tbz         x8,#5,|$LN22@TTFDrawSim|

; 263  : 				vert[i].y = last_y + TTF_READ_8(font);

	ldr         x0,[sp,#0x20]
	bl          |?TTF_READ_8@@YAEPEAU_ttf_@@@Z|
	uxtb        w9,w0
	mov         w9,w9
	ldr         w8,[sp,#0x3C]
	add         w10,w8,w9
	ldr         w8,[sp,#0x1C]
	sxtw        x9,w8
	mov         x8,#0xC
	mul         x9,x9,x8
	ldr         x8,[sp,#0x28]
	add         x8,x8,x9
	add         x8,x8,#8
	str         w10,[x8]
	b           |$LN23@TTFDrawSim|
|$LN22@TTFDrawSim|

; 264  : 			else
; 265  : 				vert[i].y = last_y - TTF_READ_8(font);

	ldr         x0,[sp,#0x20]
	bl          |?TTF_READ_8@@YAEPEAU_ttf_@@@Z|
	uxtb        w9,w0
	mov         w9,w9
	ldr         w8,[sp,#0x3C]
	sub         w10,w8,w9
	ldr         w8,[sp,#0x1C]
	sxtw        x9,w8
	mov         x8,#0xC
	mul         x9,x9,x8
	ldr         x8,[sp,#0x28]
	add         x8,x8,x9
	add         x8,x8,#8
	str         w10,[x8]
|$LN23@TTFDrawSim|

; 266  : 		}

	b           |$LN21@TTFDrawSim|
|$LN20@TTFDrawSim|

; 267  : 		else {
; 268  : 			if (flag & GLYF_FLAG_POSITIVE_YSHORT_VECT)

	ldrb        w8,[sp,#0x13]
	mov         w8,w8
	tbz         x8,#5,|$LN24@TTFDrawSim|

; 269  : 				vert[i].y = last_y;

	ldr         w8,[sp,#0x1C]
	sxtw        x9,w8
	mov         x8,#0xC
	mul         x9,x9,x8
	ldr         x8,[sp,#0x28]
	add         x8,x8,x9
	add         x9,x8,#8
	ldr         w8,[sp,#0x3C]
	str         w8,[x9]
	b           |$LN25@TTFDrawSim|
|$LN24@TTFDrawSim|

; 270  : 			else {
; 271  : 				int16_t diff = TTF_READ_16(font);

	ldr         x0,[sp,#0x20]
	bl          |?TTF_READ_16@@YAGPEAU_ttf_@@@Z|
	uxth        w8,w0
	sxth        w8,w8
	strh        w8,[sp,#0x44]

; 272  : 				vert[i].y = last_y + diff;

	ldrsh       w9,[sp,#0x44]
	mov         w9,w9
	ldr         w8,[sp,#0x3C]
	add         w10,w8,w9
	ldr         w8,[sp,#0x1C]
	sxtw        x9,w8
	mov         x8,#0xC
	mul         x9,x9,x8
	ldr         x8,[sp,#0x28]
	add         x8,x8,x9
	add         x8,x8,#8
	str         w10,[x8]
|$LN25@TTFDrawSim|
|$LN21@TTFDrawSim|

; 273  : 			}
; 274  : 		}
; 275  : 		last_y = vert[i].y;

	ldr         w8,[sp,#0x1C]
	sxtw        x9,w8
	mov         x8,#0xC
	mul         x9,x9,x8
	ldr         x8,[sp,#0x28]
	add         x8,x8,x9
	add         x8,x8,#8
	ldr         w8,[x8]
	str         w8,[sp,#0x3C]

; 276  : 	}

	b           |$LN10@TTFDrawSim|
|$LN11@TTFDrawSim|

; 277  : 
; 278  : 	font->memptr = (font->glyf.base + glyphOffset + 10);

	ldr         x8,[sp,#0x20]
	add         x10,x8,#0x14
	ldr         w8,[sp,#0x30]
	uxtw        x9,w8
	ldr         x8,[x10]
	add         x8,x8,x9
	add         x9,x8,#0xA
	ldr         x8,[sp,#0x20]
	add         x8,x8,#0x88
	str         x9,[x8]
	ldp         fp,lr,[sp],#0x80
	ret

	ENDP  ; |?TTFDrawSimpleGlyf@@YAXPEAU_ttf_@@IMM@Z|, TTFDrawSimpleGlyf

; Function compile flags: /Odtp
; File C:\Users\paras\source\repos\grep-name\XenevaOS\Libs\Chitralekha\ttf.cpp

	AREA	|.text$mn|, CODE, ARM64

|?TTFGetGlyph@@YAIPEAU_ttf_@@I@Z| PROC			; TTFGetGlyph

; 134  : uint32_t TTFGetGlyph(TTFont *font,uint32_t codepoint) {

|$LN18|
	stp         fp,lr,[sp,#-0xA0]!
	mov         fp,sp
	str         x0,[sp,#0x28]
	str         w1,[sp,#0x14]

; 135  : 	uint32_t glyph;
; 136  : 	TTFCmapFormat* format = (TTFCmapFormat*)font->cmapStart;

	ldr         x8,[sp,#0x28]
	add         x8,x8,#0x78
	ldr         x8,[x8]
	str         x8,[sp,#0x58]

; 137  : 	uint16_t format_ = TTFSwap16(format->format);

	ldr         x8,[sp,#0x58]
	ldrh        w0,[x8]
	bl          |?TTFSwap16@@YAGG@Z|
	uxth        w8,w0
	strh        w8,[sp,#0x26]

; 138  : 	
; 139  : 	/* handle cmap format 4*/
; 140  : 	if (format_ == 4) {

	ldrh        w8,[sp,#0x26]
	mov         w8,w8
	cmp         w8,#4
	bne         |$LN8@TTFGetGlyp|

; 141  : 		if (codepoint > 0xFFFF)

	mov         w9,#0xFFFF
	ldr         w8,[sp,#0x14]
	cmp         w8,w9
	bls         |$LN10@TTFGetGlyp|

; 142  : 			return 0;

	mov         w0,#0
	b           |$LN1@TTFGetGlyp|
|$LN10@TTFGetGlyp|

; 143  : 		TTFCmapFormat4 * format4 = (TTFCmapFormat4*)font->cmapStart;

	ldr         x8,[sp,#0x28]
	add         x8,x8,#0x78
	ldr         x8,[x8]
	str         x8,[sp,#0x60]

; 144  : 		uint16_t numSeg = TTFSwap16(format4->segCountX2) / 2;

	ldr         x8,[sp,#0x60]
	add         x8,x8,#6
	ldrh        w0,[x8]
	bl          |?TTFSwap16@@YAGG@Z|
	uxth        w9,w0
	mov         w9,w9
	mov         w8,#2
	sdiv        w8,w9,w8
	uxth        w8,w8
	strh        w8,[sp,#0x24]

; 145  : 		uint16_t segx2 = numSeg *2;

	ldrh        w9,[sp,#0x24]
	mov         w9,w9
	mov         w8,#2
	mul         w8,w9,w8
	uxth        w8,w8
	strh        w8,[sp,#0x10]

; 146  : 		uint16_t* endcode_ = (uint16_t*)(font->cmapStart + sizeof(TTFCmapFormat4));

	ldr         x8,[sp,#0x28]
	add         x8,x8,#0x78
	ldr         x8,[x8]
	add         x8,x8,#0xC
	str         x8,[sp,#0x68]

; 147  : 		uint16_t* startCode_ = (uint16_t*)(font->cmapStart + sizeof(TTFCmapFormat4)+

	ldr         x8,[sp,#0x28]
	add         x8,x8,#0x78
	ldr         x8,[x8]
	add         x9,x8,#0xC
	ldrh        w8,[sp,#0x10]
	mov         w8,w8
	add         x8,x9,x8
	add         x8,x8,#2
	str         x8,[sp,#0x70]

; 148  : 			segx2 + 2);
; 149  : 		uint16_t* reservedPad = (uint16_t*)(font->cmapStart + sizeof(TTFCmapFormat4) + segx2);

	ldr         x8,[sp,#0x28]
	add         x8,x8,#0x78
	ldr         x8,[x8]
	add         x9,x8,#0xC
	ldrh        w8,[sp,#0x10]
	mov         w8,w8
	add         x8,x9,x8
	str         x8,[sp,#0x98]

; 150  : 		uint16_t* idDelta_ = (uint16_t*)(font->cmapStart + sizeof(TTFCmapFormat4)+

	ldr         x8,[sp,#0x28]
	add         x8,x8,#0x78
	ldr         x8,[x8]
	add         x9,x8,#0xC
	ldrh        w8,[sp,#0x10]
	mov         w8,w8
	add         x8,x9,x8
	add         x9,x8,#2
	ldrh        w8,[sp,#0x10]
	mov         w8,w8
	add         x8,x9,x8
	str         x8,[sp,#0x78]

; 151  : 			segx2 + 2 + segx2);
; 152  : 		uint16_t* idRangeOffset_ = (uint16_t*)(font->cmapStart + sizeof(TTFCmapFormat4)+

	ldr         x8,[sp,#0x28]
	add         x8,x8,#0x78
	ldr         x8,[x8]
	add         x9,x8,#0xC
	ldrh        w8,[sp,#0x10]
	mov         w8,w8
	add         x8,x9,x8
	add         x10,x8,#2
	ldrh        w9,[sp,#0x10]
	mov         w9,w9
	mov         w8,#2
	mul         w8,w9,w8
	sxtw        x8,w8
	add         x8,x10,x8
	str         x8,[sp,#0x80]

; 153  : 			segx2 + 2 + segx2* 2);
; 154  : 		uint16_t* glyphIndexArray = (uint16_t*)(font->cmapStart + sizeof(TTFCmapFormat4)+

	ldr         x8,[sp,#0x28]
	add         x8,x8,#0x78
	ldr         x8,[x8]
	add         x9,x8,#0xC
	ldrh        w8,[sp,#0x10]
	mov         w8,w8
	add         x8,x9,x8
	add         x10,x8,#2
	ldrh        w9,[sp,#0x10]
	mov         w9,w9
	mov         w8,#3
	mul         w8,w9,w8
	sxtw        x8,w8
	add         x8,x10,x8
	str         x8,[sp,#0x88]

; 155  : 			segx2 + 2 + (segx2)*3);
; 156  : 
; 157  : 		for (int i = 0; i < numSeg; i++) {

	mov         w8,#0
	str         w8,[sp,#0x1C]
	b           |$LN4@TTFGetGlyp|
|$LN2@TTFGetGlyp|
	ldr         w8,[sp,#0x1C]
	add         w8,w8,#1
	str         w8,[sp,#0x1C]
|$LN4@TTFGetGlyp|
	ldrh        w9,[sp,#0x24]
	mov         w9,w9
	ldr         w8,[sp,#0x1C]
	cmp         w8,w9
	bge         |$LN3@TTFGetGlyp|

; 158  : 			uint16_t endcode = TTFSwap16(endcode_[i]);

	ldr         w8,[sp,#0x1C]
	sxtw        x9,w8
	mov         x8,#2
	mul         x9,x9,x8
	ldr         x8,[sp,#0x68]
	add         x8,x8,x9
	ldrh        w0,[x8]
	bl          |?TTFSwap16@@YAGG@Z|
	uxth        w8,w0
	strh        w8,[sp,#0x30]

; 159  : 			if (endcode >= codepoint) {

	ldrh        w9,[sp,#0x30]
	mov         w9,w9
	ldr         w8,[sp,#0x14]
	cmp         w9,w8
	blo         |$LN11@TTFGetGlyp|

; 160  : 				uint16_t startcode = TTFSwap16(startCode_[i]);

	ldr         w8,[sp,#0x1C]
	sxtw        x9,w8
	mov         x8,#2
	mul         x9,x9,x8
	ldr         x8,[sp,#0x70]
	add         x8,x8,x9
	ldrh        w0,[x8]
	bl          |?TTFSwap16@@YAGG@Z|
	uxth        w8,w0
	strh        w8,[sp,#0x1A]

; 161  : 				if (startcode > codepoint){

	ldrh        w9,[sp,#0x1A]
	mov         w9,w9
	ldr         w8,[sp,#0x14]
	cmp         w9,w8
	bls         |$LN12@TTFGetGlyp|

; 162  : 					_KePrint("start code is greater than code point %d \n", codepoint);

	ldr         w1,[sp,#0x14]
	adrp        x8,|$SG5060|
	add         x0,x8,PageOffset(|$SG5060|)
	bl          _KePrint

; 163  : 					return 0;

	mov         w0,#0
	b           |$LN1@TTFGetGlyp|
|$LN12@TTFGetGlyp|

; 164  : 				}
; 165  : 				int16_t idDelta = TTFSwap16(idDelta_[i]);

	ldr         w8,[sp,#0x1C]
	sxtw        x9,w8
	mov         x8,#2
	mul         x9,x9,x8
	ldr         x8,[sp,#0x78]
	add         x8,x8,x9
	ldrh        w0,[x8]
	bl          |?TTFSwap16@@YAGG@Z|
	uxth        w8,w0
	sxth        w8,w8
	strh        w8,[sp,#0x32]

; 166  : 				uint16_t idRangeOffset = TTFSwap16(idRangeOffset_[i]);

	ldr         w8,[sp,#0x1C]
	sxtw        x9,w8
	mov         x8,#2
	mul         x9,x9,x8
	ldr         x8,[sp,#0x80]
	add         x8,x8,x9
	ldrh        w0,[x8]
	bl          |?TTFSwap16@@YAGG@Z|
	uxth        w8,w0
	strh        w8,[sp,#0x18]

; 167  : 				if (idRangeOffset == 0)

	ldrh        w8,[sp,#0x18]
	mov         w8,w8
	cmp         w8,#0
	bne         |$LN13@TTFGetGlyp|

; 168  : 					return idDelta + codepoint;

	ldrsh       w9,[sp,#0x32]
	mov         w9,w9
	ldr         w8,[sp,#0x14]
	add         w0,w9,w8
	mov         w0,w0
	b           |$LN1@TTFGetGlyp|
	b           |$LN14@TTFGetGlyp|
|$LN13@TTFGetGlyp|

; 169  : 				else {
; 170  : 					_KePrint("Index -> %d \n", idRangeOffset + (codepoint - startcode) * 2);

	ldrh        w10,[sp,#0x18]
	mov         w10,w10
	ldrh        w9,[sp,#0x1A]
	mov         w9,w9
	ldr         w8,[sp,#0x14]
	sub         w9,w8,w9
	mov         w8,#2
	mul         w8,w9,w8
	add         w1,w10,w8
	mov         w1,w1
	adrp        x8,|$SG5063|
	add         x0,x8,PageOffset(|$SG5063|)
	bl          _KePrint

; 171  : 					return glyphIndexArray[idRangeOffset + (codepoint - startcode) * 2];

	ldrh        w10,[sp,#0x18]
	mov         w10,w10
	ldrh        w9,[sp,#0x1A]
	mov         w9,w9
	ldr         w8,[sp,#0x14]
	sub         w9,w8,w9
	mov         w8,#2
	mul         w8,w9,w8
	add         w8,w10,w8
	uxtw        x9,w8
	mov         x8,#2
	mul         x9,x9,x8
	ldr         x8,[sp,#0x88]
	add         x8,x8,x9
	ldrh        w0,[x8]
	mov         w0,w0
	mov         w0,w0
	b           |$LN1@TTFGetGlyp|
|$LN14@TTFGetGlyp|
|$LN11@TTFGetGlyp|

; 172  : 				}
; 173  : 
; 174  : 			}
; 175  : 		}

	b           |$LN2@TTFGetGlyp|
|$LN3@TTFGetGlyp|

; 176  : 
; 177  : 	}

	b           |$LN9@TTFGetGlyp|
|$LN8@TTFGetGlyp|

; 178  : 	else if (format_ == 12) { /* handle cmap format 12 */

	ldrh        w8,[sp,#0x26]
	mov         w8,w8
	cmp         w8,#0xC
	bne         |$LN15@TTFGetGlyp|

; 179  : 		TTFCmapFormat12* format12 = (TTFCmapFormat12*)font->cmapStart;

	ldr         x8,[sp,#0x28]
	add         x8,x8,#0x78
	ldr         x8,[x8]
	str         x8,[sp,#0x90]

; 180  : 		uint32_t ngrps = TTFSwap32(format12->nGroups);

	ldr         x8,[sp,#0x90]
	add         x8,x8,#0xC
	ldr         w0,[x8]
	bl          |?TTFSwap32@@YAHH@Z|
	mov         w0,w0
	str         w0,[sp,#0x38]

; 181  : 		TTFCmapFormat12Group *grp = (TTFCmapFormat12Group*)(font->cmapStart + sizeof(TTFCmapFormat12));

	ldr         x8,[sp,#0x28]
	add         x8,x8,#0x78
	ldr         x8,[x8]
	add         x8,x8,#0x10
	str         x8,[sp,#0x48]

; 182  : 		for (int i = 0; i < ngrps; i++) {

	mov         w8,#0
	str         w8,[sp,#0x20]
	b           |$LN7@TTFGetGlyp|
|$LN5@TTFGetGlyp|
	ldr         w8,[sp,#0x20]
	add         w8,w8,#1
	str         w8,[sp,#0x20]
|$LN7@TTFGetGlyp|
	ldr         w9,[sp,#0x38]
	ldr         w8,[sp,#0x20]
	cmp         w8,w9
	bhs         |$LN6@TTFGetGlyp|

; 183  : 			uint32_t startChar = grp[i].startCharCode;

	ldr         w8,[sp,#0x20]
	sxtw        x9,w8
	mov         x8,#0xC
	mul         x9,x9,x8
	ldr         x8,[sp,#0x48]
	add         x8,x8,x9
	ldr         w8,[x8]
	str         w8,[sp,#0x34]

; 184  : 			uint32_t endChar = grp[i].endCharCode;

	ldr         w8,[sp,#0x20]
	sxtw        x9,w8
	mov         x8,#0xC
	mul         x9,x9,x8
	ldr         x8,[sp,#0x48]
	add         x8,x8,x9
	add         x8,x8,#4
	ldr         w8,[x8]
	str         w8,[sp,#0x3C]

; 185  : 			uint32_t glyph = grp[i].startGlyphCode;

	ldr         w8,[sp,#0x20]
	sxtw        x9,w8
	mov         x8,#0xC
	mul         x9,x9,x8
	ldr         x8,[sp,#0x48]
	add         x8,x8,x9
	add         x8,x8,#8
	ldr         w8,[x8]
	str         w8,[sp,#0x40]

; 186  : 
; 187  : 			if (codepoint >= startChar && codepoint <= endChar){

	ldr         w9,[sp,#0x34]
	ldr         w8,[sp,#0x14]
	cmp         w8,w9
	blo         |$LN16@TTFGetGlyp|
	ldr         w9,[sp,#0x3C]
	ldr         w8,[sp,#0x14]
	cmp         w8,w9
	bhi         |$LN16@TTFGetGlyp|

; 188  : 				return glyph + (codepoint - startChar);

	ldr         w9,[sp,#0x14]
	ldr         w8,[sp,#0x34]
	sub         w9,w9,w8
	ldr         w8,[sp,#0x40]
	add         w0,w8,w9
	mov         w0,w0
	b           |$LN1@TTFGetGlyp|
|$LN16@TTFGetGlyp|

; 189  : 			}
; 190  : 		}

	b           |$LN5@TTFGetGlyp|
|$LN6@TTFGetGlyp|
|$LN15@TTFGetGlyp|
|$LN9@TTFGetGlyp|

; 191  : 	}
; 192  : 
; 193  : 	/* more formats to go */
; 194  : 	return glyph;

	ldr         w0,[sp,#0x50]
|$LN1@TTFGetGlyp|
	ldp         fp,lr,[sp],#0xA0
	ret

	ENDP  ; |?TTFGetGlyph@@YAIPEAU_ttf_@@I@Z|, TTFGetGlyph

; Function compile flags: /Odtp
; File C:\Users\paras\source\repos\grep-name\XenevaOS\Libs\Chitralekha\ttf.cpp

	AREA	|.text$mn|, CODE, ARM64

|?UTF8toUnicode@@YAIE@Z| PROC				; UTF8toUnicode

; 106  : uint32_t UTF8toUnicode(uint8_t c) {

|$LN7|
	sub         sp,sp,#0x10
	uxtb        w8,w0
	strb        w8,[sp]

; 107  : 	uint32_t mask;
; 108  : 	if (c > 0x7f) {

	ldrb        w8,[sp]
	mov         w8,w8
	cmp         w8,#0x7F
	ble         |$LN2@UTF8toUnic|

; 109  : 		mask = (c <= 0x00EFBFBF) ? 0x000F0000 : 0x003F0000;

	ldrb        w9,[sp]
	mov         w9,w9
	ldr         w8,|$LN6@UTF8toUnic|
	cmp         w9,w8
	bgt         |$LN4@UTF8toUnic|
	mov         w8,#0xF0000
	str         w8,[sp,#4]
	b           |$LN5@UTF8toUnic|
|$LN4@UTF8toUnic|
	mov         w8,#0x3F0000
	str         w8,[sp,#4]
|$LN5@UTF8toUnic|
	ldr         w8,[sp,#4]
	str         w8,[sp,#8]

; 110  : 		c = ((c & 0x07000000) >> 6) |

	ldrb        w8,[sp]
	mov         w8,w8
	and         w8,w8,#0x7000000
	asr         w10,w8,#6
	ldrb        w9,[sp]
	mov         w9,w9
	ldr         w8,[sp,#8]
	and         w8,w9,w8
	lsr         w8,w8,#4
	orr         w9,w10,w8
	ldrb        w8,[sp]
	mov         w8,w8
	and         w8,w8,#0x3F00
	asr         w8,w8,#2
	orr         w9,w9,w8
	ldrb        w8,[sp]
	mov         w8,w8
	and         w8,w8,#0x3F
	orr         w8,w9,w8
	uxtb        w8,w8
	strb        w8,[sp]
|$LN2@UTF8toUnic|

; 111  : 			((c & mask) >> 4) |
; 112  : 			((c & 0x00003F00) >> 2) |
; 113  : 			(c & 0x0000003F);
; 114  : 	}
; 115  : 	return c;

	ldrb        w0,[sp]
	mov         w0,w0
	mov         w0,w0
	add         sp,sp,#0x10
	ret
	nop
|$LN6@UTF8toUnic|
	DCD         0xefbfbf

	ENDP  ; |?UTF8toUnicode@@YAIE@Z|, UTF8toUnicode

; Function compile flags: /Odtp
; File C:\Users\paras\source\repos\grep-name\XenevaOS\Libs\Chitralekha\ttf.cpp

	AREA	|.text$mn|, CODE, ARM64

|?TTF_READ_16@@YAGPEAU_ttf_@@@Z| PROC			; TTF_READ_16

; 94   : uint16_t TTF_READ_16(TTFont*f) {

|$LN5|
	stp         fp,lr,[sp,#-0x20]!
	mov         fp,sp
	str         x0,[sp,#0x18]

; 95   : 	int a = TTF_READ_8(f);

	ldr         x0,[sp,#0x18]
	bl          |?TTF_READ_8@@YAEPEAU_ttf_@@@Z|
	uxtb        w8,w0
	mov         w8,w8
	str         w8,[sp,#0x10]

; 96   : 	int b = TTF_READ_8(f);

	ldr         x0,[sp,#0x18]
	bl          |?TTF_READ_8@@YAEPEAU_ttf_@@@Z|
	uxtb        w8,w0
	mov         w8,w8
	str         w8,[sp,#0x14]

; 97   : 	if (a < 0 || b < 0) return 0;

	ldr         w8,[sp,#0x10]
	cmp         w8,#0
	blt         |$LN3@TTF_READ_1|
	ldr         w8,[sp,#0x14]
	cmp         w8,#0
	bge         |$LN2@TTF_READ_1|
|$LN3@TTF_READ_1|
	mov         w0,#0
	b           |$LN1@TTF_READ_1|
|$LN2@TTF_READ_1|

; 98   : 	return (((a & 0xff) << 8 )|( b & 0xff));

	ldr         w8,[sp,#0x10]
	and         w8,w8,#0xFF
	lsl         w9,w8,#8
	ldr         w8,[sp,#0x14]
	and         w8,w8,#0xFF
	orr         w8,w9,w8
	uxth        w0,w8
	mov         w0,w0
|$LN1@TTF_READ_1|
	ldp         fp,lr,[sp],#0x20
	ret

	ENDP  ; |?TTF_READ_16@@YAGPEAU_ttf_@@@Z|, TTF_READ_16

; Function compile flags: /Odtp
; File C:\Users\paras\source\repos\grep-name\XenevaOS\Libs\Chitralekha\ttf.cpp

	AREA	|.text$mn|, CODE, ARM64

|?TTF_READ_8@@YAEPEAU_ttf_@@@Z| PROC			; TTF_READ_8

; 89   : uint8_t TTF_READ_8(TTFont *f) {

|$LN3|
	sub         sp,sp,#0x10
	str         x0,[sp,#8]

; 90   : 	return *(f->memptr++);

	ldr         x8,[sp,#8]
	add         x8,x8,#0x88
	ldr         x8,[x8]
	ldrb        w8,[x8]
	strb        w8,[sp]
	ldr         x8,[sp,#8]
	add         x8,x8,#0x88
	ldr         x8,[x8]
	add         x9,x8,#1
	ldr         x8,[sp,#8]
	add         x8,x8,#0x88
	str         x9,[x8]
	ldrb        w0,[sp]
	add         sp,sp,#0x10
	ret

	ENDP  ; |?TTF_READ_8@@YAEPEAU_ttf_@@@Z|, TTF_READ_8

; Function compile flags: /Odtp
; File C:\Users\paras\source\repos\grep-name\XenevaOS\Libs\Chitralekha\ttf.cpp

	AREA	|.text$mn|, CODE, ARM64

|?TTFSwap16@@YAGG@Z| PROC				; TTFSwap16

; 81   : uint16_t TTFSwap16(uint16_t value) {

|$LN3|
	sub         sp,sp,#0x10
	uxth        w8,w0
	strh        w8,[sp]

; 82   : 	int left_most_byte = (value & 0x000000FF);

	ldrh        w8,[sp]
	mov         w8,w8
	and         w8,w8,#0xFF
	str         w8,[sp,#4]

; 83   : 	int left_middle_byte = (value & 0x0000ff00) >> 8;

	ldrh        w8,[sp]
	mov         w8,w8
	and         w8,w8,#0xFF00
	asr         w8,w8,#8
	str         w8,[sp,#8]

; 84   : 	int result = ((left_most_byte & 0xff) << 8 | left_middle_byte & 0xff);

	ldr         w8,[sp,#4]
	and         w8,w8,#0xFF
	lsl         w9,w8,#8
	ldr         w8,[sp,#8]
	and         w8,w8,#0xFF
	orr         w8,w9,w8
	str         w8,[sp,#0xC]

; 85   : 	return result;

	ldr         w8,[sp,#0xC]
	uxth        w0,w8
	mov         w0,w0
	add         sp,sp,#0x10
	ret

	ENDP  ; |?TTFSwap16@@YAGG@Z|, TTFSwap16

; Function compile flags: /Odtp
; File C:\Users\paras\source\repos\grep-name\XenevaOS\Libs\Chitralekha\ttf.cpp

	AREA	|.text$mn|, CODE, ARM64

|?TTFSwap32@@YAHH@Z| PROC				; TTFSwap32

; 63   : int TTFSwap32(int value) {

|$LN3|
	sub         sp,sp,#0x20
	str         w0,[sp]

; 64   : 	int leftmostbyte, leftmiddlebyte, rightmiddlebyte, rightmostbyte;
; 65   : 	int result;
; 66   : 
; 67   : 	leftmostbyte = (value & 0x000000FF) >> 0;

	ldr         w8,[sp]
	and         w8,w8,#0xFF
	str         w8,[sp,#4]

; 68   : 	leftmiddlebyte = (value & 0x0000FF00) >> 8;

	ldr         w8,[sp]
	and         w8,w8,#0xFF00
	asr         w8,w8,#8
	str         w8,[sp,#8]

; 69   : 	rightmiddlebyte = (value & 0x00ff0000) >> 16;

	ldr         w8,[sp]
	and         w8,w8,#0xFF0000
	asr         w8,w8,#0x10
	str         w8,[sp,#0xC]

; 70   : 	rightmostbyte = (value & 0xff000000) >> 24;

	ldr         w8,[sp]
	and         w8,w8,#0xFF000000
	lsr         w8,w8,#0x18
	str         w8,[sp,#0x10]

; 71   : 
; 72   : 	result = ((leftmostbyte & 0xff) << 24 | (leftmiddlebyte & 0xff) << 16 | (rightmiddlebyte & 0xff) << 8

	ldr         w8,[sp,#4]
	and         w8,w8,#0xFF
	lsl         w9,w8,#0x18
	ldr         w8,[sp,#8]
	and         w8,w8,#0xFF
	lsl         w8,w8,#0x10
	orr         w9,w9,w8
	ldr         w8,[sp,#0xC]
	and         w8,w8,#0xFF
	lsl         w8,w8,#8
	orr         w9,w9,w8
	ldr         w8,[sp,#0x10]
	and         w8,w8,#0xFF
	orr         w8,w9,w8
	str         w8,[sp,#0x14]

; 73   : 		| rightmostbyte & 0xff);
; 74   : 	return result;

	ldr         w0,[sp,#0x14]
	add         sp,sp,#0x20
	ret

	ENDP  ; |?TTFSwap32@@YAHH@Z|, TTFSwap32

; Function compile flags: /Odtp
; File C:\Users\paras\source\repos\grep-name\XenevaOS\Libs\Chitralekha\ttf.cpp

	AREA	|.text$mn|, CODE, ARM64

|?TTFSetFontSize@@YAXPEAU_ttf_@@M@Z| PROC		; TTFSetFontSize

; 123  : void TTFSetFontSize(TTFont * font, float pointSz) {

|$LN4|
	sub         sp,sp,#0x10
	str         x0,[sp,#8]
	str         s0,[sp]

; 124  : 	pointSz *= 4.0 / 3.0;

	ldr         s16,[sp]
	fcvt        d17,s16
	ldr         d16,|$LN3@TTFSetFont|
	fmul        d16,d17,d16
	fcvt        s16,d16
	str         s16,[sp]

; 125  : 	font->scale = pointSz / font->unitsPerEm;//(pointSz * ChGetScreenDPI(font->canv) * 0.3937 / 72 * font->unitsPerEm);

	ldr         x8,[sp,#8]
	add         x8,x8,#0x74
	ldrh        w8,[x8]
	mov         w8,w8
	scvtf       s17,w8
	ldr         s16,[sp]
	fdiv        s16,s16,s17
	ldr         x8,[sp,#8]
	add         x8,x8,#0x90
	str         s16,[x8]
	add         sp,sp,#0x10
	ret
	nop
|$LN3@TTFSetFont|
	DCFD         1.33333

	ENDP  ; |?TTFSetFontSize@@YAXPEAU_ttf_@@M@Z|, TTFSetFontSize

; Function compile flags: /Odtp
; File C:\Users\paras\source\repos\grep-name\XenevaOS\Libs\Chitralekha\ttf.cpp

	AREA	|.text$mn|, CODE, ARM64

|?TTFLoadFont@@YAPEAU_ttf_@@PEAU_ChCanvas_@@PEAE@Z| PROC ; TTFLoadFont

; 315  : TTFont* TTFLoadFont(ChCanvas* canv, unsigned char* buffer) {

|$LN43|
	stp         fp,lr,[sp,#-0xA0]!
	mov         fp,sp
	str         x0,[sp,#0x70]
	str         x1,[sp,#0x30]

; 316  : 	TTFOffsetSubtable * offtable = (TTFOffsetSubtable*)buffer;

	ldr         x8,[sp,#0x30]
	str         x8,[sp,#0x68]

; 317  : 	TTFTableDirectory* tabledir = (TTFTableDirectory*)(buffer + sizeof(TTFOffsetSubtable));

	ldr         x8,[sp,#0x30]
	add         x8,x8,#0xC
	str         x8,[sp,#0x50]

; 318  : 	uint16_t numTable = TTFSwap16(offtable->numTables);

	ldr         x8,[sp,#0x68]
	add         x8,x8,#4
	ldrh        w0,[x8]
	bl          |?TTFSwap16@@YAGG@Z|
	uxth        w8,w0
	strh        w8,[sp,#0x40]

; 319  : 	TTFont* font = (TTFont*)malloc(sizeof(TTFont));

	mov         w0,#0xA0
	bl          malloc
	str         x0,[sp,#0x10]

; 320  : 	memset(font, 0, sizeof(TTFont));

	ldr         x10,[sp,#0x10]
	mov         x9,#0
	add         x8,x10,#0xA0
|$LN32@TTFLoadFon|
	stp         x9,x9,[x10]
	add         x10,x10,#0x10
	cmp         x10,x8
	bne         |$LN32@TTFLoadFon|

; 321  : 	font->canv = canv;

	ldr         x8,[sp,#0x10]
	add         x9,x8,#0x98
	ldr         x8,[sp,#0x70]
	str         x8,[x9]

; 322  : 	font->base = buffer;

	ldr         x9,[sp,#0x10]
	ldr         x8,[sp,#0x30]
	str         x8,[x9]

; 323  : 	for (int i = 0; i < numTable; ++i) {

	mov         w8,#0
	str         w8,[sp,#0x28]
	b           |$LN4@TTFLoadFon|
|$LN2@TTFLoadFon|
	ldr         w8,[sp,#0x28]
	add         w8,w8,#1
	str         w8,[sp,#0x28]
|$LN4@TTFLoadFon|
	ldrh        w9,[sp,#0x40]
	mov         w9,w9
	ldr         w8,[sp,#0x28]
	cmp         w8,w9
	bge         |$LN3@TTFLoadFon|

; 324  : 		uint32_t tag = TTFSwap32(tabledir[i].tag);

	ldr         w8,[sp,#0x28]
	sxtw        x9,w8
	mov         x8,#0x10
	mul         x9,x9,x8
	ldr         x8,[sp,#0x50]
	add         x8,x8,x9
	ldr         w0,[x8]
	bl          |?TTFSwap32@@YAHH@Z|
	mov         w0,w0
	str         w0,[sp,#0x48]

; 325  : 		uint32_t offset = TTFSwap32(tabledir[i].offset);

	ldr         w8,[sp,#0x28]
	sxtw        x9,w8
	mov         x8,#0x10
	mul         x9,x9,x8
	ldr         x8,[sp,#0x50]
	add         x8,x8,x9
	add         x8,x8,#8
	ldr         w0,[x8]
	bl          |?TTFSwap32@@YAHH@Z|
	mov         w0,w0
	str         w0,[sp,#0x20]

; 326  : 		uint32_t len = TTFSwap32(tabledir[i].length);

	ldr         w8,[sp,#0x28]
	sxtw        x9,w8
	mov         x8,#0x10
	mul         x9,x9,x8
	ldr         x8,[sp,#0x50]
	add         x8,x8,x9
	add         x8,x8,#0xC
	ldr         w0,[x8]
	bl          |?TTFSwap32@@YAHH@Z|
	mov         w0,w0
	str         w0,[sp,#0x24]

; 327  : 		switch (tag)

	ldr         w8,[sp,#0x48]
	str         w8,[sp,#0x18]
	ldr         w9,|$LN34@TTFLoadFon|
	ldr         w8,[sp,#0x18]
	cmp         w8,w9
	bhi         |$LN29@TTFLoadFon|
	ldr         w9,|$LN34@TTFLoadFon|
	ldr         w8,[sp,#0x18]
	cmp         w8,w9
	beq         |$LN14@TTFLoadFon|
	ldr         w9,|$LN35@TTFLoadFon|
	ldr         w8,[sp,#0x18]
	cmp         w8,w9
	bhi         |$LN30@TTFLoadFon|
	ldr         w9,|$LN35@TTFLoadFon|
	ldr         w8,[sp,#0x18]
	cmp         w8,w9
	beq         |$LN12@TTFLoadFon|
	ldr         w9,|$LN36@TTFLoadFon|
	ldr         w8,[sp,#0x18]
	cmp         w8,w9
	beq         |$LN10@TTFLoadFon|
	ldr         w9,|$LN37@TTFLoadFon|
	ldr         w8,[sp,#0x18]
	cmp         w8,w9
	beq         |$LN11@TTFLoadFon|
	b           |$LN19@TTFLoadFon|
|$LN30@TTFLoadFon|
	ldr         w9,|$LN38@TTFLoadFon|
	ldr         w8,[sp,#0x18]
	cmp         w8,w9
	beq         |$LN13@TTFLoadFon|
	b           |$LN19@TTFLoadFon|
|$LN29@TTFLoadFon|
	ldr         w9,|$LN39@TTFLoadFon|
	ldr         w8,[sp,#0x18]
	cmp         w8,w9
	bhi         |$LN31@TTFLoadFon|
	ldr         w9,|$LN39@TTFLoadFon|
	ldr         w8,[sp,#0x18]
	cmp         w8,w9
	beq         |$LN17@TTFLoadFon|
	ldr         w9,|$LN40@TTFLoadFon|
	ldr         w8,[sp,#0x18]
	cmp         w8,w9
	beq         |$LN15@TTFLoadFon|
	ldr         w9,|$LN41@TTFLoadFon|
	ldr         w8,[sp,#0x18]
	cmp         w8,w9
	beq         |$LN16@TTFLoadFon|
	b           |$LN19@TTFLoadFon|
|$LN31@TTFLoadFon|
	ldr         w9,|$LN42@TTFLoadFon|
	ldr         w8,[sp,#0x18]
	cmp         w8,w9
	beq         |$LN18@TTFLoadFon|
	b           |$LN19@TTFLoadFon|
|$LN10@TTFLoadFon|

; 328  : 		{
; 329  : 		case TTF_TABLE_CMAP:
; 330  : 			font->cmap.base = buffer + offset;

	ldr         w8,[sp,#0x20]
	uxtw        x9,w8
	ldr         x8,[sp,#0x30]
	add         x9,x8,x9
	ldr         x8,[sp,#0x10]
	add         x8,x8,#8
	str         x9,[x8]

; 331  : 			font->cmap.len = len;

	ldr         x8,[sp,#0x10]
	add         x8,x8,#8
	add         x9,x8,#8
	ldr         w8,[sp,#0x24]
	str         w8,[x9]

; 332  : 			break;

	b           |$LN5@TTFLoadFon|
|$LN11@TTFLoadFon|

; 333  : 		case TTF_TABLE_GLYF:
; 334  : 			font->glyf.base = buffer + offset;

	ldr         w8,[sp,#0x20]
	uxtw        x9,w8
	ldr         x8,[sp,#0x30]
	add         x9,x8,x9
	ldr         x8,[sp,#0x10]
	add         x8,x8,#0x14
	str         x9,[x8]

; 335  : 			font->glyf.len = len;

	ldr         x8,[sp,#0x10]
	add         x8,x8,#0x14
	add         x9,x8,#8
	ldr         w8,[sp,#0x24]
	str         w8,[x9]

; 336  : 			break;

	b           |$LN5@TTFLoadFon|
|$LN12@TTFLoadFon|

; 337  : 		case TTF_TABLE_HEAD:
; 338  : 			font->head.base = buffer + offset;

	ldr         w8,[sp,#0x20]
	uxtw        x9,w8
	ldr         x8,[sp,#0x30]
	add         x9,x8,x9
	ldr         x8,[sp,#0x10]
	add         x8,x8,#0x20
	str         x9,[x8]

; 339  : 			font->head.len = len;

	ldr         x8,[sp,#0x10]
	add         x8,x8,#0x20
	add         x9,x8,#8
	ldr         w8,[sp,#0x24]
	str         w8,[x9]

; 340  : 			break;

	b           |$LN5@TTFLoadFon|
|$LN13@TTFLoadFon|

; 341  : 		case TTF_TABLE_HHEA:
; 342  : 			font->hhea.base = buffer + offset;

	ldr         w8,[sp,#0x20]
	uxtw        x9,w8
	ldr         x8,[sp,#0x30]
	add         x9,x8,x9
	ldr         x8,[sp,#0x10]
	add         x8,x8,#0x2C
	str         x9,[x8]

; 343  : 			font->hhea.len = len;

	ldr         x8,[sp,#0x10]
	add         x8,x8,#0x2C
	add         x9,x8,#8
	ldr         w8,[sp,#0x24]
	str         w8,[x9]

; 344  : 			break;

	b           |$LN5@TTFLoadFon|
|$LN14@TTFLoadFon|

; 345  : 		case TTF_TABLE_HMTX:
; 346  : 			font->hmtx.base = buffer + offset;

	ldr         w8,[sp,#0x20]
	uxtw        x9,w8
	ldr         x8,[sp,#0x30]
	add         x9,x8,x9
	ldr         x8,[sp,#0x10]
	add         x8,x8,#0x38
	str         x9,[x8]

; 347  : 			font->hmtx.len = len;

	ldr         x8,[sp,#0x10]
	add         x8,x8,#0x38
	add         x9,x8,#8
	ldr         w8,[sp,#0x24]
	str         w8,[x9]

; 348  : 			break;

	b           |$LN5@TTFLoadFon|
|$LN15@TTFLoadFon|

; 349  : 		case TTF_TABLE_LOCA:
; 350  : 			font->loca.base = buffer + offset;

	ldr         w8,[sp,#0x20]
	uxtw        x9,w8
	ldr         x8,[sp,#0x30]
	add         x9,x8,x9
	ldr         x8,[sp,#0x10]
	add         x8,x8,#0x44
	str         x9,[x8]

; 351  : 			font->loca.len = len;

	ldr         x8,[sp,#0x10]
	add         x8,x8,#0x44
	add         x9,x8,#8
	ldr         w8,[sp,#0x24]
	str         w8,[x9]

; 352  : 			break;

	b           |$LN5@TTFLoadFon|
|$LN16@TTFLoadFon|

; 353  : 		case TTF_TABLE_MAXP:
; 354  : 			font->maxp.base = buffer + offset;

	ldr         w8,[sp,#0x20]
	uxtw        x9,w8
	ldr         x8,[sp,#0x30]
	add         x9,x8,x9
	ldr         x8,[sp,#0x10]
	add         x8,x8,#0x50
	str         x9,[x8]

; 355  : 			font->maxp.len = len;

	ldr         x8,[sp,#0x10]
	add         x8,x8,#0x50
	add         x9,x8,#8
	ldr         w8,[sp,#0x24]
	str         w8,[x9]

; 356  : 			break;

	b           |$LN5@TTFLoadFon|
|$LN17@TTFLoadFon|

; 357  : 		case TTF_TABLE_NAME:
; 358  : 			font->name.base = buffer + offset;

	ldr         w8,[sp,#0x20]
	uxtw        x9,w8
	ldr         x8,[sp,#0x30]
	add         x9,x8,x9
	ldr         x8,[sp,#0x10]
	add         x8,x8,#0x5C
	str         x9,[x8]

; 359  : 			font->name.len = len;

	ldr         x8,[sp,#0x10]
	add         x8,x8,#0x5C
	add         x9,x8,#8
	ldr         w8,[sp,#0x24]
	str         w8,[x9]

; 360  : 			break;

	b           |$LN5@TTFLoadFon|
|$LN18@TTFLoadFon|

; 361  : 		case TTF_TABLE_POST:
; 362  : 			font->post.base = buffer + offset;

	ldr         w8,[sp,#0x20]
	uxtw        x9,w8
	ldr         x8,[sp,#0x30]
	add         x9,x8,x9
	ldr         x8,[sp,#0x10]
	add         x8,x8,#0x68
	str         x9,[x8]

; 363  : 			font->post.len = len;

	ldr         x8,[sp,#0x10]
	add         x8,x8,#0x68
	add         x9,x8,#8
	ldr         w8,[sp,#0x24]
	str         w8,[x9]
|$LN19@TTFLoadFon|
|$LN5@TTFLoadFon|

; 364  : 			break;
; 365  : 		default:
; 366  : 			break;
; 367  : 		}
; 368  : 	}

	b           |$LN2@TTFLoadFon|
|$LN3@TTFLoadFon|

; 369  : 
; 370  : 	TTFHead* head = (TTFHead*)font->head.base;

	ldr         x8,[sp,#0x10]
	add         x8,x8,#0x20
	ldr         x8,[x8]
	str         x8,[sp,#0x60]

; 371  : 	font->unitsPerEm = TTFSwap16(head->unitsPerEm);

	ldr         x8,[sp,#0x60]
	add         x8,x8,#0x12
	ldrh        w0,[x8]
	bl          |?TTFSwap16@@YAGG@Z|
	uxth        w9,w0
	ldr         x8,[sp,#0x10]
	add         x8,x8,#0x74
	strh        w9,[x8]

; 372  : 	TTFCmap *cmap = (TTFCmap*)font->cmap.base;

	ldr         x8,[sp,#0x10]
	add         x8,x8,#8
	ldr         x8,[x8]
	str         x8,[sp,#0x78]

; 373  : 
; 374  : 	TTFCmapSubtable* sub = (TTFCmapSubtable*)(font->cmap.base + sizeof(TTFCmap));

	ldr         x8,[sp,#0x10]
	add         x8,x8,#8
	ldr         x8,[x8]
	add         x8,x8,#4
	str         x8,[sp,#0x58]

; 375  : 
; 376  : 	uint32_t best = 0;

	mov         w8,#0
	str         w8,[sp,#0x3C]

; 377  : 	int best_score = 0;

	mov         w8,#0
	str         w8,[sp,#0x38]

; 378  : 	for (int i = 0; i < TTFSwap16(cmap->numberSubtable); i++){

	mov         w8,#0
	str         w8,[sp,#0x2C]
	b           |$LN9@TTFLoadFon|
|$LN7@TTFLoadFon|
	ldr         w8,[sp,#0x2C]
	add         w8,w8,#1
	str         w8,[sp,#0x2C]
|$LN9@TTFLoadFon|
	ldr         x8,[sp,#0x78]
	add         x8,x8,#2
	ldrh        w0,[x8]
	bl          |?TTFSwap16@@YAGG@Z|
	uxth        w9,w0
	mov         w9,w9
	ldr         w8,[sp,#0x2C]
	cmp         w8,w9
	bge         |$LN8@TTFLoadFon|

; 379  : 		uint16_t platformID = TTFSwap16(sub[i].platformID);

	ldr         w8,[sp,#0x2C]
	sxtw        x9,w8
	mov         x8,#8
	mul         x9,x9,x8
	ldr         x8,[sp,#0x58]
	add         x8,x8,x9
	ldrh        w0,[x8]
	bl          |?TTFSwap16@@YAGG@Z|
	uxth        w8,w0
	strh        w8,[sp,#0x1C]

; 380  : 		uint16_t platformSpecificID = TTFSwap16(sub[i].platformSpecificID);

	ldr         w8,[sp,#0x2C]
	sxtw        x9,w8
	mov         x8,#8
	mul         x9,x9,x8
	ldr         x8,[sp,#0x58]
	add         x8,x8,x9
	add         x8,x8,#2
	ldrh        w0,[x8]
	bl          |?TTFSwap16@@YAGG@Z|
	uxth        w8,w0
	strh        w8,[sp,#0x1E]

; 381  : 		uint32_t offset = TTFSwap32(sub[i].offset);

	ldr         w8,[sp,#0x2C]
	sxtw        x9,w8
	mov         x8,#8
	mul         x9,x9,x8
	ldr         x8,[sp,#0x58]
	add         x8,x8,x9
	add         x8,x8,#4
	ldr         w0,[x8]
	bl          |?TTFSwap32@@YAHH@Z|
	mov         w0,w0
	str         w0,[sp,#0x44]

; 382  : 
; 383  : 		if ((platformID == 3 || platformID == 0) && platformSpecificID == 10){

	ldrh        w8,[sp,#0x1C]
	mov         w8,w8
	cmp         w8,#3
	beq         |$LN22@TTFLoadFon|
	ldrh        w8,[sp,#0x1C]
	mov         w8,w8
	cmp         w8,#0
	bne         |$LN20@TTFLoadFon|
|$LN22@TTFLoadFon|
	ldrh        w8,[sp,#0x1E]
	mov         w8,w8
	cmp         w8,#0xA
	bne         |$LN20@TTFLoadFon|

; 384  : 			best = offset;

	ldr         w8,[sp,#0x44]
	str         w8,[sp,#0x3C]

; 385  : 			best_score = 4;

	mov         w8,#4
	str         w8,[sp,#0x38]

; 386  : 		}

	b           |$LN21@TTFLoadFon|
|$LN20@TTFLoadFon|

; 387  : 		else if (platformID == 0 && platformSpecificID == 4){

	ldrh        w8,[sp,#0x1C]
	mov         w8,w8
	cmp         w8,#0
	bne         |$LN23@TTFLoadFon|
	ldrh        w8,[sp,#0x1E]
	mov         w8,w8
	cmp         w8,#4
	bne         |$LN23@TTFLoadFon|

; 388  : 			best = offset;

	ldr         w8,[sp,#0x44]
	str         w8,[sp,#0x3C]

; 389  : 			best_score = 4;

	mov         w8,#4
	str         w8,[sp,#0x38]

; 390  : 		}

	b           |$LN24@TTFLoadFon|
|$LN23@TTFLoadFon|

; 391  : 		else if (((platformID == 0 && platformSpecificID == 3) || (platformID == 3 && platformSpecificID == 1)) && best_score < 2) {

	ldrh        w8,[sp,#0x1C]
	mov         w8,w8
	cmp         w8,#0
	bne         |$LN27@TTFLoadFon|
	ldrh        w8,[sp,#0x1E]
	mov         w8,w8
	cmp         w8,#3
	beq         |$LN26@TTFLoadFon|
|$LN27@TTFLoadFon|
	ldrh        w8,[sp,#0x1C]
	mov         w8,w8
	cmp         w8,#3
	bne         |$LN25@TTFLoadFon|
	ldrh        w8,[sp,#0x1E]
	mov         w8,w8
	cmp         w8,#1
	bne         |$LN25@TTFLoadFon|
|$LN26@TTFLoadFon|
	ldr         w8,[sp,#0x38]
	cmp         w8,#2
	bge         |$LN25@TTFLoadFon|

; 392  : 			best = offset;

	ldr         w8,[sp,#0x44]
	str         w8,[sp,#0x3C]

; 393  : 			best_score = 2;

	mov         w8,#2
	str         w8,[sp,#0x38]
|$LN25@TTFLoadFon|
|$LN24@TTFLoadFon|
|$LN21@TTFLoadFon|

; 394  : 		}
; 395  : 	}

	b           |$LN7@TTFLoadFon|
|$LN8@TTFLoadFon|

; 396  : 
; 397  : 	TTFCmapFormat* cmap_format = (TTFCmapFormat*)(font->cmap.base + best);

	ldr         x8,[sp,#0x10]
	add         x10,x8,#8
	ldr         w8,[sp,#0x3C]
	uxtw        x9,w8
	ldr         x8,[x10]
	add         x8,x8,x9
	str         x8,[sp,#0x80]

; 398  : 	font->cmapStart = (unsigned char*)cmap_format;

	ldr         x8,[sp,#0x10]
	add         x9,x8,#0x78
	ldr         x8,[sp,#0x80]
	str         x8,[x9]

; 399  : 	int16_t* locatype = (int16_t*)(font->head.base + 50);

	ldr         x8,[sp,#0x10]
	add         x8,x8,#0x20
	ldr         x8,[x8]
	add         x8,x8,#0x32
	str         x8,[sp,#0x88]

; 400  : 	font->loca_type = TTFSwap16(head->indexToLocFormat);

	ldr         x8,[sp,#0x60]
	add         x8,x8,#0x32
	ldrsh       w8,[x8]
	uxth        w0,w8
	mov         w0,w0
	bl          |?TTFSwap16@@YAGG@Z|
	uxth        w9,w0
	ldr         x8,[sp,#0x10]
	add         x8,x8,#0x80
	strh        w9,[x8]

; 401  : 	uint32_t glyph = TTFGetGlyph(font, 'I');

	mov         w1,#0x49
	ldr         x0,[sp,#0x10]
	bl          |?TTFGetGlyph@@YAIPEAU_ttf_@@I@Z|
	mov         w0,w0
	str         w0,[sp,#0x4C]

; 402  : 	TTFMaxp* maxp = (TTFMaxp*)font->maxp.base;

	ldr         x8,[sp,#0x10]
	add         x8,x8,#0x50
	ldr         x8,[x8]
	str         x8,[sp,#0x90]

; 403  : 	TTFSetFontSize(font, 10);

	fmov        s0,#10
	ldr         x0,[sp,#0x10]
	bl          |?TTFSetFontSize@@YAXPEAU_ttf_@@M@Z|

; 404  : 	TTFDrawGlyph(font, glyph, 100,100);

	mov         w3,#0x64
	mov         w2,#0x64
	ldr         w1,[sp,#0x4C]
	ldr         x0,[sp,#0x10]
	bl          |?TTFDrawGlyph@@YAXPEAU_ttf_@@IHH@Z|

; 405  : 	return font;

	ldr         x0,[sp,#0x10]
	ldp         fp,lr,[sp],#0xA0
	ret
|$LN34@TTFLoadFon|
	DCD         0x686d7478
|$LN35@TTFLoadFon|
	DCD         0x68656164
|$LN36@TTFLoadFon|
	DCD         0x636d6170
|$LN37@TTFLoadFon|
	DCD         0x676c7966
|$LN38@TTFLoadFon|
	DCD         0x68686561
|$LN39@TTFLoadFon|
	DCD         0x6e616d65
|$LN40@TTFLoadFon|
	DCD         0x6c6f6361
|$LN41@TTFLoadFon|
	DCD         0x6d617870
|$LN42@TTFLoadFon|
	DCD         0x706f7374

	ENDP  ; |?TTFLoadFont@@YAPEAU_ttf_@@PEAU_ChCanvas_@@PEAE@Z|, TTFLoadFont

	END
