; Listing generated by Microsoft (R) Optimizing Compiler Version 19.29.30159.0 

	TTL	C:\Users\paras\source\repos\grep-name\XenevaOS\Libs\Chitralekha\ARM64\Debug\view.obj
	ARM64

	AREA	|.drectve|, DRECTVE


	AREA	|.rdata|, DATA, READONLY
|$SG5465| DCB	"ListView destroyed ", 0xd, 0xa, 0x0
	%	2
|$SG5534| DCB	"[ListView]: Maximum selected item-> %s ", 0xd, 0xa, 0x0
	EXPORT	|ChCreateListView|
	EXPORT	|ChListViewSetScrollpane|
	EXPORT	|ChListViewAddItem|
	EXPORT	|ChListViewSetListItemIcon|
	EXPORT	|ChListViewClear|
	EXPORT	|ChListViewRepaint|
	EXPORT	|ChListViewGetSelectedItem|
	EXPORT	|?ChListViewMouseEvent@@YAXPEAU_ChWidget_@@PEAU_chwin_@@HHH@Z| ; ChListViewMouseEvent
	EXPORT	|?ChListViewScrollEvent@@YAXPEAU_ChWidget_@@PEAU_chwin_@@HE@Z| ; ChListViewScrollEvent
	EXPORT	|?ChListViewDestroy@@YAXPEAU_ChWidget_@@PEAU_chwin_@@@Z| ; ChListViewDestroy
	IMPORT	|_KePrint|
	IMPORT	|initialize_list|
	IMPORT	|list_add|
	IMPORT	|list_remove|
	IMPORT	|list_get_at|
	IMPORT	|malloc|
	IMPORT	|free|
	IMPORT	|ChWindowUpdate|
	IMPORT	|ChScrollUpdateVerticalScroll|
	IMPORT	|ChScrollUpdateHorizontalScroll|
	IMPORT	|_KeProcessSleep|
	IMPORT	|?ChDefaultListViewPainter@@YAXPEAU_ChWidget_@@PEAU_chwin_@@@Z| ; ChDefaultListViewPainter
	IMPORT	|_fltused|

	AREA	|.pdata|, PDATA
|$pdata$ChCreateListView| DCD imagerel |$LN5|
	DCD	0x1e0012d
	;Flags[SingleProEpi] functionLength[300] RegF[0] RegI[0] H[0] frameChainReturn[Chained] frameSize[48]
|$pdata$ChListViewSetScrollpane| DCD imagerel |$LN3|
	DCD	0x80012d
	;Flags[SingleProEpi] functionLength[300] RegF[0] RegI[0] H[0] frameChainReturn[UnChained] frameSize[16]
|$pdata$ChListViewAddItem| DCD imagerel |$LN12|
	DCD	0x4e00331
	;Flags[SingleProEpi] functionLength[816] RegF[0] RegI[0] H[0] frameChainReturn[Chained] frameSize[144]
|$pdata$ChListViewSetListItemIcon| DCD imagerel |$LN5|
	DCD	0x800045
	;Flags[SingleProEpi] functionLength[68] RegF[0] RegI[0] H[0] frameChainReturn[UnChained] frameSize[16]
|$pdata$ChListViewClear| DCD imagerel |$LN6|
	DCD	0x260012d
	;Flags[SingleProEpi] functionLength[300] RegF[0] RegI[0] H[0] frameChainReturn[Chained] frameSize[64]
|$pdata$ChListViewRepaint| DCD imagerel |$LN5|
	DCD	0x16001a5
	;Flags[SingleProEpi] functionLength[420] RegF[0] RegI[0] H[0] frameChainReturn[Chained] frameSize[32]
|$pdata$ChListViewGetSelectedItem| DCD imagerel |$LN4|
	DCD	0x1600055
	;Flags[SingleProEpi] functionLength[84] RegF[0] RegI[0] H[0] frameChainReturn[Chained] frameSize[32]
|$pdata$?ChListViewMouseEvent@@YAXPEAU_ChWidget_@@PEAU_chwin_@@HHH@Z| DCD imagerel |$LN18|
	DCD	0x3600501
	;Flags[SingleProEpi] functionLength[1280] RegF[0] RegI[0] H[0] frameChainReturn[Chained] frameSize[96]
|$pdata$?ChListViewScrollEvent@@YAXPEAU_ChWidget_@@PEAU_chwin_@@HE@Z| DCD imagerel |$LN7|
	DCD	0x2e0014d
	;Flags[SingleProEpi] functionLength[332] RegF[0] RegI[0] H[0] frameChainReturn[Chained] frameSize[80]
|$pdata$?ChListViewDestroy@@YAXPEAU_ChWidget_@@PEAU_chwin_@@@Z| DCD imagerel |$LN6|
	DCD	0x260009d
	;Flags[SingleProEpi] functionLength[156] RegF[0] RegI[0] H[0] frameChainReturn[Chained] frameSize[64]
; Function compile flags: /Odtp
; File C:\Users\paras\source\repos\grep-name\XenevaOS\Libs\Chitralekha\widgets\view.cpp

	AREA	|.text$mn|, CODE, ARM64

|?ChListViewDestroy@@YAXPEAU_ChWidget_@@PEAU_chwin_@@@Z| PROC ; ChListViewDestroy

; 135  : void ChListViewDestroy(ChWidget* wid, ChWindow* win){

|$LN6|
	stp         fp,lr,[sp,#-0x40]!
	mov         fp,sp
	str         x0,[sp,#0x28]
	str         x1,[sp,#0x30]

; 136  : 	ChListView* lv = (ChListView*)wid;

	ldr         x8,[sp,#0x28]
	str         x8,[sp,#0x18]

; 137  : 	for (int i = 0; i < lv->itemList->pointer; i++) {

	mov         w8,#0
	str         w8,[sp,#0x10]
	b           |$LN4@ChListView|
|$LN2@ChListView|
	ldr         w8,[sp,#0x10]
	add         w8,w8,#1
	str         w8,[sp,#0x10]
|$LN4@ChListView|
	ldr         x8,[sp,#0x18]
	add         x8,x8,#0x50
	ldr         x8,[x8]
	ldr         w9,[x8]
	ldr         w8,[sp,#0x10]
	cmp         w8,w9
	bhs         |$LN3@ChListView|

; 138  : 		ChListItem* li = (ChListItem*)list_remove(lv->itemList, i);

	ldr         x8,[sp,#0x18]
	add         x8,x8,#0x50
	ldr         w1,[sp,#0x10]
	ldr         x0,[x8]
	bl          list_remove
	str         x0,[sp,#0x20]

; 139  : 		free(li->itemText);

	ldr         x8,[sp,#0x20]
	add         x8,x8,#0x20
	ldr         x0,[x8]
	bl          free

; 140  : 		free(li);

	ldr         x0,[sp,#0x20]
	bl          free

; 141  : 	}

	b           |$LN2@ChListView|
|$LN3@ChListView|

; 142  : 	free(lv);

	ldr         x0,[sp,#0x18]
	bl          free

; 143  : 	_KePrint("ListView destroyed \r\n");

	adrp        x8,|$SG5465|
	add         x0,x8,PageOffset(|$SG5465|)
	bl          _KePrint
	ldp         fp,lr,[sp],#0x40
	ret

	ENDP  ; |?ChListViewDestroy@@YAXPEAU_ChWidget_@@PEAU_chwin_@@@Z|, ChListViewDestroy

; Function compile flags: /Odtp
; File C:\Users\paras\source\repos\grep-name\XenevaOS\Libs\Chitralekha\widgets\view.cpp

	AREA	|.text$mn|, CODE, ARM64

|?ChListViewScrollEvent@@YAXPEAU_ChWidget_@@PEAU_chwin_@@HE@Z| PROC ; ChListViewScrollEvent

; 102  : void ChListViewScrollEvent(ChWidget* wid, ChWindow* win, int scollVal, uint8_t type) {

|$LN7|
	stp         fp,lr,[sp,#-0x50]!
	mov         fp,sp
	str         x0,[sp,#0x40]
	str         x1,[sp,#0x30]
	str         w2,[sp,#0x38]
	uxtb        w8,w3
	strb        w8,[sp,#0x11]

; 103  : 	ChListView* lv = (ChListView*)wid;

	ldr         x8,[sp,#0x40]
	str         x8,[sp,#0x18]

; 104  : 
; 105  : 	int display_idx = lv->scrollpane->vScrollBar.scrollOffset / LIST_VIEW_ITEM_HEIGHT;

	ldr         x8,[sp,#0x18]
	add         x8,x8,#0x60
	ldr         x8,[x8]
	add         x8,x8,#0xA0
	add         x8,x8,#0x40
	ldr         d17,[x8]
	fmov        d16,#24
	fdiv        d16,d17,d16
	fcvtzs      w8,d16
	str         w8,[sp,#0x20]

; 106  : 
; 107  : 	bool _view_update = false;

	mov         w8,#0
	strb        w8,[sp,#0x10]

; 108  : 	if (type == CHITRALEKHA_SCROLL_TYPE_VERTICAL){

	ldrb        w8,[sp,#0x11]
	mov         w8,w8
	cmp         w8,#2
	bne         |$LN2@ChListView|

; 109  : 		lv->currentStartIndex = display_idx;

	ldr         x8,[sp,#0x18]
	add         x9,x8,#0x74
	ldr         w8,[sp,#0x20]
	str         w8,[x9]

; 110  : 		//lv->horizontalRenderY = (lv->wid.y - ((lv->wid.y + lv->scrollpane->vScrollBar.thumb_posy) - lv->wid.y)) + win->app->baseFont->fontHeight; //LIST_VIEW_ITEM_HEIGHT;
; 111  : 		_view_update = true;

	mov         w8,#1
	strb        w8,[sp,#0x10]
|$LN2@ChListView|

; 112  : 
; 113  : 	}
; 114  : 	
; 115  : 	if (type == CHITRALEKHA_SCROLL_TYPE_HORIZONTAL){

	ldrb        w8,[sp,#0x11]
	mov         w8,w8
	cmp         w8,#1
	bne         |$LN3@ChListView|

; 116  : 		lv->currentStartIndex = display_idx;

	ldr         x8,[sp,#0x18]
	add         x9,x8,#0x74
	ldr         w8,[sp,#0x20]
	str         w8,[x9]

; 117  : 		_view_update = true;

	mov         w8,#1
	strb        w8,[sp,#0x10]
|$LN3@ChListView|

; 118  : 	}
; 119  : 
; 120  : 	if (_view_update){

	ldrsb       w8,[sp,#0x10]
	mov         w8,w8
	cmp         w8,#0
	beq         |$LN4@ChListView|

; 121  : 		if (lv->wid.ChPaintHandler)

	ldr         x8,[sp,#0x18]
	add         x8,x8,#0x40
	ldr         x8,[x8]
	cmp         x8,#0
	beq         |$LN5@ChListView|

; 122  : 			lv->wid.ChPaintHandler((ChWidget*)lv, win);

	ldr         x8,[sp,#0x18]
	add         x8,x8,#0x40
	ldr         x1,[sp,#0x30]
	ldr         x0,[sp,#0x18]
	ldr         x8,[x8]
	blr         x8
|$LN5@ChListView|

; 123  : 		int update_w = lv->wid.w; // +lv->scrollpane->vScrollBar.bar_w;

	ldr         x8,[sp,#0x18]
	add         x8,x8,#8
	ldr         w8,[x8]
	str         w8,[sp,#0x28]

; 124  : 		int update_h = lv->wid.h;// +lv->scrollpane->hScrollBar.bar_h;

	ldr         x8,[sp,#0x18]
	add         x8,x8,#0xC
	ldr         w8,[x8]
	str         w8,[sp,#0x24]

; 125  : 		ChWindowUpdate(win, lv->wid.x, lv->wid.y,update_w, update_h, 0, 1);

	ldr         x8,[sp,#0x18]
	add         x9,x8,#4
	ldr         x8,[sp,#0x18]
	mov         w6,#1
	mov         w5,#0
	ldr         w4,[sp,#0x24]
	ldr         w3,[sp,#0x28]
	ldr         w2,[x9]
	ldr         w1,[x8]
	ldr         x0,[sp,#0x30]
	bl          ChWindowUpdate

; 126  : 		lv->lastNodeIndex = lv->currentStartIndex;

	ldr         x8,[sp,#0x18]
	add         x10,x8,#0x74
	ldr         x8,[sp,#0x18]
	add         x9,x8,#0x78
	ldr         w8,[x10]
	str         w8,[x9]
|$LN4@ChListView|
	ldp         fp,lr,[sp],#0x50
	ret

	ENDP  ; |?ChListViewScrollEvent@@YAXPEAU_ChWidget_@@PEAU_chwin_@@HE@Z|, ChListViewScrollEvent

; Function compile flags: /Odtp
; File C:\Users\paras\source\repos\grep-name\XenevaOS\Libs\Chitralekha\widgets\view.cpp

	AREA	|.text$mn|, CODE, ARM64

|?ChListViewMouseEvent@@YAXPEAU_ChWidget_@@PEAU_chwin_@@HHH@Z| PROC ; ChListViewMouseEvent

; 37   : void ChListViewMouseEvent(ChWidget* widget, ChWindow* win, int x, int y, int button) {

|$LN18|
	stp         fp,lr,[sp,#-0x60]!
	mov         fp,sp
	str         x0,[sp,#0x58]
	str         x1,[sp,#0x38]
	str         w2,[sp,#0x44]
	str         w3,[sp,#0x48]
	str         w4,[sp,#0x20]

; 38   : 	ChListView *lv = (ChListView*)widget;

	ldr         x8,[sp,#0x58]
	str         x8,[sp,#0x18]

; 39   : 	int display_idx = ((lv->scrollpane->vScrollBar.thumb_posy * lv->scrollpane->vScrollBar.scrollAmount)) / LIST_VIEW_ITEM_HEIGHT;

	ldr         x8,[sp,#0x18]
	add         x8,x8,#0x60
	ldr         x8,[x8]
	add         x8,x8,#0xA0
	add         x8,x8,#0x18
	ldr         w8,[x8]
	scvtf       d17,w8
	ldr         x8,[sp,#0x18]
	add         x8,x8,#0x60
	ldr         x8,[x8]
	add         x8,x8,#0xA0
	add         x8,x8,#0x38
	ldr         d16,[x8]
	fmul        d17,d17,d16
	fmov        d16,#24
	fdiv        d16,d17,d16
	fcvtzs      w8,d16
	str         w8,[sp,#0x40]

; 40   : 	//display_idx *= lv->scrollpane->vScrollBar.scrollAmount;
; 41   : 	bool _view_update = false;

	mov         w8,#0
	strb        w8,[sp,#0x10]

; 42   : 	/* this messages applies only to vertical scrollbar*/
; 43   : 	if (button == DEODHAI_MOUSE_MSG_SCROLL_UP) {

	ldr         w8,[sp,#0x20]
	cmp         w8,#5
	bne         |$LN5@ChListView|

; 44   : 		if (lv->scrollpane) {

	ldr         x8,[sp,#0x18]
	add         x8,x8,#0x60
	ldr         x8,[x8]
	cmp         x8,#0
	beq         |$LN6@ChListView|

; 45   : 			lv->scrollpane->vScrollBar.thumb_posy -= lv->scrollpane->vScrollBar.scrollAmount;

	ldr         x8,[sp,#0x18]
	add         x8,x8,#0x60
	ldr         x8,[x8]
	add         x8,x8,#0xA0
	add         x10,x8,#0x18
	ldr         x8,[sp,#0x18]
	add         x8,x8,#0x60
	ldr         x8,[x8]
	add         x8,x8,#0xA0
	add         x9,x8,#0x38
	ldr         w8,[x10]
	scvtf       d17,w8
	ldr         d16,[x9]
	fsub        d16,d17,d16
	ldr         x8,[sp,#0x18]
	add         x8,x8,#0x60
	ldr         x8,[x8]
	add         x8,x8,#0xA0
	add         x9,x8,#0x18
	fcvtzs      w8,d16
	str         w8,[x9]

; 46   : 			lv->scrollpane->vScrollBar.update = 1;

	ldr         x8,[sp,#0x18]
	add         x8,x8,#0x60
	ldr         x8,[x8]
	add         x8,x8,#0xA0
	add         x9,x8,#1
	mov         w8,#1
	strb        w8,[x9]

; 47   : 			lv->currentStartIndex = display_idx;

	ldr         x8,[sp,#0x18]
	add         x9,x8,#0x74
	ldr         w8,[sp,#0x40]
	str         w8,[x9]

; 48   : 			if (lv->scrollpane->wid.ChPaintHandler)

	ldr         x8,[sp,#0x18]
	add         x8,x8,#0x60
	ldr         x8,[x8]
	add         x8,x8,#0x40
	ldr         x8,[x8]
	cmp         x8,#0
	beq         |$LN7@ChListView|

; 49   : 				lv->scrollpane->wid.ChPaintHandler((ChWidget*)lv->scrollpane, win);

	ldr         x8,[sp,#0x18]
	add         x9,x8,#0x60
	ldr         x8,[sp,#0x18]
	add         x8,x8,#0x60
	ldr         x8,[x8]
	add         x8,x8,#0x40
	ldr         x1,[sp,#0x38]
	ldr         x0,[x9]
	ldr         x8,[x8]
	blr         x8
|$LN7@ChListView|

; 50   : 			_view_update = true;

	mov         w8,#1
	strb        w8,[sp,#0x10]

; 51   : #ifdef ARCH_X64
; 52   : 			_KeProcessSleep(100);
; 53   : #elif ARCH_ARM64
; 54   : 			_KeProcessSleep(1);

	mov         x0,#1
	bl          _KeProcessSleep
|$LN6@ChListView|
|$LN5@ChListView|

; 55   : #endif
; 56   : 		}
; 57   : 	}
; 58   : 
; 59   : 	if (button == DEODHAI_MOUSE_MSG_SCROLL_DOWN) {

	ldr         w8,[sp,#0x20]
	cmp         w8,#6
	bne         |$LN8@ChListView|

; 60   : 		if (lv->scrollpane) {

	ldr         x8,[sp,#0x18]
	add         x8,x8,#0x60
	ldr         x8,[x8]
	cmp         x8,#0
	beq         |$LN9@ChListView|

; 61   : 			lv->scrollpane->vScrollBar.thumb_posy += lv->scrollpane->vScrollBar.scrollAmount;

	ldr         x8,[sp,#0x18]
	add         x8,x8,#0x60
	ldr         x8,[x8]
	add         x8,x8,#0xA0
	add         x10,x8,#0x18
	ldr         x8,[sp,#0x18]
	add         x8,x8,#0x60
	ldr         x8,[x8]
	add         x8,x8,#0xA0
	add         x9,x8,#0x38
	ldr         w8,[x10]
	scvtf       d17,w8
	ldr         d16,[x9]
	fadd        d16,d17,d16
	ldr         x8,[sp,#0x18]
	add         x8,x8,#0x60
	ldr         x8,[x8]
	add         x8,x8,#0xA0
	add         x9,x8,#0x18
	fcvtzs      w8,d16
	str         w8,[x9]

; 62   : 			//_KePrint("ListView Scroll down msg display idx -> %d \r\n", display_idx);
; 63   : 			lv->currentStartIndex = display_idx;

	ldr         x8,[sp,#0x18]
	add         x9,x8,#0x74
	ldr         w8,[sp,#0x40]
	str         w8,[x9]

; 64   : 			lv->scrollpane->vScrollBar.update = 1;

	ldr         x8,[sp,#0x18]
	add         x8,x8,#0x60
	ldr         x8,[x8]
	add         x8,x8,#0xA0
	add         x9,x8,#1
	mov         w8,#1
	strb        w8,[x9]

; 65   : 			if (lv->scrollpane->wid.ChPaintHandler)

	ldr         x8,[sp,#0x18]
	add         x8,x8,#0x60
	ldr         x8,[x8]
	add         x8,x8,#0x40
	ldr         x8,[x8]
	cmp         x8,#0
	beq         |$LN10@ChListView|

; 66   : 				lv->scrollpane->wid.ChPaintHandler((ChWidget*)lv->scrollpane, win);

	ldr         x8,[sp,#0x18]
	add         x9,x8,#0x60
	ldr         x8,[sp,#0x18]
	add         x8,x8,#0x60
	ldr         x8,[x8]
	add         x8,x8,#0x40
	ldr         x1,[sp,#0x38]
	ldr         x0,[x9]
	ldr         x8,[x8]
	blr         x8
|$LN10@ChListView|

; 67   : 			_view_update = true;

	mov         w8,#1
	strb        w8,[sp,#0x10]

; 68   : #ifdef ARCH_X64
; 69   : 			_KeProcessSleep(100);
; 70   : #elif ARCH_ARM64
; 71   : 			_KeProcessSleep(1);

	mov         x0,#1
	bl          _KeProcessSleep
|$LN9@ChListView|
|$LN8@ChListView|

; 72   : #endif
; 73   : 		}
; 74   : 	}
; 75   : 
; 76   : 	if (button && ((button != DEODHAI_MOUSE_MSG_SCROLL_UP) && (button != DEODHAI_MOUSE_MSG_SCROLL_DOWN))){

	ldr         w8,[sp,#0x20]
	cmp         w8,#0
	beq         |$LN11@ChListView|
	ldr         w8,[sp,#0x20]
	cmp         w8,#5
	beq         |$LN11@ChListView|
	ldr         w8,[sp,#0x20]
	cmp         w8,#6
	beq         |$LN11@ChListView|

; 77   : 		for (int i = 0; i < lv->itemList->pointer; i++) {

	mov         w8,#0
	str         w8,[sp,#0x30]
	b           |$LN4@ChListView|
|$LN2@ChListView|
	ldr         w8,[sp,#0x30]
	add         w8,w8,#1
	str         w8,[sp,#0x30]
|$LN4@ChListView|
	ldr         x8,[sp,#0x18]
	add         x8,x8,#0x50
	ldr         x8,[x8]
	ldr         w9,[x8]
	ldr         w8,[sp,#0x30]
	cmp         w8,w9
	bhs         |$LN3@ChListView|

; 78   : 			ChListItem *li = (ChListItem*)list_get_at(lv->itemList, i);

	ldr         x8,[sp,#0x18]
	add         x8,x8,#0x50
	ldr         w1,[sp,#0x30]
	ldr         x0,[x8]
	bl          list_get_at
	str         x0,[sp,#0x28]

; 79   : 			li->selected = false;

	ldr         x8,[sp,#0x28]
	add         x9,x8,#8
	mov         w8,#0
	strb        w8,[x9]

; 80   : 			if (x >= (win->info->x + li->xPos) && x < (win->info->x +  li->xPos + li->width) &&
; 81   : 				y >= (win->info->y + li->yPos) && y < (win->info->y +  li->yPos + li->height)) {

	ldr         x8,[sp,#0x38]
	add         x8,x8,#0x28
	ldr         x9,[x8]
	mov         x8,#0x1008
	add         x9,x9,x8
	ldr         x8,[sp,#0x28]
	ldr         w9,[x9]
	ldr         w8,[x8]
	add         w9,w9,w8
	ldr         w8,[sp,#0x44]
	cmp         w8,w9
	blt         |$LN12@ChListView|
	ldr         x8,[sp,#0x38]
	add         x8,x8,#0x28
	ldr         x9,[x8]
	mov         x8,#0x1008
	add         x9,x9,x8
	ldr         x8,[sp,#0x28]
	ldr         w9,[x9]
	ldr         w8,[x8]
	add         w9,w9,w8
	ldr         x8,[sp,#0x28]
	add         x8,x8,#0xC
	ldr         w8,[x8]
	add         w9,w9,w8
	ldr         w8,[sp,#0x44]
	cmp         w8,w9
	bge         |$LN12@ChListView|
	ldr         x8,[sp,#0x38]
	add         x8,x8,#0x28
	ldr         x9,[x8]
	mov         x8,#0x100C
	add         x9,x9,x8
	ldr         x8,[sp,#0x28]
	add         x8,x8,#4
	ldr         w9,[x9]
	ldr         w8,[x8]
	add         w9,w9,w8
	ldr         w8,[sp,#0x48]
	cmp         w8,w9
	blt         |$LN12@ChListView|
	ldr         x8,[sp,#0x38]
	add         x8,x8,#0x28
	ldr         x9,[x8]
	mov         x8,#0x100C
	add         x9,x9,x8
	ldr         x8,[sp,#0x28]
	add         x8,x8,#4
	ldr         w9,[x9]
	ldr         w8,[x8]
	add         w9,w9,w8
	ldr         x8,[sp,#0x28]
	add         x8,x8,#0x10
	ldr         w8,[x8]
	add         w9,w9,w8
	ldr         w8,[sp,#0x48]
	cmp         w8,w9
	bge         |$LN12@ChListView|

; 82   : 				if (button == DEODHAI_MESSAGE_MOUSE_DBLCLK){

	ldr         w8,[sp,#0x20]
	cmp         w8,#0x3B
	bne         |$LN13@ChListView|

; 83   : 					if (li->ChListItemAction)

	ldr         x8,[sp,#0x28]
	add         x8,x8,#0x28
	ldr         x8,[x8]
	cmp         x8,#0
	beq         |$LN14@ChListView|

; 84   : 						li->ChListItemAction(lv, li);

	ldr         x8,[sp,#0x28]
	add         x8,x8,#0x28
	ldr         x1,[sp,#0x28]
	ldr         x0,[sp,#0x18]
	ldr         x8,[x8]
	blr         x8
|$LN14@ChListView|
|$LN13@ChListView|

; 85   : 				}
; 86   : 				lv->selectedItem = li;

	ldr         x8,[sp,#0x18]
	add         x9,x8,#0x88
	ldr         x8,[sp,#0x28]
	str         x8,[x9]

; 87   : 				li->selected = true;

	ldr         x8,[sp,#0x28]
	add         x9,x8,#8
	mov         w8,#1
	strb        w8,[x9]

; 88   : 				_view_update = true;

	mov         w8,#1
	strb        w8,[sp,#0x10]
|$LN12@ChListView|

; 89   : 			}
; 90   : 		}

	b           |$LN2@ChListView|
|$LN3@ChListView|
|$LN11@ChListView|

; 91   : 	}
; 92   : 
; 93   : 	if (_view_update){

	ldrsb       w8,[sp,#0x10]
	mov         w8,w8
	cmp         w8,#0
	beq         |$LN15@ChListView|

; 94   : 		if (lv->wid.ChPaintHandler)

	ldr         x8,[sp,#0x18]
	add         x8,x8,#0x40
	ldr         x8,[x8]
	cmp         x8,#0
	beq         |$LN16@ChListView|

; 95   : 			lv->wid.ChPaintHandler((ChWidget*)lv, win);

	ldr         x8,[sp,#0x18]
	add         x8,x8,#0x40
	ldr         x1,[sp,#0x38]
	ldr         x0,[sp,#0x18]
	ldr         x8,[x8]
	blr         x8
|$LN16@ChListView|

; 96   : 		int update_w = lv->wid.w + lv->scrollpane->vScrollBar.bar_w;

	ldr         x8,[sp,#0x18]
	add         x9,x8,#8
	ldr         x8,[sp,#0x18]
	add         x8,x8,#0x60
	ldr         x8,[x8]
	add         x8,x8,#0xA0
	add         x8,x8,#0xC
	ldr         w9,[x9]
	ldr         w8,[x8]
	add         w8,w9,w8
	str         w8,[sp,#0x4C]

; 97   : 		int update_h = lv->wid.h + lv->scrollpane->vScrollBar.bar_h;

	ldr         x8,[sp,#0x18]
	add         x9,x8,#0xC
	ldr         x8,[sp,#0x18]
	add         x8,x8,#0x60
	ldr         x8,[x8]
	add         x8,x8,#0xA0
	add         x8,x8,#0x10
	ldr         w9,[x9]
	ldr         w8,[x8]
	add         w8,w9,w8
	str         w8,[sp,#0x50]

; 98   : 		ChWindowUpdate(win, lv->wid.x, lv->wid.y, lv->wid.w, lv->wid.h, 0, 1);

	ldr         x8,[sp,#0x18]
	add         x11,x8,#0xC
	ldr         x8,[sp,#0x18]
	add         x10,x8,#8
	ldr         x8,[sp,#0x18]
	add         x9,x8,#4
	ldr         x8,[sp,#0x18]
	mov         w6,#1
	mov         w5,#0
	ldr         w4,[x11]
	ldr         w3,[x10]
	ldr         w2,[x9]
	ldr         w1,[x8]
	ldr         x0,[sp,#0x38]
	bl          ChWindowUpdate
|$LN15@ChListView|
	ldp         fp,lr,[sp],#0x60
	ret

	ENDP  ; |?ChListViewMouseEvent@@YAXPEAU_ChWidget_@@PEAU_chwin_@@HHH@Z|, ChListViewMouseEvent

; Function compile flags: /Odtp
; File C:\Users\paras\source\repos\grep-name\XenevaOS\Libs\Chitralekha\widgets\view.cpp

	AREA	|.text$mn|, CODE, ARM64

|ChListViewGetSelectedItem| PROC

; 299  : ChListItem * ChListViewGetSelectedItem(ChListView* lv) {

|$LN4|
	stp         fp,lr,[sp,#-0x20]!
	mov         fp,sp
	str         x0,[sp,#0x10]

; 300  : 	if (lv->selectedItem)

	ldr         x8,[sp,#0x10]
	add         x8,x8,#0x88
	ldr         x8,[x8]
	cmp         x8,#0
	beq         |$LN2@ChListView|

; 301  : 		_KePrint("[ListView]: Maximum selected item-> %s \r\n", lv->selectedItem->itemText);

	ldr         x8,[sp,#0x10]
	add         x8,x8,#0x88
	ldr         x8,[x8]
	add         x8,x8,#0x20
	ldr         x1,[x8]
	adrp        x8,|$SG5534|
	add         x0,x8,PageOffset(|$SG5534|)
	bl          _KePrint
|$LN2@ChListView|

; 302  : 	return lv->selectedItem;

	ldr         x8,[sp,#0x10]
	add         x8,x8,#0x88
	ldr         x0,[x8]
	ldp         fp,lr,[sp],#0x20
	ret

	ENDP  ; |ChListViewGetSelectedItem|

; Function compile flags: /Odtp
; File C:\Users\paras\source\repos\grep-name\XenevaOS\Libs\Chitralekha\widgets\view.cpp

	AREA	|.text$mn|, CODE, ARM64

|ChListViewRepaint| PROC

; 276  : void ChListViewRepaint(ChWindow* win, ChListView* lv) {

|$LN5|
	stp         fp,lr,[sp,#-0x20]!
	mov         fp,sp
	str         x0,[sp,#0x18]
	str         x1,[sp,#0x10]

; 277  : 	if (lv->scrollpane->wid.ChPaintHandler)

	ldr         x8,[sp,#0x10]
	add         x8,x8,#0x60
	ldr         x8,[x8]
	add         x8,x8,#0x40
	ldr         x8,[x8]
	cmp         x8,#0
	beq         |$LN2@ChListView|

; 278  : 		lv->scrollpane->wid.ChPaintHandler((ChWidget*)lv->scrollpane, win);

	ldr         x8,[sp,#0x10]
	add         x9,x8,#0x60
	ldr         x8,[sp,#0x10]
	add         x8,x8,#0x60
	ldr         x8,[x8]
	add         x8,x8,#0x40
	ldr         x1,[sp,#0x18]
	ldr         x0,[x9]
	ldr         x8,[x8]
	blr         x8
|$LN2@ChListView|

; 279  : 	ChWindowUpdate(win, lv->scrollpane->vScrollBar.bar_x, lv->scrollpane->vScrollBar.bar_y, lv->scrollpane->vScrollBar.bar_w,

	ldr         x8,[sp,#0x10]
	add         x8,x8,#0x60
	ldr         x8,[x8]
	add         x8,x8,#0xA0
	add         x11,x8,#0x10
	ldr         x8,[sp,#0x10]
	add         x8,x8,#0x60
	ldr         x8,[x8]
	add         x8,x8,#0xA0
	add         x10,x8,#0xC
	ldr         x8,[sp,#0x10]
	add         x8,x8,#0x60
	ldr         x8,[x8]
	add         x8,x8,#0xA0
	add         x9,x8,#8
	ldr         x8,[sp,#0x10]
	add         x8,x8,#0x60
	ldr         x8,[x8]
	add         x8,x8,#0xA0
	add         x8,x8,#4
	mov         w6,#1
	mov         w5,#0
	ldr         w4,[x11]
	ldr         w3,[x10]
	ldr         w2,[x9]
	ldr         w1,[x8]
	ldr         x0,[sp,#0x18]
	bl          ChWindowUpdate

; 280  : 		lv->scrollpane->vScrollBar.bar_h, 0, 1);
; 281  : #ifdef ARCH_X64
; 282  : 	_KeProcessSleep(30);
; 283  : #endif
; 284  : 	ChWindowUpdate(win, lv->scrollpane->hScrollBar.bar_x, lv->scrollpane->hScrollBar.bar_y, lv->scrollpane->hScrollBar.bar_w,

	ldr         x8,[sp,#0x10]
	add         x8,x8,#0x60
	ldr         x8,[x8]
	add         x8,x8,#0x50
	add         x11,x8,#0x10
	ldr         x8,[sp,#0x10]
	add         x8,x8,#0x60
	ldr         x8,[x8]
	add         x8,x8,#0x50
	add         x10,x8,#0xC
	ldr         x8,[sp,#0x10]
	add         x8,x8,#0x60
	ldr         x8,[x8]
	add         x8,x8,#0x50
	add         x9,x8,#8
	ldr         x8,[sp,#0x10]
	add         x8,x8,#0x60
	ldr         x8,[x8]
	add         x8,x8,#0x50
	add         x8,x8,#4
	mov         w6,#1
	mov         w5,#0
	ldr         w4,[x11]
	ldr         w3,[x10]
	ldr         w2,[x9]
	ldr         w1,[x8]
	ldr         x0,[sp,#0x18]
	bl          ChWindowUpdate

; 285  : 		lv->scrollpane->hScrollBar.bar_h, 0, 1);
; 286  : #ifdef ARCH_X64
; 287  : 	_KeProcessSleep(30);
; 288  : #endif
; 289  : 	if (lv->wid.ChPaintHandler)

	ldr         x8,[sp,#0x10]
	add         x8,x8,#0x40
	ldr         x8,[x8]
	cmp         x8,#0
	beq         |$LN3@ChListView|

; 290  : 		lv->wid.ChPaintHandler((ChWidget*)lv, win);

	ldr         x8,[sp,#0x10]
	add         x8,x8,#0x40
	ldr         x1,[sp,#0x18]
	ldr         x0,[sp,#0x10]
	ldr         x8,[x8]
	blr         x8
|$LN3@ChListView|

; 291  : 	ChWindowUpdate(win, lv->wid.x, lv->wid.y, lv->wid.w, lv->wid.h, 0, 1);

	ldr         x8,[sp,#0x10]
	add         x11,x8,#0xC
	ldr         x8,[sp,#0x10]
	add         x10,x8,#8
	ldr         x8,[sp,#0x10]
	add         x9,x8,#4
	ldr         x8,[sp,#0x10]
	mov         w6,#1
	mov         w5,#0
	ldr         w4,[x11]
	ldr         w3,[x10]
	ldr         w2,[x9]
	ldr         w1,[x8]
	ldr         x0,[sp,#0x18]
	bl          ChWindowUpdate
	ldp         fp,lr,[sp],#0x20
	ret

	ENDP  ; |ChListViewRepaint|

; Function compile flags: /Odtp
; File C:\Users\paras\source\repos\grep-name\XenevaOS\Libs\Chitralekha\widgets\view.cpp

	AREA	|.text$mn|, CODE, ARM64

|ChListViewClear| PROC

; 253  : void ChListViewClear(ChListView* lv) {

|$LN6|
	stp         fp,lr,[sp,#-0x40]!
	mov         fp,sp
	str         x0,[sp,#0x18]

; 254  : 	for (int i = 0; i < lv->itemList->pointer; i++) {

	mov         w8,#0
	str         w8,[sp,#0x10]
	b           |$LN4@ChListView|
|$LN2@ChListView|
	ldr         w8,[sp,#0x10]
	add         w8,w8,#1
	str         w8,[sp,#0x10]
|$LN4@ChListView|
	ldr         x8,[sp,#0x18]
	add         x8,x8,#0x50
	ldr         x8,[x8]
	ldr         w9,[x8]
	ldr         w8,[sp,#0x10]
	cmp         w8,w9
	bhs         |$LN3@ChListView|

; 255  : 		ChListItem* li = (ChListItem*)list_remove(lv->itemList, i);

	ldr         x8,[sp,#0x18]
	add         x8,x8,#0x50
	ldr         w1,[sp,#0x10]
	ldr         x0,[x8]
	bl          list_remove
	str         x0,[sp,#0x20]

; 256  : 		free(li->itemText);

	ldr         x8,[sp,#0x20]
	add         x8,x8,#0x20
	ldr         x0,[x8]
	bl          free

; 257  : 		free(li);

	ldr         x0,[sp,#0x20]
	bl          free

; 258  : 	}

	b           |$LN2@ChListView|
|$LN3@ChListView|

; 259  : 	memset(lv->itemList, 0, sizeof(list_t));

	ldr         x8,[sp,#0x18]
	add         x8,x8,#0x50
	ldr         x9,[x8]
	mov         x8,#0
	str         x8,[x9]
	str         w8,[x9,#8]

; 260  : 	lv->numRows = 0;

	ldr         x8,[sp,#0x18]
	add         x9,x8,#0x68
	mov         w8,#0
	str         w8,[x9]

; 261  : 	lv->currentStartIndex = 0;

	ldr         x8,[sp,#0x18]
	add         x9,x8,#0x74
	mov         w8,#0
	str         w8,[x9]

; 262  : 	lv->selectedItem = 0;

	ldr         x8,[sp,#0x18]
	add         x9,x8,#0x88
	mov         x8,#0
	str         x8,[x9]

; 263  : 	ChRect rect;
; 264  : 	rect.x = lv->wid.x;

	ldr         x8,[sp,#0x18]
	ldr         w8,[x8]
	str         w8,[sp,#0x28]

; 265  : 	rect.y = lv->wid.y;

	ldr         x8,[sp,#0x18]
	add         x8,x8,#4
	ldr         w8,[x8]
	str         w8,[sp,#0x2C]

; 266  : 	rect.w = lv->wid.w;

	ldr         x8,[sp,#0x18]
	add         x8,x8,#8
	ldr         w8,[x8]
	str         w8,[sp,#0x30]

; 267  : 	rect.h = lv->wid.h;

	ldr         x8,[sp,#0x18]
	add         x8,x8,#0xC
	ldr         w8,[x8]
	str         w8,[sp,#0x34]

; 268  : 	ChScrollUpdateVerticalScroll(lv->scrollpane, &rect, (lv->numRows * LIST_VIEW_ITEM_HEIGHT));

	ldr         x8,[sp,#0x18]
	add         x8,x8,#0x68
	ldr         w9,[x8]
	mov         w8,#0x18
	mul         w2,w9,w8
	ldr         x8,[sp,#0x18]
	add         x8,x8,#0x60
	mov         w2,w2
	add         x1,sp,#0x28
	ldr         x0,[x8]
	bl          ChScrollUpdateVerticalScroll
	ldp         fp,lr,[sp],#0x40
	ret

	ENDP  ; |ChListViewClear|

; Function compile flags: /Odtp
; File C:\Users\paras\source\repos\grep-name\XenevaOS\Libs\Chitralekha\widgets\view.cpp

	AREA	|.text$mn|, CODE, ARM64

|ChListViewSetListItemIcon| PROC

; 240  : void ChListViewSetListItemIcon(ChListItem* li, ChIcon* icon) {

|$LN5|
	sub         sp,sp,#0x10
	str         x0,[sp]
	str         x1,[sp,#8]

; 241  : 	if (!li)

	ldr         x8,[sp]
	cmp         x8,#0
	bne         |$LN2@ChListView|

; 242  : 		return;

	b           |$LN1@ChListView|
|$LN2@ChListView|

; 243  : 
; 244  : 	if (!icon)

	ldr         x8,[sp,#8]
	cmp         x8,#0
	bne         |$LN3@ChListView|

; 245  : 		return;

	b           |$LN1@ChListView|
|$LN3@ChListView|

; 246  : 	li->icon = icon;

	ldr         x8,[sp]
	add         x9,x8,#0x18
	ldr         x8,[sp,#8]
	str         x8,[x9]
|$LN1@ChListView|
	add         sp,sp,#0x10
	ret

	ENDP  ; |ChListViewSetListItemIcon|

; Function compile flags: /Odtp
; File C:\Users\paras\source\repos\grep-name\XenevaOS\Libs\Chitralekha\widgets\view.cpp

	AREA	|.text$mn|, CODE, ARM64

|ChListViewAddItem| PROC

; 196  : ChListItem* ChListViewAddItem(ChWindow* win, ChListView* lv, char* itemText) {

|$LN12|
	stp         fp,lr,[sp,#-0x90]!
	mov         fp,sp
	str         x0,[sp,#0x80]
	str         x1,[sp,#0x18]
	str         x2,[sp,#0x50]

; 197  : 	ChListItem* li = (ChListItem*)malloc(sizeof(ChListItem));

	mov         w0,#0x30
	bl          malloc
	str         x0,[sp,#0x20]

; 198  : 	memset(li, 0, sizeof(ChListItem));

	ldr         x9,[sp,#0x20]
	mov         x8,#0
	stp         x8,x8,[x9]
	stp         x8,x8,[x9,#0x10]
	stp         x8,x8,[x9,#0x20]

; 199  : 	li->itemText = (char*)malloc(strlen(itemText));

	ldr         x8,[sp,#0x50]
	str         x8,[sp,#0x38]
|$LN10@ChListView|
	ldr         x8,[sp,#0x38]
	ldrsb       w8,[x8]
	cmp         w8,#0
	beq         |$LN9@ChListView|
	ldr         x8,[sp,#0x38]
	add         x8,x8,#1
	str         x8,[sp,#0x38]
	b           |$LN10@ChListView|
|$LN9@ChListView|
	ldr         x9,[sp,#0x38]
	ldr         x8,[sp,#0x50]
	sub         x8,x9,x8
	str         x8,[sp,#0x70]
	ldr         x8,[sp,#0x70]
	mov         w0,w8
	mov         w0,w0
	bl          malloc
	ldr         x8,[sp,#0x20]
	add         x8,x8,#0x20
	str         x0,[x8]

; 200  : 	strcpy(li->itemText, itemText);

	ldr         x8,[sp,#0x50]
	str         x8,[sp,#0x58]
	ldr         x8,[sp,#0x20]
	add         x8,x8,#0x20
	ldr         x8,[x8]
	str         x8,[sp,#0x40]
	ldr         x8,[sp,#0x40]
	str         x8,[sp,#0x88]
|$LN11@ChListView|
	ldr         x8,[sp,#0x58]
	ldrsb       w8,[x8]
	strb        w8,[sp,#0x10]
	ldr         x9,[sp,#0x40]
	ldrsb       w8,[sp,#0x10]
	strb        w8,[x9]
	ldr         x8,[sp,#0x58]
	add         x8,x8,#1
	str         x8,[sp,#0x58]
	ldr         x8,[sp,#0x40]
	add         x8,x8,#1
	str         x8,[sp,#0x40]
	ldrsb       w8,[sp,#0x10]
	cmp         w8,#0
	bne         |$LN11@ChListView|

; 201  : 	int xpos = 0;

	mov         w8,#0
	str         w8,[sp,#0x48]

; 202  : 	int ypos = 0;

	mov         w8,#0
	str         w8,[sp,#0x30]

; 203  : 	for (int i = 0; i < lv->itemList->pointer; i++) {

	mov         w8,#0
	str         w8,[sp,#0x28]
	b           |$LN4@ChListView|
|$LN2@ChListView|
	ldr         w8,[sp,#0x28]
	add         w8,w8,#1
	str         w8,[sp,#0x28]
|$LN4@ChListView|
	ldr         x8,[sp,#0x18]
	add         x8,x8,#0x50
	ldr         x8,[x8]
	ldr         w9,[x8]
	ldr         w8,[sp,#0x28]
	cmp         w8,w9
	bhs         |$LN3@ChListView|

; 204  : 		ChListItem* item = (ChListItem*)list_get_at(lv->itemList, i);

	ldr         x8,[sp,#0x18]
	add         x8,x8,#0x50
	ldr         w1,[sp,#0x28]
	ldr         x0,[x8]
	bl          list_get_at
	str         x0,[sp,#0x78]

; 205  : 		ypos = item->yPos + LIST_VIEW_ITEM_HEIGHT + LIST_VIEW_ITEM_YPADDING;

	ldr         x8,[sp,#0x78]
	add         x8,x8,#4
	ldr         w8,[x8]
	add         w8,w8,#0x1A
	str         w8,[sp,#0x30]

; 206  : 	}

	b           |$LN2@ChListView|
|$LN3@ChListView|

; 207  : 	li->xPos = xpos;

	ldr         x9,[sp,#0x20]
	ldr         w8,[sp,#0x48]
	str         w8,[x9]

; 208  : 	li->yPos = ypos;

	ldr         x8,[sp,#0x20]
	add         x9,x8,#4
	ldr         w8,[sp,#0x30]
	str         w8,[x9]

; 209  : 	int width = lv->wid.w;

	ldr         x8,[sp,#0x18]
	add         x8,x8,#8
	ldr         w8,[x8]
	str         w8,[sp,#0x2C]

; 210  : 	int height = LIST_VIEW_ITEM_HEIGHT;

	mov         w8,#0x18
	str         w8,[sp,#0x4C]

; 211  : 	li->width = width;

	ldr         x8,[sp,#0x20]
	add         x9,x8,#0xC
	ldr         w8,[sp,#0x2C]
	str         w8,[x9]

; 212  : 	li->height = height;

	ldr         x8,[sp,#0x20]
	add         x9,x8,#0x10
	ldr         w8,[sp,#0x4C]
	str         w8,[x9]

; 213  : 	li->selected = false;

	ldr         x8,[sp,#0x20]
	add         x9,x8,#8
	mov         w8,#0
	strb        w8,[x9]

; 214  : 	list_add(lv->itemList, li);

	ldr         x8,[sp,#0x18]
	add         x8,x8,#0x50
	ldr         x1,[sp,#0x20]
	ldr         x0,[x8]
	bl          list_add

; 215  : 	lv->numRows += 1;

	ldr         x8,[sp,#0x18]
	add         x8,x8,#0x68
	ldr         w8,[x8]
	add         w9,w8,#1
	ldr         x8,[sp,#0x18]
	add         x8,x8,#0x68
	str         w9,[x8]

; 216  : 	lv->horizontalRenderY = (lv->wid.y - LIST_VIEW_ITEM_HEIGHT) + win->app->baseFont->fontHeight;

	ldr         x8,[sp,#0x18]
	add         x8,x8,#4
	ldr         w8,[x8]
	sub         w9,w8,#0x18
	ldr         x8,[sp,#0x80]
	add         x8,x8,#0x30
	ldr         x8,[x8]
	add         x8,x8,#0x30
	ldr         x8,[x8]
	add         x8,x8,#0x20
	ldr         w8,[x8]
	add         w9,w9,w8
	ldr         x8,[sp,#0x18]
	add         x8,x8,#0x6C
	str         w9,[x8]

; 217  : 	ChRect view;
; 218  : 	view.x = lv->wid.x;

	ldr         x8,[sp,#0x18]
	ldr         w8,[x8]
	str         w8,[sp,#0x60]

; 219  : 	view.y = lv->wid.y;

	ldr         x8,[sp,#0x18]
	add         x8,x8,#4
	ldr         w8,[x8]
	str         w8,[sp,#0x64]

; 220  : 	view.w = lv->wid.w;

	ldr         x8,[sp,#0x18]
	add         x8,x8,#8
	ldr         w8,[x8]
	str         w8,[sp,#0x68]

; 221  : 	view.h = lv->wid.h;

	ldr         x8,[sp,#0x18]
	add         x8,x8,#0xC
	ldr         w8,[x8]
	str         w8,[sp,#0x6C]

; 222  : 	if ((lv->numRows * LIST_VIEW_ITEM_HEIGHT) >= lv->wid.h) {

	ldr         x8,[sp,#0x18]
	add         x8,x8,#0x68
	ldr         w9,[x8]
	mov         w8,#0x18
	mul         w9,w9,w8
	ldr         x8,[sp,#0x18]
	add         x8,x8,#0xC
	ldr         w8,[x8]
	cmp         w9,w8
	blt         |$LN5@ChListView|

; 223  : 		if (lv->scrollpane)

	ldr         x8,[sp,#0x18]
	add         x8,x8,#0x60
	ldr         x8,[x8]
	cmp         x8,#0
	beq         |$LN6@ChListView|

; 224  : 			ChScrollUpdateVerticalScroll(lv->scrollpane, &view, (lv->numRows*LIST_VIEW_ITEM_HEIGHT + LIST_VIEW_ITEM_YPADDING));

	ldr         x8,[sp,#0x18]
	add         x8,x8,#0x68
	ldr         w9,[x8]
	mov         w8,#0x18
	mul         w8,w9,w8
	add         w2,w8,#2
	ldr         x8,[sp,#0x18]
	add         x8,x8,#0x60
	mov         w2,w2
	add         x1,sp,#0x60
	ldr         x0,[x8]
	bl          ChScrollUpdateVerticalScroll
|$LN6@ChListView|
|$LN5@ChListView|

; 225  : 	}
; 226  : 	if (width > lv->wid.w) {

	ldr         x8,[sp,#0x18]
	add         x8,x8,#8
	ldr         w9,[x8]
	ldr         w8,[sp,#0x2C]
	cmp         w8,w9
	ble         |$LN7@ChListView|

; 227  : 		ChScrollUpdateHorizontalScroll(lv->scrollpane, &view, width);

	ldr         x8,[sp,#0x18]
	add         x8,x8,#0x60
	ldr         w2,[sp,#0x2C]
	add         x1,sp,#0x60
	ldr         x0,[x8]
	bl          ChScrollUpdateHorizontalScroll
|$LN7@ChListView|

; 228  : 	}
; 229  : 	lv->contentSizeY = (lv->numRows * LIST_VIEW_ITEM_HEIGHT + LIST_VIEW_ITEM_YPADDING);

	ldr         x8,[sp,#0x18]
	add         x8,x8,#0x68
	ldr         w9,[x8]
	mov         w8,#0x18
	mul         w8,w9,w8
	add         w9,w8,#2
	ldr         x8,[sp,#0x18]
	add         x8,x8,#0x90
	str         w9,[x8]

; 230  : 	/*lv->currentStartIndex = floor((lv->scrollpane->vScrollBar.thumb_posy / LIST_VIEW_ITEM_HEIGHT) - LIST_VIEW_ITEM_HEIGHT);
; 231  : 	lv->currentStartIndex = max(0, lv->currentStartIndex);*/
; 232  : 	return li;

	ldr         x0,[sp,#0x20]
	ldp         fp,lr,[sp],#0x90
	ret

	ENDP  ; |ChListViewAddItem|

; Function compile flags: /Odtp
; File C:\Users\paras\source\repos\grep-name\XenevaOS\Libs\Chitralekha\widgets\view.cpp

	AREA	|.text$mn|, CODE, ARM64

|ChListViewSetScrollpane| PROC

; 177  : void ChListViewSetScrollpane(ChListView* view, ChScrollPane *pane){

|$LN3|
	sub         sp,sp,#0x10
	str         x0,[sp]
	str         x1,[sp,#8]

; 178  : 	pane->hScrollBar.bar_x = view->wid.x;

	ldr         x10,[sp]
	ldr         x8,[sp,#8]
	add         x8,x8,#0x50
	add         x9,x8,#4
	ldr         w8,[x10]
	str         w8,[x9]

; 179  : 	pane->hScrollBar.bar_y = view->wid.y + view->wid.h;

	ldr         x8,[sp]
	add         x9,x8,#4
	ldr         x8,[sp]
	add         x8,x8,#0xC
	ldr         w9,[x9]
	ldr         w8,[x8]
	add         w9,w9,w8
	ldr         x8,[sp,#8]
	add         x8,x8,#0x50
	add         x8,x8,#8
	str         w9,[x8]

; 180  : 	pane->hScrollBar.bar_w = view->wid.w;

	ldr         x8,[sp]
	add         x10,x8,#8
	ldr         x8,[sp,#8]
	add         x8,x8,#0x50
	add         x9,x8,#0xC
	ldr         w8,[x10]
	str         w8,[x9]

; 181  : 	pane->hScrollBar.bar_h = SCROLLBAR_SIZE;

	ldr         x8,[sp,#8]
	add         x8,x8,#0x50
	add         x9,x8,#0x10
	mov         w8,#0x12
	str         w8,[x9]

; 182  : 	pane->vScrollBar.bar_x = view->wid.x + view->wid.w;

	ldr         x9,[sp]
	ldr         x8,[sp]
	add         x8,x8,#8
	ldr         w9,[x9]
	ldr         w8,[x8]
	add         w9,w9,w8
	ldr         x8,[sp,#8]
	add         x8,x8,#0xA0
	add         x8,x8,#4
	str         w9,[x8]

; 183  : 	pane->vScrollBar.bar_y = view->wid.y;

	ldr         x8,[sp]
	add         x10,x8,#4
	ldr         x8,[sp,#8]
	add         x8,x8,#0xA0
	add         x9,x8,#8
	ldr         w8,[x10]
	str         w8,[x9]

; 184  : 	pane->vScrollBar.bar_w = SCROLLBAR_SIZE;

	ldr         x8,[sp,#8]
	add         x8,x8,#0xA0
	add         x9,x8,#0xC
	mov         w8,#0x12
	str         w8,[x9]

; 185  : 	pane->vScrollBar.bar_h = view->wid.h;

	ldr         x8,[sp]
	add         x10,x8,#0xC
	ldr         x8,[sp,#8]
	add         x8,x8,#0xA0
	add         x9,x8,#0x10
	ldr         w8,[x10]
	str         w8,[x9]

; 186  : 	view->currentStartIndex = 0;

	ldr         x8,[sp]
	add         x9,x8,#0x74
	mov         w8,#0
	str         w8,[x9]

; 187  : 	view->scrollpane = pane;

	ldr         x8,[sp]
	add         x9,x8,#0x60
	ldr         x8,[sp,#8]
	str         x8,[x9]

; 188  : 	pane->scrollableView = (ChWidget*)view;

	ldr         x8,[sp,#8]
	add         x9,x8,#0xF8
	ldr         x8,[sp]
	str         x8,[x9]
	add         sp,sp,#0x10
	ret

	ENDP  ; |ChListViewSetScrollpane|

; Function compile flags: /Odtp
; File C:\Users\paras\source\repos\grep-name\XenevaOS\Libs\Chitralekha\widgets\view.cpp

	AREA	|.text$mn|, CODE, ARM64

|ChCreateListView| PROC

; 152  : ChListView* ChCreateListView(int x, int y, int w, int h){

|$LN5|
	stp         fp,lr,[sp,#-0x30]!
	mov         fp,sp
	str         w0,[sp,#0x10]
	str         w1,[sp,#0x14]
	str         w2,[sp,#0x18]
	str         w3,[sp,#0x1C]

; 153  : 	ChListView* lv = (ChListView*)malloc(sizeof(ChListView));

	mov         w0,#0x98
	bl          malloc
	str         x0,[sp,#0x20]

; 154  : 	memset(lv, 0, sizeof(ChListView));

	ldr         x10,[sp,#0x20]
	mov         x9,#0
	add         x8,x10,#0x90
|$LN3@ChCreateLi|
	stp         x9,x9,[x10]
	add         x10,x10,#0x10
	cmp         x10,x8
	bne         |$LN3@ChCreateLi|
	str         x9,[x10]

; 155  : 	lv->wid.x = x;

	ldr         x9,[sp,#0x20]
	ldr         w8,[sp,#0x10]
	str         w8,[x9]

; 156  : 	lv->wid.y = y;

	ldr         x8,[sp,#0x20]
	add         x9,x8,#4
	ldr         w8,[sp,#0x14]
	str         w8,[x9]

; 157  : 	lv->wid.w = w - SCROLLBAR_SIZE;

	ldr         w8,[sp,#0x18]
	sub         w9,w8,#0x12
	ldr         x8,[sp,#0x20]
	add         x8,x8,#8
	str         w9,[x8]

; 158  : 	lv->wid.h = h - SCROLLBAR_SIZE;

	ldr         w8,[sp,#0x1C]
	sub         w9,w8,#0x12
	ldr         x8,[sp,#0x20]
	add         x8,x8,#0xC
	str         w9,[x8]

; 159  : 	lv->itemList = initialize_list();

	bl          initialize_list
	ldr         x8,[sp,#0x20]
	add         x8,x8,#0x50
	str         x0,[x8]

; 160  : 	//lv->horizontalRenderY = (lv->wid.y - LIST_VIEW_ITEM_HEIGHT) + 21;
; 161  : 	lv->currentStartIndex = 0; //

	ldr         x8,[sp,#0x20]
	add         x9,x8,#0x74
	mov         w8,#0
	str         w8,[x9]

; 162  : 	lv->lastNodeIndex = lv->currentStartIndex;

	ldr         x8,[sp,#0x20]
	add         x10,x8,#0x74
	ldr         x8,[sp,#0x20]
	add         x9,x8,#0x78
	ldr         w8,[x10]
	str         w8,[x9]

; 163  : 	lv->wid.ChPaintHandler = ChDefaultListViewPainter;

	ldr         x8,[sp,#0x20]
	add         x9,x8,#0x40
	adrp        x8,|?ChDefaultListViewPainter@@YAXPEAU_ChWidget_@@PEAU_chwin_@@@Z|
	add         x8,x8,PageOffset(|?ChDefaultListViewPainter@@YAXPEAU_ChWidget_@@PEAU_chwin_@@@Z|)
	str         x8,[x9]

; 164  : 	lv->wid.ChMouseEvent = ChListViewMouseEvent;

	ldr         x8,[sp,#0x20]
	add         x9,x8,#0x28
	adrp        x8,|?ChListViewMouseEvent@@YAXPEAU_ChWidget_@@PEAU_chwin_@@HHH@Z|
	add         x8,x8,PageOffset(|?ChListViewMouseEvent@@YAXPEAU_ChWidget_@@PEAU_chwin_@@HHH@Z|)
	str         x8,[x9]

; 165  : 	lv->wid.ChScrollEvent = ChListViewScrollEvent;

	ldr         x8,[sp,#0x20]
	add         x9,x8,#0x38
	adrp        x8,|?ChListViewScrollEvent@@YAXPEAU_ChWidget_@@PEAU_chwin_@@HE@Z|
	add         x8,x8,PageOffset(|?ChListViewScrollEvent@@YAXPEAU_ChWidget_@@PEAU_chwin_@@HE@Z|)
	str         x8,[x9]

; 166  : 	lv->wid.ChDestroy = ChListViewDestroy;

	ldr         x8,[sp,#0x20]
	add         x9,x8,#0x48
	adrp        x8,|?ChListViewDestroy@@YAXPEAU_ChWidget_@@PEAU_chwin_@@@Z|
	add         x8,x8,PageOffset(|?ChListViewDestroy@@YAXPEAU_ChWidget_@@PEAU_chwin_@@@Z|)
	str         x8,[x9]

; 167  : 	lv->firstItemPlaced = false;

	ldr         x8,[sp,#0x20]
	add         x9,x8,#0x80
	mov         w8,#0
	strb        w8,[x9]

; 168  : 
; 169  : 	return lv;

	ldr         x0,[sp,#0x20]
	ldp         fp,lr,[sp],#0x30
	ret

	ENDP  ; |ChCreateListView|

	END
