; Listing generated by Microsoft (R) Optimizing Compiler Version 19.29.30159.0 

	TTL	E:\Xeneva Project\Aurora\Libs\Chitralekha\ARM64\Debug\window.obj
	ARM64

	AREA	|.drectve|, DRECTVE


	AREA	|.rdata|, DATA, READONLY
|$SG5349| DCB	"[Chitralekha] : Requesting window ", 0xd, 0xa, 0x0
	%	3
|$SG5350| DCB	"[Chitralekha]: Request putted ", 0xd, 0xa, 0x0
	%	7
|$SG5353| DCB	"Chitralekha: buffer key problem ", 0xa, 0x0
	%	6
|$SG5429| DCB	"Corrupted x -> %d ", 0xd, 0xa, 0x0
	%	3
|$SG5431| DCB	"Corrupted y -> %d ", 0xd, 0xa, 0x0
	%	3
|$SG5433| DCB	"Corrupted w -> %d ", 0xd, 0xa, 0x0
	%	3
|$SG5435| DCB	"Corrupted h -> %d ", 0xd, 0xa, 0x0
	%	3
|$SG5533| DCB	"A popup window is not hidden ", 0xd, 0xa, 0x0
|$SG5588| DCB	"A popup window is not hidden ", 0xd, 0xa, 0x0
|$SG5663| DCB	"Freeing up widgets ", 0xd, 0xa, 0x0
	%	2
|$SG5665| DCB	"Widgets cleared ", 0xd, 0xa, 0x0
	%	5
|$SG5666| DCB	"Window Resource cleared -> %d ", 0xd, 0xa, 0x0
	%	7
|$SG5683| DCB	"Popup Window closed ", 0xd, 0xa, 0x0
	%	1
|$SG5715| DCB	"Closed reply received ", 0xd, 0xa, 0x0
	%	7
|$SG5716| DCB	"pOPUP CLOSED ", 0xd, 0xa, 0x0
|$SG5717| DCB	"All popup window closed ", 0xd, 0xa, 0x0
	%	5
|$SG5718| DCB	"Window freed ", 0xd, 0xa, 0x0
|$SG5720| DCB	"about to exit ", 0xd, 0xa, 0x0
	EXPORT	|ChCreateWindow|
	EXPORT	|ChWindowAddSubWindow|
	EXPORT	|ChWindowBroadcastIcon|
	EXPORT	|ChWindowPaint|
	EXPORT	|ChWindowUpdate|
	EXPORT	|ChWindowHide|
	EXPORT	|ChGetWindowHandle|
	EXPORT	|ChWindowHandleMouse|
	EXPORT	|ChWindowHandleTouch|
	EXPORT	|ChWindowSetFocused|
	EXPORT	|ChWindowHandleFocus|
	EXPORT	|ChWindowGetBackgroundColor|
	EXPORT	|ChWindowAddWidget|
	EXPORT	|ChGetWindowByHandle|
	EXPORT	|ChGetPopupWindowByHandle|
	EXPORT	|ChPopupWindowHandleMouse|
	EXPORT	|ChWindowSetFlags|
	EXPORT	|ChWindowMove|
	EXPORT	|ChWindowRegisterJump|
	EXPORT	|ChWindowCloseWindow|
	EXPORT	|ChCreatePopupWindow|
	EXPORT	|ChPopupWindowUpdate|
	EXPORT	|ChPopupWindowShow|
	EXPORT	|ChPopupWindowUpdateLocation|
	EXPORT	|ChPopupWindowHide|
	EXPORT	|?ChRequestWindow@@YAXPEAU_ChApp_@@HHHHPEADGH@Z| ; ChRequestWindow
	EXPORT	|?ChGlobalCtlMouseHandler@@YAXPEAU_chwin_@@PEAU_global_ctrl_@@HHH@Z| ; ChGlobalCtlMouseHandler
	EXPORT	|ChCreateGlobalButton|
	EXPORT	|?ChGlobalCloseAction@@YAXPEAU_chwin_@@PEAU_global_ctrl_@@@Z| ; ChGlobalCloseAction
	EXPORT	|?ChGlobalMinimiseAction@@YAXPEAU_chwin_@@PEAU_global_ctrl_@@@Z| ; ChGlobalMinimiseAction
	EXPORT	|?ChFreeWindowResources@@YAXPEAU_chwin_@@@Z| ; ChFreeWindowResources
	EXPORT	|ChPopupWindowClose|
	IMPORT	|_KePrint|
	IMPORT	|ChCreateCanvas|
	IMPORT	|ChAllocateBuffer|
	IMPORT	|ChDeAllocateBuffer|
	IMPORT	|ChDrawVerticalLine|
	IMPORT	|ChDrawHorizontalLine|
	IMPORT	|malloc|
	IMPORT	|free|
	IMPORT	|setjmp|
	IMPORT	|longjmp|
	IMPORT	|ChitralekhaStartSubApp|
	IMPORT	|initialize_list|
	IMPORT	|list_add|
	IMPORT	|list_remove|
	IMPORT	|list_get_at|
	IMPORT	|list_clear_all|
	IMPORT	|_fastcpy|
	IMPORT	|_KeFileIoControl|
	IMPORT	|_KePauseThread|
	IMPORT	|_KeProcessExit|
	IMPORT	|_KeProcessSleep|
	IMPORT	|_KeCreateSharedMem|
	IMPORT	|_KeObtainSharedMem|
	IMPORT	|_KeUnmapSharedMem|
	IMPORT	|?ChDefaultWinPaint@@YAXPEAU_chwin_@@@Z| ; ChDefaultWinPaint
	IMPORT	|?ChWindowPaintCloseButton@@YAXPEAU_chwin_@@PEAU_global_ctrl_@@@Z| ; ChWindowPaintCloseButton
	IMPORT	|?ChWindowPaintMaximButton@@YAXPEAU_chwin_@@PEAU_global_ctrl_@@@Z| ; ChWindowPaintMaximButton
	IMPORT	|?ChWindowPaintMinimButton@@YAXPEAU_chwin_@@PEAU_global_ctrl_@@@Z| ; ChWindowPaintMinimButton
	IMPORT	|?ChWindowPaintTitlebar@@YAXPEAU_chwin_@@@Z| ; ChWindowPaintTitlebar
	IMPORT	|?ChDefaultPopupWinPaint@@YAXPEAU_chwin_@@@Z| ; ChDefaultPopupWinPaint
	IMPORT	|?_apply_rounded_corner@@YAXPEAIHHH@Z|	; _apply_rounded_corner
	IMPORT	|memset|

	AREA	|.pdata|, PDATA
|$pdata$ChCreateWindow| DCD imagerel |$LN16|
	DCD	0x5600545
	;Flags[SingleProEpi] functionLength[1348] RegF[0] RegI[0] H[0] frameChainReturn[Chained] frameSize[160]
|$pdata$ChWindowAddSubWindow| DCD imagerel |$LN4|
	DCD	0x160004d
	;Flags[SingleProEpi] functionLength[76] RegF[0] RegI[0] H[0] frameChainReturn[Chained] frameSize[32]
|$pdata$ChWindowBroadcastIcon| DCD imagerel |$LN6|
	DCD	0x7e000cd
	;Flags[SingleProEpi] functionLength[204] RegF[0] RegI[0] H[0] frameChainReturn[Chained] frameSize[240]
|$pdata$ChWindowPaint| DCD imagerel |$LN9|
	DCD	0x160012d
	;Flags[SingleProEpi] functionLength[300] RegF[0] RegI[0] H[0] frameChainReturn[Chained] frameSize[32]
|$pdata$ChWindowUpdate| DCD imagerel |$LN11|
	DCD	0x2600395
	;Flags[SingleProEpi] functionLength[916] RegF[0] RegI[0] H[0] frameChainReturn[Chained] frameSize[64]
|$pdata$ChWindowHide| DCD imagerel |$LN3|
	DCD	0x6e0006d
	;Flags[SingleProEpi] functionLength[108] RegF[0] RegI[0] H[0] frameChainReturn[Chained] frameSize[208]
|$pdata$ChGetWindowHandle| DCD imagerel |$LN12|
	DCD	0x860013d
	;Flags[SingleProEpi] functionLength[316] RegF[0] RegI[0] H[0] frameChainReturn[Chained] frameSize[256]
|$pdata$ChWindowHandleMouse| DCD imagerel |$LN36|
	DCD	0x36006d5
	;Flags[SingleProEpi] functionLength[1748] RegF[0] RegI[0] H[0] frameChainReturn[Chained] frameSize[96]
|$pdata$ChWindowHandleTouch| DCD imagerel |$LN35|
	DCD	0x3e006bd
	;Flags[SingleProEpi] functionLength[1724] RegF[0] RegI[0] H[0] frameChainReturn[Chained] frameSize[112]
|$pdata$ChWindowSetFocused| DCD imagerel |$LN5|
	DCD	0x6e00089
	;Flags[SingleProEpi] functionLength[136] RegF[0] RegI[0] H[0] frameChainReturn[Chained] frameSize[208]
|$pdata$ChWindowHandleFocus| DCD imagerel |$LN4|
	DCD	0x16000fd
	;Flags[SingleProEpi] functionLength[252] RegF[0] RegI[0] H[0] frameChainReturn[Chained] frameSize[32]
|$pdata$ChWindowGetBackgroundColor| DCD imagerel |$LN3|
	DCD	0x80001d
	;Flags[SingleProEpi] functionLength[28] RegF[0] RegI[0] H[0] frameChainReturn[UnChained] frameSize[16]
|$pdata$ChWindowAddWidget| DCD imagerel |$LN3|
	DCD	0x160002d
	;Flags[SingleProEpi] functionLength[44] RegF[0] RegI[0] H[0] frameChainReturn[Chained] frameSize[32]
|$pdata$ChGetWindowByHandle| DCD imagerel |$LN8|
	DCD	0x1e000ad
	;Flags[SingleProEpi] functionLength[172] RegF[0] RegI[0] H[0] frameChainReturn[Chained] frameSize[48]
|$pdata$ChGetPopupWindowByHandle| DCD imagerel |$LN7|
	DCD	0x1e0008d
	;Flags[SingleProEpi] functionLength[140] RegF[0] RegI[0] H[0] frameChainReturn[Chained] frameSize[48]
|$pdata$ChPopupWindowHandleMouse| DCD imagerel |$LN12|
	DCD	0x1e00235
	;Flags[SingleProEpi] functionLength[564] RegF[0] RegI[0] H[0] frameChainReturn[Chained] frameSize[48]
|$pdata$ChWindowSetFlags| DCD imagerel |$LN3|
	DCD	0x6e00089
	;Flags[SingleProEpi] functionLength[136] RegF[0] RegI[0] H[0] frameChainReturn[Chained] frameSize[208]
|$pdata$ChWindowMove| DCD imagerel |$LN3|
	DCD	0x6e00071
	;Flags[SingleProEpi] functionLength[112] RegF[0] RegI[0] H[0] frameChainReturn[Chained] frameSize[208]
|$pdata$ChWindowRegisterJump| DCD imagerel |$LN3|
	DCD	0x1600021
	;Flags[SingleProEpi] functionLength[32] RegF[0] RegI[0] H[0] frameChainReturn[Chained] frameSize[32]
|$pdata$ChWindowCloseWindow| DCD imagerel |$LN19|
	DCD	0x8600345
	;Flags[SingleProEpi] functionLength[836] RegF[0] RegI[0] H[0] frameChainReturn[Chained] frameSize[256]
|$pdata$ChCreatePopupWindow| DCD imagerel |$LN11|
	DCD	0x4e00411
	;Flags[SingleProEpi] functionLength[1040] RegF[0] RegI[0] H[0] frameChainReturn[Chained] frameSize[144]
|$pdata$ChPopupWindowUpdate| DCD imagerel |$LN12|
	DCD	0x260022d
	;Flags[SingleProEpi] functionLength[556] RegF[0] RegI[0] H[0] frameChainReturn[Chained] frameSize[64]
|$pdata$ChPopupWindowShow| DCD imagerel |$LN3|
	DCD	0x160005d
	;Flags[SingleProEpi] functionLength[92] RegF[0] RegI[0] H[0] frameChainReturn[Chained] frameSize[32]
|$pdata$ChPopupWindowUpdateLocation| DCD imagerel |$LN3|
	DCD	0x100008d
	;Flags[SingleProEpi] functionLength[140] RegF[0] RegI[0] H[0] frameChainReturn[UnChained] frameSize[32]
|$pdata$ChPopupWindowHide| DCD imagerel |$LN3|
	DCD	0x800031
	;Flags[SingleProEpi] functionLength[48] RegF[0] RegI[0] H[0] frameChainReturn[UnChained] frameSize[16]
|$pdata$?ChRequestWindow@@YAXPEAU_ChApp_@@HHHHPEADGH@Z| DCD imagerel |$LN13|
	DCD	0x9e002a5
	;Flags[SingleProEpi] functionLength[676] RegF[0] RegI[0] H[0] frameChainReturn[Chained] frameSize[304]
|$pdata$?ChGlobalCtlMouseHandler@@YAXPEAU_chwin_@@PEAU_global_ctrl_@@HHH@Z| DCD imagerel |$LN6|
	DCD	0x1e000c5
	;Flags[SingleProEpi] functionLength[196] RegF[0] RegI[0] H[0] frameChainReturn[Chained] frameSize[48]
|$pdata$ChCreateGlobalButton| DCD imagerel |$LN3|
	DCD	0x26000bd
	;Flags[SingleProEpi] functionLength[188] RegF[0] RegI[0] H[0] frameChainReturn[Chained] frameSize[64]
|$pdata$?ChGlobalCloseAction@@YAXPEAU_chwin_@@PEAU_global_ctrl_@@@Z| DCD imagerel |$LN3|
	DCD	0x1600021
	;Flags[SingleProEpi] functionLength[32] RegF[0] RegI[0] H[0] frameChainReturn[Chained] frameSize[32]
|$pdata$?ChGlobalMinimiseAction@@YAXPEAU_chwin_@@PEAU_global_ctrl_@@@Z| DCD imagerel |$LN3|
	DCD	0x1600021
	;Flags[SingleProEpi] functionLength[32] RegF[0] RegI[0] H[0] frameChainReturn[Chained] frameSize[32]
|$pdata$?ChFreeWindowResources@@YAXPEAU_chwin_@@@Z| DCD imagerel |$LN10|
	DCD	0x1e0017d
	;Flags[SingleProEpi] functionLength[380] RegF[0] RegI[0] H[0] frameChainReturn[Chained] frameSize[48]
|$pdata$ChPopupWindowClose| DCD imagerel |$LN13|
	DCD	0x76001f1
	;Flags[SingleProEpi] functionLength[496] RegF[0] RegI[0] H[0] frameChainReturn[Chained] frameSize[224]
; Function compile flags: /Odtp
; File E:\Xeneva Project\Aurora\Libs\Chitralekha\widgets\window.cpp

	AREA	|.text$mn|, CODE, ARM64

|ChPopupWindowClose| PROC

; 732  : XE_EXTERN XE_EXPORT void ChPopupWindowClose(ChWindow* win) {

|$LN13|
	stp         fp,lr,[sp,#-0xE0]!
	mov         fp,sp
	str         x0,[sp,#0x10]

; 733  : 	/* call the close callback before closing the window*/
; 734  : 	if (win->ChCloseWin)

	ldr         x8,[sp,#0x10]
	add         x8,x8,#0xD8
	ldr         x8,[x8]
	cmp         x8,#0
	beq         |$LN7@ChPopupWin|

; 735  : 		win->ChCloseWin(win);

	ldr         x8,[sp,#0x10]
	add         x8,x8,#0xD8
	ldr         x0,[sp,#0x10]
	ldr         x8,[x8]
	blr         x8
|$LN7@ChPopupWin|

; 736  : 
; 737  : 	_KeUnmapSharedMem(win->app->sharedWinkey);

	ldr         x8,[sp,#0x10]
	add         x8,x8,#0x30
	ldr         x8,[x8]
	add         x8,x8,#4
	ldr         w8,[x8]
	uxth        w0,w8
	mov         w0,w0
	bl          _KeUnmapSharedMem

; 738  : 	_KeUnmapSharedMem(win->app->backbufkey);

	ldr         x8,[sp,#0x10]
	add         x8,x8,#0x30
	ldr         x8,[x8]
	add         x8,x8,#8
	ldr         w8,[x8]
	uxth        w0,w8
	mov         w0,w0
	bl          _KeUnmapSharedMem

; 739  : 
; 740  : 	/*
; 741  :  * Close all popup window
; 742  :  */
; 743  : 	for (int i = 0; i < win->popup->pointer; i++) {

	mov         w8,#0
	str         w8,[sp,#0x18]
	b           |$LN4@ChPopupWin|
|$LN2@ChPopupWin|
	ldr         w8,[sp,#0x18]
	add         w8,w8,#1
	str         w8,[sp,#0x18]
|$LN4@ChPopupWin|
	ldr         x8,[sp,#0x10]
	add         x8,x8,#0x60
	ldr         x8,[x8]
	ldr         w9,[x8]
	ldr         w8,[sp,#0x18]
	cmp         w8,w9
	bhs         |$LN3@ChPopupWin|

; 744  : 		ChWindow* pw = (ChWindow*)list_get_at(win->popup, i);

	ldr         x8,[sp,#0x10]
	add         x8,x8,#0x60
	ldr         w1,[sp,#0x18]
	ldr         x0,[x8]
	bl          list_get_at
	str         x0,[sp,#0x28]

; 745  : 		ChPopupWindowClose(pw);

	ldr         x0,[sp,#0x28]
	bl          ChPopupWindowClose

; 746  : 	}

	b           |$LN2@ChPopupWin|
|$LN3@ChPopupWin|

; 747  : 	list_clear_all(win->popup);

	ldr         x8,[sp,#0x10]
	add         x8,x8,#0x60
	ldr         x0,[x8]
	bl          list_clear_all

; 748  : 	free(win->popup);

	ldr         x8,[sp,#0x10]
	add         x8,x8,#0x60
	ldr         x0,[x8]
	bl          free

; 749  : 	_KePrint("Popup Window closed \r\n");

	adrp        x8,|$SG5683|
	add         x0,x8,PageOffset(|$SG5683|)
	bl          _KePrint

; 750  : 	/* free up window resources */
; 751  : 	ChFreeWindowResources(win);

	ldr         x0,[sp,#0x10]
	bl          |?ChFreeWindowResources@@YAXPEAU_chwin_@@@Z|

; 752  : 	
; 753  : 	/* send close window command to deodhai */
; 754  : 	int handle = win->handle;

	ldr         x8,[sp,#0x10]
	add         x8,x8,#0x38
	ldr         w8,[x8]
	str         w8,[sp,#0x1C]

; 755  : 	PostEvent e;
; 756  : 	e.type = DEODHAI_MESSAGE_CLOSE_WINDOW;

	mov         w8,#0x38
	strb        w8,[sp,#0x30]

; 757  : 	e.dword = handle;

	ldr         w8,[sp,#0x1C]
	str         w8,[sp,#0x38]

; 758  : 	e.from_id = win->app->currentID;

	ldr         x8,[sp,#0x10]
	add         x8,x8,#0x30
	ldr         x8,[x8]
	add         x8,x8,#0x38
	ldrh        w8,[x8]
	strh        w8,[sp,#0x34]

; 759  : 	e.to_id = POSTBOX_ROOT_ID;

	mov         w8,#1
	strh        w8,[sp,#0x32]

; 760  : 	_KeFileIoControl(win->app->postboxfd, POSTBOX_PUT_EVENT, &e);

	ldr         x8,[sp,#0x10]
	add         x8,x8,#0x30
	ldr         x8,[x8]
	add         x2,sp,#0x30
	mov         w1,#0x193
	ldr         w0,[x8]
	bl          _KeFileIoControl

; 761  : 	memset(&e, 0, sizeof(PostEvent));

	add         x10,sp,#0x30
	mov         x9,#0
	add         x8,x10,#0xB0
|$LN11@ChPopupWin|
	stp         x9,x9,[x10]
	add         x10,x10,#0x10
	cmp         x10,x8
	bne         |$LN11@ChPopupWin|
|$LN5@ChPopupWin|

; 762  : 
; 763  : 
; 764  : 	/* wait for a closed reply window */
; 765  : 	while (1) {

	mov         w8,#1
	cmp         w8,#0
	beq         |$LN6@ChPopupWin|

; 766  : 		int err = _KeFileIoControl(win->app->postboxfd, POSTBOX_GET_EVENT, &e);

	ldr         x8,[sp,#0x10]
	add         x8,x8,#0x30
	ldr         x8,[x8]
	add         x2,sp,#0x30
	mov         w1,#0x194
	ldr         w0,[x8]
	bl          _KeFileIoControl
	mov         w0,w0
	str         w0,[sp,#0x20]

; 767  : 		if (err == POSTBOX_NO_EVENT)

	ldr         w8,[sp,#0x20]
	cmn         w8,#1
	bne         |$LN8@ChPopupWin|

; 768  : 			_KePauseThread();

	bl          _KePauseThread
|$LN8@ChPopupWin|

; 769  : 		if (e.type == DEODHAI_REPLY_WINDOW_CLOSED) {

	ldrb        w8,[sp,#0x30]
	mov         w8,w8
	cmp         w8,#0x9C
	bne         |$LN9@ChPopupWin|

; 770  : 			break;

	b           |$LN6@ChPopupWin|
|$LN9@ChPopupWin|

; 771  : 		}
; 772  : 	}

	b           |$LN5@ChPopupWin|
|$LN6@ChPopupWin|

; 773  : 
; 774  : 	free(win->app);

	ldr         x8,[sp,#0x10]
	add         x8,x8,#0x30
	ldr         x0,[x8]
	bl          free

; 775  : 	free(win);

	ldr         x0,[sp,#0x10]
	bl          free
	ldp         fp,lr,[sp],#0xE0
	ret

	ENDP  ; |ChPopupWindowClose|

; Function compile flags: /Odtp
; File E:\Xeneva Project\Aurora\Libs\Chitralekha\widgets\window.cpp

	AREA	|.text$mn|, CODE, ARM64

|?ChFreeWindowResources@@YAXPEAU_chwin_@@@Z| PROC	; ChFreeWindowResources

; 709  : void ChFreeWindowResources(ChWindow *win) {

|$LN10|
	stp         fp,lr,[sp,#-0x30]!
	mov         fp,sp
	str         x0,[sp,#0x18]

; 710  : 	/* free up global controls*/
; 711  : 	for (int i = 0; i < win->GlobalControls->pointer; i++) {

	mov         w8,#0
	str         w8,[sp,#0x10]
	b           |$LN4@ChFreeWind|
|$LN2@ChFreeWind|
	ldr         w8,[sp,#0x10]
	add         w8,w8,#1
	str         w8,[sp,#0x10]
|$LN4@ChFreeWind|
	ldr         x8,[sp,#0x18]
	add         x8,x8,#0x48
	ldr         x8,[x8]
	ldr         w9,[x8]
	ldr         w8,[sp,#0x10]
	cmp         w8,w9
	bhs         |$LN3@ChFreeWind|

; 712  : 		ChWinGlobalControl* glbl_ = (ChWinGlobalControl*)list_remove(win->GlobalControls, i);

	ldr         x8,[sp,#0x18]
	add         x8,x8,#0x48
	ldr         w1,[sp,#0x10]
	ldr         x0,[x8]
	bl          list_remove
	str         x0,[sp,#0x28]

; 713  : 		free(glbl_);

	ldr         x0,[sp,#0x28]
	bl          free

; 714  : 	}

	b           |$LN2@ChFreeWind|
|$LN3@ChFreeWind|

; 715  : 	free(win->GlobalControls);

	ldr         x8,[sp,#0x18]
	add         x8,x8,#0x48
	ldr         x0,[x8]
	bl          free

; 716  : 	_KePrint("Freeing up widgets \r\n");

	adrp        x8,|$SG5663|
	add         x0,x8,PageOffset(|$SG5663|)
	bl          _KePrint

; 717  : 	for (int i = 0; i < win->widgets->pointer; i++) {

	mov         w8,#0
	str         w8,[sp,#0x14]
	b           |$LN7@ChFreeWind|
|$LN5@ChFreeWind|
	ldr         w8,[sp,#0x14]
	add         w8,w8,#1
	str         w8,[sp,#0x14]
|$LN7@ChFreeWind|
	ldr         x8,[sp,#0x18]
	add         x8,x8,#0x50
	ldr         x8,[x8]
	ldr         w9,[x8]
	ldr         w8,[sp,#0x14]
	cmp         w8,w9
	bhs         |$LN6@ChFreeWind|

; 718  : 		ChWidget* wid = (ChWidget*)list_get_at(win->widgets, i);

	ldr         x8,[sp,#0x18]
	add         x8,x8,#0x50
	ldr         w1,[sp,#0x14]
	ldr         x0,[x8]
	bl          list_get_at
	str         x0,[sp,#0x20]

; 719  : 		if (wid->ChDestroy)

	ldr         x8,[sp,#0x20]
	add         x8,x8,#0x48
	ldr         x8,[x8]
	cmp         x8,#0
	beq         |$LN8@ChFreeWind|

; 720  : 			wid->ChDestroy(wid, win);

	ldr         x8,[sp,#0x20]
	add         x8,x8,#0x48
	ldr         x1,[sp,#0x18]
	ldr         x0,[sp,#0x20]
	ldr         x8,[x8]
	blr         x8
|$LN8@ChFreeWind|

; 721  : 	}

	b           |$LN5@ChFreeWind|
|$LN6@ChFreeWind|

; 722  : 	_KePrint("Widgets cleared \r\n");

	adrp        x8,|$SG5665|
	add         x0,x8,PageOffset(|$SG5665|)
	bl          _KePrint

; 723  : 	list_clear_all(win->widgets);

	ldr         x8,[sp,#0x18]
	add         x8,x8,#0x50
	ldr         x0,[x8]
	bl          list_clear_all

; 724  : 
; 725  : 	_KePrint("Window Resource cleared -> %d \r\n", win->widgets->pointer);

	ldr         x8,[sp,#0x18]
	add         x8,x8,#0x50
	ldr         x8,[x8]
	ldr         w1,[x8]
	adrp        x8,|$SG5666|
	add         x0,x8,PageOffset(|$SG5666|)
	bl          _KePrint

; 726  : 	free(win->widgets);

	ldr         x8,[sp,#0x18]
	add         x8,x8,#0x50
	ldr         x0,[x8]
	bl          free

; 727  : 	ChDeAllocateBuffer(win->canv);

	ldr         x8,[sp,#0x18]
	add         x8,x8,#0x18
	ldr         x0,[x8]
	bl          ChDeAllocateBuffer

; 728  : 	free(win->title);

	ldr         x8,[sp,#0x18]
	add         x8,x8,#0x20
	ldr         x0,[x8]
	bl          free

; 729  : 	free(win->subwindow);

	ldr         x8,[sp,#0x18]
	add         x8,x8,#0x58
	ldr         x0,[x8]
	bl          free
	ldp         fp,lr,[sp],#0x30
	ret

	ENDP  ; |?ChFreeWindowResources@@YAXPEAU_chwin_@@@Z|, ChFreeWindowResources

; Function compile flags: /Odtp
; File E:\Xeneva Project\Aurora\Libs\Chitralekha\widgets\window.cpp

	AREA	|.text$mn|, CODE, ARM64

|?ChGlobalMinimiseAction@@YAXPEAU_chwin_@@PEAU_global_ctrl_@@@Z| PROC ; ChGlobalMinimiseAction

; 147  : void ChGlobalMinimiseAction(ChWindow* win, ChWinGlobalControl* ctl) {

|$LN3|
	stp         fp,lr,[sp,#-0x20]!
	mov         fp,sp
	str         x0,[sp,#0x10]
	str         x1,[sp,#0x18]

; 148  : 	ChWindowHide(win);

	ldr         x0,[sp,#0x10]
	bl          ChWindowHide
	ldp         fp,lr,[sp],#0x20
	ret

	ENDP  ; |?ChGlobalMinimiseAction@@YAXPEAU_chwin_@@PEAU_global_ctrl_@@@Z|, ChGlobalMinimiseAction

; Function compile flags: /Odtp
; File E:\Xeneva Project\Aurora\Libs\Chitralekha\widgets\window.cpp

	AREA	|.text$mn|, CODE, ARM64

|?ChGlobalCloseAction@@YAXPEAU_chwin_@@PEAU_global_ctrl_@@@Z| PROC ; ChGlobalCloseAction

; 142  : void ChGlobalCloseAction(ChWindow* win, ChWinGlobalControl *ctl) {

|$LN3|
	stp         fp,lr,[sp,#-0x20]!
	mov         fp,sp
	str         x0,[sp,#0x10]
	str         x1,[sp,#0x18]

; 143  : 	//ChFontClose(win->app->baseFont);
; 144  : 	ChWindowCloseWindow(win);

	ldr         x0,[sp,#0x10]
	bl          ChWindowCloseWindow
	ldp         fp,lr,[sp],#0x20
	ret

	ENDP  ; |?ChGlobalCloseAction@@YAXPEAU_chwin_@@PEAU_global_ctrl_@@@Z|, ChGlobalCloseAction

; Function compile flags: /Odtp
; File E:\Xeneva Project\Aurora\Libs\Chitralekha\widgets\window.cpp

	AREA	|.text$mn|, CODE, ARM64

|ChCreateGlobalButton| PROC

; 129  : XE_EXTERN XE_EXPORT ChWinGlobalControl* ChCreateGlobalButton(ChWindow* win, int x, int y, int w, int h, uint8_t type) {

|$LN3|
	stp         fp,lr,[sp,#-0x40]!
	mov         fp,sp
	str         x0,[sp,#0x30]
	str         w1,[sp,#0x14]
	str         w2,[sp,#0x18]
	str         w3,[sp,#0x1C]
	str         w4,[sp,#0x20]
	uxtb        w8,w5
	strb        w8,[sp,#0x10]

; 130  : 	ChWinGlobalControl* glbl = (ChWinGlobalControl*)malloc(sizeof(ChWinGlobalControl));

	mov         w0,#0x48
	bl          malloc
	str         x0,[sp,#0x28]

; 131  : 	glbl->x = x;

	ldr         x9,[sp,#0x28]
	ldr         w8,[sp,#0x14]
	str         w8,[x9]

; 132  : 	glbl->y = y;

	ldr         x8,[sp,#0x28]
	add         x9,x8,#4
	ldr         w8,[sp,#0x18]
	str         w8,[x9]

; 133  : 	glbl->w = w;

	ldr         x8,[sp,#0x28]
	add         x9,x8,#8
	ldr         w8,[sp,#0x1C]
	str         w8,[x9]

; 134  : 	glbl->h = h;

	ldr         x8,[sp,#0x28]
	add         x9,x8,#0xC
	ldr         w8,[sp,#0x20]
	str         w8,[x9]

; 135  : 	glbl->clicked = false;

	ldr         x8,[sp,#0x28]
	add         x9,x8,#0x12
	mov         w8,#0
	strb        w8,[x9]

; 136  : 	glbl->hover = false;

	ldr         x8,[sp,#0x28]
	add         x9,x8,#0x11
	mov         w8,#0
	strb        w8,[x9]

; 137  : 	glbl->type = type;

	ldr         x8,[sp,#0x28]
	add         x9,x8,#0x10
	ldrb        w8,[sp,#0x10]
	strb        w8,[x9]

; 138  : 	list_add(win->GlobalControls, glbl);

	ldr         x8,[sp,#0x30]
	add         x8,x8,#0x48
	ldr         x1,[sp,#0x28]
	ldr         x0,[x8]
	bl          list_add

; 139  : 	return glbl;

	ldr         x0,[sp,#0x28]
	ldp         fp,lr,[sp],#0x40
	ret

	ENDP  ; |ChCreateGlobalButton|

; Function compile flags: /Odtp
; File E:\Xeneva Project\Aurora\Libs\Chitralekha\widgets\window.cpp

	AREA	|.text$mn|, CODE, ARM64

|?ChGlobalCtlMouseHandler@@YAXPEAU_chwin_@@PEAU_global_ctrl_@@HHH@Z| PROC ; ChGlobalCtlMouseHandler

; 108  : void ChGlobalCtlMouseHandler(ChWindow* win, ChWinGlobalControl* global, int x, int y, int button){

|$LN6|
	stp         fp,lr,[sp,#-0x30]!
	mov         fp,sp
	str         x0,[sp,#0x28]
	str         x1,[sp,#0x20]
	str         w2,[sp,#0x14]
	str         w3,[sp,#0x18]
	str         w4,[sp,#0x10]

; 109  : 	/* handle painting */
; 110  : 	if (global->ChGlobalButtonPaint) {

	ldr         x8,[sp,#0x20]
	add         x8,x8,#0x28
	ldr         x8,[x8]
	cmp         x8,#0
	beq         |$LN2@ChGlobalCt|

; 111  : 		global->ChGlobalButtonPaint(win, global);

	ldr         x8,[sp,#0x20]
	add         x8,x8,#0x28
	ldr         x1,[sp,#0x20]
	ldr         x0,[sp,#0x28]
	ldr         x8,[x8]
	blr         x8

; 112  : 		ChWindowUpdate(win, global->x, global->y, global->w, global->h,false, true);

	ldr         x8,[sp,#0x20]
	add         x11,x8,#0xC
	ldr         x8,[sp,#0x20]
	add         x10,x8,#8
	ldr         x8,[sp,#0x20]
	add         x9,x8,#4
	ldr         x8,[sp,#0x20]
	mov         w6,#1
	mov         w5,#0
	ldr         w4,[x11]
	ldr         w3,[x10]
	ldr         w2,[x9]
	ldr         w1,[x8]
	ldr         x0,[sp,#0x28]
	bl          ChWindowUpdate
|$LN2@ChGlobalCt|

; 113  : 	}
; 114  : 
; 115  : 	/* handle action event */
; 116  : 	if (button)

	ldr         w8,[sp,#0x10]
	cmp         w8,#0
	beq         |$LN3@ChGlobalCt|

; 117  : 	if (global->ChGlobalActionEvent)

	ldr         x8,[sp,#0x20]
	add         x8,x8,#0x40
	ldr         x8,[x8]
	cmp         x8,#0
	beq         |$LN4@ChGlobalCt|

; 118  : 		global->ChGlobalActionEvent(win, global);

	ldr         x8,[sp,#0x20]
	add         x8,x8,#0x40
	ldr         x1,[sp,#0x20]
	ldr         x0,[sp,#0x28]
	ldr         x8,[x8]
	blr         x8
|$LN4@ChGlobalCt|
|$LN3@ChGlobalCt|
	ldp         fp,lr,[sp],#0x30
	ret

	ENDP  ; |?ChGlobalCtlMouseHandler@@YAXPEAU_chwin_@@PEAU_global_ctrl_@@HHH@Z|, ChGlobalCtlMouseHandler

; Function compile flags: /Odtp
; File E:\Xeneva Project\Aurora\Libs\Chitralekha\widgets\window.cpp

	AREA	|.text$mn|, CODE, ARM64

|?ChRequestWindow@@YAXPEAU_ChApp_@@HHHHPEADGH@Z| PROC	; ChRequestWindow

; 59   : void ChRequestWindow(ChitralekhaApp* app, int x, int y, int w, int h, char* title, uint16_t attrib,int handle) {

|$LN13|
	stp         fp,lr,[sp,#-0x130]!
	mov         fp,sp
	str         x0,[sp,#0x18]
	str         w1,[sp,#0x40]
	str         w2,[sp,#0x44]
	str         w3,[sp,#0x2C]
	str         w4,[sp,#0x30]
	str         x5,[sp,#0x60]
	uxth        w8,w6
	strh        w8,[sp,#0x20]
	str         w7,[sp,#0x48]

; 60   : 	_KePrint("[Chitralekha] : Requesting window \r\n");

	adrp        x8,|$SG5349|
	add         x0,x8,PageOffset(|$SG5349|)
	bl          _KePrint

; 61   : 	PostEvent e;
; 62   : 	e.type = DEODHAI_MESSAGE_CREATEWIN;

	mov         w8,#0x32
	strb        w8,[sp,#0x80]

; 63   : 	e.dword = x;

	ldr         w8,[sp,#0x40]
	str         w8,[sp,#0x88]

; 64   : 	e.dword2 = y;

	ldr         w8,[sp,#0x44]
	str         w8,[sp,#0x8C]

; 65   : 	e.dword3 = w;

	ldr         w8,[sp,#0x2C]
	str         w8,[sp,#0x90]

; 66   : 	e.dword4 = h;

	ldr         w8,[sp,#0x30]
	str         w8,[sp,#0x94]

; 67   : 	e.dword5 = attrib;

	ldrh        w8,[sp,#0x20]
	mov         w8,w8
	str         w8,[sp,#0x98]

; 68   : 	e.dword6 = handle;

	ldr         w8,[sp,#0x48]
	str         w8,[sp,#0x9C]

; 69   : 	e.to_id = POSTBOX_ROOT_ID;

	mov         w8,#1
	strh        w8,[sp,#0x82]

; 70   : 	strcpy(e.charValue3, title);

	ldr         x8,[sp,#0x60]
	str         x8,[sp,#0x58]
	add         x8,sp,#0xC8
	str         x8,[sp,#0x38]
	ldr         x8,[sp,#0x38]
	str         x8,[sp,#0x78]
|$LN8@ChRequestW|
	ldr         x8,[sp,#0x58]
	ldrsb       w8,[x8]
	strb        w8,[sp,#0x10]
	ldr         x9,[sp,#0x38]
	ldrsb       w8,[sp,#0x10]
	strb        w8,[x9]
	ldr         x8,[sp,#0x58]
	add         x8,x8,#1
	str         x8,[sp,#0x58]
	ldr         x8,[sp,#0x38]
	add         x8,x8,#1
	str         x8,[sp,#0x38]
	ldrsb       w8,[sp,#0x10]
	cmp         w8,#0
	bne         |$LN8@ChRequestW|

; 71   : 	e.from_id = app->currentID;

	ldr         x8,[sp,#0x18]
	add         x8,x8,#0x38
	ldrh        w8,[x8]
	strh        w8,[sp,#0x84]

; 72   : 	_KeFileIoControl(app->postboxfd, POSTBOX_PUT_EVENT, &e);

	ldr         x8,[sp,#0x18]
	add         x2,sp,#0x80
	mov         w1,#0x193
	ldr         w0,[x8]
	bl          _KeFileIoControl

; 73   : 	_KePrint("[Chitralekha]: Request putted \r\n");

	adrp        x8,|$SG5350|
	add         x0,x8,PageOffset(|$SG5350|)
	bl          _KePrint

; 74   : 	memset(&e, 0, sizeof(PostEvent));

	add         x10,sp,#0x80
	mov         x9,#0
	add         x8,x10,#0xB0
|$LN9@ChRequestW|
	stp         x9,x9,[x10]
	add         x10,x10,#0x10
	cmp         x10,x8
	bne         |$LN9@ChRequestW|
|$LN2@ChRequestW|

; 75   : 	while (1) {

	mov         w8,#1
	cmp         w8,#0
	beq         |$LN3@ChRequestW|

; 76   : 		//_KePrint("[Chitralekha]: Getting event \r\n");
; 77   : 		int err = _KeFileIoControl(app->postboxfd, POSTBOX_GET_EVENT, &e);

	ldr         x8,[sp,#0x18]
	add         x2,sp,#0x80
	mov         w1,#0x194
	ldr         w0,[x8]
	bl          _KeFileIoControl
	mov         w0,w0
	str         w0,[sp,#0x50]

; 78   : 		if (e.type == DEODHAI_REPLY_WINCREATED){

	ldrb        w8,[sp,#0x80]
	mov         w8,w8
	cmp         w8,#0x96
	bne         |$LN4@ChRequestW|

; 79   : 				uint16_t shkey = e.dword;

	ldr         w8,[sp,#0x88]
	uxth        w8,w8
	strh        w8,[sp,#0x12]

; 80   : 				uint32_t buffKey = e.dword2;

	ldr         w8,[sp,#0x8C]
	str         w8,[sp,#0x28]

; 81   : 				if (buffKey < 100)

	ldr         w8,[sp,#0x28]
	cmp         w8,#0x64
	bhs         |$LN5@ChRequestW|

; 82   : 					_KePrint("Chitralekha: buffer key problem \n");

	adrp        x8,|$SG5353|
	add         x0,x8,PageOffset(|$SG5353|)
	bl          _KePrint
|$LN5@ChRequestW|

; 83   : 				uint32_t handle = e.dword3;

	ldr         w8,[sp,#0x90]
	str         w8,[sp,#0x4C]

; 84   : 				uint16_t shid = _KeCreateSharedMem(shkey, 0, 0);

	mov         w2,#0
	mov         x1,#0
	ldrh        w0,[sp,#0x12]
	bl          _KeCreateSharedMem
	mov         w0,w0
	uxth        w8,w0
	strh        w8,[sp,#0x22]

; 85   : 				uint16_t backid = _KeCreateSharedMem(buffKey, NULL, 0);

	ldr         w8,[sp,#0x28]
	uxth        w0,w8
	mov         w2,#0
	mov         x1,#0
	mov         w0,w0
	bl          _KeCreateSharedMem
	mov         w0,w0
	uxth        w8,w0
	strh        w8,[sp,#0x24]

; 86   : 				void* sharedwinaddr = _KeObtainSharedMem(shid, NULL, 0);

	mov         w2,#0
	mov         x1,#0
	ldrh        w0,[sp,#0x22]
	bl          _KeObtainSharedMem
	str         x0,[sp,#0x70]

; 87   : 				void* backbuff = _KeObtainSharedMem(backid, NULL, 0);

	mov         w2,#0
	mov         x1,#0
	ldrh        w0,[sp,#0x24]
	bl          _KeObtainSharedMem
	str         x0,[sp,#0x68]

; 88   : 				app->sharedWinkey = shkey;

	ldrh        w9,[sp,#0x12]
	mov         w9,w9
	ldr         x8,[sp,#0x18]
	add         x8,x8,#4
	str         w9,[x8]

; 89   : 				app->backbufkey = buffKey;

	ldr         x8,[sp,#0x18]
	add         x9,x8,#8
	ldr         w8,[sp,#0x28]
	str         w8,[x9]

; 90   : 				app->buffer_width = w;

	ldr         x8,[sp,#0x18]
	add         x9,x8,#0x20
	ldr         w8,[sp,#0x2C]
	str         w8,[x9]

; 91   : 				app->buffer_height = h;

	ldr         x8,[sp,#0x18]
	add         x9,x8,#0x24
	ldr         w8,[sp,#0x30]
	str         w8,[x9]

; 92   : 				app->fb = backbuff;

	ldr         x8,[sp,#0x18]
	add         x9,x8,#0x10
	ldr         x8,[sp,#0x68]
	str         x8,[x9]

; 93   : 				app->shwinbuf = sharedwinaddr;

	ldr         x8,[sp,#0x18]
	add         x9,x8,#0x18
	ldr         x8,[sp,#0x70]
	str         x8,[x9]

; 94   : 				app->windowHandle = handle;

	ldr         x8,[sp,#0x18]
	add         x9,x8,#0x28
	ldr         w8,[sp,#0x4C]
	str         w8,[x9]

; 95   : 				memset(&e, 0, sizeof(PostEvent));

	add         x10,sp,#0x80
	mov         x9,#0
	add         x8,x10,#0xB0
|$LN11@ChRequestW|
	stp         x9,x9,[x10]
	add         x10,x10,#0x10
	cmp         x10,x8
	bne         |$LN11@ChRequestW|

; 96   : 				break;

	b           |$LN3@ChRequestW|
|$LN4@ChRequestW|

; 97   : 			}
; 98   : 
; 99   : 		if (err == -1) {

	ldr         w8,[sp,#0x50]
	cmn         w8,#1
	bne         |$LN6@ChRequestW|

; 100  : 			//_KePauseThread();
; 101  : 			//_KePrint("Polling post event \r\n");
; 102  : 			_KeProcessSleep(100);

	mov         x0,#0x64
	bl          _KeProcessSleep
|$LN6@ChRequestW|

; 103  : 		}
; 104  : 	}

	b           |$LN2@ChRequestW|
|$LN3@ChRequestW|
	ldp         fp,lr,[sp],#0x130
	ret

	ENDP  ; |?ChRequestWindow@@YAXPEAU_ChApp_@@HHHHPEADGH@Z|, ChRequestWindow

; Function compile flags: /Odtp
; File E:\Xeneva Project\Aurora\Libs\Chitralekha\widgets\window.cpp

	AREA	|.text$mn|, CODE, ARM64

|ChPopupWindowHide| PROC

; 993  : XE_EXTERN XE_EXPORT void ChPopupWindowHide(ChWindow* pw, ChWindow* parent) {

|$LN3|
	sub         sp,sp,#0x10
	str         x0,[sp]
	str         x1,[sp,#8]

; 994  : 	pw->info->hide = true;

	ldr         x8,[sp]
	add         x8,x8,#0x28
	ldr         x9,[x8]
	mov         x8,#0x1019
	add         x9,x9,x8
	mov         w8,#1
	strb        w8,[x9]
	add         sp,sp,#0x10
	ret

	ENDP  ; |ChPopupWindowHide|

; Function compile flags: /Odtp
; File E:\Xeneva Project\Aurora\Libs\Chitralekha\widgets\window.cpp

	AREA	|.text$mn|, CODE, ARM64

|ChPopupWindowUpdateLocation| PROC

; 982  : XE_EXTERN XE_EXPORT void ChPopupWindowUpdateLocation(ChWindow* pwin,ChWindow* win, int x, int y) {

|$LN3|
	sub         sp,sp,#0x20
	str         x0,[sp,#0x10]
	str         x1,[sp,#8]
	str         w2,[sp]
	str         w3,[sp,#4]

; 983  : 	pwin->info->x = win->info->x + x;

	ldr         x8,[sp,#8]
	add         x8,x8,#0x28
	ldr         x9,[x8]
	mov         x8,#0x1008
	add         x8,x9,x8
	ldr         w9,[x8]
	ldr         w8,[sp]
	add         w10,w9,w8
	ldr         x8,[sp,#0x10]
	add         x8,x8,#0x28
	ldr         x9,[x8]
	mov         x8,#0x1008
	add         x8,x9,x8
	str         w10,[x8]

; 984  : 	pwin->info->y = win->info->y + y;

	ldr         x8,[sp,#8]
	add         x8,x8,#0x28
	ldr         x9,[x8]
	mov         x8,#0x100C
	add         x8,x9,x8
	ldr         w9,[x8]
	ldr         w8,[sp,#4]
	add         w10,w9,w8
	ldr         x8,[sp,#0x10]
	add         x8,x8,#0x28
	ldr         x9,[x8]
	mov         x8,#0x100C
	add         x8,x9,x8
	str         w10,[x8]
	add         sp,sp,#0x20
	ret

	ENDP  ; |ChPopupWindowUpdateLocation|

; Function compile flags: /Odtp
; File E:\Xeneva Project\Aurora\Libs\Chitralekha\widgets\window.cpp

	AREA	|.text$mn|, CODE, ARM64

|ChPopupWindowShow| PROC

; 964  : XE_EXTERN XE_EXPORT void ChPopupWindowShow(ChWindow* pw, ChWindow* win) {

|$LN3|
	stp         fp,lr,[sp,#-0x20]!
	mov         fp,sp
	str         x0,[sp,#0x18]
	str         x1,[sp,#0x10]

; 965  : 	pw->info->hide = 0;

	ldr         x8,[sp,#0x18]
	add         x8,x8,#0x28
	ldr         x9,[x8]
	mov         x8,#0x1019
	add         x9,x9,x8
	mov         w8,#0
	strb        w8,[x9]

; 966  : 	ChWindowSetFlags(win,(win->flags | WINDOW_FLAG_STATIC));

	ldr         x8,[sp,#0x10]
	ldrh        w8,[x8]
	mov         w8,w8
	orr         w8,w8,#2
	uxth        w1,w8
	mov         w1,w1
	ldr         x0,[sp,#0x10]
	bl          ChWindowSetFlags

; 967  : 	/* give some time slice to deodhai,
; 968  : 	 * to update itself and get ready for
; 969  : 	 * next events
; 970  : 	 */
; 971  : 	_KeProcessSleep(1000);

	mov         x0,#0x3E8
	bl          _KeProcessSleep
	ldp         fp,lr,[sp],#0x20
	ret

	ENDP  ; |ChPopupWindowShow|

; Function compile flags: /Odtp
; File E:\Xeneva Project\Aurora\Libs\Chitralekha\widgets\window.cpp

	AREA	|.text$mn|, CODE, ARM64

|ChPopupWindowUpdate| PROC

; 934  : XE_EXTERN XE_EXPORT void ChPopupWindowUpdate(ChPopupWindow* pw, int x, int y, int w, int h) {

|$LN12|
	stp         fp,lr,[sp,#-0x40]!
	mov         fp,sp
	str         x0,[sp,#0x28]
	str         w1,[sp,#0x18]
	str         w2,[sp,#0x10]
	str         w3,[sp,#0x20]
	str         w4,[sp,#0x1C]

; 935  : 	uint32_t *lfb = pw->buffer;

	ldr         x8,[sp,#0x28]
	add         x8,x8,#0x58
	ldr         x8,[x8]
	str         x8,[sp,#0x38]

; 936  : 	uint32_t* canvaddr = pw->canv->buffer;

	ldr         x8,[sp,#0x28]
	add         x8,x8,#0x78
	ldr         x8,[x8]
	add         x8,x8,#0x20
	ldr         x8,[x8]
	str         x8,[sp,#0x30]

; 937  : 	if (x < 0)

	ldr         w8,[sp,#0x18]
	cmp         w8,#0
	bge         |$LN5@ChPopupWin|

; 938  : 		x = 0;

	mov         w8,#0
	str         w8,[sp,#0x18]
|$LN5@ChPopupWin|

; 939  : 	if (y < 0)

	ldr         w8,[sp,#0x10]
	cmp         w8,#0
	bge         |$LN6@ChPopupWin|

; 940  : 		y = 0;

	mov         w8,#0
	str         w8,[sp,#0x10]
|$LN6@ChPopupWin|

; 941  : 	if (w >= pw->shwin->w)

	ldr         x8,[sp,#0x28]
	add         x8,x8,#0x50
	ldr         x8,[x8]
	add         x8,x8,#0x64C
	ldr         w9,[x8]
	ldr         w8,[sp,#0x20]
	cmp         w8,w9
	blt         |$LN7@ChPopupWin|

; 942  : 		w = pw->shwin->w;

	ldr         x8,[sp,#0x28]
	add         x8,x8,#0x50
	ldr         x8,[x8]
	add         x8,x8,#0x64C
	ldr         w8,[x8]
	str         w8,[sp,#0x20]
|$LN7@ChPopupWin|

; 943  : 	if (h >= pw->shwin->h)

	ldr         x8,[sp,#0x28]
	add         x8,x8,#0x50
	ldr         x8,[x8]
	add         x8,x8,#0x650
	ldr         w9,[x8]
	ldr         w8,[sp,#0x1C]
	cmp         w8,w9
	blt         |$LN8@ChPopupWin|

; 944  : 		h = pw->shwin->h;

	ldr         x8,[sp,#0x28]
	add         x8,x8,#0x50
	ldr         x8,[x8]
	add         x8,x8,#0x650
	ldr         w8,[x8]
	str         w8,[sp,#0x1C]
|$LN8@ChPopupWin|

; 945  : 
; 946  : 	if (x > pw->shwin->w)

	ldr         x8,[sp,#0x28]
	add         x8,x8,#0x50
	ldr         x8,[x8]
	add         x8,x8,#0x64C
	ldr         w9,[x8]
	ldr         w8,[sp,#0x18]
	cmp         w8,w9
	ble         |$LN9@ChPopupWin|

; 947  : 		return;

	b           |$LN1@ChPopupWin|
|$LN9@ChPopupWin|

; 948  : 	if (y > pw->shwin->h)

	ldr         x8,[sp,#0x28]
	add         x8,x8,#0x50
	ldr         x8,[x8]
	add         x8,x8,#0x650
	ldr         w9,[x8]
	ldr         w8,[sp,#0x10]
	cmp         w8,w9
	ble         |$LN10@ChPopupWin|

; 949  : 		return;

	b           |$LN1@ChPopupWin|
|$LN10@ChPopupWin|

; 950  : 
; 951  : 	for (int i = 0; i < h; i++)

	mov         w8,#0
	str         w8,[sp,#0x14]
	b           |$LN4@ChPopupWin|
|$LN2@ChPopupWin|
	ldr         w8,[sp,#0x14]
	add         w8,w8,#1
	str         w8,[sp,#0x14]
|$LN4@ChPopupWin|
	ldr         w9,[sp,#0x1C]
	ldr         w8,[sp,#0x14]
	cmp         w8,w9
	bge         |$LN3@ChPopupWin|

; 952  : 		_fastcpy(lfb + (static_cast<int64_t>(y) + i) * pw->shwin->w + x, 

	ldr         w8,[sp,#0x20]
	sxtw        x9,w8
	mov         x8,#4
	mul         x2,x9,x8
	ldr         w8,[sp,#0x10]
	sxtw        x9,w8
	ldr         w8,[sp,#0x14]
	sxtw        x8,w8
	add         x9,x9,x8
	ldr         x8,[sp,#0x28]
	add         x8,x8,#0x50
	ldr         x8,[x8]
	add         x8,x8,#0x64C
	ldr         w8,[x8]
	sxtw        x8,w8
	mul         x9,x9,x8
	mov         x8,#4
	mul         x9,x9,x8
	ldr         x8,[sp,#0x30]
	add         x10,x8,x9
	ldr         w8,[sp,#0x18]
	sxtw        x9,w8
	mov         x8,#4
	mul         x8,x9,x8
	add         x1,x10,x8
	ldr         w8,[sp,#0x10]
	sxtw        x9,w8
	ldr         w8,[sp,#0x14]
	sxtw        x8,w8
	add         x9,x9,x8
	ldr         x8,[sp,#0x28]
	add         x8,x8,#0x50
	ldr         x8,[x8]
	add         x8,x8,#0x64C
	ldr         w8,[x8]
	sxtw        x8,w8
	mul         x9,x9,x8
	mov         x8,#4
	mul         x9,x9,x8
	ldr         x8,[sp,#0x38]
	add         x10,x8,x9
	ldr         w8,[sp,#0x18]
	sxtw        x9,w8
	mov         x8,#4
	mul         x8,x9,x8
	add         x0,x10,x8
	bl          _fastcpy
	b           |$LN2@ChPopupWin|
|$LN3@ChPopupWin|

; 953  : 			canvaddr + (static_cast<int64_t>(y) + i) * pw->shwin->w + x, (static_cast<int64_t>(w) * 4));
; 954  : 	pw->shwin->dirty = 1;

	ldr         x8,[sp,#0x28]
	add         x8,x8,#0x50
	ldr         x8,[x8]
	add         x9,x8,#0x654
	mov         w8,#1
	strb        w8,[x9]
|$LN1@ChPopupWin|
	ldp         fp,lr,[sp],#0x40
	ret

	ENDP  ; |ChPopupWindowUpdate|

; Function compile flags: /Odtp
; File E:\Xeneva Project\Aurora\Libs\Chitralekha\widgets\window.cpp

	AREA	|.text$mn|, CODE, ARM64

|ChCreatePopupWindow| PROC

; 889  : XE_EXTERN XE_EXPORT ChWindow* ChCreatePopupWindow(ChWindow* win, int x, int y, int w, int h, uint16_t flags, char* title){

|$LN11|
	stp         fp,lr,[sp,#-0x90]!
	mov         fp,sp
	str         x0,[sp,#0x20]
	str         w1,[sp,#0x38]
	str         w2,[sp,#0x3C]
	str         w3,[sp,#0x28]
	str         w4,[sp,#0x2C]
	uxth        w8,w5
	strh        w8,[sp,#0x1A]
	str         x6,[sp,#0x30]

; 890  : 	if (!(flags & WINDOW_FLAG_POPUP))

	ldrh        w8,[sp,#0x1A]
	mov         w8,w8
	tbnz        x8,#0xB,|$LN2@ChCreatePo|

; 891  : 		flags |= WINDOW_FLAG_POPUP;

	ldrh        w8,[sp,#0x1A]
	mov         w8,w8
	orr         w8,w8,#0x800
	uxth        w8,w8
	strh        w8,[sp,#0x1A]
|$LN2@ChCreatePo|

; 892  : 	ChitralekhaApp* app = ChitralekhaStartSubApp(win->app);

	ldr         x8,[sp,#0x20]
	add         x8,x8,#0x30
	ldr         x0,[x8]
	bl          ChitralekhaStartSubApp
	str         x0,[sp,#0x40]

; 893  : 	ChRequestWindow(app, (win->info->x + x), (win->info->y + y), w, h, title,flags, win->handle);

	ldr         x8,[sp,#0x20]
	add         x10,x8,#0x38
	ldr         x8,[sp,#0x20]
	add         x8,x8,#0x28
	ldr         x9,[x8]
	mov         x8,#0x100C
	add         x8,x9,x8
	ldr         w9,[x8]
	ldr         w8,[sp,#0x3C]
	add         w2,w9,w8
	ldr         x8,[sp,#0x20]
	add         x8,x8,#0x28
	ldr         x9,[x8]
	mov         x8,#0x1008
	add         x8,x9,x8
	ldr         w9,[x8]
	ldr         w8,[sp,#0x38]
	add         w1,w9,w8
	ldr         w7,[x10]
	ldrh        w6,[sp,#0x1A]
	ldr         x5,[sp,#0x30]
	ldr         w4,[sp,#0x2C]
	ldr         w3,[sp,#0x28]
	mov         w2,w2
	mov         w1,w1
	ldr         x0,[sp,#0x40]
	bl          |?ChRequestWindow@@YAXPEAU_ChApp_@@HHHHPEADGH@Z|

; 894  : 	ChWindow* popup = (ChWindow*)malloc(sizeof(ChWindow));

	mov         w0,#0xE0
	bl          malloc
	str         x0,[sp,#0x10]

; 895  : 	memset(popup, 0, sizeof(ChWindow));

	ldr         x10,[sp,#0x10]
	mov         x9,#0
	add         x8,x10,#0xE0
|$LN9@ChCreatePo|
	stp         x9,x9,[x10]
	add         x10,x10,#0x10
	cmp         x10,x8
	bne         |$LN9@ChCreatePo|

; 896  : 	ChCanvas* canv = ChCreateCanvas(w, h);

	ldr         w1,[sp,#0x2C]
	ldr         w0,[sp,#0x28]
	bl          ChCreateCanvas
	str         x0,[sp,#0x68]

; 897  : 	ChAllocateBuffer(canv);

	ldr         x0,[sp,#0x68]
	bl          ChAllocateBuffer

; 898  : 	popup->app = app;

	ldr         x8,[sp,#0x10]
	add         x9,x8,#0x30
	ldr         x8,[sp,#0x40]
	str         x8,[x9]

; 899  : 	popup->flags = flags;

	ldr         x9,[sp,#0x10]
	ldrh        w8,[sp,#0x1A]
	strh        w8,[x9]

; 900  : 	popup->buffer = (uint32_t*)app->fb;

	ldr         x8,[sp,#0x40]
	add         x10,x8,#0x10
	ldr         x8,[sp,#0x10]
	add         x9,x8,#8
	ldr         x8,[x10]
	str         x8,[x9]

; 901  : 	popup->canv = canv;

	ldr         x8,[sp,#0x10]
	add         x9,x8,#0x18
	ldr         x8,[sp,#0x68]
	str         x8,[x9]

; 902  : 	popup->sharedwin = app->shwinbuf;

	ldr         x8,[sp,#0x40]
	add         x10,x8,#0x18
	ldr         x8,[sp,#0x10]
	add         x9,x8,#0x10
	ldr         x8,[x10]
	str         x8,[x9]

; 903  : 	popup->info = (ChSharedWinInfo*)popup->sharedwin;

	ldr         x8,[sp,#0x10]
	add         x10,x8,#0x10
	ldr         x8,[sp,#0x10]
	add         x9,x8,#0x28
	ldr         x8,[x10]
	str         x8,[x9]

; 904  : 	popup->title = (char*)malloc(strlen(title));

	ldr         x8,[sp,#0x30]
	str         x8,[sp,#0x48]
|$LN5@ChCreatePo|
	ldr         x8,[sp,#0x48]
	ldrsb       w8,[x8]
	cmp         w8,#0
	beq         |$LN4@ChCreatePo|
	ldr         x8,[sp,#0x48]
	add         x8,x8,#1
	str         x8,[sp,#0x48]
	b           |$LN5@ChCreatePo|
|$LN4@ChCreatePo|
	ldr         x9,[sp,#0x48]
	ldr         x8,[sp,#0x30]
	sub         x8,x9,x8
	str         x8,[sp,#0x70]
	ldr         x8,[sp,#0x70]
	mov         w0,w8
	mov         w0,w0
	bl          malloc
	ldr         x8,[sp,#0x10]
	add         x8,x8,#0x20
	str         x0,[x8]

; 905  : 	memset(popup->title, 0, strlen(title));

	ldr         x8,[sp,#0x30]
	str         x8,[sp,#0x50]
|$LN7@ChCreatePo|
	ldr         x8,[sp,#0x50]
	ldrsb       w8,[x8]
	cmp         w8,#0
	beq         |$LN6@ChCreatePo|
	ldr         x8,[sp,#0x50]
	add         x8,x8,#1
	str         x8,[sp,#0x50]
	b           |$LN7@ChCreatePo|
|$LN6@ChCreatePo|
	ldr         x9,[sp,#0x50]
	ldr         x8,[sp,#0x30]
	sub         x8,x9,x8
	str         x8,[sp,#0x78]
	ldr         x8,[sp,#0x10]
	add         x8,x8,#0x20
	ldr         x2,[sp,#0x78]
	mov         w1,#0
	ldr         x0,[x8]
	bl          memset

; 906  : 	strcpy(popup->title, title);

	ldr         x8,[sp,#0x30]
	str         x8,[sp,#0x60]
	ldr         x8,[sp,#0x10]
	add         x8,x8,#0x20
	ldr         x8,[x8]
	str         x8,[sp,#0x58]
	ldr         x8,[sp,#0x58]
	str         x8,[sp,#0x80]
|$LN8@ChCreatePo|
	ldr         x8,[sp,#0x60]
	ldrsb       w8,[x8]
	strb        w8,[sp,#0x18]
	ldr         x9,[sp,#0x58]
	ldrsb       w8,[sp,#0x18]
	strb        w8,[x9]
	ldr         x8,[sp,#0x60]
	add         x8,x8,#1
	str         x8,[sp,#0x60]
	ldr         x8,[sp,#0x58]
	add         x8,x8,#1
	str         x8,[sp,#0x58]
	ldrsb       w8,[sp,#0x18]
	cmp         w8,#0
	bne         |$LN8@ChCreatePo|

; 907  : 	popup->info->x = win->info->x + x;

	ldr         x8,[sp,#0x20]
	add         x8,x8,#0x28
	ldr         x9,[x8]
	mov         x8,#0x1008
	add         x8,x9,x8
	ldr         w9,[x8]
	ldr         w8,[sp,#0x38]
	add         w10,w9,w8
	ldr         x8,[sp,#0x10]
	add         x8,x8,#0x28
	ldr         x9,[x8]
	mov         x8,#0x1008
	add         x8,x9,x8
	str         w10,[x8]

; 908  : 	popup->info->y = win->info->y + y;

	ldr         x8,[sp,#0x20]
	add         x8,x8,#0x28
	ldr         x9,[x8]
	mov         x8,#0x100C
	add         x8,x9,x8
	ldr         w9,[x8]
	ldr         w8,[sp,#0x3C]
	add         w10,w9,w8
	ldr         x8,[sp,#0x10]
	add         x8,x8,#0x28
	ldr         x9,[x8]
	mov         x8,#0x100C
	add         x8,x9,x8
	str         w10,[x8]

; 909  : 	popup->info->width = w;

	ldr         x8,[sp,#0x10]
	add         x8,x8,#0x28
	ldr         x9,[x8]
	mov         x8,#0x1010
	add         x9,x9,x8
	ldr         w8,[sp,#0x28]
	str         w8,[x9]

; 910  : 	popup->info->height = h;

	ldr         x8,[sp,#0x10]
	add         x8,x8,#0x28
	ldr         x9,[x8]
	mov         x8,#0x1014
	add         x9,x9,x8
	ldr         w8,[sp,#0x2C]
	str         w8,[x9]

; 911  : 	popup->info->rect_count = 0;

	ldr         x8,[sp,#0x10]
	add         x8,x8,#0x28
	ldr         x8,[x8]
	add         x9,x8,#1,lsl #0xC
	mov         w8,#0
	str         w8,[x9]

; 912  : 	popup->info->updateEntireWindow = 0;

	ldr         x8,[sp,#0x10]
	add         x8,x8,#0x28
	ldr         x9,[x8]
	mov         x8,#0x1005
	add         x9,x9,x8
	mov         w8,#0
	strb        w8,[x9]

; 913  : 	popup->info->hide = true;

	ldr         x8,[sp,#0x10]
	add         x8,x8,#0x28
	ldr         x9,[x8]
	mov         x8,#0x1019
	add         x9,x9,x8
	mov         w8,#1
	strb        w8,[x9]

; 914  : 	popup->handle = app->windowHandle;

	ldr         x8,[sp,#0x40]
	add         x10,x8,#0x28
	ldr         x8,[sp,#0x10]
	add         x9,x8,#0x38
	ldr         w8,[x10]
	str         w8,[x9]

; 915  : 	popup->focused = true;

	ldr         x8,[sp,#0x10]
	add         x9,x8,#0x40
	mov         w8,#1
	strb        w8,[x9]

; 916  : 	popup->ChWinPaint = ChDefaultPopupWinPaint;

	ldr         x8,[sp,#0x10]
	add         x9,x8,#0xD0
	adrp        x8,|?ChDefaultPopupWinPaint@@YAXPEAU_chwin_@@@Z|
	add         x8,x8,PageOffset(|?ChDefaultPopupWinPaint@@YAXPEAU_chwin_@@@Z|)
	str         x8,[x9]

; 917  : 	popup->widgets = initialize_list();

	bl          initialize_list
	ldr         x8,[sp,#0x10]
	add         x8,x8,#0x50
	str         x0,[x8]

; 918  : 	popup->popup = initialize_list();

	bl          initialize_list
	ldr         x8,[sp,#0x10]
	add         x8,x8,#0x60
	str         x0,[x8]

; 919  : 	popup->GlobalControls = initialize_list();

	bl          initialize_list
	ldr         x8,[sp,#0x10]
	add         x8,x8,#0x48
	str         x0,[x8]

; 920  : 	popup->parent = win;

	ldr         x8,[sp,#0x10]
	add         x9,x8,#0x68
	ldr         x8,[sp,#0x20]
	str         x8,[x9]

; 921  : 	list_add(win->popup, popup);

	ldr         x8,[sp,#0x20]
	add         x8,x8,#0x60
	ldr         x1,[sp,#0x10]
	ldr         x0,[x8]
	bl          list_add

; 922  : 	return popup;

	ldr         x0,[sp,#0x10]
	ldp         fp,lr,[sp],#0x90
	ret

	ENDP  ; |ChCreatePopupWindow|

; Function compile flags: /Odtp
; File E:\Xeneva Project\Aurora\Libs\Chitralekha\widgets\window.cpp

	AREA	|.text$mn|, CODE, ARM64

|ChWindowCloseWindow| PROC

; 782  : XE_EXTERN XE_EXPORT void ChWindowCloseWindow(ChWindow* win){

|$LN19|
	stp         fp,lr,[sp,#-0x100]!
	mov         fp,sp
	str         x0,[sp,#0x10]

; 783  : 	bool subWindow = false;

	mov         w8,#0
	strb        w8,[sp,#0x18]

; 784  : 	ChWindow* parent = NULL;

	mov         x8,#0
	str         x8,[sp,#0x30]

; 785  : 	uint16_t flags = win->flags;

	ldr         x8,[sp,#0x10]
	ldrh        w8,[x8]
	strh        w8,[sp,#0x24]

; 786  : 	/* call the close callback before closing the window*/
; 787  : 	if (win->ChCloseWin)

	ldr         x8,[sp,#0x10]
	add         x8,x8,#0xD8
	ldr         x8,[x8]
	cmp         x8,#0
	beq         |$LN10@ChWindowCl|

; 788  : 		win->ChCloseWin(win);

	ldr         x8,[sp,#0x10]
	add         x8,x8,#0xD8
	ldr         x0,[sp,#0x10]
	ldr         x8,[x8]
	blr         x8
|$LN10@ChWindowCl|

; 789  : 
; 790  : 
; 791  : 	/* check if this was a sub window */
; 792  : 	if (win->parent && !(win->flags & WINDOW_FLAG_POPUP)) {

	ldr         x8,[sp,#0x10]
	add         x8,x8,#0x68
	ldr         x8,[x8]
	cmp         x8,#0
	beq         |$LN11@ChWindowCl|
	ldr         x8,[sp,#0x10]
	ldrh        w8,[x8]
	mov         w8,w8
	tbnz        x8,#0xB,|$LN11@ChWindowCl|

; 793  : 		parent = win->parent;

	ldr         x8,[sp,#0x10]
	add         x8,x8,#0x68
	ldr         x8,[x8]
	str         x8,[sp,#0x30]

; 794  : 		subWindow = true;

	mov         w8,#1
	strb        w8,[sp,#0x18]

; 795  : 		for (int i = 0; i < win->parent->subwindow->pointer; i++) {

	mov         w8,#0
	str         w8,[sp,#0x1C]
	b           |$LN4@ChWindowCl|
|$LN2@ChWindowCl|
	ldr         w8,[sp,#0x1C]
	add         w8,w8,#1
	str         w8,[sp,#0x1C]
|$LN4@ChWindowCl|
	ldr         x8,[sp,#0x10]
	add         x8,x8,#0x68
	ldr         x8,[x8]
	add         x8,x8,#0x58
	ldr         x8,[x8]
	ldr         w9,[x8]
	ldr         w8,[sp,#0x1C]
	cmp         w8,w9
	bhs         |$LN3@ChWindowCl|

; 796  : 			ChWindow* win_ = (ChWindow*)list_get_at(win->parent->subwindow, i);

	ldr         x8,[sp,#0x10]
	add         x8,x8,#0x68
	ldr         x8,[x8]
	add         x8,x8,#0x58
	ldr         w1,[sp,#0x1C]
	ldr         x0,[x8]
	bl          list_get_at
	str         x0,[sp,#0x38]

; 797  : 			if (win_ == win) {

	ldr         x9,[sp,#0x10]
	ldr         x8,[sp,#0x38]
	cmp         x8,x9
	bne         |$LN12@ChWindowCl|

; 798  : 				list_remove(win->parent->subwindow, i);

	ldr         x8,[sp,#0x10]
	add         x8,x8,#0x68
	ldr         x8,[x8]
	add         x8,x8,#0x58
	ldr         w1,[sp,#0x1C]
	ldr         x0,[x8]
	bl          list_remove

; 799  : 				break;

	b           |$LN3@ChWindowCl|
|$LN12@ChWindowCl|

; 800  : 			}
; 801  : 		}

	b           |$LN2@ChWindowCl|
|$LN3@ChWindowCl|
|$LN11@ChWindowCl|

; 802  : 
; 803  : 	}
; 804  : 
; 805  : 	/* send close window command to deodhai */
; 806  : 	int handle = win->handle;

	ldr         x8,[sp,#0x10]
	add         x8,x8,#0x38
	ldr         w8,[x8]
	str         w8,[sp,#0x28]

; 807  : 	PostEvent e;
; 808  : 	e.type = DEODHAI_MESSAGE_CLOSE_WINDOW;

	mov         w8,#0x38
	strb        w8,[sp,#0x48]

; 809  : 	e.dword = handle;

	ldr         w8,[sp,#0x28]
	str         w8,[sp,#0x50]

; 810  : 	e.from_id = win->app->currentID;

	ldr         x8,[sp,#0x10]
	add         x8,x8,#0x30
	ldr         x8,[x8]
	add         x8,x8,#0x38
	ldrh        w8,[x8]
	strh        w8,[sp,#0x4C]

; 811  : 	e.to_id = POSTBOX_ROOT_ID;

	mov         w8,#1
	strh        w8,[sp,#0x4A]

; 812  : 	_KeFileIoControl(win->app->postboxfd, POSTBOX_PUT_EVENT, &e);

	ldr         x8,[sp,#0x10]
	add         x8,x8,#0x30
	ldr         x8,[x8]
	add         x2,sp,#0x48
	mov         w1,#0x193
	ldr         w0,[x8]
	bl          _KeFileIoControl

; 813  : 	memset(&e, 0, sizeof(PostEvent));

	add         x10,sp,#0x48
	mov         x9,#0
	add         x8,x10,#0xB0
|$LN17@ChWindowCl|
	stp         x9,x9,[x10]
	add         x10,x10,#0x10
	cmp         x10,x8
	bne         |$LN17@ChWindowCl|
|$LN5@ChWindowCl|

; 814  : 
; 815  : 
; 816  : 	/* wait for a closed reply window */
; 817  : 	while (1) {

	mov         w8,#1
	cmp         w8,#0
	beq         |$LN6@ChWindowCl|

; 818  : 		int err = _KeFileIoControl(win->app->postboxfd, POSTBOX_GET_EVENT, &e);

	ldr         x8,[sp,#0x10]
	add         x8,x8,#0x30
	ldr         x8,[x8]
	add         x2,sp,#0x48
	mov         w1,#0x194
	ldr         w0,[x8]
	bl          _KeFileIoControl
	mov         w0,w0
	str         w0,[sp,#0x2C]

; 819  : 		if (err == POSTBOX_NO_EVENT)

	ldr         w8,[sp,#0x2C]
	cmn         w8,#1
	bne         |$LN13@ChWindowCl|

; 820  : 			_KePauseThread();

	bl          _KePauseThread
|$LN13@ChWindowCl|

; 821  : 		if (e.type == DEODHAI_REPLY_WINDOW_CLOSED) {

	ldrb        w8,[sp,#0x48]
	mov         w8,w8
	cmp         w8,#0x9C
	bne         |$LN14@ChWindowCl|

; 822  : 			break;

	b           |$LN6@ChWindowCl|
|$LN14@ChWindowCl|

; 823  : 		}
; 824  : 	}

	b           |$LN5@ChWindowCl|
|$LN6@ChWindowCl|

; 825  : 
; 826  : 	_KePrint("Closed reply received \r\n");

	adrp        x8,|$SG5715|
	add         x0,x8,PageOffset(|$SG5715|)
	bl          _KePrint

; 827  : 
; 828  : 	/* free up window's shared buffers, backbuffer and 
; 829  : 	 * shared window info buffer
; 830  : 	 */
; 831  : 	_KeUnmapSharedMem(win->app->sharedWinkey);

	ldr         x8,[sp,#0x10]
	add         x8,x8,#0x30
	ldr         x8,[x8]
	add         x8,x8,#4
	ldr         w8,[x8]
	uxth        w0,w8
	mov         w0,w0
	bl          _KeUnmapSharedMem

; 832  : 	_KeUnmapSharedMem(win->app->backbufkey);

	ldr         x8,[sp,#0x10]
	add         x8,x8,#0x30
	ldr         x8,[x8]
	add         x8,x8,#8
	ldr         w8,[x8]
	uxth        w0,w8
	mov         w0,w0
	bl          _KeUnmapSharedMem

; 833  : 
; 834  : 	/*
; 835  : 	 * Close all popup window
; 836  : 	 */
; 837  : 	for (int i = 0; i < win->popup->pointer; i++) {

	mov         w8,#0
	str         w8,[sp,#0x20]
	b           |$LN9@ChWindowCl|
|$LN7@ChWindowCl|
	ldr         w8,[sp,#0x20]
	add         w8,w8,#1
	str         w8,[sp,#0x20]
|$LN9@ChWindowCl|
	ldr         x8,[sp,#0x10]
	add         x8,x8,#0x60
	ldr         x8,[x8]
	ldr         w9,[x8]
	ldr         w8,[sp,#0x20]
	cmp         w8,w9
	bhs         |$LN8@ChWindowCl|

; 838  : 		ChWindow* pw = (ChWindow*)list_get_at(win->popup, i);

	ldr         x8,[sp,#0x10]
	add         x8,x8,#0x60
	ldr         w1,[sp,#0x20]
	ldr         x0,[x8]
	bl          list_get_at
	str         x0,[sp,#0x40]

; 839  : 		ChPopupWindowClose(pw);

	ldr         x0,[sp,#0x40]
	bl          ChPopupWindowClose

; 840  : 		_KePrint("pOPUP CLOSED \r\n");

	adrp        x8,|$SG5716|
	add         x0,x8,PageOffset(|$SG5716|)
	bl          _KePrint

; 841  : 	}

	b           |$LN7@ChWindowCl|
|$LN8@ChWindowCl|

; 842  : 	list_clear_all(win->popup);

	ldr         x8,[sp,#0x10]
	add         x8,x8,#0x60
	ldr         x0,[x8]
	bl          list_clear_all

; 843  : 	free(win->popup);

	ldr         x8,[sp,#0x10]
	add         x8,x8,#0x60
	ldr         x0,[x8]
	bl          free

; 844  : 	_KePrint("All popup window closed \r\n");

	adrp        x8,|$SG5717|
	add         x0,x8,PageOffset(|$SG5717|)
	bl          _KePrint

; 845  : 
; 846  : 	/* free up window resources */
; 847  : 	ChFreeWindowResources(win);

	ldr         x0,[sp,#0x10]
	bl          |?ChFreeWindowResources@@YAXPEAU_chwin_@@@Z|

; 848  : 
; 849  : 	free(win->app);

	ldr         x8,[sp,#0x10]
	add         x8,x8,#0x30
	ldr         x0,[x8]
	bl          free

; 850  : 	free(win);

	ldr         x0,[sp,#0x10]
	bl          free

; 851  : 
; 852  : 	_KePrint("Window freed \r\n");

	adrp        x8,|$SG5718|
	add         x0,x8,PageOffset(|$SG5718|)
	bl          _KePrint

; 853  : 	/* just jump to post event loop of main
; 854  : 	 * window */
; 855  : 	if (subWindow && parent && !(flags & WINDOW_FLAG_POPUP))

	ldrsb       w8,[sp,#0x18]
	mov         w8,w8
	cmp         w8,#0
	beq         |$LN15@ChWindowCl|
	ldr         x8,[sp,#0x30]
	cmp         x8,#0
	beq         |$LN15@ChWindowCl|
	ldrh        w8,[sp,#0x24]
	mov         w8,w8
	tbnz        x8,#0xB,|$LN15@ChWindowCl|

; 856  : 		longjmp(parent->jump, 1);

	ldr         x8,[sp,#0x30]
	add         x0,x8,#0x88
	mov         w1,#1
	bl          longjmp
|$LN15@ChWindowCl|

; 857  : 	
; 858  : 	/* if this window was the main window, simply exit the
; 859  : 	 * application
; 860  : 	 */
; 861  : #ifdef ARCH_X64
; 862  : 	if (!subWindow && !(flags & WINDOW_FLAG_POPUP))
; 863  : 		_KeProcessExit();
; 864  : #endif
; 865  : 	_KePrint("about to exit \r\n");

	adrp        x8,|$SG5720|
	add         x0,x8,PageOffset(|$SG5720|)
	bl          _KePrint

; 866  : 	_KeProcessExit();

	bl          _KeProcessExit
	ldp         fp,lr,[sp],#0x100
	ret

	ENDP  ; |ChWindowCloseWindow|

; Function compile flags: /Odtp
; File E:\Xeneva Project\Aurora\Libs\Chitralekha\widgets\window.cpp

	AREA	|.text$mn|, CODE, ARM64

|ChWindowRegisterJump| PROC

; 668  : XE_EXTERN XE_EXPORT void ChWindowRegisterJump(ChWindow* win) {

|$LN3|
	stp         fp,lr,[sp,#-0x20]!
	mov         fp,sp
	str         x0,[sp,#0x10]

; 669  : 	setjmp(win->jump);

	ldr         x8,[sp,#0x10]
	add         x0,x8,#0x88
	bl          setjmp
	ldp         fp,lr,[sp],#0x20
	ret

	ENDP  ; |ChWindowRegisterJump|

; Function compile flags: /Odtp
; File E:\Xeneva Project\Aurora\Libs\Chitralekha\widgets\window.cpp

	AREA	|.text$mn|, CODE, ARM64

|ChWindowMove| PROC

; 694  : XE_EXTERN XE_EXPORT void ChWindowMove(ChWindow* win, int newX, int newY) {

|$LN3|
	stp         fp,lr,[sp,#-0xD0]!
	mov         fp,sp
	str         x0,[sp,#0x18]
	str         w1,[sp,#0x10]
	str         w2,[sp,#0x14]

; 695  : 	PostEvent e;
; 696  : 	e.type = DEODHAI_MESSAGE_MOVE_WINDOW;

	mov         w8,#0x3C
	strb        w8,[sp,#0x20]

; 697  : 	e.dword = newX;

	ldr         w8,[sp,#0x10]
	str         w8,[sp,#0x28]

; 698  : 	e.dword2 = newY;

	ldr         w8,[sp,#0x14]
	str         w8,[sp,#0x2C]

; 699  : 	e.to_id = POSTBOX_ROOT_ID;

	mov         w8,#1
	strh        w8,[sp,#0x22]

; 700  : 	e.from_id = win->app->currentID;

	ldr         x8,[sp,#0x18]
	add         x8,x8,#0x30
	ldr         x8,[x8]
	add         x8,x8,#0x38
	ldrh        w8,[x8]
	strh        w8,[sp,#0x24]

; 701  : 	_KeFileIoControl(win->app->postboxfd, POSTBOX_PUT_EVENT, &e);

	ldr         x8,[sp,#0x18]
	add         x8,x8,#0x30
	ldr         x8,[x8]
	add         x2,sp,#0x20
	mov         w1,#0x193
	ldr         w0,[x8]
	bl          _KeFileIoControl
	ldp         fp,lr,[sp],#0xD0
	ret

	ENDP  ; |ChWindowMove|

; Function compile flags: /Odtp
; File E:\Xeneva Project\Aurora\Libs\Chitralekha\widgets\window.cpp

	AREA	|.text$mn|, CODE, ARM64

|ChWindowSetFlags| PROC

; 677  : XE_EXTERN XE_EXPORT void ChWindowSetFlags(ChWindow* win, uint16_t flags) {

|$LN3|
	stp         fp,lr,[sp,#-0xD0]!
	mov         fp,sp
	str         x0,[sp,#0x18]
	uxth        w8,w1
	strh        w8,[sp,#0x10]

; 678  : 	PostEvent e;
; 679  : 	e.type = DEODHAI_MESSAGE_SET_FLAGS;

	mov         w8,#0x39
	strb        w8,[sp,#0x20]

; 680  : 	e.dword = win->handle;

	ldr         x8,[sp,#0x18]
	add         x8,x8,#0x38
	ldr         w8,[x8]
	str         w8,[sp,#0x28]

; 681  : 	e.dword2 = flags;

	ldrh        w8,[sp,#0x10]
	mov         w8,w8
	str         w8,[sp,#0x2C]

; 682  : 	e.to_id = POSTBOX_ROOT_ID;

	mov         w8,#1
	strh        w8,[sp,#0x22]

; 683  : 	e.from_id = win->app->currentID;

	ldr         x8,[sp,#0x18]
	add         x8,x8,#0x30
	ldr         x8,[x8]
	add         x8,x8,#0x38
	ldrh        w8,[x8]
	strh        w8,[sp,#0x24]

; 684  : 	_KeFileIoControl(win->app->postboxfd, POSTBOX_PUT_EVENT, &e);

	ldr         x8,[sp,#0x18]
	add         x8,x8,#0x30
	ldr         x8,[x8]
	add         x2,sp,#0x20
	mov         w1,#0x193
	ldr         w0,[x8]
	bl          _KeFileIoControl

; 685  : 	win->flags = flags;

	ldr         x9,[sp,#0x18]
	ldrh        w8,[sp,#0x10]
	strh        w8,[x9]
	ldp         fp,lr,[sp],#0xD0
	ret

	ENDP  ; |ChWindowSetFlags|

; Function compile flags: /Odtp
; File E:\Xeneva Project\Aurora\Libs\Chitralekha\widgets\window.cpp

	AREA	|.text$mn|, CODE, ARM64

|ChPopupWindowHandleMouse| PROC

; 605  : XE_EXTERN XE_EXPORT void ChPopupWindowHandleMouse(ChWindow* win,int x, int y, int button) {

|$LN12|
	stp         fp,lr,[sp,#-0x30]!
	mov         fp,sp
	str         x0,[sp,#0x28]
	str         w1,[sp,#0x18]
	str         w2,[sp,#0x14]
	str         w3,[sp,#0x1C]

; 606  : 	if (!win)

	ldr         x8,[sp,#0x28]
	cmp         x8,#0
	bne         |$LN5@ChPopupWin|

; 607  : 		return;

	b           |$LN1@ChPopupWin|
|$LN5@ChPopupWin|

; 608  : 	for (int i = 0; i < win->widgets->pointer; i++){

	mov         w8,#0
	str         w8,[sp,#0x10]
	b           |$LN4@ChPopupWin|
|$LN2@ChPopupWin|
	ldr         w8,[sp,#0x10]
	add         w8,w8,#1
	str         w8,[sp,#0x10]
|$LN4@ChPopupWin|
	ldr         x8,[sp,#0x28]
	add         x8,x8,#0x50
	ldr         x8,[x8]
	ldr         w9,[x8]
	ldr         w8,[sp,#0x10]
	cmp         w8,w9
	bhs         |$LN3@ChPopupWin|

; 609  : 		ChWidget* pwid = (ChWidget*)list_get_at(win->widgets, i);

	ldr         x8,[sp,#0x28]
	add         x8,x8,#0x50
	ldr         w1,[sp,#0x10]
	ldr         x0,[x8]
	bl          list_get_at
	str         x0,[sp,#0x20]

; 610  : 		if (x >= (win->info->x + pwid->x) && x < (win->info->x + pwid->x + pwid->w) &&
; 611  : 			y >= (win->info->y + pwid->y) && y < (win->info->y + pwid->y + pwid->h)) {

	ldr         x8,[sp,#0x28]
	add         x8,x8,#0x28
	ldr         x9,[x8]
	mov         x8,#0x1008
	add         x9,x9,x8
	ldr         x8,[sp,#0x20]
	ldr         w9,[x9]
	ldr         w8,[x8]
	add         w9,w9,w8
	ldr         w8,[sp,#0x18]
	cmp         w8,w9
	blt         |$LN6@ChPopupWin|
	ldr         x8,[sp,#0x28]
	add         x8,x8,#0x28
	ldr         x9,[x8]
	mov         x8,#0x1008
	add         x9,x9,x8
	ldr         x8,[sp,#0x20]
	ldr         w9,[x9]
	ldr         w8,[x8]
	add         w9,w9,w8
	ldr         x8,[sp,#0x20]
	add         x8,x8,#8
	ldr         w8,[x8]
	add         w9,w9,w8
	ldr         w8,[sp,#0x18]
	cmp         w8,w9
	bge         |$LN6@ChPopupWin|
	ldr         x8,[sp,#0x28]
	add         x8,x8,#0x28
	ldr         x9,[x8]
	mov         x8,#0x100C
	add         x9,x9,x8
	ldr         x8,[sp,#0x20]
	add         x8,x8,#4
	ldr         w9,[x9]
	ldr         w8,[x8]
	add         w9,w9,w8
	ldr         w8,[sp,#0x14]
	cmp         w8,w9
	blt         |$LN6@ChPopupWin|
	ldr         x8,[sp,#0x28]
	add         x8,x8,#0x28
	ldr         x9,[x8]
	mov         x8,#0x100C
	add         x9,x9,x8
	ldr         x8,[sp,#0x20]
	add         x8,x8,#4
	ldr         w9,[x9]
	ldr         w8,[x8]
	add         w9,w9,w8
	ldr         x8,[sp,#0x20]
	add         x8,x8,#0xC
	ldr         w8,[x8]
	add         w9,w9,w8
	ldr         w8,[sp,#0x14]
	cmp         w8,w9
	bge         |$LN6@ChPopupWin|

; 612  : 			pwid->hover = true;

	ldr         x8,[sp,#0x20]
	add         x9,x8,#0x19
	mov         w8,#1
	strb        w8,[x9]

; 613  : 			pwid->KillFocus = false;

	ldr         x8,[sp,#0x20]
	add         x9,x8,#0x1B
	mov         w8,#0
	strb        w8,[x9]

; 614  : 			if (pwid->ChMouseEvent)

	ldr         x8,[sp,#0x20]
	add         x8,x8,#0x28
	ldr         x8,[x8]
	cmp         x8,#0
	beq         |$LN8@ChPopupWin|

; 615  : 				pwid->ChMouseEvent(pwid, win, x, y, button);

	ldr         x8,[sp,#0x20]
	add         x8,x8,#0x28
	ldr         w4,[sp,#0x1C]
	ldr         w3,[sp,#0x14]
	ldr         w2,[sp,#0x18]
	ldr         x1,[sp,#0x28]
	ldr         x0,[sp,#0x20]
	ldr         x8,[x8]
	blr         x8
|$LN8@ChPopupWin|

; 616  : 		}

	b           |$LN7@ChPopupWin|
|$LN6@ChPopupWin|

; 617  : 		else {
; 618  : 			if (pwid->hover) {

	ldr         x8,[sp,#0x20]
	add         x8,x8,#0x19
	ldrsb       w8,[x8]
	mov         w8,w8
	cmp         w8,#0
	beq         |$LN9@ChPopupWin|

; 619  : 				pwid->hover = false;

	ldr         x8,[sp,#0x20]
	add         x9,x8,#0x19
	mov         w8,#0
	strb        w8,[x9]

; 620  : 				pwid->KillFocus = true;

	ldr         x8,[sp,#0x20]
	add         x9,x8,#0x1B
	mov         w8,#1
	strb        w8,[x9]

; 621  : 				if (pwid->ChMouseEvent)

	ldr         x8,[sp,#0x20]
	add         x8,x8,#0x28
	ldr         x8,[x8]
	cmp         x8,#0
	beq         |$LN10@ChPopupWin|

; 622  : 					pwid->ChMouseEvent(pwid, win, x, y, button);

	ldr         x8,[sp,#0x20]
	add         x8,x8,#0x28
	ldr         w4,[sp,#0x1C]
	ldr         w3,[sp,#0x14]
	ldr         w2,[sp,#0x18]
	ldr         x1,[sp,#0x28]
	ldr         x0,[sp,#0x20]
	ldr         x8,[x8]
	blr         x8
|$LN10@ChPopupWin|
|$LN9@ChPopupWin|
|$LN7@ChPopupWin|

; 623  : 			}
; 624  : 		}
; 625  : 	}

	b           |$LN2@ChPopupWin|
|$LN3@ChPopupWin|
|$LN1@ChPopupWin|
	ldp         fp,lr,[sp],#0x30
	ret

	ENDP  ; |ChPopupWindowHandleMouse|

; Function compile flags: /Odtp
; File E:\Xeneva Project\Aurora\Libs\Chitralekha\widgets\window.cpp

	AREA	|.text$mn|, CODE, ARM64

|ChGetPopupWindowByHandle| PROC

; 344  : XE_EXTERN XE_EXPORT ChWindow* ChGetPopupWindowByHandle(ChWindow* mainWin, int handle){

|$LN7|
	stp         fp,lr,[sp,#-0x30]!
	mov         fp,sp
	str         x0,[sp,#0x18]
	str         w1,[sp,#0x14]

; 345  : 	for (int i = 0; i < mainWin->popup->pointer; i++) {

	mov         w8,#0
	str         w8,[sp,#0x10]
	b           |$LN4@ChGetPopup|
|$LN2@ChGetPopup|
	ldr         w8,[sp,#0x10]
	add         w8,w8,#1
	str         w8,[sp,#0x10]
|$LN4@ChGetPopup|
	ldr         x8,[sp,#0x18]
	add         x8,x8,#0x60
	ldr         x8,[x8]
	ldr         w9,[x8]
	ldr         w8,[sp,#0x10]
	cmp         w8,w9
	bhs         |$LN3@ChGetPopup|

; 346  : 		ChWindow* pw = (ChWindow*)list_get_at(mainWin->popup, i);

	ldr         x8,[sp,#0x18]
	add         x8,x8,#0x60
	ldr         w1,[sp,#0x10]
	ldr         x0,[x8]
	bl          list_get_at
	str         x0,[sp,#0x20]

; 347  : 		if (pw->handle == handle){

	ldr         x8,[sp,#0x20]
	add         x8,x8,#0x38
	ldr         w9,[sp,#0x14]
	ldr         w8,[x8]
	cmp         w8,w9
	bne         |$LN5@ChGetPopup|

; 348  : 			return pw;

	ldr         x0,[sp,#0x20]
	b           |$LN1@ChGetPopup|
|$LN5@ChGetPopup|

; 349  : 		}
; 350  : 	}

	b           |$LN2@ChGetPopup|
|$LN3@ChGetPopup|

; 351  : 	return NULL;

	mov         x0,#0
|$LN1@ChGetPopup|
	ldp         fp,lr,[sp],#0x30
	ret

	ENDP  ; |ChGetPopupWindowByHandle|

; Function compile flags: /Odtp
; File E:\Xeneva Project\Aurora\Libs\Chitralekha\widgets\window.cpp

	AREA	|.text$mn|, CODE, ARM64

|ChGetWindowByHandle| PROC

; 323  : XE_EXTERN XE_EXPORT ChWindow* ChGetWindowByHandle(ChWindow* mainWin,int handle) {

|$LN8|
	stp         fp,lr,[sp,#-0x30]!
	mov         fp,sp
	str         x0,[sp,#0x18]
	str         w1,[sp,#0x14]

; 324  : 	ChWindow* returnable = NULL;

	mov         x8,#0
	str         x8,[sp,#0x20]

; 325  : 	for (int i = 0; i < mainWin->subwindow->pointer; i++) {

	mov         w8,#0
	str         w8,[sp,#0x10]
	b           |$LN4@ChGetWindo|
|$LN2@ChGetWindo|
	ldr         w8,[sp,#0x10]
	add         w8,w8,#1
	str         w8,[sp,#0x10]
|$LN4@ChGetWindo|
	ldr         x8,[sp,#0x18]
	add         x8,x8,#0x58
	ldr         x8,[x8]
	ldr         w9,[x8]
	ldr         w8,[sp,#0x10]
	cmp         w8,w9
	bhs         |$LN3@ChGetWindo|

; 326  : 		ChWindow* sub = (ChWindow*)list_get_at(mainWin->subwindow, i);

	ldr         x8,[sp,#0x18]
	add         x8,x8,#0x58
	ldr         w1,[sp,#0x10]
	ldr         x0,[x8]
	bl          list_get_at
	str         x0,[sp,#0x28]

; 327  : 		if (sub->handle == handle){

	ldr         x8,[sp,#0x28]
	add         x8,x8,#0x38
	ldr         w9,[sp,#0x14]
	ldr         w8,[x8]
	cmp         w8,w9
	bne         |$LN5@ChGetWindo|

; 328  : 			returnable = sub;

	ldr         x8,[sp,#0x28]
	str         x8,[sp,#0x20]

; 329  : 			break;

	b           |$LN3@ChGetWindo|
|$LN5@ChGetWindo|

; 330  : 		}
; 331  : 	}

	b           |$LN2@ChGetWindo|
|$LN3@ChGetWindo|

; 332  : 
; 333  : 	if (!returnable)

	ldr         x8,[sp,#0x20]
	cmp         x8,#0
	bne         |$LN6@ChGetWindo|

; 334  : 		return mainWin;

	ldr         x0,[sp,#0x18]
	b           |$LN1@ChGetWindo|
|$LN6@ChGetWindo|

; 335  : 
; 336  : 	return returnable;

	ldr         x0,[sp,#0x20]
|$LN1@ChGetWindo|
	ldp         fp,lr,[sp],#0x30
	ret

	ENDP  ; |ChGetWindowByHandle|

; Function compile flags: /Odtp
; File E:\Xeneva Project\Aurora\Libs\Chitralekha\widgets\window.cpp

	AREA	|.text$mn|, CODE, ARM64

|ChWindowAddWidget| PROC

; 660  : XE_EXTERN XE_EXPORT void ChWindowAddWidget(ChWindow* win, ChWidget* wid) {

|$LN3|
	stp         fp,lr,[sp,#-0x20]!
	mov         fp,sp
	str         x0,[sp,#0x10]
	str         x1,[sp,#0x18]

; 661  : 	list_add(win->widgets, wid);

	ldr         x8,[sp,#0x10]
	add         x8,x8,#0x50
	ldr         x1,[sp,#0x18]
	ldr         x0,[x8]
	bl          list_add
	ldp         fp,lr,[sp],#0x20
	ret

	ENDP  ; |ChWindowAddWidget|

; Function compile flags: /Odtp
; File E:\Xeneva Project\Aurora\Libs\Chitralekha\widgets\window.cpp

	AREA	|.text$mn|, CODE, ARM64

|ChWindowGetBackgroundColor| PROC

; 874  : uint32_t ChWindowGetBackgroundColor(ChWindow* win) {

|$LN3|
	sub         sp,sp,#0x10
	str         x0,[sp]

; 875  : 	return win->color;

	ldr         x8,[sp]
	add         x8,x8,#0x3C
	ldr         w0,[x8]
	add         sp,sp,#0x10
	ret

	ENDP  ; |ChWindowGetBackgroundColor|

; Function compile flags: /Odtp
; File E:\Xeneva Project\Aurora\Libs\Chitralekha\widgets\window.cpp

	AREA	|.text$mn|, CODE, ARM64

|ChWindowHandleFocus| PROC

; 645  : XE_EXTERN XE_EXPORT void ChWindowHandleFocus(ChWindow* win, bool focus_val, uint32_t handle) {

|$LN4|
	stp         fp,lr,[sp,#-0x20]!
	mov         fp,sp
	str         x0,[sp,#0x18]
	sxtb        w8,w1
	strb        w8,[sp,#0x10]
	str         w2,[sp,#0x14]

; 646  : 	win->focused = focus_val;

	ldr         x8,[sp,#0x18]
	add         x9,x8,#0x40
	ldrsb       w8,[sp,#0x10]
	strb        w8,[x9]

; 647  : 	ChWindowPaintTitlebar(win);

	ldr         x0,[sp,#0x18]
	bl          |?ChWindowPaintTitlebar@@YAXPEAU_chwin_@@@Z|

; 648  : 	ChDrawHorizontalLine(win->canv, 0, 0, win->info->width, GRAY);

	ldr         x8,[sp,#0x18]
	add         x8,x8,#0x28
	ldr         x9,[x8]
	mov         x8,#0x1010
	add         x9,x9,x8
	ldr         x8,[sp,#0x18]
	add         x8,x8,#0x18
	ldr         w4,|$LN3@ChWindowHa|
	ldr         w3,[x9]
	mov         w2,#0
	mov         w1,#0
	ldr         x0,[x8]
	bl          ChDrawHorizontalLine

; 649  : 	ChDrawVerticalLine(win->canv, 0, 0, 26, GRAY);

	ldr         x8,[sp,#0x18]
	add         x8,x8,#0x18
	ldr         w4,|$LN3@ChWindowHa|
	mov         w3,#0x1A
	mov         w2,#0
	mov         w1,#0
	ldr         x0,[x8]
	bl          ChDrawVerticalLine

; 650  : 	ChDrawVerticalLine(win->canv, win->info->width - 1, 0, 26, GRAY);

	ldr         x8,[sp,#0x18]
	add         x8,x8,#0x28
	ldr         x9,[x8]
	mov         x8,#0x1010
	add         x8,x9,x8
	ldr         w8,[x8]
	sub         w1,w8,#1
	ldr         x8,[sp,#0x18]
	add         x8,x8,#0x18
	ldr         w4,|$LN3@ChWindowHa|
	mov         w3,#0x1A
	mov         w2,#0
	mov         w1,w1
	ldr         x0,[x8]
	bl          ChDrawVerticalLine

; 651  : 	ChWindowUpdate(win, 0, 0, win->info->width, 26, 0, 1);

	ldr         x8,[sp,#0x18]
	add         x8,x8,#0x28
	ldr         x9,[x8]
	mov         x8,#0x1010
	add         x8,x9,x8
	mov         w6,#1
	mov         w5,#0
	mov         w4,#0x1A
	ldr         w3,[x8]
	mov         w2,#0
	mov         w1,#0
	ldr         x0,[sp,#0x18]
	bl          ChWindowUpdate
	ldp         fp,lr,[sp],#0x20
	ret
	nop
|$LN3@ChWindowHa|
	DCD         0xff808080

	ENDP  ; |ChWindowHandleFocus|

; Function compile flags: /Odtp
; File E:\Xeneva Project\Aurora\Libs\Chitralekha\widgets\window.cpp

	AREA	|.text$mn|, CODE, ARM64

|ChWindowSetFocused| PROC

; 402  : XE_EXTERN XE_EXPORT void ChWindowSetFocused(ChWindow* win) {

|$LN5|
	stp         fp,lr,[sp,#-0xD0]!
	mov         fp,sp
	str         x0,[sp,#0x10]

; 403  : 	PostEvent e;
; 404  : 	memset(&e, 0, sizeof(PostEvent));

	add         x10,sp,#0x18
	mov         x9,#0
	add         x8,x10,#0xB0
|$LN3@ChWindowSe|
	stp         x9,x9,[x10]
	add         x10,x10,#0x10
	cmp         x10,x8
	bne         |$LN3@ChWindowSe|

; 405  : 	e.type = DEODHAI_MESSAGE_WINDOW_BRING_FRONT;

	mov         w8,#0x35
	strb        w8,[sp,#0x18]

; 406  : 	e.dword = win->app->currentID;

	ldr         x8,[sp,#0x10]
	add         x8,x8,#0x30
	ldr         x8,[x8]
	add         x8,x8,#0x38
	ldrh        w8,[x8]
	mov         w8,w8
	str         w8,[sp,#0x20]

; 407  : 	e.dword2 = win->handle;

	ldr         x8,[sp,#0x10]
	add         x8,x8,#0x38
	ldr         w8,[x8]
	str         w8,[sp,#0x24]

; 408  : 	e.to_id = POSTBOX_ROOT_ID;

	mov         w8,#1
	strh        w8,[sp,#0x1A]

; 409  : 	_KeFileIoControl(win->app->postboxfd, POSTBOX_PUT_EVENT, &e);

	ldr         x8,[sp,#0x10]
	add         x8,x8,#0x30
	ldr         x8,[x8]
	add         x2,sp,#0x18
	mov         w1,#0x193
	ldr         w0,[x8]
	bl          _KeFileIoControl
	ldp         fp,lr,[sp],#0xD0
	ret

	ENDP  ; |ChWindowSetFocused|

; Function compile flags: /Odtp
; File E:\Xeneva Project\Aurora\Libs\Chitralekha\widgets\window.cpp

	AREA	|.text$mn|, CODE, ARM64

|ChWindowHandleTouch| PROC

; 513  : XE_EXTERN XE_EXPORT void ChWindowHandleTouch(ChWindow* win, int x, int y, int button) {

|$LN35|
	stp         fp,lr,[sp,#-0x70]!
	mov         fp,sp
	str         x0,[sp,#0x10]
	str         w1,[sp,#0x20]
	str         w2,[sp,#0x18]
	str         w3,[sp,#0x44]

; 514  : 	bool _popup_was_active = false;

	mov         w8,#0
	strb        w8,[sp,#0x1C]

; 515  : 
; 516  : 	if (button != 0) {

	ldr         w8,[sp,#0x44]
	cmp         w8,#0
	beq         |$LN14@ChWindowHa|

; 517  : 		for (int i = 0; i < win->popup->pointer; i++) {

	mov         w8,#0
	str         w8,[sp,#0x38]
	b           |$LN4@ChWindowHa|
|$LN2@ChWindowHa|
	ldr         w8,[sp,#0x38]
	add         w8,w8,#1
	str         w8,[sp,#0x38]
|$LN4@ChWindowHa|
	ldr         x8,[sp,#0x10]
	add         x8,x8,#0x60
	ldr         x8,[x8]
	ldr         w9,[x8]
	ldr         w8,[sp,#0x38]
	cmp         w8,w9
	bhs         |$LN3@ChWindowHa|

; 518  : 			ChWindow* popup = (ChWindow*)list_get_at(win->popup, i);

	ldr         x8,[sp,#0x10]
	add         x8,x8,#0x60
	ldr         w1,[sp,#0x38]
	ldr         x0,[x8]
	bl          list_get_at
	str         x0,[sp,#0x58]

; 519  : 			if (popup->info->hide == 0) {

	ldr         x8,[sp,#0x58]
	add         x8,x8,#0x28
	ldr         x9,[x8]
	mov         x8,#0x1019
	add         x8,x9,x8
	ldrsb       w8,[x8]
	mov         w8,w8
	cmp         w8,#0
	bne         |$LN15@ChWindowHa|

; 520  : 				_KePrint("A popup window is not hidden \r\n");

	adrp        x8,|$SG5588|
	add         x0,x8,PageOffset(|$SG5588|)
	bl          _KePrint

; 521  : 				ChWindowHide(popup);

	ldr         x0,[sp,#0x58]
	bl          ChWindowHide

; 522  : 				_KeProcessSleep(5);

	mov         x0,#5
	bl          _KeProcessSleep

; 523  : 				_popup_was_active = true;

	mov         w8,#1
	strb        w8,[sp,#0x1C]
|$LN15@ChWindowHa|

; 524  : 			}
; 525  : 		}

	b           |$LN2@ChWindowHa|
|$LN3@ChWindowHa|

; 526  : 		if (_popup_was_active) {

	ldrsb       w8,[sp,#0x1C]
	mov         w8,w8
	cmp         w8,#0
	beq         |$LN16@ChWindowHa|

; 527  : 			ChWindowSetFlags(win, (win->flags & ~(WINDOW_FLAG_STATIC)));

	ldr         x8,[sp,#0x10]
	ldrh        w8,[x8]
	mov         w8,w8
	and         w8,w8,#0xFFFFFFFD
	uxth        w1,w8
	mov         w1,w1
	ldr         x0,[sp,#0x10]
	bl          ChWindowSetFlags

; 528  : 			_KeProcessSleep(500);

	mov         x0,#0x1F4
	bl          _KeProcessSleep

; 529  : 			ChWindowSetFocused(win);

	ldr         x0,[sp,#0x10]
	bl          ChWindowSetFocused

; 530  : 			return;

	b           |$LN1@ChWindowHa|
|$LN16@ChWindowHa|
|$LN14@ChWindowHa|

; 531  : 		}
; 532  : 	}
; 533  : 
; 534  : 	for (int i = 0; i < win->popup->pointer; i++) {

	mov         w8,#0
	str         w8,[sp,#0x3C]
	b           |$LN7@ChWindowHa|
|$LN5@ChWindowHa|
	ldr         w8,[sp,#0x3C]
	add         w8,w8,#1
	str         w8,[sp,#0x3C]
|$LN7@ChWindowHa|
	ldr         x8,[sp,#0x10]
	add         x8,x8,#0x60
	ldr         x8,[x8]
	ldr         w9,[x8]
	ldr         w8,[sp,#0x3C]
	cmp         w8,w9
	bhs         |$LN6@ChWindowHa|

; 535  : 		ChWindow* popup = (ChWindow*)list_get_at(win->popup, i);

	ldr         x8,[sp,#0x10]
	add         x8,x8,#0x60
	ldr         w1,[sp,#0x3C]
	ldr         x0,[x8]
	bl          list_get_at
	str         x0,[sp,#0x60]

; 536  : 		if (popup->info->hide == 0) {

	ldr         x8,[sp,#0x60]
	add         x8,x8,#0x28
	ldr         x9,[x8]
	mov         x8,#0x1019
	add         x8,x9,x8
	ldrsb       w8,[x8]
	mov         w8,w8
	cmp         w8,#0
	bne         |$LN17@ChWindowHa|

; 537  : 			return;

	b           |$LN1@ChWindowHa|
|$LN17@ChWindowHa|

; 538  : 		}
; 539  : 	}

	b           |$LN5@ChWindowHa|
|$LN6@ChWindowHa|

; 540  : 
; 541  : 	/* first check the title bar bound */
; 542  : 	if (y > win->info->y && y < win->info->y + WINDOW_DEFAULT_TITLEBAR_HEIGHT) {

	ldr         x8,[sp,#0x10]
	add         x8,x8,#0x28
	ldr         x9,[x8]
	mov         x8,#0x100C
	add         x8,x9,x8
	ldr         w9,[x8]
	ldr         w8,[sp,#0x18]
	cmp         w8,w9
	ble         |$LN18@ChWindowHa|
	ldr         x8,[sp,#0x10]
	add         x8,x8,#0x28
	ldr         x9,[x8]
	mov         x8,#0x100C
	add         x8,x9,x8
	ldr         w8,[x8]
	add         w9,w8,#0x1A
	ldr         w8,[sp,#0x18]
	cmp         w8,w9
	bge         |$LN18@ChWindowHa|

; 543  : 		for (int i = 0; i < win->GlobalControls->pointer; i++) {

	mov         w8,#0
	str         w8,[sp,#0x40]
	b           |$LN10@ChWindowHa|
|$LN8@ChWindowHa|
	ldr         w8,[sp,#0x40]
	add         w8,w8,#1
	str         w8,[sp,#0x40]
|$LN10@ChWindowHa|
	ldr         x8,[sp,#0x10]
	add         x8,x8,#0x48
	ldr         x8,[x8]
	ldr         w9,[x8]
	ldr         w8,[sp,#0x40]
	cmp         w8,w9
	bhs         |$LN9@ChWindowHa|

; 544  : 			ChWinGlobalControl* globalCtrl = (ChWinGlobalControl*)list_get_at(win->GlobalControls, i);

	ldr         x8,[sp,#0x10]
	add         x8,x8,#0x48
	ldr         w1,[sp,#0x40]
	ldr         x0,[x8]
	bl          list_get_at
	str         x0,[sp,#0x28]

; 545  : 			if (x > win->info->x + globalCtrl->x && x < (win->info->x + globalCtrl->x + globalCtrl->w) &&

	ldr         x8,[sp,#0x10]
	add         x8,x8,#0x28
	ldr         x9,[x8]
	mov         x8,#0x1008
	add         x9,x9,x8
	ldr         x8,[sp,#0x28]
	ldr         w9,[x9]
	ldr         w8,[x8]
	add         w9,w9,w8
	ldr         w8,[sp,#0x20]
	cmp         w8,w9
	ble         |$LN19@ChWindowHa|
	ldr         x8,[sp,#0x10]
	add         x8,x8,#0x28
	ldr         x9,[x8]
	mov         x8,#0x1008
	add         x9,x9,x8
	ldr         x8,[sp,#0x28]
	ldr         w9,[x9]
	ldr         w8,[x8]
	add         w9,w9,w8
	ldr         x8,[sp,#0x28]
	add         x8,x8,#8
	ldr         w8,[x8]
	add         w9,w9,w8
	ldr         w8,[sp,#0x20]
	cmp         w8,w9
	bge         |$LN19@ChWindowHa|
	ldr         x8,[sp,#0x10]
	add         x8,x8,#0x28
	ldr         x9,[x8]
	mov         x8,#0x100C
	add         x9,x9,x8
	ldr         x8,[sp,#0x28]
	add         x8,x8,#4
	ldr         w9,[x9]
	ldr         w8,[x8]
	add         w9,w9,w8
	ldr         w8,[sp,#0x18]
	cmp         w8,w9
	ble         |$LN19@ChWindowHa|
	ldr         x8,[sp,#0x10]
	add         x8,x8,#0x28
	ldr         x9,[x8]
	mov         x8,#0x100C
	add         x9,x9,x8
	ldr         x8,[sp,#0x28]
	add         x8,x8,#4
	ldr         w9,[x9]
	ldr         w8,[x8]
	add         w9,w9,w8
	ldr         x8,[sp,#0x28]
	add         x8,x8,#0xC
	ldr         w8,[x8]
	add         w9,w9,w8
	ldr         w8,[sp,#0x18]
	cmp         w8,w9
	bge         |$LN19@ChWindowHa|

; 546  : 				(y > win->info->y + globalCtrl->y && y < (win->info->y + globalCtrl->y + globalCtrl->h))) {
; 547  : 				globalCtrl->hover = true;

	ldr         x8,[sp,#0x28]
	add         x9,x8,#0x11
	mov         w8,#1
	strb        w8,[x9]

; 548  : 				if (button)

	ldr         w8,[sp,#0x44]
	cmp         w8,#0
	beq         |$LN21@ChWindowHa|

; 549  : 					globalCtrl->clicked = true;

	ldr         x8,[sp,#0x28]
	add         x9,x8,#0x12
	mov         w8,#1
	strb        w8,[x9]
|$LN21@ChWindowHa|

; 550  : 				if (globalCtrl->ChGlobalMouseEvent)

	ldr         x8,[sp,#0x28]
	add         x8,x8,#0x30
	ldr         x8,[x8]
	cmp         x8,#0
	beq         |$LN22@ChWindowHa|

; 551  : 					globalCtrl->ChGlobalMouseEvent(win, globalCtrl, x, y, button);

	ldr         x8,[sp,#0x28]
	add         x8,x8,#0x30
	ldr         w4,[sp,#0x44]
	ldr         w3,[sp,#0x18]
	ldr         w2,[sp,#0x20]
	ldr         x1,[sp,#0x28]
	ldr         x0,[sp,#0x10]
	ldr         x8,[x8]
	blr         x8
|$LN22@ChWindowHa|

; 552  : 			}

	b           |$LN20@ChWindowHa|
|$LN19@ChWindowHa|

; 553  : 			else {
; 554  : 				if (globalCtrl->hover) {

	ldr         x8,[sp,#0x28]
	add         x8,x8,#0x11
	ldrsb       w8,[x8]
	mov         w8,w8
	cmp         w8,#0
	beq         |$LN23@ChWindowHa|

; 555  : 					globalCtrl->hover = false;

	ldr         x8,[sp,#0x28]
	add         x9,x8,#0x11
	mov         w8,#0
	strb        w8,[x9]

; 556  : 					globalCtrl->clicked = false;

	ldr         x8,[sp,#0x28]
	add         x9,x8,#0x12
	mov         w8,#0
	strb        w8,[x9]

; 557  : 					if (globalCtrl->ChGlobalMouseEvent)

	ldr         x8,[sp,#0x28]
	add         x8,x8,#0x30
	ldr         x8,[x8]
	cmp         x8,#0
	beq         |$LN24@ChWindowHa|

; 558  : 						globalCtrl->ChGlobalMouseEvent(win, globalCtrl, x, y, button);

	ldr         x8,[sp,#0x28]
	add         x8,x8,#0x30
	ldr         w4,[sp,#0x44]
	ldr         w3,[sp,#0x18]
	ldr         w2,[sp,#0x20]
	ldr         x1,[sp,#0x28]
	ldr         x0,[sp,#0x10]
	ldr         x8,[x8]
	blr         x8
|$LN24@ChWindowHa|
|$LN23@ChWindowHa|
|$LN20@ChWindowHa|

; 559  : 				}
; 560  : 			}
; 561  : 		}

	b           |$LN8@ChWindowHa|
|$LN9@ChWindowHa|
|$LN18@ChWindowHa|

; 562  : 	}
; 563  : 
; 564  : 	if (win->focusedWidget) {

	ldr         x8,[sp,#0x10]
	add         x8,x8,#0x80
	ldr         x8,[x8]
	cmp         x8,#0
	beq         |$LN25@ChWindowHa|

; 565  : 		ChWidget* focusedWidget = (ChWidget*)win->focusedWidget;

	ldr         x8,[sp,#0x10]
	add         x8,x8,#0x80
	ldr         x8,[x8]
	str         x8,[sp,#0x50]

; 566  : 		if (focusedWidget->ChTouchEvent)

	ldr         x8,[sp,#0x50]
	add         x8,x8,#0x30
	ldr         x8,[x8]
	cmp         x8,#0
	beq         |$LN27@ChWindowHa|

; 567  : 			focusedWidget->ChTouchEvent(focusedWidget, win, x, y);

	ldr         x8,[sp,#0x50]
	add         x8,x8,#0x30
	ldr         w3,[sp,#0x18]
	ldr         w2,[sp,#0x20]
	ldr         x1,[sp,#0x10]
	ldr         x0,[sp,#0x50]
	ldr         x8,[x8]
	blr         x8
|$LN27@ChWindowHa|

; 568  : 	}

	b           |$LN26@ChWindowHa|
|$LN25@ChWindowHa|

; 569  : 	else {
; 570  : 		/* activity area */
; 571  : 		if (y > win->info->y + 26 && y < (win->info->y + 26 + win->info->height - 26)) {

	ldr         x8,[sp,#0x10]
	add         x8,x8,#0x28
	ldr         x9,[x8]
	mov         x8,#0x100C
	add         x8,x9,x8
	ldr         w8,[x8]
	add         w9,w8,#0x1A
	ldr         w8,[sp,#0x18]
	cmp         w8,w9
	ble         |$LN28@ChWindowHa|
	ldr         x8,[sp,#0x10]
	add         x8,x8,#0x28
	ldr         x9,[x8]
	mov         x8,#0x100C
	add         x8,x9,x8
	ldr         w8,[x8]
	add         w10,w8,#0x1A
	ldr         x8,[sp,#0x10]
	add         x8,x8,#0x28
	ldr         x9,[x8]
	mov         x8,#0x1014
	add         x8,x9,x8
	ldr         w8,[x8]
	add         w8,w10,w8
	sub         w9,w8,#0x1A
	ldr         w8,[sp,#0x18]
	cmp         w8,w9
	bge         |$LN28@ChWindowHa|

; 572  : 			for (int i = 0; i < win->widgets->pointer; i++) {

	mov         w8,#0
	str         w8,[sp,#0x48]
	b           |$LN13@ChWindowHa|
|$LN11@ChWindowHa|
	ldr         w8,[sp,#0x48]
	add         w8,w8,#1
	str         w8,[sp,#0x48]
|$LN13@ChWindowHa|
	ldr         x8,[sp,#0x10]
	add         x8,x8,#0x50
	ldr         x8,[x8]
	ldr         w9,[x8]
	ldr         w8,[sp,#0x48]
	cmp         w8,w9
	bhs         |$LN12@ChWindowHa|

; 573  : 				ChWidget* widget = (ChWidget*)list_get_at(win->widgets, i);

	ldr         x8,[sp,#0x10]
	add         x8,x8,#0x50
	ldr         w1,[sp,#0x48]
	ldr         x0,[x8]
	bl          list_get_at
	str         x0,[sp,#0x30]

; 574  : 				if (x > win->info->x + widget->x && x < (win->info->x + widget->x + widget->w) &&

	ldr         x8,[sp,#0x10]
	add         x8,x8,#0x28
	ldr         x9,[x8]
	mov         x8,#0x1008
	add         x9,x9,x8
	ldr         x8,[sp,#0x30]
	ldr         w9,[x9]
	ldr         w8,[x8]
	add         w9,w9,w8
	ldr         w8,[sp,#0x20]
	cmp         w8,w9
	ble         |$LN29@ChWindowHa|
	ldr         x8,[sp,#0x10]
	add         x8,x8,#0x28
	ldr         x9,[x8]
	mov         x8,#0x1008
	add         x9,x9,x8
	ldr         x8,[sp,#0x30]
	ldr         w9,[x9]
	ldr         w8,[x8]
	add         w9,w9,w8
	ldr         x8,[sp,#0x30]
	add         x8,x8,#8
	ldr         w8,[x8]
	add         w9,w9,w8
	ldr         w8,[sp,#0x20]
	cmp         w8,w9
	bge         |$LN29@ChWindowHa|
	ldr         x8,[sp,#0x10]
	add         x8,x8,#0x28
	ldr         x9,[x8]
	mov         x8,#0x100C
	add         x9,x9,x8
	ldr         x8,[sp,#0x30]
	add         x8,x8,#4
	ldr         w9,[x9]
	ldr         w8,[x8]
	add         w9,w9,w8
	ldr         w8,[sp,#0x18]
	cmp         w8,w9
	ble         |$LN29@ChWindowHa|
	ldr         x8,[sp,#0x10]
	add         x8,x8,#0x28
	ldr         x9,[x8]
	mov         x8,#0x100C
	add         x9,x9,x8
	ldr         x8,[sp,#0x30]
	add         x8,x8,#4
	ldr         w9,[x9]
	ldr         w8,[x8]
	add         w9,w9,w8
	ldr         x8,[sp,#0x30]
	add         x8,x8,#0xC
	ldr         w8,[x8]
	add         w9,w9,w8
	ldr         w8,[sp,#0x18]
	cmp         w8,w9
	bge         |$LN29@ChWindowHa|

; 575  : 					(y > win->info->y + widget->y && y < (win->info->y + widget->y + widget->h))) {
; 576  : 					widget->hover = true;

	ldr         x8,[sp,#0x30]
	add         x9,x8,#0x19
	mov         w8,#1
	strb        w8,[x9]

; 577  : 					widget->KillFocus = false;

	ldr         x8,[sp,#0x30]
	add         x9,x8,#0x1B
	mov         w8,#0
	strb        w8,[x9]

; 578  : 					if (widget->ChTouchEvent)

	ldr         x8,[sp,#0x30]
	add         x8,x8,#0x30
	ldr         x8,[x8]
	cmp         x8,#0
	beq         |$LN31@ChWindowHa|

; 579  : 						widget->ChTouchEvent(widget, win, x, y);

	ldr         x8,[sp,#0x30]
	add         x8,x8,#0x30
	ldr         w3,[sp,#0x18]
	ldr         w2,[sp,#0x20]
	ldr         x1,[sp,#0x10]
	ldr         x0,[sp,#0x30]
	ldr         x8,[x8]
	blr         x8
|$LN31@ChWindowHa|

; 580  : 				}

	b           |$LN30@ChWindowHa|
|$LN29@ChWindowHa|

; 581  : 				else {
; 582  : 					if (widget->hover) {

	ldr         x8,[sp,#0x30]
	add         x8,x8,#0x19
	ldrsb       w8,[x8]
	mov         w8,w8
	cmp         w8,#0
	beq         |$LN32@ChWindowHa|

; 583  : 						widget->hover = false;

	ldr         x8,[sp,#0x30]
	add         x9,x8,#0x19
	mov         w8,#0
	strb        w8,[x9]

; 584  : 						widget->KillFocus = true;

	ldr         x8,[sp,#0x30]
	add         x9,x8,#0x1B
	mov         w8,#1
	strb        w8,[x9]

; 585  : 						if (widget->ChTouchEvent)

	ldr         x8,[sp,#0x30]
	add         x8,x8,#0x30
	ldr         x8,[x8]
	cmp         x8,#0
	beq         |$LN33@ChWindowHa|

; 586  : 							widget->ChTouchEvent(widget, win, x, y);

	ldr         x8,[sp,#0x30]
	add         x8,x8,#0x30
	ldr         w3,[sp,#0x18]
	ldr         w2,[sp,#0x20]
	ldr         x1,[sp,#0x10]
	ldr         x0,[sp,#0x30]
	ldr         x8,[x8]
	blr         x8
|$LN33@ChWindowHa|
|$LN32@ChWindowHa|
|$LN30@ChWindowHa|

; 587  : 					}
; 588  : 				}
; 589  : 			}

	b           |$LN11@ChWindowHa|
|$LN12@ChWindowHa|
|$LN28@ChWindowHa|
|$LN26@ChWindowHa|

; 590  : 		}
; 591  : 	}
; 592  : 
; 593  : 
; 594  : 	win->focusedWidget = NULL;

	ldr         x8,[sp,#0x10]
	add         x9,x8,#0x80
	mov         x8,#0
	str         x8,[x9]
|$LN1@ChWindowHa|
	ldp         fp,lr,[sp],#0x70
	ret

	ENDP  ; |ChWindowHandleTouch|

; Function compile flags: /Odtp
; File E:\Xeneva Project\Aurora\Libs\Chitralekha\widgets\window.cpp

	AREA	|.text$mn|, CODE, ARM64

|ChWindowHandleMouse| PROC

; 419  : XE_EXTERN XE_EXPORT void ChWindowHandleMouse(ChWindow* win, int x, int y, int button) {

|$LN36|
	stp         fp,lr,[sp,#-0x60]!
	mov         fp,sp
	str         x0,[sp,#0x10]
	str         w1,[sp,#0x20]
	str         w2,[sp,#0x18]
	str         w3,[sp,#0x24]

; 420  : 	bool _popup_was_active = false;

	mov         w8,#0
	strb        w8,[sp,#0x1C]

; 421  : 
; 422  : 	if (button != 0) {

	ldr         w8,[sp,#0x24]
	cmp         w8,#0
	beq         |$LN14@ChWindowHa|

; 423  : 		for (int i = 0; i < win->popup->pointer; i++) {

	mov         w8,#0
	str         w8,[sp,#0x38]
	b           |$LN4@ChWindowHa|
|$LN2@ChWindowHa|
	ldr         w8,[sp,#0x38]
	add         w8,w8,#1
	str         w8,[sp,#0x38]
|$LN4@ChWindowHa|
	ldr         x8,[sp,#0x10]
	add         x8,x8,#0x60
	ldr         x8,[x8]
	ldr         w9,[x8]
	ldr         w8,[sp,#0x38]
	cmp         w8,w9
	bhs         |$LN3@ChWindowHa|

; 424  : 			ChWindow* popup = (ChWindow*)list_get_at(win->popup, i);

	ldr         x8,[sp,#0x10]
	add         x8,x8,#0x60
	ldr         w1,[sp,#0x38]
	ldr         x0,[x8]
	bl          list_get_at
	str         x0,[sp,#0x50]

; 425  : 			if (popup->info->hide == 0) {

	ldr         x8,[sp,#0x50]
	add         x8,x8,#0x28
	ldr         x9,[x8]
	mov         x8,#0x1019
	add         x8,x9,x8
	ldrsb       w8,[x8]
	mov         w8,w8
	cmp         w8,#0
	bne         |$LN15@ChWindowHa|

; 426  : 				_KePrint("A popup window is not hidden \r\n");

	adrp        x8,|$SG5533|
	add         x0,x8,PageOffset(|$SG5533|)
	bl          _KePrint

; 427  : 				ChWindowHide(popup);

	ldr         x0,[sp,#0x50]
	bl          ChWindowHide

; 428  : 				_KeProcessSleep(5);

	mov         x0,#5
	bl          _KeProcessSleep

; 429  : 				_popup_was_active = true;

	mov         w8,#1
	strb        w8,[sp,#0x1C]
|$LN15@ChWindowHa|

; 430  : 			}
; 431  : 		}

	b           |$LN2@ChWindowHa|
|$LN3@ChWindowHa|

; 432  : 		if (_popup_was_active) {

	ldrsb       w8,[sp,#0x1C]
	mov         w8,w8
	cmp         w8,#0
	beq         |$LN16@ChWindowHa|

; 433  : 			ChWindowSetFlags(win, (win->flags & ~(WINDOW_FLAG_STATIC)));

	ldr         x8,[sp,#0x10]
	ldrh        w8,[x8]
	mov         w8,w8
	and         w8,w8,#0xFFFFFFFD
	uxth        w1,w8
	mov         w1,w1
	ldr         x0,[sp,#0x10]
	bl          ChWindowSetFlags

; 434  : 			_KeProcessSleep(500);

	mov         x0,#0x1F4
	bl          _KeProcessSleep

; 435  : 			ChWindowSetFocused(win);

	ldr         x0,[sp,#0x10]
	bl          ChWindowSetFocused

; 436  : 			return;

	b           |$LN1@ChWindowHa|
|$LN16@ChWindowHa|
|$LN14@ChWindowHa|

; 437  : 		}
; 438  : 	}
; 439  : 
; 440  : 	for (int i = 0; i < win->popup->pointer; i++) {

	mov         w8,#0
	str         w8,[sp,#0x3C]
	b           |$LN7@ChWindowHa|
|$LN5@ChWindowHa|
	ldr         w8,[sp,#0x3C]
	add         w8,w8,#1
	str         w8,[sp,#0x3C]
|$LN7@ChWindowHa|
	ldr         x8,[sp,#0x10]
	add         x8,x8,#0x60
	ldr         x8,[x8]
	ldr         w9,[x8]
	ldr         w8,[sp,#0x3C]
	cmp         w8,w9
	bhs         |$LN6@ChWindowHa|

; 441  : 		ChWindow* popup = (ChWindow*)list_get_at(win->popup, i);

	ldr         x8,[sp,#0x10]
	add         x8,x8,#0x60
	ldr         w1,[sp,#0x3C]
	ldr         x0,[x8]
	bl          list_get_at
	str         x0,[sp,#0x58]

; 442  : 		if (popup->info->hide == 0) {

	ldr         x8,[sp,#0x58]
	add         x8,x8,#0x28
	ldr         x9,[x8]
	mov         x8,#0x1019
	add         x8,x9,x8
	ldrsb       w8,[x8]
	mov         w8,w8
	cmp         w8,#0
	bne         |$LN17@ChWindowHa|

; 443  : 			return;

	b           |$LN1@ChWindowHa|
|$LN17@ChWindowHa|

; 444  : 		}
; 445  : 	}

	b           |$LN5@ChWindowHa|
|$LN6@ChWindowHa|

; 446  : 
; 447  : 	/* first check the title bar bound */
; 448  : 	if (y > win->info->y && y < win->info->y + WINDOW_DEFAULT_TITLEBAR_HEIGHT) {

	ldr         x8,[sp,#0x10]
	add         x8,x8,#0x28
	ldr         x9,[x8]
	mov         x8,#0x100C
	add         x8,x9,x8
	ldr         w9,[x8]
	ldr         w8,[sp,#0x18]
	cmp         w8,w9
	ble         |$LN18@ChWindowHa|
	ldr         x8,[sp,#0x10]
	add         x8,x8,#0x28
	ldr         x9,[x8]
	mov         x8,#0x100C
	add         x8,x9,x8
	ldr         w8,[x8]
	add         w9,w8,#0x1A
	ldr         w8,[sp,#0x18]
	cmp         w8,w9
	bge         |$LN18@ChWindowHa|

; 449  : 		for (int i = 0; i < win->GlobalControls->pointer; i++) {

	mov         w8,#0
	str         w8,[sp,#0x40]
	b           |$LN10@ChWindowHa|
|$LN8@ChWindowHa|
	ldr         w8,[sp,#0x40]
	add         w8,w8,#1
	str         w8,[sp,#0x40]
|$LN10@ChWindowHa|
	ldr         x8,[sp,#0x10]
	add         x8,x8,#0x48
	ldr         x8,[x8]
	ldr         w9,[x8]
	ldr         w8,[sp,#0x40]
	cmp         w8,w9
	bhs         |$LN9@ChWindowHa|

; 450  : 			ChWinGlobalControl* globalCtrl = (ChWinGlobalControl*)list_get_at(win->GlobalControls, i);

	ldr         x8,[sp,#0x10]
	add         x8,x8,#0x48
	ldr         w1,[sp,#0x40]
	ldr         x0,[x8]
	bl          list_get_at
	str         x0,[sp,#0x28]

; 451  : 			if (x > win->info->x + globalCtrl->x  && x < (win->info->x + globalCtrl->x + globalCtrl->w) &&

	ldr         x8,[sp,#0x10]
	add         x8,x8,#0x28
	ldr         x9,[x8]
	mov         x8,#0x1008
	add         x9,x9,x8
	ldr         x8,[sp,#0x28]
	ldr         w9,[x9]
	ldr         w8,[x8]
	add         w9,w9,w8
	ldr         w8,[sp,#0x20]
	cmp         w8,w9
	ble         |$LN19@ChWindowHa|
	ldr         x8,[sp,#0x10]
	add         x8,x8,#0x28
	ldr         x9,[x8]
	mov         x8,#0x1008
	add         x9,x9,x8
	ldr         x8,[sp,#0x28]
	ldr         w9,[x9]
	ldr         w8,[x8]
	add         w9,w9,w8
	ldr         x8,[sp,#0x28]
	add         x8,x8,#8
	ldr         w8,[x8]
	add         w9,w9,w8
	ldr         w8,[sp,#0x20]
	cmp         w8,w9
	bge         |$LN19@ChWindowHa|
	ldr         x8,[sp,#0x10]
	add         x8,x8,#0x28
	ldr         x9,[x8]
	mov         x8,#0x100C
	add         x9,x9,x8
	ldr         x8,[sp,#0x28]
	add         x8,x8,#4
	ldr         w9,[x9]
	ldr         w8,[x8]
	add         w9,w9,w8
	ldr         w8,[sp,#0x18]
	cmp         w8,w9
	ble         |$LN19@ChWindowHa|
	ldr         x8,[sp,#0x10]
	add         x8,x8,#0x28
	ldr         x9,[x8]
	mov         x8,#0x100C
	add         x9,x9,x8
	ldr         x8,[sp,#0x28]
	add         x8,x8,#4
	ldr         w9,[x9]
	ldr         w8,[x8]
	add         w9,w9,w8
	ldr         x8,[sp,#0x28]
	add         x8,x8,#0xC
	ldr         w8,[x8]
	add         w9,w9,w8
	ldr         w8,[sp,#0x18]
	cmp         w8,w9
	bge         |$LN19@ChWindowHa|

; 452  : 				(y > win->info->y + globalCtrl->y && y < (win->info->y + globalCtrl->y + globalCtrl->h))){
; 453  : 				globalCtrl->hover = true;

	ldr         x8,[sp,#0x28]
	add         x9,x8,#0x11
	mov         w8,#1
	strb        w8,[x9]

; 454  : 				if (button)

	ldr         w8,[sp,#0x24]
	cmp         w8,#0
	beq         |$LN21@ChWindowHa|

; 455  : 					globalCtrl->clicked = true;

	ldr         x8,[sp,#0x28]
	add         x9,x8,#0x12
	mov         w8,#1
	strb        w8,[x9]
|$LN21@ChWindowHa|

; 456  : 				if (globalCtrl->ChGlobalMouseEvent)

	ldr         x8,[sp,#0x28]
	add         x8,x8,#0x30
	ldr         x8,[x8]
	cmp         x8,#0
	beq         |$LN22@ChWindowHa|

; 457  : 					globalCtrl->ChGlobalMouseEvent(win, globalCtrl, x, y, button);

	ldr         x8,[sp,#0x28]
	add         x8,x8,#0x30
	ldr         w4,[sp,#0x24]
	ldr         w3,[sp,#0x18]
	ldr         w2,[sp,#0x20]
	ldr         x1,[sp,#0x28]
	ldr         x0,[sp,#0x10]
	ldr         x8,[x8]
	blr         x8
|$LN22@ChWindowHa|

; 458  : 			}

	b           |$LN20@ChWindowHa|
|$LN19@ChWindowHa|

; 459  : 			else {
; 460  : 				if (globalCtrl->hover) {

	ldr         x8,[sp,#0x28]
	add         x8,x8,#0x11
	ldrsb       w8,[x8]
	mov         w8,w8
	cmp         w8,#0
	beq         |$LN23@ChWindowHa|

; 461  : 					globalCtrl->hover = false;

	ldr         x8,[sp,#0x28]
	add         x9,x8,#0x11
	mov         w8,#0
	strb        w8,[x9]

; 462  : 					globalCtrl->clicked = false;

	ldr         x8,[sp,#0x28]
	add         x9,x8,#0x12
	mov         w8,#0
	strb        w8,[x9]

; 463  : 					if (globalCtrl->ChGlobalMouseEvent)

	ldr         x8,[sp,#0x28]
	add         x8,x8,#0x30
	ldr         x8,[x8]
	cmp         x8,#0
	beq         |$LN24@ChWindowHa|

; 464  : 						globalCtrl->ChGlobalMouseEvent(win, globalCtrl, x, y, button);

	ldr         x8,[sp,#0x28]
	add         x8,x8,#0x30
	ldr         w4,[sp,#0x24]
	ldr         w3,[sp,#0x18]
	ldr         w2,[sp,#0x20]
	ldr         x1,[sp,#0x28]
	ldr         x0,[sp,#0x10]
	ldr         x8,[x8]
	blr         x8
|$LN24@ChWindowHa|
|$LN23@ChWindowHa|
|$LN20@ChWindowHa|

; 465  : 				}
; 466  : 			}
; 467  : 		}

	b           |$LN8@ChWindowHa|
|$LN9@ChWindowHa|
|$LN18@ChWindowHa|

; 468  : 	}
; 469  : 
; 470  : 	if (win->focusedWidget) {

	ldr         x8,[sp,#0x10]
	add         x8,x8,#0x80
	ldr         x8,[x8]
	cmp         x8,#0
	beq         |$LN25@ChWindowHa|

; 471  : 		ChWidget* focusedWidget = (ChWidget*)win->focusedWidget;

	ldr         x8,[sp,#0x10]
	add         x8,x8,#0x80
	ldr         x8,[x8]
	str         x8,[sp,#0x48]

; 472  : 		if (focusedWidget->ChMouseEvent)

	ldr         x8,[sp,#0x48]
	add         x8,x8,#0x28
	ldr         x8,[x8]
	cmp         x8,#0
	beq         |$LN27@ChWindowHa|

; 473  : 			focusedWidget->ChMouseEvent(focusedWidget, win, x, y, button);

	ldr         x8,[sp,#0x48]
	add         x8,x8,#0x28
	ldr         w4,[sp,#0x24]
	ldr         w3,[sp,#0x18]
	ldr         w2,[sp,#0x20]
	ldr         x1,[sp,#0x10]
	ldr         x0,[sp,#0x48]
	ldr         x8,[x8]
	blr         x8
|$LN27@ChWindowHa|

; 474  : 	}

	b           |$LN26@ChWindowHa|
|$LN25@ChWindowHa|

; 475  : 	else {
; 476  : 		/* activity area */
; 477  : 		if (y > win->info->y + 26 && y < (win->info->y + 26 + win->info->height - 26)) {

	ldr         x8,[sp,#0x10]
	add         x8,x8,#0x28
	ldr         x9,[x8]
	mov         x8,#0x100C
	add         x8,x9,x8
	ldr         w8,[x8]
	add         w9,w8,#0x1A
	ldr         w8,[sp,#0x18]
	cmp         w8,w9
	ble         |$LN28@ChWindowHa|
	ldr         x8,[sp,#0x10]
	add         x8,x8,#0x28
	ldr         x9,[x8]
	mov         x8,#0x100C
	add         x8,x9,x8
	ldr         w8,[x8]
	add         w10,w8,#0x1A
	ldr         x8,[sp,#0x10]
	add         x8,x8,#0x28
	ldr         x9,[x8]
	mov         x8,#0x1014
	add         x8,x9,x8
	ldr         w8,[x8]
	add         w8,w10,w8
	sub         w9,w8,#0x1A
	ldr         w8,[sp,#0x18]
	cmp         w8,w9
	bge         |$LN28@ChWindowHa|

; 478  : 			for (int i = 0; i < win->widgets->pointer; i++) {

	mov         w8,#0
	str         w8,[sp,#0x44]
	b           |$LN13@ChWindowHa|
|$LN11@ChWindowHa|
	ldr         w8,[sp,#0x44]
	add         w8,w8,#1
	str         w8,[sp,#0x44]
|$LN13@ChWindowHa|
	ldr         x8,[sp,#0x10]
	add         x8,x8,#0x50
	ldr         x8,[x8]
	ldr         w9,[x8]
	ldr         w8,[sp,#0x44]
	cmp         w8,w9
	bhs         |$LN12@ChWindowHa|

; 479  : 				ChWidget* widget = (ChWidget*)list_get_at(win->widgets, i);

	ldr         x8,[sp,#0x10]
	add         x8,x8,#0x50
	ldr         w1,[sp,#0x44]
	ldr         x0,[x8]
	bl          list_get_at
	str         x0,[sp,#0x30]

; 480  : 				if (x > win->info->x + widget->x && x < (win->info->x + widget->x + widget->w) &&

	ldr         x8,[sp,#0x10]
	add         x8,x8,#0x28
	ldr         x9,[x8]
	mov         x8,#0x1008
	add         x9,x9,x8
	ldr         x8,[sp,#0x30]
	ldr         w9,[x9]
	ldr         w8,[x8]
	add         w9,w9,w8
	ldr         w8,[sp,#0x20]
	cmp         w8,w9
	ble         |$LN29@ChWindowHa|
	ldr         x8,[sp,#0x10]
	add         x8,x8,#0x28
	ldr         x9,[x8]
	mov         x8,#0x1008
	add         x9,x9,x8
	ldr         x8,[sp,#0x30]
	ldr         w9,[x9]
	ldr         w8,[x8]
	add         w9,w9,w8
	ldr         x8,[sp,#0x30]
	add         x8,x8,#8
	ldr         w8,[x8]
	add         w9,w9,w8
	ldr         w8,[sp,#0x20]
	cmp         w8,w9
	bge         |$LN29@ChWindowHa|
	ldr         x8,[sp,#0x10]
	add         x8,x8,#0x28
	ldr         x9,[x8]
	mov         x8,#0x100C
	add         x9,x9,x8
	ldr         x8,[sp,#0x30]
	add         x8,x8,#4
	ldr         w9,[x9]
	ldr         w8,[x8]
	add         w9,w9,w8
	ldr         w8,[sp,#0x18]
	cmp         w8,w9
	ble         |$LN29@ChWindowHa|
	ldr         x8,[sp,#0x10]
	add         x8,x8,#0x28
	ldr         x9,[x8]
	mov         x8,#0x100C
	add         x9,x9,x8
	ldr         x8,[sp,#0x30]
	add         x8,x8,#4
	ldr         w9,[x9]
	ldr         w8,[x8]
	add         w9,w9,w8
	ldr         x8,[sp,#0x30]
	add         x8,x8,#0xC
	ldr         w8,[x8]
	add         w9,w9,w8
	ldr         w8,[sp,#0x18]
	cmp         w8,w9
	bge         |$LN29@ChWindowHa|

; 481  : 					(y > win->info->y + widget->y && y < (win->info->y + widget->y + widget->h))) {
; 482  : 					widget->hover = true;

	ldr         x8,[sp,#0x30]
	add         x9,x8,#0x19
	mov         w8,#1
	strb        w8,[x9]

; 483  : 					widget->KillFocus = false;

	ldr         x8,[sp,#0x30]
	add         x9,x8,#0x1B
	mov         w8,#0
	strb        w8,[x9]

; 484  : 					if (widget->ChMouseEvent)

	ldr         x8,[sp,#0x30]
	add         x8,x8,#0x28
	ldr         x8,[x8]
	cmp         x8,#0
	beq         |$LN31@ChWindowHa|

; 485  : 						widget->ChMouseEvent(widget, win, x, y, button);

	ldr         x8,[sp,#0x30]
	add         x8,x8,#0x28
	ldr         w4,[sp,#0x24]
	ldr         w3,[sp,#0x18]
	ldr         w2,[sp,#0x20]
	ldr         x1,[sp,#0x10]
	ldr         x0,[sp,#0x30]
	ldr         x8,[x8]
	blr         x8
|$LN31@ChWindowHa|

; 486  : 				}

	b           |$LN30@ChWindowHa|
|$LN29@ChWindowHa|

; 487  : 				else {
; 488  : 					if (widget->hover) {

	ldr         x8,[sp,#0x30]
	add         x8,x8,#0x19
	ldrsb       w8,[x8]
	mov         w8,w8
	cmp         w8,#0
	beq         |$LN32@ChWindowHa|

; 489  : 						widget->hover = false;

	ldr         x8,[sp,#0x30]
	add         x9,x8,#0x19
	mov         w8,#0
	strb        w8,[x9]

; 490  : 						widget->KillFocus = true;

	ldr         x8,[sp,#0x30]
	add         x9,x8,#0x1B
	mov         w8,#1
	strb        w8,[x9]

; 491  : 						if (widget->ChMouseEvent)

	ldr         x8,[sp,#0x30]
	add         x8,x8,#0x28
	ldr         x8,[x8]
	cmp         x8,#0
	beq         |$LN33@ChWindowHa|

; 492  : 							widget->ChMouseEvent(widget, win, x, y, button);

	ldr         x8,[sp,#0x30]
	add         x8,x8,#0x28
	ldr         w4,[sp,#0x24]
	ldr         w3,[sp,#0x18]
	ldr         w2,[sp,#0x20]
	ldr         x1,[sp,#0x10]
	ldr         x0,[sp,#0x30]
	ldr         x8,[x8]
	blr         x8
|$LN33@ChWindowHa|
|$LN32@ChWindowHa|
|$LN30@ChWindowHa|

; 493  : 					}
; 494  : 				}
; 495  : 			}

	b           |$LN11@ChWindowHa|
|$LN12@ChWindowHa|
|$LN28@ChWindowHa|
|$LN26@ChWindowHa|

; 496  : 		}
; 497  : 	}
; 498  : 
; 499  : 	if (!button) {

	ldr         w8,[sp,#0x24]
	cmp         w8,#0
	bne         |$LN34@ChWindowHa|

; 500  : 		win->focusedWidget = NULL;

	ldr         x8,[sp,#0x10]
	add         x9,x8,#0x80
	mov         x8,#0
	str         x8,[x9]
|$LN34@ChWindowHa|
|$LN1@ChWindowHa|
	ldp         fp,lr,[sp],#0x60
	ret

	ENDP  ; |ChWindowHandleMouse|

; Function compile flags: /Odtp
; File E:\Xeneva Project\Aurora\Libs\Chitralekha\widgets\window.cpp

	AREA	|.text$mn|, CODE, ARM64

|ChGetWindowHandle| PROC

; 375  : XE_EXTERN XE_EXPORT uint32_t ChGetWindowHandle(ChitralekhaApp* app, char* title) {

|$LN12|
	stp         fp,lr,[sp,#-0x100]!
	mov         fp,sp
	str         x0,[sp,#0x30]
	str         x1,[sp,#0x38]

; 376  : 	uint32_t handle = 0;

	mov         w8,#0
	str         w8,[sp,#0x14]

; 377  : 	PostEvent e;
; 378  : 	e.type = DEODHAI_MESSAGE_GETWINDOW;

	mov         w8,#0x37
	strb        w8,[sp,#0x48]

; 379  : 	e.to_id = POSTBOX_ROOT_ID;

	mov         w8,#1
	strh        w8,[sp,#0x4A]

; 380  : 	e.from_id = app->currentID;

	ldr         x8,[sp,#0x30]
	add         x8,x8,#0x38
	ldrh        w8,[x8]
	strh        w8,[sp,#0x4C]

; 381  : 	strcpy(e.charValue3, title);

	ldr         x8,[sp,#0x38]
	str         x8,[sp,#0x28]
	add         x8,sp,#0x90
	str         x8,[sp,#0x18]
	ldr         x8,[sp,#0x18]
	str         x8,[sp,#0x40]
|$LN7@ChGetWindo|
	ldr         x8,[sp,#0x28]
	ldrsb       w8,[x8]
	strb        w8,[sp,#0x10]
	ldr         x9,[sp,#0x18]
	ldrsb       w8,[sp,#0x10]
	strb        w8,[x9]
	ldr         x8,[sp,#0x28]
	add         x8,x8,#1
	str         x8,[sp,#0x28]
	ldr         x8,[sp,#0x18]
	add         x8,x8,#1
	str         x8,[sp,#0x18]
	ldrsb       w8,[sp,#0x10]
	cmp         w8,#0
	bne         |$LN7@ChGetWindo|

; 382  : 	_KeFileIoControl(app->postboxfd, POSTBOX_PUT_EVENT, &e);

	ldr         x8,[sp,#0x30]
	add         x2,sp,#0x48
	mov         w1,#0x193
	ldr         w0,[x8]
	bl          _KeFileIoControl

; 383  : 	memset(&e, 0, sizeof(PostEvent));

	add         x10,sp,#0x48
	mov         x9,#0
	add         x8,x10,#0xB0
|$LN8@ChGetWindo|
	stp         x9,x9,[x10]
	add         x10,x10,#0x10
	cmp         x10,x8
	bne         |$LN8@ChGetWindo|
|$LN2@ChGetWindo|

; 384  : 	while (1) {

	mov         w8,#1
	cmp         w8,#0
	beq         |$LN3@ChGetWindo|

; 385  : 		int err = _KeFileIoControl(app->postboxfd, POSTBOX_GET_EVENT, &e);

	ldr         x8,[sp,#0x30]
	add         x2,sp,#0x48
	mov         w1,#0x194
	ldr         w0,[x8]
	bl          _KeFileIoControl
	mov         w0,w0
	str         w0,[sp,#0x20]

; 386  : 		if (e.type == DEODHAI_REPLY_WINDOW_ID) {

	ldrb        w8,[sp,#0x48]
	mov         w8,w8
	cmp         w8,#0x99
	bne         |$LN4@ChGetWindo|

; 387  : 			handle = e.dword2;

	ldr         w8,[sp,#0x54]
	str         w8,[sp,#0x14]

; 388  : 			memset(&e, 0, sizeof(PostEvent));

	add         x10,sp,#0x48
	mov         x9,#0
	add         x8,x10,#0xB0
|$LN10@ChGetWindo|
	stp         x9,x9,[x10]
	add         x10,x10,#0x10
	cmp         x10,x8
	bne         |$LN10@ChGetWindo|

; 389  : 			break;

	b           |$LN3@ChGetWindo|
|$LN4@ChGetWindo|

; 390  : 		}
; 391  : 		if (err == POSTBOX_NO_EVENT)

	ldr         w8,[sp,#0x20]
	cmn         w8,#1
	bne         |$LN5@ChGetWindo|

; 392  : 			_KePauseThread();

	bl          _KePauseThread
|$LN5@ChGetWindo|

; 393  : 	}

	b           |$LN2@ChGetWindo|
|$LN3@ChGetWindo|

; 394  : 
; 395  : 	return handle;

	ldr         w0,[sp,#0x14]
	ldp         fp,lr,[sp],#0x100
	ret

	ENDP  ; |ChGetWindowHandle|

; Function compile flags: /Odtp
; File E:\Xeneva Project\Aurora\Libs\Chitralekha\widgets\window.cpp

	AREA	|.text$mn|, CODE, ARM64

|ChWindowHide| PROC

; 359  : XE_EXTERN XE_EXPORT void ChWindowHide(ChWindow* win) {

|$LN3|
	stp         fp,lr,[sp,#-0xD0]!
	mov         fp,sp
	str         x0,[sp,#0x10]

; 360  : 	PostEvent e;
; 361  : 	e.type = DEODHAI_MESSAGE_WINDOW_HIDE;

	mov         w8,#0x36
	strb        w8,[sp,#0x18]

; 362  : 	e.dword = win->app->currentID;

	ldr         x8,[sp,#0x10]
	add         x8,x8,#0x30
	ldr         x8,[x8]
	add         x8,x8,#0x38
	ldrh        w8,[x8]
	mov         w8,w8
	str         w8,[sp,#0x20]

; 363  : 	e.dword2 = win->handle;

	ldr         x8,[sp,#0x10]
	add         x8,x8,#0x38
	ldr         w8,[x8]
	str         w8,[sp,#0x24]

; 364  : 	e.to_id = POSTBOX_ROOT_ID;

	mov         w8,#1
	strh        w8,[sp,#0x1A]

; 365  : 	_KeFileIoControl(win->app->postboxfd, POSTBOX_PUT_EVENT, &e);

	ldr         x8,[sp,#0x10]
	add         x8,x8,#0x30
	ldr         x8,[x8]
	add         x2,sp,#0x18
	mov         w1,#0x193
	ldr         w0,[x8]
	bl          _KeFileIoControl
	ldp         fp,lr,[sp],#0xD0
	ret

	ENDP  ; |ChWindowHide|

; Function compile flags: /Odtp
; File E:\Xeneva Project\Aurora\Libs\Chitralekha\widgets\window.cpp

	AREA	|.text$mn|, CODE, ARM64

|ChWindowUpdate| PROC

; 246  : XE_EXTERN XE_EXPORT void ChWindowUpdate(ChWindow* win, int x, int y, int w, int h,bool updateEntireWin, bool dirty) {

|$LN11|
	stp         fp,lr,[sp,#-0x40]!
	mov         fp,sp
	str         x0,[sp,#0x10]
	str         w1,[sp,#0x1C]
	str         w2,[sp,#0x20]
	str         w3,[sp,#0x28]
	str         w4,[sp,#0x2C]
	sxtb        w8,w5
	strb        w8,[sp,#0x18]
	sxtb        w8,w6
	strb        w8,[sp,#0x19]

; 247  : 	uint32_t *lfb = win->buffer;

	ldr         x8,[sp,#0x10]
	add         x8,x8,#8
	ldr         x8,[x8]
	str         x8,[sp,#0x38]

; 248  : 	uint32_t* canvaddr = win->canv->buffer;

	ldr         x8,[sp,#0x10]
	add         x8,x8,#0x18
	ldr         x8,[x8]
	add         x8,x8,#0x20
	ldr         x8,[x8]
	str         x8,[sp,#0x30]

; 249  : 	if (x < 0) {

	ldr         w8,[sp,#0x1C]
	cmp         w8,#0
	bge         |$LN5@ChWindowUp|

; 250  : 		_KePrint("Corrupted x -> %d \r\n", x);

	ldr         w1,[sp,#0x1C]
	adrp        x8,|$SG5429|
	add         x0,x8,PageOffset(|$SG5429|)
	bl          _KePrint

; 251  : 		x = 0;

	mov         w8,#0
	str         w8,[sp,#0x1C]
|$LN5@ChWindowUp|

; 252  : 	}
; 253  : 
; 254  : 	if (y < 0) {

	ldr         w8,[sp,#0x20]
	cmp         w8,#0
	bge         |$LN6@ChWindowUp|

; 255  : 		_KePrint("Corrupted y -> %d \r\n", y);

	ldr         w1,[sp,#0x20]
	adrp        x8,|$SG5431|
	add         x0,x8,PageOffset(|$SG5431|)
	bl          _KePrint

; 256  : 		y = 0;

	mov         w8,#0
	str         w8,[sp,#0x20]
|$LN6@ChWindowUp|

; 257  : 	}
; 258  : 
; 259  : 	if (w > win->info->width) {

	ldr         x8,[sp,#0x10]
	add         x8,x8,#0x28
	ldr         x9,[x8]
	mov         x8,#0x1010
	add         x8,x9,x8
	ldr         w9,[x8]
	ldr         w8,[sp,#0x28]
	cmp         w8,w9
	ble         |$LN7@ChWindowUp|

; 260  : 		_KePrint("Corrupted w -> %d \r\n", w);

	ldr         w1,[sp,#0x28]
	adrp        x8,|$SG5433|
	add         x0,x8,PageOffset(|$SG5433|)
	bl          _KePrint

; 261  : 		w = win->info->width;

	ldr         x8,[sp,#0x10]
	add         x8,x8,#0x28
	ldr         x9,[x8]
	mov         x8,#0x1010
	add         x8,x9,x8
	ldr         w8,[x8]
	str         w8,[sp,#0x28]
|$LN7@ChWindowUp|

; 262  : 	}
; 263  : 	if (h > win->info->height) {

	ldr         x8,[sp,#0x10]
	add         x8,x8,#0x28
	ldr         x9,[x8]
	mov         x8,#0x1014
	add         x8,x9,x8
	ldr         w9,[x8]
	ldr         w8,[sp,#0x2C]
	cmp         w8,w9
	ble         |$LN8@ChWindowUp|

; 264  : 		_KePrint("Corrupted h -> %d \r\n", h);

	ldr         w1,[sp,#0x2C]
	adrp        x8,|$SG5435|
	add         x0,x8,PageOffset(|$SG5435|)
	bl          _KePrint

; 265  : 		h = win->info->height;

	ldr         x8,[sp,#0x10]
	add         x8,x8,#0x28
	ldr         x9,[x8]
	mov         x8,#0x1014
	add         x8,x9,x8
	ldr         w8,[x8]
	str         w8,[sp,#0x2C]
|$LN8@ChWindowUp|

; 266  : 	}
; 267  : 	
; 268  : 	for (int i = 0; i < h; i++)

	mov         w8,#0
	str         w8,[sp,#0x24]
	b           |$LN4@ChWindowUp|
|$LN2@ChWindowUp|
	ldr         w8,[sp,#0x24]
	add         w8,w8,#1
	str         w8,[sp,#0x24]
|$LN4@ChWindowUp|
	ldr         w9,[sp,#0x2C]
	ldr         w8,[sp,#0x24]
	cmp         w8,w9
	bge         |$LN3@ChWindowUp|

; 269  : 		_fastcpy(lfb + (static_cast<int64_t>(y) + i) * win->info->width + x, 

	ldr         w8,[sp,#0x28]
	sxtw        x9,w8
	mov         x8,#4
	mul         x2,x9,x8
	ldr         w8,[sp,#0x20]
	sxtw        x9,w8
	ldr         w8,[sp,#0x24]
	sxtw        x8,w8
	add         x10,x9,x8
	ldr         x8,[sp,#0x10]
	add         x8,x8,#0x28
	ldr         x9,[x8]
	mov         x8,#0x1010
	add         x8,x9,x8
	ldr         w8,[x8]
	sxtw        x8,w8
	mul         x9,x10,x8
	mov         x8,#4
	mul         x9,x9,x8
	ldr         x8,[sp,#0x30]
	add         x10,x8,x9
	ldr         w8,[sp,#0x1C]
	sxtw        x9,w8
	mov         x8,#4
	mul         x8,x9,x8
	add         x1,x10,x8
	ldr         w8,[sp,#0x20]
	sxtw        x9,w8
	ldr         w8,[sp,#0x24]
	sxtw        x8,w8
	add         x10,x9,x8
	ldr         x8,[sp,#0x10]
	add         x8,x8,#0x28
	ldr         x9,[x8]
	mov         x8,#0x1010
	add         x8,x9,x8
	ldr         w8,[x8]
	sxtw        x8,w8
	mul         x9,x10,x8
	mov         x8,#4
	mul         x9,x9,x8
	ldr         x8,[sp,#0x38]
	add         x10,x8,x9
	ldr         w8,[sp,#0x1C]
	sxtw        x9,w8
	mov         x8,#4
	mul         x8,x9,x8
	add         x0,x10,x8
	bl          _fastcpy
	b           |$LN2@ChWindowUp|
|$LN3@ChWindowUp|

; 270  : 			canvaddr + (static_cast<int64_t>(y) + i) * win->info->width + x, (static_cast<int64_t>(w) * 4));
; 271  : 
; 272  : 	win->info->updateEntireWindow = updateEntireWin;

	ldr         x8,[sp,#0x10]
	add         x8,x8,#0x28
	ldr         x9,[x8]
	mov         x8,#0x1005
	add         x9,x9,x8
	ldrsb       w8,[sp,#0x18]
	strb        w8,[x9]

; 273  : 
; 274  : 	if (dirty) {

	ldrsb       w8,[sp,#0x19]
	mov         w8,w8
	cmp         w8,#0
	beq         |$LN9@ChWindowUp|

; 275  : 		win->info->rect[win->info->rect_count].x = x;

	ldr         x8,[sp,#0x10]
	add         x8,x8,#0x28
	ldr         x10,[x8]
	ldr         x8,[sp,#0x10]
	add         x8,x8,#0x28
	ldr         x8,[x8]
	add         x8,x8,#1,lsl #0xC
	ldr         w8,[x8]
	uxtw        x9,w8
	mov         x8,#0x10
	mul         x8,x9,x8
	add         x9,x10,x8
	ldr         w8,[sp,#0x1C]
	str         w8,[x9]

; 276  : 		win->info->rect[win->info->rect_count].y = y;

	ldr         x8,[sp,#0x10]
	add         x8,x8,#0x28
	ldr         x10,[x8]
	ldr         x8,[sp,#0x10]
	add         x8,x8,#0x28
	ldr         x8,[x8]
	add         x8,x8,#1,lsl #0xC
	ldr         w8,[x8]
	uxtw        x9,w8
	mov         x8,#0x10
	mul         x8,x9,x8
	add         x8,x10,x8
	add         x9,x8,#4
	ldr         w8,[sp,#0x20]
	str         w8,[x9]

; 277  : 		win->info->rect[win->info->rect_count].w = w;

	ldr         x8,[sp,#0x10]
	add         x8,x8,#0x28
	ldr         x10,[x8]
	ldr         x8,[sp,#0x10]
	add         x8,x8,#0x28
	ldr         x8,[x8]
	add         x8,x8,#1,lsl #0xC
	ldr         w8,[x8]
	uxtw        x9,w8
	mov         x8,#0x10
	mul         x8,x9,x8
	add         x8,x10,x8
	add         x9,x8,#8
	ldr         w8,[sp,#0x28]
	str         w8,[x9]

; 278  : 		win->info->rect[win->info->rect_count].h = h;

	ldr         x8,[sp,#0x10]
	add         x8,x8,#0x28
	ldr         x10,[x8]
	ldr         x8,[sp,#0x10]
	add         x8,x8,#0x28
	ldr         x8,[x8]
	add         x8,x8,#1,lsl #0xC
	ldr         w8,[x8]
	uxtw        x9,w8
	mov         x8,#0x10
	mul         x8,x9,x8
	add         x8,x10,x8
	add         x9,x8,#0xC
	ldr         w8,[sp,#0x2C]
	str         w8,[x9]

; 279  : 		win->info->rect_count++;

	ldr         x8,[sp,#0x10]
	add         x8,x8,#0x28
	ldr         x8,[x8]
	add         x8,x8,#1,lsl #0xC
	ldr         w8,[x8]
	add         w9,w8,#1
	ldr         x8,[sp,#0x10]
	add         x8,x8,#0x28
	ldr         x8,[x8]
	add         x8,x8,#1,lsl #0xC
	str         w9,[x8]

; 280  : 		win->info->dirty = 1;

	ldr         x8,[sp,#0x10]
	add         x8,x8,#0x28
	ldr         x9,[x8]
	mov         x8,#0x1004
	add         x9,x9,x8
	mov         w8,#1
	strb        w8,[x9]
|$LN9@ChWindowUp|
	ldp         fp,lr,[sp],#0x40
	ret

	ENDP  ; |ChWindowUpdate|

; Function compile flags: /Odtp
; File E:\Xeneva Project\Aurora\Libs\Chitralekha\widgets\window.cpp

	AREA	|.text$mn|, CODE, ARM64

|ChWindowPaint| PROC

; 288  : XE_EXTERN XE_EXPORT void ChWindowPaint(ChWindow* win) {

|$LN9|
	stp         fp,lr,[sp,#-0x20]!
	mov         fp,sp
	str         x0,[sp,#0x18]

; 289  : 	if (win->ChWinPaint){

	ldr         x8,[sp,#0x18]
	add         x8,x8,#0xD0
	ldr         x8,[x8]
	cmp         x8,#0
	beq         |$LN4@ChWindowPa|

; 290  : 		win->ChWinPaint(win);

	ldr         x8,[sp,#0x18]
	add         x8,x8,#0xD0
	ldr         x0,[sp,#0x18]
	ldr         x8,[x8]
	blr         x8
|$LN4@ChWindowPa|

; 291  : 	}
; 292  : 
; 293  : 	if (win->flags & WINDOW_FLAG_GLASS)

	ldr         x8,[sp,#0x18]
	ldrh        w8,[x8]
	mov         w8,w8
	tbz         x8,#0xC,|$LN5@ChWindowPa|

; 294  : 		_apply_rounded_corner(win->buffer, 4, win->info->width, win->info->height);

	ldr         x8,[sp,#0x18]
	add         x8,x8,#0x28
	ldr         x9,[x8]
	mov         x8,#0x1014
	add         x10,x9,x8
	ldr         x8,[sp,#0x18]
	add         x8,x8,#0x28
	ldr         x9,[x8]
	mov         x8,#0x1010
	add         x9,x9,x8
	ldr         x8,[sp,#0x18]
	add         x8,x8,#8
	ldr         w3,[x10]
	ldr         w2,[x9]
	mov         w1,#4
	ldr         x0,[x8]
	bl          |?_apply_rounded_corner@@YAXPEAIHHH@Z|
	b           |$LN6@ChWindowPa|
|$LN5@ChWindowPa|

; 295  : 	else
; 296  : 		_apply_rounded_corner(win->buffer, 8, win->info->width, win->info->height);

	ldr         x8,[sp,#0x18]
	add         x8,x8,#0x28
	ldr         x9,[x8]
	mov         x8,#0x1014
	add         x10,x9,x8
	ldr         x8,[sp,#0x18]
	add         x8,x8,#0x28
	ldr         x9,[x8]
	mov         x8,#0x1010
	add         x9,x9,x8
	ldr         x8,[sp,#0x18]
	add         x8,x8,#8
	ldr         w3,[x10]
	ldr         w2,[x9]
	mov         w1,#8
	ldr         x0,[x8]
	bl          |?_apply_rounded_corner@@YAXPEAIHHH@Z|
|$LN6@ChWindowPa|

; 297  : 	int timeout = 5000;

	mov         w8,#0x1388
	str         w8,[sp,#0x10]
|$LN2@ChWindowPa|

; 298  : 	/* Wait untill the window is ready on server side */
; 299  : 	while (!win->info->windowReady) {

	ldr         x8,[sp,#0x18]
	add         x8,x8,#0x28
	ldr         x9,[x8]
	mov         x8,#0x1028
	add         x8,x9,x8
	ldrsb       w8,[x8]
	mov         w8,w8
	cmp         w8,#0
	bne         |$LN3@ChWindowPa|

; 300  : 		_KeProcessSleep(10);

	mov         x0,#0xA
	bl          _KeProcessSleep

; 301  : 		if (--timeout)

	ldr         w8,[sp,#0x10]
	sub         w8,w8,#1
	str         w8,[sp,#0x10]
	ldr         w8,[sp,#0x10]
	cmp         w8,#0
	beq         |$LN7@ChWindowPa|

; 302  : 			break;

	b           |$LN3@ChWindowPa|
|$LN7@ChWindowPa|

; 303  : 	}

	b           |$LN2@ChWindowPa|
|$LN3@ChWindowPa|
	ldp         fp,lr,[sp],#0x20
	ret

	ENDP  ; |ChWindowPaint|

; Function compile flags: /Odtp
; File E:\Xeneva Project\Aurora\Libs\Chitralekha\widgets\window.cpp

	AREA	|.text$mn|, CODE, ARM64

|ChWindowBroadcastIcon| PROC

; 227  : XE_EXTERN XE_EXPORT void ChWindowBroadcastIcon(ChitralekhaApp* app, char* iconfile) {

|$LN6|
	stp         fp,lr,[sp,#-0xF0]!
	mov         fp,sp
	str         x0,[sp,#0x28]
	str         x1,[sp,#0x30]

; 228  : 	PostEvent e;
; 229  : 	memset(&e, 0, sizeof(PostEvent));

	add         x10,sp,#0x40
	mov         x9,#0
	add         x8,x10,#0xB0
|$LN4@ChWindowBr|
	stp         x9,x9,[x10]
	add         x10,x10,#0x10
	cmp         x10,x8
	bne         |$LN4@ChWindowBr|

; 230  : 	e.type = DEODHAI_MESSAGE_BROADCAST_ICON;

	mov         w8,#0x34
	strb        w8,[sp,#0x40]

; 231  : 	e.dword = app->windowHandle;

	ldr         x8,[sp,#0x28]
	add         x8,x8,#0x28
	ldr         w8,[x8]
	str         w8,[sp,#0x48]

; 232  : 	e.to_id = POSTBOX_ROOT_ID;

	mov         w8,#1
	strh        w8,[sp,#0x42]

; 233  : 	e.from_id = app->currentID;

	ldr         x8,[sp,#0x28]
	add         x8,x8,#0x38
	ldrh        w8,[x8]
	strh        w8,[sp,#0x44]

; 234  : 	strcpy(e.charValue3, iconfile);

	ldr         x8,[sp,#0x30]
	str         x8,[sp,#0x20]
	add         x8,sp,#0x88
	str         x8,[sp,#0x18]
	ldr         x8,[sp,#0x18]
	str         x8,[sp,#0x38]
|$LN3@ChWindowBr|
	ldr         x8,[sp,#0x20]
	ldrsb       w8,[x8]
	strb        w8,[sp,#0x10]
	ldr         x9,[sp,#0x18]
	ldrsb       w8,[sp,#0x10]
	strb        w8,[x9]
	ldr         x8,[sp,#0x20]
	add         x8,x8,#1
	str         x8,[sp,#0x20]
	ldr         x8,[sp,#0x18]
	add         x8,x8,#1
	str         x8,[sp,#0x18]
	ldrsb       w8,[sp,#0x10]
	cmp         w8,#0
	bne         |$LN3@ChWindowBr|

; 235  : 	_KeFileIoControl(app->postboxfd, POSTBOX_PUT_EVENT, &e);

	ldr         x8,[sp,#0x28]
	add         x2,sp,#0x40
	mov         w1,#0x193
	ldr         w0,[x8]
	bl          _KeFileIoControl
	ldp         fp,lr,[sp],#0xF0
	ret

	ENDP  ; |ChWindowBroadcastIcon|

; Function compile flags: /Odtp
; File E:\Xeneva Project\Aurora\Libs\Chitralekha\widgets\window.cpp

	AREA	|.text$mn|, CODE, ARM64

|ChWindowAddSubWindow| PROC

; 311  : XE_EXTERN XE_EXPORT void ChWindowAddSubWindow(ChWindow* parent, ChWindow* win) {

|$LN4|
	stp         fp,lr,[sp,#-0x20]!
	mov         fp,sp
	str         x0,[sp,#0x18]
	str         x1,[sp,#0x10]

; 312  : 	if (!win)

	ldr         x8,[sp,#0x10]
	cmp         x8,#0
	bne         |$LN2@ChWindowAd|

; 313  : 		return;

	b           |$LN1@ChWindowAd|
|$LN2@ChWindowAd|

; 314  : 	list_add(parent->subwindow, win);

	ldr         x8,[sp,#0x18]
	add         x8,x8,#0x58
	ldr         x1,[sp,#0x10]
	ldr         x0,[x8]
	bl          list_add

; 315  : 	win->parent = parent;

	ldr         x8,[sp,#0x10]
	add         x9,x8,#0x68
	ldr         x8,[sp,#0x18]
	str         x8,[x9]
|$LN1@ChWindowAd|
	ldp         fp,lr,[sp],#0x20
	ret

	ENDP  ; |ChWindowAddSubWindow|

; Function compile flags: /Odtp
; File E:\Xeneva Project\Aurora\Libs\Chitralekha\widgets\window.cpp

	AREA	|.text$mn|, CODE, ARM64

|ChCreateWindow| PROC

; 161  : XE_EXTERN XE_EXPORT ChWindow* ChCreateWindow(ChitralekhaApp *app, uint16_t attrib, char* title, int x, int y, int w, int h) {

|$LN16|
	stp         fp,lr,[sp,#-0xA0]!
	mov         fp,sp
	str         x0,[sp,#0x48]
	uxth        w8,w1
	strh        w8,[sp,#0x1A]
	str         x2,[sp,#0x28]
	str         w3,[sp,#0x40]
	str         w4,[sp,#0x44]
	str         w5,[sp,#0x1C]
	str         w6,[sp,#0x20]

; 162  : 	/* request a new window from window manager */
; 163  : 	ChRequestWindow(app, x, y, w, h, title,attrib,0);

	mov         w7,#0
	ldrh        w6,[sp,#0x1A]
	ldr         x5,[sp,#0x28]
	ldr         w4,[sp,#0x20]
	ldr         w3,[sp,#0x1C]
	ldr         w2,[sp,#0x44]
	ldr         w1,[sp,#0x40]
	ldr         x0,[sp,#0x48]
	bl          |?ChRequestWindow@@YAXPEAU_ChApp_@@HHHHPEADGH@Z|

; 164  : 	ChWindow* win = (ChWindow*)malloc(sizeof(ChWindow));

	mov         w0,#0xE0
	bl          malloc
	str         x0,[sp,#0x10]

; 165  : 	memset(win, 0, sizeof(ChWindow));

	ldr         x10,[sp,#0x10]
	mov         x9,#0
	add         x8,x10,#0xE0
|$LN8@ChCreateWi|
	stp         x9,x9,[x10]
	add         x10,x10,#0x10
	cmp         x10,x8
	bne         |$LN8@ChCreateWi|

; 166  : 	ChCanvas* canv = ChCreateCanvas(w, h);

	ldr         w1,[sp,#0x20]
	ldr         w0,[sp,#0x1C]
	bl          ChCreateCanvas
	str         x0,[sp,#0x78]

; 167  : 	ChAllocateBuffer(canv);

	ldr         x0,[sp,#0x78]
	bl          ChAllocateBuffer

; 168  : 	win->app = app;

	ldr         x8,[sp,#0x10]
	add         x9,x8,#0x30
	ldr         x8,[sp,#0x48]
	str         x8,[x9]

; 169  : 	win->flags = attrib;

	ldr         x9,[sp,#0x10]
	ldrh        w8,[sp,#0x1A]
	strh        w8,[x9]

; 170  : 	win->buffer = (uint32_t*)app->fb;

	ldr         x8,[sp,#0x48]
	add         x10,x8,#0x10
	ldr         x8,[sp,#0x10]
	add         x9,x8,#8
	ldr         x8,[x10]
	str         x8,[x9]

; 171  : 	win->canv = canv;

	ldr         x8,[sp,#0x10]
	add         x9,x8,#0x18
	ldr         x8,[sp,#0x78]
	str         x8,[x9]

; 172  : 	win->sharedwin = app->shwinbuf;

	ldr         x8,[sp,#0x48]
	add         x10,x8,#0x18
	ldr         x8,[sp,#0x10]
	add         x9,x8,#0x10
	ldr         x8,[x10]
	str         x8,[x9]

; 173  : 	win->info = (ChSharedWinInfo*)win->sharedwin;

	ldr         x8,[sp,#0x10]
	add         x10,x8,#0x10
	ldr         x8,[sp,#0x10]
	add         x9,x8,#0x28
	ldr         x8,[x10]
	str         x8,[x9]

; 174  : 	win->title = (char*)malloc(strlen(title));

	ldr         x8,[sp,#0x28]
	str         x8,[sp,#0x58]
|$LN4@ChCreateWi|
	ldr         x8,[sp,#0x58]
	ldrsb       w8,[x8]
	cmp         w8,#0
	beq         |$LN3@ChCreateWi|
	ldr         x8,[sp,#0x58]
	add         x8,x8,#1
	str         x8,[sp,#0x58]
	b           |$LN4@ChCreateWi|
|$LN3@ChCreateWi|
	ldr         x9,[sp,#0x58]
	ldr         x8,[sp,#0x28]
	sub         x8,x9,x8
	str         x8,[sp,#0x80]
	ldr         x8,[sp,#0x80]
	mov         w0,w8
	mov         w0,w0
	bl          malloc
	ldr         x8,[sp,#0x10]
	add         x8,x8,#0x20
	str         x0,[x8]

; 175  : 	memset(win->title, 0, strlen(title));

	ldr         x8,[sp,#0x28]
	str         x8,[sp,#0x60]
|$LN6@ChCreateWi|
	ldr         x8,[sp,#0x60]
	ldrsb       w8,[x8]
	cmp         w8,#0
	beq         |$LN5@ChCreateWi|
	ldr         x8,[sp,#0x60]
	add         x8,x8,#1
	str         x8,[sp,#0x60]
	b           |$LN6@ChCreateWi|
|$LN5@ChCreateWi|
	ldr         x9,[sp,#0x60]
	ldr         x8,[sp,#0x28]
	sub         x8,x9,x8
	str         x8,[sp,#0x88]
	ldr         x8,[sp,#0x10]
	add         x8,x8,#0x20
	ldr         x2,[sp,#0x88]
	mov         w1,#0
	ldr         x0,[x8]
	bl          memset

; 176  : 	strcpy(win->title, title);

	ldr         x8,[sp,#0x28]
	str         x8,[sp,#0x70]
	ldr         x8,[sp,#0x10]
	add         x8,x8,#0x20
	ldr         x8,[x8]
	str         x8,[sp,#0x68]
	ldr         x8,[sp,#0x68]
	str         x8,[sp,#0x90]
|$LN7@ChCreateWi|
	ldr         x8,[sp,#0x70]
	ldrsb       w8,[x8]
	strb        w8,[sp,#0x18]
	ldr         x9,[sp,#0x68]
	ldrsb       w8,[sp,#0x18]
	strb        w8,[x9]
	ldr         x8,[sp,#0x70]
	add         x8,x8,#1
	str         x8,[sp,#0x70]
	ldr         x8,[sp,#0x68]
	add         x8,x8,#1
	str         x8,[sp,#0x68]
	ldrsb       w8,[sp,#0x18]
	cmp         w8,#0
	bne         |$LN7@ChCreateWi|

; 177  : 	win->info->x = x;

	ldr         x8,[sp,#0x10]
	add         x8,x8,#0x28
	ldr         x9,[x8]
	mov         x8,#0x1008
	add         x9,x9,x8
	ldr         w8,[sp,#0x40]
	str         w8,[x9]

; 178  : 	win->info->y = y;

	ldr         x8,[sp,#0x10]
	add         x8,x8,#0x28
	ldr         x9,[x8]
	mov         x8,#0x100C
	add         x9,x9,x8
	ldr         w8,[sp,#0x44]
	str         w8,[x9]

; 179  : 	win->info->width = w;

	ldr         x8,[sp,#0x10]
	add         x8,x8,#0x28
	ldr         x9,[x8]
	mov         x8,#0x1010
	add         x9,x9,x8
	ldr         w8,[sp,#0x1C]
	str         w8,[x9]

; 180  : 	win->info->height = h;

	ldr         x8,[sp,#0x10]
	add         x8,x8,#0x28
	ldr         x9,[x8]
	mov         x8,#0x1014
	add         x9,x9,x8
	ldr         w8,[sp,#0x20]
	str         w8,[x9]

; 181  : 	win->info->rect_count = 0;

	ldr         x8,[sp,#0x10]
	add         x8,x8,#0x28
	ldr         x8,[x8]
	add         x9,x8,#1,lsl #0xC
	mov         w8,#0
	str         w8,[x9]

; 182  : 	win->info->updateEntireWindow = 0;

	ldr         x8,[sp,#0x10]
	add         x8,x8,#0x28
	ldr         x9,[x8]
	mov         x8,#0x1005
	add         x9,x9,x8
	mov         w8,#0
	strb        w8,[x9]

; 183  : 	win->info->hide = 0;

	ldr         x8,[sp,#0x10]
	add         x8,x8,#0x28
	ldr         x9,[x8]
	mov         x8,#0x1019
	add         x9,x9,x8
	mov         w8,#0
	strb        w8,[x9]

; 184  : 	win->focused = true;

	ldr         x8,[sp,#0x10]
	add         x9,x8,#0x40
	mov         w8,#1
	strb        w8,[x9]

; 185  : 	win->color = WINDOW_DEFAULT_BACKGROUND;

	ldr         x8,[sp,#0x10]
	add         x9,x8,#0x3C
	ldr         w8,|$LN10@ChCreateWi|
	str         w8,[x9]

; 186  : 	win->GlobalControls = initialize_list();

	bl          initialize_list
	ldr         x8,[sp,#0x10]
	add         x8,x8,#0x48
	str         x0,[x8]

; 187  : 	win->widgets = initialize_list();

	bl          initialize_list
	ldr         x8,[sp,#0x10]
	add         x8,x8,#0x50
	str         x0,[x8]

; 188  : 	win->subwindow = initialize_list();

	bl          initialize_list
	ldr         x8,[sp,#0x10]
	add         x8,x8,#0x58
	str         x0,[x8]

; 189  : 	win->popup = initialize_list();

	bl          initialize_list
	ldr         x8,[sp,#0x10]
	add         x8,x8,#0x60
	str         x0,[x8]

; 190  : 	win->ChWinPaint = ChDefaultWinPaint;

	ldr         x8,[sp,#0x10]
	add         x9,x8,#0xD0
	adrp        x8,|?ChDefaultWinPaint@@YAXPEAU_chwin_@@@Z|
	add         x8,x8,PageOffset(|?ChDefaultWinPaint@@YAXPEAU_chwin_@@@Z|)
	str         x8,[x9]

; 191  : 	win->handle = app->windowHandle;

	ldr         x8,[sp,#0x48]
	add         x10,x8,#0x28
	ldr         x8,[sp,#0x10]
	add         x9,x8,#0x38
	ldr         w8,[x10]
	str         w8,[x9]

; 192  : 	ChWinGlobalControl* close = ChCreateGlobalButton(win, win->info->width - 25,

	ldr         x8,[sp,#0x10]
	add         x8,x8,#0x28
	ldr         x9,[x8]
	mov         x8,#0x1010
	add         x8,x9,x8
	ldr         w8,[x8]
	sub         w1,w8,#0x19
	mov         w5,#1
	mov         w4,#0x14
	mov         w3,#0x14
	mov         w2,#3
	mov         w1,w1
	ldr         x0,[sp,#0x10]
	bl          ChCreateGlobalButton
	str         x0,[sp,#0x30]

; 193  : 		WINDOW_DEFAULT_TITLEBAR_HEIGHT / 2 - 20 / 2, 20, 20, WINDOW_GLOBAL_CONTROL_CLOSE);
; 194  : 	close->ChGlobalButtonPaint = ChWindowPaintCloseButton;

	ldr         x8,[sp,#0x30]
	add         x9,x8,#0x28
	adrp        x8,|?ChWindowPaintCloseButton@@YAXPEAU_chwin_@@PEAU_global_ctrl_@@@Z|
	add         x8,x8,PageOffset(|?ChWindowPaintCloseButton@@YAXPEAU_chwin_@@PEAU_global_ctrl_@@@Z|)
	str         x8,[x9]

; 195  : 	close->ChGlobalMouseEvent = ChGlobalCtlMouseHandler;

	ldr         x8,[sp,#0x30]
	add         x9,x8,#0x30
	adrp        x8,|?ChGlobalCtlMouseHandler@@YAXPEAU_chwin_@@PEAU_global_ctrl_@@HHH@Z|
	add         x8,x8,PageOffset(|?ChGlobalCtlMouseHandler@@YAXPEAU_chwin_@@PEAU_global_ctrl_@@HHH@Z|)
	str         x8,[x9]

; 196  : 	close->outlineColor = 0xFF868686;

	ldr         x8,[sp,#0x30]
	add         x9,x8,#0x18
	ldr         w8,|$LN11@ChCreateWi|
	str         w8,[x9]

; 197  : 	close->hoverOutlineColor = 0xFFAF2E17;

	ldr         x8,[sp,#0x30]
	add         x9,x8,#0x1C
	ldr         w8,|$LN12@ChCreateWi|
	str         w8,[x9]

; 198  : 	close->clickedOutlineColor = 0xFF63291F;

	ldr         x8,[sp,#0x30]
	add         x9,x8,#0x24
	ldr         w8,|$LN13@ChCreateWi|
	str         w8,[x9]

; 199  : 	close->ChGlobalActionEvent = ChGlobalCloseAction;

	ldr         x8,[sp,#0x30]
	add         x9,x8,#0x40
	adrp        x8,|?ChGlobalCloseAction@@YAXPEAU_chwin_@@PEAU_global_ctrl_@@@Z|
	add         x8,x8,PageOffset(|?ChGlobalCloseAction@@YAXPEAU_chwin_@@PEAU_global_ctrl_@@@Z|)
	str         x8,[x9]

; 200  : 
; 201  : 	ChWinGlobalControl* maxim = ChCreateGlobalButton(win, win->info->width - 25 - 20,

	ldr         x8,[sp,#0x10]
	add         x8,x8,#0x28
	ldr         x9,[x8]
	mov         x8,#0x1010
	add         x8,x9,x8
	ldr         w8,[x8]
	sub         w8,w8,#0x19
	sub         w1,w8,#0x14
	mov         w5,#2
	mov         w4,#0x14
	mov         w3,#0x14
	mov         w2,#3
	mov         w1,w1
	ldr         x0,[sp,#0x10]
	bl          ChCreateGlobalButton
	str         x0,[sp,#0x50]

; 202  : 		WINDOW_DEFAULT_TITLEBAR_HEIGHT / 2 - 20 / 2, 20, 20, WINDOW_GLOBAL_CONTROL_MAXIMIZE);
; 203  : 	maxim->ChGlobalButtonPaint = ChWindowPaintMaximButton;

	ldr         x8,[sp,#0x50]
	add         x9,x8,#0x28
	adrp        x8,|?ChWindowPaintMaximButton@@YAXPEAU_chwin_@@PEAU_global_ctrl_@@@Z|
	add         x8,x8,PageOffset(|?ChWindowPaintMaximButton@@YAXPEAU_chwin_@@PEAU_global_ctrl_@@@Z|)
	str         x8,[x9]

; 204  : 	maxim->outlineColor = 0xFF868686;

	ldr         x8,[sp,#0x50]
	add         x9,x8,#0x18
	ldr         w8,|$LN11@ChCreateWi|
	str         w8,[x9]

; 205  : 	maxim->hoverOutlineColor = 0xFFAFA3A3;

	ldr         x8,[sp,#0x50]
	add         x9,x8,#0x1C
	ldr         w8,|$LN14@ChCreateWi|
	str         w8,[x9]

; 206  : 	maxim->clickedOutlineColor = 0xFF444444;

	ldr         x8,[sp,#0x50]
	add         x9,x8,#0x24
	ldr         w8,|$LN15@ChCreateWi|
	str         w8,[x9]

; 207  : 	maxim->ChGlobalMouseEvent = ChGlobalCtlMouseHandler;

	ldr         x8,[sp,#0x50]
	add         x9,x8,#0x30
	adrp        x8,|?ChGlobalCtlMouseHandler@@YAXPEAU_chwin_@@PEAU_global_ctrl_@@HHH@Z|
	add         x8,x8,PageOffset(|?ChGlobalCtlMouseHandler@@YAXPEAU_chwin_@@PEAU_global_ctrl_@@HHH@Z|)
	str         x8,[x9]

; 208  : 
; 209  : 	ChWinGlobalControl* minim = ChCreateGlobalButton(win, win->info->width - 25 - 20*2,

	ldr         x8,[sp,#0x10]
	add         x8,x8,#0x28
	ldr         x9,[x8]
	mov         x8,#0x1010
	add         x8,x9,x8
	ldr         w8,[x8]
	sub         w8,w8,#0x19
	sub         w1,w8,#0x28
	mov         w5,#2
	mov         w4,#0x14
	mov         w3,#0x14
	mov         w2,#3
	mov         w1,w1
	ldr         x0,[sp,#0x10]
	bl          ChCreateGlobalButton
	str         x0,[sp,#0x38]

; 210  : 		WINDOW_DEFAULT_TITLEBAR_HEIGHT / 2 - 20 / 2, 20, 20, WINDOW_GLOBAL_CONTROL_MAXIMIZE);
; 211  : 	minim->ChGlobalButtonPaint = ChWindowPaintMinimButton;

	ldr         x8,[sp,#0x38]
	add         x9,x8,#0x28
	adrp        x8,|?ChWindowPaintMinimButton@@YAXPEAU_chwin_@@PEAU_global_ctrl_@@@Z|
	add         x8,x8,PageOffset(|?ChWindowPaintMinimButton@@YAXPEAU_chwin_@@PEAU_global_ctrl_@@@Z|)
	str         x8,[x9]

; 212  : 	minim->outlineColor = 0xFF868686;

	ldr         x8,[sp,#0x38]
	add         x9,x8,#0x18
	ldr         w8,|$LN11@ChCreateWi|
	str         w8,[x9]

; 213  : 	minim->hoverOutlineColor = 0xFFAFA3A3;

	ldr         x8,[sp,#0x38]
	add         x9,x8,#0x1C
	ldr         w8,|$LN14@ChCreateWi|
	str         w8,[x9]

; 214  : 	minim->clickedOutlineColor = 0xFF444444;

	ldr         x8,[sp,#0x38]
	add         x9,x8,#0x24
	ldr         w8,|$LN15@ChCreateWi|
	str         w8,[x9]

; 215  : 	minim->ChGlobalMouseEvent = ChGlobalCtlMouseHandler;

	ldr         x8,[sp,#0x38]
	add         x9,x8,#0x30
	adrp        x8,|?ChGlobalCtlMouseHandler@@YAXPEAU_chwin_@@PEAU_global_ctrl_@@HHH@Z|
	add         x8,x8,PageOffset(|?ChGlobalCtlMouseHandler@@YAXPEAU_chwin_@@PEAU_global_ctrl_@@HHH@Z|)
	str         x8,[x9]

; 216  : 	minim->ChGlobalActionEvent = ChGlobalMinimiseAction;

	ldr         x8,[sp,#0x38]
	add         x9,x8,#0x40
	adrp        x8,|?ChGlobalMinimiseAction@@YAXPEAU_chwin_@@PEAU_global_ctrl_@@@Z|
	add         x8,x8,PageOffset(|?ChGlobalMinimiseAction@@YAXPEAU_chwin_@@PEAU_global_ctrl_@@@Z|)
	str         x8,[x9]

; 217  : 	return win;

	ldr         x0,[sp,#0x10]
	ldp         fp,lr,[sp],#0xA0
	ret
	nop
|$LN10@ChCreateWi|
	DCD         0xffd2d2d2
|$LN11@ChCreateWi|
	DCD         0xff868686
|$LN12@ChCreateWi|
	DCD         0xffaf2e17
|$LN13@ChCreateWi|
	DCD         0xff63291f
|$LN14@ChCreateWi|
	DCD         0xffafa3a3
|$LN15@ChCreateWi|
	DCD         0xff444444

	ENDP  ; |ChCreateWindow|

	END
