 xnkrnl

 Timestamp is 668234f5 (Mon Jul  1 10:17:49 2024)

 Preferred load address is ffffc00000000000

 Start         Length     Name                   Class
 0001:00000000 000053e0H .text                   CODE
 0001:000053e0 00021d29H .text$mn                CODE
 0002:00000000 00001644H .rdata                  DATA
 0002:00001644 00000098H .rdata$voltmd           DATA
 0002:000016dc 000000ccH .rdata$zzzdbg           DATA
 0002:000017a8 00002224H .xdata                  DATA
 0003:00000000 00000b10H .data                   DATA
 0003:00000b10 00003624H .bss                    DATA
 0004:00000000 00002220H .pdata                  DATA
 0005:00000000 00000053H .msvcjmc                DATA
 0006:00000000 000011f6H .edata                  DATA

  Address         Publics by Value              Rva+Base               Lib:Object

 0000:00000000       __enclave_config           0000000000000000     <absolute>
 0000:00000000       __AbsoluteZero             0000000000000000     <absolute>
 0000:00000000       __arm64x_native_entrypoint 0000000000000000     <absolute>
 0000:00000000       __hybrid_code_map          0000000000000000     <absolute>
 0000:00000000       __guard_longjmp_count      0000000000000000     <absolute>
 0000:00000000       __guard_longjmp_table      0000000000000000     <absolute>
 0000:00000000       __guard_iat_count          0000000000000000     <absolute>
 0000:00000000       ___safe_se_handler_table   0000000000000000     <absolute>
 0000:00000000       __x64_code_ranges_to_entry_points 0000000000000000     <absolute>
 0000:00000000       __guard_eh_cont_count      0000000000000000     <absolute>
 0000:00000000       __arm64x_extra_rfe_table   0000000000000000     <absolute>
 0000:00000000       __arm64x_extra_rfe_table_size 0000000000000000     <absolute>
 0000:00000000       __dynamic_value_reloc_table 0000000000000000     <absolute>
 0000:00000000       __guard_fids_table         0000000000000000     <absolute>
 0000:00000000       ___safe_se_handler_count   0000000000000000     <absolute>
 0000:00000000       __x64_code_ranges_to_entry_points_count 0000000000000000     <absolute>
 0000:00000000       __guard_eh_cont_table      0000000000000000     <absolute>
 0000:00000000       __hybrid_auxiliary_iat     0000000000000000     <absolute>
 0000:00000000       __guard_iat_table          0000000000000000     <absolute>
 0000:00000000       __hybrid_code_map_count    0000000000000000     <absolute>
 0000:00000000       __guard_fids_count         0000000000000000     <absolute>
 0000:00000000       __guard_check_icall_a64n_fptr 0000000000000000     <absolute>
 0000:00000000       __arm64x_redirection_metadata_count 0000000000000000     <absolute>
 0000:00000000       __arm64x_redirection_metadata 0000000000000000     <absolute>
 0000:00000000       __hybrid_auxiliary_iat_copy 0000000000000000     <absolute>
 0000:00000100       __guard_flags              0000000000000100     <absolute>
 0000:00000000       __ImageBase                ffffc00000000000     <linker-defined>
 0001:00000080       x64_interrupt_handler_0    ffffc00000001080     x86_64_intrs.obj
 0001:000000d0       x64_interrupt_handler_1    ffffc000000010d0     x86_64_intrs.obj
 0001:00000120       x64_interrupt_handler_2    ffffc00000001120     x86_64_intrs.obj
 0001:00000170       x64_interrupt_handler_3    ffffc00000001170     x86_64_intrs.obj
 0001:000001c0       x64_interrupt_handler_4    ffffc000000011c0     x86_64_intrs.obj
 0001:00000210       x64_interrupt_handler_5    ffffc00000001210     x86_64_intrs.obj
 0001:00000260       x64_interrupt_handler_6    ffffc00000001260     x86_64_intrs.obj
 0001:000002b0       x64_interrupt_handler_7    ffffc000000012b0     x86_64_intrs.obj
 0001:00000300       x64_interrupt_handler_8    ffffc00000001300     x86_64_intrs.obj
 0001:0000034b       x64_interrupt_handler_9    ffffc0000000134b     x86_64_intrs.obj
 0001:0000039b       x64_interrupt_handler_10   ffffc0000000139b     x86_64_intrs.obj
 0001:000003e6       x64_interrupt_handler_11   ffffc000000013e6     x86_64_intrs.obj
 0001:00000431       x64_interrupt_handler_12   ffffc00000001431     x86_64_intrs.obj
 0001:0000047c       x64_interrupt_handler_13   ffffc0000000147c     x86_64_intrs.obj
 0001:000004c7       x64_interrupt_handler_14   ffffc000000014c7     x86_64_intrs.obj
 0001:00000512       x64_interrupt_handler_15   ffffc00000001512     x86_64_intrs.obj
 0001:00000562       x64_interrupt_handler_16   ffffc00000001562     x86_64_intrs.obj
 0001:000005b2       x64_interrupt_handler_17   ffffc000000015b2     x86_64_intrs.obj
 0001:000005fd       x64_interrupt_handler_18   ffffc000000015fd     x86_64_intrs.obj
 0001:0000064d       x64_interrupt_handler_19   ffffc0000000164d     x86_64_intrs.obj
 0001:0000069d       x64_interrupt_handler_20   ffffc0000000169d     x86_64_intrs.obj
 0001:000006ed       x64_interrupt_handler_21   ffffc000000016ed     x86_64_intrs.obj
 0001:0000073d       x64_interrupt_handler_22   ffffc0000000173d     x86_64_intrs.obj
 0001:0000078d       x64_interrupt_handler_23   ffffc0000000178d     x86_64_intrs.obj
 0001:000007dd       x64_interrupt_handler_24   ffffc000000017dd     x86_64_intrs.obj
 0001:0000082d       x64_interrupt_handler_25   ffffc0000000182d     x86_64_intrs.obj
 0001:0000087d       x64_interrupt_handler_26   ffffc0000000187d     x86_64_intrs.obj
 0001:000008cd       x64_interrupt_handler_27   ffffc000000018cd     x86_64_intrs.obj
 0001:0000091d       x64_interrupt_handler_28   ffffc0000000191d     x86_64_intrs.obj
 0001:0000096d       x64_interrupt_handler_29   ffffc0000000196d     x86_64_intrs.obj
 0001:000009bd       x64_interrupt_handler_30   ffffc000000019bd     x86_64_intrs.obj
 0001:00000a08       x64_interrupt_handler_31   ffffc00000001a08     x86_64_intrs.obj
 0001:00000a58       x64_interrupt_handler_32   ffffc00000001a58     x86_64_intrs.obj
 0001:00000aa8       x64_interrupt_handler_33   ffffc00000001aa8     x86_64_intrs.obj
 0001:00000af8       x64_interrupt_handler_34   ffffc00000001af8     x86_64_intrs.obj
 0001:00000b48       x64_interrupt_handler_35   ffffc00000001b48     x86_64_intrs.obj
 0001:00000b98       x64_interrupt_handler_36   ffffc00000001b98     x86_64_intrs.obj
 0001:00000be8       x64_interrupt_handler_37   ffffc00000001be8     x86_64_intrs.obj
 0001:00000c38       x64_interrupt_handler_38   ffffc00000001c38     x86_64_intrs.obj
 0001:00000c88       x64_interrupt_handler_39   ffffc00000001c88     x86_64_intrs.obj
 0001:00000cd8       x64_interrupt_handler_40   ffffc00000001cd8     x86_64_intrs.obj
 0001:00000d28       x64_interrupt_handler_41   ffffc00000001d28     x86_64_intrs.obj
 0001:00000d78       x64_interrupt_handler_42   ffffc00000001d78     x86_64_intrs.obj
 0001:00000dc8       x64_interrupt_handler_43   ffffc00000001dc8     x86_64_intrs.obj
 0001:00000e18       x64_interrupt_handler_44   ffffc00000001e18     x86_64_intrs.obj
 0001:00000e68       x64_interrupt_handler_45   ffffc00000001e68     x86_64_intrs.obj
 0001:00000eb8       x64_interrupt_handler_46   ffffc00000001eb8     x86_64_intrs.obj
 0001:00000f08       x64_interrupt_handler_47   ffffc00000001f08     x86_64_intrs.obj
 0001:00000f58       x64_interrupt_handler_48   ffffc00000001f58     x86_64_intrs.obj
 0001:00000fa8       x64_interrupt_handler_49   ffffc00000001fa8     x86_64_intrs.obj
 0001:00000ff8       x64_interrupt_handler_50   ffffc00000001ff8     x86_64_intrs.obj
 0001:00001048       x64_interrupt_handler_51   ffffc00000002048     x86_64_intrs.obj
 0001:00001098       x64_interrupt_handler_52   ffffc00000002098     x86_64_intrs.obj
 0001:000010e8       x64_interrupt_handler_53   ffffc000000020e8     x86_64_intrs.obj
 0001:00001138       x64_interrupt_handler_54   ffffc00000002138     x86_64_intrs.obj
 0001:00001188       x64_interrupt_handler_55   ffffc00000002188     x86_64_intrs.obj
 0001:000011d8       x64_interrupt_handler_56   ffffc000000021d8     x86_64_intrs.obj
 0001:00001228       x64_interrupt_handler_57   ffffc00000002228     x86_64_intrs.obj
 0001:00001278       x64_interrupt_handler_58   ffffc00000002278     x86_64_intrs.obj
 0001:000012c8       x64_interrupt_handler_59   ffffc000000022c8     x86_64_intrs.obj
 0001:00001318       x64_interrupt_handler_60   ffffc00000002318     x86_64_intrs.obj
 0001:00001368       x64_interrupt_handler_61   ffffc00000002368     x86_64_intrs.obj
 0001:000013b8       x64_interrupt_handler_62   ffffc000000023b8     x86_64_intrs.obj
 0001:00001408       x64_interrupt_handler_63   ffffc00000002408     x86_64_intrs.obj
 0001:00001458       x64_interrupt_handler_64   ffffc00000002458     x86_64_intrs.obj
 0001:000014a8       x64_interrupt_handler_65   ffffc000000024a8     x86_64_intrs.obj
 0001:000014f8       x64_interrupt_handler_66   ffffc000000024f8     x86_64_intrs.obj
 0001:00001548       x64_interrupt_handler_67   ffffc00000002548     x86_64_intrs.obj
 0001:00001598       x64_interrupt_handler_68   ffffc00000002598     x86_64_intrs.obj
 0001:000015e8       x64_interrupt_handler_69   ffffc000000025e8     x86_64_intrs.obj
 0001:00001638       x64_interrupt_handler_70   ffffc00000002638     x86_64_intrs.obj
 0001:00001688       x64_interrupt_handler_71   ffffc00000002688     x86_64_intrs.obj
 0001:000016d8       x64_interrupt_handler_72   ffffc000000026d8     x86_64_intrs.obj
 0001:00001728       x64_interrupt_handler_73   ffffc00000002728     x86_64_intrs.obj
 0001:00001778       x64_interrupt_handler_74   ffffc00000002778     x86_64_intrs.obj
 0001:000017c8       x64_interrupt_handler_75   ffffc000000027c8     x86_64_intrs.obj
 0001:00001818       x64_interrupt_handler_76   ffffc00000002818     x86_64_intrs.obj
 0001:00001868       x64_interrupt_handler_77   ffffc00000002868     x86_64_intrs.obj
 0001:000018b8       x64_interrupt_handler_78   ffffc000000028b8     x86_64_intrs.obj
 0001:00001908       x64_interrupt_handler_79   ffffc00000002908     x86_64_intrs.obj
 0001:00001958       x64_interrupt_handler_80   ffffc00000002958     x86_64_intrs.obj
 0001:000019a8       x64_interrupt_handler_81   ffffc000000029a8     x86_64_intrs.obj
 0001:000019f8       x64_interrupt_handler_82   ffffc000000029f8     x86_64_intrs.obj
 0001:00001a48       x64_interrupt_handler_83   ffffc00000002a48     x86_64_intrs.obj
 0001:00001a98       x64_interrupt_handler_84   ffffc00000002a98     x86_64_intrs.obj
 0001:00001ae8       x64_interrupt_handler_85   ffffc00000002ae8     x86_64_intrs.obj
 0001:00001b38       x64_interrupt_handler_86   ffffc00000002b38     x86_64_intrs.obj
 0001:00001b88       x64_interrupt_handler_87   ffffc00000002b88     x86_64_intrs.obj
 0001:00001bd8       x64_interrupt_handler_88   ffffc00000002bd8     x86_64_intrs.obj
 0001:00001c28       x64_interrupt_handler_89   ffffc00000002c28     x86_64_intrs.obj
 0001:00001c78       x64_interrupt_handler_90   ffffc00000002c78     x86_64_intrs.obj
 0001:00001cc8       x64_interrupt_handler_91   ffffc00000002cc8     x86_64_intrs.obj
 0001:00001d18       x64_interrupt_handler_92   ffffc00000002d18     x86_64_intrs.obj
 0001:00001d68       x64_interrupt_handler_93   ffffc00000002d68     x86_64_intrs.obj
 0001:00001db8       x64_interrupt_handler_94   ffffc00000002db8     x86_64_intrs.obj
 0001:00001e08       x64_interrupt_handler_95   ffffc00000002e08     x86_64_intrs.obj
 0001:00001e58       x64_interrupt_handler_96   ffffc00000002e58     x86_64_intrs.obj
 0001:00001ea8       x64_interrupt_handler_97   ffffc00000002ea8     x86_64_intrs.obj
 0001:00001ef8       x64_interrupt_handler_98   ffffc00000002ef8     x86_64_intrs.obj
 0001:00001f48       x64_interrupt_handler_99   ffffc00000002f48     x86_64_intrs.obj
 0001:00001f98       x64_interrupt_handler_100  ffffc00000002f98     x86_64_intrs.obj
 0001:00001fe8       x64_interrupt_handler_101  ffffc00000002fe8     x86_64_intrs.obj
 0001:00002038       x64_interrupt_handler_102  ffffc00000003038     x86_64_intrs.obj
 0001:00002088       x64_interrupt_handler_103  ffffc00000003088     x86_64_intrs.obj
 0001:000020d8       x64_interrupt_handler_104  ffffc000000030d8     x86_64_intrs.obj
 0001:00002128       x64_interrupt_handler_105  ffffc00000003128     x86_64_intrs.obj
 0001:00002178       x64_interrupt_handler_106  ffffc00000003178     x86_64_intrs.obj
 0001:000021c8       x64_interrupt_handler_107  ffffc000000031c8     x86_64_intrs.obj
 0001:00002218       x64_interrupt_handler_108  ffffc00000003218     x86_64_intrs.obj
 0001:00002268       x64_interrupt_handler_109  ffffc00000003268     x86_64_intrs.obj
 0001:000022b8       x64_interrupt_handler_110  ffffc000000032b8     x86_64_intrs.obj
 0001:00002308       x64_interrupt_handler_111  ffffc00000003308     x86_64_intrs.obj
 0001:00002358       x64_interrupt_handler_112  ffffc00000003358     x86_64_intrs.obj
 0001:000023a8       x64_interrupt_handler_113  ffffc000000033a8     x86_64_intrs.obj
 0001:000023f8       x64_interrupt_handler_114  ffffc000000033f8     x86_64_intrs.obj
 0001:00002448       x64_interrupt_handler_115  ffffc00000003448     x86_64_intrs.obj
 0001:00002498       x64_interrupt_handler_116  ffffc00000003498     x86_64_intrs.obj
 0001:000024e8       x64_interrupt_handler_117  ffffc000000034e8     x86_64_intrs.obj
 0001:00002538       x64_interrupt_handler_118  ffffc00000003538     x86_64_intrs.obj
 0001:00002588       x64_interrupt_handler_119  ffffc00000003588     x86_64_intrs.obj
 0001:000025d8       x64_interrupt_handler_120  ffffc000000035d8     x86_64_intrs.obj
 0001:00002628       x64_interrupt_handler_121  ffffc00000003628     x86_64_intrs.obj
 0001:00002678       x64_interrupt_handler_122  ffffc00000003678     x86_64_intrs.obj
 0001:000026c8       x64_interrupt_handler_123  ffffc000000036c8     x86_64_intrs.obj
 0001:00002718       x64_interrupt_handler_124  ffffc00000003718     x86_64_intrs.obj
 0001:00002768       x64_interrupt_handler_125  ffffc00000003768     x86_64_intrs.obj
 0001:000027b8       x64_interrupt_handler_126  ffffc000000037b8     x86_64_intrs.obj
 0001:00002808       x64_interrupt_handler_127  ffffc00000003808     x86_64_intrs.obj
 0001:00002858       x64_interrupt_handler_128  ffffc00000003858     x86_64_intrs.obj
 0001:000028a8       x64_interrupt_handler_129  ffffc000000038a8     x86_64_intrs.obj
 0001:000028f8       x64_interrupt_handler_130  ffffc000000038f8     x86_64_intrs.obj
 0001:00002948       x64_interrupt_handler_131  ffffc00000003948     x86_64_intrs.obj
 0001:00002998       x64_interrupt_handler_132  ffffc00000003998     x86_64_intrs.obj
 0001:000029e8       x64_interrupt_handler_133  ffffc000000039e8     x86_64_intrs.obj
 0001:00002a38       x64_interrupt_handler_134  ffffc00000003a38     x86_64_intrs.obj
 0001:00002a88       x64_interrupt_handler_135  ffffc00000003a88     x86_64_intrs.obj
 0001:00002ad8       x64_interrupt_handler_136  ffffc00000003ad8     x86_64_intrs.obj
 0001:00002b28       x64_interrupt_handler_137  ffffc00000003b28     x86_64_intrs.obj
 0001:00002b78       x64_interrupt_handler_138  ffffc00000003b78     x86_64_intrs.obj
 0001:00002bc8       x64_interrupt_handler_139  ffffc00000003bc8     x86_64_intrs.obj
 0001:00002c18       x64_interrupt_handler_140  ffffc00000003c18     x86_64_intrs.obj
 0001:00002c68       x64_interrupt_handler_141  ffffc00000003c68     x86_64_intrs.obj
 0001:00002cb8       x64_interrupt_handler_142  ffffc00000003cb8     x86_64_intrs.obj
 0001:00002d08       x64_interrupt_handler_143  ffffc00000003d08     x86_64_intrs.obj
 0001:00002d58       x64_interrupt_handler_144  ffffc00000003d58     x86_64_intrs.obj
 0001:00002da8       x64_interrupt_handler_145  ffffc00000003da8     x86_64_intrs.obj
 0001:00002df8       x64_interrupt_handler_146  ffffc00000003df8     x86_64_intrs.obj
 0001:00002e48       x64_interrupt_handler_147  ffffc00000003e48     x86_64_intrs.obj
 0001:00002e98       x64_interrupt_handler_148  ffffc00000003e98     x86_64_intrs.obj
 0001:00002ee8       x64_interrupt_handler_149  ffffc00000003ee8     x86_64_intrs.obj
 0001:00002f38       x64_interrupt_handler_150  ffffc00000003f38     x86_64_intrs.obj
 0001:00002f88       x64_interrupt_handler_151  ffffc00000003f88     x86_64_intrs.obj
 0001:00002fd8       x64_interrupt_handler_152  ffffc00000003fd8     x86_64_intrs.obj
 0001:00003028       x64_interrupt_handler_153  ffffc00000004028     x86_64_intrs.obj
 0001:00003078       x64_interrupt_handler_154  ffffc00000004078     x86_64_intrs.obj
 0001:000030c8       x64_interrupt_handler_155  ffffc000000040c8     x86_64_intrs.obj
 0001:00003118       x64_interrupt_handler_156  ffffc00000004118     x86_64_intrs.obj
 0001:00003168       x64_interrupt_handler_157  ffffc00000004168     x86_64_intrs.obj
 0001:000031b8       x64_interrupt_handler_158  ffffc000000041b8     x86_64_intrs.obj
 0001:00003208       x64_interrupt_handler_159  ffffc00000004208     x86_64_intrs.obj
 0001:00003258       x64_interrupt_handler_160  ffffc00000004258     x86_64_intrs.obj
 0001:000032a8       x64_interrupt_handler_161  ffffc000000042a8     x86_64_intrs.obj
 0001:000032f8       x64_interrupt_handler_162  ffffc000000042f8     x86_64_intrs.obj
 0001:00003348       x64_interrupt_handler_163  ffffc00000004348     x86_64_intrs.obj
 0001:00003398       x64_interrupt_handler_164  ffffc00000004398     x86_64_intrs.obj
 0001:000033e8       x64_interrupt_handler_165  ffffc000000043e8     x86_64_intrs.obj
 0001:00003438       x64_interrupt_handler_166  ffffc00000004438     x86_64_intrs.obj
 0001:00003488       x64_interrupt_handler_167  ffffc00000004488     x86_64_intrs.obj
 0001:000034d8       x64_interrupt_handler_168  ffffc000000044d8     x86_64_intrs.obj
 0001:00003528       x64_interrupt_handler_169  ffffc00000004528     x86_64_intrs.obj
 0001:00003578       x64_interrupt_handler_170  ffffc00000004578     x86_64_intrs.obj
 0001:000035c8       x64_interrupt_handler_171  ffffc000000045c8     x86_64_intrs.obj
 0001:00003618       x64_interrupt_handler_172  ffffc00000004618     x86_64_intrs.obj
 0001:00003668       x64_interrupt_handler_173  ffffc00000004668     x86_64_intrs.obj
 0001:000036b8       x64_interrupt_handler_174  ffffc000000046b8     x86_64_intrs.obj
 0001:00003708       x64_interrupt_handler_175  ffffc00000004708     x86_64_intrs.obj
 0001:00003758       x64_interrupt_handler_176  ffffc00000004758     x86_64_intrs.obj
 0001:000037a8       x64_interrupt_handler_177  ffffc000000047a8     x86_64_intrs.obj
 0001:000037f8       x64_interrupt_handler_178  ffffc000000047f8     x86_64_intrs.obj
 0001:00003848       x64_interrupt_handler_179  ffffc00000004848     x86_64_intrs.obj
 0001:00003898       x64_interrupt_handler_180  ffffc00000004898     x86_64_intrs.obj
 0001:000038e8       x64_interrupt_handler_181  ffffc000000048e8     x86_64_intrs.obj
 0001:00003938       x64_interrupt_handler_182  ffffc00000004938     x86_64_intrs.obj
 0001:00003988       x64_interrupt_handler_183  ffffc00000004988     x86_64_intrs.obj
 0001:000039d8       x64_interrupt_handler_184  ffffc000000049d8     x86_64_intrs.obj
 0001:00003a28       x64_interrupt_handler_185  ffffc00000004a28     x86_64_intrs.obj
 0001:00003a78       x64_interrupt_handler_186  ffffc00000004a78     x86_64_intrs.obj
 0001:00003ac8       x64_interrupt_handler_187  ffffc00000004ac8     x86_64_intrs.obj
 0001:00003b18       x64_interrupt_handler_188  ffffc00000004b18     x86_64_intrs.obj
 0001:00003b68       x64_interrupt_handler_189  ffffc00000004b68     x86_64_intrs.obj
 0001:00003bb8       x64_interrupt_handler_190  ffffc00000004bb8     x86_64_intrs.obj
 0001:00003c08       x64_interrupt_handler_191  ffffc00000004c08     x86_64_intrs.obj
 0001:00003c58       x64_interrupt_handler_192  ffffc00000004c58     x86_64_intrs.obj
 0001:00003ca8       x64_interrupt_handler_193  ffffc00000004ca8     x86_64_intrs.obj
 0001:00003cf8       x64_interrupt_handler_194  ffffc00000004cf8     x86_64_intrs.obj
 0001:00003d48       x64_interrupt_handler_195  ffffc00000004d48     x86_64_intrs.obj
 0001:00003d98       x64_interrupt_handler_196  ffffc00000004d98     x86_64_intrs.obj
 0001:00003de8       x64_interrupt_handler_197  ffffc00000004de8     x86_64_intrs.obj
 0001:00003e38       x64_interrupt_handler_198  ffffc00000004e38     x86_64_intrs.obj
 0001:00003e88       x64_interrupt_handler_199  ffffc00000004e88     x86_64_intrs.obj
 0001:00003ed8       x64_interrupt_handler_200  ffffc00000004ed8     x86_64_intrs.obj
 0001:00003f28       x64_interrupt_handler_201  ffffc00000004f28     x86_64_intrs.obj
 0001:00003f78       x64_interrupt_handler_202  ffffc00000004f78     x86_64_intrs.obj
 0001:00003fc8       x64_interrupt_handler_203  ffffc00000004fc8     x86_64_intrs.obj
 0001:00004018       x64_interrupt_handler_204  ffffc00000005018     x86_64_intrs.obj
 0001:00004068       x64_interrupt_handler_205  ffffc00000005068     x86_64_intrs.obj
 0001:000040b8       x64_interrupt_handler_206  ffffc000000050b8     x86_64_intrs.obj
 0001:00004108       x64_interrupt_handler_207  ffffc00000005108     x86_64_intrs.obj
 0001:00004158       x64_interrupt_handler_208  ffffc00000005158     x86_64_intrs.obj
 0001:000041a8       x64_interrupt_handler_209  ffffc000000051a8     x86_64_intrs.obj
 0001:000041f8       x64_interrupt_handler_210  ffffc000000051f8     x86_64_intrs.obj
 0001:00004248       x64_interrupt_handler_211  ffffc00000005248     x86_64_intrs.obj
 0001:00004298       x64_interrupt_handler_212  ffffc00000005298     x86_64_intrs.obj
 0001:000042e8       x64_interrupt_handler_213  ffffc000000052e8     x86_64_intrs.obj
 0001:00004338       x64_interrupt_handler_214  ffffc00000005338     x86_64_intrs.obj
 0001:00004388       x64_interrupt_handler_215  ffffc00000005388     x86_64_intrs.obj
 0001:000043d8       x64_interrupt_handler_216  ffffc000000053d8     x86_64_intrs.obj
 0001:00004428       x64_interrupt_handler_217  ffffc00000005428     x86_64_intrs.obj
 0001:00004478       x64_interrupt_handler_218  ffffc00000005478     x86_64_intrs.obj
 0001:000044c8       x64_interrupt_handler_219  ffffc000000054c8     x86_64_intrs.obj
 0001:00004518       x64_interrupt_handler_220  ffffc00000005518     x86_64_intrs.obj
 0001:00004568       x64_interrupt_handler_221  ffffc00000005568     x86_64_intrs.obj
 0001:000045b8       x64_interrupt_handler_222  ffffc000000055b8     x86_64_intrs.obj
 0001:00004608       x64_interrupt_handler_223  ffffc00000005608     x86_64_intrs.obj
 0001:00004658       x64_interrupt_handler_224  ffffc00000005658     x86_64_intrs.obj
 0001:000046a8       x64_interrupt_handler_225  ffffc000000056a8     x86_64_intrs.obj
 0001:000046f8       x64_interrupt_handler_226  ffffc000000056f8     x86_64_intrs.obj
 0001:00004748       x64_interrupt_handler_227  ffffc00000005748     x86_64_intrs.obj
 0001:00004798       x64_interrupt_handler_228  ffffc00000005798     x86_64_intrs.obj
 0001:000047e8       x64_interrupt_handler_229  ffffc000000057e8     x86_64_intrs.obj
 0001:00004838       x64_interrupt_handler_230  ffffc00000005838     x86_64_intrs.obj
 0001:00004888       x64_interrupt_handler_231  ffffc00000005888     x86_64_intrs.obj
 0001:000048d8       x64_interrupt_handler_232  ffffc000000058d8     x86_64_intrs.obj
 0001:00004928       x64_interrupt_handler_233  ffffc00000005928     x86_64_intrs.obj
 0001:00004978       x64_interrupt_handler_234  ffffc00000005978     x86_64_intrs.obj
 0001:000049c8       x64_interrupt_handler_235  ffffc000000059c8     x86_64_intrs.obj
 0001:00004a18       x64_interrupt_handler_236  ffffc00000005a18     x86_64_intrs.obj
 0001:00004a68       x64_interrupt_handler_237  ffffc00000005a68     x86_64_intrs.obj
 0001:00004ab8       x64_interrupt_handler_238  ffffc00000005ab8     x86_64_intrs.obj
 0001:00004b08       x64_interrupt_handler_239  ffffc00000005b08     x86_64_intrs.obj
 0001:00004b58       x64_interrupt_handler_240  ffffc00000005b58     x86_64_intrs.obj
 0001:00004ba8       x64_interrupt_handler_241  ffffc00000005ba8     x86_64_intrs.obj
 0001:00004bf8       x64_interrupt_handler_242  ffffc00000005bf8     x86_64_intrs.obj
 0001:00004c48       x64_interrupt_handler_243  ffffc00000005c48     x86_64_intrs.obj
 0001:00004c98       x64_interrupt_handler_244  ffffc00000005c98     x86_64_intrs.obj
 0001:00004ce8       x64_interrupt_handler_245  ffffc00000005ce8     x86_64_intrs.obj
 0001:00004d38       x64_interrupt_handler_246  ffffc00000005d38     x86_64_intrs.obj
 0001:00004d88       x64_interrupt_handler_247  ffffc00000005d88     x86_64_intrs.obj
 0001:00004dd8       x64_interrupt_handler_248  ffffc00000005dd8     x86_64_intrs.obj
 0001:00004e28       x64_interrupt_handler_249  ffffc00000005e28     x86_64_intrs.obj
 0001:00004e78       x64_interrupt_handler_250  ffffc00000005e78     x86_64_intrs.obj
 0001:00004ec8       x64_interrupt_handler_251  ffffc00000005ec8     x86_64_intrs.obj
 0001:00004f18       x64_interrupt_handler_252  ffffc00000005f18     x86_64_intrs.obj
 0001:00004f68       x64_interrupt_handler_253  ffffc00000005f68     x86_64_intrs.obj
 0001:00004fb8       x64_interrupt_handler_254  ffffc00000005fb8     x86_64_intrs.obj
 0001:00005008       x64_interrupt_handler_255  ffffc00000006008     x86_64_intrs.obj
 0001:00005060       __chkstk                   ffffc00000006060     x86_64_lowlevel.obj
 0001:00005061       x64_inportb                ffffc00000006061     x86_64_lowlevel.obj
 0001:00005066       x64_inportw                ffffc00000006066     x86_64_lowlevel.obj
 0001:0000506c       x64_inportd                ffffc0000000606c     x86_64_lowlevel.obj
 0001:00005071       x64_outportb               ffffc00000006071     x86_64_lowlevel.obj
 0001:00005078       x64_outportw               ffffc00000006078     x86_64_lowlevel.obj
 0001:00005081       x64_outportd               ffffc00000006081     x86_64_lowlevel.obj
 0001:00005088       x64_read_msr               ffffc00000006088     x86_64_lowlevel.obj
 0001:00005092       x64_write_msr              ffffc00000006092     x86_64_lowlevel.obj
 0001:0000509c       x64_pause                  ffffc0000000609c     x86_64_lowlevel.obj
 0001:0000509f       x64_fs_readb               ffffc0000000609f     x86_64_lowlevel.obj
 0001:000050a6       x64_fs_readw               ffffc000000060a6     x86_64_lowlevel.obj
 0001:000050ae       x64_fs_readd               ffffc000000060ae     x86_64_lowlevel.obj
 0001:000050b5       x64_fs_readq               ffffc000000060b5     x86_64_lowlevel.obj
 0001:000050ba       x64_fs_writeb              ffffc000000060ba     x86_64_lowlevel.obj
 0001:000050be       x64_fs_writew              ffffc000000060be     x86_64_lowlevel.obj
 0001:000050c3       x64_fs_writed              ffffc000000060c3     x86_64_lowlevel.obj
 0001:000050c7       x64_fs_writeq              ffffc000000060c7     x86_64_lowlevel.obj
 0001:000050cc       x64_gs_readb               ffffc000000060cc     x86_64_lowlevel.obj
 0001:000050d3       x64_gs_readw               ffffc000000060d3     x86_64_lowlevel.obj
 0001:000050db       x64_gs_readd               ffffc000000060db     x86_64_lowlevel.obj
 0001:000050e2       x64_gs_readq               ffffc000000060e2     x86_64_lowlevel.obj
 0001:000050e7       x64_gs_writeb              ffffc000000060e7     x86_64_lowlevel.obj
 0001:000050eb       x64_gs_writew              ffffc000000060eb     x86_64_lowlevel.obj
 0001:000050f0       x64_gs_writed              ffffc000000060f0     x86_64_lowlevel.obj
 0001:000050f4       x64_gs_writeq              ffffc000000060f4     x86_64_lowlevel.obj
 0001:000050f9       x64_read_cr0               ffffc000000060f9     x86_64_lowlevel.obj
 0001:000050fd       x64_write_cr0              ffffc000000060fd     x86_64_lowlevel.obj
 0001:00005101       x64_read_cr2               ffffc00000006101     x86_64_lowlevel.obj
 0001:00005105       x64_read_cr3               ffffc00000006105     x86_64_lowlevel.obj
 0001:00005109       x64_read_cr4               ffffc00000006109     x86_64_lowlevel.obj
 0001:0000510d       x64_write_cr3              ffffc0000000610d     x86_64_lowlevel.obj
 0001:00005111       x64_write_cr4              ffffc00000006111     x86_64_lowlevel.obj
 0001:00005115       x64_get_segment_register   ffffc00000006115     x86_64_lowlevel.obj
 0001:00005157       x64_set_segment_register   ffffc00000006157     x86_64_lowlevel.obj
 0001:00005196       x64_cli                    ffffc00000006196     x86_64_lowlevel.obj
 0001:00005198       x64_sti                    ffffc00000006198     x86_64_lowlevel.obj
 0001:0000519a       x64_sgdt                   ffffc0000000619a     x86_64_lowlevel.obj
 0001:0000519e       x64_lgdt                   ffffc0000000619e     x86_64_lowlevel.obj
 0001:000051a2       x64_sidt                   ffffc000000061a2     x86_64_lowlevel.obj
 0001:000051a6       x64_lidt                   ffffc000000061a6     x86_64_lowlevel.obj
 0001:000051aa       x64_syscall_test           ffffc000000061aa     x86_64_lowlevel.obj
 0001:000051b3       x86_64_idt_test            ffffc000000061b3     x86_64_lowlevel.obj
 0001:000051b6       x64_ltr                    ffffc000000061b6     x86_64_lowlevel.obj
 0001:000051bd       x64_mfence                 ffffc000000061bd     x86_64_lowlevel.obj
 0001:000051c1       x64_cpuid                  ffffc000000061c1     x86_64_lowlevel.obj
 0001:000051e5       flush_tlb                  ffffc000000061e5     x86_64_lowlevel.obj
 0001:000051e9       cache_flush                ffffc000000061e9     x86_64_lowlevel.obj
 0001:000051ec       x64_hlt                    ffffc000000061ec     x86_64_lowlevel.obj
 0001:000051ee       x64_atom_exchange          ffffc000000061ee     x86_64_lowlevel.obj
 0001:000051f3       x64_sse_test               ffffc000000061f3     x86_64_lowlevel.obj
 0001:000051fc       x64_fxsave                 ffffc000000061fc     x86_64_lowlevel.obj
 0001:00005208       x64_fxrstor                ffffc00000006208     x86_64_lowlevel.obj
 0001:00005214       x64_set_kstack             ffffc00000006214     x86_64_lowlevel.obj
 0001:00005219       x64_get_kstack             ffffc00000006219     x86_64_lowlevel.obj
 0001:0000521e       x64_rdtsc                  ffffc0000000621e     x86_64_lowlevel.obj
 0001:00005228       x64_ldmxcsr                ffffc00000006228     x86_64_lowlevel.obj
 0001:0000522c       x64_stmxcsr                ffffc0000000622c     x86_64_lowlevel.obj
 0001:00005230       x64_set_rsp                ffffc00000006230     x86_64_lowlevel.obj
 0001:00005234       x64_enter_user             ffffc00000006234     x86_64_lowlevel.obj
 0001:00005247       x64_lock_test              ffffc00000006247     x86_64_lowlevel.obj
 0001:0000525d       x64_set_rbp                ffffc0000000625d     x86_64_lowlevel.obj
 0001:00005261       x64_get_rbp                ffffc00000006261     x86_64_lowlevel.obj
 0001:00005270       save_context               ffffc00000006270     x86_64_switch.obj
 0001:000052b0       execute_idle               ffffc000000062b0     x86_64_switch.obj
 0001:0000531c       x64_get_rsp                ffffc0000000631c     x86_64_switch.obj
 0001:00005320       syscall_entry              ffffc00000006320     x86_64_switch.obj
 0001:0000539b       x64_syscall_entry_compat   ffffc0000000639b     x86_64_switch.obj
 0001:000053b1       x64_force_sched            ffffc000000063b1     x86_64_switch.obj
 0001:000053b4       SigRet                     ffffc000000063b4     x86_64_switch.obj
 0001:000053c0       _fastcpy                   ffffc000000063c0     __fstcpy.obj
 0001:000053e0       ?hashmap_int_comp@@YAHPEBX0@Z ffffc000000063e0 f   hashmap.obj
 0001:00005430       ?hashmap_int_dupe@@YAPEAXPEBX@Z ffffc00000006430 f   hashmap.obj
 0001:00005490       ?hashmap_int_hash@@YAIPEBX@Z ffffc00000006490 f   hashmap.obj
 0001:000054c0       ?hashmap_string_comp@@YAHPEBX0@Z ffffc000000064c0 f   hashmap.obj
 0001:00005510       ?hashmap_string_dupe@@YAPEAXPEBX@Z ffffc00000006510 f   hashmap.obj
 0001:00005540       ?hashmap_string_hash@@YAIPEBX@Z ffffc00000006540 f   hashmap.obj
 0001:000055c0       AuHashmapCreate            ffffc000000065c0 f   hashmap.obj
 0001:00005680       AuHashmapCreateInt         ffffc00000006680 f   hashmap.obj
 0001:00005740       AuHashmapFree              ffffc00000006740 f   hashmap.obj
 0001:000057e0       AuHashmapGet               ffffc000000067e0 f   hashmap.obj
 0001:00005880       AuHashmapHas               ffffc00000006880 f   hashmap.obj
 0001:00005920       AuHashmapIsEmpty           ffffc00000006920 f   hashmap.obj
 0001:00005980       AuHashmapRemove            ffffc00000006980 f   hashmap.obj
 0001:00005b00       AuHashmapSet               ffffc00000006b00 f   hashmap.obj
 0001:00005c90       __JustMyCode_Default       ffffc00000006c90 f i hashmap.obj
 0001:00005c90       __CheckForDebuggerJustMyCode ffffc00000006c90 f i hashmap.obj
 0001:00005ca0       ?AHCIInterruptHandler@@YAX_KPEAX@Z ffffc00000006ca0 f   ahci.obj
 0001:00005d70       ?AuAHCICheckType@@YAHPEAU_hba_port_@@@Z ffffc00000006d70 f   ahci.obj
 0001:00005e10       ?AuAHCIInitialise@@YAXXZ   ffffc00000006e10 f   ahci.obj
 0001:000061e0       ?AuAHCIDiskFindSlot@@YAIPEAU_hba_port_@@@Z ffffc000000071e0 f   ahcidsk.obj
 0001:00006250       ?AuAHCIDiskIdentify@@YAXPEAU_hba_port_@@_KIPEA_K@Z ffffc00000007250 f   ahcidsk.obj
 0001:00006640       ?AuAHCIDiskInitialise@@YAXPEAU_hba_port_@@@Z ffffc00000007640 f   ahcidsk.obj
 0001:000069f0       ?AuAHCIDiskRead@@YAXPEAU_hba_port_@@_KIPEA_K@Z ffffc000000079f0 f   ahcidsk.obj
 0001:00006ce0       ?AuAHCIDiskWrite@@YAXPEAU_hba_port_@@_KIPEA_K@Z ffffc00000007ce0 f   ahcidsk.obj
 0001:00006fe0       ?AuAHCIStartCmd@@YAXPEAU_hba_port_@@@Z ffffc00000007fe0 f   ahcidsk.obj
 0001:00007040       ?AuAHCIStopCmd@@YAXPEAU_hba_port_@@@Z ffffc00000008040 f   ahcidsk.obj
 0001:000070c0       ?AuAHCIVDiskRead@@YAHPEAU_VDISK_@@_KIPEA_K@Z ffffc000000080c0 f   ahcidsk.obj
 0001:00007120       ?AuAHCIVDiskWrite@@YAHPEAU_VDISK_@@_KIPEA_K@Z ffffc00000008120 f   ahcidsk.obj
 0001:00007180       ?AuConsoleEarlyEnable@@YAX_N@Z ffffc00000008180 f   aucon.obj
 0001:000071b0       ?AuConsoleInitialize@@YAXPEAU_KERNEL_BOOT_INFO_@@_N@Z ffffc000000081b0 f   aucon.obj
 0001:00007210       ?AuConsoleIoControl@@YAHPEAU__VFS_NODE__@@HPEAX@Z ffffc00000008210 f   aucon.obj
 0001:00007370       ?AuConsolePostInitialise@@YAXPEAU_KERNEL_BOOT_INFO_@@@Z ffffc00000008370 f   aucon.obj
 0001:00007640       ?AuPutC@@YAXD@Z            ffffc00000008640 f   aucon.obj
 0001:00007850       ?AuPutS@@YAXPEAD@Z         ffffc00000008850 f   aucon.obj
 0001:00007ac0       AuTextOut                  ffffc00000008ac0 f   aucon.obj
 0001:00007e40       ??$raw_offset@PEAU_IMAGE_NT_HEADERS_PE32PLUS@@PEAU_IMAGE_DOS_HEADER_@@@@YAPEAU_IMAGE_NT_HEADERS_PE32PLUS@@PEAU_IMAGE_DOS_HEADER_@@H@Z ffffc00000008e40 f i audrv.obj
 0001:00007e80       ?AuCreateDriverInstance@@YAXPEAD@Z ffffc00000008e80 f   audrv.obj
 0001:00007f00       ?AuDecreaseDriverCount@@YAXXZ ffffc00000008f00 f   audrv.obj
 0001:00007f30       ?AuDriverLoad@@YAXPEADPEAU_aurora_driver_@@@Z ffffc00000008f30 f   audrv.obj
 0001:00008160       ?AuDrvMngrInitialize@@YAXPEAU_KERNEL_BOOT_INFO_@@@Z ffffc00000009160 f   audrv.obj
 0001:00008420       ?AuGetConfEntry@@YAPEADIIPEAEH@Z ffffc00000009420 f   audrv.obj
 0001:00008640       ?AuGetDriverName@@YAXIIPEAEH@Z ffffc00000009640 f   audrv.obj
 0001:00008750       ?AuIncreaseDriverCount@@YAXXZ ffffc00000009750 f   audrv.obj
 0001:00008780       ?AuRequestDriverId@@YAIXZ  ffffc00000009780 f   audrv.obj
 0001:000087c0       AuCheckDevice              ffffc000000097c0 f   audrv.obj
 0001:00008860       AuRegisterDevice           ffffc00000009860 f   audrv.obj
 0001:000088b0       ?AuTimerCreate@@YAXGHE@Z   ffffc000000098b0 f   autimer.obj
 0001:00008930       ?AuTimerDataInitialise@@YAXXZ ffffc00000009930 f   autimer.obj
 0001:00008970       ?AuTimerDelete@@YAXPEAU_timer_@@@Z ffffc00000009970 f   autimer.obj
 0001:00008a10       ?AuTimerDestroy@@YAXG@Z    ffffc00000009a10 f   autimer.obj
 0001:00008a70       ?AuTimerFire@@YAXHHH@Z     ffffc00000009a70 f   autimer.obj
 0001:00008c30       ?AuTimerInsert@@YAXPEAU_timer_@@@Z ffffc00000009c30 f   autimer.obj
 0001:00008cc0       ?AuTimerPostMessage@@YAXPEAU_timer_@@@Z ffffc00000009cc0 f   autimer.obj
 0001:00008d30       ?AuTimerStart@@YAXG@Z      ffffc00000009d30 f   autimer.obj
 0001:00008d90       ?AuTimerStop@@YAXG@Z       ffffc00000009d90 f   autimer.obj
 0001:00008df0       ?AuAdvancePointer@@YAXPEAU_circ_buf_@@@Z ffffc00000009df0 f   circbuf.obj
 0001:00008e90       ?AuCircBufCapacity@@YA_KPEAU_circ_buf_@@@Z ffffc00000009e90 f   circbuf.obj
 0001:00008ec0       ?AuCircBufFree@@YAXPEAU_circ_buf_@@@Z ffffc00000009ec0 f   circbuf.obj
 0001:00008ef0       ?AuCircBufGet@@YAHPEAU_circ_buf_@@PEAE@Z ffffc00000009ef0 f   circbuf.obj
 0001:00008f60       ?AuCircBufInitialise@@YAPEAU_circ_buf_@@PEAE_K@Z ffffc00000009f60 f   circbuf.obj
 0001:00008fc0       ?AuCircBufPut@@YAHPEAU_circ_buf_@@E@Z ffffc00000009fc0 f   circbuf.obj
 0001:00009030       ?AuCircBufPutData@@YAXPEAU_circ_buf_@@E@Z ffffc0000000a030 f   circbuf.obj
 0001:00009080       ?AuCircBufReset@@YAXPEAU_circ_buf_@@@Z ffffc0000000a080 f   circbuf.obj
 0001:000090d0       ?AuCircBufSize@@YA_KPEAU_circ_buf_@@@Z ffffc0000000a0d0 f   circbuf.obj
 0001:00009160       ?AuRetreatPointer@@YAXPEAU_circ_buf_@@@Z ffffc0000000a160 f   circbuf.obj
 0001:000091b0       ?CircBufEmpty@@YA_NPEAU_circ_buf_@@@Z ffffc0000000a1b0 f   circbuf.obj
 0001:00009210       ?CircBufFull@@YA_NPEAU_circ_buf_@@@Z ffffc0000000a210 f   circbuf.obj
 0001:00009240       ?AuProcessClean@@YAXPEAU_au_proc_@@0@Z ffffc0000000a240 f   clean.obj
 0001:00009550       ?AuThreadFree@@YAXPEAU_au_proc_@@PEAU_au_thread_@@@Z ffffc0000000a550 f   clean.obj
 0001:00009670       ?FreeImage@@YAXPEAU_au_proc_@@@Z ffffc0000000a670 f   clean.obj
 0001:00009750       ?FreeUserStack@@YAXPEA_KPEAX@Z ffffc0000000a750 f   clean.obj
 0001:000097e0       isalpha                    ffffc0000000a7e0 f   ctype.obj
 0001:00009830       isascii                    ffffc0000000a830 f   ctype.obj
 0001:00009870       isdigit                    ffffc0000000a870 f   ctype.obj
 0001:000098b0       islower                    ffffc0000000a8b0 f   ctype.obj
 0001:000098f0       isprint                    ffffc0000000a8f0 f   ctype.obj
 0001:00009930       isspace                    ffffc0000000a930 f   ctype.obj
 0001:00009980       isupper                    ffffc0000000a980 f   ctype.obj
 0001:000099c0       isxdigit                   ffffc0000000a9c0 f   ctype.obj
 0001:00009a20       toascii                    ffffc0000000aa20 f   ctype.obj
 0001:00009a50       tolower                    ffffc0000000aa50 f   ctype.obj
 0001:00009aa0       toupper                    ffffc0000000aaa0 f   ctype.obj
 0001:00009af0       ?AuPS2MouseInitialise@@YAXXZ ffffc0000000aaf0 f   mouse.obj
 0001:00009c50       ?AuPS2MouseRead@@YAEXZ     ffffc0000000ac50 f   mouse.obj
 0001:00009c80       ?AuPS2MouseSetPos@@YAXHH@Z ffffc0000000ac80 f   mouse.obj
 0001:00009cd0       ?AuPS2MouseWrite@@YAEE@Z   ffffc0000000acd0 f   mouse.obj
 0001:00009d20       ?PS2MouseHandler@@YAX_KPEAX@Z ffffc0000000ad20 f   mouse.obj
 0001:0000a200       ?PS2MouseWaitInput@@YAXXZ  ffffc0000000b200 f   mouse.obj
 0001:0000a250       ?PS2MouseWaitOutput@@YAXXZ ffffc0000000b250 f   mouse.obj
 0001:0000a2a0       AuPS2DisableMouse          ffffc0000000b2a0 f   mouse.obj
 0001:0000a2e0       ?AuPS2KybrdHandler@@YAX_KPEAX@Z ffffc0000000b2e0 f   ps2kybrd.obj
 0001:0000a360       ?AuPS2KybrdInitialize@@YAXXZ ffffc0000000b360 f   ps2kybrd.obj
 0001:0000a3e0       ?AuRTCClockUpdate@@YAX_KPEAX@Z ffffc0000000b3e0 f   rtc.obj
 0001:0000a480       ?AuRTCGetRegister@@YAEH@Z  ffffc0000000b480 f   rtc.obj
 0001:0000a4c0       ?AuRTCInitialize@@YAXXZ    ffffc0000000b4c0 f   rtc.obj
 0001:0000a5a0       ?AuRTCIsUpdating@@YAHXZ    ffffc0000000b5a0 f   rtc.obj
 0001:0000a5e0       ?AuRTCReadDateTime@@YAXXZ  ffffc0000000b5e0 f   rtc.obj
 0001:0000a820       ?AuRTCSetRegister@@YAXGE@Z ffffc0000000b820 f   rtc.obj
 0001:0000a860       AuRTCGetCentury            ffffc0000000b860 f   rtc.obj
 0001:0000a890       AuRTCGetDay                ffffc0000000b890 f   rtc.obj
 0001:0000a8c0       AuRTCGetHour               ffffc0000000b8c0 f   rtc.obj
 0001:0000a8f0       AuRTCGetMinutes            ffffc0000000b8f0 f   rtc.obj
 0001:0000a920       AuRTCGetMonth              ffffc0000000b920 f   rtc.obj
 0001:0000a950       AuRTCGetSecond             ffffc0000000b950 f   rtc.obj
 0001:0000a980       AuRTCGetYear               ffffc0000000b980 f   rtc.obj
 0001:0000a9b0       ?AuDevFSCreateFile@@YAHPEAU__VFS_NODE__@@PEADE@Z ffffc0000000b9b0 f   devfs.obj
 0001:0000abd0       ?AuDevFSList@@YAXPEAU__VFS_NODE__@@@Z ffffc0000000bbd0 f   devfs.obj
 0001:0000acf0       ?AuDevFSListDir@@YAXPEAU__VFS_NODE__@@0@Z ffffc0000000bcf0 f   devfs.obj
 0001:0000ade0       ?AuDevFSOpen@@YAPEAU__VFS_NODE__@@PEAU1@PEAD@Z ffffc0000000bde0 f   devfs.obj
 0001:0000af80       ?AuDeviceFsInitialize@@YAXXZ ffffc0000000bf80 f   devfs.obj
 0001:0000b030       AuDevFSAddFile             ffffc0000000c030 f   devfs.obj
 0001:0000b1c0       AuDevFSRemoveFile          ffffc0000000c1c0 f   devfs.obj
 0001:0000b3d0       ?AuDevInputInitialise@@YAXXZ ffffc0000000c3d0 f   devinput.obj
 0001:0000b5a0       ?AuDevInputKybrdRead@@YA_KPEAU__VFS_NODE__@@0PEA_KI@Z ffffc0000000c5a0 f   devinput.obj
 0001:0000b620       ?AuDevInputKybrdWrite@@YA_KPEAU__VFS_NODE__@@0PEA_KI@Z ffffc0000000c620 f   devinput.obj
 0001:0000b690       ?AuDevInputMiceRead@@YA_KPEAU__VFS_NODE__@@0PEA_KI@Z ffffc0000000c690 f   devinput.obj
 0001:0000b710       ?AuDevInputMiceWrite@@YA_KPEAU__VFS_NODE__@@0PEA_KI@Z ffffc0000000c710 f   devinput.obj
 0001:0000b780       ?AuDevMouseIoControl@@YAHPEAU__VFS_NODE__@@HPEAX@Z ffffc0000000c780 f   devinput.obj
 0001:0000b810       AuDevReadKybrd             ffffc0000000c810 f   devinput.obj
 0001:0000b870       AuDevReadMice              ffffc0000000c870 f   devinput.obj
 0001:0000b8d0       AuDevWriteKybrd            ffffc0000000c8d0 f   devinput.obj
 0001:0000b920       AuDevWriteMice             ffffc0000000c920 f   devinput.obj
 0001:0000b970       ?FatAllocCluster@@YAXPEAU__VFS_NODE__@@HI@Z ffffc0000000c970 f   Fat.obj
 0001:0000bae0       ?FatCalculateCheckSum@@YAEPEAE@Z ffffc0000000cae0 f   Fat.obj
 0001:0000bb70       ?FatClearCluster@@YAXPEAU__VFS_NODE__@@I@Z ffffc0000000cb70 f   Fat.obj
 0001:0000bc20       ?FatClusterToSector32@@YA_KPEAU_FatFS_@@_K@Z ffffc0000000cc20 f   Fat.obj
 0001:0000bc70       ?FatFindFreeCluster@@YAIPEAU__VFS_NODE__@@@Z ffffc0000000cc70 f   Fat.obj
 0001:0000bdc0       ?FatFormatDate@@YAGXZ      ffffc0000000cdc0 f   Fat.obj
 0001:0000be20       ?FatFormatTime@@YAGXZ      ffffc0000000ce20 f   Fat.obj
 0001:0000be80       ?FatFromDosToFilename@@YAXPEAD0@Z ffffc0000000ce80 f   Fat.obj
 0001:0000bfb0       ?FatGetClusterFor@@YA_KPEAU__VFS_NODE__@@0_K@Z ffffc0000000cfb0 f   Fat.obj
 0001:0000c040       ?FatInitialise@@YAPEAU__VFS_NODE__@@PEAU_VDISK_@@PEAD@Z ffffc0000000d040 f   Fat.obj
 0001:0000c480       ?FatLocateDir@@YAPEAU__VFS_NODE__@@PEAU1@PEBD@Z ffffc0000000d480 f   Fat.obj
 0001:0000c720       ?FatLocateSubDir@@YAPEAU__VFS_NODE__@@PEAU1@0PEBD@Z ffffc0000000d720 f   Fat.obj
 0001:0000c9b0       ?FatOpen@@YAPEAU__VFS_NODE__@@PEAU1@PEAD@Z ffffc0000000d9b0 f   Fat.obj
 0001:0000cb70       ?FatRead@@YA_KPEAU__VFS_NODE__@@0PEA_K@Z ffffc0000000db70 f   Fat.obj
 0001:0000cc90       ?FatReadFAT@@YAIPEAU__VFS_NODE__@@_K@Z ffffc0000000dc90 f   Fat.obj
 0001:0000cdc0       ?FatReadFile@@YA_KPEAU__VFS_NODE__@@0PEA_KI@Z ffffc0000000ddc0 f   Fat.obj
 0001:0000cf50       ?FatToDOSFilename@@YAXPEBDPEADI@Z ffffc0000000df50 f   Fat.obj
 0001:0000d0c0       ?FatCreateDir@@YAPEAU__VFS_NODE__@@PEAU1@PEAD@Z ffffc0000000e0c0 f   FatDir.obj
 0001:0000d7d0       ?FatDirectoryRead@@YAHPEAU__VFS_NODE__@@0PEAU_AuDirectoryEnty_@@@Z ffffc0000000e7d0 f   FatDir.obj
 0001:0000dbf0       ?FatOpenDir@@YAPEAU__VFS_NODE__@@PEAU1@PEAD@Z ffffc0000000ebf0 f   FatDir.obj
 0001:0000dd90       ?FatRemoveDir@@YAHPEAU__VFS_NODE__@@0@Z ffffc0000000ed90 f   FatDir.obj
 0001:0000df90       ?FatCreateFile@@YAPEAU__VFS_NODE__@@PEAU1@PEAD@Z ffffc0000000ef90 f   FatFile.obj
 0001:0000e430       ?FatFileClearDirEntry@@YAHPEAU__VFS_NODE__@@0@Z ffffc0000000f430 f   FatFile.obj
 0001:0000e6a0       ?FatFileGetParent@@YAPEAU__VFS_NODE__@@PEAU1@PEBD@Z ffffc0000000f6a0 f   FatFile.obj
 0001:0000e880       ?FatFileRemove@@YAHPEAU__VFS_NODE__@@0@Z ffffc0000000f880 f   FatFile.obj
 0001:0000e960       ?FatFileUpdateFilename@@YAHPEAU__VFS_NODE__@@0PEAD@Z ffffc0000000f960 f   FatFile.obj
 0001:0000ebf0       ?FatFileUpdateSize@@YAXPEAU__VFS_NODE__@@0_K@Z ffffc0000000fbf0 f   FatFile.obj
 0001:0000ee30       ?FatFileWriteContent@@YAXPEAU__VFS_NODE__@@0PEA_K@Z ffffc0000000fe30 f   FatFile.obj
 0001:0000f040       ?FatFileWriteDone@@YAXPEAU__VFS_NODE__@@@Z ffffc00000010040 f   FatFile.obj
 0001:0000f090       ?FatWrite@@YA_KPEAU__VFS_NODE__@@0PEA_KI@Z ffffc00000010090 f   FatFile.obj
 0001:0000f1c0       ?AuCreatePipe@@YAHPEAD_K@Z ffffc000000101c0 f   pipe.obj
 0001:0000f3d0       ?AuPipeClose@@YAHPEAU__VFS_NODE__@@0@Z ffffc000000103d0 f   pipe.obj
 0001:0000f490       ?AuPipeFSAddFile@@YAHPEAU__VFS_NODE__@@PEAD0@Z ffffc00000010490 f   pipe.obj
 0001:0000f620       ?AuPipeFSInitialise@@YAXXZ ffffc00000010620 f   pipe.obj
 0001:0000f6d0       ?AuPipeFSOpen@@YAPEAU__VFS_NODE__@@PEAU1@PEAD@Z ffffc000000106d0 f   pipe.obj
 0001:0000f870       ?AuPipeFSRemoveFile@@YAHPEAU__VFS_NODE__@@PEAD@Z ffffc00000010870 f   pipe.obj
 0001:0000fa80       ?AuPipeGetAvailableBytes@@YA_KPEAU_pipe_@@@Z ffffc00000010a80 f   pipe.obj
 0001:0000fb10       ?AuPipeIncrementRead@@YAXPEAU_pipe_@@@Z ffffc00000010b10 f   pipe.obj
 0001:0000fb70       ?AuPipeIncrementWrite@@YAXPEAU_pipe_@@@Z ffffc00000010b70 f   pipe.obj
 0001:0000fbd0       ?AuPipeIncrementWriteAmount@@YAXPEAU_pipe_@@_K@Z ffffc00000010bd0 f   pipe.obj
 0001:0000fc20       ?AuPipeOpen@@YAPEAU__VFS_NODE__@@PEAU1@PEAD@Z ffffc00000010c20 f   pipe.obj
 0001:0000fc80       ?AuPipeRead@@YA_KPEAU__VFS_NODE__@@0PEA_KI@Z ffffc00000010c80 f   pipe.obj
 0001:0000fd50       ?AuPipeUnread@@YA_KPEAU_pipe_@@@Z ffffc00000010d50 f   pipe.obj
 0001:0000fdd0       ?AuPipeWrite@@YA_KPEAU__VFS_NODE__@@0PEA_KI@Z ffffc00000010dd0 f   pipe.obj
 0001:0000fea0       ?AuTTYCreate@@YAHPEAH0@Z   ffffc00000010ea0 f   tty.obj
 0001:000100b0       ?AuTTYCreateMaster@@YAPEAU__VFS_NODE__@@PEAU__tty__@@@Z ffffc000000110b0 f   tty.obj
 0001:000101e0       ?AuTTYCreateSlave@@YAPEAU__VFS_NODE__@@PEAU__tty__@@@Z ffffc000000111e0 f   tty.obj
 0001:00010310       ?AuTTYDelete@@YAXPEAU__tty__@@@Z ffffc00000011310 f   tty.obj
 0001:000103b0       ?AuTTYInitialise@@YAXXZ    ffffc000000113b0 f   tty.obj
 0001:00010420       ?AuTTYInsert@@YAXPEAU__tty__@@@Z ffffc00000011420 f   tty.obj
 0001:000104b0       ?AuTTYIoControl@@YAHPEAU__VFS_NODE__@@HPEAX@Z ffffc000000114b0 f   tty.obj
 0001:00010610       ?AuTTYMasterClose@@YAHPEAU__VFS_NODE__@@0@Z ffffc00000011610 f   tty.obj
 0001:00010640       ?AuTTYMasterRead@@YA_KPEAU__VFS_NODE__@@0PEA_KI@Z ffffc00000011640 f   tty.obj
 0001:00010720       ?AuTTYMasterWrite@@YA_KPEAU__VFS_NODE__@@0PEA_KI@Z ffffc00000011720 f   tty.obj
 0001:000107c0       ?AuTTYProcessLine@@YAXPEAU__tty__@@E@Z ffffc000000117c0 f   tty.obj
 0001:00010950       ?AuTTYSlaveClose@@YAHPEAU__VFS_NODE__@@0@Z ffffc00000011950 f   tty.obj
 0001:00010990       ?AuTTYSlaveRead@@YA_KPEAU__VFS_NODE__@@0PEA_KI@Z ffffc00000011990 f   tty.obj
 0001:00010a30       ?AuTTYSlaveWrite@@YA_KPEAU__VFS_NODE__@@0PEA_KI@Z ffffc00000011a30 f   tty.obj
 0001:00010b20       ?AuTTYWriteMaster@@YAXPEAU__tty__@@E@Z ffffc00000011b20 f   tty.obj
 0001:00010b60       ?AuTTYWriteSlave@@YAXPEAU__tty__@@E@Z ffffc00000011b60 f   tty.obj
 0001:00010ba0       ?AuGetVDiskInfo@@YAHEPEAX@Z ffffc00000011ba0 f   vdisk.obj
 0001:00010c70       ?AuGetVDiskPartitionInfo@@YAHEEPEAX@Z ffffc00000011c70 f   vdisk.obj
 0001:00010e10       ?AuVDiskInitialise@@YAXXZ  ffffc00000011e10 f   vdisk.obj
 0001:00010e60       ?AuVDiskRegisterPartition@@YAXPEAU_VDISK_@@@Z ffffc00000011e60 f   vdisk.obj
 0001:000111d0       AuCreateVDisk              ffffc000000121d0 f   vdisk.obj
 0001:00011210       AuVDiskDestroy             ffffc00000012210 f   vdisk.obj
 0001:000112a0       AuVDiskGetIndex            ffffc000000122a0 f   vdisk.obj
 0001:000112f0       AuVDiskRead                ffffc000000122f0 f   vdisk.obj
 0001:00011360       AuVDiskRegister            ffffc00000012360 f   vdisk.obj
 0001:000113f0       AuVDiskWrite               ffffc000000123f0 f   vdisk.obj
 0001:00011460       ?AuVFSInitialise@@YAXXZ    ffffc00000012460 f   vfs.obj
 0001:000114c0       ?AuVFSRemoveDir@@YAHPEAU__VFS_NODE__@@0@Z ffffc000000124c0 f   vfs.obj
 0001:00011550       ?AuVFSRemoveFile@@YAHPEAU__VFS_NODE__@@0@Z ffffc00000012550 f   vfs.obj
 0001:00011600       AuVFSAddFileSystem         ffffc00000012600 f   vfs.obj
 0001:00011680       AuVFSCreateDir             ffffc00000012680 f   vfs.obj
 0001:000116e0       AuVFSCreateFile            ffffc000000126e0 f   vfs.obj
 0001:00011740       AuVFSFind                  ffffc00000012740 f   vfs.obj
 0001:00011870       AuVFSGetBlockFor           ffffc00000012870 f   vfs.obj
 0001:000118d0       AuVFSNodeClose             ffffc000000128d0 f   vfs.obj
 0001:00011920       AuVFSNodeIOControl         ffffc00000012920 f   vfs.obj
 0001:00011980       AuVFSNodeRead              ffffc00000012980 f   vfs.obj
 0001:000119f0       AuVFSNodeReadBlock         ffffc000000129f0 f   vfs.obj
 0001:00011a60       AuVFSNodeWrite             ffffc00000012a60 f   vfs.obj
 0001:00011ac0       AuVFSOpen                  ffffc00000012ac0 f   vfs.obj
 0001:00011c40       AuVFSRegisterRoot          ffffc00000012c40 f   vfs.obj
 0001:00011c80       AuVFSRemoveFileSystem      ffffc00000012c80 f   vfs.obj
 0001:00011d40       ?AuGPTInitialise_FileSystem@@YAXPEAU_VDISK_@@@Z ffffc00000012d40 f   _gpt.obj
 0001:00011e10       AuGUIDVerify               ffffc00000012e10 f   _gpt.obj
 0001:00011ed0       ?AuFTMngrGetFontID@@YAHPEAD@Z ffffc00000012ed0 f   ftmngr.obj
 0001:00011f60       ?AuFTMngrGetFontSize@@YAHPEAD@Z ffffc00000012f60 f   ftmngr.obj
 0001:00011fd0       ?AuFTMngrGetNumFonts@@YAHXZ ffffc00000012fd0 f   ftmngr.obj
 0001:00012000       ?FontManagerAddSegment@@YAXPEAU_font_seg_@@@Z ffffc00000013000 f   ftmngr.obj
 0001:00012090       ?FontManagerAllocateSegment@@YAPEAU_font_seg_@@PEAU__VFS_NODE__@@PEAD@Z ffffc00000013090 f   ftmngr.obj
 0001:00012170       ?FontManagerGetFontCount@@YAHPEAE@Z ffffc00000013170 f   ftmngr.obj
 0001:00012230       ?FontManagerGetKey@@YAGXZ  ffffc00000013230 f   ftmngr.obj
 0001:00012270       ?FontManagerInitialise@@YAXXZ ffffc00000013270 f   ftmngr.obj
 0001:000123e0       ?FontManagerIterateFontList@@YAXPEAE@Z ffffc000000133e0 f   ftmngr.obj
 0001:000125d0       ?FontManagerOpenFontFile@@YAPEAU__VFS_NODE__@@PEAD@Z ffffc000000135d0 f   ftmngr.obj
 0001:00012610       ?FontManagerRemoveSegment@@YAXPEAU_font_seg_@@@Z ffffc00000013610 f   ftmngr.obj
 0001:000126b0       AcpiOsAcquireGlobalLock    ffffc000000136b0 f   acpiosl.obj
 0001:000126e0       AcpiOsAcquireLock          ffffc000000136e0 f   acpiosl.obj
 0001:00012710       AcpiOsAcquireMutex         ffffc00000013710 f   acpiosl.obj
 0001:00012740       AcpiOsAllocate             ffffc00000013740 f   acpiosl.obj
 0001:00012770       AcpiOsCreateLock           ffffc00000013770 f   acpiosl.obj
 0001:000127c0       AcpiOsCreateMutex          ffffc000000137c0 f   acpiosl.obj
 0001:00012810       AcpiOsCreateSemaphore      ffffc00000013810 f   acpiosl.obj
 0001:00012840       AcpiOsDeleteLock           ffffc00000013840 f   acpiosl.obj
 0001:00012870       AcpiOsDeleteMutex          ffffc00000013870 f   acpiosl.obj
 0001:000128a0       AcpiOsDeleteSemaphore      ffffc000000138a0 f   acpiosl.obj
 0001:000128d0       AcpiOsEnterSleep           ffffc000000138d0 f   acpiosl.obj
 0001:00012900       AcpiOsExecute              ffffc00000013900 f   acpiosl.obj
 0001:00012940       AcpiOsFree                 ffffc00000013940 f   acpiosl.obj
 0001:00012980       AcpiOsGetPhysicalAddress   ffffc00000013980 f   acpiosl.obj
 0001:000129e0       AcpiOsGetRootPointer       ffffc000000139e0 f   acpiosl.obj
 0001:00012a10       AcpiOsGetThreadId          ffffc00000013a10 f   acpiosl.obj
 0001:00012a40       AcpiOsGetTimer             ffffc00000013a40 f   acpiosl.obj
 0001:00012a60       AcpiOsInitialize           ffffc00000013a60 f   acpiosl.obj
 0001:00012a80       AcpiOsInstallInterruptHandler ffffc00000013a80 f   acpiosl.obj
 0001:00012ab0       AcpiOsMapMemory            ffffc00000013ab0 f   acpiosl.obj
 0001:00012b90       AcpiOsPhysicalTableOverride ffffc00000013b90 f   acpiosl.obj
 0001:00012be0       AcpiOsPredefinedOverride   ffffc00000013be0 f   acpiosl.obj
 0001:00012c20       AcpiOsPrintf               ffffc00000013c20 f   acpiosl.obj
 0001:00012c70       AcpiOsReadMemory           ffffc00000013c70 f   acpiosl.obj
 0001:00012d10       AcpiOsReadPciConfiguration ffffc00000013d10 f   acpiosl.obj
 0001:00012db0       AcpiOsReadPort             ffffc00000013db0 f   acpiosl.obj
 0001:00012e20       AcpiOsReadable             ffffc00000013e20 f   acpiosl.obj
 0001:00012e50       AcpiOsReleaseGlobalLock    ffffc00000013e50 f   acpiosl.obj
 0001:00012e80       AcpiOsReleaseLock          ffffc00000013e80 f   acpiosl.obj
 0001:00012eb0       AcpiOsReleaseMutex         ffffc00000013eb0 f   acpiosl.obj
 0001:00012ee0       AcpiOsRemoveInterruptHandler ffffc00000013ee0 f   acpiosl.obj
 0001:00012f10       AcpiOsSignal               ffffc00000013f10 f   acpiosl.obj
 0001:00012f40       AcpiOsSignalSemaphore      ffffc00000013f40 f   acpiosl.obj
 0001:00012f70       AcpiOsSleep                ffffc00000013f70 f   acpiosl.obj
 0001:00012fb0       AcpiOsStall                ffffc00000013fb0 f   acpiosl.obj
 0001:00012ff0       AcpiOsTableOverride        ffffc00000013ff0 f   acpiosl.obj
 0001:00013030       AcpiOsTerminate            ffffc00000014030 f   acpiosl.obj
 0001:00013050       AcpiOsUnmapMemory          ffffc00000014050 f   acpiosl.obj
 0001:00013090       AcpiOsVprintf              ffffc00000014090 f   acpiosl.obj
 0001:000130c0       AcpiOsWaitEventsComplete   ffffc000000140c0 f   acpiosl.obj
 0001:000130e0       AcpiOsWaitSemaphore        ffffc000000140e0 f   acpiosl.obj
 0001:00013110       AcpiOsWritable             ffffc00000014110 f   acpiosl.obj
 0001:00013140       AcpiOsWriteMemory          ffffc00000014140 f   acpiosl.obj
 0001:000131e0       AcpiOsWritePciConfiguration ffffc000000141e0 f   acpiosl.obj
 0001:00013260       AcpiOsWritePort            ffffc00000014260 f   acpiosl.obj
 0001:000132d0       ??$raw_offset@PECIPEAX@@YAPECIPEAXH@Z ffffc000000142d0 f i apic.obj
 0001:00013310       ?APICLocalEOI@@YAXXZ       ffffc00000014310 f   apic.obj
 0001:00013340       ?APICSpuriousInterrupt@@YAX_KPEAX@Z ffffc00000014340 f   apic.obj
 0001:00013370       ?APICTimerSleep@@YAXI@Z    ffffc00000014370 f   apic.obj
 0001:000133b0       ?ApicTimerInterrupt@@YAX_KPEAX@Z ffffc000000143b0 f   apic.obj
 0001:00013400       ?AuAPICInitialise@@YAX_N@Z ffffc00000014400 f   apic.obj
 0001:00013600       ?IOWait@@YAXXZ             ffffc00000014600 f   apic.obj
 0001:00013640       ?ReadAPICRegister@@YA_KG@Z ffffc00000014640 f   apic.obj
 0001:00013710       ?WriteAPICRegister@@YAXG_K@Z ffffc00000014710 f   apic.obj
 0001:00013820       ?X2APICSupported@@YA_NXZ   ffffc00000014820 f   apic.obj
 0001:00013870       ??$raw_diff@U_acpi_apic_header_@@UacpiMadt@@@@YAHPEAU_acpi_apic_header_@@PEAUacpiMadt@@@Z ffffc00000014870 f i basicacpi.obj
 0001:000138a0       ??$raw_offset@PEAU_IMAGE_SECTION_HEADER@@PEAU_IMAGE_OPTIONAL_HEADER_PE32PLUS@@@@YAPEAU_IMAGE_SECTION_HEADER@@PEAU_IMAGE_OPTIONAL_HEADER_PE32PLUS@@H@Z ffffc000000148a0 f i basicacpi.obj
 0001:000138e0       ??$raw_offset@PEAU_acpi_apic_header_@@PEAU1@@@YAPEAU_acpi_apic_header_@@PEAU0@H@Z ffffc000000148e0 f i basicacpi.obj
 0001:00013920       ??$raw_offset@PEAXPEAE@@YAPEAXPEAEH@Z ffffc00000014920 f i basicacpi.obj
 0001:00013960       ?AuACPIEnable@@YAXXZ       ffffc00000014960 f   basicacpi.obj
 0001:00013a80       ?AuACPIGetMCFG@@YAPEAUacpiMcfg@@XZ ffffc00000014a80 f   basicacpi.obj
 0001:00013ab0       ?AuACPIGetRSDP@@YAPEAXXZ   ffffc00000014ab0 f   basicacpi.obj
 0001:00013ae0       ?AuACPIInitialise@@YAXPEAX@Z ffffc00000014ae0 f   basicacpi.obj
 0001:00013ee0       ?AuACPIPCIESupported@@YA_NXZ ffffc00000014ee0 f   basicacpi.obj
 0001:00013f10       ?AuACPIParseMADT@@YAXXZ    ffffc00000014f10 f   basicacpi.obj
 0001:00014040       ?AuACPIPowerButtonEnable@@YAXXZ ffffc00000015040 f   basicacpi.obj
 0001:00014070       ?AuFADTHandler@@YAX_KPEAX@Z ffffc00000015070 f   basicacpi.obj
 0001:000140c0       ?AuGetCPUCount@@YAEXZ      ffffc000000150c0 f   basicacpi.obj
 0001:000140f0       ?AuInitialiseACPISubsys@@YAXPEAU_KERNEL_BOOT_INFO_@@@Z ffffc000000150f0 f   basicacpi.obj
 0001:00014310       ?search_s5@@YAPEAEPEAUacpiDsdt@@@Z ffffc00000015310 f   basicacpi.obj
 0001:00014390       AuDisableInterrupt         ffffc00000015390 f   hal.obj
 0001:000143c0       AuEnableInterrupt          ffffc000000153c0 f   hal.obj
 0001:000143f0       AuGetTimeOfTheDay          ffffc000000153f0 f   hal.obj
 0001:00014420       AuHalFlushCache            ffffc00000015420 f   hal.obj
 0001:00014450       AuHalInitialise            ffffc00000015450 f   hal.obj
 0001:00014480       AuHalMaskIRQ               ffffc00000015480 f   hal.obj
 0001:000144d0       AuHalPostInitialise        ffffc000000154d0 f   hal.obj
 0001:00014500       AuHalRegisterIRQ           ffffc00000015500 f   hal.obj
 0001:00014560       AuInterruptEnd             ffffc00000015560 f   hal.obj
 0001:00014590       ?IOAPICInitialise@@YAXPEAX@Z ffffc00000015590 f   ioapic.obj
 0001:00014640       ?IOAPICMaskIRQ@@YAXE_N@Z   ffffc00000015640 f   ioapic.obj
 0001:000146c0       ?IOAPICRedirect@@YAXEIGE@Z ffffc000000156c0 f   ioapic.obj
 0001:00014780       ?IOAPICRegisterIRQ@@YAX_KP6AX0PEAX@ZE_N@Z ffffc00000015780 f   ioapic.obj
 0001:00014910       ?AuCreatePerCPU@@YAXPEAX@Z ffffc00000015910 f   pcpu.obj
 0001:00014990       ?AuGetPerCPU@@YAPEAU_cpu_@@E@Z ffffc00000015990 f   pcpu.obj
 0001:000149c0       ?AuPerCPUGetCpuID@@YAEXZ   ffffc000000159c0 f   pcpu.obj
 0001:000149f0       ?AuPerCPUGetCurrentThread@@YAPEAU_au_thread_@@XZ ffffc000000159f0 f   pcpu.obj
 0001:00014a20       ?AuPerCPUGetKernelTSS@@YAPEAU_tss@@XZ ffffc00000015a20 f   pcpu.obj
 0001:00014a50       ?AuPerCPUSetCpuID@@YAXE@Z  ffffc00000015a50 f   pcpu.obj
 0001:00014a80       ?AuPerCPUSetCurrentThread@@YAXPEAX@Z ffffc00000015a80 f   pcpu.obj
 0001:00014ab0       ?AuPerCPUSetKernelTSS@@YAXPEAU_tss@@@Z ffffc00000015ab0 f   pcpu.obj
 0001:00014ae0       ?AuInitialiseSerial@@YAXXZ ffffc00000015ae0 f   serial.obj
 0001:00014b50       ?DebugSerial@@YAXPEAD@Z    ffffc00000015b50 f   serial.obj
 0001:00014bb0       ?SerialInterruptHandler@@YAX_KPEAX@Z ffffc00000015bb0 f   serial.obj
 0001:00014be0       ?WriteSerial@@YAXD@Z       ffffc00000015be0 f   serial.obj
 0001:00014c20       ?is_transmit_empty@@YAHXZ  ffffc00000015c20 f   serial.obj
 0001:00014c50       SeTextOut                  ffffc00000015c50 f   serial.obj
 0001:00014fb0       ?x86_64_ap_init@@YAXPEAX@Z ffffc00000015fb0 f   x86_64_ap_init.obj
 0001:00015050       ?CMOSDump@@YAXPEAG@Z       ffffc00000016050 f   x86_64_cpu.obj
 0001:000150c0       ?_ICRBusy@@YA_NXZ          ffffc000000160c0 f   x86_64_cpu.obj
 0001:00015110       ?_ICRDest@@YA_KI@Z         ffffc00000016110 f   x86_64_cpu.obj
 0001:00015150       ?cpu_read_tsc@@YA_KXZ      ffffc00000016150 f   x86_64_cpu.obj
 0001:000151a0       ?isUpdateInProgress@@YAHXZ ffffc000000161a0 f   x86_64_cpu.obj
 0001:000151e0       ?readCMOS@@YA_KXZ          ffffc000000161e0 f   x86_64_cpu.obj
 0001:00015680       ?secs_of_years@@YA_KH@Z    ffffc00000016680 f   x86_64_cpu.obj
 0001:00015730       ?updateTicks@@YAX_KPEA_K1@Z ffffc00000016730 f   x86_64_cpu.obj
 0001:000157b0       ?x86_64_cpu_get_mhz@@YA_KXZ ffffc000000167b0 f   x86_64_cpu.obj
 0001:000157e0       ?x86_64_cpu_initialize@@YAXE@Z ffffc000000167e0 f   x86_64_cpu.obj
 0001:000159c0       ?x86_64_cpu_msi_address@@YA_KPEA_K_KIEE@Z ffffc000000169c0 f   x86_64_cpu.obj
 0001:00015a60       ?x86_64_enable_syscall_ext@@YAXXZ ffffc00000016a60 f   x86_64_cpu.obj
 0001:00015ac0       ?x86_64_get_tss@@YAPEAU_tss@@XZ ffffc00000016ac0 f   x86_64_cpu.obj
 0001:00015af0       ?x86_64_gettimeofday@@YAHPEAU_timeval_@@@Z ffffc00000016af0 f   x86_64_cpu.obj
 0001:00015b60       ?x86_64_hal_cpu_feature_enable@@YAXXZ ffffc00000016b60 f   x86_64_cpu.obj
 0001:00015c70       ?x86_64_init_user@@YAX_K@Z ffffc00000016c70 f   x86_64_cpu.obj
 0001:00015d40       ?x86_64_init_user_ap@@YAX_K@Z ffffc00000016d40 f   x86_64_cpu.obj
 0001:00015e10       ?x86_64_initialise_syscall@@YAXXZ ffffc00000016e10 f   x86_64_cpu.obj
 0001:00015e90       ?x86_64_is_cpu_fxsave_supported@@YA_NXZ ffffc00000016e90 f   x86_64_cpu.obj
 0001:00015ec0       ?x86_64_measure_cpu_speed@@YAXXZ ffffc00000016ec0 f   x86_64_cpu.obj
 0001:00016080       ?x86_64_set_ap_start_bit@@YAX_N@Z ffffc00000017080 f   x86_64_cpu.obj
 0001:000160b0       ?alignment_check_fault@@YAX_KPEAX@Z ffffc000000170b0 f   x86_64_exception.obj
 0001:000160f0       ?bounds_check_fault@@YAX_KPEAX@Z ffffc000000170f0 f   x86_64_exception.obj
 0001:00016130       ?breakpoint_trap@@YAX_KPEAX@Z ffffc00000017130 f   x86_64_exception.obj
 0001:00016170       ?divide_by_zero_fault@@YAX_KPEAX@Z ffffc00000017170 f   x86_64_exception.obj
 0001:00016210       ?double_fault_abort@@YAX_KPEAX@Z ffffc00000017210 f   x86_64_exception.obj
 0001:00016250       ?fpu_fault@@YAX_KPEAX@Z    ffffc00000017250 f   x86_64_exception.obj
 0001:00016290       ?general_protection_fault@@YAX_KPEAX@Z ffffc00000017290 f   x86_64_exception.obj
 0001:00016380       ?invalid_opcode_fault@@YAX_KPEAX@Z ffffc00000017380 f   x86_64_exception.obj
 0001:00016440       ?invalid_tss_fault@@YAX_KPEAX@Z ffffc00000017440 f   x86_64_exception.obj
 0001:00016480       ?machine_check_abort@@YAX_KPEAX@Z ffffc00000017480 f   x86_64_exception.obj
 0001:000164c0       ?nmi_trap@@YAX_KPEAX@Z     ffffc000000174c0 f   x86_64_exception.obj
 0001:00016500       ?no_device_fault@@YAX_KPEAX@Z ffffc00000017500 f   x86_64_exception.obj
 0001:00016540       ?no_segment_fault@@YAX_KPEAX@Z ffffc00000017540 f   x86_64_exception.obj
 0001:00016580       ?overflow_trap@@YAX_KPEAX@Z ffffc00000017580 f   x86_64_exception.obj
 0001:000165c0       ?page_fault@@YAX_KPEAX@Z   ffffc000000175c0 f   x86_64_exception.obj
 0001:00016910       ?panic@@YAXPEBDZZ          ffffc00000017910 f   x86_64_exception.obj
 0001:000169b0       ?simd_fpu_fault@@YAX_KPEAX@Z ffffc000000179b0 f   x86_64_exception.obj
 0001:00016a50       ?single_step_trap@@YAX_KPEAX@Z ffffc00000017a50 f   x86_64_exception.obj
 0001:00016aa0       ?stack_fault@@YAX_KPEAX@Z  ffffc00000017aa0 f   x86_64_exception.obj
 0001:00016b80       ?x86_64_exception_init@@YAXXZ ffffc00000017b80 f   x86_64_exception.obj
 0001:00016de0       ?save_sregs@@YAXXZ         ffffc00000017de0 f   x86_64_gdt.obj
 0001:00016ea0       ?set_gdt_entry@@YAXAEAU_gdt@@_K1EE@Z ffffc00000017ea0 f   x86_64_gdt.obj
 0001:00016f50       ?x86_64_hal_init_gdt_ap@@YAXXZ ffffc00000017f50 f   x86_64_gdt.obj
 0001:00016fd0       load_default_sregs         ffffc00000017fd0 f   x86_64_gdt.obj
 0001:00017040       x86_64_hal_init_gdt        ffffc00000018040 f   x86_64_gdt.obj
 0001:000170b0       ?x86_64_hal_initialise@@YAXPEAU_KERNEL_BOOT_INFO_@@@Z ffffc000000180b0 f   x86_64_hal.obj
 0001:00017170       ?default_irq@@YAX_KPEAX@Z  ffffc00000018170 f   x86_64_idt.obj
 0001:00017220       ?x86_64_idt_init@@YAXXZ    ffffc00000018220 f   x86_64_idt.obj
 0001:000173c0       ?x86_64_idt_init_ap@@YAXXZ ffffc000000183c0 f   x86_64_idt.obj
 0001:00017560       ?x86_64_idt_reg_default_handlers@@YAXXZ ffffc00000018560 f   x86_64_idt.obj
 0001:000175b0       interrupt_dispatcher       ffffc000000185b0 f   x86_64_idt.obj
 0001:000175f0       setvect                    ffffc000000185f0 f   x86_64_idt.obj
 0001:00017630       ?AuInitialisePIC@@YAXXZ    ffffc00000018630 f   x86_64_pic.obj
 0001:00017820       ?AuPICClearMask@@YAXE@Z    ffffc00000018820 f   x86_64_pic.obj
 0001:000178a0       ?AuPICInterruptEOI@@YAXI@Z ffffc000000188a0 f   x86_64_pic.obj
 0001:000178f0       ?AuPICSetMask@@YAXE@Z      ffffc000000188f0 f   x86_64_pic.obj
 0001:00017970       ?AuPITHandler@@YAX_KPEAX@Z ffffc00000018970 f   x86_64_pic.obj
 0001:000179b0       ?AuPITOneShotMode@@YAXXZ   ffffc000000189b0 f   x86_64_pic.obj
 0001:00017a50       ?AuPITSleepMS@@YAXI@Z      ffffc00000018a50 f   x86_64_pic.obj
 0001:00017ae0       ?AuPitOneShotWait@@YAXXZ   ffffc00000018ae0 f   x86_64_pic.obj
 0001:00017b20       ?AuIdleThread@@YAX_K@Z     ffffc00000018b20 f   x86_64_sched.obj
 0001:00017b80       ?AuIsSchedulerInitialised@@YA_NXZ ffffc00000018b80 f   x86_64_sched.obj
 0001:00017bb0       ?AuKThreadCopy@@YAXPEAU_au_thread_@@0@Z ffffc00000018bb0 f   x86_64_sched.obj
 0001:00017d70       ?AuNextThread@@YAXXZ       ffffc00000018d70 f   x86_64_sched.obj
 0001:00017e60       ?AuSchedulerInitAp@@YAXXZ  ffffc00000018e60 f   x86_64_sched.obj
 0001:00017e90       ?AuSchedulerInitialise@@YAXXZ ffffc00000018e90 f   x86_64_sched.obj
 0001:00017f70       ?AuSchedulerStart@@YAXXZ   ffffc00000018f70 f   x86_64_sched.obj
 0001:00017fc0       ?AuThreadCleanTrash@@YAXPEAU_au_thread_@@@Z ffffc00000018fc0 f   x86_64_sched.obj
 0001:00017ff0       ?AuThreadDelete@@YAXPEAU_au_thread_@@@Z ffffc00000018ff0 f   x86_64_sched.obj
 0001:000180a0       ?AuThreadDeleteBlock@@YAXPEAU_au_thread_@@@Z ffffc000000190a0 f   x86_64_sched.obj
 0001:00018150       ?AuThreadDeleteTrash@@YAXPEAU_au_thread_@@@Z ffffc00000019150 f   x86_64_sched.obj
 0001:00018200       ?AuThreadInsert@@YAXPEAU_au_thread_@@@Z ffffc00000019200 f   x86_64_sched.obj
 0001:00018290       ?AuThreadInsertBlock@@YAXPEAU_au_thread_@@@Z ffffc00000019290 f   x86_64_sched.obj
 0001:00018320       ?AuThreadInsertTrash@@YAXPEAU_au_thread_@@@Z ffffc00000019320 f   x86_64_sched.obj
 0001:000183b0       ?AuThreadMoveToTrash@@YAXPEAU_au_thread_@@@Z ffffc000000193b0 f   x86_64_sched.obj
 0001:00018470       ?x8664SchedulerISR@@YAX_KPEAX@Z ffffc00000019470 f   x86_64_sched.obj
 0001:000185d0       AuBlockThread              ffffc000000195d0 f   x86_64_sched.obj
 0001:00018610       AuCreateKthread            ffffc00000019610 f   x86_64_sched.obj
 0001:00018930       AuForceScheduler           ffffc00000019930 f   x86_64_sched.obj
 0001:00018960       AuGetCurrentThread         ffffc00000019960 f   x86_64_sched.obj
 0001:00018990       AuGetSystemTimerTick       ffffc00000019990 f   x86_64_sched.obj
 0001:000189c0       AuPrintStack               ffffc000000199c0 f   x86_64_sched.obj
 0001:00018a00       AuSleepThread              ffffc00000019a00 f   x86_64_sched.obj
 0001:00018a40       AuThreadFindByID           ffffc00000019a40 f   x86_64_sched.obj
 0001:00018ab0       AuThreadFindByIDBlockList  ffffc00000019ab0 f   x86_64_sched.obj
 0001:00018b20       AuUnblockThread            ffffc00000019b20 f   x86_64_sched.obj
 0001:00018ba0       ?AuAllocateSignal@@YAXPEAU_au_thread_@@H@Z ffffc00000019ba0 f   x86_64_signal.obj
 0001:00018ca0       ?AuCheckSignal@@YA_NPEAU_au_thread_@@PEAUinterrupt_stack_frame@@@Z ffffc00000019ca0 f   x86_64_signal.obj
 0001:00018d00       ?AuGetSignal@@YAPEAU_signal_@@PEAU_au_thread_@@@Z ffffc00000019d00 f   x86_64_signal.obj
 0001:00018dc0       ?AuPrepareSignal@@YAXPEAU_au_thread_@@PEAUinterrupt_stack_frame@@PEAU_signal_@@@Z ffffc00000019dc0 f   x86_64_signal.obj
 0001:00018fb0       ?AuSendSignal@@YAXGH@Z     ffffc00000019fb0 f   x86_64_signal.obj
 0001:00019060       ?AuSignalRemoveAll@@YAXPEAU_au_thread_@@@Z ffffc0000001a060 f   x86_64_signal.obj
 0001:00019100       AuSignalDebug              ffffc0000001a100 f   x86_64_signal.obj
 0001:00019140       ?null_call@@YA_K_J00000@Z  ffffc0000001a140 f   x86_64_systable.obj
 0001:00019180       ?KePrintMsg@@YA_K_J00000@Z ffffc0000001a180 f   x86_64_systable.obj
 0001:000191d0       x64_syscall_handler        ffffc0000001a1d0 f   x86_64_systable.obj
 0001:000192a0       ?_AuMain@@YAXPEAU_KERNEL_BOOT_INFO_@@@Z ffffc0000001a2a0 f   init.obj
 0001:000193a0       ?AuIPCPostBoxInitialise@@YAXXZ ffffc0000001a3a0 f   postbox.obj
 0001:00019450       ?IsPostBoxEmpty@@YA_NPEAU_postbox_@@@Z ffffc0000001a450 f   postbox.obj
 0001:000194b0       ?IsPostBoxFull@@YA_NPEAU_postbox_@@@Z ffffc0000001a4b0 f   postbox.obj
 0001:000194e0       ?PostBoxAdvanceIndex@@YAXPEAU_postbox_@@@Z ffffc0000001a4e0 f   postbox.obj
 0001:00019580       ?PostBoxCreate@@YAX_NG@Z   ffffc0000001a580 f   postbox.obj
 0001:000196b0       ?PostBoxDestroy@@YAXPEAU_postbox_@@@Z ffffc0000001a6b0 f   postbox.obj
 0001:00019770       ?PostBoxDestroyByID@@YAXG@Z ffffc0000001a770 f   postbox.obj
 0001:000197f0       ?PostBoxGetEvent@@YAHPEAU_post_event_@@_NPEAU_au_thread_@@@Z ffffc0000001a7f0 f   postbox.obj
 0001:000198f0       ?PostBoxIOControl@@YAHPEAU__VFS_NODE__@@HPEAX@Z ffffc0000001a8f0 f   postbox.obj
 0001:00019a20       ?PostBoxPutEvent@@YAXPEAU_post_event_@@@Z ffffc0000001aa20 f   postbox.obj
 0001:00019b10       ?PostBoxRetreat@@YAXPEAU_postbox_@@@Z ffffc0000001ab10 f   postbox.obj
 0001:00019b60       initialize_list            ffffc0000001ab60 f   list.obj
 0001:00019bb0       list_add                   ffffc0000001abb0 f   list.obj
 0001:00019c70       list_get_at                ffffc0000001ac70 f   list.obj
 0001:00019d10       list_remove                ffffc0000001ad10 f   list.obj
 0001:00019e10       ?AuInitialiseLoader@@YAXXZ ffffc0000001ae10 f   loader.obj
 0001:00019e60       ?AuIsLoaderBusy@@YA_NXZ    ffffc0000001ae60 f   loader.obj
 0001:00019e90       ?AuLoadExecToProcess@@YAHPEAU_au_proc_@@PEADHPEAPEAD@Z ffffc0000001ae90 f   loader.obj
 0001:0001a680       ?AuLoaderGetMutex@@YAPEAU_mutex_@@XZ ffffc0000001b680 f   loader.obj
 0001:0001a6b0       ?AuProcessEntUser@@YAX_K@Z ffffc0000001b6b0 f   loader.obj
 0001:0001a900       ?align24@@YA_K_K@Z         ffffc0000001b900 f   kmalloc.obj
 0001:0001a960       ?au_expand_kmalloc@@YAX_K@Z ffffc0000001b960 f   kmalloc.obj
 0001:0001a990       ?au_free_page@@YAXPEAXH@Z  ffffc0000001b990 f   kmalloc.obj
 0001:0001a9d0       ?au_request_page@@YAPEAXH@Z ffffc0000001b9d0 f   kmalloc.obj
 0001:0001aa80       ?au_split_block@@YAHPEAU_meta_data_@@_K@Z ffffc0000001ba80 f   kmalloc.obj
 0001:0001aab0       ?merge_next@@YAXPEAU_meta_data_@@@Z ffffc0000001bab0 f   kmalloc.obj
 0001:0001aae0       ?merge_prev@@YAXPEAU_meta_data_@@@Z ffffc0000001bae0 f   kmalloc.obj
 0001:0001ab10       ?next_power_of_two@@YAHI@Z ffffc0000001bb10 f   kmalloc.obj
 0001:0001ab70       AuHeapInitialize           ffffc0000001bb70 f   kmalloc.obj
 0001:0001ab90       kcalloc                    ffffc0000001bb90 f   kmalloc.obj
 0001:0001abd0       kfree                      ffffc0000001bbd0 f   kmalloc.obj
 0001:0001ac00       kheap_debug                ffffc0000001bc00 f   kmalloc.obj
 0001:0001ac20       kmalloc                    ffffc0000001bc20 f   kmalloc.obj
 0001:0001ac50       kmalloc_debug_on           ffffc0000001bc50 f   kmalloc.obj
 0001:0001ac70       krealloc                   ffffc0000001bc70 f   kmalloc.obj
 0001:0001b2b0       liballoc_alloc             ffffc0000001c2b0 f   liballoc.obj
 0001:0001b390       liballoc_free              ffffc0000001c390 f   liballoc.obj
 0001:0001b3d0       liballoc_lock              ffffc0000001c3d0 f   liballoc.obj
 0001:0001b3f0       liballoc_unlock            ffffc0000001c3f0 f   liballoc.obj
 0001:0001b410       port_calloc                ffffc0000001c410 f   liballoc.obj
 0001:0001b470       port_free                  ffffc0000001c470 f   liballoc.obj
 0001:0001b600       port_malloc                ffffc0000001c600 f   liballoc.obj
 0001:0001b7d0       port_realloc               ffffc0000001c7d0 f   liballoc.obj
 0001:0001b8a0       ?AuAddSharedMmapObject@@YAXPEAU_sh_memap_object_@@@Z ffffc0000001c8a0 f   mmap.obj
 0001:0001b8e0       ?AuCreateSharedMmapObject@@YAPEAU_sh_memap_object_@@PEAD@Z ffffc0000001c8e0 f   mmap.obj
 0001:0001b960       ?AuRemoveSharedMmapObject@@YAXPEAU_sh_memap_object_@@@Z ffffc0000001c960 f   mmap.obj
 0001:0001b9f0       ?AuSharedMmapObjectFindByName@@YAPEAU_sh_memap_object_@@PEAD@Z ffffc0000001c9f0 f   mmap.obj
 0001:0001ba70       ?CreateMemMapping@@YAPEAXPEAX_KHHH1@Z ffffc0000001ca70 f   mmap.obj
 0001:0001bf00       ?MemMapDirty@@YAXPEAX_KHH@Z ffffc0000001cf00 f   mmap.obj
 0001:0001c090       ?SharedMemMapListInitialise@@YAXXZ ffffc0000001d090 f   mmap.obj
 0001:0001c0c0       ?UnmapMemMapping@@YAXPEAX_K@Z ffffc0000001d0c0 f   mmap.obj
 0001:0001c230       ??ABitmap@@QEAA_N_K@Z      ffffc0000001d230 f i pmmngr.obj
 0001:0001c2d0       ?AuPmmngrGetFreeMem@@YA_KXZ ffffc0000001d2d0 f   pmmngr.obj
 0001:0001c300       ?AuPmmngrGetTotalMem@@YA_KXZ ffffc0000001d300 f   pmmngr.obj
 0001:0001c330       ?AuPmmngrInitBitmap@@YAX_KPEAX@Z ffffc0000001d330 f   pmmngr.obj
 0001:0001c3a0       ?AuPmmngrInitialize@@YAXPEAU_KERNEL_BOOT_INFO_@@@Z ffffc0000001d3a0 f   pmmngr.obj
 0001:0001c650       ?AuPmmngrLockPage@@YAX_K@Z ffffc0000001d650 f   pmmngr.obj
 0001:0001c6e0       ?AuPmmngrLockPages@@YAXPEAX_K@Z ffffc0000001d6e0 f   pmmngr.obj
 0001:0001c750       ?AuPmmngrMoveHigher@@YAXXZ ffffc0000001d750 f   pmmngr.obj
 0001:0001c790       ?AuPmmngrUnreservePage@@YAXPEAX@Z ffffc0000001d790 f   pmmngr.obj
 0001:0001c830       ?Set@Bitmap@@QEAA_N_K_N@Z  ffffc0000001d830 f i pmmngr.obj
 0001:0001c910       AuPmmngrAlloc              ffffc0000001d910 f   pmmngr.obj
 0001:0001c9c0       AuPmmngrAllocBlocks        ffffc0000001d9c0 f   pmmngr.obj
 0001:0001ca10       AuPmmngrFree               ffffc0000001da10 f   pmmngr.obj
 0001:0001cab0       AuPmmngrFreeBlocks         ffffc0000001dab0 f   pmmngr.obj
 0001:0001cb10       P2V                        ffffc0000001db10 f   pmmngr.obj
 0001:0001cb60       V2P                        ffffc0000001db60 f   pmmngr.obj
 0001:0001cbb0       ?AuCreateSHM@@YAHPEAU_au_proc_@@G_KE@Z ffffc0000001dbb0 f   shm.obj
 0001:0001cd50       ?AuGetSHMByID@@YAPEAU_shm_@@G@Z ffffc0000001dd50 f   shm.obj
 0001:0001cdc0       ?AuGetSHMSeg@@YAPEAU_shm_@@G@Z ffffc0000001ddc0 f   shm.obj
 0001:0001ce30       ?AuInitialiseSHMMan@@YAXXZ ffffc0000001de30 f   shm.obj
 0001:0001ce80       ?AuSHMDelete@@YAXPEAU_shm_@@@Z ffffc0000001de80 f   shm.obj
 0001:0001cf80       ?AuSHMGetID@@YAGXZ         ffffc0000001df80 f   shm.obj
 0001:0001cfc0       ?AuSHMObtainMem@@YAPEAXPEAU_au_proc_@@GPEAXH@Z ffffc0000001dfc0 f   shm.obj
 0001:0001d3b0       ?AuSHMProcBreak@@YA_KPEAU_au_proc_@@_K@Z ffffc0000001e3b0 f   shm.obj
 0001:0001d410       ?AuSHMProcOrderList@@YAXPEAU_au_proc_@@@Z ffffc0000001e410 f   shm.obj
 0001:0001d520       ?AuSHMProcSwap@@YAXPEAU_data_@@0@Z ffffc0000001e520 f   shm.obj
 0001:0001d570       ?AuSHMUnmap@@YAXGPEAU_au_proc_@@@Z ffffc0000001e570 f   shm.obj
 0001:0001d760       ?AuSHMUnmapAll@@YAXPEAU_au_proc_@@@Z ffffc0000001e760 f   shm.obj
 0001:0001d8d0       ?AuInsertVMArea@@YAXPEAU_au_proc_@@PEAU_vm_area_@@@Z ffffc0000001e8d0 f   vmarea.obj
 0001:0001d910       ?AuRemoveVMArea@@YAXPEAU_au_proc_@@PEAU_vm_area_@@@Z ffffc0000001e910 f   vmarea.obj
 0001:0001d9a0       ?AuVMAreaCreate@@YAPEAU_vm_area_@@_K0E0E@Z ffffc0000001e9a0 f   vmarea.obj
 0001:0001da40       ?AuVMAreaGet@@YAPEAU_vm_area_@@PEAU_au_proc_@@_K@Z ffffc0000001ea40 f   vmarea.obj
 0001:0001dad0       ?AuVmmngrBootFree@@YAXXZ   ffffc0000001ead0 f   vmmngr.obj
 0001:0001db30       ?AuVmmngrCloneAddressSpace@@YAXPEA_K0@Z ffffc0000001eb30 f   vmmngr.obj
 0001:0001ddf0       ?AuVmmngrInitialize@@YAXXZ ffffc0000001edf0 f   vmmngr.obj
 0001:0001de20       ?Au_x86_64_Paging_Init@@YAXXZ ffffc0000001ee20 f   vmmngr.obj
 0001:0001dfa0       ?x86_64_p_index@@YA_K_K@Z  ffffc0000001efa0 f   vmmngr.obj
 0001:0001dfd0       ?x86_64_pd_index@@YA_K_K@Z ffffc0000001efd0 f   vmmngr.obj
 0001:0001e000       ?x86_64_pdp_index@@YA_K_K@Z ffffc0000001f000 f   vmmngr.obj
 0001:0001e030       ?x86_64_pml4_index@@YA_K_K@Z ffffc0000001f030 f   vmmngr.obj
 0001:0001e060       ?x86_64_pt_index@@YA_K_K@Z ffffc0000001f060 f   vmmngr.obj
 0001:0001e090       AuCreateVirtualAddressSpace ffffc0000001f090 f   vmmngr.obj
 0001:0001e150       AuFreePages                ffffc0000001f150 f   vmmngr.obj
 0001:0001e2f0       AuGetFreePage              ffffc0000001f2f0 f   vmmngr.obj
 0001:0001e490       AuGetPhysicalAddress       ffffc0000001f490 f   vmmngr.obj
 0001:0001e580       AuGetPhysicalAddressEx     ffffc0000001f580 f   vmmngr.obj
 0001:0001e660       AuGetRootPageTable         ffffc0000001f660 f   vmmngr.obj
 0001:0001e690       AuMapMMIO                  ffffc0000001f690 f   vmmngr.obj
 0001:0001e740       AuMapPage                  ffffc0000001f740 f   vmmngr.obj
 0001:0001e9a0       AuMapPageEx                ffffc0000001f9a0 f   vmmngr.obj
 0001:0001ec00       AuVmmngrGetPage            ffffc0000001fc00 f   vmmngr.obj
 0001:0001eed0       AuARPRequestMAC            ffffc0000001fed0 f   arp.obj
 0001:0001eff0       ?AuInitialiseNet@@YAXXZ    ffffc0000001fff0 f   aunet.obj
 0001:0001f050       ?AuNetworkRoute@@YAPEAU__VFS_NODE__@@I@Z ffffc00000020050 f   aunet.obj
 0001:0001f080       AuAddNetAdapter            ffffc00000020080 f   aunet.obj
 0001:0001f0e0       AuGetNetworkAdapter        ffffc000000200e0 f   aunet.obj
 0001:0001f120       ?AuEthernetSend@@YAXPEAU__VFS_NODE__@@PEAX_KGPEAE@Z ffffc00000020120 f   ethernet.obj
 0001:0001f250       AuEthernetHandle           ffffc00000020250 f   ethernet.obj
 0001:0001f320       ??$mem_after@PEAUacpiMcfgAlloc@@UacpiMcfg@@@@YAPEAUacpiMcfgAlloc@@PEAUacpiMcfg@@@Z ffffc00000020320 f i pcie.obj
 0001:0001f360       ??$raw_offset@PECE_K@@YAPECE_KH@Z ffffc00000020360 f i pcie.obj
 0001:0001f3a0       ??$raw_offset@PECG_K@@YAPECG_KH@Z ffffc000000203a0 f i pcie.obj
 0001:0001f3e0       ??$raw_offset@PECI_K@@YAPECI_KH@Z ffffc000000203e0 f i pcie.obj
 0001:0001f420       ?AuPCIEGetDevice@@YA_KGHHH@Z ffffc00000020420 f   pcie.obj
 0001:0001f510       AuPCIEAllocMSI             ffffc00000020510 f   pcie.obj
 0001:0001f8f0       AuPCIERead                 ffffc000000208f0 f   pcie.obj
 0001:0001fc00       AuPCIERead64               ffffc00000020c00 f   pcie.obj
 0001:0001fd60       AuPCIEScanClass            ffffc00000020d60 f   pcie.obj
 0001:0001ff20       AuPCIEScanClassIF          ffffc00000020f20 f   pcie.obj
 0001:00020100       AuPCIEWrite                ffffc00000021100 f   pcie.obj
 0001:000203e0       AuPCIEWrite64              ffffc000000213e0 f   pcie.obj
 0001:00020510       ??$raw_diff@U_IMAGE_RELOCATION_BLOCK_@@U1@@@YAHPEAU_IMAGE_RELOCATION_BLOCK_@@0@Z ffffc00000021510 f i pe.obj
 0001:00020540       ??$raw_offset@PEADPEAX@@YAPEADPEAXH@Z ffffc00000021540 f i pe.obj
 0001:00020580       ??$raw_offset@PEAGPEAX@@YAPEAGPEAXH@Z ffffc00000021580 f i pe.obj
 0001:000205c0       ??$raw_offset@PEAIPEAX@@YAPEAIPEAXH@Z ffffc000000215c0 f i pe.obj
 0001:00020600       ??$raw_offset@PEAU_IMAGE_EXPORT_DIRECTORY@@PEAX@@YAPEAU_IMAGE_EXPORT_DIRECTORY@@PEAXH@Z ffffc00000021600 f i pe.obj
 0001:00020640       ??$raw_offset@PEAU_IMAGE_IMPORT_DIRECTORY@@PEAE@@YAPEAU_IMAGE_IMPORT_DIRECTORY@@PEAEH@Z ffffc00000021640 f i pe.obj
 0001:00020680       ??$raw_offset@PEAU_IMAGE_IMPORT_HINT_TABLE@@PEAE@@YAPEAU_IMAGE_IMPORT_HINT_TABLE@@PEAEH@Z ffffc00000021680 f i pe.obj
 0001:000206c0       ??$raw_offset@PEAU_IMAGE_IMPORT_HINT_TABLE@@PEAX@@YAPEAU_IMAGE_IMPORT_HINT_TABLE@@PEAXH@Z ffffc000000216c0 f i pe.obj
 0001:00020700       ??$raw_offset@PEAU_IMAGE_RELOCATION_BLOCK_@@PEAU1@@@YAPEAU_IMAGE_RELOCATION_BLOCK_@@PEAU0@H@Z ffffc00000021700 f i pe.obj
 0001:00020740       ??$raw_offset@PEAU_IMAGE_RELOCATION_BLOCK_@@PEAX@@YAPEAU_IMAGE_RELOCATION_BLOCK_@@PEAXH@Z ffffc00000021740 f i pe.obj
 0001:00020780       ??$raw_offset@PEAXPEAX@@YAPEAXPEAXH@Z ffffc00000021780 f i pe.obj
 0001:000207c0       ??$raw_offset@PEA_KPEAE@@YAPEA_KPEAEH@Z ffffc000000217c0 f i pe.obj
 0001:00020800       ??$raw_offset@PEBDPEAE@@YAPEBDPEAEH@Z ffffc00000021800 f i pe.obj
 0001:00020840       ??$raw_offset@PEBDPEAX@@YAPEBDPEAXH@Z ffffc00000021840 f i pe.obj
 0001:00020880       ?AuGetProcAddress@@YAPEAXPEAXPEBD@Z ffffc00000021880 f   pe.obj
 0001:000209f0       ?AuKernelLinkDLL@@YAXPEAX@Z ffffc000000219f0 f   pe.obj
 0001:00020b60       ?AuKernelLinkImports@@YAXPEAX@Z ffffc00000021b60 f   pe.obj
 0001:00020cd0       ?AuKernelRelocatePE@@YAXPEAXPEAU_IMAGE_NT_HEADERS_PE32PLUS@@H@Z ffffc00000021cd0 f   pe.obj
 0001:00020f10       ?AuPEFileIsDynamicallyLinked@@YA_NPEAX@Z ffffc00000021f10 f   pe.obj
 0001:00020fc0       ?AuPEPrintExports@@YAXPEAX@Z ffffc00000021fc0 f   pe.obj
 0001:00021100       ?AuAddProcess@@YAXPEAU_au_proc_@@0@Z ffffc00000022100 f   process.obj
 0001:000211a0       ?AuAllocateProcessID@@YAHXZ ffffc000000221a0 f   process.obj
 0001:000211e0       ?AuCreateProcessSlot@@YAPEAU_au_proc_@@PEAU1@PEAD@Z ffffc000000221e0 f   process.obj
 0001:00021330       ?AuCreateRootProc@@YAPEAU_au_proc_@@XZ ffffc00000022330 f   process.obj
 0001:00021490       ?AuCreateUserthread@@YAHPEAU_au_proc_@@P6AXPEAX@ZPEAD@Z ffffc00000022490 f   process.obj
 0001:00021630       ?AuGetKillableProcess@@YAPEAU_au_proc_@@XZ ffffc00000022630 f   process.obj
 0001:00021690       ?AuGetRootProcess@@YAPEAU_au_proc_@@XZ ffffc00000022690 f   process.obj
 0001:000216c0       ?AuProcessExit@@YAXPEAU_au_proc_@@_N@Z ffffc000000226c0 f   process.obj
 0001:00021970       ?AuProcessFindByPID@@YAPEAU_au_proc_@@PEAU1@H@Z ffffc00000022970 f   process.obj
 0001:000219d0       ?AuProcessFindByThread@@YAPEAU_au_proc_@@PEAU1@PEAU_au_thread_@@@Z ffffc000000229d0 f   process.obj
 0001:00021a40       ?AuProcessFindPID@@YAPEAU_au_proc_@@H@Z ffffc00000022a40 f   process.obj
 0001:00021aa0       ?AuProcessFindSubThread@@YAPEAU_au_proc_@@PEAU_au_thread_@@@Z ffffc00000022aa0 f   process.obj
 0001:00021ae0       ?AuProcessFindThread@@YAPEAU_au_proc_@@PEAU_au_thread_@@@Z ffffc00000022ae0 f   process.obj
 0001:00021b40       ?AuProcessFreeKeResource@@YAXPEAU_au_thread_@@@Z ffffc00000022b40 f   process.obj
 0001:00021bb0       ?AuProcessGetFileDesc@@YAHPEAU_au_proc_@@@Z ffffc00000022bb0 f   process.obj
 0001:00021c10       ?AuProcessGetMutex@@YAPEAU_mutex_@@XZ ffffc00000022c10 f   process.obj
 0001:00021c40       ?AuProcessHeapMemDestroy@@YAXPEAU_au_proc_@@@Z ffffc00000022c40 f   process.obj
 0001:00021d80       ?AuProcessWaitForTermination@@YAXPEAU_au_proc_@@H@Z ffffc00000022d80 f   process.obj
 0001:00021e50       ?AuRemoveProcess@@YAXPEAU_au_proc_@@0@Z ffffc00000022e50 f   process.obj
 0001:00021f10       ?AuStartRootProc@@YAXXZ    ffffc00000022f10 f   process.obj
 0001:00021ff0       ?CreateKernelStack@@YA_KPEAU_au_proc_@@PEA_K@Z ffffc00000022ff0 f   process.obj
 0001:000220b0       ?CreateUserStack@@YAPEA_KPEAU_au_proc_@@PEA_K@Z ffffc000000230b0 f   process.obj
 0001:00022190       ?KernelStackFree@@YAXPEAU_au_proc_@@PEAXPEA_K@Z ffffc00000023190 f   process.obj
 0001:00022270       ?CloseFile@@YAHH@Z         ffffc00000023270 f   fileserv.obj
 0001:000223c0       ?CreateDir@@YAHPEAD@Z      ffffc000000233c0 f   fileserv.obj
 0001:00022480       ?FileIoControl@@YAHHHPEAX@Z ffffc00000023480 f   fileserv.obj
 0001:00022550       ?FileSetOffset@@YAHH_K@Z   ffffc00000023550 f   fileserv.obj
 0001:00022690       ?FileStat@@YAHHPEAX@Z      ffffc00000023690 f   fileserv.obj
 0001:000227a0       ?OpenDir@@YAHPEAD@Z        ffffc000000237a0 f   fileserv.obj
 0001:000228c0       ?OpenFile@@YAHPEADH@Z      ffffc000000238c0 f   fileserv.obj
 0001:00022a20       ?ProcessGetFileDesc@@YAHPEBD@Z ffffc00000023a20 f   fileserv.obj
 0001:00022af0       ?ReadDir@@YAHHPEAX@Z       ffffc00000023af0 f   fileserv.obj
 0001:00022c00       ?ReadFile@@YA_KHPEAX_K@Z   ffffc00000023c00 f   fileserv.obj
 0001:00022de0       ?RemoveFile@@YAHPEAD@Z     ffffc00000023de0 f   fileserv.obj
 0001:00022e60       ?WriteFile@@YA_KHPEAX_K@Z  ffffc00000023e60 f   fileserv.obj
 0001:00023080       ?CreateSharedMem@@YAHG_KE@Z ffffc00000024080 f   mmserv.obj
 0001:00023120       ?GetProcessHeapMem@@YA_K_K@Z ffffc00000024120 f   mmserv.obj
 0001:00023300       ?ObtainSharedMem@@YAPEAXGPEAXH@Z ffffc00000024300 f   mmserv.obj
 0001:00023390       ?ProcessHeapUnmap@@YAHPEAX_K@Z ffffc00000024390 f   mmserv.obj
 0001:00023580       ?UnmapSharedMem@@YAXG@Z    ffffc00000024580 f   mmserv.obj
 0001:000235f0       ?NetAccept@@YAHHPEAU_sockaddr_@@PEA_K@Z ffffc000000245f0 f   netserv.obj
 0001:00023620       ?NetBind@@YAHHPEAU_sockaddr_@@_K@Z ffffc00000024620 f   netserv.obj
 0001:000236e0       ?NetConnect@@YAHHPEAU_sockaddr_@@_K@Z ffffc000000246e0 f   netserv.obj
 0001:000237a0       ?NetListen@@YAHHH@Z        ffffc000000247a0 f   netserv.obj
 0001:000237d0       ?NetReceive@@YAHHPEAU_msghdr_@@H@Z ffffc000000247d0 f   netserv.obj
 0001:000238c0       ?NetSend@@YAHHPEAU_msghdr_@@H@Z ffffc000000248c0 f   netserv.obj
 0001:000239b0       ?CloseUserThread@@YAHH@Z   ffffc000000249b0 f   thrserv.obj
 0001:00023a00       ?CreateProcess@@YAHHPEAD@Z ffffc00000024a00 f   thrserv.obj
 0001:00023a50       ?CreateUserThread@@YAHP6AXPEAX@ZPEAD@Z ffffc00000024a50 f   thrserv.obj
 0001:00023ae0       ?GetCurrentTime@@YAHPEAX@Z ffffc00000024ae0 f   thrserv.obj
 0001:00023b20       ?GetProcessID@@YAHXZ       ffffc00000024b20 f   thrserv.obj
 0001:00023b90       ?GetSystemTimerTick@@YA_KXZ ffffc00000024b90 f   thrserv.obj
 0001:00023bc0       ?GetThreadID@@YAGXZ        ffffc00000024bc0 f   thrserv.obj
 0001:00023c00       ?PauseThread@@YAHXZ        ffffc00000024c00 f   thrserv.obj
 0001:00023c40       ?ProcessExit@@YAHXZ        ffffc00000024c40 f   thrserv.obj
 0001:00023ca0       ?ProcessLoadExec@@YAHHPEADHPEAPEAD@Z ffffc00000024ca0 f   thrserv.obj
 0001:00023e30       ?ProcessSleep@@YAH_K@Z     ffffc00000024e30 f   thrserv.obj
 0001:00023eb0       ?ProcessWaitForTermination@@YAHH@Z ffffc00000024eb0 f   thrserv.obj
 0001:00023f00       ?SendSignal@@YAHHH@Z       ffffc00000024f00 f   thrserv.obj
 0001:00023f80       ?SetFileToProcess@@YAHHHH@Z ffffc00000024f80 f   thrserv.obj
 0001:00024090       ?SetSignal@@YAHHP6AXH@Z@Z  ffffc00000025090 f   thrserv.obj
 0001:000240e0       ?SignalReturn@@YAXH@Z      ffffc000000250e0 f   thrserv.obj
 0001:00024120       ?CreateTimer@@YAHHHE@Z     ffffc00000025120 f   timerserv.obj
 0001:00024170       ?DestroyTimer@@YAHH@Z      ffffc00000025170 f   timerserv.obj
 0001:000241b0       ?GetTimeOfDay@@YAHPEAX@Z   ffffc000000251b0 f   timerserv.obj
 0001:00024200       ?StartTimer@@YAHH@Z        ffffc00000025200 f   timerserv.obj
 0001:00024230       ?StopTimer@@YAHH@Z         ffffc00000025230 f   timerserv.obj
 0001:00024260       ?AuRemoveDSP@@YAXPEAU__au_dsp__@@@Z ffffc00000025260 f   sound.obj
 0001:00024300       ?AuSoundAddDSP@@YAXPEAU__au_dsp__@@@Z ffffc00000025300 f   sound.obj
 0001:00024390       ?AuSoundGetDSP@@YAPEAU__au_dsp__@@G@Z ffffc00000025390 f   sound.obj
 0001:000243f0       ?AuSoundIOControl@@YAHPEAU__VFS_NODE__@@HPEAX@Z ffffc000000253f0 f   sound.obj
 0001:00024560       ?AuSoundInitialise@@YAXXZ  ffffc00000025560 f   sound.obj
 0001:000246f0       ?AuSoundRead@@YA_KPEAU__VFS_NODE__@@0PEA_KI@Z ffffc000000256f0 f   sound.obj
 0001:00024740       ?AuSoundStart@@YAXXZ       ffffc00000025740 f   sound.obj
 0001:00024780       ?AuSoundStop@@YAXXZ        ffffc00000025780 f   sound.obj
 0001:000247c0       ?AuSoundWrite@@YA_KPEAU__VFS_NODE__@@0PEA_KI@Z ffffc000000257c0 f   sound.obj
 0001:000248b0       AuSoundGetBlock            ffffc000000258b0 f   sound.obj
 0001:00024a90       AuSoundRemoveDSP           ffffc00000025a90 f   sound.obj
 0001:00024b00       AuSoundSetCard             ffffc00000025b00 f   sound.obj
 0001:00024b40       AuStackCreate              ffffc00000025b40 f   stack.obj
 0001:00024b80       AuStackPop                 ffffc00000025b80 f   stack.obj
 0001:00024c10       AuStackPush                ffffc00000025c10 f   stack.obj
 0001:00024c80       ?atoi@@YAHPEBD@Z           ffffc00000025c80 f   stdio.obj
 0001:00024d50       ?atow@@YAXPEADPEBD@Z       ffffc00000025d50 f   stdio.obj
 0001:00024db0       ?ftoa@@YAPEADME@Z          ffffc00000025db0 f   stdio.obj
 0001:00024ee0       ?int_to_str@@YAPEBDH@Z     ffffc00000025ee0 f   stdio.obj
 0001:00025000       ?rand@@YAHXZ               ffffc00000026000 f   stdio.obj
 0001:00025090       ?srand@@YAXI@Z             ffffc00000026090 f   stdio.obj
 0001:000250d0       ?sztoa@@YAPEAD_KPEADH@Z    ffffc000000260d0 f   stdio.obj
 0001:000251f0       printf                     ffffc000000261f0 f   stdio.obj
 0001:00025230       memcmp                     ffffc00000026230 f   string.obj
 0001:000252e0       memcpy                     ffffc000000262e0 f   string.obj
 0001:00025320       memset                     ffffc00000026320 f   string.obj
 0001:00025380       strcat                     ffffc00000026380 f   string.obj
 0001:00025440       strchr                     ffffc00000026440 f   string.obj
 0001:000254a0       strcmp                     ffffc000000264a0 f   string.obj
 0001:00025540       strcpy                     ffffc00000026540 f   string.obj
 0001:000255c0       strdup                     ffffc000000265c0 f   string.obj
 0001:00025620       strlen                     ffffc00000026620 f   string.obj
 0001:00025680       strncat                    ffffc00000026680 f   string.obj
 0001:00025760       strncmp                    ffffc00000026760 f   string.obj
 0001:00025800       strncpy                    ffffc00000026800 f   string.obj
 0001:000258c0       AuAcquireMutex             ffffc000000268c0 f   mutex.obj
 0001:000259b0       AuCreateMutex              ffffc000000269b0 f   mutex.obj
 0001:00025a10       AuDeleteMutex              ffffc00000026a10 f   mutex.obj
 0001:00025a50       AuReleaseMutex             ffffc00000026a50 f   mutex.obj
 0001:00025b60       AuAcquireSpinlock          ffffc00000026b60 f   spinlock.obj
 0001:00025bf0       AuCreateSpinlock           ffffc00000026bf0 f   spinlock.obj
 0001:00025c70       AuDeleteSpinlock           ffffc00000026c70 f   spinlock.obj
 0001:00025ca0       AuReleaseSpinlock          ffffc00000026ca0 f   spinlock.obj
 0001:00025cf0       _Init_thread_abort         ffffc00000026cf0 f   threadsafe.obj
 0001:00025d20       _Init_thread_footer        ffffc00000026d20 f   threadsafe.obj
 0001:00025d50       _Init_thread_header        ffffc00000026d50 f   threadsafe.obj
 0001:00025d80       AuGetCurrentTime           ffffc00000026d80 f   time.obj
 0001:00025e00       ??2@YAPEAX_K@Z             ffffc00000026e00 f   _CRT.obj
 0001:00025e30       ??3@YAXPEAX@Z              ffffc00000026e30 f   _CRT.obj
 0001:00025e60       ??3@YAXPEAX_K@Z            ffffc00000026e60 f   _CRT.obj
 0001:00025e90       ??_U@YAPEAX_K@Z            ffffc00000026e90 f   _CRT.obj
 0001:00025ec0       ?AuICMPBind@@YAHPEAU_socket_@@PEAU_sockaddr_@@_K@Z ffffc00000026ec0 f   icmp.obj
 0001:00025ef0       ?AuICMPClose@@YAXPEAU_socket_@@@Z ffffc00000026ef0 f   icmp.obj
 0001:00025f20       ?AuICMPRead@@YA_KPEAU__VFS_NODE__@@0PEA_KI@Z ffffc00000026f20 f   icmp.obj
 0001:00025f60       ?AuICMPReceive@@YAHPEAU_socket_@@PEAU_msghdr_@@H@Z ffffc00000026f60 f   icmp.obj
 0001:00025f90       ?AuICMPSend@@YAHPEAU_socket_@@PEAU_msghdr_@@H@Z ffffc00000026f90 f   icmp.obj
 0001:00025fc0       ?AuICMPWrite@@YA_KPEAU__VFS_NODE__@@0PEA_KI@Z ffffc00000026fc0 f   icmp.obj
 0001:00026000       ?CreateICMPSocket@@YAHXZ   ffffc00000027000 f   icmp.obj
 0001:00026110       ?CreateIPv4Socket@@YAHHH@Z ffffc00000027110 f   ipv4.obj
 0001:00026180       ?IPv4CalculateChecksum@@YAGPEAU_ipv4head_@@@Z ffffc00000027180 f   ipv4.obj
 0001:00026230       ?IPv4HandlePacket@@YAXPEAX@Z ffffc00000027230 f   ipv4.obj
 0001:00026360       ?ip_ntoa@@YAXI@Z           ffffc00000027360 f   ipv4.obj
 0001:000263f0       ?AuCreateRawSocket@@YAHHH@Z ffffc000000273f0 f   socket.obj
 0001:00026500       ?AuCreateSocket@@YAHHHH@Z  ffffc00000027500 f   socket.obj
 0001:00026570       ?AuNetCreateSocket@@YAPEAU_socket_@@XZ ffffc00000027570 f   socket.obj
 0001:000265c0       ?AuRawSocketGetList@@YAPEAU_list_@@XZ ffffc000000275c0 f   socket.obj
 0001:000265f0       ?AuRawSocketReceive@@YAHPEAU_socket_@@PEAU_msghdr_@@H@Z ffffc000000275f0 f   socket.obj
 0001:000266d0       ?AuRawSocketSend@@YAHPEAU_socket_@@PEAU_msghdr_@@H@Z ffffc000000276d0 f   socket.obj
 0001:00026770       ?AuSocketAdd@@YAXPEAU_socket_@@PEAX_K@Z ffffc00000027770 f   socket.obj
 0001:00026800       ?AuSocketGet@@YAPEAXPEAU_socket_@@@Z ffffc00000027800 f   socket.obj
 0001:00026840       ?AuSocketInstall@@YAXXZ    ffffc00000027840 f   socket.obj
 0001:00026870       ?AuSocketSOSocket@@YAHPEAU_socket_@@HPEBX_K@Z ffffc00000027870 f   socket.obj
 0001:00026900       ?AuSocketSetOpt@@YAHHHHPEBX_K@Z ffffc00000027900 f   socket.obj
 0001:000269d0       ?AuTCPBind@@YAHPEAU_socket_@@PEAU_sockaddr_@@_K@Z ffffc000000279d0 f   tcp.obj
 0001:00026a00       ?AuTCPClose@@YAXPEAU_socket_@@@Z ffffc00000027a00 f   tcp.obj
 0001:00026a30       ?AuTCPConnect@@YAHPEAU_socket_@@PEAU_sockaddr_@@_K@Z ffffc00000027a30 f   tcp.obj
 0001:00026a60       ?AuTCPRead@@YA_KPEAU__VFS_NODE__@@0PEA_KI@Z ffffc00000027a60 f   tcp.obj
 0001:00026aa0       ?AuTCPReceive@@YAHPEAU_socket_@@PEAU_msghdr_@@H@Z ffffc00000027aa0 f   tcp.obj
 0001:00026ad0       ?AuTCPSend@@YAHPEAU_socket_@@PEAU_msghdr_@@H@Z ffffc00000027ad0 f   tcp.obj
 0001:00026b00       ?AuTCPWrite@@YA_KPEAU__VFS_NODE__@@0PEA_KI@Z ffffc00000027b00 f   tcp.obj
 0001:00026b40       ?CalculateTCPChecksum@@YAGPEAU_tcpcheckheader_@@PEAU_tcphead_@@PEAX_K@Z ffffc00000027b40 f   tcp.obj
 0001:00026db0       ?CreateTCPSocket@@YAHXZ    ffffc00000027db0 f   tcp.obj
 0001:00026ec0       ?AuUDPBind@@YAHPEAU_socket_@@PEAU_sockaddr_@@_K@Z ffffc00000027ec0 f   udp.obj
 0001:00026ef0       ?AuUDPClose@@YAXPEAU_socket_@@@Z ffffc00000027ef0 f   udp.obj
 0001:00026f20       ?AuUDPRead@@YA_KPEAU__VFS_NODE__@@0PEA_KI@Z ffffc00000027f20 f   udp.obj
 0001:00026f60       ?AuUDPReceive@@YAHPEAU_socket_@@PEAU_msghdr_@@H@Z ffffc00000027f60 f   udp.obj
 0001:00026f90       ?AuUDPSend@@YAHPEAU_socket_@@PEAU_msghdr_@@H@Z ffffc00000027f90 f   udp.obj
 0001:00026fc0       ?AuUDPWrite@@YA_KPEAU__VFS_NODE__@@0PEA_KI@Z ffffc00000027fc0 f   udp.obj
 0001:00027000       ?CreateUDPSocket@@YAHXZ    ffffc00000028000 f   udp.obj
 0002:00000000       ??_C@_0CI@CILLCAMD@AHCI?5bus?5?9?$DO?5?$CFd?0?5dev?5?9?$DO?5?$CFd?0?5func@ ffffc00000029000     ahci.obj
 0002:00000028       ??_C@_0BG@ELEJDLJH@ahci?1sata?5not?5found?5?6@ ffffc00000029028     ahci.obj
 0002:00000040       ??_C@_0BK@JGHJMPLA@AHCI?5PCIe?5MSI?5allocated?5?6@ ffffc00000029040     ahci.obj
 0002:00000060       ??_C@_0CA@ENIJEJNM@ahci?1sata?5version?5?$CFd?4?$CFd?5found?5?6@ ffffc00000029060     ahci.obj
 0002:00000080       ??_C@_0CC@BJMEDIGF@ahci?5sata?5drive?5found?5at?5port?5?$CF@ ffffc00000029080     ahci.obj
 0002:000000a8       ??_C@_0CE@JJODIKEB@ahci?5satapi?5drive?5found?5at?5port@ ffffc000000290a8     ahci.obj
 0002:000000d0       ??_C@_0CC@BPDOEHHH@ahci?5semb?5drive?5found?5at?5port?5?$CF@ ffffc000000290d0     ahci.obj
 0002:000000f8       ??_C@_0CA@JLCKCBKI@ahci?5pm?5drive?5found?5at?5port?5?$CFd?6@ ffffc000000290f8     ahci.obj
 0002:00000118       ??_C@_0BC@CNFGKFKE@?$FLAHCI?$FN?3Port?5Hung?6@ ffffc00000029118     ahcidsk.obj
 0002:00000130       ??_C@_0BG@GCMHDICL@?$FLAHCI?$FN?3?5Port?5error?5?$AN?6@ ffffc00000029130     ahcidsk.obj
 0002:00000148       ??_C@_0CF@GBFKBPNL@ahci?5Port?5Supports?5cold?5presenc@ ffffc00000029148     ahcidsk.obj
 0002:00000170       ??_C@_04PJHBAHNI@?1dev@    ffffc00000029170     aucon.obj
 0002:00000178       ??_C@_05KCJBMLII@graph@    ffffc00000029178     aucon.obj
 0002:00000180       ??_C@_01KMDKNFGN@?1@       ffffc00000029180     aucon.obj
 0002:00000184       ??_C@_01JOAMLHOP@?9@       ffffc00000029184     aucon.obj
 0002:00000188       ??_C@_01LFCBOECM@?4@       ffffc00000029188     aucon.obj
 0002:00000190       ??_C@_0BE@GNJNFAPE@Drivername?5?9?$DO?5?$CFs?5?$AN?6@ ffffc00000029190     audrv.obj
 0002:000001a8       ??_C@_0N@CCEOOCAH@AuDriverMain@ ffffc000000291a8     audrv.obj
 0002:000001b8       ??_C@_0P@JMPKLAAA@AuDriverUnload@ ffffc000000291b8     audrv.obj
 0002:000001c8       ??_C@_0DB@GGOFEGOE@?$FLAurora?$FN?3?5Initializing?5drivers?0@ ffffc000000291c8     audrv.obj
 0002:00000200       ??_C@_0L@NBKMLOMK@?1audrv?4cnf@ ffffc00000029200     audrv.obj
 0002:00000210       ??_C@_0EE@LLLAKFEF@?$FLAurora?$FN?3?5Driver?5Manager?5failed@ ffffc00000029210     audrv.obj
 0002:00000258       ??_C@_0BD@HPPMPBCK@KStack?5freed?5?$CFs?5?$AN?6@ ffffc00000029258     clean.obj
 0002:00000270       ??_C@_0BD@FIJNGMLN@T?9?$DOUentry?5?9?$DO?5?$CFx?5?$AN?6@ ffffc00000029270     clean.obj
 0002:00000288       ??_C@_0BK@CDKBMGGB@cleaning?5thread?5?9?$DO?5?$CFx?5?$CFs?6@ ffffc00000029288     clean.obj
 0002:000002a8       ??_C@_0BL@ENIMOCKM@Stack_?5?9?$DO?5?$CFx?5stack?5?9?$DO?5?$CFx?$AN?6@ ffffc000000292a8     clean.obj
 0002:000002c8       ??_C@_0BL@DBDDHKKG@Thread?5user?5stack?5freed?5?$AN?6@ ffffc000000292c8     clean.obj
 0002:000002e8       ??_C@_0BA@PIONPHIH@Thread?5freed?5?$AN?6@ ffffc000000292e8     clean.obj
 0002:000002f8       ??_C@_0P@GEKFLCGN@Uenty?5?9?$DO?5?$CFx?5?$AN?6@ ffffc000000292f8     clean.obj
 0002:00000308       ??_C@_0CF@IJHMLGCN@Used?5RAM?5?9?$DO?5?$CFd?5GB?5?5Avail?5?9?$DO?5?$CFd?5@ ffffc00000029308     clean.obj
 0002:00000330       ??_C@_0BD@FPAIDJKB@Process?5cleaned?5?$AN?6@ ffffc00000029330     clean.obj
 0002:00000348       ??_C@_0BB@LLAPAKF@Right?5clicked?5?$AN?6@ ffffc00000029348     mouse.obj
 0002:00000360       ??_C@_0BO@EPKMAGCI@PS2?5Mouse?5with?5scroll?5wheel?5?6@ ffffc00000029360     mouse.obj
 0002:00000380       ??_C@_09BOJJHODL@?1ps2kybrd@ ffffc00000029380     ps2kybrd.obj
 0002:00000390       ??_C@_0O@NPHEJAME@?1dev?1ps2kybrd@ ffffc00000029390     ps2kybrd.obj
 0002:000003a0       ??_C@_03FNIGJHAM@dev@      ffffc000000293a0     devfs.obj
 0002:000003a8       ??_C@_0BL@OENOBNFE@Listing?5Directory?5?9?$DO?5?$CFs?5?$AN?6@ ffffc000000293a8     devfs.obj
 0002:000003c3       ??_C@_00CNPNBAHC@@         ffffc000000293c3     devfs.obj
 0002:000003c4       ??_C@_06OIEJKIHP@Device@   ffffc000000293c4     devfs.obj
 0002:000003d0       ??_C@_09EOAFACM@Directory@ ffffc000000293d0     devfs.obj
 0002:000003e0       ??_C@_07NBCGADJA@Unknown@  ffffc000000293e0     devfs.obj
 0002:000003e8       ??_C@_0BJ@ENJNFDOI@File?5?9?$DO?5?5?$CFs?5mode?5?9?5?$CFs?5?$AN?6@ ffffc000000293e8     devfs.obj
 0002:00000408       ??_C@_0BF@OJGGANOJ@Listing?5device?5fs?5?$AN?6@ ffffc00000029408     devfs.obj
 0002:00000420       ??_C@_04LJLIIBC@Pipe@      ffffc00000029420     devfs.obj
 0002:00000428       ??_C@_0BA@PEJEKPNO@?$CFs?5mode?5?9?5?$CFs?5?$AN?6@ ffffc00000029428     devfs.obj
 0002:00000438       ??_C@_0P@EMNNIAPP@Mouse?5ioCtl?5?$AN?6@ ffffc00000029438     devinput.obj
 0002:00000448       ??_C@_04EMEKOJAM@mice@     ffffc00000029448     devinput.obj
 0002:00000450       ??_C@_05BPAHAOGO@kybrd@    ffffc00000029450     devinput.obj
 0002:00000458       ??_C@_02HAOIJKIC@?$CFc@    ffffc00000029458     Fat.obj
 0002:00000460       ??_C@_0BF@FKKOCNDK@Ret?5filename?5?9?$DO?$CFs?5?$AN?6@ ffffc00000029460     FatDir.obj
 0002:00000478       ??_C@_0P@NDONFAJC@FS?5Flag?5dir?5?$AN?6@ ffffc00000029478     FatDir.obj
 0002:00000488       ??_C@_0P@LIJOLHPC@freeing?5ret?5?$AN?6@ ffffc00000029488     FatDir.obj
 0002:00000498       ??_C@_0CA@JGMINDDG@?$FLFAT?$FN?3?5New?5Cluster?5allocated?5?$AN?6@ ffffc00000029498     FatFile.obj
 0002:000004b8       ??_C@_0CC@MFLDFGNL@EOC?5mark?5found?5in?5cluster?5?9?$DO?5?$CFx@ ffffc000000294b8     FatFile.obj
 0002:000004e0       ??_C@_0BN@BBHJCCGC@Pipe?5opened?5refcount?5?9?$DO?5?$CFd?5?6@ ffffc000000294e0     pipe.obj
 0002:00000500       ??_C@_0BN@NPMDJHEF@Pipe?5closed?5refcount?5?9?$DO?5?$CFd?5?6@ ffffc00000029500     pipe.obj
 0002:00000520       ??_C@_0BD@LACECMDD@Pipe?5proc?5?9?$DO?5?$CFs?5?$AN?6@ ffffc00000029520     pipe.obj
 0002:00000538       ??_C@_0BI@BEIFGIPP@Pipe?5Created?5?9?$DO?5?$CFd?5?$CFs?$AN?6@ ffffc00000029538     pipe.obj
 0002:00000550       ??_C@_04MKFKKHBG@pipe@     ffffc00000029550     pipe.obj
 0002:00000558       ??_C@_04FKKBDPBD@ttym@     ffffc00000029558     tty.obj
 0002:00000560       ??_C@_08BOCDAINB@?1dev?1tty@ ffffc00000029560     tty.obj
 0002:0000056c       ??_C@_04IOOAAAMM@ttys@     ffffc0000002956c     tty.obj
 0002:00000578       ??_C@_08BOGKMBPC@EFI?5PART@ ffffc00000029578     vdisk.obj
 0002:00000584       ??_C@_01EEMJAFIK@?6@       ffffc00000029584     vdisk.obj
 0002:00000588       ??_C@_0CJ@JIAAONDN@VDisk?5partition?5created?5startLB@ ffffc00000029588     vdisk.obj
 0002:000005b8       ??_C@_0BI@HLBBEFGK@vDisk?5partition?5guid?5?3?5@ ffffc000000295b8     vdisk.obj
 0002:000005d0       ??_C@_0BC@KGAAOHKL@0x?$CFx?90x?$CFx?90x?$CFx?90x@ ffffc000000295d0     vdisk.obj
 0002:000005e4       ??_C@_02NJNOFBBI@?$CFx@    ffffc000000295e4     vdisk.obj
 0002:000005e8       ??_C@_0CM@EOIAENHA@Vdisk?5registered?5name?5?9?$DO?5?$CFs?0?5se@ ffffc000000295e8     vdisk.obj
 0002:00000618       ??_C@_0BK@KEOIEEBA@FILE?5SYSTEM?5NAME?5?9?$DO?5?$CFs?5?$AN?6@ ffffc00000029618     vdisk.obj
 0002:00000638       ??_C@_0CM@DFIKACID@GPT?5Partition?5with?5Windows?5Part@ ffffc00000029638     _gpt.obj
 0002:00000668       ??_C@_0CB@KGEMJHCP@?$FLaurora?$FN?3?5Loading?5system?5fonts?5@ ffffc00000029668     ftmngr.obj
 0002:00000690       ??_C@_0L@BMFBAAPK@?1ftlst?4cnf@ ffffc00000029690     ftmngr.obj
 0002:000006a0       ??_C@_0EM@JFNPENHO@?$FLAurora?$FN?3?5Font?5Manager?5failed?5t@ ffffc000000296a0     ftmngr.obj
 0002:000006f0       ??_C@_0BD@HBHONKLG@Font?5Count?5?9?$DO?$CFd?5?$AN?6@ ffffc000000296f0     ftmngr.obj
 0002:00000708       ??_C@_0N@NHGMIOEM@Freeing?5up?5?6@ ffffc00000029708     acpiosl.obj
 0002:00000718       ??_C@_09ELJDMPBG@read?5mem?6@ ffffc00000029718     acpiosl.obj
 0002:00000728       ??_C@_0L@OGADBJME@Write?5mem?6@ ffffc00000029728     acpiosl.obj
 0002:00000738       ??_C@_0L@KNJNMFGD@read?5port?6@ ffffc00000029738     acpiosl.obj
 0002:00000748       ??_C@_0M@MFONOGEN@Write?5port?6@ ffffc00000029748     acpiosl.obj
 0002:00000758       ??_C@_0CF@EIFLIELN@?$FLACPI?$FN?3?5Data?5structures?5incompl@ ffffc00000029758     basicacpi.obj
 0002:00000780       ??_C@_0BK@IENMAIKJ@?$FLACPI?$FN?3?5Already?5enabled?5?6@ ffffc00000029780     basicacpi.obj
 0002:000007a0       ??_C@_0BL@LCNOKLDO@ACPI?5Enabled?5successfully?6@ ffffc000000297a0     basicacpi.obj
 0002:000007c0       ??_C@_0BG@KDHAOJPI@FADT?5Handler?5called?5?6@ ffffc000000297c0     basicacpi.obj
 0002:000007d8       ??_C@_0BH@PDLCJJN@acpi?5cpu?5count?5?9?$DO?5?$CFd?5?6@ ffffc000000297d8     basicacpi.obj
 0002:000007f0       ??_C@_0CE@KOPGPFHK@acpi?5ioapic?5base?5?9?$DO?5?$CFx?0?5gsi?5?9?$DO?5@ ffffc000000297f0     basicacpi.obj
 0002:00000818       ??_C@_0DF@IBGEACJK@acpi?5interrupt?5source?5override?5@ ffffc00000029818     basicacpi.obj
 0002:00000850       ??_C@_04FKBPEJO@FACP@      ffffc00000029850     basicacpi.obj
 0002:00000858       ??_C@_0BG@OJKENPPK@acpi?5fadt?5supported?5?6@ ffffc00000029858     basicacpi.obj
 0002:00000870       ??_C@_04EFEMGNDI@CIPA@     ffffc00000029870     basicacpi.obj
 0002:00000878       ??_C@_04DDFMNMDA@APIC@     ffffc00000029878     basicacpi.obj
 0002:00000880       ??_C@_0BG@FMCOMLOA@acpi?5madt?5supported?5?6@ ffffc00000029880     basicacpi.obj
 0002:00000898       ??_C@_04IIOFAFHH@SRAT@     ffffc00000029898     basicacpi.obj
 0002:000008a0       ??_C@_0BG@PGDDJOOM@acpi?5srat?5supported?5?6@ ffffc000000298a0     basicacpi.obj
 0002:000008b8       ??_C@_04DGDAHEGD@SLIT@     ffffc000000298b8     basicacpi.obj
 0002:000008c0       ??_C@_0BG@PPBPJKFO@acpi?5slit?5supported?5?6@ ffffc000000298c0     basicacpi.obj
 0002:000008d8       ??_C@_04NLDAELHJ@MCFG@     ffffc000000298d8     basicacpi.obj
 0002:000008e0       ??_C@_0BG@GJNLEGKF@acpi?5mcfg?5supported?5?6@ ffffc000000298e0     basicacpi.obj
 0002:000008f8       ??_C@_04DCNFMDLD@HPET@     ffffc000000298f8     basicacpi.obj
 0002:00000900       ??_C@_0BG@FJDEFDIL@acpi?5hpet?5supported?5?6@ ffffc00000029900     basicacpi.obj
 0002:00000918       ??_C@_04EPCNELPN@MCHI@     ffffc00000029918     basicacpi.obj
 0002:00000920       ??_C@_0DF@PJODNDG@acpi?5management?5controller?5host@ ffffc00000029920     basicacpi.obj
 0002:00000958       ??_C@_0L@BEBLEAIC@ap?5init?5?$AN?6@ ffffc00000029958     x86_64_ap_init.obj
 0002:00000968       ??_C@_0BL@ONOLHEGL@CPU?5ID?5?9?$DO?5?$CFd?0?5TSS?5?9?$DO?5?$CFx?5?$AN?6@ ffffc00000029968     x86_64_ap_init.obj
 0002:00000988       ??_C@_0CL@KIOOCGPI@?$AN?6?5?$CK?$CK?$CKARCH?5x86_64?5?3?5Kernel?5Pani@ ffffc00000029988     x86_64_exception.obj
 0002:000009c0       ??_C@_0FI@IAKHKFBH@?$FLAurora?5Kernel?$FN?3?5We?5are?5sorry?5t@ ffffc000000299c0     x86_64_exception.obj
 0002:00000a20       ??_C@_0EB@GBLAIMDC@?$FLAurora?5Kernel?$FN?3?5please?5inform?5@ ffffc00000029a20     x86_64_exception.obj
 0002:00000a68       ??_C@_0DD@KEEKPGHM@?$FLAurora?5Kernel?$FN?3?5Below?5is?5the?5c@ ffffc00000029a68     x86_64_exception.obj
 0002:00000aa0       ??_C@_0CP@DDGNNPIN@?$FLAurora?5Kernel?$FN?3?5Current?5Proces@ ffffc00000029aa0     x86_64_exception.obj
 0002:00000ad0       ??_C@_0FB@CKOCEJAF@?$FLAurora?5Kernel?$FN?3?5If?5anything?5no@ ffffc00000029ad0     x86_64_exception.obj
 0002:00000b24       ??_C@_06BGDIMDGA@?5?$CFs?5?$AN?6@ ffffc00000029b24     x86_64_exception.obj
 0002:00000b30       ??_C@_0N@EBPCEKFE@?6Divide?5by?50@ ffffc00000029b30     x86_64_exception.obj
 0002:00000b40       ??_C@_0P@KPEOJEOL@Divide?5by?50?5?$AN?6@ ffffc00000029b40     x86_64_exception.obj
 0002:00000b50       ??_C@_0BG@OPGPDIMM@__PROCESSOR_DATA__?5?$AN?6@ ffffc00000029b50     x86_64_exception.obj
 0002:00000b68       ??_C@_0N@ODPGJOJJ@RIP?5?9?$DO?5?$CFx?5?$AN?6@ ffffc00000029b68     x86_64_exception.obj
 0002:00000b78       ??_C@_0N@FNJJLAE@RSP?5?9?$DO?5?$CFx?5?$AN?6@ ffffc00000029b78     x86_64_exception.obj
 0002:00000b88       ??_C@_0BA@LFJDMIBB@RFLAGS?5?9?$DO?5?$CFx?5?$AN?6@ ffffc00000029b88     x86_64_exception.obj
 0002:00000b98       ??_C@_0BC@HFIDFDNB@?6Single?5Step?5Trap@ ffffc00000029b98     x86_64_exception.obj
 0002:00000bb0       ??_C@_0CD@CODJEILI@?6NMI?5?$FLNon?9Muskable?9Interrupt?$FN?5T@ ffffc00000029bb0     x86_64_exception.obj
 0002:00000bd8       ??_C@_0BB@BPIIODKN@?6Breakpoint?5Trap@ ffffc00000029bd8     x86_64_exception.obj
 0002:00000bf0       ??_C@_0P@HPCJBHIE@?6Overflow?5Trap@ ffffc00000029bf0     x86_64_exception.obj
 0002:00000c00       ??_C@_0BD@OIHLKGEP@?6Bound?5Check?5Fault@ ffffc00000029c00     x86_64_exception.obj
 0002:00000c18       ??_C@_0BI@DJAKOHAL@Invalid?5Opcode?5Fault?5?$AN?6@ ffffc00000029c18     x86_64_exception.obj
 0002:00000c30       ??_C@_0BH@BHCKDMDH@__PROCESSOR?5TRACE__?5?$AN?6@ ffffc00000029c30     x86_64_exception.obj
 0002:00000c48       ??_C@_0L@DLBLLKFH@RIP?5?9?$DO?5?$CFx?6@ ffffc00000029c48     x86_64_exception.obj
 0002:00000c58       ??_C@_0N@IJHHEMAG@Stack?5?9?$DO?5?$CFx?6@ ffffc00000029c58     x86_64_exception.obj
 0002:00000c68       ??_C@_0O@HPBDGHPH@RFLAGS?5?9?$DO?5?$CFx?6@ ffffc00000029c68     x86_64_exception.obj
 0002:00000c78       ??_C@_09LNGLKLCE@CS?5?9?$DO?5?$CFx?6@ ffffc00000029c78     x86_64_exception.obj
 0002:00000c88       ??_C@_09JKMFCKMM@SS?5?9?$DO?5?$CFx?6@ ffffc00000029c88     x86_64_exception.obj
 0002:00000c98       ??_C@_0BB@DOMGDLHF@?6No?5Device?5Fault@ ffffc00000029c98     x86_64_exception.obj
 0002:00000cb0       ??_C@_0BE@NLNKFOBM@?6Double?5Fault?5Abort@ ffffc00000029cb0     x86_64_exception.obj
 0002:00000cc8       ??_C@_0BE@CHCACOMN@?6Invalid?5TSS?5Fault?5@ ffffc00000029cc8     x86_64_exception.obj
 0002:00000ce0       ??_C@_0BC@EJLFDPKP@?6No?5Segment?5Fault@ ffffc00000029ce0     x86_64_exception.obj
 0002:00000cf8       ??_C@_0BB@HALEMCKC@?6Stack?5Fault?5at?5@ ffffc00000029cf8     x86_64_exception.obj
 0002:00000d10       ??_C@_0P@BEIIBHMJ@Stack?5?9?$DO?5?$CFx?5?$AN?6@ ffffc00000029d10     x86_64_exception.obj
 0002:00000d20       ??_C@_0BG@NKPJLLBP@CS?5?9?$DO?5?$CFx?0?5SS?5?9?$DO?5?$CFx?5?$AN?6@ ffffc00000029d20     x86_64_exception.obj
 0002:00000d38       ??_C@_0BO@DLPLGGDB@Current?5thread?5?9?$DOid?5?$CFd?5?0?5?$CFs?$AN?6@ ffffc00000029d38     x86_64_exception.obj
 0002:00000d58       ??_C@_0BL@BCIGLIE@Genral?5Protection?5Fault?5?$AN?6@ ffffc00000029d58     x86_64_exception.obj
 0002:00000d78       ??_C@_0BM@CNDNHPEF@General?5Protection?5Fault?5?$AN?6@ ffffc00000029d78     x86_64_exception.obj
 0002:00000d98       ??_C@_0BF@OEDHGALK@Thread?5name?5?9?$DO?5?$CFs?5?$AN?6@ ffffc00000029d98     x86_64_exception.obj
 0002:00000db0       ??_C@_0BF@GPMBGFMG@Process?5pid?5?9?$DO?5?$CFd?5?$AN?6@ ffffc00000029db0     x86_64_exception.obj
 0002:00000dc8       ??_C@_0BG@PCABIPNJ@Process?5name?5?9?$DO?5?$CFs?5?$AN?6@ ffffc00000029dc8     x86_64_exception.obj
 0002:00000de0       ??_C@_0BB@OINBMLCH@Page?5Fault?5?$CB?$CB?5?$AN?6@ ffffc00000029de0     x86_64_exception.obj
 0002:00000df8       ??_C@_0BE@JLFIKHEK@Page?5Not?5Present?5?$AN?6@ ffffc00000029df8     x86_64_exception.obj
 0002:00000e10       ??_C@_0BA@GIGFDIOG@Read?1Write?5?$CFx?$AN?6@ ffffc00000029e10     x86_64_exception.obj
 0002:00000e20       ??_C@_0CB@GIMDGBIE@Virtual?5Address?5Aligned?5?9?$DO?5?$CFx?5?$AN@ ffffc00000029e20     x86_64_exception.obj
 0002:00000e48       ??_C@_0BE@HGFGIJLF@User?5bit?5not?5set?5?$AN?6@ ffffc00000029e48     x86_64_exception.obj
 0002:00000e60       ??_C@_0BB@JGKFHPN@Reserved?5page?5?$AN?6@ ffffc00000029e60     x86_64_exception.obj
 0002:00000e78       ??_C@_0BA@EFEPIAFE@Invalid?5page?5?$AN?6@ ffffc00000029e78     x86_64_exception.obj
 0002:00000e88       ??_C@_0BJ@MPFJDHA@Virtual?5Address?5?9?$DO?5?$CFx?5?$AN?6@ ffffc00000029e88     x86_64_exception.obj
 0002:00000ea8       ??_C@_0CB@EGGAFDHO@Virtual?5Address?5aligned?5?9?$DO?5?$CFx?5?$AN@ ffffc00000029ea8     x86_64_exception.obj
 0002:00000ed0       ??_C@_0CB@FDCJCAAG@RIP?5?9?$DO?5?$CFx?5?0?5Actual?5addr?5?9?$DO?5?$CFx?5?$AN@ ffffc00000029ed0     x86_64_exception.obj
 0002:00000ef8       ??_C@_0L@GOHGINKM@?6FPU?5Fault@ ffffc00000029ef8     x86_64_exception.obj
 0002:00000f08       ??_C@_0CD@CNGJPDL@?6Alignment?5Check?5Fault?5at?5addre@ ffffc00000029f08     x86_64_exception.obj
 0002:00000f30       ??_C@_0BF@MNKGAIFI@?6Machine?5Check?5Abort@ ffffc00000029f30     x86_64_exception.obj
 0002:00000f48       ??_C@_0BE@LFDDCDK@?6?5SIMD?5FPU?5Faul?5?$AN?6t@ ffffc00000029f48     x86_64_exception.obj
 0002:00000f60       ??_C@_0BI@CEHMAKJG@?6__CPU?5Informations__?5?6@ ffffc00000029f60     x86_64_exception.obj
 0002:00000f78       ??_C@_0N@PNNODPEJ@?5RIP?5?9?$DO?5?$CFx?5?6@ ffffc00000029f78     x86_64_exception.obj
 0002:00000f88       ??_C@_0N@LBIHKDAG@?5RSP?5?9?$DO?5?$CFx?5?6@ ffffc00000029f88     x86_64_exception.obj
 0002:00000f98       ??_C@_0BA@MAMEGMKL@?5RFLAGS?5?9?$DO?5?$CFx?5?6@ ffffc00000029f98     x86_64_exception.obj
 0002:00000fa8       ??_C@_0BA@JGMDELOL@?5MXCSR?5bit?5?5?9?9?5@ ffffc00000029fa8     x86_64_exception.obj
 0002:00000fb8       ??_C@_0DN@FBCOFCGJ@?$CK?$CK?$CK?5?$FLx64_idt?$FN?5x64_default_handl@ ffffc00000029fb8     x86_64_idt.obj
 0002:00000ff8       ??_C@_0BD@BJBFFDAL@_idle?5id?5?9?$DO?5?$CFd?5?5?$AN?6@ ffffc00000029ff8     x86_64_sched.obj
 0002:00001010       ??_C@_07KGMHGBPD@IDLE?5?$AN?6@ ffffc0000002a010     x86_64_sched.obj
 0002:00001018       ??_C@_04IBDNPPCI@Idle@     ffffc0000002a018     x86_64_sched.obj
 0002:00001020       ??_C@_0N@DONLFIAN@CR3?5?9?$DO?5?$CFx?5?$AN?6@ ffffc0000002a020     x86_64_sched.obj
 0002:00001030       ??_C@_0BK@GCFKEINK@signal?5ret?5stack?5?9?$DO?5?$CFx?5?$AN?6@ ffffc0000002a030     x86_64_signal.obj
 0002:0000104c       ??_C@_03OFAPEBGM@?$CFs?6@  ffffc0000002a04c     x86_64_systable.obj
 0002:00001050       ??_C@_0CL@IFOGFJIG@BootDev?5HID?5?9?$DO?5?$CFx?0?5UID?5?9?$DO?5?$CFx?0?5C@ ffffc0000002a050     init.obj
 0002:00001080       ??_C@_0BH@EIHIPOGA@Boot?5freeing?5kernel?5?$AN?6@ ffffc0000002a080     init.obj
 0002:00001098       ??_C@_07PPNFPEAB@postbox@  ffffc0000002a098     postbox.obj
 0002:000010a0       ??_C@_03JACLIBNI@exe@      ffffc0000002a0a0     loader.obj
 0002:000010a8       ??_C@_0CE@NLBHCAEA@?$FLaurora?$FN?3?5non?9executable?5proces@ ffffc0000002a0a8     loader.obj
 0002:000010d0       ??_C@_0BH@OHAAMPLD@No?5File?5found?5?9?$DO?5?$CFs?5?$AN?6@ ffffc0000002a0d0     loader.obj
 0002:000010e8       ??_C@_0L@PMEAHFBD@?1xeldr?4exe@ ffffc0000002a0e8     loader.obj
 0002:000010f8       ??_C@_0CD@GHFDEDL@Arguments?5address?5already?5mappe@ ffffc0000002a0f8     loader.obj
 0002:00001120       ??_C@_0CN@DPKOBKEF@Request?5page?5not?5aligned?5to?5pag@ ffffc0000002a120     kmalloc.obj
 0002:00001150       ??_C@_0BF@DDMMBABB@mmap?5reading?5file?5?$AN?6@ ffffc0000002a150     mmap.obj
 0002:00001168       ??_C@_0BN@BEEDHOIO@SHOBJ?5newly?5created?5?9?$DO?5?$CFs?5?$AN?6@ ffffc0000002a168     mmap.obj
 0002:00001188       ??_C@_0BG@JHLECFAA@MemUnmap?5len?5?9?$DO?5?$CFd?5?$AN?6@ ffffc0000002a188     mmap.obj
 0002:000011a0       ??_C@_0BP@HEHILAKC@Mem?5Unmap?5len?5aligned?5?9?$DO?5?$CFd?5?$AN?6@ ffffc0000002a1a0     mmap.obj
 0002:000011c0       ??_C@_0CK@FIICNEML@Kernel?5Panic?$CB?$CB?$CB?5No?5more?5physica@ ffffc0000002a1c0     pmmngr.obj
 0002:000011f0       ??_C@_0DB@EJAGMDND@?$FLSHM?$FN?5Creation?5failed?0?5key?5exce@ ffffc0000002a1f0     shm.obj
 0002:00001228       ??_C@_0BH@FKOKJMBM@Closing?5index?5?9?$DO?5?$CFd?5?$AN?6@ ffffc0000002a228     shm.obj
 0002:00001240       ??_C@_0BP@NOCMLJGN@?$CFs?5Unmapping?5shm?5?9?$DO?$CFd?5count?5?$AN?6@ ffffc0000002a240     shm.obj
 0002:00001260       ??_C@_0BH@KJKCGEJN@Unmapping?5shm?5?9?$DO?5?$CFx?5?$AN?6@ ffffc0000002a260     shm.obj
 0002:00001278       ??_C@_0BA@BOFDAJAA@ARP?5Setuped?5?$CFx?6@ ffffc0000002a278     arp.obj
 0002:00001288       ??_C@_08IJMNAICA@?1dev?1net@ ffffc0000002a288     aunet.obj
 0002:00001294       ??_C@_05IBEDHKEB@e1000@    ffffc0000002a294     aunet.obj
 0002:000012a0       ??_C@_0BH@CPLBFLOA@Ethernet?5setuped?5?$CFd?5?$AN?6@ ffffc0000002a2a0     ethernet.obj
 0002:000012b8       ??_C@_0P@OALOLLDO@MSI?9X?5found?5?$AN?6@ ffffc0000002a2b8     pcie.obj
 0002:000012c8       ??_C@_0O@NBCIPHIM@Fname?5?9?$DO?5?$CFs?5?6@ ffffc0000002a2c8     pe.obj
 0002:000012d8       ??_C@_0CB@EDINLNKI@Relocating?5executable?5dir64?5?$CFx?$AN@ ffffc0000002a2d8     pe.obj
 0002:000012fc       ??_C@_05FLGKIAGL@_root@    ffffc0000002a2fc     process.obj
 0002:00001304       ??_C@_06JGIPHBBD@?9about@  ffffc0000002a304     process.obj
 0002:00001310       ??_C@_09CJHODMBN@?1init?4exe@ ffffc0000002a310     process.obj
 0002:00001320       ??_C@_0CG@NDDENFOC@?$FLaurora?$FN?3?5cannot?5exit?5root?5proc@ ffffc0000002a320     process.obj
 0002:00001348       ??_C@_0CG@CLJHJPHC@Closing?5file?5?9?$DO?5?$CFs?5?0?5address?5?9?$DO@ ffffc0000002a348     process.obj
 0002:00001370       ??_C@_0BB@CKKJDFMD@unmapping?5mem?5?$AN?6@ ffffc0000002a370     process.obj
 0002:00001388       ??_C@_0BJ@FOBIOCEF@closing?5process?5?9?$DO?5?$CFs?5?$AN?6@ ffffc0000002a388     process.obj
 0002:000013a8       ??_C@_0BG@NKGJFMOM@Opening?5file?5?9?$DO?5?$CFs?5?$AN?6@ ffffc0000002a3a8     fileserv.obj
 0002:000013c0       ??_C@_0BE@KOBNHDHJ@Closing?5fs?5?9?$DO?5?$CFs?5?$AN?6@ ffffc0000002a3c0     fileserv.obj
 0002:000013d8       ??_C@_0BK@LJOPCOLI@dir?5opening?5?9?$DO?5?$CFs?5?0?5?$CFx?5?$AN?6@ ffffc0000002a3d8     fileserv.obj
 0002:000013f8       ??_C@_0CC@MLFDOPFJ@Returning?5error?5heap?5mem?5?9?$DO?5?$CFd?5@ ffffc0000002a3f8     mmserv.obj
 0002:00001420       ??_C@_0BE@CEKJJHAF@Failed?5to?5map?5?$CFx?5?$AN?6@ ffffc0000002a420     mmserv.obj
 0002:00001438       ??_C@_0CE@CHBJELCJ@Returning?5error?5heap?5unmap?5?9?$DO?5?$CF@ ffffc0000002a438     mmserv.obj
 0002:00001460       ??_C@_0BD@PDJGFKAF@No?5process?5found?5?6@ ffffc0000002a460     thrserv.obj
 0002:00001478       ??_C@_0BN@JKCEMIBF@Process?5launched?5failed?5?$CFs?$AN?6@ ffffc0000002a478     thrserv.obj
 0002:00001498       ??_C@_0N@DJMEAOIO@Returning?5?$AN?6@ ffffc0000002a498     thrserv.obj
 0002:000014a8       ??_C@_0BB@CCMNFELK@Signal?5Return?5?$AN?6@ ffffc0000002a4a8     thrserv.obj
 0002:000014bc       ??_C@_05MHNANJII@sound@    ffffc0000002a4bc     sound.obj
 0002:000014c8       ??_C@_0BB@JGGOGLEG@0123456789ABCDEF@ ffffc0000002a4c8     stdio.obj
 0002:000014dc       __real@41200000            ffffc0000002a4dc     stdio.obj
 0002:000014e0       __real@bf800000            ffffc0000002a4e0     stdio.obj
 0002:000014e8       ??_C@_0BC@FKNNBGMF@Mutex?5acquired?5?$AN?6@ ffffc0000002a4e8     mutex.obj
 0002:00001500       ??_C@_0BC@MCOMLLKC@Mutex?5released?5?$AN?6@ ffffc0000002a500     mutex.obj
 0002:00001518       ??_C@_0CM@IGBLDAGO@?$FLaurora?5kernel?$FN?3?5lock?5?9?$DO?5?$CFx?5is?5@ ffffc0000002a518     spinlock.obj
 0002:00001544       ??_C@_06BAMEHABM@Aurora@   ffffc0000002a544     version.obj
 0002:00001550       ??_C@_0M@NPOAOGCF@Jul?5?51?52024@ ffffc0000002a550     version.obj
 0002:00001560       ??_C@_08FJLGNDIC@10?317?347@ ffffc0000002a560     version.obj
 0002:00001570       ??_C@_0BH@CNPLJGJF@ICMP?5Socket?5created?5?$AN?6@ ffffc0000002a570     icmp.obj
 0002:00001588       ??_C@_0BA@MLEJAGLE@IP?5?9?$DO?5?$CFd?4?$CFd?4?$CFd?4@ ffffc0000002a588     ipv4.obj
 0002:00001598       ??_C@_05CHOLMPLD@?$CFd?5?$AN?6@ ffffc0000002a598     ipv4.obj
 0002:000015a0       ??_C@_0CH@GFMJMPBD@UDP?5Packet?5received?5dest?5port?5?9@ ffffc0000002a5a0     ipv4.obj
 0002:000015c8       ??_C@_0BH@EJJKFFBP@Device?5binding?5?9?$DO?$CFs?5?$AN?6@ ffffc0000002a5c8     socket.obj
 0002:000015e0       ??_C@_0BB@CBPLOCMO@Device?5binded?5?$AN?6@ ffffc0000002a5e0     socket.obj
 0002:000015f8       ??_C@_0BG@HGJDMLEC@TCP?5Socket?5created?5?$AN?6@ ffffc0000002a5f8     tcp.obj
 0002:00001610       ??_C@_0BG@IFMCJNK@UDP?5Socket?5created?5?$AN?6@ ffffc0000002a610     udp.obj
 0002:00001644       __volatile_metadata        ffffc0000002a644     <linker-defined>
 0003:000001f0       ?kernelName@@3PEBDEB       ffffc0000002d1f0     version.obj
 0003:000001f8       ?_kernel_major_version@@3HA ffffc0000002d1f8     version.obj
 0003:00000200       ?_kernel_build_date@@3PEBDEB ffffc0000002d200     version.obj
 0003:00000208       ?_kernel_build_time@@3PEBDEB ffffc0000002d208     version.obj
 0003:00000210       _fltused                   ffffc0000002d210     _CRT.obj
 0003:00000214       default_irq_handlers       ffffc0000002d214     x86_64_intrs.obj
 0003:00000b10       ?HBABar@@3PEAXEA           ffffc0000002db10     ahci.obj
 0003:00000b20       ?font_data@@3PEAEEA        ffffc0000002db20     aucon.obj
 0003:00000b28       ?console_x@@3IA            ffffc0000002db28     aucon.obj
 0003:00000b2c       ?console_y@@3IA            ffffc0000002db2c     aucon.obj
 0003:00000b30       ?__framebuffer@@3PEAIEA    ffffc0000002db30     aucon.obj
 0003:00000b38       ?aucon@@3PEAU_aucon_@@EA   ffffc0000002db38     aucon.obj
 0003:00000b40       ?early_@@3_NA              ffffc0000002db40     aucon.obj
 0003:00000b48       ?_print_func@@3P6AXPEBDZZEA ffffc0000002db48     aucon.obj
 0003:00000b50       ?drivers@@3PAPEAU_aurora_driver_@@A ffffc0000002db50     audrv.obj
 0003:00001350       ?au_devices@@3PAPEAU_aurora_device_@@A ffffc0000002e350     audrv.obj
 0003:00001b60       ?timerFirst@@3PEAU_timer_@@EA ffffc0000002eb60     autimer.obj
 0003:00001b68       ?timerLast@@3PEAU_timer_@@EA ffffc0000002eb68     autimer.obj
 0003:00001b70       ?__ps2mouse@@3PEAU__ps2mouse__@@EA ffffc0000002eb70     mouse.obj
 0003:00001b78       ?__rtc@@3PEAU__rtc__@@EA   ffffc0000002eb78     rtc.obj
 0003:00001b80       ?mice_@@3PEAU__VFS_NODE__@@EA ffffc0000002eb80     devinput.obj
 0003:00001b88       ?kybrd_@@3PEAU__VFS_NODE__@@EA ffffc0000002eb88     devinput.obj
 0003:00001b90       ?pipeFS@@3PEAU__VFS_NODE__@@EA ffffc0000002eb90     pipe.obj
 0003:00001b98       ?master_count@@3_KA        ffffc0000002eb98     tty.obj
 0003:00001ba0       ?slave_count@@3_KA         ffffc0000002eba0     tty.obj
 0003:00001ba8       ?root@@3PEAU__tty__@@EA    ffffc0000002eba8     tty.obj
 0003:00001bb0       ?last@@3PEAU__tty__@@EA    ffffc0000002ebb0     tty.obj
 0003:00001bc0       ?VdiskArray@@3PAPEAU_VDISK_@@A ffffc0000002ebc0     vdisk.obj
 0003:00001c90       ?__RootContainer@@3PEAU__VFS_Container__@@EA ffffc0000002ec90     vfs.obj
 0003:00001c98       ?__RootFS@@3PEAU__VFS_NODE__@@EA ffffc0000002ec98     vfs.obj
 0003:00001ca0       ?_vfs_debug_on@@3_NA       ffffc0000002eca0     vfs.obj
 0003:00001ca8       ?firstSeg@@3PEAU_font_seg_@@EA ffffc0000002eca8     ftmngr.obj
 0003:00001cb0       ?lastSeg@@3PEAU_font_seg_@@EA ffffc0000002ecb0     ftmngr.obj
 0003:00001cb8       ?font_conf_data@@3PEAEEA   ffffc0000002ecb8     ftmngr.obj
 0003:00001cc0       ?fontKey@@3GA              ffffc0000002ecc0     ftmngr.obj
 0003:00001cc4       ?totalSysFonts@@3HA        ffffc0000002ecc4     ftmngr.obj
 0003:00001ce0       ?__AuroraBasicAcpi@@3PEAU_aurora_acpi_@@EA ffffc0000002ece0     basicacpi.obj
 0003:00001ce8       ?__PCIESupported@@3_NA     ffffc0000002ece8     basicacpi.obj
 0003:00001cf0       ?__ACPIRSDP@@3PEAXEA       ffffc0000002ecf0     basicacpi.obj
 0003:00001cf8       ?_IOAPICBase@@3PEAXEA      ffffc0000002ecf8     ioapic.obj
 0003:00001d00       ?cpus@@3PAPEAU_cpu_@@A     ffffc0000002ed00     pcpu.obj
 0003:00002500       ?_tss@@3PEAU0@EA           ffffc0000002f500     x86_64_cpu.obj
 0003:00002508       ?_fxsave@@3_NA             ffffc0000002f508     x86_64_cpu.obj
 0003:00002509       ?__ApStarted@@3_NA         ffffc0000002f509     x86_64_cpu.obj
 0003:00002510       ?cpuMhz@@3_KA              ffffc0000002f510     x86_64_cpu.obj
 0003:00002518       ?tscBasisTiming@@3_KA      ffffc0000002f518     x86_64_cpu.obj
 0003:00002520       ?bootTime@@3_KA            ffffc0000002f520     x86_64_cpu.obj
 0003:00003db0       ?thread_list_head@@3PEAU_au_thread_@@EA ffffc00000030db0     x86_64_sched.obj
 0003:00003db8       ?thread_list_last@@3PEAU_au_thread_@@EA ffffc00000030db8     x86_64_sched.obj
 0003:00003dc0       ?blocked_thr_head@@3PEAU_au_thread_@@EA ffffc00000030dc0     x86_64_sched.obj
 0003:00003dc8       ?blocked_thr_last@@3PEAU_au_thread_@@EA ffffc00000030dc8     x86_64_sched.obj
 0003:00003dd0       ?trash_thr_head@@3PEAU_au_thread_@@EA ffffc00000030dd0     x86_64_sched.obj
 0003:00003dd8       ?trash_thr_last@@3PEAU_au_thread_@@EA ffffc00000030dd8     x86_64_sched.obj
 0003:00003de0       ?_x86_64_sched_enable@@3_NA ffffc00000030de0     x86_64_sched.obj
 0003:00003de1       ?_x86_64_sched_init@@3_NA  ffffc00000030de1     x86_64_sched.obj
 0003:00003de8       ?_idle_thr@@3PEAU_au_thread_@@EA ffffc00000030de8     x86_64_sched.obj
 0003:00003df0       ?_idle_lock@@3PEAU_spinlock_@@EA ffffc00000030df0     x86_64_sched.obj
 0003:00003e08       _signal_debug              ffffc00000030e08     x86_64_signal.obj
 0003:00003e10       ?firstBox@@3PEAU_postbox_@@EA ffffc00000030e10     postbox.obj
 0003:00003e18       ?lastBox@@3PEAU_postbox_@@EA ffffc00000030e18     postbox.obj
 0003:00003e20       ?_PostBoxRootCreated@@3_NA ffffc00000030e20     postbox.obj
 0003:00003e28       ?loader_lock@@3PEAU_spinlock_@@EA ffffc00000030e28     loader.obj
 0003:00003e30       ?loader_mutex@@3PEAU_mutex_@@EA ffffc00000030e30     loader.obj
 0003:00003e38       ?is_loader_busy@@3_NA      ffffc00000030e38     loader.obj
 0003:00003e40       ?l_freePages@@3PAPEAUboundary_tag@@A ffffc00000030e40     liballoc.obj
 0003:00003f40       ?l_completePages@@3PAHA    ffffc00000030f40     liballoc.obj
 0003:00003fc8       ?shmmaplist@@3PEAU_list_@@EA ffffc00000030fc8     mmap.obj
 0003:00003fd0       ?_FreeMemory@@3_KA         ffffc00000030fd0     pmmngr.obj
 0003:00003fd8       ?_ReservedMemory@@3_KA     ffffc00000030fd8     pmmngr.obj
 0003:00003fe0       ?_UsedMemory@@3_KA         ffffc00000030fe0     pmmngr.obj
 0003:00003fe8       ?_RamBitmapIndex@@3_KA     ffffc00000030fe8     pmmngr.obj
 0003:00003ff0       ?_TotalRam@@3_KA           ffffc00000030ff0     pmmngr.obj
 0003:00003ff8       ?_BitmapSize@@3_KA         ffffc00000030ff8     pmmngr.obj
 0003:00004000       ?_HigherHalf@@3_NA         ffffc00000031000     pmmngr.obj
 0003:00004008       ?RamBitmap@@3VBitmap@@A    ffffc00000031008     pmmngr.obj
 0003:00004018       ?shm_list@@3PEAU_list_@@EA ffffc00000031018     shm.obj
 0003:00004020       ?shm_id@@3GA               ffffc00000031020     shm.obj
 0003:00004028       ?shmlock@@3PEAU_spinlock_@@EA ffffc00000031028     shm.obj
 0003:00004030       ?_RootPaging@@3PEA_KEA     ffffc00000031030     vmmngr.obj
 0003:00004038       ?_MmioBase@@3PEA_KEA       ffffc00000031038     vmmngr.obj
 0003:00004040       ?netadapters@@3PEAUhashmap@@EA ffffc00000031040     aunet.obj
 0003:00004048       ?proc_first@@3PEAU_au_proc_@@EA ffffc00000031048     process.obj
 0003:00004050       ?proc_last@@3PEAU_au_proc_@@EA ffffc00000031050     process.obj
 0003:00004058       ?root_proc@@3PEAU_au_proc_@@EA ffffc00000031058     process.obj
 0003:00004060       ?process_mutex@@3PEAU_mutex_@@EA ffffc00000031060     process.obj
 0003:00004068       ?_Registered_dev@@3PEAU_SoundDev_@@EA ffffc00000031068     sound.obj
 0003:00004070       ?dsp_first@@3PEAU__au_dsp__@@EA ffffc00000031070     sound.obj
 0003:00004078       ?dsp_last@@3PEAU__au_dsp__@@EA ffffc00000031078     sound.obj
 0003:00004080       ?mixbuf@@3PEAEEA           ffffc00000031080     sound.obj
 0003:00004088       ?_audio_started_@@3_NA     ffffc00000031088     sound.obj
 0003:00004089       ?_audio_stopped_@@3_NA     ffffc00000031089     sound.obj
 0003:00004090       ?integer_buffer@@3PADA     ffffc00000031090     stdio.obj
 0003:000040b0       ?float_to_string_output@@3PADA ffffc000000310b0     stdio.obj
 0003:000040d0       ?early_spin@@3PAU_spinlock_@@A ffffc000000310d0     spinlock.obj
 0003:00004114       ?_kernel_minor_version@@3HA ffffc00000031114     version.obj
 0003:00004118       ?_kernel_patch_version@@3HA ffffc00000031118     version.obj
 0003:00004120       ?raw_socket_list@@3PEAU_list_@@EA ffffc00000031120     socket.obj
 0003:00004128       _Init_thread_epoch         ffffc00000031128     <common>
 0003:0000412c       _tls_index                 ffffc0000003112c     <common>
 0003:00004130       _tls_array                 ffffc00000031130     <common>

 entry point at        0001:000192a0

 Static symbols

 0000:00000000       .debug$S                   ffffc00000000000     Kernel.exp
 0000:fffca000       _volmd                     ffffc00000000000     apic.obj
 0000:fffca000       _volmd                     ffffc00000000000     apic.obj
 0000:fffca000       _volmd                     ffffc00000000000     apic.obj
 0002:fffd7000       $unwind$??$raw_offset@PEAU_IMAGE_NT_HEADERS_PE32PLUS@@PEAU_IMAGE_DOS_HEADER_@@@@YAPEAU_IMAGE_NT_HEADERS_PE32PLUS@@PEAU_IMAGE_DOS_HEADER_@@H@Z ffffc00000000000     basicacpi.obj
 0002:fffd7000       $unwind$??$raw_offset@PECIPEAX@@YAPECIPEAXH@Z ffffc00000000000     ioapic.obj
 0000:fffca000       _volmd                     ffffc00000000000     ioapic.obj
 0000:fffca000       _volmd                     ffffc00000000000     ioapic.obj
 0002:fffd7000       $unwind$??$raw_offset@PEAU_IMAGE_NT_HEADERS_PE32PLUS@@PEAU_IMAGE_DOS_HEADER_@@@@YAPEAU_IMAGE_NT_HEADERS_PE32PLUS@@PEAU_IMAGE_DOS_HEADER_@@H@Z ffffc00000000000     loader.obj
 0002:fffd7000       $unwind$??$raw_offset@PEAU_IMAGE_SECTION_HEADER@@PEAU_IMAGE_OPTIONAL_HEADER_PE32PLUS@@@@YAPEAU_IMAGE_SECTION_HEADER@@PEAU_IMAGE_OPTIONAL_HEADER_PE32PLUS@@H@Z ffffc00000000000     loader.obj
 0000:fffca000       _volmd                     ffffc00000000000     mutex.obj
 0000:fffca000       _volmd                     ffffc00000000000     mutex.obj
 0000:fffca000       _volmd                     ffffc00000000000     pcie.obj
 0000:fffca000       _volmd                     ffffc00000000000     pcie.obj
 0000:fffca000       _volmd                     ffffc00000000000     pcie.obj
 0000:fffca000       _volmd                     ffffc00000000000     pcie.obj
 0002:fffd7000       $unwind$??$raw_offset@PEAU_IMAGE_NT_HEADERS_PE32PLUS@@PEAU_IMAGE_DOS_HEADER_@@@@YAPEAU_IMAGE_NT_HEADERS_PE32PLUS@@PEAU_IMAGE_DOS_HEADER_@@H@Z ffffc00000000000     pe.obj
 0000:fffca000       _volmd                     ffffc00000000000     spinlock.obj
 0001:00000000       save_interrupt_registers   ffffc00000001000     x86_64_intrs.obj
 0001:0000000d       restore_interrupt_registers ffffc0000000100d     x86_64_intrs.obj
 0001:0000001a       save_fpu_registers         ffffc0000000101a     x86_64_intrs.obj
 0001:00000044       restore_fpu_registers      ffffc00000001044     x86_64_intrs.obj
 0001:0000006e       swap_gs_ifpriv             ffffc0000000106e     x86_64_intrs.obj
 0001:0000007f       swap_gs_ifpriv.next        ffffc0000000107f     x86_64_intrs.obj
 0001:0000512b       x64_get_segment_register.jmp_tab ffffc0000000612b     x86_64_lowlevel.obj
 0001:0000513b       x64_get_segment_register.cs ffffc0000000613b     x86_64_lowlevel.obj
 0001:0000513f       x64_get_segment_register.ds ffffc0000000613f     x86_64_lowlevel.obj
 0001:00005143       x64_get_segment_register.es ffffc00000006143     x86_64_lowlevel.obj
 0001:00005147       x64_get_segment_register.fs ffffc00000006147     x86_64_lowlevel.obj
 0001:0000514b       x64_get_segment_register.gs ffffc0000000614b     x86_64_lowlevel.obj
 0001:0000514f       x64_get_segment_register.ss ffffc0000000614f     x86_64_lowlevel.obj
 0001:00005153       x64_get_segment_register.invalid ffffc00000006153     x86_64_lowlevel.obj
 0001:0000516e       x64_set_segment_register.jmp_tab ffffc0000000616e     x86_64_lowlevel.obj
 0001:0000517e       x64_set_segment_register.cs ffffc0000000617e     x86_64_lowlevel.obj
 0001:00005183       x64_set_segment_register.ds ffffc00000006183     x86_64_lowlevel.obj
 0001:00005186       x64_set_segment_register.es ffffc00000006186     x86_64_lowlevel.obj
 0001:00005189       x64_set_segment_register.fs ffffc00000006189     x86_64_lowlevel.obj
 0001:0000518c       x64_set_segment_register.gs ffffc0000000618c     x86_64_lowlevel.obj
 0001:0000518f       x64_set_segment_register.ss ffffc0000000618f     x86_64_lowlevel.obj
 0001:00005192       x64_set_segment_register.invalid ffffc00000006192     x86_64_lowlevel.obj
 0001:00005246       x64_enter_user.end         ffffc00000006246     x86_64_lowlevel.obj
 0001:00005257       x64_lock_test.true         ffffc00000006257     x86_64_lowlevel.obj
 0001:00005270       extern                     ffffc00000006270     x86_64_switch.obj
 0001:00005393       x64_compat_common          ffffc00000006393     x86_64_switch.obj
 0001:00005460       ?hashmap_int_free@@YAXPEAX@Z ffffc00000006460 f   hashmap.obj
 0001:00007344       $LN13                      ffffc00000008344     aucon.obj
 0001:00014860       ?ReadIOAPICRegister@@YAIE@Z ffffc00000015860 f   ioapic.obj
 0001:000148b0       ?WriteIOAPICRegister@@YAXEI@Z ffffc000000158b0 f   ioapic.obj
 0001:00015520       ?secs_of_month@@YA_KHH@Z   ffffc00000016520 f   x86_64_cpu.obj
 0001:00015654       $LN19                      ffffc00000016654     x86_64_cpu.obj
 0001:00016cd0       ?fill_gdt@@YAXPEAU_gdt@@@Z ffffc00000017cd0 f   x86_64_gdt.obj
 0001:00016e40       ?set_gdt_entry@@YAXAEAU_gdt@@EE@Z ffffc00000017e40 f   x86_64_gdt.obj
 0001:000171b0       ?register_irq@@YAXPEAU_idt@@PEAX@Z ffffc000000181b0 f   x86_64_idt.obj
 0001:00019a04       $LN12                      ffffc0000001aa04     postbox.obj
 0001:0001acb0       ?absorb_right@@YAPEAUboundary_tag@@PEAU1@@Z ffffc0000001bcb0 f   liballoc.obj
 0001:0001ad30       ?allocate_new_tag@@YAPEAUboundary_tag@@I@Z ffffc0000001bd30 f   liballoc.obj
 0001:0001ae10       ?getexp@@YAHI@Z            ffffc0000001be10 f   liballoc.obj
 0001:0001ae80       ?insert_tag@@YAXPEAUboundary_tag@@H@Z ffffc0000001be80 f   liballoc.obj
 0001:0001af40       ?liballoc_memcpy@@YAPEAXPEAXPEBX_K@Z ffffc0000001bf40 f   liballoc.obj
 0001:0001b020       ?liballoc_memset@@YAPEAXPEAXH_K@Z ffffc0000001c020 f   liballoc.obj
 0001:0001b080       ?melt_left@@YAPEAUboundary_tag@@PEAU1@@Z ffffc0000001c080 f   liballoc.obj
 0001:0001b100       ?remove_tag@@YAXPEAUboundary_tag@@@Z ffffc0000001c100 f   liballoc.obj
 0001:0001b1c0       ?split_tag@@YAPEAUboundary_tag@@PEAU1@@Z ffffc0000001c1c0 f   liballoc.obj
 0001:0001fb5c       $LN36                      ffffc00000020b5c     pcie.obj
 0001:0001fbb4       $LN35                      ffffc00000020bb4     pcie.obj
 0001:0002033c       $LN36                      ffffc0000002133c     pcie.obj
 0001:00020394       $LN35                      ffffc00000021394     pcie.obj
 0002:000017a8       $unwind$AuHashmapCreate    ffffc0000002a7a8     hashmap.obj
 0002:000017b4       $unwind$AuHashmapCreateInt ffffc0000002a7b4     hashmap.obj
 0002:000017c0       $unwind$AuHashmapSet       ffffc0000002a7c0     hashmap.obj
 0002:000017cc       $unwind$AuHashmapGet       ffffc0000002a7cc     hashmap.obj
 0002:000017d8       $unwind$AuHashmapRemove    ffffc0000002a7d8     hashmap.obj
 0002:000017e4       $unwind$AuHashmapHas       ffffc0000002a7e4     hashmap.obj
 0002:000017f0       $unwind$AuHashmapFree      ffffc0000002a7f0     hashmap.obj
 0002:000017fc       $unwind$AuHashmapIsEmpty   ffffc0000002a7fc     hashmap.obj
 0002:00001808       $unwind$?hashmap_string_hash@@YAIPEBX@Z ffffc0000002a808     hashmap.obj
 0002:00001814       $unwind$?hashmap_string_comp@@YAHPEBX0@Z ffffc0000002a814     hashmap.obj
 0002:00001820       $unwind$?hashmap_string_dupe@@YAPEAXPEBX@Z ffffc0000002a820     hashmap.obj
 0002:0000182c       $unwind$?hashmap_int_hash@@YAIPEBX@Z ffffc0000002a82c     hashmap.obj
 0002:00001838       $unwind$?hashmap_int_comp@@YAHPEBX0@Z ffffc0000002a838     hashmap.obj
 0002:00001844       $unwind$?hashmap_int_dupe@@YAPEAXPEBX@Z ffffc0000002a844     hashmap.obj
 0002:00001850       $unwind$?hashmap_int_free@@YAXPEAX@Z ffffc0000002a850     hashmap.obj
 0002:0000185c       $unwind$?AuAHCIInitialise@@YAXXZ ffffc0000002a85c     ahci.obj
 0002:00001868       $unwind$?AHCIInterruptHandler@@YAX_KPEAX@Z ffffc0000002a868     ahci.obj
 0002:00001874       $unwind$?AuAHCICheckType@@YAHPEAU_hba_port_@@@Z ffffc0000002a874     ahci.obj
 0002:00001880       $unwind$?AuAHCIDiskInitialise@@YAXPEAU_hba_port_@@@Z ffffc0000002a880     ahcidsk.obj
 0002:0000188c       $unwind$?AuAHCIStopCmd@@YAXPEAU_hba_port_@@@Z ffffc0000002a88c     ahcidsk.obj
 0002:00001898       $unwind$?AuAHCIStartCmd@@YAXPEAU_hba_port_@@@Z ffffc0000002a898     ahcidsk.obj
 0002:000018a4       $unwind$?AuAHCIDiskFindSlot@@YAIPEAU_hba_port_@@@Z ffffc0000002a8a4     ahcidsk.obj
 0002:000018b0       $unwind$?AuAHCIDiskRead@@YAXPEAU_hba_port_@@_KIPEA_K@Z ffffc0000002a8b0     ahcidsk.obj
 0002:000018bc       $unwind$?AuAHCIDiskWrite@@YAXPEAU_hba_port_@@_KIPEA_K@Z ffffc0000002a8bc     ahcidsk.obj
 0002:000018c8       $unwind$?AuAHCIDiskIdentify@@YAXPEAU_hba_port_@@_KIPEA_K@Z ffffc0000002a8c8     ahcidsk.obj
 0002:000018d4       $unwind$?AuAHCIVDiskRead@@YAHPEAU_VDISK_@@_KIPEA_K@Z ffffc0000002a8d4     ahcidsk.obj
 0002:000018e0       $unwind$?AuAHCIVDiskWrite@@YAHPEAU_VDISK_@@_KIPEA_K@Z ffffc0000002a8e0     ahcidsk.obj
 0002:000018ec       $unwind$?AuConsoleInitialize@@YAXPEAU_KERNEL_BOOT_INFO_@@_N@Z ffffc0000002a8ec     aucon.obj
 0002:000018f8       $unwind$?AuConsolePostInitialise@@YAXPEAU_KERNEL_BOOT_INFO_@@@Z ffffc0000002a8f8     aucon.obj
 0002:00001904       $unwind$AuTextOut          ffffc0000002a904     aucon.obj
 0002:00001910       $unwind$?AuConsoleEarlyEnable@@YAX_N@Z ffffc0000002a910     aucon.obj
 0002:0000191c       $unwind$?AuConsoleIoControl@@YAHPEAU__VFS_NODE__@@HPEAX@Z ffffc0000002a91c     aucon.obj
 0002:00001928       $unwind$?AuPutC@@YAXD@Z    ffffc0000002a928     aucon.obj
 0002:00001934       $unwind$?AuPutS@@YAXPEAD@Z ffffc0000002a934     aucon.obj
 0002:00001940       $unwind$?AuDrvMngrInitialize@@YAXPEAU_KERNEL_BOOT_INFO_@@@Z ffffc0000002a940     audrv.obj
 0002:0000194c       $unwind$AuRegisterDevice   ffffc0000002a94c     audrv.obj
 0002:00001958       $unwind$AuCheckDevice      ffffc0000002a958     audrv.obj
 0002:00001964       $unwind$?AuRequestDriverId@@YAIXZ ffffc0000002a964     audrv.obj
 0002:00001970       $unwind$?AuDecreaseDriverCount@@YAXXZ ffffc0000002a970     audrv.obj
 0002:0000197c       $unwind$?AuIncreaseDriverCount@@YAXXZ ffffc0000002a97c     audrv.obj
 0002:00001988       $unwind$?AuGetConfEntry@@YAPEADIIPEAEH@Z ffffc0000002a988     audrv.obj
 0002:00001994       $unwind$?AuCreateDriverInstance@@YAXPEAD@Z ffffc0000002a994     audrv.obj
 0002:000019a0       $unwind$?AuGetDriverName@@YAXIIPEAEH@Z ffffc0000002a9a0     audrv.obj
 0002:000019ac       $unwind$?AuDriverLoad@@YAXPEADPEAU_aurora_driver_@@@Z ffffc0000002a9ac     audrv.obj
 0002:000019b8       $unwind$??$raw_offset@PEAU_IMAGE_NT_HEADERS_PE32PLUS@@PEAU_IMAGE_DOS_HEADER_@@@@YAPEAU_IMAGE_NT_HEADERS_PE32PLUS@@PEAU_IMAGE_DOS_HEADER_@@H@Z ffffc0000002a9b8     audrv.obj
 0002:000019c4       $unwind$?AuTimerDataInitialise@@YAXXZ ffffc0000002a9c4     autimer.obj
 0002:000019d0       $unwind$?AuTimerCreate@@YAXGHE@Z ffffc0000002a9d0     autimer.obj
 0002:000019dc       $unwind$?AuTimerStart@@YAXG@Z ffffc0000002a9dc     autimer.obj
 0002:000019e8       $unwind$?AuTimerStop@@YAXG@Z ffffc0000002a9e8     autimer.obj
 0002:000019f4       $unwind$?AuTimerDestroy@@YAXG@Z ffffc0000002a9f4     autimer.obj
 0002:00001a00       $unwind$?AuTimerFire@@YAXHHH@Z ffffc0000002aa00     autimer.obj
 0002:00001a0c       $unwind$?AuTimerInsert@@YAXPEAU_timer_@@@Z ffffc0000002aa0c     autimer.obj
 0002:00001a18       $unwind$?AuTimerDelete@@YAXPEAU_timer_@@@Z ffffc0000002aa18     autimer.obj
 0002:00001a24       $unwind$?AuTimerPostMessage@@YAXPEAU_timer_@@@Z ffffc0000002aa24     autimer.obj
 0002:00001a30       $unwind$?AuAdvancePointer@@YAXPEAU_circ_buf_@@@Z ffffc0000002aa30     circbuf.obj
 0002:00001a3c       $unwind$?AuRetreatPointer@@YAXPEAU_circ_buf_@@@Z ffffc0000002aa3c     circbuf.obj
 0002:00001a48       $unwind$?AuCircBufReset@@YAXPEAU_circ_buf_@@@Z ffffc0000002aa48     circbuf.obj
 0002:00001a54       $unwind$?AuCircBufInitialise@@YAPEAU_circ_buf_@@PEAE_K@Z ffffc0000002aa54     circbuf.obj
 0002:00001a60       $unwind$?AuCircBufFree@@YAXPEAU_circ_buf_@@@Z ffffc0000002aa60     circbuf.obj
 0002:00001a6c       $unwind$?AuCircBufSize@@YA_KPEAU_circ_buf_@@@Z ffffc0000002aa6c     circbuf.obj
 0002:00001a78       $unwind$?AuCircBufCapacity@@YA_KPEAU_circ_buf_@@@Z ffffc0000002aa78     circbuf.obj
 0002:00001a84       $unwind$?AuCircBufPutData@@YAXPEAU_circ_buf_@@E@Z ffffc0000002aa84     circbuf.obj
 0002:00001a90       $unwind$?AuCircBufPut@@YAHPEAU_circ_buf_@@E@Z ffffc0000002aa90     circbuf.obj
 0002:00001a9c       $unwind$?AuCircBufGet@@YAHPEAU_circ_buf_@@PEAE@Z ffffc0000002aa9c     circbuf.obj
 0002:00001aa8       $unwind$?CircBufEmpty@@YA_NPEAU_circ_buf_@@@Z ffffc0000002aaa8     circbuf.obj
 0002:00001ab4       $unwind$?CircBufFull@@YA_NPEAU_circ_buf_@@@Z ffffc0000002aab4     circbuf.obj
 0002:00001ac0       $unwind$?AuProcessClean@@YAXPEAU_au_proc_@@0@Z ffffc0000002aac0     clean.obj
 0002:00001acc       $unwind$?FreeUserStack@@YAXPEA_KPEAX@Z ffffc0000002aacc     clean.obj
 0002:00001ad8       $unwind$?FreeImage@@YAXPEAU_au_proc_@@@Z ffffc0000002aad8     clean.obj
 0002:00001ae4       $unwind$?AuThreadFree@@YAXPEAU_au_proc_@@PEAU_au_thread_@@@Z ffffc0000002aae4     clean.obj
 0002:00001af0       $unwind$isspace            ffffc0000002aaf0     ctype.obj
 0002:00001afc       $unwind$isascii            ffffc0000002aafc     ctype.obj
 0002:00001b08       $unwind$isupper            ffffc0000002ab08     ctype.obj
 0002:00001b14       $unwind$islower            ffffc0000002ab14     ctype.obj
 0002:00001b20       $unwind$isalpha            ffffc0000002ab20     ctype.obj
 0002:00001b2c       $unwind$isdigit            ffffc0000002ab2c     ctype.obj
 0002:00001b38       $unwind$isxdigit           ffffc0000002ab38     ctype.obj
 0002:00001b44       $unwind$isprint            ffffc0000002ab44     ctype.obj
 0002:00001b50       $unwind$toupper            ffffc0000002ab50     ctype.obj
 0002:00001b5c       $unwind$tolower            ffffc0000002ab5c     ctype.obj
 0002:00001b68       $unwind$toascii            ffffc0000002ab68     ctype.obj
 0002:00001b74       $unwind$?AuPS2MouseInitialise@@YAXXZ ffffc0000002ab74     mouse.obj
 0002:00001b80       $unwind$?AuPS2MouseSetPos@@YAXHH@Z ffffc0000002ab80     mouse.obj
 0002:00001b8c       $unwind$AuPS2DisableMouse  ffffc0000002ab8c     mouse.obj
 0002:00001b98       $unwind$?PS2MouseWaitInput@@YAXXZ ffffc0000002ab98     mouse.obj
 0002:00001ba4       $unwind$?PS2MouseWaitOutput@@YAXXZ ffffc0000002aba4     mouse.obj
 0002:00001bb0       $unwind$?AuPS2MouseWrite@@YAEE@Z ffffc0000002abb0     mouse.obj
 0002:00001bbc       $unwind$?AuPS2MouseRead@@YAEXZ ffffc0000002abbc     mouse.obj
 0002:00001bc8       $unwind$?PS2MouseHandler@@YAX_KPEAX@Z ffffc0000002abc8     mouse.obj
 0002:00001bd4       $unwind$?AuPS2KybrdHandler@@YAX_KPEAX@Z ffffc0000002abd4     ps2kybrd.obj
 0002:00001be0       $unwind$?AuPS2KybrdInitialize@@YAXXZ ffffc0000002abe0     ps2kybrd.obj
 0002:00001bec       $unwind$?AuRTCInitialize@@YAXXZ ffffc0000002abec     rtc.obj
 0002:00001bf8       $unwind$AuRTCGetYear       ffffc0000002abf8     rtc.obj
 0002:00001c04       $unwind$AuRTCGetCentury    ffffc0000002ac04     rtc.obj
 0002:00001c10       $unwind$AuRTCGetMinutes    ffffc0000002ac10     rtc.obj
 0002:00001c1c       $unwind$AuRTCGetSecond     ffffc0000002ac1c     rtc.obj
 0002:00001c28       $unwind$AuRTCGetDay        ffffc0000002ac28     rtc.obj
 0002:00001c34       $unwind$AuRTCGetHour       ffffc0000002ac34     rtc.obj
 0002:00001c40       $unwind$AuRTCGetMonth      ffffc0000002ac40     rtc.obj
 0002:00001c4c       $unwind$?AuRTCGetRegister@@YAEH@Z ffffc0000002ac4c     rtc.obj
 0002:00001c58       $unwind$?AuRTCSetRegister@@YAXGE@Z ffffc0000002ac58     rtc.obj
 0002:00001c64       $unwind$?AuRTCIsUpdating@@YAHXZ ffffc0000002ac64     rtc.obj
 0002:00001c70       $unwind$?AuRTCReadDateTime@@YAXXZ ffffc0000002ac70     rtc.obj
 0002:00001c7c       $unwind$?AuRTCClockUpdate@@YAX_KPEAX@Z ffffc0000002ac7c     rtc.obj
 0002:00001c88       $unwind$?AuDeviceFsInitialize@@YAXXZ ffffc0000002ac88     devfs.obj
 0002:00001c94       $unwind$?AuDevFSCreateFile@@YAHPEAU__VFS_NODE__@@PEADE@Z ffffc0000002ac94     devfs.obj
 0002:00001ca0       $unwind$AuDevFSAddFile     ffffc0000002aca0     devfs.obj
 0002:00001cac       $unwind$?AuDevFSOpen@@YAPEAU__VFS_NODE__@@PEAU1@PEAD@Z ffffc0000002acac     devfs.obj
 0002:00001cb8       $unwind$?AuDevFSList@@YAXPEAU__VFS_NODE__@@@Z ffffc0000002acb8     devfs.obj
 0002:00001cc4       $unwind$AuDevFSRemoveFile  ffffc0000002acc4     devfs.obj
 0002:00001cd0       $unwind$?AuDevFSListDir@@YAXPEAU__VFS_NODE__@@0@Z ffffc0000002acd0     devfs.obj
 0002:00001cdc       $unwind$?AuDevInputInitialise@@YAXXZ ffffc0000002acdc     devinput.obj
 0002:00001ce8       $unwind$AuDevReadMice      ffffc0000002ace8     devinput.obj
 0002:00001cf4       $unwind$AuDevWriteMice     ffffc0000002acf4     devinput.obj
 0002:00001d00       $unwind$AuDevReadKybrd     ffffc0000002ad00     devinput.obj
 0002:00001d0c       $unwind$AuDevWriteKybrd    ffffc0000002ad0c     devinput.obj
 0002:00001d18       $unwind$?AuDevInputMiceWrite@@YA_KPEAU__VFS_NODE__@@0PEA_KI@Z ffffc0000002ad18     devinput.obj
 0002:00001d24       $unwind$?AuDevInputMiceRead@@YA_KPEAU__VFS_NODE__@@0PEA_KI@Z ffffc0000002ad24     devinput.obj
 0002:00001d30       $unwind$?AuDevInputKybrdWrite@@YA_KPEAU__VFS_NODE__@@0PEA_KI@Z ffffc0000002ad30     devinput.obj
 0002:00001d3c       $unwind$?AuDevInputKybrdRead@@YA_KPEAU__VFS_NODE__@@0PEA_KI@Z ffffc0000002ad3c     devinput.obj
 0002:00001d48       $unwind$?AuDevMouseIoControl@@YAHPEAU__VFS_NODE__@@HPEAX@Z ffffc0000002ad48     devinput.obj
 0002:00001d54       $unwind$?FatInitialise@@YAPEAU__VFS_NODE__@@PEAU_VDISK_@@PEAD@Z ffffc0000002ad54     Fat.obj
 0002:00001d60       $unwind$?FatClusterToSector32@@YA_KPEAU_FatFS_@@_K@Z ffffc0000002ad60     Fat.obj
 0002:00001d6c       $unwind$?FatToDOSFilename@@YAXPEBDPEADI@Z ffffc0000002ad6c     Fat.obj
 0002:00001d78       $unwind$?FatFindFreeCluster@@YAIPEAU__VFS_NODE__@@@Z ffffc0000002ad78     Fat.obj
 0002:00001d84       $unwind$?FatAllocCluster@@YAXPEAU__VFS_NODE__@@HI@Z ffffc0000002ad84     Fat.obj
 0002:00001d90       $unwind$?FatClearCluster@@YAXPEAU__VFS_NODE__@@I@Z ffffc0000002ad90     Fat.obj
 0002:00001d9c       $unwind$?FatReadFAT@@YAIPEAU__VFS_NODE__@@_K@Z ffffc0000002ad9c     Fat.obj
 0002:00001da8       $unwind$?FatOpen@@YAPEAU__VFS_NODE__@@PEAU1@PEAD@Z ffffc0000002ada8     Fat.obj
 0002:00001db4       $unwind$?FatFormatDate@@YAGXZ ffffc0000002adb4     Fat.obj
 0002:00001dc0       $unwind$?FatFormatTime@@YAGXZ ffffc0000002adc0     Fat.obj
 0002:00001dcc       $unwind$?FatLocateDir@@YAPEAU__VFS_NODE__@@PEAU1@PEBD@Z ffffc0000002adcc     Fat.obj
 0002:00001dd8       $unwind$?FatLocateSubDir@@YAPEAU__VFS_NODE__@@PEAU1@0PEBD@Z ffffc0000002add8     Fat.obj
 0002:00001de4       $unwind$?FatFromDosToFilename@@YAXPEAD0@Z ffffc0000002ade4     Fat.obj
 0002:00001df0       $unwind$?FatCalculateCheckSum@@YAEPEAE@Z ffffc0000002adf0     Fat.obj
 0002:00001dfc       $unwind$?FatRead@@YA_KPEAU__VFS_NODE__@@0PEA_K@Z ffffc0000002adfc     Fat.obj
 0002:00001e08       $unwind$?FatReadFile@@YA_KPEAU__VFS_NODE__@@0PEA_KI@Z ffffc0000002ae08     Fat.obj
 0002:00001e14       $unwind$?FatGetClusterFor@@YA_KPEAU__VFS_NODE__@@0_K@Z ffffc0000002ae14     Fat.obj
 0002:00001e20       $unwind$?FatCreateDir@@YAPEAU__VFS_NODE__@@PEAU1@PEAD@Z ffffc0000002ae20     FatDir.obj
 0002:00001e2c       $unwind$?FatRemoveDir@@YAHPEAU__VFS_NODE__@@0@Z ffffc0000002ae2c     FatDir.obj
 0002:00001e38       $unwind$?FatOpenDir@@YAPEAU__VFS_NODE__@@PEAU1@PEAD@Z ffffc0000002ae38     FatDir.obj
 0002:00001e44       $unwind$?FatDirectoryRead@@YAHPEAU__VFS_NODE__@@0PEAU_AuDirectoryEnty_@@@Z ffffc0000002ae44     FatDir.obj
 0002:00001e50       $unwind$?FatFileGetParent@@YAPEAU__VFS_NODE__@@PEAU1@PEBD@Z ffffc0000002ae50     FatFile.obj
 0002:00001e5c       $unwind$?FatCreateFile@@YAPEAU__VFS_NODE__@@PEAU1@PEAD@Z ffffc0000002ae5c     FatFile.obj
 0002:00001e68       $unwind$?FatFileUpdateSize@@YAXPEAU__VFS_NODE__@@0_K@Z ffffc0000002ae68     FatFile.obj
 0002:00001e74       $unwind$?FatFileUpdateFilename@@YAHPEAU__VFS_NODE__@@0PEAD@Z ffffc0000002ae74     FatFile.obj
 0002:00001e80       $unwind$?FatFileWriteContent@@YAXPEAU__VFS_NODE__@@0PEA_K@Z ffffc0000002ae80     FatFile.obj
 0002:00001e8c       $unwind$?FatFileWriteDone@@YAXPEAU__VFS_NODE__@@@Z ffffc0000002ae8c     FatFile.obj
 0002:00001e98       $unwind$?FatWrite@@YA_KPEAU__VFS_NODE__@@0PEA_KI@Z ffffc0000002ae98     FatFile.obj
 0002:00001ea4       $unwind$?FatFileClearDirEntry@@YAHPEAU__VFS_NODE__@@0@Z ffffc0000002aea4     FatFile.obj
 0002:00001eb0       $unwind$?FatFileRemove@@YAHPEAU__VFS_NODE__@@0@Z ffffc0000002aeb0     FatFile.obj
 0002:00001ebc       $unwind$?AuPipeUnread@@YA_KPEAU_pipe_@@@Z ffffc0000002aebc     pipe.obj
 0002:00001ec8       $unwind$?AuCreatePipe@@YAHPEAD_K@Z ffffc0000002aec8     pipe.obj
 0002:00001ed4       $unwind$?AuPipeFSAddFile@@YAHPEAU__VFS_NODE__@@PEAD0@Z ffffc0000002aed4     pipe.obj
 0002:00001ee0       $unwind$?AuPipeFSInitialise@@YAXXZ ffffc0000002aee0     pipe.obj
 0002:00001eec       $unwind$?AuPipeGetAvailableBytes@@YA_KPEAU_pipe_@@@Z ffffc0000002aeec     pipe.obj
 0002:00001ef8       $unwind$?AuPipeIncrementRead@@YAXPEAU_pipe_@@@Z ffffc0000002aef8     pipe.obj
 0002:00001f04       $unwind$?AuPipeIncrementWrite@@YAXPEAU_pipe_@@@Z ffffc0000002af04     pipe.obj
 0002:00001f10       $unwind$?AuPipeIncrementWriteAmount@@YAXPEAU_pipe_@@_K@Z ffffc0000002af10     pipe.obj
 0002:00001f1c       $unwind$?AuPipeRead@@YA_KPEAU__VFS_NODE__@@0PEA_KI@Z ffffc0000002af1c     pipe.obj
 0002:00001f28       $unwind$?AuPipeWrite@@YA_KPEAU__VFS_NODE__@@0PEA_KI@Z ffffc0000002af28     pipe.obj
 0002:00001f34       $unwind$?AuPipeOpen@@YAPEAU__VFS_NODE__@@PEAU1@PEAD@Z ffffc0000002af34     pipe.obj
 0002:00001f40       $unwind$?AuPipeFSRemoveFile@@YAHPEAU__VFS_NODE__@@PEAD@Z ffffc0000002af40     pipe.obj
 0002:00001f4c       $unwind$?AuPipeClose@@YAHPEAU__VFS_NODE__@@0@Z ffffc0000002af4c     pipe.obj
 0002:00001f58       $unwind$?AuPipeFSOpen@@YAPEAU__VFS_NODE__@@PEAU1@PEAD@Z ffffc0000002af58     pipe.obj
 0002:00001f64       $unwind$?AuTTYCreate@@YAHPEAH0@Z ffffc0000002af64     tty.obj
 0002:00001f70       $unwind$?AuTTYInitialise@@YAXXZ ffffc0000002af70     tty.obj
 0002:00001f7c       $unwind$?AuTTYInsert@@YAXPEAU__tty__@@@Z ffffc0000002af7c     tty.obj
 0002:00001f88       $unwind$?AuTTYDelete@@YAXPEAU__tty__@@@Z ffffc0000002af88     tty.obj
 0002:00001f94       $unwind$?AuTTYWriteSlave@@YAXPEAU__tty__@@E@Z ffffc0000002af94     tty.obj
 0002:00001fa0       $unwind$?AuTTYWriteMaster@@YAXPEAU__tty__@@E@Z ffffc0000002afa0     tty.obj
 0002:00001fac       $unwind$?AuTTYProcessLine@@YAXPEAU__tty__@@E@Z ffffc0000002afac     tty.obj
 0002:00001fb8       $unwind$?AuTTYMasterRead@@YA_KPEAU__VFS_NODE__@@0PEA_KI@Z ffffc0000002afb8     tty.obj
 0002:00001fc4       $unwind$?AuTTYMasterWrite@@YA_KPEAU__VFS_NODE__@@0PEA_KI@Z ffffc0000002afc4     tty.obj
 0002:00001fd0       $unwind$?AuTTYSlaveRead@@YA_KPEAU__VFS_NODE__@@0PEA_KI@Z ffffc0000002afd0     tty.obj
 0002:00001fdc       $unwind$?AuTTYSlaveWrite@@YA_KPEAU__VFS_NODE__@@0PEA_KI@Z ffffc0000002afdc     tty.obj
 0002:00001fe8       $unwind$?AuTTYSlaveClose@@YAHPEAU__VFS_NODE__@@0@Z ffffc0000002afe8     tty.obj
 0002:00001ff4       $unwind$?AuTTYMasterClose@@YAHPEAU__VFS_NODE__@@0@Z ffffc0000002aff4     tty.obj
 0002:00002000       $unwind$?AuTTYIoControl@@YAHPEAU__VFS_NODE__@@HPEAX@Z ffffc0000002b000     tty.obj
 0002:0000200c       $unwind$?AuTTYCreateMaster@@YAPEAU__VFS_NODE__@@PEAU__tty__@@@Z ffffc0000002b00c     tty.obj
 0002:00002018       $unwind$?AuTTYCreateSlave@@YAPEAU__VFS_NODE__@@PEAU__tty__@@@Z ffffc0000002b018     tty.obj
 0002:00002024       $unwind$?AuVDiskInitialise@@YAXXZ ffffc0000002b024     vdisk.obj
 0002:00002030       $unwind$AuVDiskGetIndex    ffffc0000002b030     vdisk.obj
 0002:0000203c       $unwind$AuVDiskRegister    ffffc0000002b03c     vdisk.obj
 0002:00002048       $unwind$AuCreateVDisk      ffffc0000002b048     vdisk.obj
 0002:00002054       $unwind$AuVDiskRead        ffffc0000002b054     vdisk.obj
 0002:00002060       $unwind$AuVDiskWrite       ffffc0000002b060     vdisk.obj
 0002:0000206c       $unwind$AuVDiskDestroy     ffffc0000002b06c     vdisk.obj
 0002:00002078       $unwind$?AuGetVDiskInfo@@YAHEPEAX@Z ffffc0000002b078     vdisk.obj
 0002:00002084       $unwind$?AuGetVDiskPartitionInfo@@YAHEEPEAX@Z ffffc0000002b084     vdisk.obj
 0002:00002090       $unwind$?AuVDiskRegisterPartition@@YAXPEAU_VDISK_@@@Z ffffc0000002b090     vdisk.obj
 0002:0000209c       $unwind$?AuVFSInitialise@@YAXXZ ffffc0000002b09c     vfs.obj
 0002:000020a8       $unwind$AuVFSOpen          ffffc0000002b0a8     vfs.obj
 0002:000020b4       $unwind$AuVFSNodeIOControl ffffc0000002b0b4     vfs.obj
 0002:000020c0       $unwind$AuVFSAddFileSystem ffffc0000002b0c0     vfs.obj
 0002:000020cc       $unwind$AuVFSRegisterRoot  ffffc0000002b0cc     vfs.obj
 0002:000020d8       $unwind$AuVFSFind          ffffc0000002b0d8     vfs.obj
 0002:000020e4       $unwind$AuVFSNodeRead      ffffc0000002b0e4     vfs.obj
 0002:000020f0       $unwind$AuVFSNodeReadBlock ffffc0000002b0f0     vfs.obj
 0002:000020fc       $unwind$AuVFSCreateDir     ffffc0000002b0fc     vfs.obj
 0002:00002108       $unwind$AuVFSCreateFile    ffffc0000002b108     vfs.obj
 0002:00002114       $unwind$?AuVFSRemoveFile@@YAHPEAU__VFS_NODE__@@0@Z ffffc0000002b114     vfs.obj
 0002:00002120       $unwind$?AuVFSRemoveDir@@YAHPEAU__VFS_NODE__@@0@Z ffffc0000002b120     vfs.obj
 0002:0000212c       $unwind$AuVFSNodeWrite     ffffc0000002b12c     vfs.obj
 0002:00002138       $unwind$AuVFSNodeClose     ffffc0000002b138     vfs.obj
 0002:00002144       $unwind$AuVFSGetBlockFor   ffffc0000002b144     vfs.obj
 0002:00002150       $unwind$AuVFSRemoveFileSystem ffffc0000002b150     vfs.obj
 0002:0000215c       $unwind$AuGUIDVerify       ffffc0000002b15c     _gpt.obj
 0002:00002168       $unwind$?AuGPTInitialise_FileSystem@@YAXPEAU_VDISK_@@@Z ffffc0000002b168     _gpt.obj
 0002:00002178       $unwind$?FontManagerInitialise@@YAXXZ ffffc0000002b178     ftmngr.obj
 0002:00002184       $unwind$?AuFTMngrGetFontID@@YAHPEAD@Z ffffc0000002b184     ftmngr.obj
 0002:00002190       $unwind$?AuFTMngrGetNumFonts@@YAHXZ ffffc0000002b190     ftmngr.obj
 0002:0000219c       $unwind$?AuFTMngrGetFontSize@@YAHPEAD@Z ffffc0000002b19c     ftmngr.obj
 0002:000021a8       $unwind$?FontManagerAddSegment@@YAXPEAU_font_seg_@@@Z ffffc0000002b1a8     ftmngr.obj
 0002:000021b4       $unwind$?FontManagerRemoveSegment@@YAXPEAU_font_seg_@@@Z ffffc0000002b1b4     ftmngr.obj
 0002:000021c0       $unwind$?FontManagerGetKey@@YAGXZ ffffc0000002b1c0     ftmngr.obj
 0002:000021cc       $unwind$?FontManagerAllocateSegment@@YAPEAU_font_seg_@@PEAU__VFS_NODE__@@PEAD@Z ffffc0000002b1cc     ftmngr.obj
 0002:000021d8       $unwind$?FontManagerOpenFontFile@@YAPEAU__VFS_NODE__@@PEAD@Z ffffc0000002b1d8     ftmngr.obj
 0002:000021e4       $unwind$?FontManagerIterateFontList@@YAXPEAE@Z ffffc0000002b1e4     ftmngr.obj
 0002:000021f0       $unwind$?FontManagerGetFontCount@@YAHPEAE@Z ffffc0000002b1f0     ftmngr.obj
 0002:000021fc       $unwind$AcpiOsAcquireGlobalLock ffffc0000002b1fc     acpiosl.obj
 0002:00002208       $unwind$AcpiOsReleaseGlobalLock ffffc0000002b208     acpiosl.obj
 0002:00002214       $unwind$AcpiOsInitialize   ffffc0000002b214     acpiosl.obj
 0002:00002220       $unwind$AcpiOsTerminate    ffffc0000002b220     acpiosl.obj
 0002:0000222c       $unwind$AcpiOsGetRootPointer ffffc0000002b22c     acpiosl.obj
 0002:00002238       $unwind$AcpiOsPredefinedOverride ffffc0000002b238     acpiosl.obj
 0002:00002244       $unwind$AcpiOsTableOverride ffffc0000002b244     acpiosl.obj
 0002:00002250       $unwind$AcpiOsPhysicalTableOverride ffffc0000002b250     acpiosl.obj
 0002:0000225c       $unwind$AcpiOsCreateLock   ffffc0000002b25c     acpiosl.obj
 0002:00002268       $unwind$AcpiOsDeleteLock   ffffc0000002b268     acpiosl.obj
 0002:00002274       $unwind$AcpiOsAcquireLock  ffffc0000002b274     acpiosl.obj
 0002:00002280       $unwind$AcpiOsReleaseLock  ffffc0000002b280     acpiosl.obj
 0002:0000228c       $unwind$AcpiOsCreateSemaphore ffffc0000002b28c     acpiosl.obj
 0002:00002298       $unwind$AcpiOsDeleteSemaphore ffffc0000002b298     acpiosl.obj
 0002:000022a4       $unwind$AcpiOsWaitSemaphore ffffc0000002b2a4     acpiosl.obj
 0002:000022b0       $unwind$AcpiOsSignalSemaphore ffffc0000002b2b0     acpiosl.obj
 0002:000022bc       $unwind$AcpiOsCreateMutex  ffffc0000002b2bc     acpiosl.obj
 0002:000022c8       $unwind$AcpiOsDeleteMutex  ffffc0000002b2c8     acpiosl.obj
 0002:000022d4       $unwind$AcpiOsAcquireMutex ffffc0000002b2d4     acpiosl.obj
 0002:000022e0       $unwind$AcpiOsReleaseMutex ffffc0000002b2e0     acpiosl.obj
 0002:000022ec       $unwind$AcpiOsAllocate     ffffc0000002b2ec     acpiosl.obj
 0002:000022f8       $unwind$AcpiOsFree         ffffc0000002b2f8     acpiosl.obj
 0002:00002304       $unwind$AcpiOsMapMemory    ffffc0000002b304     acpiosl.obj
 0002:00002310       $unwind$AcpiOsUnmapMemory  ffffc0000002b310     acpiosl.obj
 0002:0000231c       $unwind$AcpiOsGetPhysicalAddress ffffc0000002b31c     acpiosl.obj
 0002:00002328       $unwind$AcpiOsInstallInterruptHandler ffffc0000002b328     acpiosl.obj
 0002:00002334       $unwind$AcpiOsRemoveInterruptHandler ffffc0000002b334     acpiosl.obj
 0002:00002340       $unwind$AcpiOsGetThreadId  ffffc0000002b340     acpiosl.obj
 0002:0000234c       $unwind$AcpiOsExecute      ffffc0000002b34c     acpiosl.obj
 0002:00002358       $unwind$AcpiOsWaitEventsComplete ffffc0000002b358     acpiosl.obj
 0002:00002364       $unwind$AcpiOsSleep        ffffc0000002b364     acpiosl.obj
 0002:00002370       $unwind$AcpiOsStall        ffffc0000002b370     acpiosl.obj
 0002:0000237c       $unwind$AcpiOsReadPort     ffffc0000002b37c     acpiosl.obj
 0002:00002388       $unwind$AcpiOsWritePort    ffffc0000002b388     acpiosl.obj
 0002:00002394       $unwind$AcpiOsReadMemory   ffffc0000002b394     acpiosl.obj
 0002:000023a0       $unwind$AcpiOsWriteMemory  ffffc0000002b3a0     acpiosl.obj
 0002:000023ac       $unwind$AcpiOsReadPciConfiguration ffffc0000002b3ac     acpiosl.obj
 0002:000023b8       $unwind$AcpiOsWritePciConfiguration ffffc0000002b3b8     acpiosl.obj
 0002:000023c4       $unwind$AcpiOsReadable     ffffc0000002b3c4     acpiosl.obj
 0002:000023d0       $unwind$AcpiOsWritable     ffffc0000002b3d0     acpiosl.obj
 0002:000023dc       $unwind$AcpiOsGetTimer     ffffc0000002b3dc     acpiosl.obj
 0002:000023e8       $unwind$AcpiOsSignal       ffffc0000002b3e8     acpiosl.obj
 0002:000023f4       $unwind$AcpiOsEnterSleep   ffffc0000002b3f4     acpiosl.obj
 0002:00002400       $unwind$AcpiOsPrintf       ffffc0000002b400     acpiosl.obj
 0002:0000240c       $unwind$AcpiOsVprintf      ffffc0000002b40c     acpiosl.obj
 0002:00002418       $unwind$?ReadAPICRegister@@YA_KG@Z ffffc0000002b418     apic.obj
 0002:00002424       $unwind$?WriteAPICRegister@@YAXG_K@Z ffffc0000002b424     apic.obj
 0002:00002430       $unwind$?AuAPICInitialise@@YAX_N@Z ffffc0000002b430     apic.obj
 0002:0000243c       $unwind$?APICLocalEOI@@YAXXZ ffffc0000002b43c     apic.obj
 0002:00002448       $unwind$?APICTimerSleep@@YAXI@Z ffffc0000002b448     apic.obj
 0002:00002454       $unwind$?X2APICSupported@@YA_NXZ ffffc0000002b454     apic.obj
 0002:00002460       $unwind$??$raw_offset@PECIPEAX@@YAPECIPEAXH@Z ffffc0000002b460     apic.obj
 0002:0000246c       $unwind$?IOWait@@YAXXZ     ffffc0000002b46c     apic.obj
 0002:00002478       $unwind$?APICSpuriousInterrupt@@YAX_KPEAX@Z ffffc0000002b478     apic.obj
 0002:00002484       $unwind$?ApicTimerInterrupt@@YAX_KPEAX@Z ffffc0000002b484     apic.obj
 0002:00002490       $unwind$?AuACPIEnable@@YAXXZ ffffc0000002b490     basicacpi.obj
 0002:0000249c       $unwind$?AuACPIInitialise@@YAXPEAX@Z ffffc0000002b49c     basicacpi.obj
 0002:000024a8       $unwind$?AuACPIGetMCFG@@YAPEAUacpiMcfg@@XZ ffffc0000002b4a8     basicacpi.obj
 0002:000024b4       $unwind$?AuACPIPCIESupported@@YA_NXZ ffffc0000002b4b4     basicacpi.obj
 0002:000024c0       $unwind$?AuACPIGetRSDP@@YAPEAXXZ ffffc0000002b4c0     basicacpi.obj
 0002:000024cc       $unwind$?AuInitialiseACPISubsys@@YAXPEAU_KERNEL_BOOT_INFO_@@@Z ffffc0000002b4cc     basicacpi.obj
 0002:000024d8       $unwind$?AuGetCPUCount@@YAEXZ ffffc0000002b4d8     basicacpi.obj
 0002:000024e4       $unwind$?AuACPIPowerButtonEnable@@YAXXZ ffffc0000002b4e4     basicacpi.obj
 0002:000024f0       $unwind$?search_s5@@YAPEAEPEAUacpiDsdt@@@Z ffffc0000002b4f0     basicacpi.obj
 0002:000024fc       $unwind$?AuFADTHandler@@YAX_KPEAX@Z ffffc0000002b4fc     basicacpi.obj
 0002:00002508       $unwind$?AuACPIParseMADT@@YAXXZ ffffc0000002b508     basicacpi.obj
 0002:00002514       $unwind$??$raw_diff@U_acpi_apic_header_@@UacpiMadt@@@@YAHPEAU_acpi_apic_header_@@PEAUacpiMadt@@@Z ffffc0000002b514     basicacpi.obj
 0002:00002520       $unwind$??$raw_offset@PEAU_acpi_apic_header_@@PEAU1@@@YAPEAU_acpi_apic_header_@@PEAU0@H@Z ffffc0000002b520     basicacpi.obj
 0002:0000252c       $unwind$??$raw_offset@PEAU_IMAGE_SECTION_HEADER@@PEAU_IMAGE_OPTIONAL_HEADER_PE32PLUS@@@@YAPEAU_IMAGE_SECTION_HEADER@@PEAU_IMAGE_OPTIONAL_HEADER_PE32PLUS@@H@Z ffffc0000002b52c     basicacpi.obj
 0002:00002538       $unwind$??$raw_offset@PEAXPEAE@@YAPEAXPEAEH@Z ffffc0000002b538     basicacpi.obj
 0002:00002544       $unwind$AuHalInitialise    ffffc0000002b544     hal.obj
 0002:00002550       $unwind$AuHalPostInitialise ffffc0000002b550     hal.obj
 0002:0000255c       $unwind$AuHalRegisterIRQ   ffffc0000002b55c     hal.obj
 0002:00002568       $unwind$AuHalMaskIRQ       ffffc0000002b568     hal.obj
 0002:00002574       $unwind$AuInterruptEnd     ffffc0000002b574     hal.obj
 0002:00002580       $unwind$AuHalFlushCache    ffffc0000002b580     hal.obj
 0002:0000258c       $unwind$AuDisableInterrupt ffffc0000002b58c     hal.obj
 0002:00002598       $unwind$AuEnableInterrupt  ffffc0000002b598     hal.obj
 0002:000025a4       $unwind$AuGetTimeOfTheDay  ffffc0000002b5a4     hal.obj
 0002:000025b0       $unwind$?IOAPICInitialise@@YAXPEAX@Z ffffc0000002b5b0     ioapic.obj
 0002:000025bc       $unwind$?IOAPICMaskIRQ@@YAXE_N@Z ffffc0000002b5bc     ioapic.obj
 0002:000025c8       $unwind$?IOAPICRegisterIRQ@@YAX_KP6AX0PEAX@ZE_N@Z ffffc0000002b5c8     ioapic.obj
 0002:000025d4       $unwind$?IOAPICRedirect@@YAXEIGE@Z ffffc0000002b5d4     ioapic.obj
 0002:000025e0       $unwind$?ReadIOAPICRegister@@YAIE@Z ffffc0000002b5e0     ioapic.obj
 0002:000025ec       $unwind$?WriteIOAPICRegister@@YAXEI@Z ffffc0000002b5ec     ioapic.obj
 0002:000025f8       $unwind$?AuCreatePerCPU@@YAXPEAX@Z ffffc0000002b5f8     pcpu.obj
 0002:00002604       $unwind$?AuGetPerCPU@@YAPEAU_cpu_@@E@Z ffffc0000002b604     pcpu.obj
 0002:00002610       $unwind$?AuPerCPUSetCpuID@@YAXE@Z ffffc0000002b610     pcpu.obj
 0002:0000261c       $unwind$?AuPerCPUGetCpuID@@YAEXZ ffffc0000002b61c     pcpu.obj
 0002:00002628       $unwind$?AuPerCPUSetCurrentThread@@YAXPEAX@Z ffffc0000002b628     pcpu.obj
 0002:00002634       $unwind$?AuPerCPUGetCurrentThread@@YAPEAU_au_thread_@@XZ ffffc0000002b634     pcpu.obj
 0002:00002640       $unwind$?AuPerCPUSetKernelTSS@@YAXPEAU_tss@@@Z ffffc0000002b640     pcpu.obj
 0002:0000264c       $unwind$?AuPerCPUGetKernelTSS@@YAPEAU_tss@@XZ ffffc0000002b64c     pcpu.obj
 0002:00002658       $unwind$?AuInitialiseSerial@@YAXXZ ffffc0000002b658     serial.obj
 0002:00002664       $unwind$SeTextOut          ffffc0000002b664     serial.obj
 0002:00002670       $unwind$?SerialInterruptHandler@@YAX_KPEAX@Z ffffc0000002b670     serial.obj
 0002:0000267c       $unwind$?is_transmit_empty@@YAHXZ ffffc0000002b67c     serial.obj
 0002:00002688       $unwind$?WriteSerial@@YAXD@Z ffffc0000002b688     serial.obj
 0002:00002694       $unwind$?DebugSerial@@YAXPEAD@Z ffffc0000002b694     serial.obj
 0002:000026a0       $unwind$?x86_64_ap_init@@YAXPEAX@Z ffffc0000002b6a0     x86_64_ap_init.obj
 0002:000026ac       $unwind$?x86_64_enable_syscall_ext@@YAXXZ ffffc0000002b6ac     x86_64_cpu.obj
 0002:000026b8       $unwind$?x86_64_init_user@@YAX_K@Z ffffc0000002b6b8     x86_64_cpu.obj
 0002:000026c4       $unwind$?x86_64_init_user_ap@@YAX_K@Z ffffc0000002b6c4     x86_64_cpu.obj
 0002:000026d0       $unwind$?x86_64_get_tss@@YAPEAU_tss@@XZ ffffc0000002b6d0     x86_64_cpu.obj
 0002:000026dc       $unwind$?x86_64_hal_cpu_feature_enable@@YAXXZ ffffc0000002b6dc     x86_64_cpu.obj
 0002:000026e8       $unwind$?x86_64_is_cpu_fxsave_supported@@YA_NXZ ffffc0000002b6e8     x86_64_cpu.obj
 0002:000026f4       $unwind$?x86_64_cpu_msi_address@@YA_KPEA_K_KIEE@Z ffffc0000002b6f4     x86_64_cpu.obj
 0002:00002700       $unwind$?x86_64_cpu_initialize@@YAXE@Z ffffc0000002b700     x86_64_cpu.obj
 0002:0000270c       $unwind$?x86_64_set_ap_start_bit@@YAX_N@Z ffffc0000002b70c     x86_64_cpu.obj
 0002:00002718       $unwind$?x86_64_initialise_syscall@@YAXXZ ffffc0000002b718     x86_64_cpu.obj
 0002:00002724       $unwind$?cpu_read_tsc@@YA_KXZ ffffc0000002b724     x86_64_cpu.obj
 0002:00002730       $unwind$?x86_64_measure_cpu_speed@@YAXXZ ffffc0000002b730     x86_64_cpu.obj
 0002:0000273c       $unwind$?x86_64_cpu_get_mhz@@YA_KXZ ffffc0000002b73c     x86_64_cpu.obj
 0002:00002748       $unwind$?x86_64_gettimeofday@@YAHPEAU_timeval_@@@Z ffffc0000002b748     x86_64_cpu.obj
 0002:00002754       $unwind$?_ICRDest@@YA_KI@Z ffffc0000002b754     x86_64_cpu.obj
 0002:00002760       $unwind$?_ICRBusy@@YA_NXZ  ffffc0000002b760     x86_64_cpu.obj
 0002:0000276c       $unwind$?CMOSDump@@YAXPEAG@Z ffffc0000002b76c     x86_64_cpu.obj
 0002:00002778       $unwind$?isUpdateInProgress@@YAHXZ ffffc0000002b778     x86_64_cpu.obj
 0002:00002784       $unwind$?secs_of_years@@YA_KH@Z ffffc0000002b784     x86_64_cpu.obj
 0002:00002790       $unwind$?secs_of_month@@YA_KHH@Z ffffc0000002b790     x86_64_cpu.obj
 0002:0000279c       $unwind$?readCMOS@@YA_KXZ  ffffc0000002b79c     x86_64_cpu.obj
 0002:000027a8       $unwind$?updateTicks@@YAX_KPEA_K1@Z ffffc0000002b7a8     x86_64_cpu.obj
 0002:000027b4       $unwind$?x86_64_exception_init@@YAXXZ ffffc0000002b7b4     x86_64_exception.obj
 0002:000027c0       $unwind$?panic@@YAXPEBDZZ  ffffc0000002b7c0     x86_64_exception.obj
 0002:000027cc       $unwind$?divide_by_zero_fault@@YAX_KPEAX@Z ffffc0000002b7cc     x86_64_exception.obj
 0002:000027d8       $unwind$?single_step_trap@@YAX_KPEAX@Z ffffc0000002b7d8     x86_64_exception.obj
 0002:000027e4       $unwind$?nmi_trap@@YAX_KPEAX@Z ffffc0000002b7e4     x86_64_exception.obj
 0002:000027f0       $unwind$?breakpoint_trap@@YAX_KPEAX@Z ffffc0000002b7f0     x86_64_exception.obj
 0002:000027fc       $unwind$?overflow_trap@@YAX_KPEAX@Z ffffc0000002b7fc     x86_64_exception.obj
 0002:00002808       $unwind$?bounds_check_fault@@YAX_KPEAX@Z ffffc0000002b808     x86_64_exception.obj
 0002:00002814       $unwind$?invalid_opcode_fault@@YAX_KPEAX@Z ffffc0000002b814     x86_64_exception.obj
 0002:00002820       $unwind$?no_device_fault@@YAX_KPEAX@Z ffffc0000002b820     x86_64_exception.obj
 0002:0000282c       $unwind$?double_fault_abort@@YAX_KPEAX@Z ffffc0000002b82c     x86_64_exception.obj
 0002:00002838       $unwind$?invalid_tss_fault@@YAX_KPEAX@Z ffffc0000002b838     x86_64_exception.obj
 0002:00002844       $unwind$?no_segment_fault@@YAX_KPEAX@Z ffffc0000002b844     x86_64_exception.obj
 0002:00002850       $unwind$?stack_fault@@YAX_KPEAX@Z ffffc0000002b850     x86_64_exception.obj
 0002:0000285c       $unwind$?general_protection_fault@@YAX_KPEAX@Z ffffc0000002b85c     x86_64_exception.obj
 0002:00002868       $unwind$?page_fault@@YAX_KPEAX@Z ffffc0000002b868     x86_64_exception.obj
 0002:00002874       $unwind$?fpu_fault@@YAX_KPEAX@Z ffffc0000002b874     x86_64_exception.obj
 0002:00002880       $unwind$?alignment_check_fault@@YAX_KPEAX@Z ffffc0000002b880     x86_64_exception.obj
 0002:0000288c       $unwind$?machine_check_abort@@YAX_KPEAX@Z ffffc0000002b88c     x86_64_exception.obj
 0002:00002898       $unwind$?simd_fpu_fault@@YAX_KPEAX@Z ffffc0000002b898     x86_64_exception.obj
 0002:000028a4       $unwind$x86_64_hal_init_gdt ffffc0000002b8a4     x86_64_gdt.obj
 0002:000028b0       $unwind$?x86_64_hal_init_gdt_ap@@YAXXZ ffffc0000002b8b0     x86_64_gdt.obj
 0002:000028bc       $unwind$?set_gdt_entry@@YAXAEAU_gdt@@_K1EE@Z ffffc0000002b8bc     x86_64_gdt.obj
 0002:000028c8       $unwind$load_default_sregs ffffc0000002b8c8     x86_64_gdt.obj
 0002:000028d4       $unwind$?set_gdt_entry@@YAXAEAU_gdt@@EE@Z ffffc0000002b8d4     x86_64_gdt.obj
 0002:000028e0       $unwind$?fill_gdt@@YAXPEAU_gdt@@@Z ffffc0000002b8e0     x86_64_gdt.obj
 0002:000028ec       $unwind$?save_sregs@@YAXXZ ffffc0000002b8ec     x86_64_gdt.obj
 0002:000028f8       $unwind$?x86_64_hal_initialise@@YAXPEAU_KERNEL_BOOT_INFO_@@@Z ffffc0000002b8f8     x86_64_hal.obj
 0002:00002904       $unwind$?x86_64_idt_init@@YAXXZ ffffc0000002b904     x86_64_idt.obj
 0002:00002910       $unwind$setvect            ffffc0000002b910     x86_64_idt.obj
 0002:0000291c       $unwind$?x86_64_idt_init_ap@@YAXXZ ffffc0000002b91c     x86_64_idt.obj
 0002:00002928       $unwind$?register_irq@@YAXPEAU_idt@@PEAX@Z ffffc0000002b928     x86_64_idt.obj
 0002:00002934       $unwind$interrupt_dispatcher ffffc0000002b934     x86_64_idt.obj
 0002:00002940       $unwind$?default_irq@@YAX_KPEAX@Z ffffc0000002b940     x86_64_idt.obj
 0002:0000294c       $unwind$?x86_64_idt_reg_default_handlers@@YAXXZ ffffc0000002b94c     x86_64_idt.obj
 0002:00002958       $unwind$?AuInitialisePIC@@YAXXZ ffffc0000002b958     x86_64_pic.obj
 0002:00002964       $unwind$?AuPICSetMask@@YAXE@Z ffffc0000002b964     x86_64_pic.obj
 0002:00002970       $unwind$?AuPICClearMask@@YAXE@Z ffffc0000002b970     x86_64_pic.obj
 0002:0000297c       $unwind$?AuPITSleepMS@@YAXI@Z ffffc0000002b97c     x86_64_pic.obj
 0002:00002988       $unwind$?AuPICInterruptEOI@@YAXI@Z ffffc0000002b988     x86_64_pic.obj
 0002:00002994       $unwind$?AuPITOneShotMode@@YAXXZ ffffc0000002b994     x86_64_pic.obj
 0002:000029a0       $unwind$?AuPitOneShotWait@@YAXXZ ffffc0000002b9a0     x86_64_pic.obj
 0002:000029ac       $unwind$?AuPITHandler@@YAX_KPEAX@Z ffffc0000002b9ac     x86_64_pic.obj
 0002:000029b8       $unwind$?AuSchedulerStart@@YAXXZ ffffc0000002b9b8     x86_64_sched.obj
 0002:000029c4       $unwind$?AuSchedulerInitialise@@YAXXZ ffffc0000002b9c4     x86_64_sched.obj
 0002:000029d0       $unwind$?AuSchedulerInitAp@@YAXXZ ffffc0000002b9d0     x86_64_sched.obj
 0002:000029dc       $unwind$AuCreateKthread    ffffc0000002b9dc     x86_64_sched.obj
 0002:000029e8       $unwind$AuGetCurrentThread ffffc0000002b9e8     x86_64_sched.obj
 0002:000029f4       $unwind$?AuKThreadCopy@@YAXPEAU_au_thread_@@0@Z ffffc0000002b9f4     x86_64_sched.obj
 0002:00002a00       $unwind$AuBlockThread      ffffc0000002ba00     x86_64_sched.obj
 0002:00002a0c       $unwind$AuSleepThread      ffffc0000002ba0c     x86_64_sched.obj
 0002:00002a18       $unwind$AuUnblockThread    ffffc0000002ba18     x86_64_sched.obj
 0002:00002a24       $unwind$?AuThreadMoveToTrash@@YAXPEAU_au_thread_@@@Z ffffc0000002ba24     x86_64_sched.obj
 0002:00002a30       $unwind$?AuThreadCleanTrash@@YAXPEAU_au_thread_@@@Z ffffc0000002ba30     x86_64_sched.obj
 0002:00002a3c       $unwind$AuThreadFindByID   ffffc0000002ba3c     x86_64_sched.obj
 0002:00002a48       $unwind$AuThreadFindByIDBlockList ffffc0000002ba48     x86_64_sched.obj
 0002:00002a54       $unwind$AuForceScheduler   ffffc0000002ba54     x86_64_sched.obj
 0002:00002a60       $unwind$?AuIsSchedulerInitialised@@YA_NXZ ffffc0000002ba60     x86_64_sched.obj
 0002:00002a6c       $unwind$AuGetSystemTimerTick ffffc0000002ba6c     x86_64_sched.obj
 0002:00002a78       $unwind$?AuThreadInsert@@YAXPEAU_au_thread_@@@Z ffffc0000002ba78     x86_64_sched.obj
 0002:00002a84       $unwind$?AuThreadDelete@@YAXPEAU_au_thread_@@@Z ffffc0000002ba84     x86_64_sched.obj
 0002:00002a90       $unwind$?AuThreadInsertBlock@@YAXPEAU_au_thread_@@@Z ffffc0000002ba90     x86_64_sched.obj
 0002:00002a9c       $unwind$?AuThreadDeleteBlock@@YAXPEAU_au_thread_@@@Z ffffc0000002ba9c     x86_64_sched.obj
 0002:00002aa8       $unwind$?AuThreadInsertTrash@@YAXPEAU_au_thread_@@@Z ffffc0000002baa8     x86_64_sched.obj
 0002:00002ab4       $unwind$?AuThreadDeleteTrash@@YAXPEAU_au_thread_@@@Z ffffc0000002bab4     x86_64_sched.obj
 0002:00002ac0       $unwind$?AuIdleThread@@YAX_K@Z ffffc0000002bac0     x86_64_sched.obj
 0002:00002acc       $unwind$?AuNextThread@@YAXXZ ffffc0000002bacc     x86_64_sched.obj
 0002:00002ad8       $unwind$?x8664SchedulerISR@@YAX_KPEAX@Z ffffc0000002bad8     x86_64_sched.obj
 0002:00002ae4       $unwind$AuPrintStack       ffffc0000002bae4     x86_64_sched.obj
 0002:00002af0       $unwind$?AuAllocateSignal@@YAXPEAU_au_thread_@@H@Z ffffc0000002baf0     x86_64_signal.obj
 0002:00002afc       $unwind$?AuCheckSignal@@YA_NPEAU_au_thread_@@PEAUinterrupt_stack_frame@@@Z ffffc0000002bafc     x86_64_signal.obj
 0002:00002b08       $unwind$?AuGetSignal@@YAPEAU_signal_@@PEAU_au_thread_@@@Z ffffc0000002bb08     x86_64_signal.obj
 0002:00002b14       $unwind$?AuPrepareSignal@@YAXPEAU_au_thread_@@PEAUinterrupt_stack_frame@@PEAU_signal_@@@Z ffffc0000002bb14     x86_64_signal.obj
 0002:00002b20       $unwind$?AuSendSignal@@YAXGH@Z ffffc0000002bb20     x86_64_signal.obj
 0002:00002b2c       $unwind$?AuSignalRemoveAll@@YAXPEAU_au_thread_@@@Z ffffc0000002bb2c     x86_64_signal.obj
 0002:00002b38       $unwind$AuSignalDebug      ffffc0000002bb38     x86_64_signal.obj
 0002:00002b44       $unwind$?KePrintMsg@@YA_K_J00000@Z ffffc0000002bb44     x86_64_systable.obj
 0002:00002b50       $unwind$?null_call@@YA_K_J00000@Z ffffc0000002bb50     x86_64_systable.obj
 0002:00002b5c       $unwind$x64_syscall_handler ffffc0000002bb5c     x86_64_systable.obj
 0002:00002b68       $unwind$?_AuMain@@YAXPEAU_KERNEL_BOOT_INFO_@@@Z ffffc0000002bb68     init.obj
 0002:00002b74       $unwind$?AuIPCPostBoxInitialise@@YAXXZ ffffc0000002bb74     postbox.obj
 0002:00002b80       $unwind$?PostBoxPutEvent@@YAXPEAU_post_event_@@@Z ffffc0000002bb80     postbox.obj
 0002:00002b8c       $unwind$?PostBoxGetEvent@@YAHPEAU_post_event_@@_NPEAU_au_thread_@@@Z ffffc0000002bb8c     postbox.obj
 0002:00002b98       $unwind$?PostBoxCreate@@YAX_NG@Z ffffc0000002bb98     postbox.obj
 0002:00002ba4       $unwind$?PostBoxDestroyByID@@YAXG@Z ffffc0000002bba4     postbox.obj
 0002:00002bb0       $unwind$?PostBoxAdvanceIndex@@YAXPEAU_postbox_@@@Z ffffc0000002bbb0     postbox.obj
 0002:00002bbc       $unwind$?PostBoxRetreat@@YAXPEAU_postbox_@@@Z ffffc0000002bbbc     postbox.obj
 0002:00002bc8       $unwind$?IsPostBoxEmpty@@YA_NPEAU_postbox_@@@Z ffffc0000002bbc8     postbox.obj
 0002:00002bd4       $unwind$?IsPostBoxFull@@YA_NPEAU_postbox_@@@Z ffffc0000002bbd4     postbox.obj
 0002:00002be0       $unwind$?PostBoxDestroy@@YAXPEAU_postbox_@@@Z ffffc0000002bbe0     postbox.obj
 0002:00002bec       $unwind$?PostBoxIOControl@@YAHPEAU__VFS_NODE__@@HPEAX@Z ffffc0000002bbec     postbox.obj
 0002:00002bf8       $unwind$initialize_list    ffffc0000002bbf8     list.obj
 0002:00002c04       $unwind$list_add           ffffc0000002bc04     list.obj
 0002:00002c10       $unwind$list_remove        ffffc0000002bc10     list.obj
 0002:00002c1c       $unwind$list_get_at        ffffc0000002bc1c     list.obj
 0002:00002c28       $unwind$?AuInitialiseLoader@@YAXXZ ffffc0000002bc28     loader.obj
 0002:00002c34       $unwind$?AuLoadExecToProcess@@YAHPEAU_au_proc_@@PEADHPEAPEAD@Z ffffc0000002bc34     loader.obj
 0002:00002c40       $unwind$?AuProcessEntUser@@YAX_K@Z ffffc0000002bc40     loader.obj
 0002:00002c4c       $unwind$?AuLoaderGetMutex@@YAPEAU_mutex_@@XZ ffffc0000002bc4c     loader.obj
 0002:00002c58       $unwind$?AuIsLoaderBusy@@YA_NXZ ffffc0000002bc58     loader.obj
 0002:00002c64       $unwind$AuHeapInitialize   ffffc0000002bc64     kmalloc.obj
 0002:00002c70       $unwind$kmalloc            ffffc0000002bc70     kmalloc.obj
 0002:00002c7c       $unwind$krealloc           ffffc0000002bc7c     kmalloc.obj
 0002:00002c88       $unwind$kcalloc            ffffc0000002bc88     kmalloc.obj
 0002:00002c94       $unwind$kfree              ffffc0000002bc94     kmalloc.obj
 0002:00002ca0       $unwind$kheap_debug        ffffc0000002bca0     kmalloc.obj
 0002:00002cac       $unwind$kmalloc_debug_on   ffffc0000002bcac     kmalloc.obj
 0002:00002cb8       $unwind$?au_free_page@@YAXPEAXH@Z ffffc0000002bcb8     kmalloc.obj
 0002:00002cc4       $unwind$?au_request_page@@YAPEAXH@Z ffffc0000002bcc4     kmalloc.obj
 0002:00002cd0       $unwind$?next_power_of_two@@YAHI@Z ffffc0000002bcd0     kmalloc.obj
 0002:00002cdc       $unwind$?align24@@YA_K_K@Z ffffc0000002bcdc     kmalloc.obj
 0002:00002ce8       $unwind$?au_split_block@@YAHPEAU_meta_data_@@_K@Z ffffc0000002bce8     kmalloc.obj
 0002:00002cf4       $unwind$?au_expand_kmalloc@@YAX_K@Z ffffc0000002bcf4     kmalloc.obj
 0002:00002d00       $unwind$?merge_next@@YAXPEAU_meta_data_@@@Z ffffc0000002bd00     kmalloc.obj
 0002:00002d0c       $unwind$?merge_prev@@YAXPEAU_meta_data_@@@Z ffffc0000002bd0c     kmalloc.obj
 0002:00002d18       $unwind$liballoc_lock      ffffc0000002bd18     liballoc.obj
 0002:00002d24       $unwind$liballoc_unlock    ffffc0000002bd24     liballoc.obj
 0002:00002d30       $unwind$liballoc_alloc     ffffc0000002bd30     liballoc.obj
 0002:00002d3c       $unwind$liballoc_free      ffffc0000002bd3c     liballoc.obj
 0002:00002d48       $unwind$port_malloc        ffffc0000002bd48     liballoc.obj
 0002:00002d54       $unwind$port_realloc       ffffc0000002bd54     liballoc.obj
 0002:00002d60       $unwind$port_calloc        ffffc0000002bd60     liballoc.obj
 0002:00002d6c       $unwind$port_free          ffffc0000002bd6c     liballoc.obj
 0002:00002d78       $unwind$?getexp@@YAHI@Z    ffffc0000002bd78     liballoc.obj
 0002:00002d84       $unwind$?liballoc_memset@@YAPEAXPEAXH_K@Z ffffc0000002bd84     liballoc.obj
 0002:00002d90       $unwind$?liballoc_memcpy@@YAPEAXPEAXPEBX_K@Z ffffc0000002bd90     liballoc.obj
 0002:00002d9c       $unwind$?insert_tag@@YAXPEAUboundary_tag@@H@Z ffffc0000002bd9c     liballoc.obj
 0002:00002da8       $unwind$?remove_tag@@YAXPEAUboundary_tag@@@Z ffffc0000002bda8     liballoc.obj
 0002:00002db4       $unwind$?melt_left@@YAPEAUboundary_tag@@PEAU1@@Z ffffc0000002bdb4     liballoc.obj
 0002:00002dc0       $unwind$?absorb_right@@YAPEAUboundary_tag@@PEAU1@@Z ffffc0000002bdc0     liballoc.obj
 0002:00002dcc       $unwind$?split_tag@@YAPEAUboundary_tag@@PEAU1@@Z ffffc0000002bdcc     liballoc.obj
 0002:00002dd8       $unwind$?allocate_new_tag@@YAPEAUboundary_tag@@I@Z ffffc0000002bdd8     liballoc.obj
 0002:00002de4       $unwind$?SharedMemMapListInitialise@@YAXXZ ffffc0000002bde4     mmap.obj
 0002:00002df0       $unwind$?CreateMemMapping@@YAPEAXPEAX_KHHH1@Z ffffc0000002bdf0     mmap.obj
 0002:00002dfc       $unwind$?MemMapDirty@@YAXPEAX_KHH@Z ffffc0000002bdfc     mmap.obj
 0002:00002e08       $unwind$?UnmapMemMapping@@YAXPEAX_K@Z ffffc0000002be08     mmap.obj
 0002:00002e14       $unwind$?AuCreateSharedMmapObject@@YAPEAU_sh_memap_object_@@PEAD@Z ffffc0000002be14     mmap.obj
 0002:00002e20       $unwind$?AuAddSharedMmapObject@@YAXPEAU_sh_memap_object_@@@Z ffffc0000002be20     mmap.obj
 0002:00002e2c       $unwind$?AuRemoveSharedMmapObject@@YAXPEAU_sh_memap_object_@@@Z ffffc0000002be2c     mmap.obj
 0002:00002e38       $unwind$?AuSharedMmapObjectFindByName@@YAPEAU_sh_memap_object_@@PEAD@Z ffffc0000002be38     mmap.obj
 0002:00002e44       $unwind$?AuPmmngrInitialize@@YAXPEAU_KERNEL_BOOT_INFO_@@@Z ffffc0000002be44     pmmngr.obj
 0002:00002e50       $unwind$AuPmmngrAlloc      ffffc0000002be50     pmmngr.obj
 0002:00002e5c       $unwind$AuPmmngrAllocBlocks ffffc0000002be5c     pmmngr.obj
 0002:00002e68       $unwind$AuPmmngrFree       ffffc0000002be68     pmmngr.obj
 0002:00002e74       $unwind$AuPmmngrFreeBlocks ffffc0000002be74     pmmngr.obj
 0002:00002e80       $unwind$P2V                ffffc0000002be80     pmmngr.obj
 0002:00002e8c       $unwind$V2P                ffffc0000002be8c     pmmngr.obj
 0002:00002e98       $unwind$?AuPmmngrMoveHigher@@YAXXZ ffffc0000002be98     pmmngr.obj
 0002:00002ea4       $unwind$?AuPmmngrGetFreeMem@@YA_KXZ ffffc0000002bea4     pmmngr.obj
 0002:00002eb0       $unwind$?AuPmmngrGetTotalMem@@YA_KXZ ffffc0000002beb0     pmmngr.obj
 0002:00002ebc       $unwind$??ABitmap@@QEAA_N_K@Z ffffc0000002bebc     pmmngr.obj
 0002:00002ec8       $unwind$?Set@Bitmap@@QEAA_N_K_N@Z ffffc0000002bec8     pmmngr.obj
 0002:00002ed4       $unwind$?AuPmmngrInitBitmap@@YAX_KPEAX@Z ffffc0000002bed4     pmmngr.obj
 0002:00002ee0       $unwind$?AuPmmngrLockPage@@YAX_K@Z ffffc0000002bee0     pmmngr.obj
 0002:00002eec       $unwind$?AuPmmngrLockPages@@YAXPEAX_K@Z ffffc0000002beec     pmmngr.obj
 0002:00002ef8       $unwind$?AuPmmngrUnreservePage@@YAXPEAX@Z ffffc0000002bef8     pmmngr.obj
 0002:00002f04       $unwind$?AuInitialiseSHMMan@@YAXXZ ffffc0000002bf04     shm.obj
 0002:00002f10       $unwind$?AuGetSHMByID@@YAPEAU_shm_@@G@Z ffffc0000002bf10     shm.obj
 0002:00002f1c       $unwind$?AuCreateSHM@@YAHPEAU_au_proc_@@G_KE@Z ffffc0000002bf1c     shm.obj
 0002:00002f28       $unwind$?AuSHMObtainMem@@YAPEAXPEAU_au_proc_@@GPEAXH@Z ffffc0000002bf28     shm.obj
 0002:00002f34       $unwind$?AuSHMUnmap@@YAXGPEAU_au_proc_@@@Z ffffc0000002bf34     shm.obj
 0002:00002f40       $unwind$?AuSHMUnmapAll@@YAXPEAU_au_proc_@@@Z ffffc0000002bf40     shm.obj
 0002:00002f4c       $unwind$?AuSHMGetID@@YAGXZ ffffc0000002bf4c     shm.obj
 0002:00002f58       $unwind$?AuGetSHMSeg@@YAPEAU_shm_@@G@Z ffffc0000002bf58     shm.obj
 0002:00002f64       $unwind$?AuSHMDelete@@YAXPEAU_shm_@@@Z ffffc0000002bf64     shm.obj
 0002:00002f70       $unwind$?AuSHMProcBreak@@YA_KPEAU_au_proc_@@_K@Z ffffc0000002bf70     shm.obj
 0002:00002f7c       $unwind$?AuSHMProcSwap@@YAXPEAU_data_@@0@Z ffffc0000002bf7c     shm.obj
 0002:00002f88       $unwind$?AuSHMProcOrderList@@YAXPEAU_au_proc_@@@Z ffffc0000002bf88     shm.obj
 0002:00002f94       $unwind$?AuInsertVMArea@@YAXPEAU_au_proc_@@PEAU_vm_area_@@@Z ffffc0000002bf94     vmarea.obj
 0002:00002fa0       $unwind$?AuRemoveVMArea@@YAXPEAU_au_proc_@@PEAU_vm_area_@@@Z ffffc0000002bfa0     vmarea.obj
 0002:00002fac       $unwind$?AuVMAreaCreate@@YAPEAU_vm_area_@@_K0E0E@Z ffffc0000002bfac     vmarea.obj
 0002:00002fb8       $unwind$?AuVMAreaGet@@YAPEAU_vm_area_@@PEAU_au_proc_@@_K@Z ffffc0000002bfb8     vmarea.obj
 0002:00002fc4       $unwind$?AuVmmngrInitialize@@YAXXZ ffffc0000002bfc4     vmmngr.obj
 0002:00002fd0       $unwind$AuVmmngrGetPage    ffffc0000002bfd0     vmmngr.obj
 0002:00002fdc       $unwind$AuMapPage          ffffc0000002bfdc     vmmngr.obj
 0002:00002fe8       $unwind$AuMapPageEx        ffffc0000002bfe8     vmmngr.obj
 0002:00002ff4       $unwind$AuMapMMIO          ffffc0000002bff4     vmmngr.obj
 0002:00003000       $unwind$AuGetFreePage      ffffc0000002c000     vmmngr.obj
 0002:0000300c       $unwind$AuFreePages        ffffc0000002c00c     vmmngr.obj
 0002:00003018       $unwind$AuGetPhysicalAddress ffffc0000002c018     vmmngr.obj
 0002:00003024       $unwind$AuGetPhysicalAddressEx ffffc0000002c024     vmmngr.obj
 0002:00003030       $unwind$AuCreateVirtualAddressSpace ffffc0000002c030     vmmngr.obj
 0002:0000303c       $unwind$AuGetRootPageTable ffffc0000002c03c     vmmngr.obj
 0002:00003048       $unwind$?AuVmmngrBootFree@@YAXXZ ffffc0000002c048     vmmngr.obj
 0002:00003054       $unwind$?AuVmmngrCloneAddressSpace@@YAXPEA_K0@Z ffffc0000002c054     vmmngr.obj
 0002:00003060       $unwind$?x86_64_pml4_index@@YA_K_K@Z ffffc0000002c060     vmmngr.obj
 0002:0000306c       $unwind$?x86_64_pdp_index@@YA_K_K@Z ffffc0000002c06c     vmmngr.obj
 0002:00003078       $unwind$?x86_64_pd_index@@YA_K_K@Z ffffc0000002c078     vmmngr.obj
 0002:00003084       $unwind$?x86_64_pt_index@@YA_K_K@Z ffffc0000002c084     vmmngr.obj
 0002:00003090       $unwind$?x86_64_p_index@@YA_K_K@Z ffffc0000002c090     vmmngr.obj
 0002:0000309c       $unwind$?Au_x86_64_Paging_Init@@YAXXZ ffffc0000002c09c     vmmngr.obj
 0002:000030a8       $unwind$AuARPRequestMAC    ffffc0000002c0a8     arp.obj
 0002:000030b4       $unwind$?AuInitialiseNet@@YAXXZ ffffc0000002c0b4     aunet.obj
 0002:000030c0       $unwind$AuAddNetAdapter    ffffc0000002c0c0     aunet.obj
 0002:000030cc       $unwind$AuGetNetworkAdapter ffffc0000002c0cc     aunet.obj
 0002:000030d8       $unwind$?AuNetworkRoute@@YAPEAU__VFS_NODE__@@I@Z ffffc0000002c0d8     aunet.obj
 0002:000030e4       $unwind$?AuEthernetSend@@YAXPEAU__VFS_NODE__@@PEAX_KGPEAE@Z ffffc0000002c0e4     ethernet.obj
 0002:000030f0       $unwind$AuEthernetHandle   ffffc0000002c0f0     ethernet.obj
 0002:000030fc       $unwind$?AuPCIEGetDevice@@YA_KGHHH@Z ffffc0000002c0fc     pcie.obj
 0002:00003108       $unwind$AuPCIEAllocMSI     ffffc0000002c108     pcie.obj
 0002:00003114       $unwind$AuPCIEScanClassIF  ffffc0000002c114     pcie.obj
 0002:00003120       $unwind$AuPCIEScanClass    ffffc0000002c120     pcie.obj
 0002:0000312c       $unwind$AuPCIEWrite        ffffc0000002c12c     pcie.obj
 0002:00003138       $unwind$AuPCIERead         ffffc0000002c138     pcie.obj
 0002:00003144       $unwind$AuPCIERead64       ffffc0000002c144     pcie.obj
 0002:00003150       $unwind$AuPCIEWrite64      ffffc0000002c150     pcie.obj
 0002:0000315c       $unwind$??$mem_after@PEAUacpiMcfgAlloc@@UacpiMcfg@@@@YAPEAUacpiMcfgAlloc@@PEAUacpiMcfg@@@Z ffffc0000002c15c     pcie.obj
 0002:00003168       $unwind$??$raw_offset@PECE_K@@YAPECE_KH@Z ffffc0000002c168     pcie.obj
 0002:00003174       $unwind$??$raw_offset@PECG_K@@YAPECG_KH@Z ffffc0000002c174     pcie.obj
 0002:00003180       $unwind$??$raw_offset@PECI_K@@YAPECI_KH@Z ffffc0000002c180     pcie.obj
 0002:0000318c       $unwind$?AuGetProcAddress@@YAPEAXPEAXPEBD@Z ffffc0000002c18c     pe.obj
 0002:00003198       $unwind$?AuKernelLinkDLL@@YAXPEAX@Z ffffc0000002c198     pe.obj
 0002:000031a4       $unwind$?AuPEPrintExports@@YAXPEAX@Z ffffc0000002c1a4     pe.obj
 0002:000031b0       $unwind$?AuKernelLinkImports@@YAXPEAX@Z ffffc0000002c1b0     pe.obj
 0002:000031bc       $unwind$?AuKernelRelocatePE@@YAXPEAXPEAU_IMAGE_NT_HEADERS_PE32PLUS@@H@Z ffffc0000002c1bc     pe.obj
 0002:000031c8       $unwind$?AuPEFileIsDynamicallyLinked@@YA_NPEAX@Z ffffc0000002c1c8     pe.obj
 0002:000031d4       $unwind$??$raw_offset@PEAU_IMAGE_EXPORT_DIRECTORY@@PEAX@@YAPEAU_IMAGE_EXPORT_DIRECTORY@@PEAXH@Z ffffc0000002c1d4     pe.obj
 0002:000031e0       $unwind$??$raw_offset@PEAIPEAX@@YAPEAIPEAXH@Z ffffc0000002c1e0     pe.obj
 0002:000031ec       $unwind$??$raw_offset@PEAGPEAX@@YAPEAGPEAXH@Z ffffc0000002c1ec     pe.obj
 0002:000031f8       $unwind$??$raw_offset@PEADPEAX@@YAPEADPEAXH@Z ffffc0000002c1f8     pe.obj
 0002:00003204       $unwind$??$raw_offset@PEAXPEAX@@YAPEAXPEAXH@Z ffffc0000002c204     pe.obj
 0002:00003210       $unwind$??$raw_offset@PEAU_IMAGE_IMPORT_DIRECTORY@@PEAE@@YAPEAU_IMAGE_IMPORT_DIRECTORY@@PEAEH@Z ffffc0000002c210     pe.obj
 0002:0000321c       $unwind$??$raw_offset@PEBDPEAX@@YAPEBDPEAXH@Z ffffc0000002c21c     pe.obj
 0002:00003228       $unwind$??$raw_offset@PEA_KPEAE@@YAPEA_KPEAEH@Z ffffc0000002c228     pe.obj
 0002:00003234       $unwind$??$raw_offset@PEAU_IMAGE_IMPORT_HINT_TABLE@@PEAX@@YAPEAU_IMAGE_IMPORT_HINT_TABLE@@PEAXH@Z ffffc0000002c234     pe.obj
 0002:00003240       $unwind$??$raw_offset@PEBDPEAE@@YAPEBDPEAEH@Z ffffc0000002c240     pe.obj
 0002:0000324c       $unwind$??$raw_offset@PEAU_IMAGE_IMPORT_HINT_TABLE@@PEAE@@YAPEAU_IMAGE_IMPORT_HINT_TABLE@@PEAEH@Z ffffc0000002c24c     pe.obj
 0002:00003258       $unwind$??$raw_offset@PEAU_IMAGE_RELOCATION_BLOCK_@@PEAX@@YAPEAU_IMAGE_RELOCATION_BLOCK_@@PEAXH@Z ffffc0000002c258     pe.obj
 0002:00003264       $unwind$??$raw_diff@U_IMAGE_RELOCATION_BLOCK_@@U1@@@YAHPEAU_IMAGE_RELOCATION_BLOCK_@@0@Z ffffc0000002c264     pe.obj
 0002:00003270       $unwind$??$raw_offset@PEAU_IMAGE_RELOCATION_BLOCK_@@PEAU1@@@YAPEAU_IMAGE_RELOCATION_BLOCK_@@PEAU0@H@Z ffffc0000002c270     pe.obj
 0002:0000327c       $unwind$?AuAddProcess@@YAXPEAU_au_proc_@@0@Z ffffc0000002c27c     process.obj
 0002:00003288       $unwind$?AuRemoveProcess@@YAXPEAU_au_proc_@@0@Z ffffc0000002c288     process.obj
 0002:00003294       $unwind$?CreateKernelStack@@YA_KPEAU_au_proc_@@PEA_K@Z ffffc0000002c294     process.obj
 0002:000032a0       $unwind$?KernelStackFree@@YAXPEAU_au_proc_@@PEAXPEA_K@Z ffffc0000002c2a0     process.obj
 0002:000032ac       $unwind$?AuProcessFindPID@@YAPEAU_au_proc_@@H@Z ffffc0000002c2ac     process.obj
 0002:000032b8       $unwind$?AuProcessFindThread@@YAPEAU_au_proc_@@PEAU_au_thread_@@@Z ffffc0000002c2b8     process.obj
 0002:000032c4       $unwind$?AuProcessFindSubThread@@YAPEAU_au_proc_@@PEAU_au_thread_@@@Z ffffc0000002c2c4     process.obj
 0002:000032d0       $unwind$?CreateUserStack@@YAPEA_KPEAU_au_proc_@@PEA_K@Z ffffc0000002c2d0     process.obj
 0002:000032dc       $unwind$?AuStartRootProc@@YAXXZ ffffc0000002c2dc     process.obj
 0002:000032e8       $unwind$?AuGetRootProcess@@YAPEAU_au_proc_@@XZ ffffc0000002c2e8     process.obj
 0002:000032f4       $unwind$?AuCreateProcessSlot@@YAPEAU_au_proc_@@PEAU1@PEAD@Z ffffc0000002c2f4     process.obj
 0002:00003300       $unwind$?AuProcessExit@@YAXPEAU_au_proc_@@_N@Z ffffc0000002c300     process.obj
 0002:0000330c       $unwind$?AuProcessGetFileDesc@@YAHPEAU_au_proc_@@@Z ffffc0000002c30c     process.obj
 0002:00003318       $unwind$?AuProcessWaitForTermination@@YAXPEAU_au_proc_@@H@Z ffffc0000002c318     process.obj
 0002:00003324       $unwind$?AuProcessGetMutex@@YAPEAU_mutex_@@XZ ffffc0000002c324     process.obj
 0002:00003330       $unwind$?AuCreateUserthread@@YAHPEAU_au_proc_@@P6AXPEAX@ZPEAD@Z ffffc0000002c330     process.obj
 0002:0000333c       $unwind$?AuProcessFindByPID@@YAPEAU_au_proc_@@PEAU1@H@Z ffffc0000002c33c     process.obj
 0002:00003348       $unwind$?AuProcessFindByThread@@YAPEAU_au_proc_@@PEAU1@PEAU_au_thread_@@@Z ffffc0000002c348     process.obj
 0002:00003354       $unwind$?AuAllocateProcessID@@YAHXZ ffffc0000002c354     process.obj
 0002:00003360       $unwind$?AuCreateRootProc@@YAPEAU_au_proc_@@XZ ffffc0000002c360     process.obj
 0002:0000336c       $unwind$?AuGetKillableProcess@@YAPEAU_au_proc_@@XZ ffffc0000002c36c     process.obj
 0002:00003378       $unwind$?AuProcessHeapMemDestroy@@YAXPEAU_au_proc_@@@Z ffffc0000002c378     process.obj
 0002:00003384       $unwind$?AuProcessFreeKeResource@@YAXPEAU_au_thread_@@@Z ffffc0000002c384     process.obj
 0002:00003390       $unwind$?OpenFile@@YAHPEADH@Z ffffc0000002c390     fileserv.obj
 0002:0000339c       $unwind$?FileSetOffset@@YAHH_K@Z ffffc0000002c39c     fileserv.obj
 0002:000033a8       $unwind$?ReadFile@@YA_KHPEAX_K@Z ffffc0000002c3a8     fileserv.obj
 0002:000033b4       $unwind$?WriteFile@@YA_KHPEAX_K@Z ffffc0000002c3b4     fileserv.obj
 0002:000033c0       $unwind$?CreateDir@@YAHPEAD@Z ffffc0000002c3c0     fileserv.obj
 0002:000033cc       $unwind$?RemoveFile@@YAHPEAD@Z ffffc0000002c3cc     fileserv.obj
 0002:000033d8       $unwind$?CloseFile@@YAHH@Z ffffc0000002c3d8     fileserv.obj
 0002:000033e4       $unwind$?FileIoControl@@YAHHHPEAX@Z ffffc0000002c3e4     fileserv.obj
 0002:000033f0       $unwind$?FileStat@@YAHHPEAX@Z ffffc0000002c3f0     fileserv.obj
 0002:000033fc       $unwind$?OpenDir@@YAHPEAD@Z ffffc0000002c3fc     fileserv.obj
 0002:00003408       $unwind$?ReadDir@@YAHHPEAX@Z ffffc0000002c408     fileserv.obj
 0002:00003414       $unwind$?ProcessGetFileDesc@@YAHPEBD@Z ffffc0000002c414     fileserv.obj
 0002:00003420       $unwind$?CreateSharedMem@@YAHG_KE@Z ffffc0000002c420     mmserv.obj
 0002:0000342c       $unwind$?ObtainSharedMem@@YAPEAXGPEAXH@Z ffffc0000002c42c     mmserv.obj
 0002:00003438       $unwind$?UnmapSharedMem@@YAXG@Z ffffc0000002c438     mmserv.obj
 0002:00003444       $unwind$?GetProcessHeapMem@@YA_K_K@Z ffffc0000002c444     mmserv.obj
 0002:00003450       $unwind$?ProcessHeapUnmap@@YAHPEAX_K@Z ffffc0000002c450     mmserv.obj
 0002:0000345c       $unwind$?NetSend@@YAHHPEAU_msghdr_@@H@Z ffffc0000002c45c     netserv.obj
 0002:00003468       $unwind$?NetReceive@@YAHHPEAU_msghdr_@@H@Z ffffc0000002c468     netserv.obj
 0002:00003474       $unwind$?NetConnect@@YAHHPEAU_sockaddr_@@_K@Z ffffc0000002c474     netserv.obj
 0002:00003480       $unwind$?NetBind@@YAHHPEAU_sockaddr_@@_K@Z ffffc0000002c480     netserv.obj
 0002:0000348c       $unwind$?NetAccept@@YAHHPEAU_sockaddr_@@PEA_K@Z ffffc0000002c48c     netserv.obj
 0002:00003498       $unwind$?NetListen@@YAHHH@Z ffffc0000002c498     netserv.obj
 0002:000034a4       $unwind$?PauseThread@@YAHXZ ffffc0000002c4a4     thrserv.obj
 0002:000034b0       $unwind$?GetThreadID@@YAGXZ ffffc0000002c4b0     thrserv.obj
 0002:000034bc       $unwind$?GetProcessID@@YAHXZ ffffc0000002c4bc     thrserv.obj
 0002:000034c8       $unwind$?ProcessExit@@YAHXZ ffffc0000002c4c8     thrserv.obj
 0002:000034d4       $unwind$?ProcessWaitForTermination@@YAHH@Z ffffc0000002c4d4     thrserv.obj
 0002:000034e0       $unwind$?CreateProcess@@YAHHPEAD@Z ffffc0000002c4e0     thrserv.obj
 0002:000034ec       $unwind$?ProcessLoadExec@@YAHHPEADHPEAPEAD@Z ffffc0000002c4ec     thrserv.obj
 0002:000034f8       $unwind$?ProcessSleep@@YAH_K@Z ffffc0000002c4f8     thrserv.obj
 0002:00003504       $unwind$?SignalReturn@@YAXH@Z ffffc0000002c504     thrserv.obj
 0002:00003510       $unwind$?SetSignal@@YAHHP6AXH@Z@Z ffffc0000002c510     thrserv.obj
 0002:0000351c       $unwind$?GetSystemTimerTick@@YA_KXZ ffffc0000002c51c     thrserv.obj
 0002:00003528       $unwind$?CreateUserThread@@YAHP6AXPEAX@ZPEAD@Z ffffc0000002c528     thrserv.obj
 0002:00003534       $unwind$?CloseUserThread@@YAHH@Z ffffc0000002c534     thrserv.obj
 0002:00003540       $unwind$?SetFileToProcess@@YAHHHH@Z ffffc0000002c540     thrserv.obj
 0002:0000354c       $unwind$?SendSignal@@YAHHH@Z ffffc0000002c54c     thrserv.obj
 0002:00003558       $unwind$?GetCurrentTime@@YAHPEAX@Z ffffc0000002c558     thrserv.obj
 0002:00003564       $unwind$?CreateTimer@@YAHHHE@Z ffffc0000002c564     timerserv.obj
 0002:00003570       $unwind$?StartTimer@@YAHH@Z ffffc0000002c570     timerserv.obj
 0002:0000357c       $unwind$?StopTimer@@YAHH@Z ffffc0000002c57c     timerserv.obj
 0002:00003588       $unwind$?DestroyTimer@@YAHH@Z ffffc0000002c588     timerserv.obj
 0002:00003594       $unwind$?GetTimeOfDay@@YAHPEAX@Z ffffc0000002c594     timerserv.obj
 0002:000035a0       $unwind$?AuSoundInitialise@@YAXXZ ffffc0000002c5a0     sound.obj
 0002:000035ac       $unwind$AuSoundSetCard     ffffc0000002c5ac     sound.obj
 0002:000035b8       $unwind$AuSoundGetBlock    ffffc0000002c5b8     sound.obj
 0002:000035c4       $unwind$AuSoundRemoveDSP   ffffc0000002c5c4     sound.obj
 0002:000035d0       $unwind$?AuSoundStart@@YAXXZ ffffc0000002c5d0     sound.obj
 0002:000035dc       $unwind$?AuSoundStop@@YAXXZ ffffc0000002c5dc     sound.obj
 0002:000035e8       $unwind$?AuSoundAddDSP@@YAXPEAU__au_dsp__@@@Z ffffc0000002c5e8     sound.obj
 0002:000035f4       $unwind$?AuRemoveDSP@@YAXPEAU__au_dsp__@@@Z ffffc0000002c5f4     sound.obj
 0002:00003600       $unwind$?AuSoundGetDSP@@YAPEAU__au_dsp__@@G@Z ffffc0000002c600     sound.obj
 0002:0000360c       $unwind$?AuSoundRead@@YA_KPEAU__VFS_NODE__@@0PEA_KI@Z ffffc0000002c60c     sound.obj
 0002:00003618       $unwind$?AuSoundWrite@@YA_KPEAU__VFS_NODE__@@0PEA_KI@Z ffffc0000002c618     sound.obj
 0002:00003624       $unwind$?AuSoundIOControl@@YAHPEAU__VFS_NODE__@@HPEAX@Z ffffc0000002c624     sound.obj
 0002:00003630       $unwind$AuStackCreate      ffffc0000002c630     stack.obj
 0002:0000363c       $unwind$AuStackPush        ffffc0000002c63c     stack.obj
 0002:00003648       $unwind$AuStackPop         ffffc0000002c648     stack.obj
 0002:00003654       $unwind$?atoi@@YAHPEBD@Z   ffffc0000002c654     stdio.obj
 0002:00003660       $unwind$?sztoa@@YAPEAD_KPEADH@Z ffffc0000002c660     stdio.obj
 0002:0000366c       $unwind$printf             ffffc0000002c66c     stdio.obj
 0002:00003678       $unwind$?ftoa@@YAPEADME@Z  ffffc0000002c678     stdio.obj
 0002:00003684       $unwind$?rand@@YAHXZ       ffffc0000002c684     stdio.obj
 0002:00003690       $unwind$?srand@@YAXI@Z     ffffc0000002c690     stdio.obj
 0002:0000369c       $unwind$?atow@@YAXPEADPEBD@Z ffffc0000002c69c     stdio.obj
 0002:000036a8       $unwind$?int_to_str@@YAPEBDH@Z ffffc0000002c6a8     stdio.obj
 0002:000036b4       $unwind$strcmp             ffffc0000002c6b4     string.obj
 0002:000036c0       $unwind$strcpy             ffffc0000002c6c0     string.obj
 0002:000036cc       $unwind$strlen             ffffc0000002c6cc     string.obj
 0002:000036d8       $unwind$strncmp            ffffc0000002c6d8     string.obj
 0002:000036e4       $unwind$strncpy            ffffc0000002c6e4     string.obj
 0002:000036f0       $unwind$strchr             ffffc0000002c6f0     string.obj
 0002:000036fc       $unwind$strcat             ffffc0000002c6fc     string.obj
 0002:00003708       $unwind$strncat            ffffc0000002c708     string.obj
 0002:00003714       $unwind$memset             ffffc0000002c714     string.obj
 0002:00003720       $unwind$memcpy             ffffc0000002c720     string.obj
 0002:0000372c       $unwind$memcmp             ffffc0000002c72c     string.obj
 0002:00003738       $unwind$strdup             ffffc0000002c738     string.obj
 0002:00003744       $unwind$AuCreateMutex      ffffc0000002c744     mutex.obj
 0002:00003750       $unwind$AuAcquireMutex     ffffc0000002c750     mutex.obj
 0002:0000375c       $unwind$AuReleaseMutex     ffffc0000002c75c     mutex.obj
 0002:00003768       $unwind$AuDeleteMutex      ffffc0000002c768     mutex.obj
 0002:00003774       $unwind$AuCreateSpinlock   ffffc0000002c774     spinlock.obj
 0002:00003780       $unwind$AuDeleteSpinlock   ffffc0000002c780     spinlock.obj
 0002:0000378c       $unwind$AuAcquireSpinlock  ffffc0000002c78c     spinlock.obj
 0002:00003798       $unwind$AuReleaseSpinlock  ffffc0000002c798     spinlock.obj
 0002:000037a4       $unwind$_Init_thread_header ffffc0000002c7a4     threadsafe.obj
 0002:000037b0       $unwind$_Init_thread_footer ffffc0000002c7b0     threadsafe.obj
 0002:000037bc       $unwind$_Init_thread_abort ffffc0000002c7bc     threadsafe.obj
 0002:000037c8       $unwind$AuGetCurrentTime   ffffc0000002c7c8     time.obj
 0002:000037d4       $unwind$??2@YAPEAX_K@Z     ffffc0000002c7d4     _CRT.obj
 0002:000037e0       $unwind$??3@YAXPEAX@Z      ffffc0000002c7e0     _CRT.obj
 0002:000037ec       $unwind$??3@YAXPEAX_K@Z    ffffc0000002c7ec     _CRT.obj
 0002:000037f8       $unwind$??_U@YAPEAX_K@Z    ffffc0000002c7f8     _CRT.obj
 0002:00003804       $unwind$?AuICMPReceive@@YAHPEAU_socket_@@PEAU_msghdr_@@H@Z ffffc0000002c804     icmp.obj
 0002:00003810       $unwind$?AuICMPSend@@YAHPEAU_socket_@@PEAU_msghdr_@@H@Z ffffc0000002c810     icmp.obj
 0002:0000381c       $unwind$?AuICMPClose@@YAXPEAU_socket_@@@Z ffffc0000002c81c     icmp.obj
 0002:00003828       $unwind$?AuICMPBind@@YAHPEAU_socket_@@PEAU_sockaddr_@@_K@Z ffffc0000002c828     icmp.obj
 0002:00003834       $unwind$?AuICMPRead@@YA_KPEAU__VFS_NODE__@@0PEA_KI@Z ffffc0000002c834     icmp.obj
 0002:00003840       $unwind$?AuICMPWrite@@YA_KPEAU__VFS_NODE__@@0PEA_KI@Z ffffc0000002c840     icmp.obj
 0002:0000384c       $unwind$?CreateICMPSocket@@YAHXZ ffffc0000002c84c     icmp.obj
 0002:00003858       $unwind$?CreateIPv4Socket@@YAHHH@Z ffffc0000002c858     ipv4.obj
 0002:00003864       $unwind$?IPv4HandlePacket@@YAXPEAX@Z ffffc0000002c864     ipv4.obj
 0002:00003870       $unwind$?IPv4CalculateChecksum@@YAGPEAU_ipv4head_@@@Z ffffc0000002c870     ipv4.obj
 0002:0000387c       $unwind$?ip_ntoa@@YAXI@Z   ffffc0000002c87c     ipv4.obj
 0002:00003888       $unwind$?AuSocketAdd@@YAXPEAU_socket_@@PEAX_K@Z ffffc0000002c888     socket.obj
 0002:00003894       $unwind$?AuSocketInstall@@YAXXZ ffffc0000002c894     socket.obj
 0002:000038a0       $unwind$?AuCreateSocket@@YAHHHH@Z ffffc0000002c8a0     socket.obj
 0002:000038ac       $unwind$?AuSocketSetOpt@@YAHHHHPEBX_K@Z ffffc0000002c8ac     socket.obj
 0002:000038b8       $unwind$?AuRawSocketGetList@@YAPEAU_list_@@XZ ffffc0000002c8b8     socket.obj
 0002:000038c4       $unwind$?AuSocketGet@@YAPEAXPEAU_socket_@@@Z ffffc0000002c8c4     socket.obj
 0002:000038d0       $unwind$?AuRawSocketReceive@@YAHPEAU_socket_@@PEAU_msghdr_@@H@Z ffffc0000002c8d0     socket.obj
 0002:000038dc       $unwind$?AuRawSocketSend@@YAHPEAU_socket_@@PEAU_msghdr_@@H@Z ffffc0000002c8dc     socket.obj
 0002:000038e8       $unwind$?AuSocketSOSocket@@YAHPEAU_socket_@@HPEBX_K@Z ffffc0000002c8e8     socket.obj
 0002:000038f4       $unwind$?AuNetCreateSocket@@YAPEAU_socket_@@XZ ffffc0000002c8f4     socket.obj
 0002:00003900       $unwind$?AuCreateRawSocket@@YAHHH@Z ffffc0000002c900     socket.obj
 0002:0000390c       $unwind$?CreateTCPSocket@@YAHXZ ffffc0000002c90c     tcp.obj
 0002:00003918       $unwind$?CalculateTCPChecksum@@YAGPEAU_tcpcheckheader_@@PEAU_tcphead_@@PEAX_K@Z ffffc0000002c918     tcp.obj
 0002:00003924       $unwind$?AuTCPReceive@@YAHPEAU_socket_@@PEAU_msghdr_@@H@Z ffffc0000002c924     tcp.obj
 0002:00003930       $unwind$?AuTCPSend@@YAHPEAU_socket_@@PEAU_msghdr_@@H@Z ffffc0000002c930     tcp.obj
 0002:0000393c       $unwind$?AuTCPClose@@YAXPEAU_socket_@@@Z ffffc0000002c93c     tcp.obj
 0002:00003948       $unwind$?AuTCPConnect@@YAHPEAU_socket_@@PEAU_sockaddr_@@_K@Z ffffc0000002c948     tcp.obj
 0002:00003954       $unwind$?AuTCPBind@@YAHPEAU_socket_@@PEAU_sockaddr_@@_K@Z ffffc0000002c954     tcp.obj
 0002:00003960       $unwind$?AuTCPRead@@YA_KPEAU__VFS_NODE__@@0PEA_KI@Z ffffc0000002c960     tcp.obj
 0002:0000396c       $unwind$?AuTCPWrite@@YA_KPEAU__VFS_NODE__@@0PEA_KI@Z ffffc0000002c96c     tcp.obj
 0002:00003978       $unwind$?AuUDPReceive@@YAHPEAU_socket_@@PEAU_msghdr_@@H@Z ffffc0000002c978     udp.obj
 0002:00003984       $unwind$?AuUDPSend@@YAHPEAU_socket_@@PEAU_msghdr_@@H@Z ffffc0000002c984     udp.obj
 0002:00003990       $unwind$?AuUDPClose@@YAXPEAU_socket_@@@Z ffffc0000002c990     udp.obj
 0002:0000399c       $unwind$?AuUDPBind@@YAHPEAU_socket_@@PEAU_sockaddr_@@_K@Z ffffc0000002c99c     udp.obj
 0002:000039a8       $unwind$?AuUDPRead@@YA_KPEAU__VFS_NODE__@@0PEA_KI@Z ffffc0000002c9a8     udp.obj
 0002:000039b4       $unwind$?AuUDPWrite@@YA_KPEAU__VFS_NODE__@@0PEA_KI@Z ffffc0000002c9b4     udp.obj
 0002:000039c0       $unwind$?CreateUDPSocket@@YAHXZ ffffc0000002c9c0     udp.obj
 0003:00000000       ?syscalls@@3PAPEAXA        ffffc0000002d000     x86_64_systable.obj
 0003:000001c8       ?l_pageSize@@3HA           ffffc0000002d1c8     liballoc.obj
 0003:000001cc       ?l_pageCount@@3HA          ffffc0000002d1cc     liballoc.obj
 0003:000001d0       ?pid@@3HA                  ffffc0000002d1d0     process.obj
 0003:000001d8       ?chars@@3PEADEA            ffffc0000002d1d8     stdio.obj
 0003:000001e0       ?r_x@@3IA                  ffffc0000002d1e0     stdio.obj
 0003:000001e4       ?r_y@@3IA                  ffffc0000002d1e4     stdio.obj
 0003:000001e8       ?r_z@@3IA                  ffffc0000002d1e8     stdio.obj
 0003:000001ec       ?r_w@@3IA                  ffffc0000002d1ec     stdio.obj
 0003:00000a14       stack_str                  ffffc0000002da14     x86_64_intrs.obj
 0003:00000b18       ?__IsAHCI64Bit@@3_NA       ffffc0000002db18     ahci.obj
 0003:00001b50       ?_dev_count_@@3HA          ffffc0000002eb50     audrv.obj
 0003:00001b54       ?driver_class_unique_id@@3IA ffffc0000002eb54     audrv.obj
 0003:00001b58       ?driver_load_base@@3_KA    ffffc0000002eb58     audrv.obj
 0003:00001cc8       ?__x2apic@@3_NA            ffffc0000002ecc8     apic.obj
 0003:00001cd0       ?_apic@@3PEAXEA            ffffc0000002ecd0     apic.obj
 0003:00001cd8       ?apic_timer_count@@3HA     ffffc0000002ecd8     apic.obj
 0003:00002528       ?gdt@@3PAU_gdt@@A          ffffc0000002f528     x86_64_gdt.obj
 0003:00002570       ?the_gdtr@@3U_gdtr@@A      ffffc0000002f570     x86_64_gdt.obj
 0003:0000257c       ?old_gdtr@@3U_gdtr@@A      ffffc0000002f57c     x86_64_gdt.obj
 0003:00002588       ?oldsregs@@3PAGA           ffffc0000002f588     x86_64_gdt.obj
 0003:000025a0       ?interrupts_handlers@@3PAP6AX_KPEAX@ZA ffffc0000002f5a0     x86_64_idt.obj
 0003:00002da0       ?the_idt@@3PAU_idt@@A      ffffc0000002fda0     x86_64_idt.obj
 0003:00003da0       ?pic_counter@@3_KA         ffffc00000030da0     x86_64_pic.obj
 0003:00003da8       ?ticks@?1??AuPITSleepMS@@YAXI@Z@4HA ffffc00000030da8     x86_64_pic.obj
 0003:00003dac       ?$TSS0@?1??AuPITSleepMS@@YAXI@Z@4HA ffffc00000030dac     x86_64_pic.obj
 0003:00003df8       ?thread_id@@3GA            ffffc00000030df8     x86_64_sched.obj
 0003:00003e00       ?scheduler_tick@@3_KA      ffffc00000030e00     x86_64_sched.obj
 0003:00003fc0       ?l_initialized@@3HA        ffffc00000030fc0     liballoc.obj
 0003:00004110       ?early_spinlock_cnt@@3EA   ffffc00000031110     spinlock.obj
 0005:00000000       __A596C1DE_hashmap@cpp     ffffc00000035000     hashmap.obj
 0005:00000001       __22E58447_ahci@cpp        ffffc00000035001     ahci.obj
 0005:00000002       __10BE5BC2_ahcidsk@cpp     ffffc00000035002     ahcidsk.obj
 0005:00000003       __A69542EC_aucon@cpp       ffffc00000035003     aucon.obj
 0005:00000004       __8CEAB164_audrv@cpp       ffffc00000035004     audrv.obj
 0005:00000005       __303BDA61_stdint@h        ffffc00000035005     audrv.obj
 0005:00000006       __27A82F84_autimer@cpp     ffffc00000035006     autimer.obj
 0005:00000007       __C072D151_circbuf@cpp     ffffc00000035007     circbuf.obj
 0005:00000008       __B24D1420_clean@cpp       ffffc00000035008     clean.obj
 0005:00000009       __0237282B_ctype@cpp       ffffc00000035009     ctype.obj
 0005:0000000a       __5B21646B_mouse@cpp       ffffc0000003500a     mouse.obj
 0005:0000000b       __BF7302FE_ps2kybrd@cpp    ffffc0000003500b     ps2kybrd.obj
 0005:0000000c       __4F57593D_rtc@cpp         ffffc0000003500c     rtc.obj
 0005:0000000d       __E3FE814C_devfs@cpp       ffffc0000003500d     devfs.obj
 0005:0000000e       __748639F3_devinput@cpp    ffffc0000003500e     devinput.obj
 0005:0000000f       __7C2BBDAD_Fat@cpp         ffffc0000003500f     Fat.obj
 0005:00000010       __C6938175_FatDir@cpp      ffffc00000035010     FatDir.obj
 0005:00000011       __5368F709_FatFile@cpp     ffffc00000035011     FatFile.obj
 0005:00000012       __AA583385_pipe@cpp        ffffc00000035012     pipe.obj
 0005:00000013       __41D00D04_tty@cpp         ffffc00000035013     tty.obj
 0005:00000014       __E5A64090_vdisk@cpp       ffffc00000035014     vdisk.obj
 0005:00000015       __D2E1A71C_vfs@cpp         ffffc00000035015     vfs.obj
 0005:00000016       __87B18610__gpt@cpp        ffffc00000035016     _gpt.obj
 0005:00000017       __12B7B25A_ftmngr@cpp      ffffc00000035017     ftmngr.obj
 0005:00000018       __EA11CB0B_acpiosl@cpp     ffffc00000035018     acpiosl.obj
 0005:00000019       __ADBAD9C4_apic@cpp        ffffc00000035019     apic.obj
 0005:0000001a       __303BDA61_stdint@h        ffffc0000003501a     apic.obj
 0005:0000001b       __3F0F154D_basicacpi@cpp   ffffc0000003501b     basicacpi.obj
 0005:0000001c       __303BDA61_stdint@h        ffffc0000003501c     basicacpi.obj
 0005:0000001d       __38704666_hal@cpp         ffffc0000003501d     hal.obj
 0005:0000001e       __ED31D294_ioapic@cpp      ffffc0000003501e     ioapic.obj
 0005:0000001f       __303BDA61_stdint@h        ffffc0000003501f     ioapic.obj
 0005:00000020       __80E45F53_pcpu@cpp        ffffc00000035020     pcpu.obj
 0005:00000021       __26E2B342_serial@cpp      ffffc00000035021     serial.obj
 0005:00000022       __37029E49_x86_64_ap_init@cpp ffffc00000035022     x86_64_ap_init.obj
 0005:00000023       __F57A60C1_x86_64_cpu@cpp  ffffc00000035023     x86_64_cpu.obj
 0005:00000024       __3B5C682D_x86_64_exception@cpp ffffc00000035024     x86_64_exception.obj
 0005:00000025       __A4122DEF_x86_64_gdt@cpp  ffffc00000035025     x86_64_gdt.obj
 0005:00000026       __520710F6_x86_64_hal@cpp  ffffc00000035026     x86_64_hal.obj
 0005:00000027       __F42D56B2_x86_64_idt@cpp  ffffc00000035027     x86_64_idt.obj
 0005:00000028       __6835D7E3_x86_64_pic@cpp  ffffc00000035028     x86_64_pic.obj
 0005:00000029       __5A99B057_x86_64_sched@cpp ffffc00000035029     x86_64_sched.obj
 0005:0000002a       __EEB9E740_x86_64_signal@cpp ffffc0000003502a     x86_64_signal.obj
 0005:0000002b       __A02DB339_x86_64_systable@cpp ffffc0000003502b     x86_64_systable.obj
 0005:0000002c       __AB3BDA9D_init@cpp        ffffc0000003502c     init.obj
 0005:0000002d       __A4F36914_postbox@cpp     ffffc0000003502d     postbox.obj
 0005:0000002e       __8431CB8A_list@cpp        ffffc0000003502e     list.obj
 0005:0000002f       __95171535_loader@cpp      ffffc0000003502f     loader.obj
 0005:00000030       __303BDA61_stdint@h        ffffc00000035030     loader.obj
 0005:00000031       __CA5B1607_kmalloc@cpp     ffffc00000035031     kmalloc.obj
 0005:00000032       __4B201462_liballoc@cpp    ffffc00000035032     liballoc.obj
 0005:00000033       __C365CCBF_mmap@cpp        ffffc00000035033     mmap.obj
 0005:00000034       __7CCE8FE9_pmmngr@cpp      ffffc00000035034     pmmngr.obj
 0005:00000035       __F9E1A23C_shm@cpp         ffffc00000035035     shm.obj
 0005:00000036       __EC895002_vmarea@cpp      ffffc00000035036     vmarea.obj
 0005:00000037       __71D0FFAE_vmmngr@cpp      ffffc00000035037     vmmngr.obj
 0005:00000038       __7BFC8353_arp@cpp         ffffc00000035038     arp.obj
 0005:00000039       __25D49534_aunet@cpp       ffffc00000035039     aunet.obj
 0005:0000003a       __DEB88D02_ethernet@cpp    ffffc0000003503a     ethernet.obj
 0005:0000003b       __F4982F6F_pcie@cpp        ffffc0000003503b     pcie.obj
 0005:0000003c       __303BDA61_stdint@h        ffffc0000003503c     pcie.obj
 0005:0000003d       __DEA6E0C3_pe@cpp          ffffc0000003503d     pe.obj
 0005:0000003e       __303BDA61_stdint@h        ffffc0000003503e     pe.obj
 0005:0000003f       __CE5969C3_process@cpp     ffffc0000003503f     process.obj
 0005:00000040       __5DFC7571_fileserv@cpp    ffffc00000035040     fileserv.obj
 0005:00000041       __DD7359F7_mmserv@cpp      ffffc00000035041     mmserv.obj
 0005:00000042       __6114EFDF_netserv@cpp     ffffc00000035042     netserv.obj
 0005:00000043       __ABA981AA_thrserv@cpp     ffffc00000035043     thrserv.obj
 0005:00000044       __89B5D5C8_timerserv@cpp   ffffc00000035044     timerserv.obj
 0005:00000045       __2B477A22_sound@cpp       ffffc00000035045     sound.obj
 0005:00000046       __C0B476A7_stack@cpp       ffffc00000035046     stack.obj
 0005:00000047       __C697DCA6_stdio@cpp       ffffc00000035047     stdio.obj
 0005:00000048       __3C03ACC5_string@cpp      ffffc00000035048     string.obj
 0005:00000049       __B1769D37_mutex@cpp       ffffc00000035049     mutex.obj
 0005:0000004a       __8B123772_spinlock@cpp    ffffc0000003504a     spinlock.obj
 0005:0000004b       __CD96AC32_threadsafe@c    ffffc0000003504b     threadsafe.obj
 0005:0000004c       __4F333CCD_time@cpp        ffffc0000003504c     time.obj
 0005:0000004d       __E98F0051__CRT@cpp        ffffc0000003504d     _CRT.obj
 0005:0000004e       __FF25FC18_icmp@cpp        ffffc0000003504e     icmp.obj
 0005:0000004f       __6D71769A_ipv4@cpp        ffffc0000003504f     ipv4.obj
 0005:00000050       __6D2C3D37_socket@cpp      ffffc00000035050     socket.obj
 0005:00000051       __8690E104_tcp@cpp         ffffc00000035051     tcp.obj
 0005:00000052       __3DE2DA08_udp@cpp         ffffc00000035052     udp.obj
 0006:00000000       .edata                     ffffc00000036000     Kernel.exp
 0006:00000028       rgpv                       ffffc00000036028     Kernel.exp
 0006:00000300       rgszName                   ffffc00000036300     Kernel.exp
 0006:000005d8       rgwOrd                     ffffc000000365d8     Kernel.exp
 0006:00000744       szName                     ffffc00000036744     Kernel.exp
 0006:0000074f       $N00001                    ffffc0000003674f     Kernel.exp
 0006:00000767       $N00002                    ffffc00000036767     Kernel.exp
 0006:00000779       $N00003                    ffffc00000036779     Kernel.exp
 0006:0000078c       $N00004                    ffffc0000003678c     Kernel.exp
 0006:0000079b       $N00005                    ffffc0000003679b     Kernel.exp
 0006:000007ac       $N00006                    ffffc000000367ac     Kernel.exp
 0006:000007be       $N00007                    ffffc000000367be     Kernel.exp
 0006:000007d4       $N00008                    ffffc000000367d4     Kernel.exp
 0006:000007e5       $N00009                    ffffc000000367e5     Kernel.exp
 0006:000007f7       $N00010                    ffffc000000367f7     Kernel.exp
 0006:0000080d       $N00011                    ffffc0000003680d     Kernel.exp
 0006:0000081e       $N00012                    ffffc0000003681e     Kernel.exp
 0006:0000082c       $N00013                    ffffc0000003682c     Kernel.exp
 0006:00000837       $N00014                    ffffc00000036837     Kernel.exp
 0006:00000850       $N00015                    ffffc00000036850     Kernel.exp
 0006:00000865       $N00016                    ffffc00000036865     Kernel.exp
 0006:00000877       $N00017                    ffffc00000036877     Kernel.exp
 0006:00000886       $N00018                    ffffc00000036886     Kernel.exp
 0006:00000897       $N00019                    ffffc00000036897     Kernel.exp
 0006:000008b5       $N00020                    ffffc000000368b5     Kernel.exp
 0006:000008c5       $N00021                    ffffc000000368c5     Kernel.exp
 0006:000008e1       $N00022                    ffffc000000368e1     Kernel.exp
 0006:000008fa       $N00023                    ffffc000000368fa     Kernel.exp
 0006:00000907       $N00024                    ffffc00000036907     Kernel.exp
 0006:00000918       $N00025                    ffffc00000036918     Kernel.exp
 0006:00000933       $N00026                    ffffc00000036933     Kernel.exp
 0006:00000942       $N00027                    ffffc00000036942     Kernel.exp
 0006:00000951       $N00028                    ffffc00000036951     Kernel.exp
 0006:00000969       $N00029                    ffffc00000036969     Kernel.exp
 0006:0000097b       $N00030                    ffffc0000003697b     Kernel.exp
 0006:0000098e       $N00031                    ffffc0000003698e     Kernel.exp
 0006:000009ab       $N00032                    ffffc000000369ab     Kernel.exp
 0006:000009b8       $N00033                    ffffc000000369b8     Kernel.exp
 0006:000009ce       $N00034                    ffffc000000369ce     Kernel.exp
 0006:000009da       $N00035                    ffffc000000369da     Kernel.exp
 0006:000009e6       $N00036                    ffffc000000369e6     Kernel.exp
 0006:000009fa       $N00037                    ffffc000000369fa     Kernel.exp
 0006:00000a0a       $N00038                    ffffc00000036a0a     Kernel.exp
 0006:00000a1c       $N00039                    ffffc00000036a1c     Kernel.exp
 0006:00000a2a       $N00040                    ffffc00000036a2a     Kernel.exp
 0006:00000a43       $N00041                    ffffc00000036a43     Kernel.exp
 0006:00000a57       $N00042                    ffffc00000036a57     Kernel.exp
 0006:00000a66       $N00043                    ffffc00000036a66     Kernel.exp
 0006:00000a78       $N00044                    ffffc00000036a78     Kernel.exp
 0006:00000a94       $N00045                    ffffc00000036a94     Kernel.exp
 0006:00000aa4       $N00046                    ffffc00000036aa4     Kernel.exp
 0006:00000ab4       $N00047                    ffffc00000036ab4     Kernel.exp
 0006:00000ac3       $N00048                    ffffc00000036ac3     Kernel.exp
 0006:00000ad5       $N00049                    ffffc00000036ad5     Kernel.exp
 0006:00000ae5       $N00050                    ffffc00000036ae5     Kernel.exp
 0006:00000af3       $N00051                    ffffc00000036af3     Kernel.exp
 0006:00000b01       $N00052                    ffffc00000036b01     Kernel.exp
 0006:00000b11       $N00053                    ffffc00000036b11     Kernel.exp
 0006:00000b1f       $N00054                    ffffc00000036b1f     Kernel.exp
 0006:00000b30       $N00055                    ffffc00000036b30     Kernel.exp
 0006:00000b3e       $N00056                    ffffc00000036b3e     Kernel.exp
 0006:00000b5a       $N00057                    ffffc00000036b5a     Kernel.exp
 0006:00000b68       $N00058                    ffffc00000036b68     Kernel.exp
 0006:00000b79       $N00059                    ffffc00000036b79     Kernel.exp
 0006:00000b88       $N00060                    ffffc00000036b88     Kernel.exp
 0006:00000b9a       $N00061                    ffffc00000036b9a     Kernel.exp
 0006:00000ba9       $N00062                    ffffc00000036ba9     Kernel.exp
 0006:00000bb7       $N00063                    ffffc00000036bb7     Kernel.exp
 0006:00000bc7       $N00064                    ffffc00000036bc7     Kernel.exp
 0006:00000bd6       $N00065                    ffffc00000036bd6     Kernel.exp
 0006:00000be9       $N00066                    ffffc00000036be9     Kernel.exp
 0006:00000bfb       $N00067                    ffffc00000036bfb     Kernel.exp
 0006:00000c0c       $N00068                    ffffc00000036c0c     Kernel.exp
 0006:00000c1d       $N00069                    ffffc00000036c1d     Kernel.exp
 0006:00000c29       $N00070                    ffffc00000036c29     Kernel.exp
 0006:00000c36       $N00071                    ffffc00000036c36     Kernel.exp
 0006:00000c49       $N00072                    ffffc00000036c49     Kernel.exp
 0006:00000c5a       $N00073                    ffffc00000036c5a     Kernel.exp
 0006:00000c68       $N00074                    ffffc00000036c68     Kernel.exp
 0006:00000c7c       $N00075                    ffffc00000036c7c     Kernel.exp
 0006:00000c91       $N00076                    ffffc00000036c91     Kernel.exp
 0006:00000ca8       $N00077                    ffffc00000036ca8     Kernel.exp
 0006:00000cbb       $N00078                    ffffc00000036cbb     Kernel.exp
 0006:00000cd0       $N00079                    ffffc00000036cd0     Kernel.exp
 0006:00000ce2       $N00080                    ffffc00000036ce2     Kernel.exp
 0006:00000cf2       $N00081                    ffffc00000036cf2     Kernel.exp
 0006:00000cff       $N00082                    ffffc00000036cff     Kernel.exp
 0006:00000d10       $N00083                    ffffc00000036d10     Kernel.exp
 0006:00000d20       $N00084                    ffffc00000036d20     Kernel.exp
 0006:00000d33       $N00085                    ffffc00000036d33     Kernel.exp
 0006:00000d41       $N00086                    ffffc00000036d41     Kernel.exp
 0006:00000d4e       $N00087                    ffffc00000036d4e     Kernel.exp
 0006:00000d5b       $N00088                    ffffc00000036d5b     Kernel.exp
 0006:00000d6c       $N00089                    ffffc00000036d6c     Kernel.exp
 0006:00000d7c       $N00090                    ffffc00000036d7c     Kernel.exp
 0006:00000d89       $N00091                    ffffc00000036d89     Kernel.exp
 0006:00000d98       $N00092                    ffffc00000036d98     Kernel.exp
 0006:00000da2       $N00093                    ffffc00000036da2     Kernel.exp
 0006:00000dac       $N00094                    ffffc00000036dac     Kernel.exp
 0006:00000db8       $N00095                    ffffc00000036db8     Kernel.exp
 0006:00000dc7       $N00096                    ffffc00000036dc7     Kernel.exp
 0006:00000dd2       $N00097                    ffffc00000036dd2     Kernel.exp
 0006:00000ddf       $N00098                    ffffc00000036ddf     Kernel.exp
 0006:00000def       $N00099                    ffffc00000036def     Kernel.exp
 0006:00000e01       $N00100                    ffffc00000036e01     Kernel.exp
 0006:00000e0d       $N00101                    ffffc00000036e0d     Kernel.exp
 0006:00000e1b       $N00102                    ffffc00000036e1b     Kernel.exp
 0006:00000e2d       $N00103                    ffffc00000036e2d     Kernel.exp
 0006:00000e3b       $N00104                    ffffc00000036e3b     Kernel.exp
 0006:00000e4f       $N00105                    ffffc00000036e4f     Kernel.exp
 0006:00000e5c       $N00106                    ffffc00000036e5c     Kernel.exp
 0006:00000e6f       $N00107                    ffffc00000036e6f     Kernel.exp
 0006:00000e7f       $N00108                    ffffc00000036e7f     Kernel.exp
 0006:00000e8b       $N00109                    ffffc00000036e8b     Kernel.exp
 0006:00000e98       $N00110                    ffffc00000036e98     Kernel.exp
 0006:00000ea8       $N00111                    ffffc00000036ea8     Kernel.exp
 0006:00000eb6       $N00112                    ffffc00000036eb6     Kernel.exp
 0006:00000ec5       $N00113                    ffffc00000036ec5     Kernel.exp
 0006:00000ed2       $N00114                    ffffc00000036ed2     Kernel.exp
 0006:00000ee3       $N00115                    ffffc00000036ee3     Kernel.exp
 0006:00000ef2       $N00116                    ffffc00000036ef2     Kernel.exp
 0006:00000f04       $N00117                    ffffc00000036f04     Kernel.exp
 0006:00000f12       $N00118                    ffffc00000036f12     Kernel.exp
 0006:00000f22       $N00119                    ffffc00000036f22     Kernel.exp
 0006:00000f33       $N00120                    ffffc00000036f33     Kernel.exp
 0006:00000f42       $N00121                    ffffc00000036f42     Kernel.exp
 0006:00000f50       $N00122                    ffffc00000036f50     Kernel.exp
 0006:00000f5b       $N00123                    ffffc00000036f5b     Kernel.exp
 0006:00000f67       $N00124                    ffffc00000036f67     Kernel.exp
 0006:00000f71       $N00125                    ffffc00000036f71     Kernel.exp
 0006:00000f82       $N00126                    ffffc00000036f82     Kernel.exp
 0006:00000f9c       $N00127                    ffffc00000036f9c     Kernel.exp
 0006:00000fac       $N00128                    ffffc00000036fac     Kernel.exp
 0006:00000fbb       $N00129                    ffffc00000036fbb     Kernel.exp
 0006:00000fcb       $N00130                    ffffc00000036fcb     Kernel.exp
 0006:00000fd7       $N00131                    ffffc00000036fd7     Kernel.exp
 0006:00000fe7       $N00132                    ffffc00000036fe7     Kernel.exp
 0006:00000ff4       $N00133                    ffffc00000036ff4     Kernel.exp
 0006:00001007       $N00134                    ffffc00000037007     Kernel.exp
 0006:00001016       $N00135                    ffffc00000037016     Kernel.exp
 0006:00001026       $N00136                    ffffc00000037026     Kernel.exp
 0006:00001030       $N00137                    ffffc00000037030     Kernel.exp
 0006:00001041       $N00138                    ffffc00000037041     Kernel.exp
 0006:00001050       $N00139                    ffffc00000037050     Kernel.exp
 0006:00001063       $N00140                    ffffc00000037063     Kernel.exp
 0006:00001071       $N00141                    ffffc00000037071     Kernel.exp
 0006:00001084       $N00142                    ffffc00000037084     Kernel.exp
 0006:00001093       $N00143                    ffffc00000037093     Kernel.exp
 0006:0000109d       $N00144                    ffffc0000003709d     Kernel.exp
 0006:000010af       $N00145                    ffffc000000370af     Kernel.exp
 0006:000010c5       $N00146                    ffffc000000370c5     Kernel.exp
 0006:000010d5       $N00147                    ffffc000000370d5     Kernel.exp
 0006:000010d9       $N00148                    ffffc000000370d9     Kernel.exp
 0006:000010e3       $N00149                    ffffc000000370e3     Kernel.exp
 0006:000010e7       $N00150                    ffffc000000370e7     Kernel.exp
 0006:000010f7       $N00151                    ffffc000000370f7     Kernel.exp
 0006:000010ff       $N00152                    ffffc000000370ff     Kernel.exp
 0006:00001107       $N00153                    ffffc00000037107     Kernel.exp
 0006:0000110f       $N00154                    ffffc0000003710f     Kernel.exp
 0006:00001117       $N00155                    ffffc00000037117     Kernel.exp
 0006:0000111f       $N00156                    ffffc0000003711f     Kernel.exp
 0006:00001127       $N00157                    ffffc00000037127     Kernel.exp
 0006:0000112f       $N00158                    ffffc0000003712f     Kernel.exp
 0006:00001138       $N00159                    ffffc00000037138     Kernel.exp
 0006:00001140       $N00160                    ffffc00000037140     Kernel.exp
 0006:00001146       $N00161                    ffffc00000037146     Kernel.exp
 0006:0000114e       $N00162                    ffffc0000003714e     Kernel.exp
 0006:00001157       $N00163                    ffffc00000037157     Kernel.exp
 0006:00001160       $N00164                    ffffc00000037160     Kernel.exp
 0006:0000116c       $N00165                    ffffc0000003716c     Kernel.exp
 0006:00001178       $N00166                    ffffc00000037178     Kernel.exp
 0006:0000117f       $N00167                    ffffc0000003717f     Kernel.exp
 0006:00001186       $N00168                    ffffc00000037186     Kernel.exp
 0006:0000118d       $N00169                    ffffc0000003718d     Kernel.exp
 0006:00001194       $N00170                    ffffc00000037194     Kernel.exp
 0006:0000119c       $N00171                    ffffc0000003719c     Kernel.exp
 0006:000011a3       $N00172                    ffffc000000371a3     Kernel.exp
 0006:000011aa       $N00173                    ffffc000000371aa     Kernel.exp
 0006:000011b1       $N00174                    ffffc000000371b1     Kernel.exp
 0006:000011b8       $N00175                    ffffc000000371b8     Kernel.exp
 0006:000011bf       $N00176                    ffffc000000371bf     Kernel.exp
 0006:000011c6       $N00177                    ffffc000000371c6     Kernel.exp
 0006:000011ce       $N00178                    ffffc000000371ce     Kernel.exp
 0006:000011d6       $N00179                    ffffc000000371d6     Kernel.exp
 0006:000011de       $N00180                    ffffc000000371de     Kernel.exp
 0006:000011e6       $N00181                    ffffc000000371e6     Kernel.exp
 0006:000011ee       $N00182                    ffffc000000371ee     Kernel.exp

 Exports

  ordinal    name

        1    AcpiOsAcquireGlobalLock
        2    AcpiOsAcquireLock
        3    AcpiOsAcquireMutex
        4    AcpiOsAllocate
        5    AcpiOsCreateLock
        6    AcpiOsCreateMutex
        7    AcpiOsCreateSemaphore
        8    AcpiOsDeleteLock
        9    AcpiOsDeleteMutex
       10    AcpiOsDeleteSemaphore
       11    AcpiOsEnterSleep
       12    AcpiOsExecute
       13    AcpiOsFree
       14    AcpiOsGetPhysicalAddress
       15    AcpiOsGetRootPointer
       16    AcpiOsGetThreadId
       17    AcpiOsGetTimer
       18    AcpiOsInitialize
       19    AcpiOsInstallInterruptHandler
       20    AcpiOsMapMemory
       21    AcpiOsPhysicalTableOverride
       22    AcpiOsPredefinedOverride
       23    AcpiOsPrintf
       24    AcpiOsReadMemory
       25    AcpiOsReadPciConfiguration
       26    AcpiOsReadPort
       27    AcpiOsReadable
       28    AcpiOsReleaseGlobalLock
       29    AcpiOsReleaseLock
       30    AcpiOsReleaseMutex
       31    AcpiOsRemoveInterruptHandler
       32    AcpiOsSignal
       33    AcpiOsSignalSemaphore
       34    AcpiOsSleep
       35    AcpiOsStall
       36    AcpiOsTableOverride
       37    AcpiOsTerminate
       38    AcpiOsUnmapMemory
       39    AcpiOsVprintf
       40    AcpiOsWaitEventsComplete
       41    AcpiOsWaitSemaphore
       42    AcpiOsWritable
       43    AcpiOsWriteMemory
       44    AcpiOsWritePciConfiguration
       45    AcpiOsWritePort
       46    AuARPRequestMAC
       47    AuAcquireMutex
       48    AuAcquireSpinlock
       49    AuAddNetAdapter
       50    AuBlockThread
       51    AuCheckDevice
       52    AuCreateKthread
       53    AuCreateMutex
       54    AuCreateSpinlock
       55    AuCreateVDisk
       56    AuCreateVirtualAddressSpace
       57    AuDeleteMutex
       58    AuDeleteSpinlock
       59    AuDevFSAddFile
       60    AuDevFSRemoveFile
       61    AuDevReadKybrd
       62    AuDevReadMice
       63    AuDevWriteKybrd
       64    AuDevWriteMice
       65    AuDisableInterrupt
       66    AuEnableInterrupt
       67    AuEthernetHandle
       68    AuForceScheduler
       69    AuFreePages
       70    AuGUIDVerify
       71    AuGetCurrentThread
       72    AuGetCurrentTime
       73    AuGetFreePage
       74    AuGetNetworkAdapter
       75    AuGetPhysicalAddress
       76    AuGetPhysicalAddressEx
       77    AuGetRootPageTable
       78    AuGetSystemTimerTick
       79    AuGetTimeOfTheDay
       80    AuHalFlushCache
       81    AuHalMaskIRQ
       82    AuHalRegisterIRQ
       83    AuHashmapCreate
       84    AuHashmapCreateInt
       85    AuHashmapFree
       86    AuHashmapGet
       87    AuHashmapHas
       88    AuHashmapIsEmpty
       89    AuHashmapRemove
       90    AuHashmapSet
       91    AuInterruptEnd
       92    AuMapMMIO
       93    AuMapPage
       94    AuMapPageEx
       95    AuPCIEAllocMSI
       96    AuPCIERead
       97    AuPCIERead64
       98    AuPCIEScanClass
       99    AuPCIEScanClassIF
      100    AuPCIEWrite
      101    AuPCIEWrite64
      102    AuPS2DisableMouse
      103    AuPmmngrAlloc
      104    AuPmmngrAllocBlocks
      105    AuPmmngrFree
      106    AuPmmngrFreeBlocks
      107    AuRTCGetCentury
      108    AuRTCGetDay
      109    AuRTCGetHour
      110    AuRTCGetMinutes
      111    AuRTCGetMonth
      112    AuRTCGetSecond
      113    AuRTCGetYear
      114    AuRegisterDevice
      115    AuReleaseMutex
      116    AuReleaseSpinlock
      117    AuSleepThread
      118    AuSoundGetBlock
      119    AuSoundRemoveDSP
      120    AuSoundSetCard
      121    AuStackCreate
      122    AuStackPop
      123    AuStackPush
      124    AuTextOut
      125    AuThreadFindByID
      126    AuThreadFindByIDBlockList
      127    AuUnblockThread
      128    AuVDiskDestroy
      129    AuVDiskGetIndex
      130    AuVDiskRead
      131    AuVDiskRegister
      132    AuVDiskWrite
      133    AuVFSAddFileSystem
      134    AuVFSCreateDir
      135    AuVFSCreateFile
      136    AuVFSFind
      137    AuVFSGetBlockFor
      138    AuVFSNodeClose
      139    AuVFSNodeIOControl
      140    AuVFSNodeRead
      141    AuVFSNodeReadBlock
      142    AuVFSNodeWrite
      143    AuVFSOpen
      144    AuVFSRegisterRoot
      145    AuVFSRemoveFileSystem
      146    AuVmmngrGetPage
      147    P2V
      148    SeTextOut
      149    V2P
      150    initialize_list
      151    isalpha
      152    isascii
      153    isdigit
      154    islower
      155    isprint
      156    isspace
      157    isupper
      158    isxdigit
      159    kcalloc
      160    kfree
      161    kmalloc
      162    krealloc
      163    list_add
      164    list_get_at
      165    list_remove
      166    memcmp
      167    memcpy
      168    memset
      169    printf
      170    setvect
      171    strcat
      172    strchr
      173    strcmp
      174    strcpy
      175    strdup
      176    strlen
      177    strncat
      178    strncmp
      179    strncpy
      180    toascii
      181    tolower
      182    toupper
