 chlkha

 Timestamp is 668fba86 (Thu Jul 11 16:27:10 2024)

 Preferred load address is 0000000000600000

 Start         Length     Name                   Class
 0001:00000000 00000020H .text                   CODE
 0001:00000020 0000d80cH .text$mn                CODE
 0002:00000000 00000150H .idata$5                DATA
 0002:00000150 00000558H .rdata                  DATA
 0002:000006a8 00000020H .rdata$voltmd           DATA
 0002:000006c8 00000130H .rdata$zzzdbg           DATA
 0002:000007f8 00000870H .xdata                  DATA
 0003:00000000 00000160H .data                   DATA
 0003:00000160 00000030H .bss                    DATA
 0004:00000000 00000870H .pdata                  DATA
 0005:00000000 0000001bH .msvcjmc                DATA
 0006:00000000 00000dcdH .edata                  DATA
 0007:00000000 00000028H .idata$2                DATA
 0007:00000028 00000018H .idata$3                DATA
 0007:00000040 00000150H .idata$4                DATA
 0007:00000190 00000258H .idata$6                DATA

  Address         Publics by Value              Rva+Base               Lib:Object

 0000:00000000       __hybrid_auxiliary_iat     0000000000000000     <absolute>
 0000:00000000       __guard_fids_count         0000000000000000     <absolute>
 0000:00000000       __x64_code_ranges_to_entry_points_count 0000000000000000     <absolute>
 0000:00000000       __hybrid_auxiliary_iat_copy 0000000000000000     <absolute>
 0000:00000000       __arm64x_extra_rfe_table   0000000000000000     <absolute>
 0000:00000000       __arm64x_redirection_metadata 0000000000000000     <absolute>
 0000:00000000       ___safe_se_handler_table   0000000000000000     <absolute>
 0000:00000000       __hybrid_code_map          0000000000000000     <absolute>
 0000:00000000       __arm64x_extra_rfe_table_size 0000000000000000     <absolute>
 0000:00000000       __x64_code_ranges_to_entry_points 0000000000000000     <absolute>
 0000:00000000       __AbsoluteZero             0000000000000000     <absolute>
 0000:00000000       __dynamic_value_reloc_table 0000000000000000     <absolute>
 0000:00000000       __guard_longjmp_table      0000000000000000     <absolute>
 0000:00000000       __hybrid_code_map_count    0000000000000000     <absolute>
 0000:00000000       ___safe_se_handler_count   0000000000000000     <absolute>
 0000:00000000       __guard_iat_table          0000000000000000     <absolute>
 0000:00000000       __arm64x_native_entrypoint 0000000000000000     <absolute>
 0000:00000000       __guard_eh_cont_table      0000000000000000     <absolute>
 0000:00000000       __guard_longjmp_count      0000000000000000     <absolute>
 0000:00000000       __enclave_config           0000000000000000     <absolute>
 0000:00000000       __arm64x_redirection_metadata_count 0000000000000000     <absolute>
 0000:00000000       __guard_eh_cont_count      0000000000000000     <absolute>
 0000:00000000       __guard_iat_count          0000000000000000     <absolute>
 0000:00000000       __guard_check_icall_a64n_fptr 0000000000000000     <absolute>
 0000:00000000       __guard_fids_table         0000000000000000     <absolute>
 0000:00000100       __guard_flags              0000000000000100     <absolute>
 0000:00000000       __ImageBase                0000000000600000     <linker-defined>
 0001:00000000       _fastcpy                   0000000000600400     _fastcpy.obj
 0001:00000020       DeodhaiAudioCloseConnection 0000000000600420 f   audio.obj
 0001:00000080       DeodhaiAudioOpenConnection 0000000000600480 f   audio.obj
 0001:000002e0       DeodhaiAudioWrite          00000000006006e0 f   audio.obj
 0001:00000330       __CheckForDebuggerJustMyCode 0000000000600730 f i audio.obj
 0001:00000330       __JustMyCode_Default       0000000000600730 f i audio.obj
 0001:00000340       ChBoxBlur                  0000000000600740 f   boxblur.obj
 0001:00000590       ChAllocateBuffer           0000000000600990 f   chitralekha.obj
 0001:00000660       ChCanvasFill               0000000000600a60 f   chitralekha.obj
 0001:000006e0       ChCanvasScreenUpdate       0000000000600ae0 f   chitralekha.obj
 0001:000008a0       ChCreateCanvas             0000000000600ca0 f   chitralekha.obj
 0001:00000a20       ChDeAllocateBuffer         0000000000600e20 f   chitralekha.obj
 0001:00000a70       ChDrawPixel                0000000000600e70 f   chitralekha.obj
 0001:00000b10       ChGetPixel                 0000000000600f10 f   chitralekha.obj
 0001:00000ba0       ChGetScreenAspectRatio     0000000000600fa0 f   chitralekha.obj
 0001:00000be0       ChGetScreenDPI             0000000000600fe0 f   chitralekha.obj
 0001:00000c60       ChGetScreenDiagonal        0000000000601060 f   chitralekha.obj
 0001:00000cc0       ChPrintLibName             00000000006010c0 f   chitralekha.obj
 0001:00000cf0       ChColorAlphaBlend          00000000006010f0 f   color.obj
 0001:00000e10       ChColorAlphaBlend2         0000000000601210 f   color.obj
 0001:00000ee0       ChColorDrawHorizontalGradient 00000000006012e0 f   color.obj
 0001:00001100       ChColorDrawVerticalGradient 0000000000601500 f   color.obj
 0001:00001320       clamp                      0000000000601720 f   color.obj
 0001:000013d0       make_col                   00000000006017d0 f   color.obj
 0001:000014e0       make_col_a                 00000000006018e0 f   color.obj
 0001:00001640       ?ChDrawBoxBlur@@YAXPEAU_ChCanvas_@@PEAI1HHHH@Z 0000000000601a40 f   draw.obj
 0001:00001890       ChDrawCircleUnfilled       0000000000601c90 f   draw.obj
 0001:00001b40       ChDrawFilledCircle         0000000000601f40 f   draw.obj
 0001:00001d20       ChDrawHorizontalLine       0000000000602120 f   draw.obj
 0001:00001d80       ChDrawLine                 0000000000602180 f   draw.obj
 0001:00001f80       ChDrawRect                 0000000000602380 f   draw.obj
 0001:00002020       ChDrawRectClipped          0000000000602420 f   draw.obj
 0001:000021b0       ChDrawRectUnfilled         00000000006025b0 f   draw.obj
 0001:00002280       ChDrawRectUnfilledClipped  0000000000602680 f   draw.obj
 0001:000023e0       ChDrawVerticalLine         00000000006027e0 f   draw.obj
 0001:00002440       ?ChFontClamp@@YAHHHH@Z     0000000000602840 f   font.obj
 0001:00002490       ChFontClose                0000000000602890 f   font.obj
 0001:000024d0       ChFontDrawChar             00000000006028d0 f   font.obj
 0001:00002890       ChFontDrawText             0000000000602c90 f   font.obj
 0001:00002c70       ChFontDrawTextClipped      0000000000603070 f   font.obj
 0001:00003190       ChFontGetHeight            0000000000603590 f   font.obj
 0001:000032d0       ChFontGetHeightChar        00000000006036d0 f   font.obj
 0001:00003400       ChFontGetWidth             0000000000603800 f   font.obj
 0001:00003550       ChFontGetWidthChar         0000000000603950 f   font.obj
 0001:00003680       ChFontSetSize              0000000000603a80 f   font.obj
 0001:000036f0       ChInitialiseFont           0000000000603af0 f   font.obj
 0001:00003890       ChitralekhaGetKeyPress     0000000000603c90 f   keycode.obj
 0001:000038e0       ChitralekhaKeyGetAlt       0000000000603ce0 f   keycode.obj
 0001:00003910       ChitralekhaKeyGetCTRL      0000000000603d10 f   keycode.obj
 0001:00003940       ChitralekhaKeyGetShift     0000000000603d40 f   keycode.obj
 0001:00003970       ChitralekhaKeyInitialise   0000000000603d70 f   keycode.obj
 0001:000039c0       ChitralekhaKeySetAlt       0000000000603dc0 f   keycode.obj
 0001:000039f0       ChitralekhaKeySetCtrl      0000000000603df0 f   keycode.obj
 0001:00003a20       ChitralekhaKeySetShift     0000000000603e20 f   keycode.obj
 0001:00003a50       ChitralekhaKeyToASCII      0000000000603e50 f   keycode.obj
 0001:00003ce0       ChitralekhaProcessKey      00000000006040e0 f   keycode.obj
 0001:00003ef0       ?TTFDrawGlyph@@YAXPEAU_ttf_@@IHH@Z 00000000006042f0 f   ttf.obj
 0001:00003fe0       ?TTFDrawSimpleGlyf@@YAXPEAU_ttf_@@IMM@Z 00000000006043e0 f   ttf.obj
 0001:00004400       ?TTFGetGlyph@@YAIPEAU_ttf_@@I@Z 0000000000604800 f   ttf.obj
 0001:00004760       ?TTFLoadFont@@YAPEAU_ttf_@@PEAU_ChCanvas_@@PEAE@Z 0000000000604b60 f   ttf.obj
 0001:00004c30       ?TTFSetFontSize@@YAXPEAU_ttf_@@M@Z 0000000000605030 f   ttf.obj
 0001:00004ca0       ?TTFSwap16@@YAGG@Z         00000000006050a0 f   ttf.obj
 0001:00004d00       ?TTFSwap32@@YAHH@Z         0000000000605100 f   ttf.obj
 0001:00004d90       ?TTF_READ_16@@YAGPEAU_ttf_@@@Z 0000000000605190 f   ttf.obj
 0001:00004e00       ?TTF_READ_8@@YAEPEAU_ttf_@@@Z 0000000000605200 f   ttf.obj
 0001:00004e50       ?UTF8toUnicode@@YAIE@Z     0000000000605250 f   ttf.obj
 0001:00004ee0       ChitralekhaGetApp          00000000006052e0 f   base.obj
 0001:00004f10       ChitralekhaStartApp        0000000000605310 f   base.obj
 0001:00004fd0       ChitralekhaStartSubApp     00000000006053d0 f   base.obj
 0001:00005060       ?ChButtonDefaultPainter@@YAXPEAU_ChWidget_@@PEAU_chwin_@@@Z 0000000000605460 f   button.obj
 0001:000052a0       ?ChButtonDestroy@@YAXPEAU_ChWidget_@@PEAU_chwin_@@@Z 00000000006056a0 f   button.obj
 0001:000052f0       ?ChButtonMouseEvent@@YAXPEAU_ChWidget_@@PEAU_chwin_@@HHH@Z 00000000006056f0 f   button.obj
 0001:00005510       ChCreateButton             0000000000605910 f   button.obj
 0001:00005610       ?ChDefaultMenubarPainter@@YAXPEAU_ChWidget_@@PEAU_chwin_@@@Z 0000000000605a10 f   defaultmenu.obj
 0001:00005870       ?ChPopupMenuAppendButton@@YAXPEAU_popup_menu_@@HHHH@Z 0000000000605c70 f   defaultmenu.obj
 0001:00005950       ?ChPopupMenuPaint@@YAXPEAU_popup_menu_@@@Z 0000000000605d50 f   defaultmenu.obj
 0001:00005b70       ?ChDefaultProgressBarPainter@@YAXPEAU_ChWidget_@@PEAU_chwin_@@@Z 0000000000605f70 f   defaultprogressbar.obj
 0001:00005d60       ?ChDefaultScrollPanePainter@@YAXPEAU_ChWidget_@@PEAU_chwin_@@@Z 0000000000606160 f   defaultscrollbar.obj
 0001:00005fd0       ?ChDefaultSliderPainter@@YAXPEAU_ChWidget_@@PEAU_chwin_@@@Z 00000000006063d0 f   defaultslider.obj
 0001:00006360       ?ChDefaultListViewPainter@@YAXPEAU_ChWidget_@@PEAU_chwin_@@@Z 0000000000606760 f   defaultviews.obj
 0001:00006630       ?ChDefaultPopupWinPaint@@YAXPEAU_chwin_@@@Z 0000000000606a30 f   defaultwindow.obj
 0001:00006720       ?ChDefaultWinPaint@@YAXPEAU_chwin_@@@Z 0000000000606b20 f   defaultwindow.obj
 0001:000067d0       ?ChWindowPaintCloseButton@@YAXPEAU_chwin_@@PEAU_global_ctrl_@@@Z 0000000000606bd0 f   defaultwindow.obj
 0001:00006900       ?ChWindowPaintMainActivity@@YAXPEAU_chwin_@@@Z 0000000000606d00 f   defaultwindow.obj
 0001:000069b0       ?ChWindowPaintMaximButton@@YAXPEAU_chwin_@@PEAU_global_ctrl_@@@Z 0000000000606db0 f   defaultwindow.obj
 0001:00006a90       ?ChWindowPaintMinimButton@@YAXPEAU_chwin_@@PEAU_global_ctrl_@@@Z 0000000000606e90 f   defaultwindow.obj
 0001:00006b80       ?ChWindowPaintTitlebar@@YAXPEAU_chwin_@@@Z 0000000000606f80 f   defaultwindow.obj
 0001:00006d60       ?ChInitialiseDefaultIcons@@YAXXZ 0000000000607160 f   icon.obj
 0001:00006de0       ChCreateIcon               00000000006071e0 f   icon.obj
 0001:00006e30       ChDrawIcon                 0000000000607230 f   icon.obj
 0001:00006ff0       ChDrawIconClipped          00000000006073f0 f   icon.obj
 0001:00007320       ChIconGetSystemIcon        0000000000607720 f   icon.obj
 0001:00007380       ChIconOpen                 0000000000607780 f   icon.obj
 0001:00007430       ChIconRead                 0000000000607830 f   icon.obj
 0001:00007530       initialize_list            0000000000607930 f   list.obj
 0001:00007580       list_add                   0000000000607980 f   list.obj
 0001:00007640       list_clear_all             0000000000607a40 f   list.obj
 0001:000076b0       list_get_at                0000000000607ab0 f   list.obj
 0001:00007750       list_remove                0000000000607b50 f   list.obj
 0001:00007850       ?ChMenuItemDestroy@@YAXPEAU_ChWidget_@@PEAU_chwin_@@@Z 0000000000607c50 f   menu.obj
 0001:000078e0       ?ChMenuItemMouseEvent@@YAXPEAU_ChWidget_@@PEAU_chwin_@@HHH@Z 0000000000607ce0 f   menu.obj
 0001:00007a10       ?ChMenuRecalculateDimensions@@YAXPEAU_popup_menu_@@@Z 0000000000607e10 f   menu.obj
 0001:00007be0       ?ChPopupMenuDestroy@@YAXPEAU_ChWidget_@@PEAU_chwin_@@@Z 0000000000607fe0 f   menu.obj
 0001:00007c90       ?ChPopupMenuMouseEvent@@YAXPEAU_ChWidget_@@PEAU_chwin_@@HHH@Z 0000000000608090 f   menu.obj
 0001:00007e70       ChCreateMenuItem           0000000000608270 f   menu.obj
 0001:00007f40       ChCreatePopupMenu          0000000000608340 f   menu.obj
 0001:00007fd0       ChMenuHide                 00000000006083d0 f   menu.obj
 0001:00008040       ChMenuShow                 0000000000608440 f   menu.obj
 0001:000081b0       ?ChMenuButtonDestroy@@YAXPEAU_ChWidget_@@PEAU_chwin_@@@Z 00000000006085b0 f   menubar.obj
 0001:00008260       ?ChMenubarDestroy@@YAXPEAU_ChWidget_@@PEAU_chwin_@@@Z 0000000000608660 f   menubar.obj
 0001:00008310       ?ChMenubarMouseEvent@@YAXPEAU_ChWidget_@@PEAU_chwin_@@HHH@Z 0000000000608710 f   menubar.obj
 0001:00008570       ChCreateMenubar            0000000000608970 f   menubar.obj
 0001:00008630       ChCreateMenubutton         0000000000608a30 f   menubar.obj
 0001:00008730       ChMenuButtonAddMenu        0000000000608b30 f   menubar.obj
 0001:00008770       ChMenubarAddButton         0000000000608b70 f   menubar.obj
 0001:000087b0       ?ChMessageBoxClose@@YAXPEAU_chwin_@@PEAU_global_ctrl_@@@Z 0000000000608bb0 f   msgbox.obj
 0001:00008810       ?ChMessageBoxDestroy@@YAXPEAU_ChWidget_@@PEAU_chwin_@@@Z 0000000000608c10 f   msgbox.obj
 0001:00008860       ?ChMessageBoxPaint@@YAXPEAU_ChWidget_@@PEAU_chwin_@@@Z 0000000000608c60 f   msgbox.obj
 0001:00008a40       ?ChMessageBoxPrepareButtons@@YAXPEAU_chwin_@@PEAU_msgbox_@@E@Z 0000000000608e40 f   msgbox.obj
 0001:00008d10       ChCreateMessageBox         0000000000609110 f   msgbox.obj
 0001:00008fc0       ChMessageBoxShow           00000000006093c0 f   msgbox.obj
 0001:00009030       ?ChProgressBarDestroy@@YAXPEAU_ChWidget_@@PEAU_chwin_@@@Z 0000000000609430 f   progress.obj
 0001:00009080       ChCreateProgressBar        0000000000609480 f   progress.obj
 0001:000091a0       ChProgressBarGetMax        00000000006095a0 f   progress.obj
 0001:000091d0       ChProgressBarGetMin        00000000006095d0 f   progress.obj
 0001:00009200       ChProgressBarSetMax        0000000000609600 f   progress.obj
 0001:00009240       ChProgressBarSetMin        0000000000609640 f   progress.obj
 0001:00009280       ChProgressBarSetValue      0000000000609680 f   progress.obj
 0001:000093c0       ?ChDefaultScrollPaneMouseEvent@@YAXPEAU_ChWidget_@@PEAU_chwin_@@HHH@Z 00000000006097c0 f   scrollpane.obj
 0001:00009e20       ?ChScrollpaneDestroy@@YAXPEAU_ChWidget_@@PEAU_chwin_@@@Z 000000000060a220 f   scrollpane.obj
 0001:00009e70       ChCreateScrollPane         000000000060a270 f   scrollpane.obj
 0001:0000a0a0       ChScrollUpdateHorizontalScroll 000000000060a4a0 f   scrollpane.obj
 0001:0000a0f0       ChScrollUpdateVerticalScroll 000000000060a4f0 f   scrollpane.obj
 0001:0000a1f0       ?ChSliderDestroy@@YAXPEAU_ChWidget_@@PEAU_chwin_@@@Z 000000000060a5f0 f   slider.obj
 0001:0000a240       ?ChSliderMouseEvent@@YAXPEAU_ChWidget_@@PEAU_chwin_@@HHH@Z 000000000060a640 f   slider.obj
 0001:0000a6a0       ChCreateSlider             000000000060aaa0 f   slider.obj
 0001:0000a850       ChSliderGetCurrentValue    000000000060ac50 f   slider.obj
 0001:0000a880       ChSliderGetMax             000000000060ac80 f   slider.obj
 0001:0000a8b0       ChSliderGetMin             000000000060acb0 f   slider.obj
 0001:0000a8e0       ChSliderGetStepSize        000000000060ace0 f   slider.obj
 0001:0000a910       ChSliderSetMax             000000000060ad10 f   slider.obj
 0001:0000a950       ChSliderSetMin             000000000060ad50 f   slider.obj
 0001:0000a990       ChSliderSetStepSize        000000000060ad90 f   slider.obj
 0001:0000a9d0       ChSliderSetValue           000000000060add0 f   slider.obj
 0001:0000aac0       ?ChListViewDestroy@@YAXPEAU_ChWidget_@@PEAU_chwin_@@@Z 000000000060aec0 f   view.obj
 0001:0000ab60       ?ChListViewMouseEvent@@YAXPEAU_ChWidget_@@PEAU_chwin_@@HHH@Z 000000000060af60 f   view.obj
 0001:0000af60       ?ChListViewScrollEvent@@YAXPEAU_ChWidget_@@PEAU_chwin_@@HE@Z 000000000060b360 f   view.obj
 0001:0000b070       ChCreateListView           000000000060b470 f   view.obj
 0001:0000b160       ChListViewAddItem          000000000060b560 f   view.obj
 0001:0000b350       ChListViewClear            000000000060b750 f   view.obj
 0001:0000b440       ChListViewGetSelectedItem  000000000060b840 f   view.obj
 0001:0000b4a0       ChListViewRepaint          000000000060b8a0 f   view.obj
 0001:0000b600       ChListViewSetListItemIcon  000000000060ba00 f   view.obj
 0001:0000b650       ChListViewSetScrollpane    000000000060ba50 f   view.obj
 0001:0000b720       ?ChFreeWindowResources@@YAXPEAU_chwin_@@@Z 000000000060bb20 f   window.obj
 0001:0000b850       ?ChGlobalCloseAction@@YAXPEAU_chwin_@@PEAU_global_ctrl_@@@Z 000000000060bc50 f   window.obj
 0001:0000b880       ?ChGlobalCtlMouseHandler@@YAXPEAU_chwin_@@PEAU_global_ctrl_@@HHH@Z 000000000060bc80 f   window.obj
 0001:0000b930       ?ChGlobalMinimiseAction@@YAXPEAU_chwin_@@PEAU_global_ctrl_@@@Z 000000000060bd30 f   window.obj
 0001:0000b960       ?ChRequestWindow@@YAXPEAU_ChApp_@@HHHHPEADGH@Z 000000000060bd60 f   window.obj
 0001:0000bb90       ChCreateGlobalButton       000000000060bf90 f   window.obj
 0001:0000bc30       ChCreatePopupWindow        000000000060c030 f   window.obj
 0001:0000bed0       ChCreateWindow             000000000060c2d0 f   window.obj
 0001:0000c2b0       ChGetPopupWindowByHandle   000000000060c6b0 f   window.obj
 0001:0000c320       ChGetWindowByHandle        000000000060c720 f   window.obj
 0001:0000c3b0       ChGetWindowHandle          000000000060c7b0 f   window.obj
 0001:0000c4a0       ChPopupWindowHandleMouse   000000000060c8a0 f   window.obj
 0001:0000c620       ChPopupWindowHide          000000000060ca20 f   window.obj
 0001:0000c660       ChPopupWindowShow          000000000060ca60 f   window.obj
 0001:0000c6c0       ChPopupWindowUpdate        000000000060cac0 f   window.obj
 0001:0000c870       ChPopupWindowUpdateLocation 000000000060cc70 f   window.obj
 0001:0000c8e0       ChWindowAddSubWindow       000000000060cce0 f   window.obj
 0001:0000c930       ChWindowAddWidget          000000000060cd30 f   window.obj
 0001:0000c970       ChWindowBroadcastIcon      000000000060cd70 f   window.obj
 0001:0000ca00       ChWindowCloseWindow        000000000060ce00 f   window.obj
 0001:0000ccd0       ChWindowGetBackgroundColor 000000000060d0d0 f   window.obj
 0001:0000cd00       ChWindowHandleFocus        000000000060d100 f   window.obj
 0001:0000cdf0       ChWindowHandleMouse        000000000060d1f0 f   window.obj
 0001:0000d2b0       ChWindowHide               000000000060d6b0 f   window.obj
 0001:0000d320       ChWindowPaint              000000000060d720 f   window.obj
 0001:0000d360       ChWindowRegisterJump       000000000060d760 f   window.obj
 0001:0000d3a0       ChWindowSetFlags           000000000060d7a0 f   window.obj
 0001:0000d430       ChWindowSetFocused         000000000060d830 f   window.obj
 0001:0000d4b0       ChWindowUpdate             000000000060d8b0 f   window.obj
 0001:0000d73c       printf                     000000000060db3c f   XEClib:XEClib.dll
 0001:0000d742       _KeGetThreadID             000000000060db42 f   XEClib:XEClib.dll
 0001:0000d748       _KeProcessSleep            000000000060db48 f   XEClib:XEClib.dll
 0001:0000d74e       _KeOpenFile                000000000060db4e f   XEClib:XEClib.dll
 0001:0000d754       _KeWriteFile               000000000060db54 f   XEClib:XEClib.dll
 0001:0000d75a       _KeCloseFile               000000000060db5a f   XEClib:XEClib.dll
 0001:0000d760       _KeFileIoControl           000000000060db60 f   XEClib:XEClib.dll
 0001:0000d766       _KeCreateSharedMem         000000000060db66 f   XEClib:XEClib.dll
 0001:0000d76c       _KeObtainSharedMem         000000000060db6c f   XEClib:XEClib.dll
 0001:0000d772       _KeUnmapSharedMem          000000000060db72 f   XEClib:XEClib.dll
 0001:0000d778       strcpy                     000000000060db78 f   XEClib:XEClib.dll
 0001:0000d77e       memset                     000000000060db7e f   XEClib:XEClib.dll
 0001:0000d784       memcpy                     000000000060db84 f   XEClib:XEClib.dll
 0001:0000d78a       malloc                     000000000060db8a f   XEClib:XEClib.dll
 0001:0000d790       free                       000000000060db90 f   XEClib:XEClib.dll
 0001:0000d796       _KePrint                   000000000060db96 f   XEClib:XEClib.dll
 0001:0000d79c       _KeMemMap                  000000000060db9c f   XEClib:XEClib.dll
 0001:0000d7a2       _KeMemUnmap                000000000060dba2 f   XEClib:XEClib.dll
 0001:0000d7a8       sqrtf                      000000000060dba8 f   XEClib:XEClib.dll
 0001:0000d7ae       abs                        000000000060dbae f   XEClib:XEClib.dll
 0001:0000d7b4       _KeGetFontID               000000000060dbb4 f   XEClib:XEClib.dll
 0001:0000d7ba       _KeGetFontSize             000000000060dbba f   XEClib:XEClib.dll
 0001:0000d7c0       isascii                    000000000060dbc0 f   XEClib:XEClib.dll
 0001:0000d7c6       strlen                     000000000060dbc6 f   XEClib:XEClib.dll
 0001:0000d7cc       sprintf                    000000000060dbcc f   XEClib:XEClib.dll
 0001:0000d7d2       _KeReadFile                000000000060dbd2 f   XEClib:XEClib.dll
 0001:0000d7d8       _KeFileStat                000000000060dbd8 f   XEClib:XEClib.dll
 0001:0000d7de       ceil                       000000000060dbde f   XEClib:XEClib.dll
 0001:0000d7e4       setjmp                     000000000060dbe4 f   XEClib:XEClib.dll
 0001:0000d7ea       longjmp                    000000000060dbea f   XEClib:XEClib.dll
 0001:0000d7f0       _KePauseThread             000000000060dbf0 f   XEClib:XEClib.dll
 0001:0000d7f6       _KeProcessExit             000000000060dbf6 f   XEClib:XEClib.dll
 0001:0000d7fc       FT_Init_FreeType           000000000060dbfc f   ftype:ftype.dll
 0001:0000d802       FT_New_Memory_Face         000000000060dc02 f   ftype:ftype.dll
 0001:0000d808       FT_Set_Pixel_Sizes         000000000060dc08 f   ftype:ftype.dll
 0001:0000d80e       FT_Load_Glyph              000000000060dc0e f   ftype:ftype.dll
 0001:0000d814       FT_Load_Char               000000000060dc14 f   ftype:ftype.dll
 0001:0000d81a       FT_Get_Kerning             000000000060dc1a f   ftype:ftype.dll
 0001:0000d820       FT_Get_Char_Index          000000000060dc20 f   ftype:ftype.dll
 0001:0000d826       FT_MulFix                  000000000060dc26 f   ftype:ftype.dll
 0002:00000000       __imp_printf               000000000060de00     XEClib:XEClib.dll
 0002:00000008       __imp__KeGetThreadID       000000000060de08     XEClib:XEClib.dll
 0002:00000010       __imp__KeProcessSleep      000000000060de10     XEClib:XEClib.dll
 0002:00000018       __imp__KeOpenFile          000000000060de18     XEClib:XEClib.dll
 0002:00000020       __imp__KeWriteFile         000000000060de20     XEClib:XEClib.dll
 0002:00000028       __imp__KeCloseFile         000000000060de28     XEClib:XEClib.dll
 0002:00000030       __imp__KeFileIoControl     000000000060de30     XEClib:XEClib.dll
 0002:00000038       __imp__KeCreateSharedMem   000000000060de38     XEClib:XEClib.dll
 0002:00000040       __imp__KeObtainSharedMem   000000000060de40     XEClib:XEClib.dll
 0002:00000048       __imp__KeUnmapSharedMem    000000000060de48     XEClib:XEClib.dll
 0002:00000050       __imp_strcpy               000000000060de50     XEClib:XEClib.dll
 0002:00000058       __imp_memset               000000000060de58     XEClib:XEClib.dll
 0002:00000060       __imp_memcpy               000000000060de60     XEClib:XEClib.dll
 0002:00000068       __imp_malloc               000000000060de68     XEClib:XEClib.dll
 0002:00000070       __imp_free                 000000000060de70     XEClib:XEClib.dll
 0002:00000078       __imp__KePrint             000000000060de78     XEClib:XEClib.dll
 0002:00000080       __imp__KeMemMap            000000000060de80     XEClib:XEClib.dll
 0002:00000088       __imp__KeMemUnmap          000000000060de88     XEClib:XEClib.dll
 0002:00000090       __imp_sqrtf                000000000060de90     XEClib:XEClib.dll
 0002:00000098       __imp_abs                  000000000060de98     XEClib:XEClib.dll
 0002:000000a0       __imp__KeGetFontID         000000000060dea0     XEClib:XEClib.dll
 0002:000000a8       __imp__KeGetFontSize       000000000060dea8     XEClib:XEClib.dll
 0002:000000b0       __imp_isascii              000000000060deb0     XEClib:XEClib.dll
 0002:000000b8       __imp_strlen               000000000060deb8     XEClib:XEClib.dll
 0002:000000c0       __imp_sprintf              000000000060dec0     XEClib:XEClib.dll
 0002:000000c8       __imp__KeReadFile          000000000060dec8     XEClib:XEClib.dll
 0002:000000d0       __imp__KeFileStat          000000000060ded0     XEClib:XEClib.dll
 0002:000000d8       __imp_ceil                 000000000060ded8     XEClib:XEClib.dll
 0002:000000e0       __imp_setjmp               000000000060dee0     XEClib:XEClib.dll
 0002:000000e8       __imp_longjmp              000000000060dee8     XEClib:XEClib.dll
 0002:000000f0       __imp__KePauseThread       000000000060def0     XEClib:XEClib.dll
 0002:000000f8       __imp__KeProcessExit       000000000060def8     XEClib:XEClib.dll
 0002:00000100       \177XEClib_NULL_THUNK_DATA 000000000060df00     XEClib:XEClib.dll
 0002:00000108       __imp_FT_Init_FreeType     000000000060df08     ftype:ftype.dll
 0002:00000110       __imp_FT_New_Memory_Face   000000000060df10     ftype:ftype.dll
 0002:00000118       __imp_FT_Set_Pixel_Sizes   000000000060df18     ftype:ftype.dll
 0002:00000120       __imp_FT_Load_Glyph        000000000060df20     ftype:ftype.dll
 0002:00000128       __imp_FT_Load_Char         000000000060df28     ftype:ftype.dll
 0002:00000130       __imp_FT_Get_Kerning       000000000060df30     ftype:ftype.dll
 0002:00000138       __imp_FT_Get_Char_Index    000000000060df38     ftype:ftype.dll
 0002:00000140       __imp_FT_MulFix            000000000060df40     ftype:ftype.dll
 0002:00000148       \177ftype_NULL_THUNK_DATA  000000000060df48     ftype:ftype.dll
 0002:00000150       ??_C@_0BD@HJNIOIBF@?1pipe?1DeodhaiAudio@ 000000000060df50     audio.obj
 0002:00000168       ??_C@_0CN@IFNGJLAI@DeodhaiAudo?5Connection?5failed?5?3@ 000000000060df68     audio.obj
 0002:00000198       ??_C@_0BK@HMJLIAPG@DeodhaiGetAudioConnection@ 000000000060df98     audio.obj
 0002:000001b8       ??_C@_0CC@LAHAELMI@DeodhaiAudio?5Handshake?5received@ 000000000060dfb8     audio.obj
 0002:000001dc       __real@3f800000            000000000060dfdc     audio.obj
 0002:000001e0       ??_C@_0CE@PIOJMBHO@Chitralekha?5Graphics?5Library?5v1@ 000000000060dfe0     chitralekha.obj
 0002:00000208       ??_C@_0L@PAICBBFF@?1dev?1graph@ 000000000060e008     chitralekha.obj
 0002:00000218       ??_C@_0CD@NOLADNDA@ChDrawPixel?5?3?5corrupted?5x?5?9?$DO?5?$CFd@ 000000000060e018     chitralekha.obj
 0002:00000240       ??_C@_0CD@BPDOOCPA@ChDrawPixel?5?3?5corrupted?5y?5?9?$DO?5?$CFd@ 000000000060e040     chitralekha.obj
 0002:00000268       ??_C@_0CC@CHLGIJGD@ChGetPixel?5?3?5corrupted?5x?5?9?$DO?5?$CFd?5@ 000000000060e068     chitralekha.obj
 0002:00000290       ??_C@_0CC@OGDIFGKD@ChGetPixel?5?3?5corrupted?5y?5?9?$DO?5?$CFd?5@ 000000000060e090     chitralekha.obj
 0002:000002b8       __real@3ff0000000000000    000000000060e0b8     color.obj
 0002:000002c0       __real@406fe00000000000    000000000060e0c0     font.obj
 0002:000002c8       __real@42900000            000000000060e0c8     font.obj
 0002:000002cc       __real@42c00000            000000000060e0cc     font.obj
 0002:000002d0       ??_C@_0CL@GMLEKKGF@start?5code?5is?5greater?5than?5code@ 000000000060e0d0     ttf.obj
 0002:00000300       ??_C@_0O@LKECLAFB@Index?5?9?$DO?5?$CFd?5?6@ 000000000060e100     ttf.obj
 0002:00000310       __real@3ff5555555555555    000000000060e110     ttf.obj
 0002:00000318       __real@41200000            000000000060e118     ttf.obj
 0002:00000320       ??_C@_0N@KNEFCGIK@?1dev?1postbox@ 000000000060e120     base.obj
 0002:00000330       ??_C@_07IJHPCLIM@Calibri@  000000000060e130     base.obj
 0002:00000338       ??_C@_0BE@GHJPBGJK@Button?5destroyed?5?$AN?6@ 000000000060e138     button.obj
 0002:0000034c       ??_C@_02NJPGOMH@?$CFf@     000000000060e14c     defaultprogressbar.obj
 0002:00000350       __real@00000000            000000000060e150     defaultslider.obj
 0002:00000358       ??_C@_0BB@ONMBPOFB@?1icons?1succi?4bmp@ 000000000060e158     icon.obj
 0002:00000370       ??_C@_0BB@HMJIFHMM@?1icons?1infoi?4bmp@ 000000000060e170     icon.obj
 0002:00000388       ??_C@_0BJ@BGEHDJDE@Popup?5menu?5destroying?5?$AN?6@ 000000000060e188     menu.obj
 0002:000003a8       ??_C@_0BI@GBHOJACO@Popup?5Menu?5Destroyed?5?$AN?6@ 000000000060e1a8     menu.obj
 0002:000003c0       ??_C@_0BJ@IKNCOOGF@MenuItem?5destroying?5?$CFs?$AN?6@ 000000000060e1c0     menu.obj
 0002:000003e0       ??_C@_0BD@EMDIFHNC@Item?5clicked?5?$CFs?5?$AN?6@ 000000000060e1e0     menu.obj
 0002:000003f4       ??_C@_05EPOLMFOG@Popup@    000000000060e1f4     menu.obj
 0002:00000400       ??_C@_0BG@GPIKDFEM@Destroying?5menubar?5?$AN?6@ 000000000060e200     menubar.obj
 0002:00000418       ??_C@_0BJ@LBEDIFOC@Popup?5menu?5availabled?5?$AN?6@ 000000000060e218     menubar.obj
 0002:00000438       ??_C@_0BO@PDEPOEH@Menubutton?5destroying?5?9?$DO?5?$CFx?$AN?6@ 000000000060e238     menubar.obj
 0002:00000458       ??_C@_0BE@EOPIIANM@mbut?9?$DOback?5?9?$DO?5?$CFx?5?$AN?6@ 000000000060e258     menubar.obj
 0002:00000470       ??_C@_0BI@HNAIEEME@Menubutton?5destroyed?5?$AN?6@ 000000000060e270     menubar.obj
 0002:00000488       ??_C@_03CCLAEDDF@Yes@      000000000060e288     msgbox.obj
 0002:0000048c       ??_C@_02JINPPBEP@No@       000000000060e28c     msgbox.obj
 0002:00000490       ??_C@_04LILBNENA@Okay@     000000000060e290     msgbox.obj
 0002:00000498       ??_C@_06FMBNCPDL@Cancel@   000000000060e298     msgbox.obj
 0002:000004a0       ??_C@_05LGELBCGM@Close@    000000000060e2a0     msgbox.obj
 0002:000004a8       ??_C@_0BJ@NPNNLCFD@ChProgressBar?5destroy?5?$AN?6@ 000000000060e2a8     progress.obj
 0002:000004c8       __real@4059000000000000    000000000060e2c8     progress.obj
 0002:000004d0       ??_C@_0BJ@ICNKIMAG@Current?5hscroll?5?9?$DO?5?$CFd?5?$AN?6@ 000000000060e2d0     scrollpane.obj
 0002:000004f0       ??_C@_0BI@HGMLKOD@Scrollpane?5destroyed?5?$AN?6@ 000000000060e2f0     scrollpane.obj
 0002:00000508       ??_C@_0BE@BAECKGCH@Slider?5destroyed?5?$AN?6@ 000000000060e308     slider.obj
 0002:0000051c       __real@42c80000            000000000060e31c     slider.obj
 0002:00000520       ??_C@_0BG@OFKPNDBB@ListView?5destroyed?5?$AN?6@ 000000000060e320     view.obj
 0002:00000538       ??_C@_0CK@MJMKFLMJ@?$FLListView?$FN?3?5Maximum?5selected?5it@ 000000000060e338     view.obj
 0002:00000568       __real@4038000000000000    000000000060e368     view.obj
 0002:00000570       ??_C@_0CC@ELOEFBPC@Chitralekha?3?5buffer?5key?5problem@ 000000000060e370     window.obj
 0002:00000598       ??_C@_0BF@PBCOLFKF@Corrupted?5x?5?9?$DO?5?$CFd?5?$AN?6@ 000000000060e398     window.obj
 0002:000005b0       ??_C@_0BF@DAKAGKGF@Corrupted?5y?5?9?$DO?5?$CFd?5?$AN?6@ 000000000060e3b0     window.obj
 0002:000005c8       ??_C@_0BF@GCNGEBGD@Corrupted?5w?5?9?$DO?5?$CFd?5?$AN?6@ 000000000060e3c8     window.obj
 0002:000005e0       ??_C@_0BF@FPNIHBGO@Corrupted?5h?5?9?$DO?5?$CFd?5?$AN?6@ 000000000060e3e0     window.obj
 0002:000005f8       ??_C@_0CA@BGHOPKHH@A?5popup?5window?5is?5not?5hidden?5?$AN?6@ 000000000060e3f8     window.obj
 0002:00000618       ??_C@_0BG@FLJFEGNE@Freeing?5up?5widgets?5?$AN?6@ 000000000060e418     window.obj
 0002:00000630       ??_C@_0BD@GCEKJJHL@Widgets?5cleared?5?$AN?6@ 000000000060e430     window.obj
 0002:00000648       ??_C@_0CB@BPLHHDPE@Window?5Resource?5cleared?5?9?$DO?5?$CFd?5?$AN@ 000000000060e448     window.obj
 0002:00000670       ??_C@_0BL@DFIJMFDO@All?5Popup?5Window?5closed?5?$AN?6@ 000000000060e470     window.obj
 0002:000006a8       __volatile_metadata        000000000060e4a8     <linker-defined>
 0003:00000000       _fltused                   000000000060f000     chitralekha.obj
 0003:00000160       ?chkey@@3PEAU_chitralekha_key_@@EA 000000000060f160     keycode.obj
 0003:00000168       ?baseapp@@3PEAU_ChApp_@@EA 000000000060f168     base.obj
 0003:00000170       ?warning@@3PEAU_icon_@@EA  000000000060f170     icon.obj
 0003:00000178       ?success@@3PEAU_icon_@@EA  000000000060f178     icon.obj
 0003:00000180       ?exclaim@@3PEAU_icon_@@EA  000000000060f180     icon.obj
 0003:00000188       ?information@@3PEAU_icon_@@EA 000000000060f188     icon.obj
 0007:00000000       __IMPORT_DESCRIPTOR_XEClib 0000000000610c00     XEClib:XEClib.dll
 0007:00000014       __IMPORT_DESCRIPTOR_ftype  0000000000610c14     ftype:ftype.dll
 0007:00000028       __NULL_IMPORT_DESCRIPTOR   0000000000610c28     XEClib:XEClib.dll

 entry point at        0000:00000000

 Static symbols

 0000:00000000       .debug$S                   0000000000600000     chlkha.exp
 0000:00000000       .debug$S                   0000000000600000     XEClib:XEClib.dll
 0000:00000000       .debug$S                   0000000000600000     XEClib:XEClib.dll
 0000:00000000       .debug$S                   0000000000600000     XEClib:XEClib.dll
 0000:00000000       .debug$S                   0000000000600000     XEClib:XEClib.dll
 0000:00000000       .debug$S                   0000000000600000     XEClib:XEClib.dll
 0000:00000000       .debug$S                   0000000000600000     XEClib:XEClib.dll
 0000:00000000       .debug$S                   0000000000600000     XEClib:XEClib.dll
 0000:00000000       .debug$S                   0000000000600000     XEClib:XEClib.dll
 0000:00000000       .debug$S                   0000000000600000     XEClib:XEClib.dll
 0000:00000000       .debug$S                   0000000000600000     XEClib:XEClib.dll
 0000:00000000       .debug$S                   0000000000600000     XEClib:XEClib.dll
 0000:00000000       .debug$S                   0000000000600000     XEClib:XEClib.dll
 0000:00000000       .debug$S                   0000000000600000     XEClib:XEClib.dll
 0000:00000000       .debug$S                   0000000000600000     XEClib:XEClib.dll
 0000:00000000       .debug$S                   0000000000600000     XEClib:XEClib.dll
 0000:00000000       .debug$S                   0000000000600000     XEClib:XEClib.dll
 0000:00000000       .debug$S                   0000000000600000     XEClib:XEClib.dll
 0000:00000000       .debug$S                   0000000000600000     XEClib:XEClib.dll
 0000:00000000       .debug$S                   0000000000600000     XEClib:XEClib.dll
 0000:00000000       .debug$S                   0000000000600000     XEClib:XEClib.dll
 0000:00000000       .debug$S                   0000000000600000     XEClib:XEClib.dll
 0000:00000000       .debug$S                   0000000000600000     XEClib:XEClib.dll
 0000:00000000       .debug$S                   0000000000600000     XEClib:XEClib.dll
 0000:00000000       .debug$S                   0000000000600000     XEClib:XEClib.dll
 0000:00000000       .debug$S                   0000000000600000     XEClib:XEClib.dll
 0000:00000000       .debug$S                   0000000000600000     XEClib:XEClib.dll
 0000:00000000       .debug$S                   0000000000600000     XEClib:XEClib.dll
 0000:00000000       .debug$S                   0000000000600000     XEClib:XEClib.dll
 0000:00000000       .debug$S                   0000000000600000     XEClib:XEClib.dll
 0000:00000000       .debug$S                   0000000000600000     XEClib:XEClib.dll
 0000:00000000       .debug$S                   0000000000600000     XEClib:XEClib.dll
 0000:00000000       .debug$S                   0000000000600000     XEClib:XEClib.dll
 0000:00000000       .debug$S                   0000000000600000     ftype:ftype.dll
 0000:00000000       .debug$S                   0000000000600000     ftype:ftype.dll
 0000:00000000       .debug$S                   0000000000600000     ftype:ftype.dll
 0000:00000000       .debug$S                   0000000000600000     ftype:ftype.dll
 0000:00000000       .debug$S                   0000000000600000     ftype:ftype.dll
 0000:00000000       .debug$S                   0000000000600000     ftype:ftype.dll
 0000:00000000       .debug$S                   0000000000600000     ftype:ftype.dll
 0000:00000000       .debug$S                   0000000000600000     ftype:ftype.dll
 0001:00003c4c       $LN38                      000000000060404c     keycode.obj
 0001:00003c74       $LN37                      0000000000604074     keycode.obj
 0001:00003ca4       $LN36                      00000000006040a4     keycode.obj
 0001:00003e8c       $LN32                      000000000060428c     keycode.obj
 0001:00003ea8       $LN31                      00000000006042a8     keycode.obj
 0002:000007f8       $unwind$DeodhaiAudioOpenConnection 000000000060e5f8     audio.obj
 0002:00000804       $unwind$DeodhaiAudioWrite  000000000060e604     audio.obj
 0002:00000810       $unwind$DeodhaiAudioCloseConnection 000000000060e610     audio.obj
 0002:0000081c       $unwind$ChBoxBlur          000000000060e61c     boxblur.obj
 0002:00000828       $unwind$ChPrintLibName     000000000060e628     chitralekha.obj
 0002:00000834       $unwind$ChCreateCanvas     000000000060e634     chitralekha.obj
 0002:00000840       $unwind$ChAllocateBuffer   000000000060e640     chitralekha.obj
 0002:0000084c       $unwind$ChDeAllocateBuffer 000000000060e64c     chitralekha.obj
 0002:00000858       $unwind$ChCanvasScreenUpdate 000000000060e658     chitralekha.obj
 0002:00000864       $unwind$ChDrawPixel        000000000060e664     chitralekha.obj
 0002:00000870       $unwind$ChGetPixel         000000000060e670     chitralekha.obj
 0002:0000087c       $unwind$ChCanvasFill       000000000060e67c     chitralekha.obj
 0002:00000888       $unwind$ChGetScreenDiagonal 000000000060e688     chitralekha.obj
 0002:00000894       $unwind$ChGetScreenDPI     000000000060e694     chitralekha.obj
 0002:000008a0       $unwind$ChGetScreenAspectRatio 000000000060e6a0     chitralekha.obj
 0002:000008ac       $unwind$ChColorAlphaBlend  000000000060e6ac     color.obj
 0002:000008b8       $unwind$ChColorAlphaBlend2 000000000060e6b8     color.obj
 0002:000008c4       $unwind$ChColorDrawVerticalGradient 000000000060e6c4     color.obj
 0002:000008d0       $unwind$make_col           000000000060e6d0     color.obj
 0002:000008dc       $unwind$make_col_a         000000000060e6dc     color.obj
 0002:000008e8       $unwind$ChColorDrawHorizontalGradient 000000000060e6e8     color.obj
 0002:000008f4       $unwind$clamp              000000000060e6f4     color.obj
 0002:00000900       $unwind$ChDrawRect         000000000060e700     draw.obj
 0002:0000090c       $unwind$ChDrawRectClipped  000000000060e70c     draw.obj
 0002:00000918       $unwind$ChDrawVerticalLine 000000000060e718     draw.obj
 0002:00000924       $unwind$ChDrawHorizontalLine 000000000060e724     draw.obj
 0002:00000930       $unwind$ChDrawRectUnfilled 000000000060e730     draw.obj
 0002:0000093c       $unwind$ChDrawRectUnfilledClipped 000000000060e73c     draw.obj
 0002:00000948       $unwind$ChDrawFilledCircle 000000000060e748     draw.obj
 0002:00000954       $unwind$ChDrawLine         000000000060e754     draw.obj
 0002:00000960       $unwind$ChDrawCircleUnfilled 000000000060e760     draw.obj
 0002:0000096c       $unwind$?ChDrawBoxBlur@@YAXPEAU_ChCanvas_@@PEAI1HHHH@Z 000000000060e76c     draw.obj
 0002:00000978       $unwind$ChInitialiseFont   000000000060e778     font.obj
 0002:00000984       $unwind$ChFontSetSize      000000000060e784     font.obj
 0002:00000990       $unwind$ChFontDrawText     000000000060e790     font.obj
 0002:0000099c       $unwind$ChFontDrawChar     000000000060e79c     font.obj
 0002:000009a8       $unwind$ChFontDrawTextClipped 000000000060e7a8     font.obj
 0002:000009b4       $unwind$ChFontGetWidth     000000000060e7b4     font.obj
 0002:000009c0       $unwind$ChFontGetWidthChar 000000000060e7c0     font.obj
 0002:000009cc       $unwind$ChFontGetHeight    000000000060e7cc     font.obj
 0002:000009d8       $unwind$ChFontGetHeightChar 000000000060e7d8     font.obj
 0002:000009e4       $unwind$ChFontClose        000000000060e7e4     font.obj
 0002:000009f0       $unwind$?ChFontClamp@@YAHHHH@Z 000000000060e7f0     font.obj
 0002:000009fc       $unwind$ChitralekhaKeyInitialise 000000000060e7fc     keycode.obj
 0002:00000a08       $unwind$ChitralekhaProcessKey 000000000060e808     keycode.obj
 0002:00000a14       $unwind$ChitralekhaKeyToASCII 000000000060e814     keycode.obj
 0002:00000a20       $unwind$ChitralekhaGetKeyPress 000000000060e820     keycode.obj
 0002:00000a2c       $unwind$ChitralekhaKeyGetCTRL 000000000060e82c     keycode.obj
 0002:00000a38       $unwind$ChitralekhaKeyGetAlt 000000000060e838     keycode.obj
 0002:00000a44       $unwind$ChitralekhaKeyGetShift 000000000060e844     keycode.obj
 0002:00000a50       $unwind$ChitralekhaKeySetCtrl 000000000060e850     keycode.obj
 0002:00000a5c       $unwind$ChitralekhaKeySetAlt 000000000060e85c     keycode.obj
 0002:00000a68       $unwind$ChitralekhaKeySetShift 000000000060e868     keycode.obj
 0002:00000a74       $unwind$?TTFLoadFont@@YAPEAU_ttf_@@PEAU_ChCanvas_@@PEAE@Z 000000000060e874     ttf.obj
 0002:00000a80       $unwind$?TTFSetFontSize@@YAXPEAU_ttf_@@M@Z 000000000060e880     ttf.obj
 0002:00000a8c       $unwind$?TTFSwap32@@YAHH@Z 000000000060e88c     ttf.obj
 0002:00000a98       $unwind$?TTFSwap16@@YAGG@Z 000000000060e898     ttf.obj
 0002:00000aa4       $unwind$?TTF_READ_8@@YAEPEAU_ttf_@@@Z 000000000060e8a4     ttf.obj
 0002:00000ab0       $unwind$?TTF_READ_16@@YAGPEAU_ttf_@@@Z 000000000060e8b0     ttf.obj
 0002:00000abc       $unwind$?UTF8toUnicode@@YAIE@Z 000000000060e8bc     ttf.obj
 0002:00000ac8       $unwind$?TTFGetGlyph@@YAIPEAU_ttf_@@I@Z 000000000060e8c8     ttf.obj
 0002:00000ad4       $unwind$?TTFDrawSimpleGlyf@@YAXPEAU_ttf_@@IMM@Z 000000000060e8d4     ttf.obj
 0002:00000ae0       $unwind$?TTFDrawGlyph@@YAXPEAU_ttf_@@IHH@Z 000000000060e8e0     ttf.obj
 0002:00000aec       $unwind$ChitralekhaStartApp 000000000060e8ec     base.obj
 0002:00000af8       $unwind$ChitralekhaStartSubApp 000000000060e8f8     base.obj
 0002:00000b04       $unwind$ChitralekhaGetApp  000000000060e904     base.obj
 0002:00000b10       $unwind$ChCreateButton     000000000060e910     button.obj
 0002:00000b1c       $unwind$?ChButtonMouseEvent@@YAXPEAU_ChWidget_@@PEAU_chwin_@@HHH@Z 000000000060e91c     button.obj
 0002:00000b28       $unwind$?ChButtonDestroy@@YAXPEAU_ChWidget_@@PEAU_chwin_@@@Z 000000000060e928     button.obj
 0002:00000b34       $unwind$?ChButtonDefaultPainter@@YAXPEAU_ChWidget_@@PEAU_chwin_@@@Z 000000000060e934     button.obj
 0002:00000b40       $unwind$?ChDefaultMenubarPainter@@YAXPEAU_ChWidget_@@PEAU_chwin_@@@Z 000000000060e940     defaultmenu.obj
 0002:00000b4c       $unwind$?ChPopupMenuAppendButton@@YAXPEAU_popup_menu_@@HHHH@Z 000000000060e94c     defaultmenu.obj
 0002:00000b58       $unwind$?ChPopupMenuPaint@@YAXPEAU_popup_menu_@@@Z 000000000060e958     defaultmenu.obj
 0002:00000b64       $unwind$?ChDefaultProgressBarPainter@@YAXPEAU_ChWidget_@@PEAU_chwin_@@@Z 000000000060e964     defaultprogressbar.obj
 0002:00000b70       $unwind$?ChDefaultScrollPanePainter@@YAXPEAU_ChWidget_@@PEAU_chwin_@@@Z 000000000060e970     defaultscrollbar.obj
 0002:00000b7c       $unwind$?ChDefaultSliderPainter@@YAXPEAU_ChWidget_@@PEAU_chwin_@@@Z 000000000060e97c     defaultslider.obj
 0002:00000b88       $unwind$?ChDefaultListViewPainter@@YAXPEAU_ChWidget_@@PEAU_chwin_@@@Z 000000000060e988     defaultviews.obj
 0002:00000b94       $unwind$?ChWindowPaintCloseButton@@YAXPEAU_chwin_@@PEAU_global_ctrl_@@@Z 000000000060e994     defaultwindow.obj
 0002:00000ba0       $unwind$?ChWindowPaintMaximButton@@YAXPEAU_chwin_@@PEAU_global_ctrl_@@@Z 000000000060e9a0     defaultwindow.obj
 0002:00000bac       $unwind$?ChWindowPaintMinimButton@@YAXPEAU_chwin_@@PEAU_global_ctrl_@@@Z 000000000060e9ac     defaultwindow.obj
 0002:00000bb8       $unwind$?ChWindowPaintTitlebar@@YAXPEAU_chwin_@@@Z 000000000060e9b8     defaultwindow.obj
 0002:00000bc4       $unwind$?ChWindowPaintMainActivity@@YAXPEAU_chwin_@@@Z 000000000060e9c4     defaultwindow.obj
 0002:00000bd0       $unwind$?ChDefaultWinPaint@@YAXPEAU_chwin_@@@Z 000000000060e9d0     defaultwindow.obj
 0002:00000bdc       $unwind$?ChDefaultPopupWinPaint@@YAXPEAU_chwin_@@@Z 000000000060e9dc     defaultwindow.obj
 0002:00000be8       $unwind$ChCreateIcon       000000000060e9e8     icon.obj
 0002:00000bf4       $unwind$ChIconOpen         000000000060e9f4     icon.obj
 0002:00000c00       $unwind$ChIconRead         000000000060ea00     icon.obj
 0002:00000c0c       $unwind$ChDrawIcon         000000000060ea0c     icon.obj
 0002:00000c18       $unwind$ChDrawIconClipped  000000000060ea18     icon.obj
 0002:00000c24       $unwind$?ChInitialiseDefaultIcons@@YAXXZ 000000000060ea24     icon.obj
 0002:00000c30       $unwind$ChIconGetSystemIcon 000000000060ea30     icon.obj
 0002:00000c3c       $unwind$initialize_list    000000000060ea3c     list.obj
 0002:00000c48       $unwind$list_add           000000000060ea48     list.obj
 0002:00000c54       $unwind$list_remove        000000000060ea54     list.obj
 0002:00000c60       $unwind$list_get_at        000000000060ea60     list.obj
 0002:00000c6c       $unwind$list_clear_all     000000000060ea6c     list.obj
 0002:00000c78       $unwind$ChCreatePopupMenu  000000000060ea78     menu.obj
 0002:00000c84       $unwind$ChCreateMenuItem   000000000060ea84     menu.obj
 0002:00000c90       $unwind$ChMenuShow         000000000060ea90     menu.obj
 0002:00000c9c       $unwind$ChMenuHide         000000000060ea9c     menu.obj
 0002:00000ca8       $unwind$?ChPopupMenuMouseEvent@@YAXPEAU_ChWidget_@@PEAU_chwin_@@HHH@Z 000000000060eaa8     menu.obj
 0002:00000cb4       $unwind$?ChPopupMenuDestroy@@YAXPEAU_ChWidget_@@PEAU_chwin_@@@Z 000000000060eab4     menu.obj
 0002:00000cc0       $unwind$?ChMenuItemDestroy@@YAXPEAU_ChWidget_@@PEAU_chwin_@@@Z 000000000060eac0     menu.obj
 0002:00000ccc       $unwind$?ChMenuItemMouseEvent@@YAXPEAU_ChWidget_@@PEAU_chwin_@@HHH@Z 000000000060eacc     menu.obj
 0002:00000cd8       $unwind$?ChMenuRecalculateDimensions@@YAXPEAU_popup_menu_@@@Z 000000000060ead8     menu.obj
 0002:00000ce4       $unwind$ChCreateMenubar    000000000060eae4     menubar.obj
 0002:00000cf0       $unwind$ChCreateMenubutton 000000000060eaf0     menubar.obj
 0002:00000cfc       $unwind$ChMenubarAddButton 000000000060eafc     menubar.obj
 0002:00000d08       $unwind$ChMenuButtonAddMenu 000000000060eb08     menubar.obj
 0002:00000d14       $unwind$?ChMenubarDestroy@@YAXPEAU_ChWidget_@@PEAU_chwin_@@@Z 000000000060eb14     menubar.obj
 0002:00000d20       $unwind$?ChMenubarMouseEvent@@YAXPEAU_ChWidget_@@PEAU_chwin_@@HHH@Z 000000000060eb20     menubar.obj
 0002:00000d2c       $unwind$?ChMenuButtonDestroy@@YAXPEAU_ChWidget_@@PEAU_chwin_@@@Z 000000000060eb2c     menubar.obj
 0002:00000d38       $unwind$ChCreateMessageBox 000000000060eb38     msgbox.obj
 0002:00000d44       $unwind$ChMessageBoxShow   000000000060eb44     msgbox.obj
 0002:00000d50       $unwind$?ChMessageBoxDestroy@@YAXPEAU_ChWidget_@@PEAU_chwin_@@@Z 000000000060eb50     msgbox.obj
 0002:00000d5c       $unwind$?ChMessageBoxPaint@@YAXPEAU_ChWidget_@@PEAU_chwin_@@@Z 000000000060eb5c     msgbox.obj
 0002:00000d68       $unwind$?ChMessageBoxClose@@YAXPEAU_chwin_@@PEAU_global_ctrl_@@@Z 000000000060eb68     msgbox.obj
 0002:00000d74       $unwind$?ChMessageBoxPrepareButtons@@YAXPEAU_chwin_@@PEAU_msgbox_@@E@Z 000000000060eb74     msgbox.obj
 0002:00000d80       $unwind$ChCreateProgressBar 000000000060eb80     progress.obj
 0002:00000d8c       $unwind$ChProgressBarSetMax 000000000060eb8c     progress.obj
 0002:00000d98       $unwind$ChProgressBarSetMin 000000000060eb98     progress.obj
 0002:00000da4       $unwind$ChProgressBarGetMax 000000000060eba4     progress.obj
 0002:00000db0       $unwind$ChProgressBarGetMin 000000000060ebb0     progress.obj
 0002:00000dbc       $unwind$ChProgressBarSetValue 000000000060ebbc     progress.obj
 0002:00000dc8       $unwind$?ChProgressBarDestroy@@YAXPEAU_ChWidget_@@PEAU_chwin_@@@Z 000000000060ebc8     progress.obj
 0002:00000dd4       $unwind$ChCreateScrollPane 000000000060ebd4     scrollpane.obj
 0002:00000de0       $unwind$ChScrollUpdateVerticalScroll 000000000060ebe0     scrollpane.obj
 0002:00000dec       $unwind$ChScrollUpdateHorizontalScroll 000000000060ebec     scrollpane.obj
 0002:00000df8       $unwind$?ChDefaultScrollPaneMouseEvent@@YAXPEAU_ChWidget_@@PEAU_chwin_@@HHH@Z 000000000060ebf8     scrollpane.obj
 0002:00000e04       $unwind$?ChScrollpaneDestroy@@YAXPEAU_ChWidget_@@PEAU_chwin_@@@Z 000000000060ec04     scrollpane.obj
 0002:00000e10       $unwind$ChCreateSlider     000000000060ec10     slider.obj
 0002:00000e1c       $unwind$ChSliderSetStepSize 000000000060ec1c     slider.obj
 0002:00000e28       $unwind$ChSliderGetStepSize 000000000060ec28     slider.obj
 0002:00000e34       $unwind$ChSliderGetCurrentValue 000000000060ec34     slider.obj
 0002:00000e40       $unwind$ChSliderSetValue   000000000060ec40     slider.obj
 0002:00000e4c       $unwind$ChSliderSetMax     000000000060ec4c     slider.obj
 0002:00000e58       $unwind$ChSliderGetMax     000000000060ec58     slider.obj
 0002:00000e64       $unwind$ChSliderSetMin     000000000060ec64     slider.obj
 0002:00000e70       $unwind$ChSliderGetMin     000000000060ec70     slider.obj
 0002:00000e7c       $unwind$?ChSliderDestroy@@YAXPEAU_ChWidget_@@PEAU_chwin_@@@Z 000000000060ec7c     slider.obj
 0002:00000e88       $unwind$?ChSliderMouseEvent@@YAXPEAU_ChWidget_@@PEAU_chwin_@@HHH@Z 000000000060ec88     slider.obj
 0002:00000e94       $unwind$ChCreateListView   000000000060ec94     view.obj
 0002:00000ea0       $unwind$ChListViewSetScrollpane 000000000060eca0     view.obj
 0002:00000eac       $unwind$ChListViewAddItem  000000000060ecac     view.obj
 0002:00000eb8       $unwind$ChListViewSetListItemIcon 000000000060ecb8     view.obj
 0002:00000ec4       $unwind$ChListViewClear    000000000060ecc4     view.obj
 0002:00000ed0       $unwind$ChListViewRepaint  000000000060ecd0     view.obj
 0002:00000edc       $unwind$ChListViewGetSelectedItem 000000000060ecdc     view.obj
 0002:00000ee8       $unwind$?ChListViewMouseEvent@@YAXPEAU_ChWidget_@@PEAU_chwin_@@HHH@Z 000000000060ece8     view.obj
 0002:00000ef4       $unwind$?ChListViewScrollEvent@@YAXPEAU_ChWidget_@@PEAU_chwin_@@HE@Z 000000000060ecf4     view.obj
 0002:00000f00       $unwind$?ChListViewDestroy@@YAXPEAU_ChWidget_@@PEAU_chwin_@@@Z 000000000060ed00     view.obj
 0002:00000f0c       $unwind$ChCreateWindow     000000000060ed0c     window.obj
 0002:00000f18       $unwind$ChWindowAddSubWindow 000000000060ed18     window.obj
 0002:00000f24       $unwind$ChWindowBroadcastIcon 000000000060ed24     window.obj
 0002:00000f30       $unwind$ChWindowPaint      000000000060ed30     window.obj
 0002:00000f3c       $unwind$ChWindowUpdate     000000000060ed3c     window.obj
 0002:00000f48       $unwind$ChWindowHide       000000000060ed48     window.obj
 0002:00000f54       $unwind$ChGetWindowHandle  000000000060ed54     window.obj
 0002:00000f60       $unwind$ChWindowHandleMouse 000000000060ed60     window.obj
 0002:00000f6c       $unwind$ChWindowSetFocused 000000000060ed6c     window.obj
 0002:00000f78       $unwind$ChWindowHandleFocus 000000000060ed78     window.obj
 0002:00000f84       $unwind$ChWindowGetBackgroundColor 000000000060ed84     window.obj
 0002:00000f90       $unwind$ChWindowAddWidget  000000000060ed90     window.obj
 0002:00000f9c       $unwind$ChGetWindowByHandle 000000000060ed9c     window.obj
 0002:00000fa8       $unwind$ChGetPopupWindowByHandle 000000000060eda8     window.obj
 0002:00000fb4       $unwind$ChPopupWindowHandleMouse 000000000060edb4     window.obj
 0002:00000fc0       $unwind$ChWindowSetFlags   000000000060edc0     window.obj
 0002:00000fcc       $unwind$ChWindowRegisterJump 000000000060edcc     window.obj
 0002:00000fd8       $unwind$ChWindowCloseWindow 000000000060edd8     window.obj
 0002:00000fe4       $unwind$ChCreatePopupWindow 000000000060ede4     window.obj
 0002:00000ff0       $unwind$ChPopupWindowUpdate 000000000060edf0     window.obj
 0002:00000ffc       $unwind$ChPopupWindowShow  000000000060edfc     window.obj
 0002:00001008       $unwind$ChPopupWindowUpdateLocation 000000000060ee08     window.obj
 0002:00001014       $unwind$ChPopupWindowHide  000000000060ee14     window.obj
 0002:00001020       $unwind$?ChRequestWindow@@YAXPEAU_ChApp_@@HHHHPEADGH@Z 000000000060ee20     window.obj
 0002:0000102c       $unwind$?ChGlobalCtlMouseHandler@@YAXPEAU_chwin_@@PEAU_global_ctrl_@@HHH@Z 000000000060ee2c     window.obj
 0002:00001038       $unwind$ChCreateGlobalButton 000000000060ee38     window.obj
 0002:00001044       $unwind$?ChGlobalCloseAction@@YAXPEAU_chwin_@@PEAU_global_ctrl_@@@Z 000000000060ee44     window.obj
 0002:00001050       $unwind$?ChGlobalMinimiseAction@@YAXPEAU_chwin_@@PEAU_global_ctrl_@@@Z 000000000060ee50     window.obj
 0002:0000105c       $unwind$?ChFreeWindowResources@@YAXPEAU_chwin_@@@Z 000000000060ee5c     window.obj
 0003:00000010       ?_kkybrd_scancode_std@@3PAHA 000000000060f010     keycode.obj
 0005:00000000       __A7BD3331_audio@cpp       000000000060fc00     audio.obj
 0005:00000001       __68C32391_boxblur@cpp     000000000060fc01     boxblur.obj
 0005:00000002       __FC5709EE_chitralekha@cpp 000000000060fc02     chitralekha.obj
 0005:00000003       __D7512CA1_color@cpp       000000000060fc03     color.obj
 0005:00000004       __244A9B00_draw@cpp        000000000060fc04     draw.obj
 0005:00000005       __D690A976_font@cpp        000000000060fc05     font.obj
 0005:00000006       __F4DF1931_keycode@cpp     000000000060fc06     keycode.obj
 0005:00000007       __F9184CDB_utf@h           000000000060fc07     ttf.obj
 0005:00000008       __52371A69_ttf@cpp         000000000060fc08     ttf.obj
 0005:00000009       __4D73331B_base@cpp        000000000060fc09     base.obj
 0005:0000000a       __5ABA1AEB_button@cpp      000000000060fc0a     button.obj
 0005:0000000b       __1E8161E5_defaultmenu@cpp 000000000060fc0b     defaultmenu.obj
 0005:0000000c       __C9BBAE68_defaultprogressbar@cpp 000000000060fc0c     defaultprogressbar.obj
 0005:0000000d       __857FADE3_defaultscrollbar@cpp 000000000060fc0d     defaultscrollbar.obj
 0005:0000000e       __3583F86A_defaultslider@cpp 000000000060fc0e     defaultslider.obj
 0005:0000000f       __01134C0B_defaultviews@cpp 000000000060fc0f     defaultviews.obj
 0005:00000010       __1541B850_defaultwindow@cpp 000000000060fc10     defaultwindow.obj
 0005:00000011       __8442CD95_icon@cpp        000000000060fc11     icon.obj
 0005:00000012       __3696D17C_list@cpp        000000000060fc12     list.obj
 0005:00000013       __BFB48363_menu@cpp        000000000060fc13     menu.obj
 0005:00000014       __3CE9219F_menubar@cpp     000000000060fc14     menubar.obj
 0005:00000015       __C131C5F2_msgbox@cpp      000000000060fc15     msgbox.obj
 0005:00000016       __BC327A75_progress@cpp    000000000060fc16     progress.obj
 0005:00000017       __FE86E1CA_scrollpane@cpp  000000000060fc17     scrollpane.obj
 0005:00000018       __165EE5C6_slider@cpp      000000000060fc18     slider.obj
 0005:00000019       __49C267C9_view@cpp        000000000060fc19     view.obj
 0005:0000001a       __369CA5FC_window@cpp      000000000060fc1a     window.obj
 0006:00000000       .edata                     000000000060fe00     chlkha.exp
 0006:00000028       rgpv                       000000000060fe28     chlkha.exp
 0006:00000210       rgszName                   0000000000610010     chlkha.exp
 0006:000003f8       rgwOrd                     00000000006101f8     chlkha.exp
 0006:000004ec       szName                     00000000006102ec     chlkha.exp
 0006:000004f7       $N00001                    00000000006102f7     chlkha.exp
 0006:00000508       $N00002                    0000000000610308     chlkha.exp
 0006:00000512       $N00003                    0000000000610312     chlkha.exp
 0006:0000051f       $N00004                    000000000061031f     chlkha.exp
 0006:00000534       $N00005                    0000000000610334     chlkha.exp
 0006:00000546       $N00006                    0000000000610346     chlkha.exp
 0006:00000559       $N00007                    0000000000610359     chlkha.exp
 0006:00000577       $N00008                    0000000000610377     chlkha.exp
 0006:00000593       $N00009                    0000000000610393     chlkha.exp
 0006:000005a2       $N00010                    00000000006103a2     chlkha.exp
 0006:000005b1       $N00011                    00000000006103b1     chlkha.exp
 0006:000005c6       $N00012                    00000000006103c6     chlkha.exp
 0006:000005d3       $N00013                    00000000006103d3     chlkha.exp
 0006:000005e4       $N00014                    00000000006103e4     chlkha.exp
 0006:000005f5       $N00015                    00000000006103f5     chlkha.exp
 0006:00000605       $N00016                    0000000000610405     chlkha.exp
 0006:00000618       $N00017                    0000000000610418     chlkha.exp
 0006:0000062b       $N00018                    000000000061042b     chlkha.exp
 0006:0000063d       $N00019                    000000000061043d     chlkha.exp
 0006:00000651       $N00020                    0000000000610451     chlkha.exp
 0006:00000665       $N00021                    0000000000610465     chlkha.exp
 0006:00000678       $N00022                    0000000000610478     chlkha.exp
 0006:00000687       $N00023                    0000000000610487     chlkha.exp
 0006:00000696       $N00024                    0000000000610496     chlkha.exp
 0006:000006a9       $N00025                    00000000006104a9     chlkha.exp
 0006:000006be       $N00026                    00000000006104be     chlkha.exp
 0006:000006d1       $N00027                    00000000006104d1     chlkha.exp
 0006:000006e6       $N00028                    00000000006104e6     chlkha.exp
 0006:000006f1       $N00029                    00000000006104f1     chlkha.exp
 0006:00000703       $N00030                    0000000000610503     chlkha.exp
 0006:0000070e       $N00031                    000000000061050e     chlkha.exp
 0006:0000071a       $N00032                    000000000061051a     chlkha.exp
 0006:00000725       $N00033                    0000000000610525     chlkha.exp
 0006:00000737       $N00034                    0000000000610537     chlkha.exp
 0006:0000074a       $N00035                    000000000061054a     chlkha.exp
 0006:00000764       $N00036                    0000000000610564     chlkha.exp
 0006:00000777       $N00037                    0000000000610577     chlkha.exp
 0006:00000783       $N00038                    0000000000610583     chlkha.exp
 0006:00000792       $N00039                    0000000000610592     chlkha.exp
 0006:000007a1       $N00040                    00000000006105a1     chlkha.exp
 0006:000007b7       $N00041                    00000000006105b7     chlkha.exp
 0006:000007c7       $N00042                    00000000006105c7     chlkha.exp
 0006:000007db       $N00043                    00000000006105db     chlkha.exp
 0006:000007ea       $N00044                    00000000006105ea     chlkha.exp
 0006:000007fd       $N00045                    00000000006105fd     chlkha.exp
 0006:0000080b       $N00046                    000000000061060b     chlkha.exp
 0006:00000816       $N00047                    0000000000610616     chlkha.exp
 0006:0000082f       $N00048                    000000000061062f     chlkha.exp
 0006:00000846       $N00049                    0000000000610646     chlkha.exp
 0006:00000855       $N00050                    0000000000610655     chlkha.exp
 0006:00000869       $N00051                    0000000000610669     chlkha.exp
 0006:0000087d       $N00052                    000000000061067d     chlkha.exp
 0006:0000088f       $N00053                    000000000061068f     chlkha.exp
 0006:000008a3       $N00054                    00000000006106a3     chlkha.exp
 0006:000008ae       $N00055                    00000000006106ae     chlkha.exp
 0006:000008b9       $N00056                    00000000006106b9     chlkha.exp
 0006:000008ca       $N00057                    00000000006106ca     chlkha.exp
 0006:000008dc       $N00058                    00000000006106dc     chlkha.exp
 0006:000008ec       $N00059                    00000000006106ec     chlkha.exp
 0006:00000906       $N00060                    0000000000610706     chlkha.exp
 0006:00000918       $N00061                    0000000000610718     chlkha.exp
 0006:00000932       $N00062                    0000000000610732     chlkha.exp
 0006:0000094a       $N00063                    000000000061074a     chlkha.exp
 0006:0000095e       $N00064                    000000000061075e     chlkha.exp
 0006:00000969       $N00065                    0000000000610769     chlkha.exp
 0006:00000974       $N00066                    0000000000610774     chlkha.exp
 0006:00000987       $N00067                    0000000000610787     chlkha.exp
 0006:00000998       $N00068                    0000000000610798     chlkha.exp
 0006:000009b1       $N00069                    00000000006107b1     chlkha.exp
 0006:000009c3       $N00070                    00000000006107c3     chlkha.exp
 0006:000009d5       $N00071                    00000000006107d5     chlkha.exp
 0006:000009e9       $N00072                    00000000006107e9     chlkha.exp
 0006:00000a05       $N00073                    0000000000610805     chlkha.exp
 0006:00000a14       $N00074                    0000000000610814     chlkha.exp
 0006:00000a28       $N00075                    0000000000610828     chlkha.exp
 0006:00000a3c       $N00076                    000000000061083c     chlkha.exp
 0006:00000a50       $N00077                    0000000000610850     chlkha.exp
 0006:00000a64       $N00078                    0000000000610864     chlkha.exp
 0006:00000a7a       $N00079                    000000000061087a     chlkha.exp
 0006:00000a99       $N00080                    0000000000610899     chlkha.exp
 0006:00000ab6       $N00081                    00000000006108b6     chlkha.exp
 0006:00000ace       $N00082                    00000000006108ce     chlkha.exp
 0006:00000add       $N00083                    00000000006108dd     chlkha.exp
 0006:00000aec       $N00084                    00000000006108ec     chlkha.exp
 0006:00000b00       $N00085                    0000000000610900     chlkha.exp
 0006:00000b0f       $N00086                    000000000061090f     chlkha.exp
 0006:00000b1e       $N00087                    000000000061091e     chlkha.exp
 0006:00000b32       $N00088                    0000000000610932     chlkha.exp
 0006:00000b43       $N00089                    0000000000610943     chlkha.exp
 0006:00000b58       $N00090                    0000000000610958     chlkha.exp
 0006:00000b6a       $N00091                    000000000061096a     chlkha.exp
 0006:00000b80       $N00092                    0000000000610980     chlkha.exp
 0006:00000b94       $N00093                    0000000000610994     chlkha.exp
 0006:00000baf       $N00094                    00000000006109af     chlkha.exp
 0006:00000bc3       $N00095                    00000000006109c3     chlkha.exp
 0006:00000bd7       $N00096                    00000000006109d7     chlkha.exp
 0006:00000be4       $N00097                    00000000006109e4     chlkha.exp
 0006:00000bf2       $N00098                    00000000006109f2     chlkha.exp
 0006:00000c07       $N00099                    0000000000610a07     chlkha.exp
 0006:00000c18       $N00100                    0000000000610a18     chlkha.exp
 0006:00000c2b       $N00101                    0000000000610a2b     chlkha.exp
 0006:00000c3a       $N00102                    0000000000610a3a     chlkha.exp
 0006:00000c4c       $N00103                    0000000000610a4c     chlkha.exp
 0006:00000c63       $N00104                    0000000000610a63     chlkha.exp
 0006:00000c78       $N00105                    0000000000610a78     chlkha.exp
 0006:00000c8e       $N00106                    0000000000610a8e     chlkha.exp
 0006:00000ca5       $N00107                    0000000000610aa5     chlkha.exp
 0006:00000cba       $N00108                    0000000000610aba     chlkha.exp
 0006:00000cd0       $N00109                    0000000000610ad0     chlkha.exp
 0006:00000ce7       $N00110                    0000000000610ae7     chlkha.exp
 0006:00000cfd       $N00111                    0000000000610afd     chlkha.exp
 0006:00000d13       $N00112                    0000000000610b13     chlkha.exp
 0006:00000d27       $N00113                    0000000000610b27     chlkha.exp
 0006:00000d3e       $N00114                    0000000000610b3e     chlkha.exp
 0006:00000d5a       $N00115                    0000000000610b5a     chlkha.exp
 0006:00000d75       $N00116                    0000000000610b75     chlkha.exp
 0006:00000d87       $N00117                    0000000000610b87     chlkha.exp
 0006:00000d8d       $N00118                    0000000000610b8d     chlkha.exp
 0006:00000d9d       $N00119                    0000000000610b9d     chlkha.exp
 0006:00000da6       $N00120                    0000000000610ba6     chlkha.exp
 0006:00000db5       $N00121                    0000000000610bb5     chlkha.exp
 0006:00000dc1       $N00122                    0000000000610bc1     chlkha.exp
 0007:00000340       .idata$6                   0000000000610f40     XEClib:XEClib.dll
 0007:000003de       .idata$6                   0000000000610fde     ftype:ftype.dll

 Exports

  ordinal    name

        1    ChAllocateBuffer
        2    ChBoxBlur
        3    ChCanvasFill
        4    ChCanvasScreenUpdate
        5    ChColorAlphaBlend
        6    ChColorAlphaBlend2
        7    ChColorDrawHorizontalGradient
        8    ChColorDrawVerticalGradient
        9    ChCreateButton
       10    ChCreateCanvas
       11    ChCreateGlobalButton
       12    ChCreateIcon
       13    ChCreateListView
       14    ChCreateMenuItem
       15    ChCreateMenubar
       16    ChCreateMenubutton
       17    ChCreateMessageBox
       18    ChCreatePopupMenu
       19    ChCreatePopupWindow
       20    ChCreateProgressBar
       21    ChCreateScrollPane
       22    ChCreateSlider
       23    ChCreateWindow
       24    ChDeAllocateBuffer
       25    ChDrawCircleUnfilled
       26    ChDrawFilledCircle
       27    ChDrawHorizontalLine
       28    ChDrawIcon
       29    ChDrawIconClipped
       30    ChDrawLine
       31    ChDrawPixel
       32    ChDrawRect
       33    ChDrawRectClipped
       34    ChDrawRectUnfilled
       35    ChDrawRectUnfilledClipped
       36    ChDrawVerticalLine
       37    ChFontClose
       38    ChFontDrawChar
       39    ChFontDrawText
       40    ChFontDrawTextClipped
       41    ChFontGetHeight
       42    ChFontGetHeightChar
       43    ChFontGetWidth
       44    ChFontGetWidthChar
       45    ChFontSetSize
       46    ChGetPixel
       47    ChGetPopupWindowByHandle
       48    ChGetScreenAspectRatio
       49    ChGetScreenDPI
       50    ChGetScreenDiagonal
       51    ChGetWindowByHandle
       52    ChGetWindowHandle
       53    ChIconGetSystemIcon
       54    ChIconOpen
       55    ChIconRead
       56    ChInitialiseFont
       57    ChListViewAddItem
       58    ChListViewClear
       59    ChListViewGetSelectedItem
       60    ChListViewRepaint
       61    ChListViewSetListItemIcon
       62    ChListViewSetScrollpane
       63    ChMenuButtonAddMenu
       64    ChMenuHide
       65    ChMenuShow
       66    ChMenubarAddButton
       67    ChMessageBoxShow
       68    ChPopupWindowHandleMouse
       69    ChPopupWindowHide
       70    ChPopupWindowShow
       71    ChPopupWindowUpdate
       72    ChPopupWindowUpdateLocation
       73    ChPrintLibName
       74    ChProgressBarGetMax
       75    ChProgressBarGetMin
       76    ChProgressBarSetMax
       77    ChProgressBarSetMin
       78    ChProgressBarSetValue
       79    ChScrollUpdateHorizontalScroll
       80    ChScrollUpdateVerticalScroll
       81    ChSliderGetCurrentValue
       82    ChSliderGetMax
       83    ChSliderGetMin
       84    ChSliderGetStepSize
       85    ChSliderSetMax
       86    ChSliderSetMin
       87    ChSliderSetStepSize
       88    ChSliderSetValue
       89    ChWindowAddSubWindow
       90    ChWindowAddWidget
       91    ChWindowBroadcastIcon
       92    ChWindowCloseWindow
       93    ChWindowGetBackgroundColor
       94    ChWindowHandleFocus
       95    ChWindowHandleMouse
       96    ChWindowHide
       97    ChWindowPaint
       98    ChWindowRegisterJump
       99    ChWindowSetFlags
      100    ChWindowSetFocused
      101    ChWindowUpdate
      102    ChitralekhaGetApp
      103    ChitralekhaGetKeyPress
      104    ChitralekhaKeyGetAlt
      105    ChitralekhaKeyGetCTRL
      106    ChitralekhaKeyGetShift
      107    ChitralekhaKeySetAlt
      108    ChitralekhaKeySetCtrl
      109    ChitralekhaKeySetShift
      110    ChitralekhaKeyToASCII
      111    ChitralekhaProcessKey
      112    ChitralekhaStartApp
      113    ChitralekhaStartSubApp
      114    DeodhaiAudioCloseConnection
      115    DeodhaiAudioOpenConnection
      116    DeodhaiAudioWrite
      117    clamp
      118    initialize_list
      119    list_add
      120    list_clear_all
      121    list_get_at
      122    list_remove
