 XEClib

 Timestamp is 6682eee0 (Mon Jul  1 23:31:04 2024)

 Preferred load address is 0000000000600000

 Start         Length     Name                   Class
 0001:00000000 00000690H .text                   CODE
 0001:00000690 00000100H .text$di                CODE
 0001:00000790 00008a70H .text$mn                CODE
 0001:00009200 0000007dH .text$yd                CODE
 0002:00000000 00000198H .rdata                  DATA
 0002:00000198 00000020H .rdata$voltmd           DATA
 0002:000001b8 00000108H .rdata$zzzdbg           DATA
 0002:000002c0 00000954H .xdata                  DATA
 0003:00000000 00000090H .data                   DATA
 0003:00000090 000001c4H .bss                    DATA
 0004:00000000 00000954H .pdata                  DATA
 0005:00000000 00000016H .msvcjmc                DATA
 0006:00000000 00000020H .CRT$XCU                DATA
 0007:00000000 00000ddbH .edata                  DATA

  Address         Publics by Value              Rva+Base               Lib:Object

 0000:00000000       __guard_iat_count          0000000000000000     <absolute>
 0000:00000000       __guard_fids_count         0000000000000000     <absolute>
 0000:00000000       __arm64x_extra_rfe_table   0000000000000000     <absolute>
 0000:00000000       __arm64x_redirection_metadata 0000000000000000     <absolute>
 0000:00000000       __x64_code_ranges_to_entry_points_count 0000000000000000     <absolute>
 0000:00000000       __guard_iat_table          0000000000000000     <absolute>
 0000:00000000       __hybrid_code_map_count    0000000000000000     <absolute>
 0000:00000000       __hybrid_code_map          0000000000000000     <absolute>
 0000:00000000       ___safe_se_handler_table   0000000000000000     <absolute>
 0000:00000000       __arm64x_native_entrypoint 0000000000000000     <absolute>
 0000:00000000       __arm64x_extra_rfe_table_size 0000000000000000     <absolute>
 0000:00000000       ___safe_se_handler_count   0000000000000000     <absolute>
 0000:00000000       __guard_longjmp_count      0000000000000000     <absolute>
 0000:00000000       __dynamic_value_reloc_table 0000000000000000     <absolute>
 0000:00000000       __hybrid_auxiliary_iat     0000000000000000     <absolute>
 0000:00000000       __guard_fids_table         0000000000000000     <absolute>
 0000:00000000       __guard_eh_cont_table      0000000000000000     <absolute>
 0000:00000000       __hybrid_auxiliary_iat_copy 0000000000000000     <absolute>
 0000:00000000       __guard_longjmp_table      0000000000000000     <absolute>
 0000:00000000       __x64_code_ranges_to_entry_points 0000000000000000     <absolute>
 0000:00000000       __enclave_config           0000000000000000     <absolute>
 0000:00000000       __arm64x_redirection_metadata_count 0000000000000000     <absolute>
 0000:00000000       __guard_check_icall_a64n_fptr 0000000000000000     <absolute>
 0000:00000000       __AbsoluteZero             0000000000000000     <absolute>
 0000:00000000       __guard_eh_cont_count      0000000000000000     <absolute>
 0000:00000100       __guard_flags              0000000000000100     <absolute>
 0000:00000000       __ImageBase                0000000000600000     <linker-defined>
 0001:00000000       setjmp                     0000000000600400     setjmp.obj
 0001:0000002d       longjmp                    000000000060042d     setjmp.obj
 0001:00000060       __chkstk                   0000000000600460     _callbase.obj
 0001:00000061       _KePrint                   0000000000600461     _callbase.obj
 0001:00000076       _KePauseThread             0000000000600476     _callbase.obj
 0001:00000096       _KeGetThreadID             0000000000600496     _callbase.obj
 0001:000000b6       _KeGetProcessID            00000000006004b6     _callbase.obj
 0001:000000d6       _KeProcessExit             00000000006004d6     _callbase.obj
 0001:000000f6       _KeProcessWaitForTermination 00000000006004f6     _callbase.obj
 0001:00000113       _KeCreateProcess           0000000000600513     _callbase.obj
 0001:0000012d       _KeProcessLoadExec         000000000060052d     _callbase.obj
 0001:00000142       _KeProcessSleep            0000000000600542     _callbase.obj
 0001:0000015f       _KeSetSignal               000000000060055f     _callbase.obj
 0001:0000017c       _KeCreateSharedMem         000000000060057c     _callbase.obj
 0001:00000193       _KeObtainSharedMem         0000000000600593     _callbase.obj
 0001:000001aa       _KeUnmapSharedMem          00000000006005aa     _callbase.obj
 0001:000001c7       _KeMemMap                  00000000006005c7     _callbase.obj
 0001:000001df       _KeMemUnmap                00000000006005df     _callbase.obj
 0001:000001fc       _KeGetProcessHeapMem       00000000006005fc     _callbase.obj
 0001:0000021c       _KeOpenFile                000000000060061c     _callbase.obj
 0001:00000239       _KeReadFile                0000000000600639     _callbase.obj
 0001:00000253       _KeWriteFile               0000000000600653     _callbase.obj
 0001:0000026d       _KeCreateDir               000000000060066d     _callbase.obj
 0001:0000028d       _KeRemoveFile              000000000060068d     _callbase.obj
 0001:000002ad       _KeCloseFile               00000000006006ad     _callbase.obj
 0001:000002cd       _KeFileIoControl           00000000006006cd     _callbase.obj
 0001:000002e7       _KeFileStat                00000000006006e7     _callbase.obj
 0001:00000304       _KeGetSystemTimerTick      0000000000600704     _callbase.obj
 0001:00000327       _KeGetFontID               0000000000600727     _callbase.obj
 0001:00000347       _KeGetNumFonts             0000000000600747     _callbase.obj
 0001:0000036a       _KeGetFontSize             000000000060076a     _callbase.obj
 0001:0000038a       _KeMemMapDirty             000000000060078a     _callbase.obj
 0001:000003a2       _KeCreateTTY               00000000006007a2     _callbase.obj
 0001:000003bf       _KeCreateThread            00000000006007bf     _callbase.obj
 0001:000003dc       _KeSetFileToProcess        00000000006007dc     _callbase.obj
 0001:000003f6       _KeProcessHeapUnmap        00000000006007f6     _callbase.obj
 0001:00000413       _KeSendSignal              0000000000600813     _callbase.obj
 0001:00000430       _KeGetCurrentTime          0000000000600830     _callbase.obj
 0001:00000450       _KeOpenDir                 0000000000600850     _callbase.obj
 0001:00000470       _KeReadDir                 0000000000600870     _callbase.obj
 0001:0000048d       _KeCreateTimer             000000000060088d     _callbase.obj
 0001:000004a7       _KeStartTimer              00000000006008a7     _callbase.obj
 0001:000004c7       _KeStopTimer               00000000006008c7     _callbase.obj
 0001:000004e7       _KeDestroyTimer            00000000006008e7     _callbase.obj
 0001:00000507       _KeProcessGetFileDesc      0000000000600907     _callbase.obj
 0001:00000527       _KeFileSetOffset           0000000000600927     _callbase.obj
 0001:00000544       gettimeofday               0000000000600944     _callbase.obj
 0001:00000564       socket                     0000000000600964     _callbase.obj
 0001:0000057e       connect                    000000000060097e     _callbase.obj
 0001:00000598       send                       0000000000600998     _callbase.obj
 0001:000005b2       receive                    00000000006009b2     _callbase.obj
 0001:000005cc       socket_setopt              00000000006009cc     _callbase.obj
 0001:000005e4       bind                       00000000006009e4     _callbase.obj
 0001:000005fe       accept                     00000000006009fe     _callbase.obj
 0001:00000618       listen                     0000000000600a18     _callbase.obj
 0001:00000635       _KeCreatePipe              0000000000600a35     _callbase.obj
 0001:00000652       _KeGetStorageDiskInfo      0000000000600a52     _callbase.obj
 0001:0000066f       _KeGetStoragePartitionInfo 0000000000600a6f     _callbase.obj
 0001:00000790       ??0?$basic_ios@DU?$char_traits@D@std@@@std@@IEAA@XZ 0000000000600b90 f i ios.obj
 0001:000007c0       ??0Init@ios_base@std@@QEAA@XZ 0000000000600bc0 f   ios.obj
 0001:000008a0       ??0ios_base@std@@IEAA@XZ   0000000000600ca0 f   ios.obj
 0001:000008d0       ??1Init@ios_base@std@@QEAA@XZ 0000000000600cd0 f   ios.obj
 0001:00000900       ??4?$basic_istream@DU?$char_traits@D@std@@@std@@QEAAAEAV01@AEBV01@@Z 0000000000600d00 f i ios.obj
 0001:00000920       ??4?$basic_ostream@DU?$char_traits@D@std@@@std@@QEAAAEAV01@AEBV01@@Z 0000000000600d20 f i ios.obj
 0001:00000940       __JustMyCode_Default       0000000000600d40 f i ios.obj
 0001:00000940       __CheckForDebuggerJustMyCode 0000000000600d40 f i ios.obj
 0001:00000950       ??0?$basic_istream@DU?$char_traits@D@std@@@std@@QEAA@PEAV?$basic_streambuf@DU?$char_traits@D@std@@@1@@Z 0000000000600d50 f i istream.obj
 0001:000009a0       ??1?$basic_istream@DU?$char_traits@D@std@@@std@@UEAA@XZ 0000000000600da0 f i istream.obj
 0001:000009d0       ??5?$basic_istream@DU?$char_traits@D@std@@@std@@QEAAAEAV01@AEAD@Z 0000000000600dd0 f   istream.obj
 0001:00000a10       ??5?$basic_istream@DU?$char_traits@D@std@@@std@@QEAAAEAV01@PEAD@Z 0000000000600e10 f   istream.obj
 0001:00000a90       ??_G?$basic_istream@DU?$char_traits@D@std@@@std@@UEAAPEAXI@Z 0000000000600e90 f i istream.obj
 0001:00000a90       ??_E?$basic_istream@DU?$char_traits@D@std@@@std@@UEAAPEAXI@Z 0000000000600e90 f i istream.obj
 0001:00000ad0       ??0?$allocator@D@std@@QEAA@AEBV01@@Z 0000000000600ed0 f i memory.obj
 0001:00000b00       ??0?$allocator@D@std@@QEAA@XZ 0000000000600f00 f i memory.obj
 0001:00000b30       ??1?$allocator@D@std@@QEAA@XZ 0000000000600f30 f i memory.obj
 0001:00000b60       ?address@?$allocator@D@std@@QEBAPEADAEAD@Z 0000000000600f60 f i memory.obj
 0001:00000b90       ?address@?$allocator@D@std@@QEBAPEBDAEBD@Z 0000000000600f90 f i memory.obj
 0001:00000bc0       ?allocate@?$allocator@D@std@@QEBAPEAD_KPEBX@Z 0000000000600fc0 f i memory.obj
 0001:00000c00       ?deallocate@?$allocator@D@std@@QEBAXPEAD_K@Z 0000000000601000 f i memory.obj
 0001:00000c50       ?max_size@?$allocator@D@std@@QEBA_KXZ 0000000000601050 f i memory.obj
 0001:00000c80       ??0?$basic_ostream@DU?$char_traits@D@std@@@std@@QEAA@PEAV?$basic_streambuf@DU?$char_traits@D@std@@@1@@Z 0000000000601080 f i ostream.obj
 0001:00000cd0       ??1?$basic_ostream@DU?$char_traits@D@std@@@std@@UEAA@XZ 00000000006010d0 f i ostream.obj
 0001:00000d00       ??6?$basic_ostream@DU?$char_traits@D@std@@@std@@QEAAAEAV01@D@Z 0000000000601100 f   ostream.obj
 0001:00000d30       ??6?$basic_ostream@DU?$char_traits@D@std@@@std@@QEAAAEAV01@P6AAEAV01@AEAV01@@Z@Z 0000000000601130 f i ostream.obj
 0001:00000d60       ??6?$basic_ostream@DU?$char_traits@D@std@@@std@@QEAAAEAV01@PEBD@Z 0000000000601160 f   ostream.obj
 0001:00000d90       ??_G?$basic_ostream@DU?$char_traits@D@std@@@std@@UEAAPEAXI@Z 0000000000601190 f i ostream.obj
 0001:00000d90       ??_E?$basic_ostream@DU?$char_traits@D@std@@@std@@UEAAPEAXI@Z 0000000000601190 f i ostream.obj
 0001:00000dd0       ?endl@std@@YAAEAV?$basic_ostream@DU?$char_traits@D@std@@@1@AEAV21@@Z 00000000006011d0 f   ostream.obj
 0001:00000e00       ??$?5DU?$char_traits@D@std@@@std@@YAAEAV?$basic_istream@DU?$char_traits@D@std@@@0@AEAV10@AEAV?$basic_string@DU?$char_traits@D@std@@V?$allocator@D@2@@0@@Z 0000000000601200 f   _string.obj
 0001:00000e50       ??$?6DU?$char_traits@D@std@@@std@@YAAEAV?$basic_ostream@DU?$char_traits@D@std@@@0@AEAV10@AEBV?$basic_string@DU?$char_traits@D@std@@V?$allocator@D@2@@0@@Z 0000000000601250 f   _string.obj
 0001:00001020       ??0?$basic_string@DU?$char_traits@D@std@@V?$allocator@D@2@@std@@QEAA@AEBV?$allocator@D@1@@Z 0000000000601420 f i _string.obj
 0001:00001080       ??0?$basic_string@DU?$char_traits@D@std@@V?$allocator@D@2@@std@@QEAA@PEBDAEBV?$allocator@D@1@@Z 0000000000601480 f i _string.obj
 0001:00001100       ??4?$basic_string@DU?$char_traits@D@std@@V?$allocator@D@2@@std@@QEAAAEAV01@AEBV01@@Z 0000000000601500 f i _string.obj
 0001:00001180       ??4?$basic_string@DU?$char_traits@D@std@@V?$allocator@D@2@@std@@QEAAAEAV01@D@Z 0000000000601580 f i _string.obj
 0001:00001210       ??4?$basic_string@DU?$char_traits@D@std@@V?$allocator@D@2@@std@@QEAAAEAV01@PEBD@Z 0000000000601610 f i _string.obj
 0001:00001290       ?c_str@?$basic_string@DU?$char_traits@D@std@@V?$allocator@D@2@@std@@QEBAPEBDXZ 0000000000601690 f i _string.obj
 0001:000012c0       ?length@?$basic_string@DU?$char_traits@D@std@@V?$allocator@D@2@@std@@QEBA_KXZ 00000000006016c0 f i _string.obj
 0001:000012f0       ?size@?$basic_string@DU?$char_traits@D@std@@V?$allocator@D@2@@std@@QEBA_KXZ 00000000006016f0 f i _string.obj
 0001:00001320       ?isalnum@@YAHH@Z           0000000000601720 f   ctype.obj
 0001:00001370       ?isgraph@@YAHH@Z           0000000000601770 f   ctype.obj
 0001:000013b0       ?ispunct@@YAHH@Z           00000000006017b0 f   ctype.obj
 0001:00001400       isalpha                    0000000000601800 f   ctype.obj
 0001:00001480       isascii                    0000000000601880 f   ctype.obj
 0001:000014c0       isdigit                    00000000006018c0 f   ctype.obj
 0001:00001500       islower                    0000000000601900 f   ctype.obj
 0001:00001540       isprint                    0000000000601940 f   ctype.obj
 0001:00001590       isspace                    0000000000601990 f   ctype.obj
 0001:000015f0       isupper                    00000000006019f0 f   ctype.obj
 0001:00001630       isxdigit                   0000000000601a30 f   ctype.obj
 0001:00001690       tolower                    0000000000601a90 f   ctype.obj
 0001:000016d0       toupper                    0000000000601ad0 f   ctype.obj
 0001:000017a0       ceil                       0000000000601ba0 f   math.obj
 0001:00001810       cos                        0000000000601c10 f   math.obj
 0001:00001a10       cosf                       0000000000601e10 f   math.obj
 0001:00001c00       fabs                       0000000000602000 f   math.obj
 0001:00001c50       fabsf                      0000000000602050 f   math.obj
 0001:00001ca0       floor                      00000000006020a0 f   math.obj
 0001:00001cd0       floorf                     00000000006020d0 f   math.obj
 0001:00001d00       fmod                       0000000000602100 f   math.obj
 0001:00001d80       frexp                      0000000000602180 f   math.obj
 0001:00001e10       modf                       0000000000602210 f   math.obj
 0001:00001e70       pow                        0000000000602270 f   math.obj
 0001:00001f20       sin                        0000000000602320 f   math.obj
 0001:00002130       sinf                       0000000000602530 f   math.obj
 0001:00002330       sqrt                       0000000000602730 f   math.obj
 0001:00002430       sqrtf                      0000000000602830 f   math.obj
 0001:00002460       tan                        0000000000602860 f   math.obj
 0001:000024b0       tanf                       00000000006028b0 f   math.obj
 0001:00002730       qsort                      0000000000602b30 f   qsort.obj
 0001:000027b0       mkdir                      0000000000602bb0 f   stat.obj
 0001:000027f0       stat                       0000000000602bf0 f   stat.obj
 0001:00002820       fclose                     0000000000602c20 f   stdio.obj
 0001:00002890       fflush                     0000000000602c90 f   stdio.obj
 0001:000028c0       fgetc                      0000000000602cc0 f   stdio.obj
 0001:00002930       fopen                      0000000000602d30 f   stdio.obj
 0001:00002af0       fprintf                    0000000000602ef0 f   stdio.obj
 0001:00002bb0       fputc                      0000000000602fb0 f   stdio.obj
 0001:00002c30       fputs                      0000000000603030 f   stdio.obj
 0001:00002c90       fread                      0000000000603090 f   stdio.obj
 0001:00002d70       fseek                      0000000000603170 f   stdio.obj
 0001:00002e70       ftell                      0000000000603270 f   stdio.obj
 0001:00002ea0       fwrite                     00000000006032a0 f   stdio.obj
 0001:00002fc0       getchar                    00000000006033c0 f   stdio.obj
 0001:00003010       printf                     0000000000603410 f   stdio.obj
 0001:000030b0       putchar                    00000000006034b0 f   stdio.obj
 0001:000030e0       puts                       00000000006034e0 f   stdio.obj
 0001:00003140       remove                     0000000000603540 f   stdio.obj
 0001:00003170       rename                     0000000000603570 f   stdio.obj
 0001:000031a0       scanf                      00000000006035a0 f   stdio.obj
 0001:000031e0       snprintf                   00000000006035e0 f   stdio.obj
 0001:00003250       sprintf                    0000000000603650 f   stdio.obj
 0001:000032b0       sscanf                     00000000006036b0 f   stdio.obj
 0001:000032f0       vfprintf                   00000000006036f0 f   stdio.obj
 0001:000033b0       vprintf                    00000000006037b0 f   stdio.obj
 0001:00003450       vsnprintf                  0000000000603850 f   stdio.obj
 0001:000034e0       vsprintf                   00000000006038e0 f   stdio.obj
 0001:000039c0       abort                      0000000000603dc0 f   stdlib.obj
 0001:000039f0       abs                        0000000000603df0 f   stdlib.obj
 0001:00003a30       atexit                     0000000000603e30 f   stdlib.obj
 0001:00003a60       atof                       0000000000603e60 f   stdlib.obj
 0001:00003a90       atoi                       0000000000603e90 f   stdlib.obj
 0001:00003b60       exit                       0000000000603f60 f   stdlib.obj
 0001:00003b90       getenv                     0000000000603f90 f   stdlib.obj
 0001:00003bc0       itoa_s                     0000000000603fc0 f   stdlib.obj
 0001:00003c30       mblen                      0000000000604030 f   stdlib.obj
 0001:00003de0       mbstowcs                   00000000006041e0 f   stdlib.obj
 0001:00003ed0       mbtowc                     00000000006042d0 f   stdlib.obj
 0001:00003f50       rand                       0000000000604350 f   stdlib.obj
 0001:00003f80       strtol                     0000000000604380 f   stdlib.obj
 0001:00004280       strtoul                    0000000000604680 f   stdlib.obj
 0001:00004550       sztoa                      0000000000604950 f   stdlib.obj
 0001:00004670       wcstombs                   0000000000604a70 f   stdlib.obj
 0001:00004740       wctomb                     0000000000604b40 f   stdlib.obj
 0001:000047b0       ?memcpy@@YAPEAXPEAX0I@Z    0000000000604bb0 f   string.obj
 0001:00004830       ?memset@@YAXPEAXEI@Z       0000000000604c30 f   string.obj
 0001:00004890       bcopy                      0000000000604c90 f   string.obj
 0001:00004910       bzero                      0000000000604d10 f   string.obj
 0001:00004950       ffs                        0000000000604d50 f   string.obj
 0001:000049b0       memchr                     0000000000604db0 f   string.obj
 0001:00004a40       memcmp                     0000000000604e40 f   string.obj
 0001:00004af0       memcpy                     0000000000604ef0 f   string.obj
 0001:00004b70       memmove                    0000000000604f70 f   string.obj
 0001:00004ba0       memset                     0000000000604fa0 f   string.obj
 0001:00004c10       strcasecmp                 0000000000605010 f   string.obj
 0001:00004c90       strcasestr                 0000000000605090 f   string.obj
 0001:00004d40       strcat                     0000000000605140 f   string.obj
 0001:00004e00       strchr                     0000000000605200 f   string.obj
 0001:00004e60       strcmp                     0000000000605260 f   string.obj
 0001:00004ef0       strcpy                     00000000006052f0 f   string.obj
 0001:00004f60       strdup                     0000000000605360 f   string.obj
 0001:00005000       strerror                   0000000000605400 f   string.obj
 0001:00005030       strlen                     0000000000605430 f   string.obj
 0001:00005090       strncasecmp                0000000000605490 f   string.obj
 0001:00005200       strncat                    0000000000605600 f   string.obj
 0001:000052f0       strncmp                    00000000006056f0 f   string.obj
 0001:00005390       strncpy                    0000000000605790 f   string.obj
 0001:00005450       strnlen                    0000000000605850 f   string.obj
 0001:000054f0       strrchr                    00000000006058f0 f   string.obj
 0001:00005580       strspn                     0000000000605980 f   string.obj
 0001:00005620       strstr                     0000000000605a20 f   string.obj
 0001:000056b0       strtok                     0000000000605ab0 f   string.obj
 0001:00005850       strtok_r                   0000000000605c50 f   string.obj
 0001:00005bd0       ?heap_initialize_allocator@@YAXXZ 0000000000605fd0 f   _heap.obj
 0001:00006020       calloc                     0000000000606420 f   _heap.obj
 0001:00006080       free                       0000000000606480 f   _heap.obj
 0001:00006210       liballoc_alloc             0000000000606610 f   _heap.obj
 0001:00006250       liballoc_free              0000000000606650 f   _heap.obj
 0001:00006290       liballoc_lock              0000000000606690 f   _heap.obj
 0001:000062b0       liballoc_unlock            00000000006066b0 f   _heap.obj
 0001:000062d0       malloc                     00000000006066d0 f   _heap.obj
 0001:000064a0       realloc                    00000000006068a0 f   _heap.obj
 0001:00006570       ??2@YAPEAX_K@Z             0000000000606970 f   _xeneva.obj
 0001:000065a0       ??3@YAXPEAX@Z              00000000006069a0 f   _xeneva.obj
 0001:000065d0       ??3@YAXPEAX_K@Z            00000000006069d0 f   _xeneva.obj
 0001:00006600       ??_U@YAPEAX_K@Z            0000000000606a00 f   _xeneva.obj
 0001:00006630       ??_V@YAXPEAX@Z             0000000000606a30 f   _xeneva.obj
 0001:00006660       _dbl2str                   0000000000606a60 f   _xeprint.obj
 0001:000069f0       _digits                    0000000000606df0 f   _xeprint.obj
 0001:00006a70       _flt2str                   0000000000606e70 f   _xeprint.obj
 0001:00006d60       _ldigits                   0000000000607160 f   _xeprint.obj
 0001:00006e00       _lnum2str                  0000000000607200 f   _xeprint.obj
 0001:00006fb0       _num2str                   00000000006073b0 f   _xeprint.obj
 0001:00007100       _str2num                   0000000000607500 f   _xeprint.obj
 0001:000074a0       _xeprint                   00000000006078a0 f   _xeprint.obj
 0001:00008190       strtod                     0000000000608590 f   _xeprint.obj
 0001:00008470       strtof                     0000000000608870 f   _xeprint.obj
 0001:000084b0       ?dayOfWeek@@YAHIII@Z       00000000006088b0 f   time.obj
 0001:00008560       asctime                    0000000000608960 f   time.obj
 0001:000085a0       clock                      00000000006089a0 f   time.obj
 0001:000085d0       ctime                      00000000006089d0 f   time.obj
 0001:00008630       difftime                   0000000000608a30 f   time.obj
 0001:00008670       gmtime                     0000000000608a70 f   time.obj
 0001:000088e0       mktime                     0000000000608ce0 f   time.obj
 0001:00008aa0       time                       0000000000608ea0 f   time.obj
 0001:00008ad0       _xeinput                   0000000000608ed0 f   _xeinput.obj
 0002:00000000       ??_7?$basic_istream@DU?$char_traits@D@std@@@std@@6B@ 0000000000609800     istream.obj
 0002:00000008       ??_7?$basic_ostream@DU?$char_traits@D@std@@@std@@6B@ 0000000000609808     ostream.obj
 0002:00000010       __real@00000000            0000000000609810     math.obj
 0002:00000018       __real@0000000000000000    0000000000609818     math.obj
 0002:00000020       __real@3f800000            0000000000609820     math.obj
 0002:00000028       __real@3fe0000000000000    0000000000609828     math.obj
 0002:00000030       __real@3ff0000000000000    0000000000609830     math.obj
 0002:00000038       __real@40000000            0000000000609838     math.obj
 0002:00000040       __real@4000000000000000    0000000000609840     math.obj
 0002:00000048       __real@4008000000000000    0000000000609848     math.obj
 0002:00000050       __real@401921fb54442d18    0000000000609850     math.obj
 0002:00000058       __real@402e000000000000    0000000000609858     math.obj
 0002:00000060       __real@41200000            0000000000609860     math.obj
 0002:00000064       __real@bf800000            0000000000609864     math.obj
 0002:00000068       __real@bff0000000000000    0000000000609868     math.obj
 0002:00000070       __real@c01921fb54442d18    0000000000609870     math.obj
 0002:00000078       ??_C@_01KDCPPGHE@r@        0000000000609878     stdio.obj
 0002:0000007c       ??_C@_01NOFIACDB@w@        000000000060987c     stdio.obj
 0002:00000080       ??_C@_01MCMALHOG@a@        0000000000609880     stdio.obj
 0002:00000084       ??_C@_02CBLLGHLK@r?$CL@    0000000000609884     stdio.obj
 0002:00000088       ??_C@_02CHHAKFFB@w?$CL@    0000000000609888     stdio.obj
 0002:00000090       ??_C@_0BH@DIFEAGMI@FOPEN?5opening?5?$CFs?5?$CFd?5?$AN?6@ 0000000000609890     stdio.obj
 0002:000000a8       ??_C@_0BJ@LCHDDOOF@Reading?5fopen?5fread?5?$CFd?$AN?6@ 00000000006098a8     stdio.obj
 0002:000000c8       ??_C@_0BB@OFPMNFHB@Seeking?5?9?$DO?5?$CFd?5?$AN?6@ 00000000006098c8     stdio.obj
 0002:000000dc       ??_C@_01EEMJAFIK@?6@       00000000006098dc     stdio.obj
 0002:000000e0       ??_C@_0BB@JGGOGLEG@0123456789ABCDEF@ 00000000006098e0     stdlib.obj
 0002:000000f8       ??_C@_0O@MPIOBANB@Exiting?5app?5?6@ 00000000006098f8     stdlib.obj
 0002:00000108       ??_C@_0BF@CCNKCALD@Not?5implemented?5yet?4@ 0000000000609908     string.obj
 0002:00000120       ??_C@_08KEBCLIFP@Infinity@ 0000000000609920     _xeprint.obj
 0002:0000012c       ??_C@_06LHGEHABH@?$CINULL?$CJ@ 000000000060992c     _xeprint.obj
 0002:00000138       __real@3fb999999999999a    0000000000609938     _xeprint.obj
 0002:00000140       __real@4024000000000000    0000000000609940     _xeprint.obj
 0002:00000178       ??_C@_02MDDDDAID@0x@       0000000000609978     _xeinput.obj
 0002:00000198       __volatile_metadata        0000000000609998     <linker-defined>
 0003:00000050       _fltused                   000000000060a650     _xeneva.obj
 0003:00000090       ?refCount@Init@ios_base@std@@0HA 000000000060a690     ios.obj
 0003:00000098       ?cout@std@@3V?$basic_ostream@DU?$char_traits@D@std@@@1@A 000000000060a698     iostream.obj
 0003:000000a0       ?cin@std@@3V?$basic_istream@DU?$char_traits@D@std@@@1@A 000000000060a6a0     iostream.obj
 0003:000000a8       ?clog@std@@3V?$basic_ostream@DU?$char_traits@D@std@@@1@A 000000000060a6a8     iostream.obj
 0003:000000b0       ?cerr@std@@3V?$basic_ostream@DU?$char_traits@D@std@@@1@A 000000000060a6b0     iostream.obj
 0003:000000b8       ?errno@@3HA                000000000060a6b8     errno.obj
 0003:000000d0       ?l_freePages@@3PAPEAUboundary_tag@@A 000000000060a6d0     _heap.obj
 0003:000001d0       ?l_completePages@@3PAHA    000000000060a7d0     _heap.obj

 entry point at        0000:00000000

 Static symbols

 0000:00000000       .debug$S                   0000000000600000     XEClib.exp
 0001:00000690       ??__Ecerr@std@@YAXXZ       0000000000600a90 f   iostream.obj
 0001:000006d0       ??__Ecin@std@@YAXXZ        0000000000600ad0 f   iostream.obj
 0001:00000710       ??__Eclog@std@@YAXXZ       0000000000600b10 f   iostream.obj
 0001:00000750       ??__Ecout@std@@YAXXZ       0000000000600b50 f   iostream.obj
 0001:00000e90       ??$stringAlloc@DV?$allocator@D@std@@D_K@@YAPEADPEBDAEBV?$allocator@D@std@@AEA_K@Z 0000000000601290 f   _string.obj
 0001:00000f60       ??$stringFree@DV?$allocator@D@std@@_K@@YAXAEAPEADAEBV?$allocator@D@std@@AEA_K@Z 0000000000601360 f   _string.obj
 0001:00000fd0       ??$stringLen@D_K@@YA_KPEBD@Z 00000000006013d0 f   _string.obj
 0001:00001710       ?norm2@@YAHPEAN@Z          0000000000601b10 f   math.obj
 0001:00002500       ?partition@@YAHPEAUSortableArray@@HH@Z 0000000000602900 f   qsort.obj
 0001:000026b0       ?quicksort@@YAXPEAUSortableArray@@HH@Z 0000000000602ab0 f   qsort.obj
 0001:00003540       ?unicodeToUtf8Char@@YAXIPEAEI@Z 0000000000603940 f   stdlib.obj
 0001:000036f0       ?utf8CharToUnicode@@YAIPEBDI@Z 0000000000603af0 f   stdlib.obj
 0001:00003950       ?utf8CodeWidth@@YAII@Z     0000000000603d50 f   stdlib.obj
 0001:00005a00       ?absorb_right@@YAPEAUboundary_tag@@PEAU1@@Z 0000000000605e00 f   _heap.obj
 0001:00005a80       ?allocate_new_tag@@YAPEAUboundary_tag@@I@Z 0000000000605e80 f   _heap.obj
 0001:00005b60       ?getexp@@YAHI@Z            0000000000605f60 f   _heap.obj
 0001:00005bf0       ?insert_tag@@YAXPEAUboundary_tag@@H@Z 0000000000605ff0 f   _heap.obj
 0001:00005cb0       ?liballoc_memcpy@@YAPEAXPEAXPEBX_K@Z 00000000006060b0 f   _heap.obj
 0001:00005d90       ?liballoc_memset@@YAPEAXPEAXH_K@Z 0000000000606190 f   _heap.obj
 0001:00005df0       ?melt_left@@YAPEAUboundary_tag@@PEAU1@@Z 00000000006061f0 f   _heap.obj
 0001:00005e70       ?remove_tag@@YAXPEAUboundary_tag@@@Z 0000000000606270 f   _heap.obj
 0001:00005f30       ?split_tag@@YAPEAUboundary_tag@@PEAU1@@Z 0000000000606330 f   _heap.obj
 0001:0000745c       $LN50                      000000000060785c     _xeprint.obj
 0001:00008110       $LN110                     0000000000608510     _xeprint.obj
 0001:00008150       $LN109                     0000000000608550     _xeprint.obj
 0001:000091ac       $LN55                      00000000006095ac     _xeinput.obj
 0001:000091d4       $LN54                      00000000006095d4     _xeinput.obj
 0001:00009200       ??__Fcerr@std@@YAXXZ       0000000000609600 f   iostream.obj
 0001:00009220       ??__Fcin@std@@YAXXZ        0000000000609620 f   iostream.obj
 0001:00009240       ??__Fclog@std@@YAXXZ       0000000000609640 f   iostream.obj
 0001:00009260       ??__Fcout@std@@YAXXZ       0000000000609660 f   iostream.obj
 0002:00000148       ?monthDays@?1??mktime@@9@4QBHB 0000000000609948     time.obj
 0002:000002c0       $unwind$??0Init@ios_base@std@@QEAA@XZ 0000000000609ac0     ios.obj
 0002:000002cc       $unwind$??1Init@ios_base@std@@QEAA@XZ 0000000000609acc     ios.obj
 0002:000002d8       $unwind$??0ios_base@std@@IEAA@XZ 0000000000609ad8     ios.obj
 0002:000002e4       $unwind$??0?$basic_ios@DU?$char_traits@D@std@@@std@@IEAA@XZ 0000000000609ae4     ios.obj
 0002:000002f0       $unwind$??4?$basic_istream@DU?$char_traits@D@std@@@std@@QEAAAEAV01@AEBV01@@Z 0000000000609af0     ios.obj
 0002:000002fc       $unwind$??4?$basic_ostream@DU?$char_traits@D@std@@@std@@QEAAAEAV01@AEBV01@@Z 0000000000609afc     ios.obj
 0002:00000308       $unwind$??__Ecin@std@@YAXXZ 0000000000609b08     iostream.obj
 0002:00000314       $unwind$??__Fcin@std@@YAXXZ 0000000000609b14     iostream.obj
 0002:00000320       $unwind$??__Ecout@std@@YAXXZ 0000000000609b20     iostream.obj
 0002:0000032c       $unwind$??__Fcout@std@@YAXXZ 0000000000609b2c     iostream.obj
 0002:00000338       $unwind$??__Ecerr@std@@YAXXZ 0000000000609b38     iostream.obj
 0002:00000344       $unwind$??__Fcerr@std@@YAXXZ 0000000000609b44     iostream.obj
 0002:00000350       $unwind$??__Eclog@std@@YAXXZ 0000000000609b50     iostream.obj
 0002:0000035c       $unwind$??__Fclog@std@@YAXXZ 0000000000609b5c     iostream.obj
 0002:00000368       $unwind$??0?$basic_istream@DU?$char_traits@D@std@@@std@@QEAA@PEAV?$basic_streambuf@DU?$char_traits@D@std@@@1@@Z 0000000000609b68     istream.obj
 0002:00000374       $unwind$??1?$basic_istream@DU?$char_traits@D@std@@@std@@UEAA@XZ 0000000000609b74     istream.obj
 0002:00000380       $unwind$??5?$basic_istream@DU?$char_traits@D@std@@@std@@QEAAAEAV01@AEAD@Z 0000000000609b80     istream.obj
 0002:0000038c       $unwind$??5?$basic_istream@DU?$char_traits@D@std@@@std@@QEAAAEAV01@PEAD@Z 0000000000609b8c     istream.obj
 0002:00000398       $unwind$??_G?$basic_istream@DU?$char_traits@D@std@@@std@@UEAAPEAXI@Z 0000000000609b98     istream.obj
 0002:000003a4       $unwind$??0?$allocator@D@std@@QEAA@XZ 0000000000609ba4     memory.obj
 0002:000003b0       $unwind$??0?$allocator@D@std@@QEAA@AEBV01@@Z 0000000000609bb0     memory.obj
 0002:000003bc       $unwind$??1?$allocator@D@std@@QEAA@XZ 0000000000609bbc     memory.obj
 0002:000003c8       $unwind$?address@?$allocator@D@std@@QEBAPEADAEAD@Z 0000000000609bc8     memory.obj
 0002:000003d4       $unwind$?address@?$allocator@D@std@@QEBAPEBDAEBD@Z 0000000000609bd4     memory.obj
 0002:000003e0       $unwind$?allocate@?$allocator@D@std@@QEBAPEAD_KPEBX@Z 0000000000609be0     memory.obj
 0002:000003ec       $unwind$?deallocate@?$allocator@D@std@@QEBAXPEAD_K@Z 0000000000609bec     memory.obj
 0002:000003f8       $unwind$?max_size@?$allocator@D@std@@QEBA_KXZ 0000000000609bf8     memory.obj
 0002:00000404       $unwind$?endl@std@@YAAEAV?$basic_ostream@DU?$char_traits@D@std@@@1@AEAV21@@Z 0000000000609c04     ostream.obj
 0002:00000410       $unwind$??0?$basic_ostream@DU?$char_traits@D@std@@@std@@QEAA@PEAV?$basic_streambuf@DU?$char_traits@D@std@@@1@@Z 0000000000609c10     ostream.obj
 0002:0000041c       $unwind$??1?$basic_ostream@DU?$char_traits@D@std@@@std@@UEAA@XZ 0000000000609c1c     ostream.obj
 0002:00000428       $unwind$??6?$basic_ostream@DU?$char_traits@D@std@@@std@@QEAAAEAV01@D@Z 0000000000609c28     ostream.obj
 0002:00000434       $unwind$??6?$basic_ostream@DU?$char_traits@D@std@@@std@@QEAAAEAV01@PEBD@Z 0000000000609c34     ostream.obj
 0002:00000440       $unwind$??6?$basic_ostream@DU?$char_traits@D@std@@@std@@QEAAAEAV01@P6AAEAV01@AEAV01@@Z@Z 0000000000609c40     ostream.obj
 0002:0000044c       $unwind$??_G?$basic_ostream@DU?$char_traits@D@std@@@std@@UEAAPEAXI@Z 0000000000609c4c     ostream.obj
 0002:00000458       $unwind$??$?5DU?$char_traits@D@std@@@std@@YAAEAV?$basic_istream@DU?$char_traits@D@std@@@0@AEAV10@AEAV?$basic_string@DU?$char_traits@D@std@@V?$allocator@D@2@@0@@Z 0000000000609c58     _string.obj
 0002:00000464       $unwind$??0?$basic_string@DU?$char_traits@D@std@@V?$allocator@D@2@@std@@QEAA@AEBV?$allocator@D@1@@Z 0000000000609c64     _string.obj
 0002:00000470       $unwind$??0?$basic_string@DU?$char_traits@D@std@@V?$allocator@D@2@@std@@QEAA@PEBDAEBV?$allocator@D@1@@Z 0000000000609c70     _string.obj
 0002:0000047c       $unwind$?c_str@?$basic_string@DU?$char_traits@D@std@@V?$allocator@D@2@@std@@QEBAPEBDXZ 0000000000609c7c     _string.obj
 0002:00000488       $unwind$?length@?$basic_string@DU?$char_traits@D@std@@V?$allocator@D@2@@std@@QEBA_KXZ 0000000000609c88     _string.obj
 0002:00000494       $unwind$??4?$basic_string@DU?$char_traits@D@std@@V?$allocator@D@2@@std@@QEAAAEAV01@AEBV01@@Z 0000000000609c94     _string.obj
 0002:000004a0       $unwind$??4?$basic_string@DU?$char_traits@D@std@@V?$allocator@D@2@@std@@QEAAAEAV01@PEBD@Z 0000000000609ca0     _string.obj
 0002:000004ac       $unwind$??4?$basic_string@DU?$char_traits@D@std@@V?$allocator@D@2@@std@@QEAAAEAV01@D@Z 0000000000609cac     _string.obj
 0002:000004b8       $unwind$?size@?$basic_string@DU?$char_traits@D@std@@V?$allocator@D@2@@std@@QEBA_KXZ 0000000000609cb8     _string.obj
 0002:000004c4       $unwind$??$?6DU?$char_traits@D@std@@@std@@YAAEAV?$basic_ostream@DU?$char_traits@D@std@@@0@AEAV10@AEBV?$basic_string@DU?$char_traits@D@std@@V?$allocator@D@2@@0@@Z 0000000000609cc4     _string.obj
 0002:000004d0       $unwind$??$stringAlloc@DV?$allocator@D@std@@D_K@@YAPEADPEBDAEBV?$allocator@D@std@@AEA_K@Z 0000000000609cd0     _string.obj
 0002:000004dc       $unwind$??$stringFree@DV?$allocator@D@std@@_K@@YAXAEAPEADAEBV?$allocator@D@std@@AEA_K@Z 0000000000609cdc     _string.obj
 0002:000004e8       $unwind$??$stringLen@D_K@@YA_KPEBD@Z 0000000000609ce8     _string.obj
 0002:000004f4       $unwind$isspace            0000000000609cf4     ctype.obj
 0002:00000500       $unwind$isascii            0000000000609d00     ctype.obj
 0002:0000050c       $unwind$isupper            0000000000609d0c     ctype.obj
 0002:00000518       $unwind$islower            0000000000609d18     ctype.obj
 0002:00000524       $unwind$isalpha            0000000000609d24     ctype.obj
 0002:00000530       $unwind$isdigit            0000000000609d30     ctype.obj
 0002:0000053c       $unwind$isxdigit           0000000000609d3c     ctype.obj
 0002:00000548       $unwind$isprint            0000000000609d48     ctype.obj
 0002:00000554       $unwind$toupper            0000000000609d54     ctype.obj
 0002:00000560       $unwind$tolower            0000000000609d60     ctype.obj
 0002:0000056c       $unwind$?isgraph@@YAHH@Z   0000000000609d6c     ctype.obj
 0002:00000578       $unwind$?isalnum@@YAHH@Z   0000000000609d78     ctype.obj
 0002:00000584       $unwind$?ispunct@@YAHH@Z   0000000000609d84     ctype.obj
 0002:00000590       $unwind$ceil               0000000000609d90     math.obj
 0002:0000059c       $unwind$cos                0000000000609d9c     math.obj
 0002:000005a8       $unwind$cosf               0000000000609da8     math.obj
 0002:000005b4       $unwind$fabs               0000000000609db4     math.obj
 0002:000005c0       $unwind$fabsf              0000000000609dc0     math.obj
 0002:000005cc       $unwind$floor              0000000000609dcc     math.obj
 0002:000005d8       $unwind$floorf             0000000000609dd8     math.obj
 0002:000005e4       $unwind$fmod               0000000000609de4     math.obj
 0002:000005f0       $unwind$modf               0000000000609df0     math.obj
 0002:000005fc       $unwind$pow                0000000000609dfc     math.obj
 0002:00000608       $unwind$sin                0000000000609e08     math.obj
 0002:00000614       $unwind$sinf               0000000000609e14     math.obj
 0002:00000620       $unwind$sqrt               0000000000609e20     math.obj
 0002:0000062c       $unwind$sqrtf              0000000000609e2c     math.obj
 0002:00000638       $unwind$tan                0000000000609e38     math.obj
 0002:00000644       $unwind$tanf               0000000000609e44     math.obj
 0002:00000650       $unwind$frexp              0000000000609e50     math.obj
 0002:0000065c       $unwind$?norm2@@YAHPEAN@Z  0000000000609e5c     math.obj
 0002:00000668       $unwind$qsort              0000000000609e68     qsort.obj
 0002:00000674       $unwind$?partition@@YAHPEAUSortableArray@@HH@Z 0000000000609e74     qsort.obj
 0002:00000680       $unwind$?quicksort@@YAXPEAUSortableArray@@HH@Z 0000000000609e80     qsort.obj
 0002:0000068c       $unwind$mkdir              0000000000609e8c     stat.obj
 0002:00000698       $unwind$stat               0000000000609e98     stat.obj
 0002:000006a4       $unwind$fprintf            0000000000609ea4     stdio.obj
 0002:000006b0       $unwind$printf             0000000000609eb0     stdio.obj
 0002:000006bc       $unwind$fopen              0000000000609ebc     stdio.obj
 0002:000006c8       $unwind$fread              0000000000609ec8     stdio.obj
 0002:000006d4       $unwind$fwrite             0000000000609ed4     stdio.obj
 0002:000006e0       $unwind$ftell              0000000000609ee0     stdio.obj
 0002:000006ec       $unwind$fseek              0000000000609eec     stdio.obj
 0002:000006f8       $unwind$fgetc              0000000000609ef8     stdio.obj
 0002:00000704       $unwind$fclose             0000000000609f04     stdio.obj
 0002:00000710       $unwind$fflush             0000000000609f10     stdio.obj
 0002:0000071c       $unwind$fputc              0000000000609f1c     stdio.obj
 0002:00000728       $unwind$fputs              0000000000609f28     stdio.obj
 0002:00000734       $unwind$puts               0000000000609f34     stdio.obj
 0002:00000740       $unwind$vfprintf           0000000000609f40     stdio.obj
 0002:0000074c       $unwind$vsnprintf          0000000000609f4c     stdio.obj
 0002:00000758       $unwind$vsprintf           0000000000609f58     stdio.obj
 0002:00000764       $unwind$vprintf            0000000000609f64     stdio.obj
 0002:00000770       $unwind$sprintf            0000000000609f70     stdio.obj
 0002:0000077c       $unwind$snprintf           0000000000609f7c     stdio.obj
 0002:00000788       $unwind$getchar            0000000000609f88     stdio.obj
 0002:00000794       $unwind$remove             0000000000609f94     stdio.obj
 0002:000007a0       $unwind$rename             0000000000609fa0     stdio.obj
 0002:000007ac       $unwind$putchar            0000000000609fac     stdio.obj
 0002:000007b8       $unwind$scanf              0000000000609fb8     stdio.obj
 0002:000007c4       $unwind$sscanf             0000000000609fc4     stdio.obj
 0002:000007d0       $unwind$atexit             0000000000609fd0     stdlib.obj
 0002:000007dc       $unwind$atoi               0000000000609fdc     stdlib.obj
 0002:000007e8       $unwind$atof               0000000000609fe8     stdlib.obj
 0002:000007f4       $unwind$abs                0000000000609ff4     stdlib.obj
 0002:00000800       $unwind$mblen              000000000060a000     stdlib.obj
 0002:0000080c       $unwind$mbstowcs           000000000060a00c     stdlib.obj
 0002:00000818       $unwind$mbtowc             000000000060a018     stdlib.obj
 0002:00000824       $unwind$rand               000000000060a024     stdlib.obj
 0002:00000830       $unwind$wcstombs           000000000060a030     stdlib.obj
 0002:0000083c       $unwind$wctomb             000000000060a03c     stdlib.obj
 0002:00000848       $unwind$sztoa              000000000060a048     stdlib.obj
 0002:00000854       $unwind$getenv             000000000060a054     stdlib.obj
 0002:00000860       $unwind$exit               000000000060a060     stdlib.obj
 0002:0000086c       $unwind$strtol             000000000060a06c     stdlib.obj
 0002:00000878       $unwind$strtoul            000000000060a078     stdlib.obj
 0002:00000884       $unwind$itoa_s             000000000060a084     stdlib.obj
 0002:00000890       $unwind$abort              000000000060a090     stdlib.obj
 0002:0000089c       $unwind$?utf8CharToUnicode@@YAIPEBDI@Z 000000000060a09c     stdlib.obj
 0002:000008a8       $unwind$?utf8CodeWidth@@YAII@Z 000000000060a0a8     stdlib.obj
 0002:000008b4       $unwind$?unicodeToUtf8Char@@YAXIPEAEI@Z 000000000060a0b4     stdlib.obj
 0002:000008c0       $unwind$strcmp             000000000060a0c0     string.obj
 0002:000008cc       $unwind$strcpy             000000000060a0cc     string.obj
 0002:000008d8       $unwind$strlen             000000000060a0d8     string.obj
 0002:000008e4       $unwind$strnlen            000000000060a0e4     string.obj
 0002:000008f0       $unwind$strncmp            000000000060a0f0     string.obj
 0002:000008fc       $unwind$strncpy            000000000060a0fc     string.obj
 0002:00000908       $unwind$strchr             000000000060a108     string.obj
 0002:00000914       $unwind$strcasecmp         000000000060a114     string.obj
 0002:00000920       $unwind$strncasecmp        000000000060a120     string.obj
 0002:0000092c       $unwind$strcasestr         000000000060a12c     string.obj
 0002:00000938       $unwind$strcat             000000000060a138     string.obj
 0002:00000944       $unwind$strncat            000000000060a144     string.obj
 0002:00000950       $unwind$strdup             000000000060a150     string.obj
 0002:0000095c       $unwind$strerror           000000000060a15c     string.obj
 0002:00000968       $unwind$strrchr            000000000060a168     string.obj
 0002:00000974       $unwind$strspn             000000000060a174     string.obj
 0002:00000980       $unwind$strtok             000000000060a180     string.obj
 0002:0000098c       $unwind$strtok_r           000000000060a18c     string.obj
 0002:00000998       $unwind$strstr             000000000060a198     string.obj
 0002:000009a4       $unwind$memset             000000000060a1a4     string.obj
 0002:000009b0       $unwind$memcpy             000000000060a1b0     string.obj
 0002:000009bc       $unwind$memcmp             000000000060a1bc     string.obj
 0002:000009c8       $unwind$bcopy              000000000060a1c8     string.obj
 0002:000009d4       $unwind$bzero              000000000060a1d4     string.obj
 0002:000009e0       $unwind$ffs                000000000060a1e0     string.obj
 0002:000009ec       $unwind$memmove            000000000060a1ec     string.obj
 0002:000009f8       $unwind$memchr             000000000060a1f8     string.obj
 0002:00000a04       $unwind$?memset@@YAXPEAXEI@Z 000000000060a204     string.obj
 0002:00000a10       $unwind$?memcpy@@YAPEAXPEAX0I@Z 000000000060a210     string.obj
 0002:00000a1c       $unwind$liballoc_lock      000000000060a21c     _heap.obj
 0002:00000a28       $unwind$liballoc_unlock    000000000060a228     _heap.obj
 0002:00000a34       $unwind$liballoc_alloc     000000000060a234     _heap.obj
 0002:00000a40       $unwind$liballoc_free      000000000060a240     _heap.obj
 0002:00000a4c       $unwind$malloc             000000000060a24c     _heap.obj
 0002:00000a58       $unwind$realloc            000000000060a258     _heap.obj
 0002:00000a64       $unwind$calloc             000000000060a264     _heap.obj
 0002:00000a70       $unwind$free               000000000060a270     _heap.obj
 0002:00000a7c       $unwind$?getexp@@YAHI@Z    000000000060a27c     _heap.obj
 0002:00000a88       $unwind$?liballoc_memset@@YAPEAXPEAXH_K@Z 000000000060a288     _heap.obj
 0002:00000a94       $unwind$?liballoc_memcpy@@YAPEAXPEAXPEBX_K@Z 000000000060a294     _heap.obj
 0002:00000aa0       $unwind$?insert_tag@@YAXPEAUboundary_tag@@H@Z 000000000060a2a0     _heap.obj
 0002:00000aac       $unwind$?remove_tag@@YAXPEAUboundary_tag@@@Z 000000000060a2ac     _heap.obj
 0002:00000ab8       $unwind$?melt_left@@YAPEAUboundary_tag@@PEAU1@@Z 000000000060a2b8     _heap.obj
 0002:00000ac4       $unwind$?absorb_right@@YAPEAUboundary_tag@@PEAU1@@Z 000000000060a2c4     _heap.obj
 0002:00000ad0       $unwind$?split_tag@@YAPEAUboundary_tag@@PEAU1@@Z 000000000060a2d0     _heap.obj
 0002:00000adc       $unwind$?allocate_new_tag@@YAPEAUboundary_tag@@I@Z 000000000060a2dc     _heap.obj
 0002:00000ae8       $unwind$?heap_initialize_allocator@@YAXXZ 000000000060a2e8     _heap.obj
 0002:00000af4       $unwind$??2@YAPEAX_K@Z     000000000060a2f4     _xeneva.obj
 0002:00000b00       $unwind$??3@YAXPEAX@Z      000000000060a300     _xeneva.obj
 0002:00000b0c       $unwind$??3@YAXPEAX_K@Z    000000000060a30c     _xeneva.obj
 0002:00000b18       $unwind$??_U@YAPEAX_K@Z    000000000060a318     _xeneva.obj
 0002:00000b24       $unwind$??_V@YAXPEAX@Z     000000000060a324     _xeneva.obj
 0002:00000b30       $unwind$_ldigits           000000000060a330     _xeprint.obj
 0002:00000b3c       $unwind$_digits            000000000060a33c     _xeprint.obj
 0002:00000b48       $unwind$_str2num           000000000060a348     _xeprint.obj
 0002:00000b54       $unwind$_lnum2str          000000000060a354     _xeprint.obj
 0002:00000b60       $unwind$_dbl2str           000000000060a360     _xeprint.obj
 0002:00000b6c       $unwind$_num2str           000000000060a36c     _xeprint.obj
 0002:00000b78       $unwind$_flt2str           000000000060a378     _xeprint.obj
 0002:00000b84       $unwind$strtod             000000000060a384     _xeprint.obj
 0002:00000b90       $unwind$strtof             000000000060a390     _xeprint.obj
 0002:00000b9c       $unwind$_xeprint           000000000060a39c     _xeprint.obj
 0002:00000ba8       $unwind$asctime            000000000060a3a8     time.obj
 0002:00000bb4       $unwind$clock              000000000060a3b4     time.obj
 0002:00000bc0       $unwind$ctime              000000000060a3c0     time.obj
 0002:00000bcc       $unwind$difftime           000000000060a3cc     time.obj
 0002:00000bd8       $unwind$gmtime             000000000060a3d8     time.obj
 0002:00000be4       $unwind$mktime             000000000060a3e4     time.obj
 0002:00000bf0       $unwind$time               000000000060a3f0     time.obj
 0002:00000bfc       $unwind$?dayOfWeek@@YAHIII@Z 000000000060a3fc     time.obj
 0002:00000c08       $unwind$_xeinput           000000000060a408     _xeinput.obj
 0003:00000000       ?xtable@@3PAHA             000000000060a600     math.obj
 0003:00000040       ?chars@@3PEADEA            000000000060a640     stdlib.obj
 0003:00000048       ?l_pageSize@@3HA           000000000060a648     _heap.obj
 0003:0000004c       ?l_pageCount@@3HA          000000000060a64c     _heap.obj
 0003:00000058       ?monthDays@?1??gmtime@@9@4PAHA 000000000060a658     time.obj
 0003:000000c0       ?saveptr@@3PEADEA          000000000060a6c0     string.obj
 0003:00000250       ?l_initialized@@3HA        000000000060a850     _heap.obj
 0005:00000000       __A686FF0D_istream         000000000060b400     ios.obj
 0005:00000001       __C556CA37_ostream         000000000060b401     ios.obj
 0005:00000002       __B120116C_ios@cpp         000000000060b402     ios.obj
 0005:00000003       __CF11FDE7_iostream@cpp    000000000060b403     iostream.obj
 0005:00000004       __58E0DEEB_istream@cpp     000000000060b404     istream.obj
 0005:00000005       __E511F070_memory@cpp      000000000060b405     memory.obj
 0005:00000006       __B05514A8_ostream@cpp     000000000060b406     ostream.obj
 0005:00000007       __E4799FB4__string@cpp     000000000060b407     _string.obj
 0005:00000008       __154AF896_string          000000000060b408     _string.obj
 0005:00000009       __5EC8455E_ctype@cpp       000000000060b409     ctype.obj
 0005:0000000a       __8F66BEF3_math@cpp        000000000060b40a     math.obj
 0005:0000000b       __C27D907D_qsort@cpp       000000000060b40b     qsort.obj
 0005:0000000c       __25BAC728_stat@cpp        000000000060b40c     stat.obj
 0005:0000000d       __9A68B1D3_stdio@cpp       000000000060b40d     stdio.obj
 0005:0000000e       __F9184CDB_utf@h           000000000060b40e     stdlib.obj
 0005:0000000f       __21397ED8_stdlib@cpp      000000000060b40f     stdlib.obj
 0005:00000010       __1C30D61B_string@cpp      000000000060b410     string.obj
 0005:00000011       __C5E4CA7D__heap@cpp       000000000060b411     _heap.obj
 0005:00000012       __FADD7D54__xeneva@cpp     000000000060b412     _xeneva.obj
 0005:00000013       __F88DB9FB__xeprint@cpp    000000000060b413     _xeprint.obj
 0005:00000014       __03344D76_time@cpp        000000000060b414     time.obj
 0005:00000015       __48AD42F0__xeinput@cpp    000000000060b415     _xeinput.obj
 0006:00000000       ?cin$initializer$@std@@3P6AXXZEA 000000000060b600     iostream.obj
 0006:00000008       ?cout$initializer$@std@@3P6AXXZEA 000000000060b608     iostream.obj
 0006:00000010       ?cerr$initializer$@std@@3P6AXXZEA 000000000060b610     iostream.obj
 0006:00000018       ?clog$initializer$@std@@3P6AXXZEA 000000000060b618     iostream.obj
 0007:00000000       .edata                     000000000060b800     XEClib.exp
 0007:00000028       rgpv                       000000000060b828     XEClib.exp
 0007:000002f4       rgszName                   000000000060baf4     XEClib.exp
 0007:000005c0       rgwOrd                     000000000060bdc0     XEClib.exp
 0007:00000726       szName                     000000000060bf26     XEClib.exp
 0007:00000731       $N00001                    000000000060bf31     XEClib.exp
 0007:0000073e       $N00002                    000000000060bf3e     XEClib.exp
 0007:0000074b       $N00003                    000000000060bf4b     XEClib.exp
 0007:00000759       $N00004                    000000000060bf59     XEClib.exp
 0007:0000076a       $N00005                    000000000060bf6a     XEClib.exp
 0007:0000077d       $N00006                    000000000060bf7d     XEClib.exp
 0007:0000078a       $N00007                    000000000060bf8a     XEClib.exp
 0007:0000079a       $N00008                    000000000060bf9a     XEClib.exp
 0007:000007a9       $N00009                    000000000060bfa9     XEClib.exp
 0007:000007b9       $N00010                    000000000060bfb9     XEClib.exp
 0007:000007ca       $N00011                    000000000060bfca     XEClib.exp
 0007:000007db       $N00012                    000000000060bfdb     XEClib.exp
 0007:000007e7       $N00013                    000000000060bfe7     XEClib.exp
 0007:000007f9       $N00014                    000000000060bff9     XEClib.exp
 0007:00000806       $N00015                    000000000060c006     XEClib.exp
 0007:00000815       $N00016                    000000000060c015     XEClib.exp
 0007:00000824       $N00017                    000000000060c024     XEClib.exp
 0007:00000839       $N00018                    000000000060c039     XEClib.exp
 0007:00000849       $N00019                    000000000060c049     XEClib.exp
 0007:0000085f       $N00020                    000000000060c05f     XEClib.exp
 0007:0000087a       $N00021                    000000000060c07a     XEClib.exp
 0007:00000890       $N00022                    000000000060c090     XEClib.exp
 0007:0000089f       $N00023                    000000000060c09f     XEClib.exp
 0007:000008a9       $N00024                    000000000060c0a9     XEClib.exp
 0007:000008b8       $N00025                    000000000060c0b8     XEClib.exp
 0007:000008c4       $N00026                    000000000060c0c4     XEClib.exp
 0007:000008d7       $N00027                    000000000060c0d7     XEClib.exp
 0007:000008e2       $N00028                    000000000060c0e2     XEClib.exp
 0007:000008ee       $N00029                    000000000060c0ee     XEClib.exp
 0007:000008fd       $N00030                    000000000060c0fd     XEClib.exp
 0007:00000906       $N00031                    000000000060c106     XEClib.exp
 0007:00000915       $N00032                    000000000060c115     XEClib.exp
 0007:0000092b       $N00033                    000000000060c12b     XEClib.exp
 0007:0000093f       $N00034                    000000000060c13f     XEClib.exp
 0007:00000952       $N00035                    000000000060c152     XEClib.exp
 0007:00000962       $N00036                    000000000060c162     XEClib.exp
 0007:0000097f       $N00037                    000000000060c17f     XEClib.exp
 0007:0000098a       $N00038                    000000000060c18a     XEClib.exp
 0007:00000996       $N00039                    000000000060c196     XEClib.exp
 0007:000009a4       $N00040                    000000000060c1a4     XEClib.exp
 0007:000009b2       $N00041                    000000000060c1b2     XEClib.exp
 0007:000009c6       $N00042                    000000000060c1c6     XEClib.exp
 0007:000009d3       $N00043                    000000000060c1d3     XEClib.exp
 0007:000009e1       $N00044                    000000000060c1e1     XEClib.exp
 0007:000009ee       $N00045                    000000000060c1ee     XEClib.exp
 0007:00000a00       $N00046                    000000000060c200     XEClib.exp
 0007:00000a0d       $N00047                    000000000060c20d     XEClib.exp
 0007:00000a16       $N00048                    000000000060c216     XEClib.exp
 0007:00000a1e       $N00049                    000000000060c21e     XEClib.exp
 0007:00000a27       $N00050                    000000000060c227     XEClib.exp
 0007:00000a30       $N00051                    000000000060c230     XEClib.exp
 0007:00000a3a       $N00052                    000000000060c23a     XEClib.exp
 0007:00000a43       $N00053                    000000000060c243     XEClib.exp
 0007:00000a4c       $N00054                    000000000060c24c     XEClib.exp
 0007:00000a52       $N00055                    000000000060c252     XEClib.exp
 0007:00000a56       $N00056                    000000000060c256     XEClib.exp
 0007:00000a5d       $N00057                    000000000060c25d     XEClib.exp
 0007:00000a65       $N00058                    000000000060c265     XEClib.exp
 0007:00000a6a       $N00059                    000000000060c26a     XEClib.exp
 0007:00000a6f       $N00060                    000000000060c26f     XEClib.exp
 0007:00000a75       $N00061                    000000000060c275     XEClib.exp
 0007:00000a7a       $N00062                    000000000060c27a     XEClib.exp
 0007:00000a80       $N00063                    000000000060c280     XEClib.exp
 0007:00000a87       $N00064                    000000000060c287     XEClib.exp
 0007:00000a8c       $N00065                    000000000060c28c     XEClib.exp
 0007:00000a92       $N00066                    000000000060c292     XEClib.exp
 0007:00000a9a       $N00067                    000000000060c29a     XEClib.exp
 0007:00000a9e       $N00068                    000000000060c29e     XEClib.exp
 0007:00000aa3       $N00069                    000000000060c2a3     XEClib.exp
 0007:00000aa9       $N00070                    000000000060c2a9     XEClib.exp
 0007:00000ab2       $N00071                    000000000060c2b2     XEClib.exp
 0007:00000ab7       $N00072                    000000000060c2b7     XEClib.exp
 0007:00000abc       $N00073                    000000000060c2bc     XEClib.exp
 0007:00000ac2       $N00074                    000000000060c2c2     XEClib.exp
 0007:00000ac9       $N00075                    000000000060c2c9     XEClib.exp
 0007:00000ad0       $N00076                    000000000060c2d0     XEClib.exp
 0007:00000ad4       $N00077                    000000000060c2d4     XEClib.exp
 0007:00000ada       $N00078                    000000000060c2da     XEClib.exp
 0007:00000ae0       $N00079                    000000000060c2e0     XEClib.exp
 0007:00000ae7       $N00080                    000000000060c2e7     XEClib.exp
 0007:00000aec       $N00081                    000000000060c2ec     XEClib.exp
 0007:00000af2       $N00082                    000000000060c2f2     XEClib.exp
 0007:00000afa       $N00083                    000000000060c2fa     XEClib.exp
 0007:00000b00       $N00084                    000000000060c300     XEClib.exp
 0007:00000b06       $N00085                    000000000060c306     XEClib.exp
 0007:00000b0c       $N00086                    000000000060c30c     XEClib.exp
 0007:00000b11       $N00087                    000000000060c311     XEClib.exp
 0007:00000b17       $N00088                    000000000060c317     XEClib.exp
 0007:00000b1d       $N00089                    000000000060c31d     XEClib.exp
 0007:00000b23       $N00090                    000000000060c323     XEClib.exp
 0007:00000b2a       $N00091                    000000000060c32a     XEClib.exp
 0007:00000b32       $N00092                    000000000060c332     XEClib.exp
 0007:00000b39       $N00093                    000000000060c339     XEClib.exp
 0007:00000b46       $N00094                    000000000060c346     XEClib.exp
 0007:00000b4d       $N00095                    000000000060c34d     XEClib.exp
 0007:00000b55       $N00096                    000000000060c355     XEClib.exp
 0007:00000b5d       $N00097                    000000000060c35d     XEClib.exp
 0007:00000b65       $N00098                    000000000060c365     XEClib.exp
 0007:00000b6d       $N00099                    000000000060c36d     XEClib.exp
 0007:00000b75       $N00100                    000000000060c375     XEClib.exp
 0007:00000b7d       $N00101                    000000000060c37d     XEClib.exp
 0007:00000b85       $N00102                    000000000060c385     XEClib.exp
 0007:00000b8e       $N00103                    000000000060c38e     XEClib.exp
 0007:00000b95       $N00104                    000000000060c395     XEClib.exp
 0007:00000ba4       $N00105                    000000000060c3a4     XEClib.exp
 0007:00000bb2       $N00106                    000000000060c3b2     XEClib.exp
 0007:00000bc0       $N00107                    000000000060c3c0     XEClib.exp
 0007:00000bd0       $N00108                    000000000060c3d0     XEClib.exp
 0007:00000bd7       $N00109                    000000000060c3d7     XEClib.exp
 0007:00000bdf       $N00110                    000000000060c3df     XEClib.exp
 0007:00000be6       $N00111                    000000000060c3e6     XEClib.exp
 0007:00000bec       $N00112                    000000000060c3ec     XEClib.exp
 0007:00000bf5       $N00113                    000000000060c3f5     XEClib.exp
 0007:00000bfc       $N00114                    000000000060c3fc     XEClib.exp
 0007:00000c03       $N00115                    000000000060c403     XEClib.exp
 0007:00000c0a       $N00116                    000000000060c40a     XEClib.exp
 0007:00000c11       $N00117                    000000000060c411     XEClib.exp
 0007:00000c19       $N00118                    000000000060c419     XEClib.exp
 0007:00000c20       $N00119                    000000000060c420     XEClib.exp
 0007:00000c26       $N00120                    000000000060c426     XEClib.exp
 0007:00000c2d       $N00121                    000000000060c42d     XEClib.exp
 0007:00000c32       $N00122                    000000000060c432     XEClib.exp
 0007:00000c36       $N00123                    000000000060c436     XEClib.exp
 0007:00000c3d       $N00124                    000000000060c43d     XEClib.exp
 0007:00000c45       $N00125                    000000000060c445     XEClib.exp
 0007:00000c4a       $N00126                    000000000060c44a     XEClib.exp
 0007:00000c50       $N00127                    000000000060c450     XEClib.exp
 0007:00000c55       $N00128                    000000000060c455     XEClib.exp
 0007:00000c5d       $N00129                    000000000060c45d     XEClib.exp
 0007:00000c65       $N00130                    000000000060c465     XEClib.exp
 0007:00000c6c       $N00131                    000000000060c46c     XEClib.exp
 0007:00000c73       $N00132                    000000000060c473     XEClib.exp
 0007:00000c79       $N00133                    000000000060c479     XEClib.exp
 0007:00000c7e       $N00134                    000000000060c47e     XEClib.exp
 0007:00000c85       $N00135                    000000000060c485     XEClib.exp
 0007:00000c89       $N00136                    000000000060c489     XEClib.exp
 0007:00000c8e       $N00137                    000000000060c48e     XEClib.exp
 0007:00000c97       $N00138                    000000000060c497     XEClib.exp
 0007:00000c9e       $N00139                    000000000060c49e     XEClib.exp
 0007:00000cac       $N00140                    000000000060c4ac     XEClib.exp
 0007:00000cb4       $N00141                    000000000060c4b4     XEClib.exp
 0007:00000cb9       $N00142                    000000000060c4b9     XEClib.exp
 0007:00000cbf       $N00143                    000000000060c4bf     XEClib.exp
 0007:00000cc6       $N00144                    000000000060c4c6     XEClib.exp
 0007:00000ccb       $N00145                    000000000060c4cb     XEClib.exp
 0007:00000cd6       $N00146                    000000000060c4d6     XEClib.exp
 0007:00000ce1       $N00147                    000000000060c4e1     XEClib.exp
 0007:00000ce8       $N00148                    000000000060c4e8     XEClib.exp
 0007:00000cef       $N00149                    000000000060c4ef     XEClib.exp
 0007:00000cf6       $N00150                    000000000060c4f6     XEClib.exp
 0007:00000cfd       $N00151                    000000000060c4fd     XEClib.exp
 0007:00000d04       $N00152                    000000000060c504     XEClib.exp
 0007:00000d0d       $N00153                    000000000060c50d     XEClib.exp
 0007:00000d14       $N00154                    000000000060c514     XEClib.exp
 0007:00000d20       $N00155                    000000000060c520     XEClib.exp
 0007:00000d28       $N00156                    000000000060c528     XEClib.exp
 0007:00000d30       $N00157                    000000000060c530     XEClib.exp
 0007:00000d38       $N00158                    000000000060c538     XEClib.exp
 0007:00000d40       $N00159                    000000000060c540     XEClib.exp
 0007:00000d48       $N00160                    000000000060c548     XEClib.exp
 0007:00000d4f       $N00161                    000000000060c54f     XEClib.exp
 0007:00000d56       $N00162                    000000000060c556     XEClib.exp
 0007:00000d5d       $N00163                    000000000060c55d     XEClib.exp
 0007:00000d64       $N00164                    000000000060c564     XEClib.exp
 0007:00000d6b       $N00165                    000000000060c56b     XEClib.exp
 0007:00000d74       $N00166                    000000000060c574     XEClib.exp
 0007:00000d7b       $N00167                    000000000060c57b     XEClib.exp
 0007:00000d83       $N00168                    000000000060c583     XEClib.exp
 0007:00000d89       $N00169                    000000000060c589     XEClib.exp
 0007:00000d8d       $N00170                    000000000060c58d     XEClib.exp
 0007:00000d92       $N00171                    000000000060c592     XEClib.exp
 0007:00000d97       $N00172                    000000000060c597     XEClib.exp
 0007:00000d9f       $N00173                    000000000060c59f     XEClib.exp
 0007:00000da7       $N00174                    000000000060c5a7     XEClib.exp
 0007:00000db0       $N00175                    000000000060c5b0     XEClib.exp
 0007:00000db8       $N00176                    000000000060c5b8     XEClib.exp
 0007:00000dc2       $N00177                    000000000060c5c2     XEClib.exp
 0007:00000dcb       $N00178                    000000000060c5cb     XEClib.exp
 0007:00000dd4       $N00179                    000000000060c5d4     XEClib.exp

 Exports

  ordinal    name

        1    _KeCloseFile
        2    _KeCreateDir
        3    _KeCreatePipe
        4    _KeCreateProcess
        5    _KeCreateSharedMem
        6    _KeCreateTTY
        7    _KeCreateThread
        8    _KeCreateTimer
        9    _KeDestroyTimer
       10    _KeFileIoControl
       11    _KeFileSetOffset
       12    _KeFileStat
       13    _KeGetCurrentTime
       14    _KeGetFontID
       15    _KeGetFontSize
       16    _KeGetNumFonts
       17    _KeGetProcessHeapMem
       18    _KeGetProcessID
       19    _KeGetStorageDiskInfo
       20    _KeGetStoragePartitionInfo
       21    _KeGetSystemTimerTick
       22    _KeGetThreadID
       23    _KeMemMap
       24    _KeMemMapDirty
       25    _KeMemUnmap
       26    _KeObtainSharedMem
       27    _KeOpenDir
       28    _KeOpenFile
       29    _KePauseThread
       30    _KePrint
       31    _KeProcessExit
       32    _KeProcessGetFileDesc
       33    _KeProcessHeapUnmap
       34    _KeProcessLoadExec
       35    _KeProcessSleep
       36    _KeProcessWaitForTermination
       37    _KeReadDir
       38    _KeReadFile
       39    _KeRemoveFile
       40    _KeSendSignal
       41    _KeSetFileToProcess
       42    _KeSetSignal
       43    _KeStartTimer
       44    _KeStopTimer
       45    _KeUnmapSharedMem
       46    _KeWriteFile
       47    _dbl2str
       48    _digits
       49    _flt2str
       50    _ldigits
       51    _lnum2str
       52    _num2str
       53    _str2num
       54    abort
       55    abs
       56    accept
       57    asctime
       58    atof
       59    atoi
       60    bcopy
       61    bind
       62    bzero
       63    calloc
       64    ceil
       65    clock
       66    connect
       67    cos
       68    cosf
       69    ctime
       70    difftime
       71    exit
       72    fabs
       73    fabsf
       74    fclose
       75    fflush
       76    ffs
       77    fgetc
       78    floor
       79    floorf
       80    fmod
       81    fopen
       82    fprintf
       83    fputc
       84    fputs
       85    fread
       86    free
       87    frexp
       88    fseek
       89    ftell
       90    fwrite
       91    getchar
       92    getenv
       93    gettimeofday
       94    gmtime
       95    isalpha
       96    isascii
       97    isdigit
       98    islower
       99    isprint
      100    isspace
      101    isupper
      102    isxdigit
      103    itoa_s
      104    liballoc_alloc
      105    liballoc_free
      106    liballoc_lock
      107    liballoc_unlock
      108    listen
      109    longjmp
      110    malloc
      111    mblen
      112    mbstowcs
      113    mbtowc
      114    memchr
      115    memcmp
      116    memcpy
      117    memmove
      118    memset
      119    mkdir
      120    mktime
      121    modf
      122    pow
      123    printf
      124    putchar
      125    puts
      126    qsort
      127    rand
      128    realloc
      129    receive
      130    remove
      131    rename
      132    scanf
      133    send
      134    setjmp
      135    sin
      136    sinf
      137    snprintf
      138    socket
      139    socket_setopt
      140    sprintf
      141    sqrt
      142    sqrtf
      143    sscanf
      144    stat
      145    strcasecmp
      146    strcasestr
      147    strcat
      148    strchr
      149    strcmp
      150    strcpy
      151    strdup
      152    strerror
      153    strlen
      154    strncasecmp
      155    strncat
      156    strncmp
      157    strncpy
      158    strnlen
      159    strrchr
      160    strspn
      161    strstr
      162    strtod
      163    strtof
      164    strtok
      165    strtok_r
      166    strtol
      167    strtoul
      168    sztoa
      169    tan
      170    tanf
      171    time
      172    tolower
      173    toupper
      174    vfprintf
      175    vprintf
      176    vsnprintf
      177    vsprintf
      178    wcstombs
      179    wctomb
