; Listing generated by Microsoft (R) Optimizing Compiler Version 19.29.30159.0 

	TTL	C:\Users\paras\source\repos\grep-name\XenevaOS\Process\AudioPlayer\ARM64\Debug\main.obj
	ARM64

	AREA	|.drectve|, DRECTVE

	EXPORT	|?app@@3PEAU_ChApp_@@EA| [ DATA ]	; app
	EXPORT	|?mainWin@@3PEAU_chwin_@@EA| [ DATA ]	; mainWin
	EXPORT	|?mainCanvas@@3PEAU_ChCanvas_@@EA| [ DATA ] ; mainCanvas
	EXPORT	|?browserCanvas@@3PEAU_ChCanvas_@@EA| [ DATA ] ; browserCanvas
	EXPORT	|?mainWidgetList@@3PEAU_list_@@EA| [ DATA ] ; mainWidgetList
	EXPORT	|?browserWidgetList@@3PEAU_list_@@EA| [ DATA ] ; browserWidgetList
	EXPORT	|?browseList@@3PEAU_list_view_@@EA| [ DATA ] ; browseList
	EXPORT	|?musicIcon@@3PEAU_icon_@@EA| [ DATA ]	; musicIcon
	EXPORT	|?mainMenubar@@3PEAU_menubar_@@EA| [ DATA ] ; mainMenubar
	EXPORT	|?_music_library_drawn@@3DA| [ DATA ]	; _music_library_drawn
	EXPORT	|?selectedFile@@3PEADEA| [ DATA ]	; selectedFile
	EXPORT	|?snd@@3HA| [ DATA ]			; snd
	EXPORT	|?_file@@3HA| [ DATA ]			; _file
	EXPORT	|?_start_player@@3DA| [ DATA ]		; _start_player
	EXPORT	|?soundbuff@@3PEAXEA| [ DATA ]		; soundbuff
	EXPORT	|?filebuff@@3PEAXEA| [ DATA ]		; filebuff
	EXPORT	|?_auto_start@@3DA| [ DATA ]		; _auto_start

	AREA	|.bss|, NOINIT
|?app@@3PEAU_ChApp_@@EA| % 0x8				; app
|?mainWin@@3PEAU_chwin_@@EA| % 0x8			; mainWin
|?mainCanvas@@3PEAU_ChCanvas_@@EA| % 0x8		; mainCanvas
|?browserCanvas@@3PEAU_ChCanvas_@@EA| % 0x8		; browserCanvas
|?mainWidgetList@@3PEAU_list_@@EA| % 0x8		; mainWidgetList
|?browserWidgetList@@3PEAU_list_@@EA| % 0x8		; browserWidgetList
|?browseList@@3PEAU_list_view_@@EA| % 0x8		; browseList
|?musicIcon@@3PEAU_icon_@@EA| % 0x8			; musicIcon
|?mainMenubar@@3PEAU_menubar_@@EA| % 0x8		; mainMenubar
|?_music_library_drawn@@3DA| % 0x1			; _music_library_drawn
|?selectedFile@@3PEADEA| % 0x8				; selectedFile
|?snd@@3HA| %	0x4					; snd
|?_file@@3HA| %	0x4					; _file
|?_start_player@@3DA| % 0x1				; _start_player
|?soundbuff@@3PEAXEA| % 0x8				; soundbuff
|?filebuff@@3PEAXEA| % 0x8				; filebuff
|?mp3@@3PEAXEA| % 0x8					; mp3
|?info@@3U_mp3_info@@A| % 0xc				; info
|?_auto_start@@3DA| % 0x1				; _auto_start

	AREA	|.rdata|, DATA, READONLY
|$SG8543| DCB	"SoundHandler", 0x0
	%	3
|$SG8545| DCB	"VideoHandler", 0x0
	%	3
|$SG9456| DCB	"/dev/sound", 0x0
	%	5
|$SG9493| DCB	"Accent Player v1.0 for XenevaOS !!", 0x0
	%	5
|$SG9494| DCB	"Accent v1.0", 0x0
	%	4
|$SG9535| DCB	"Decoder error ", 0xa, 0x0
|$SG9546| DCB	"Your Music library.....", 0x0
|$SG9547| DCB	"Updating the browsing ", 0xd, 0xa, 0x0
	%	3
|$SG9566| DCB	"/music", 0x0
	%	5
|$SG9577| DCB	"/MUSIC/", 0x0
|$SG9578| DCB	"/MUSIC/", 0x0
|$SG9579| DCB	"Selected file -> %s ", 0xd, 0xa, 0x0
	%	1
|$SG9580| DCB	"_file -> %d ", 0xd, 0xa, 0x0
	%	1
|$SG9581| DCB	"selected File -> %s ", 0xd, 0xa, 0x0
	%	1
|$SG9586| DCB	"/icons/music.bmp", 0x0
	%	3
|$SG9587| DCB	"Select", 0x0
	%	1
|$SG9624| DCB	"Accent", 0x0
	%	1
|$SG9626| DCB	"File", 0x0
	%	3
|$SG9627| DCB	"Help", 0x0
	%	7
|$SG9628| DCB	"Select Song...", 0x0
	%	1
|$SG9629| DCB	"Exit", 0x0
	%	3
|$SG9630| DCB	"About", 0x0
	%	2
|$SG9631| DCB	"Previous", 0x0
	%	7
|$SG9632| DCB	"Play/Pause", 0x0
	%	1
|$SG9633| DCB	"Next", 0x0
	%	7
|$SG9634| DCB	"/musicbk.jpg", 0x0
	%	3
|$SG9635| DCB	"/icons/media.bmp", 0x0
	%	7
|?box_ftyp@@3QBEB| DCB 0x0				; box_ftyp
	DCB	0x0
	DCB	0x0
	DCB	0x18
	DCB	0x66
	DCB	0x74
	DCB	0x79
	DCB	0x70
	DCB	0x6d
	DCB	0x70
	DCB	0x34
	DCB	0x32
	DCB	0x0
	DCB	0x0
	DCB	0x0
	DCB	0x0
	DCB	0x6d
	DCB	0x70
	DCB	0x34
	DCB	0x32
	DCB	0x69
	DCB	0x73
	DCB	0x6f
	DCB	0x6d
	EXPORT	|??0Decoder@Jpeg@@QEAA@PEBEIP6APEAXI@ZP6AXPEAX@Z@Z| ; Jpeg::Decoder::Decoder
	EXPORT	|?GetResult@Decoder@Jpeg@@QEBA?AW4DecodeResult@12@XZ| ; Jpeg::Decoder::GetResult
	EXPORT	|?GetWidth@Decoder@Jpeg@@QEBAHXZ|	; Jpeg::Decoder::GetWidth
	EXPORT	|?GetHeight@Decoder@Jpeg@@QEBAHXZ|	; Jpeg::Decoder::GetHeight
	EXPORT	|?GetImage@Decoder@Jpeg@@QEBAPEAEXZ|	; Jpeg::Decoder::GetImage
	EXPORT	|?_Clip@Decoder@Jpeg@@AEAAEH@Z|		; Jpeg::Decoder::_Clip
	EXPORT	|?_RowIDCT@Decoder@Jpeg@@AEAAXPEAH@Z|	; Jpeg::Decoder::_RowIDCT
	EXPORT	|?_ColIDCT@Decoder@Jpeg@@AEAAXPEBHPEAEH@Z| ; Jpeg::Decoder::_ColIDCT
	EXPORT	|?_ShowBits@Decoder@Jpeg@@AEAAHH@Z|	; Jpeg::Decoder::_ShowBits
	EXPORT	|?_SkipBits@Decoder@Jpeg@@AEAAXH@Z|	; Jpeg::Decoder::_SkipBits
	EXPORT	|?_GetBits@Decoder@Jpeg@@AEAAHH@Z|	; Jpeg::Decoder::_GetBits
	EXPORT	|?_ByteAlign@Decoder@Jpeg@@AEAAXXZ|	; Jpeg::Decoder::_ByteAlign
	EXPORT	|?_Skip@Decoder@Jpeg@@AEAAXH@Z|		; Jpeg::Decoder::_Skip
	EXPORT	|?_Decode16@Decoder@Jpeg@@AEAAGPEBE@Z|	; Jpeg::Decoder::_Decode16
	EXPORT	|?_DecodeLength@Decoder@Jpeg@@AEAAXXZ|	; Jpeg::Decoder::_DecodeLength
	EXPORT	|?_SkipMarker@Decoder@Jpeg@@AEAAXXZ|	; Jpeg::Decoder::_SkipMarker
	EXPORT	|?_DecodeSOF@Decoder@Jpeg@@AEAAXXZ|	; Jpeg::Decoder::_DecodeSOF
	EXPORT	|?_DecodeDHT@Decoder@Jpeg@@AEAAXXZ|	; Jpeg::Decoder::_DecodeDHT
	EXPORT	|?_DecodeDQT@Decoder@Jpeg@@AEAAXXZ|	; Jpeg::Decoder::_DecodeDQT
	EXPORT	|?_DecodeDRI@Decoder@Jpeg@@AEAAXXZ|	; Jpeg::Decoder::_DecodeDRI
	EXPORT	|?_GetVLC@Decoder@Jpeg@@AEAAHPEAUVlcCode@12@PEAE@Z| ; Jpeg::Decoder::_GetVLC
	EXPORT	|?_DecodeBlock@Decoder@Jpeg@@AEAAXPEAUComponent@12@PEAE@Z| ; Jpeg::Decoder::_DecodeBlock
	EXPORT	|?_DecodeScan@Decoder@Jpeg@@AEAAXXZ|	; Jpeg::Decoder::_DecodeScan
	EXPORT	|?CF@Decoder@Jpeg@@AEAAEH@Z|		; Jpeg::Decoder::CF
	EXPORT	|?_UpsampleH@Decoder@Jpeg@@AEAAXPEAUComponent@12@@Z| ; Jpeg::Decoder::_UpsampleH
	EXPORT	|?_UpsampleV@Decoder@Jpeg@@AEAAXPEAUComponent@12@@Z| ; Jpeg::Decoder::_UpsampleV
	EXPORT	|?_Convert@Decoder@Jpeg@@AEAAXXZ|	; Jpeg::Decoder::_Convert
	EXPORT	|?_Decode@Decoder@Jpeg@@AEAA?AW4DecodeResult@12@PEBEH@Z| ; Jpeg::Decoder::_Decode
	EXPORT	|mp4_h26x_write_init|
	EXPORT	|mp4_h26x_write_close|
	EXPORT	|mp4_h26x_write_nal|
	EXPORT	|MP4D_open|
	EXPORT	|MP4D_frame_offset|
	EXPORT	|MP4D_close|
	EXPORT	|MP4D_read_sps|
	EXPORT	|MP4D_read_pps|
	EXPORT	|MP4E_open|
	EXPORT	|MP4E_add_track|
	EXPORT	|MP4E_put_sample|
	EXPORT	|MP4E_close|
	EXPORT	|MP4E_set_dsi|
	EXPORT	|MP4E_set_vps|
	EXPORT	|MP4E_set_sps|
	EXPORT	|MP4E_set_pps|
	EXPORT	|MP4E_set_text_comment|
	EXPORT	|?RegisterSound@@YAXXZ|			; RegisterSound
	EXPORT	|?PlayerThread@@YAXXZ|			; PlayerThread
	EXPORT	|?WindowHandleMessage@@YAXPEAU_post_event_@@@Z| ; WindowHandleMessage
	EXPORT	|?AboutClicked@@YAXPEAU_ChWidget_@@PEAU_chwin_@@@Z| ; AboutClicked
	EXPORT	|?ExitItemClicked@@YAXPEAU_ChWidget_@@PEAU_chwin_@@@Z| ; ExitItemClicked
	EXPORT	|?DrawWallpaper@@YAXPEAU_ChCanvas_@@PEADHH@Z| ; DrawWallpaper
	EXPORT	|?UpdateHomeUI@@YAXXZ|			; UpdateHomeUI
	EXPORT	|?UpdateBrowserUI@@YAXXZ|		; UpdateBrowserUI
	EXPORT	|?BrowseMenuActionHandler@@YAXPEAU_ChWidget_@@PEAU_chwin_@@@Z| ; BrowseMenuActionHandler
	EXPORT	|?SelectButtonActionHandler@@YAXPEAU_ChWidget_@@PEAU_chwin_@@@Z| ; SelectButtonActionHandler
	EXPORT	|?MusicPrepareLibrary@@YAXPEAU_list_view_@@@Z| ; MusicPrepareLibrary
	EXPORT	|?PlayPauseButtonAction@@YAXPEAU_ChWidget_@@PEAU_chwin_@@@Z| ; PlayPauseButtonAction
	EXPORT	|?PrepareBrowserUI@@YAXXZ|		; PrepareBrowserUI
	EXPORT	|?AudioPlayerClose@@YAXPEAU_chwin_@@@Z|	; AudioPlayerClose
	EXPORT	|main|
	IMPORT	|??2@YAPEAX_K@Z|			; operator new
	IMPORT	|_KePrint|
	IMPORT	|_KePauseThread|
	IMPORT	|_KeProcessSleep|
	IMPORT	|_KeOpenFile|
	IMPORT	|_KeReadFile|
	IMPORT	|_KeWriteFile|
	IMPORT	|_KeCloseFile|
	IMPORT	|_KeFileIoControl|
	IMPORT	|_KeFileStat|
	IMPORT	|_KeOpenDir|
	IMPORT	|_KeReadDir|
	IMPORT	|ChCreateCanvas|
	IMPORT	|ChAllocateBuffer|
	IMPORT	|ChDeAllocateBuffer|
	IMPORT	|ChDrawPixel|
	IMPORT	|strcpy|
	IMPORT	|strlen|
	IMPORT	|strdup|
	IMPORT	|memset|
	IMPORT	|memcpy|
	IMPORT	|memcmp|
	IMPORT	|memchr|
	IMPORT	|malloc|
	IMPORT	|free|
	IMPORT	|realloc|
	IMPORT	|abort|
	IMPORT	|setjmp|
	IMPORT	|ChFontSetSize|
	IMPORT	|ChFontDrawText|
	IMPORT	|ChitralekhaStartApp|
	IMPORT	|initialize_list|
	IMPORT	|list_add|
	IMPORT	|list_remove|
	IMPORT	|list_get_at|
	IMPORT	|list_clear_all|
	IMPORT	|ChCreateWindow|
	IMPORT	|ChWindowBroadcastIcon|
	IMPORT	|ChWindowPaint|
	IMPORT	|ChWindowUpdate|
	IMPORT	|ChWindowHandleMouse|
	IMPORT	|ChWindowHandleFocus|
	IMPORT	|ChWindowAddWidget|
	IMPORT	|ChGetWindowByHandle|
	IMPORT	|ChGetPopupWindowByHandle|
	IMPORT	|ChPopupWindowHandleMouse|
	IMPORT	|ChWindowCloseWindow|
	IMPORT	|ChCreateButton|
	IMPORT	|ChCreatePopupMenu|
	IMPORT	|ChCreateMenuItem|
	IMPORT	|ChCreateMenubar|
	IMPORT	|ChCreateMenubutton|
	IMPORT	|ChMenubarAddButton|
	IMPORT	|ChMenuButtonAddMenu|
	IMPORT	|ChCreateIcon|
	IMPORT	|ChIconOpen|
	IMPORT	|ChIconRead|
	IMPORT	|ChCreateMessageBox|
	IMPORT	|ChMessageBoxShow|
	IMPORT	|ChCreateScrollPane|
	IMPORT	|ChCreateListView|
	IMPORT	|ChListViewSetScrollpane|
	IMPORT	|ChListViewAddItem|
	IMPORT	|ChListViewSetListItemIcon|
	IMPORT	|ChListViewGetSelectedItem|
	IMPORT	|_KeMemMap|
	IMPORT	|_KeMemUnmap|

	AREA	|.pdata|, PDATA
|$pdata$??0Decoder@Jpeg@@QEAA@PEBEIP6APEAXI@ZP6AXPEAX@Z@Z| DCD imagerel |$LN4|
	DCD	0x4600289
	;Flags[SingleProEpi] functionLength[648] RegF[0] RegI[0] H[0] frameChainReturn[Chained] frameSize[128]

	AREA	|.pdata|, PDATA
|$pdata$?GetResult@Decoder@Jpeg@@QEBA?AW4DecodeResult@12@XZ| DCD imagerel |$LN3|
	DCD	0x800019
	;Flags[SingleProEpi] functionLength[24] RegF[0] RegI[0] H[0] frameChainReturn[UnChained] frameSize[16]

	AREA	|.pdata|, PDATA
|$pdata$?GetWidth@Decoder@Jpeg@@QEBAHXZ| DCD imagerel |$LN3|
	DCD	0x80001d
	;Flags[SingleProEpi] functionLength[28] RegF[0] RegI[0] H[0] frameChainReturn[UnChained] frameSize[16]

	AREA	|.pdata|, PDATA
|$pdata$?GetHeight@Decoder@Jpeg@@QEBAHXZ| DCD imagerel |$LN3|
	DCD	0x80001d
	;Flags[SingleProEpi] functionLength[28] RegF[0] RegI[0] H[0] frameChainReturn[UnChained] frameSize[16]

	AREA	|.pdata|, PDATA
|$pdata$?GetImage@Decoder@Jpeg@@QEBAPEAEXZ| DCD imagerel |$LN5|
	DCD	0x800055
	;Flags[SingleProEpi] functionLength[84] RegF[0] RegI[0] H[0] frameChainReturn[UnChained] frameSize[16]

	AREA	|.pdata|, PDATA
|$pdata$?_Clip@Decoder@Jpeg@@AEAAEH@Z| DCD imagerel |$LN7|
	DCD	0x1000069
	;Flags[SingleProEpi] functionLength[104] RegF[0] RegI[0] H[0] frameChainReturn[UnChained] frameSize[32]

	AREA	|.pdata|, PDATA
|$pdata$?_RowIDCT@Decoder@Jpeg@@AEAAXPEAH@Z| DCD imagerel |$LN4|
	DCD	0x20003fd
	;Flags[SingleProEpi] functionLength[1020] RegF[0] RegI[0] H[0] frameChainReturn[UnChained] frameSize[64]

	AREA	|.pdata|, PDATA
|$pdata$?_ColIDCT@Decoder@Jpeg@@AEAAXPEBHPEAEH@Z| DCD imagerel |$LN7|
	DCD	0x2e00529
	;Flags[SingleProEpi] functionLength[1320] RegF[0] RegI[0] H[0] frameChainReturn[Chained] frameSize[80]

	AREA	|.pdata|, PDATA
|$pdata$?_ShowBits@Decoder@Jpeg@@AEAAHH@Z| DCD imagerel |$LN18|
	DCD	0x10002c9
	;Flags[SingleProEpi] functionLength[712] RegF[0] RegI[0] H[0] frameChainReturn[UnChained] frameSize[32]

	AREA	|.pdata|, PDATA
|$pdata$?_SkipBits@Decoder@Jpeg@@AEAAXH@Z| DCD imagerel |$LN4|
	DCD	0x1600069
	;Flags[SingleProEpi] functionLength[104] RegF[0] RegI[0] H[0] frameChainReturn[Chained] frameSize[32]

	AREA	|.pdata|, PDATA
|$pdata$?_GetBits@Decoder@Jpeg@@AEAAHH@Z| DCD imagerel |$LN3|
	DCD	0x160003d
	;Flags[SingleProEpi] functionLength[60] RegF[0] RegI[0] H[0] frameChainReturn[Chained] frameSize[32]

	AREA	|.pdata|, PDATA
|$pdata$?_ByteAlign@Decoder@Jpeg@@AEAAXXZ| DCD imagerel |$LN3|
	DCD	0x800035
	;Flags[SingleProEpi] functionLength[52] RegF[0] RegI[0] H[0] frameChainReturn[UnChained] frameSize[16]

	AREA	|.pdata|, PDATA
|$pdata$?_Skip@Decoder@Jpeg@@AEAAXH@Z| DCD imagerel |$LN4|
	DCD	0x800099
	;Flags[SingleProEpi] functionLength[152] RegF[0] RegI[0] H[0] frameChainReturn[UnChained] frameSize[16]

	AREA	|.pdata|, PDATA
|$pdata$?_Decode16@Decoder@Jpeg@@AEAAGPEBE@Z| DCD imagerel |$LN3|
	DCD	0x800041
	;Flags[SingleProEpi] functionLength[64] RegF[0] RegI[0] H[0] frameChainReturn[UnChained] frameSize[16]

	AREA	|.pdata|, PDATA
|$pdata$?_DecodeLength@Decoder@Jpeg@@AEAAXXZ| DCD imagerel |$LN11|
	DCD	0x16000b5
	;Flags[SingleProEpi] functionLength[180] RegF[0] RegI[0] H[0] frameChainReturn[Chained] frameSize[32]

	AREA	|.pdata|, PDATA
|$pdata$?_SkipMarker@Decoder@Jpeg@@AEAAXXZ| DCD imagerel |$LN3|
	DCD	0x1600031
	;Flags[SingleProEpi] functionLength[48] RegF[0] RegI[0] H[0] frameChainReturn[Chained] frameSize[32]

	AREA	|.pdata|, PDATA
|$pdata$?_DecodeSOF@Decoder@Jpeg@@AEAAXXZ| DCD imagerel |$LN73|
	DCD	0x3600849
	;Flags[SingleProEpi] functionLength[2120] RegF[0] RegI[0] H[0] frameChainReturn[Chained] frameSize[96]

	AREA	|.pdata|, PDATA
|$pdata$?_DecodeDHT@Decoder@Jpeg@@AEAAXXZ| DCD imagerel |$LN40|
	DCD	0x3600369
	;Flags[SingleProEpi] functionLength[872] RegF[0] RegI[0] H[0] frameChainReturn[Chained] frameSize[96]

	AREA	|.pdata|, PDATA
|$pdata$?_DecodeDQT@Decoder@Jpeg@@AEAAXXZ| DCD imagerel |$LN16|
	DCD	0x1e00169
	;Flags[SingleProEpi] functionLength[360] RegF[0] RegI[0] H[0] frameChainReturn[Chained] frameSize[48]

	AREA	|.pdata|, PDATA
|$pdata$?_DecodeDRI@Decoder@Jpeg@@AEAAXXZ| DCD imagerel |$LN7|
	DCD	0x160008d
	;Flags[SingleProEpi] functionLength[140] RegF[0] RegI[0] H[0] frameChainReturn[Chained] frameSize[32]

	AREA	|.pdata|, PDATA
|$pdata$?_GetVLC@Decoder@Jpeg@@AEAAHPEAUVlcCode@12@PEAE@Z| DCD imagerel |$LN7|
	DCD	0x1e00135
	;Flags[SingleProEpi] functionLength[308] RegF[0] RegI[0] H[0] frameChainReturn[Chained] frameSize[48]

	AREA	|.pdata|, PDATA
|$pdata$?_DecodeBlock@Decoder@Jpeg@@AEAAXPEAUComponent@12@PEAE@Z| DCD imagerel |$LN21|
	DCD	0x2e1030d
	;Flags[SingleProEpi] functionLength[780] RegF[0] RegI[1] H[0] frameChainReturn[Chained] frameSize[80]

	AREA	|.pdata|, PDATA
|$pdata$?_DecodeScan@Decoder@Jpeg@@AEAAXXZ| DCD imagerel |$LN52|
	DCD	0x2600545
	;Flags[SingleProEpi] functionLength[1348] RegF[0] RegI[0] H[0] frameChainReturn[Chained] frameSize[64]

	AREA	|.pdata|, PDATA
|$pdata$?CF@Decoder@Jpeg@@AEAAEH@Z| DCD imagerel |$LN3|
	DCD	0x1600039
	;Flags[SingleProEpi] functionLength[56] RegF[0] RegI[0] H[0] frameChainReturn[Chained] frameSize[32]

	AREA	|.pdata|, PDATA
|$pdata$?_UpsampleH@Decoder@Jpeg@@AEAAXPEAUComponent@12@@Z| DCD imagerel |$LN13|
	DCD	0x2e005e9
	;Flags[SingleProEpi] functionLength[1512] RegF[0] RegI[0] H[0] frameChainReturn[Chained] frameSize[80]

	AREA	|.pdata|, PDATA
|$pdata$?_UpsampleV@Decoder@Jpeg@@AEAAXPEAUComponent@12@@Z| DCD imagerel |$LN13|
	DCD	0x36006b5
	;Flags[SingleProEpi] functionLength[1716] RegF[0] RegI[0] H[0] frameChainReturn[Chained] frameSize[96]

	AREA	|.pdata|, PDATA
|$pdata$?_Convert@Decoder@Jpeg@@AEAAXXZ| DCD imagerel |$LN30|
	DCD	0x3e0053d
	;Flags[SingleProEpi] functionLength[1340] RegF[0] RegI[0] H[0] frameChainReturn[Chained] frameSize[112]

	AREA	|.pdata|, PDATA
|$pdata$?_Decode@Decoder@Jpeg@@AEAA?AW4DecodeResult@12@PEBEH@Z| DCD imagerel |$LN22|
	DCD	0x1e00245
	;Flags[SingleProEpi] functionLength[580] RegF[0] RegI[0] H[0] frameChainReturn[Chained] frameSize[48]

	AREA	|.pdata|, PDATA
|$pdata$mp4_h26x_write_init| DCD imagerel |$LN6|
	DCD	0x2e00141
	;Flags[SingleProEpi] functionLength[320] RegF[0] RegI[0] H[0] frameChainReturn[Chained] frameSize[80]
|$pdata$mp4_h26x_write_close| DCD imagerel |$LN11|
	DCD	0x1e0010d
	;Flags[SingleProEpi] functionLength[268] RegF[0] RegI[0] H[0] frameChainReturn[Chained] frameSize[48]
|$pdata$mp4_h26x_write_nal| DCD imagerel |$LN27|
	DCD	0x4600475
	;Flags[SingleProEpi] functionLength[1140] RegF[0] RegI[0] H[0] frameChainReturn[Chained] frameSize[128]
|$pdata$MP4D_open| DCD imagerel |$LN273|
	DCD	imagerel |$unwind$MP4D_open|
|$pdata$MP4D_frame_offset| DCD imagerel |$LN9|
	DCD	0x36001a5
	;Flags[SingleProEpi] functionLength[420] RegF[0] RegI[0] H[0] frameChainReturn[Chained] frameSize[96]
|$pdata$MP4D_close| DCD imagerel |$LN18|
	DCD	0x1e00355
	;Flags[SingleProEpi] functionLength[852] RegF[0] RegI[0] H[0] frameChainReturn[Chained] frameSize[48]
|$pdata$MP4D_read_sps| DCD imagerel |$LN3|
	DCD	0x1e00039
	;Flags[SingleProEpi] functionLength[56] RegF[0] RegI[0] H[0] frameChainReturn[Chained] frameSize[48]
|$pdata$MP4D_read_pps| DCD imagerel |$LN3|
	DCD	0x1e00039
	;Flags[SingleProEpi] functionLength[56] RegF[0] RegI[0] H[0] frameChainReturn[Chained] frameSize[48]
|$pdata$MP4E_open| DCD imagerel |$LN9|
	DCD	0x260019d
	;Flags[SingleProEpi] functionLength[412] RegF[0] RegI[0] H[0] frameChainReturn[Chained] frameSize[64]
|$pdata$MP4E_add_track| DCD imagerel |$LN7|
	DCD	0x1e000f5
	;Flags[SingleProEpi] functionLength[244] RegF[0] RegI[0] H[0] frameChainReturn[Chained] frameSize[48]
|$pdata$MP4E_put_sample| DCD imagerel |$LN22|
	DCD	0x3600365
	;Flags[SingleProEpi] functionLength[868] RegF[0] RegI[0] H[0] frameChainReturn[Chained] frameSize[96]
|$pdata$MP4E_close| DCD imagerel |$LN9|
	DCD	0x1e00129
	;Flags[SingleProEpi] functionLength[296] RegF[0] RegI[0] H[0] frameChainReturn[Chained] frameSize[48]
|$pdata$MP4E_set_dsi| DCD imagerel |$LN10|
	DCD	0x26000e5
	;Flags[SingleProEpi] functionLength[228] RegF[0] RegI[0] H[0] frameChainReturn[Chained] frameSize[64]
|$pdata$MP4E_set_vps| DCD imagerel |$LN8|
	DCD	0x26000b1
	;Flags[SingleProEpi] functionLength[176] RegF[0] RegI[0] H[0] frameChainReturn[Chained] frameSize[64]
|$pdata$MP4E_set_sps| DCD imagerel |$LN8|
	DCD	0x26000b1
	;Flags[SingleProEpi] functionLength[176] RegF[0] RegI[0] H[0] frameChainReturn[Chained] frameSize[64]
|$pdata$MP4E_set_pps| DCD imagerel |$LN8|
	DCD	0x26000b1
	;Flags[SingleProEpi] functionLength[176] RegF[0] RegI[0] H[0] frameChainReturn[Chained] frameSize[64]
|$pdata$MP4E_set_text_comment| DCD imagerel |$LN7|
	DCD	0x1600091
	;Flags[SingleProEpi] functionLength[144] RegF[0] RegI[0] H[0] frameChainReturn[Chained] frameSize[32]
|$pdata$?minimp4_vector_init@@YAHPEAUminimp4_vector_t@@H@Z| DCD imagerel |?minimp4_vector_init@@YAHPEAUminimp4_vector_t@@H@Z|
	DCD	0x1e0009d
	;Flags[SingleProEpi] functionLength[156] RegF[0] RegI[0] H[0] frameChainReturn[Chained] frameSize[48]
|$pdata$?minimp4_vector_reset@@YAXPEAUminimp4_vector_t@@@Z| DCD imagerel |?minimp4_vector_reset@@YAXPEAUminimp4_vector_t@@@Z|
	DCD	0x1600041
	;Flags[SingleProEpi] functionLength[64] RegF[0] RegI[0] H[0] frameChainReturn[Chained] frameSize[32]
|$pdata$?minimp4_vector_grow@@YAHPEAUminimp4_vector_t@@H@Z| DCD imagerel |?minimp4_vector_grow@@YAHPEAUminimp4_vector_t@@H@Z|
	DCD	0x1e000b9
	;Flags[SingleProEpi] functionLength[184] RegF[0] RegI[0] H[0] frameChainReturn[Chained] frameSize[48]
|$pdata$?minimp4_vector_alloc_tail@@YAPEAEPEAUminimp4_vector_t@@H@Z| DCD imagerel |?minimp4_vector_alloc_tail@@YAPEAEPEAUminimp4_vector_t@@H@Z|
	DCD	0x1e00145
	;Flags[SingleProEpi] functionLength[324] RegF[0] RegI[0] H[0] frameChainReturn[Chained] frameSize[48]
|$pdata$?minimp4_vector_put@@YAPEAEPEAUminimp4_vector_t@@PEBXH@Z| DCD imagerel |?minimp4_vector_put@@YAPEAEPEAUminimp4_vector_t@@PEBXH@Z|
	DCD	0x1e00051
	;Flags[SingleProEpi] functionLength[80] RegF[0] RegI[0] H[0] frameChainReturn[Chained] frameSize[48]
|$pdata$?append_mem@@YAHPEAUminimp4_vector_t@@PEBXH@Z| DCD imagerel |?append_mem@@YAHPEAUminimp4_vector_t@@PEBXH@Z|
	DCD	0x2600165
	;Flags[SingleProEpi] functionLength[356] RegF[0] RegI[0] H[0] frameChainReturn[Chained] frameSize[64]
|$pdata$?items_count@@YAHPEAUminimp4_vector_t@@@Z| DCD imagerel |?items_count@@YAHPEAUminimp4_vector_t@@@Z|
	DCD	0x10000c5
	;Flags[SingleProEpi] functionLength[196] RegF[0] RegI[0] H[0] frameChainReturn[UnChained] frameSize[32]
|$pdata$?get_duration@@YAIPEBUtrack_t@@@Z| DCD imagerel |?get_duration@@YAIPEBUtrack_t@@@Z|
	DCD	0x10000a1
	;Flags[SingleProEpi] functionLength[160] RegF[0] RegI[0] H[0] frameChainReturn[UnChained] frameSize[32]
|$pdata$?write_pending_data@@YAHPEAUMP4E_mux_tag@@PEAUtrack_t@@@Z| DCD imagerel |?write_pending_data@@YAHPEAUMP4E_mux_tag@@PEAUtrack_t@@@Z|
	DCD	0x2600315
	;Flags[SingleProEpi] functionLength[788] RegF[0] RegI[0] H[0] frameChainReturn[Chained] frameSize[64]
|$pdata$?add_sample_descriptor@@YAHPEAUMP4E_mux_tag@@PEAUtrack_t@@HHH@Z| DCD imagerel |?add_sample_descriptor@@YAHPEAUMP4E_mux_tag@@PEAUtrack_t@@HHH@Z|
	DCD	0x2e000d1
	;Flags[SingleProEpi] functionLength[208] RegF[0] RegI[0] H[0] frameChainReturn[Chained] frameSize[80]
|$pdata$?mp4e_flush_index@@YAHPEAUMP4E_mux_tag@@@Z| DCD imagerel |?mp4e_flush_index@@YAHPEAUMP4E_mux_tag@@@Z|
	DCD	imagerel |$unwind$?mp4e_flush_index@@YAHPEAUMP4E_mux_tag@@@Z|
|$pdata$?mp4e_write_fragment_header@@YAHPEAUMP4E_mux_tag@@HHHH@Z| DCD imagerel |?mp4e_write_fragment_header@@YAHPEAUMP4E_mux_tag@@HHHH@Z|
	DCD	imagerel |$unwind$?mp4e_write_fragment_header@@YAHPEAUMP4E_mux_tag@@HHHH@Z|
|$pdata$?mp4e_write_mdat_box@@YAHPEAUMP4E_mux_tag@@I@Z| DCD imagerel |?mp4e_write_mdat_box@@YAHPEAUMP4E_mux_tag@@I@Z|
	DCD	0x1e0017d
	;Flags[SingleProEpi] functionLength[380] RegF[0] RegI[0] H[0] frameChainReturn[Chained] frameSize[48]
|$pdata$?od_size_of_size@@YAHH@Z| DCD imagerel |?od_size_of_size@@YAHH@Z|
	DCD	0x800051
	;Flags[SingleProEpi] functionLength[80] RegF[0] RegI[0] H[0] frameChainReturn[UnChained] frameSize[16]
|$pdata$?show_bits@@YAIPEAUbit_reader_t@@H@Z| DCD imagerel |?show_bits@@YAIPEAUbit_reader_t@@H@Z|
	DCD	0x1e00075
	;Flags[SingleProEpi] functionLength[116] RegF[0] RegI[0] H[0] frameChainReturn[Chained] frameSize[48]
|$pdata$?flush_bits@@YAXPEAUbit_reader_t@@H@Z| DCD imagerel |?flush_bits@@YAXPEAUbit_reader_t@@H@Z|
	DCD	0x1600139
	;Flags[SingleProEpi] functionLength[312] RegF[0] RegI[0] H[0] frameChainReturn[Chained] frameSize[32]
|$pdata$?get_bits@@YAIPEAUbit_reader_t@@H@Z| DCD imagerel |?get_bits@@YAIPEAUbit_reader_t@@H@Z|
	DCD	0x160003d
	;Flags[SingleProEpi] functionLength[60] RegF[0] RegI[0] H[0] frameChainReturn[Chained] frameSize[32]
|$pdata$?set_pos_bits@@YAXPEAUbit_reader_t@@I@Z| DCD imagerel |?set_pos_bits@@YAXPEAUbit_reader_t@@I@Z|
	DCD	0x16000b9
	;Flags[SingleProEpi] functionLength[184] RegF[0] RegI[0] H[0] frameChainReturn[Chained] frameSize[32]
|$pdata$?get_pos_bits@@YAIPEBUbit_reader_t@@@Z| DCD imagerel |?get_pos_bits@@YAIPEBUbit_reader_t@@@Z|
	DCD	0x1600099
	;Flags[SingleProEpi] functionLength[152] RegF[0] RegI[0] H[0] frameChainReturn[Chained] frameSize[32]
|$pdata$?remaining_bits@@YAHPEBUbit_reader_t@@@Z| DCD imagerel |?remaining_bits@@YAHPEBUbit_reader_t@@@Z|
	DCD	0x1e10045
	;Flags[SingleProEpi] functionLength[68] RegF[0] RegI[1] H[0] frameChainReturn[Chained] frameSize[48]
|$pdata$?init_bits@@YAXPEAUbit_reader_t@@PEBXI@Z| DCD imagerel |?init_bits@@YAXPEAUbit_reader_t@@PEBXI@Z|
	DCD	0x1e00049
	;Flags[SingleProEpi] functionLength[72] RegF[0] RegI[0] H[0] frameChainReturn[Chained] frameSize[48]
|$pdata$?ue_bits@@YAHPEAUbit_reader_t@@@Z| DCD imagerel |?ue_bits@@YAHPEAUbit_reader_t@@@Z|
	DCD	0x1e00095
	;Flags[SingleProEpi] functionLength[148] RegF[0] RegI[0] H[0] frameChainReturn[Chained] frameSize[48]
|$pdata$?h264e_bs_put_bits@@YAXPEAUbs_t@@II@Z| DCD imagerel |?h264e_bs_put_bits@@YAXPEAUbs_t@@II@Z|
	DCD	0x1e001c9
	;Flags[SingleProEpi] functionLength[456] RegF[0] RegI[0] H[0] frameChainReturn[Chained] frameSize[48]
|$pdata$?h264e_bs_flush@@YAXPEAUbs_t@@@Z| DCD imagerel |?h264e_bs_flush@@YAXPEAUbs_t@@@Z|
	DCD	0x800079
	;Flags[SingleProEpi] functionLength[120] RegF[0] RegI[0] H[0] frameChainReturn[UnChained] frameSize[16]
|$pdata$?h264e_bs_get_pos_bits@@YAIPEBUbs_t@@@Z| DCD imagerel |?h264e_bs_get_pos_bits@@YAIPEBUbs_t@@@Z|
	DCD	0x1600095
	;Flags[SingleProEpi] functionLength[148] RegF[0] RegI[0] H[0] frameChainReturn[Chained] frameSize[32]
|$pdata$?h264e_bs_byte_align@@YAIPEAUbs_t@@@Z| DCD imagerel |?h264e_bs_byte_align@@YAIPEAUbs_t@@@Z|
	DCD	0x1600059
	;Flags[SingleProEpi] functionLength[88] RegF[0] RegI[0] H[0] frameChainReturn[Chained] frameSize[32]
|$pdata$?h264e_bs_put_golomb@@YAXPEAUbs_t@@I@Z| DCD imagerel |?h264e_bs_put_golomb@@YAXPEAUbs_t@@I@Z|
	DCD	0x1e00079
	;Flags[SingleProEpi] functionLength[120] RegF[0] RegI[0] H[0] frameChainReturn[Chained] frameSize[48]
|$pdata$?h264e_bs_init_bits@@YAXPEAUbs_t@@PEAX@Z| DCD imagerel |?h264e_bs_init_bits@@YAXPEAUbs_t@@PEAX@Z|
	DCD	0x800059
	;Flags[SingleProEpi] functionLength[88] RegF[0] RegI[0] H[0] frameChainReturn[UnChained] frameSize[16]
|$pdata$?find_mem_cache@@YAHQEAPEAXQEAHHPEAXH@Z| DCD imagerel |?find_mem_cache@@YAHQEAPEAXQEAHHPEAXH@Z|
	DCD	0x26001bd
	;Flags[SingleProEpi] functionLength[444] RegF[0] RegI[0] H[0] frameChainReturn[Chained] frameSize[64]
|$pdata$?remove_nal_escapes@@YAHPEAEPEBEH@Z| DCD imagerel |?remove_nal_escapes@@YAHPEAEPEBEH@Z|
	DCD	0x10001a5
	;Flags[SingleProEpi] functionLength[420] RegF[0] RegI[0] H[0] frameChainReturn[UnChained] frameSize[32]
|$pdata$?nal_put_esc@@YAHPEAEPEBEH@Z| DCD imagerel |?nal_put_esc@@YAHPEAEPEBEH@Z|
	DCD	0x1800151
	;Flags[SingleProEpi] functionLength[336] RegF[0] RegI[0] H[0] frameChainReturn[UnChained] frameSize[48]
|$pdata$?copy_bits@@YAXPEAUbit_reader_t@@PEAUbs_t@@@Z| DCD imagerel |?copy_bits@@YAXPEAUbit_reader_t@@PEAUbs_t@@@Z|
	DCD	0x1e00101
	;Flags[SingleProEpi] functionLength[256] RegF[0] RegI[0] H[0] frameChainReturn[Chained] frameSize[48]
|$pdata$?change_sps_id@@YAHPEAUbit_reader_t@@PEAUbs_t@@HPEAH@Z| DCD imagerel |?change_sps_id@@YAHPEAUbit_reader_t@@PEAUbs_t@@HPEAH@Z|
	DCD	0x2e000fd
	;Flags[SingleProEpi] functionLength[252] RegF[0] RegI[0] H[0] frameChainReturn[Chained] frameSize[80]
|$pdata$?patch_pps@@YAHPEAUh264_sps_id_patcher_t@@PEAUbit_reader_t@@PEAUbs_t@@HPEAH@Z| DCD imagerel |?patch_pps@@YAHPEAUh264_sps_id_patcher_t@@PEAUbit_reader_t@@PEAUbs_t@@HPEAH@Z|
	DCD	0x2e00125
	;Flags[SingleProEpi] functionLength[292] RegF[0] RegI[0] H[0] frameChainReturn[Chained] frameSize[80]
|$pdata$?patch_slice_header@@YAXPEAUh264_sps_id_patcher_t@@PEAUbit_reader_t@@PEAUbs_t@@@Z| DCD imagerel |?patch_slice_header@@YAXPEAUh264_sps_id_patcher_t@@PEAUbit_reader_t@@PEAUbs_t@@@Z|
	DCD	0x26000d1
	;Flags[SingleProEpi] functionLength[208] RegF[0] RegI[0] H[0] frameChainReturn[Chained] frameSize[64]
|$pdata$?transcode_nalu@@YAHPEAUh264_sps_id_patcher_t@@PEBEHPEAE@Z| DCD imagerel |?transcode_nalu@@YAHPEAUh264_sps_id_patcher_t@@PEBEHPEAE@Z|
	DCD	0x660025d
	;Flags[SingleProEpi] functionLength[604] RegF[0] RegI[0] H[0] frameChainReturn[Chained] frameSize[192]
|$pdata$?find_start_code@@YAPEBEPEBEHPEAH@Z| DCD imagerel |?find_start_code@@YAPEBEPEBEHPEAH@Z|
	DCD	0x2e00169
	;Flags[SingleProEpi] functionLength[360] RegF[0] RegI[0] H[0] frameChainReturn[Chained] frameSize[80]
|$pdata$?find_nal_unit@@YAPEBEPEBEHPEAH@Z| DCD imagerel |?find_nal_unit@@YAPEBEPEBEHPEAH@Z|
	DCD	0x26000e1
	;Flags[SingleProEpi] functionLength[224] RegF[0] RegI[0] H[0] frameChainReturn[Chained] frameSize[64]
|$pdata$?mp4_h265_write_nal@@YAHPEAUmp4_h26x_writer_tag@@PEBEHI@Z| DCD imagerel |?mp4_h265_write_nal@@YAHPEAUmp4_h26x_writer_tag@@PEBEHI@Z|
	DCD	0x2e00345
	;Flags[SingleProEpi] functionLength[836] RegF[0] RegI[0] H[0] frameChainReturn[Chained] frameSize[80]
|$pdata$?minimp4_fgets@@YAHPEAUMP4D_demux_tag@@@Z| DCD imagerel |?minimp4_fgets@@YAHPEAUMP4D_demux_tag@@@Z|
	DCD	0x1600075
	;Flags[SingleProEpi] functionLength[116] RegF[0] RegI[0] H[0] frameChainReturn[Chained] frameSize[32]
|$pdata$?minimp4_read@@YAIPEAUMP4D_demux_tag@@HPEAH@Z| DCD imagerel |?minimp4_read@@YAIPEAUMP4D_demux_tag@@HPEAH@Z|
	DCD	0x26100f5
	;Flags[SingleProEpi] functionLength[244] RegF[0] RegI[1] H[0] frameChainReturn[Chained] frameSize[64]
|$pdata$?read_payload@@YAIPEAUMP4D_demux_tag@@IPEA_KPEAH@Z| DCD imagerel |?read_payload@@YAIPEAUMP4D_demux_tag@@IPEA_KPEAH@Z|
	DCD	0x1e00089
	;Flags[SingleProEpi] functionLength[136] RegF[0] RegI[0] H[0] frameChainReturn[Chained] frameSize[48]
|$pdata$?my_fseek@@YAXPEAUMP4D_demux_tag@@_KPEAH@Z| DCD imagerel |?my_fseek@@YAXPEAUMP4D_demux_tag@@_KPEAH@Z|
	DCD	0x1000059
	;Flags[SingleProEpi] functionLength[88] RegF[0] RegI[0] H[0] frameChainReturn[UnChained] frameSize[32]
|$pdata$?sample_to_chunk@@YAHPEAUMP4D_track_t@@IPEAI@Z| DCD imagerel |?sample_to_chunk@@YAHPEAUMP4D_track_t@@IPEAI@Z|
	DCD	0x1000141
	;Flags[SingleProEpi] functionLength[320] RegF[0] RegI[0] H[0] frameChainReturn[UnChained] frameSize[32]
|$pdata$?skip_spspps@@YAHPEBEHH@Z| DCD imagerel |?skip_spspps@@YAHPEBEHH@Z|
	DCD	0x10000d5
	;Flags[SingleProEpi] functionLength[212] RegF[0] RegI[0] H[0] frameChainReturn[UnChained] frameSize[32]
|$pdata$?MP4D_read_spspps@@YAPEBXPEBUMP4D_demux_tag@@IHHPEAH@Z| DCD imagerel |?MP4D_read_spspps@@YAPEBXPEBUMP4D_demux_tag@@IHHPEAH@Z|
	DCD	0x2e00291
	;Flags[SingleProEpi] functionLength[656] RegF[0] RegI[0] H[0] frameChainReturn[Chained] frameSize[80]
|$pdata$?RegisterSound@@YAXXZ| DCD imagerel |$LN4|
	DCD	0x2600061
	;Flags[SingleProEpi] functionLength[96] RegF[0] RegI[0] H[0] frameChainReturn[Chained] frameSize[64]
|$pdata$?PlayerThread@@YAXXZ| DCD imagerel |$LN9|
	DCD	0x26000d1
	;Flags[SingleProEpi] functionLength[208] RegF[0] RegI[0] H[0] frameChainReturn[Chained] frameSize[64]
|$pdata$?WindowHandleMessage@@YAXPEAU_post_event_@@@Z| DCD imagerel |$LN11|
	DCD	0x2e0019d
	;Flags[SingleProEpi] functionLength[412] RegF[0] RegI[0] H[0] frameChainReturn[Chained] frameSize[80]
|$pdata$?AboutClicked@@YAXPEAU_ChWidget_@@PEAU_chwin_@@@Z| DCD imagerel |$LN3|
	DCD	0x1e00049
	;Flags[SingleProEpi] functionLength[72] RegF[0] RegI[0] H[0] frameChainReturn[Chained] frameSize[48]
|$pdata$?ExitItemClicked@@YAXPEAU_ChWidget_@@PEAU_chwin_@@@Z| DCD imagerel |$LN3|
	DCD	0x1600025
	;Flags[SingleProEpi] functionLength[36] RegF[0] RegI[0] H[0] frameChainReturn[Chained] frameSize[32]
|$pdata$?DrawWallpaper@@YAXPEAU_ChCanvas_@@PEADHH@Z| DCD imagerel |$LN16|
	DCD	0x5e00305
	;Flags[SingleProEpi] functionLength[772] RegF[0] RegI[0] H[0] frameChainReturn[Chained] frameSize[176]
|$pdata$?UpdateHomeUI@@YAXXZ| DCD imagerel |$LN3|
	DCD	0xe00095
	;Flags[SingleProEpi] functionLength[148] RegF[0] RegI[0] H[0] frameChainReturn[Chained] frameSize[16]
|$pdata$?UpdateBrowserUI@@YAXXZ| DCD imagerel |$LN3|
	DCD	0xe00095
	;Flags[SingleProEpi] functionLength[148] RegF[0] RegI[0] H[0] frameChainReturn[Chained] frameSize[16]
|$pdata$?BrowseMenuActionHandler@@YAXPEAU_ChWidget_@@PEAU_chwin_@@@Z| DCD imagerel |$LN6|
	DCD	0x1600141
	;Flags[SingleProEpi] functionLength[320] RegF[0] RegI[0] H[0] frameChainReturn[Chained] frameSize[32]
|$pdata$?SelectButtonActionHandler@@YAXPEAU_ChWidget_@@PEAU_chwin_@@@Z| DCD imagerel |$LN4|
	DCD	0x1e0005d
	;Flags[SingleProEpi] functionLength[92] RegF[0] RegI[0] H[0] frameChainReturn[Chained] frameSize[48]
|$pdata$?MusicPrepareLibrary@@YAXPEAU_list_view_@@@Z| DCD imagerel |$LN8|
	DCD	0x1e000d9
	;Flags[SingleProEpi] functionLength[216] RegF[0] RegI[0] H[0] frameChainReturn[Chained] frameSize[48]
|$pdata$?PlayPauseButtonAction@@YAXPEAU_ChWidget_@@PEAU_chwin_@@@Z| DCD imagerel |$LN5|
	DCD	0x26000d9
	;Flags[SingleProEpi] functionLength[216] RegF[0] RegI[0] H[0] frameChainReturn[Chained] frameSize[64]
|$pdata$?PrepareBrowserUI@@YAXXZ| DCD imagerel |$LN3|
	DCD	0x160019d
	;Flags[SingleProEpi] functionLength[412] RegF[0] RegI[0] H[0] frameChainReturn[Chained] frameSize[32]
|$pdata$?AudioPlayerClose@@YAXPEAU_chwin_@@@Z| DCD imagerel |$LN9|
	DCD	0x1e000e1
	;Flags[SingleProEpi] functionLength[224] RegF[0] RegI[0] H[0] frameChainReturn[Chained] frameSize[48]
|$pdata$main| DCD imagerel |$LN7|
	DCD	0x9e004a5
	;Flags[SingleProEpi] functionLength[1188] RegF[0] RegI[0] H[0] frameChainReturn[Chained] frameSize[304]

	AREA	|.rdata|, DATA, READONLY
|?g_envelope_box@?6??MP4D_open@@9@4QBU<unnamed-type-g_envelope_box>@?6??1@YAHPEAUMP4D_demux_tag@@P6AH_JPEAX_K2@Z21@Z@B| DCD 0x65736473 ; `MP4D_open'::`7'::g_envelope_box
	DCD	0x1
	DCD	0x24242433
	DCD	0x1
	DCD	0x24242434
	DCD	0x1
	DCD	0x24242435
	DCD	0x1
	DCD	0x7472616b
	DCD	0x0
	DCD	0x6d6f6f76
	DCD	0x0
	DCD	0x6d646961
	DCD	0x0
	DCD	0x74726566
	DCD	0x0
	DCD	0x6d696e66
	DCD	0x0
	DCD	0x64696e66
	DCD	0x0
	DCD	0x7374626c
	DCD	0x0
	DCD	0x73747364
	DCD	0x0
	DCD	0x6d703461
	DCD	0x0
	DCD	0x6d703473
	DCD	0x0
	DCD	0x6d703476
	DCD	0x0
	DCD	0x61766331
	DCD	0x0
	DCD	0x68766331
	DCD	0x0
	DCD	0x75647461
	DCD	0x0
	DCD	0x6d657461
	DCD	0x0
	DCD	0x696c7374
	DCD	0x0

	AREA	|.rdata|, DATA, READONLY
|?g_fullbox@?6??MP4D_open@@9@4QBU<unnamed-type-g_fullbox>@?6??1@YAHPEAUMP4D_demux_tag@@P6AH_JPEAX_K2@Z21@Z@B| DCD 0x6d646864 ; `MP4D_open'::`7'::g_fullbox
	DCD	0x1
	DCD	0x1
	DCD	0x6d766864
	DCD	0x1
	DCD	0x0
	DCD	0x68646c72
	DCD	0x0
	DCD	0x0
	DCD	0x6d657461
	DCD	0x0
	DCD	0x0
	DCD	0x73747473
	DCD	0x0
	DCD	0x0
	DCD	0x63747473
	DCD	0x0
	DCD	0x0
	DCD	0x73747a32
	DCD	0x0
	DCD	0x1
	DCD	0x7374737a
	DCD	0x0
	DCD	0x1
	DCD	0x73747363
	DCD	0x0
	DCD	0x1
	DCD	0x7374636f
	DCD	0x0
	DCD	0x1
	DCD	0x636f3634
	DCD	0x0
	DCD	0x1
	DCD	0x73747364
	DCD	0x0
	DCD	0x0
	DCD	0x65736473
	DCD	0x0
	DCD	0x1

	AREA	|.xdata|, DATA
|$unwind$MP4D_open| DCD 0x104008d9
	DCD	0x4008b7
	DCD	0x64c040e1
	DCD	0xe3e401d4
	;Code Words[2], Epilog Count[1], E[0], X[0], Function Length[2265]=9060 bytes
	;Epilog Start Index[1], Epilog Start Offset[2231]=8924 bytes
	;set_fp
	;save_fplr
	;alloc_m
	;save_reg_x
	;end
	;nop
|$unwind$?mp4e_flush_index@@YAHPEAUMP4E_mux_tag@@@Z| DCD 0x8401e73
	DCD	0x401e6d
	DCD	0xe3e4b3e1
	;Code Words[1], Epilog Count[1], E[0], X[0], Function Length[7795]=31180 bytes
	;Epilog Start Index[1], Epilog Start Offset[7789]=31156 bytes
	;set_fp
	;save_fplr_x
	;end
	;nop
|$unwind$?mp4e_write_fragment_header@@YAHPEAUMP4E_mux_tag@@HHHH@Z| DCD 0x104004cc
	DCD	0x4004c6
	DCD	0x47c040e1
	DCD	0xe3e3e3e4
	;Code Words[2], Epilog Count[1], E[0], X[0], Function Length[1228]=4912 bytes
	;Epilog Start Index[1], Epilog Start Offset[1222]=4888 bytes
	;set_fp
	;save_fplr
	;alloc_m
	;end
	;nop
	;nop
	;nop
; Function compile flags: /Odtp
; File C:\Users\paras\source\repos\grep-name\XenevaOS\Process\AudioPlayer\main.cpp

	AREA	|.text$mn|, CODE, ARM64

|main|	PROC

; 351  : int main(int argc, char* argv[]){

|$LN7|
	stp         fp,lr,[sp,#-0x130]!
	mov         fp,sp
	str         w0,[sp,#0x10]
	str         x1,[sp,#0x30]

; 352  : 
; 353  : 	app = ChitralekhaStartApp(argc, argv);

	ldr         x1,[sp,#0x30]
	ldr         w0,[sp,#0x10]
	bl          ChitralekhaStartApp
	adrp        x8,|?app@@3PEAU_ChApp_@@EA|
	str         x0,[x8,PageOffset(|?app@@3PEAU_ChApp_@@EA|)]

; 354  : 	mainWin = ChCreateWindow(app, WINDOW_FLAG_MOVABLE, "Accent", 100, 100, CHITRALEKHA_DEFAULT_WIN_WIDTH, 

	mov         w6,#0x1F4
	mov         w5,#0x190
	mov         w4,#0x64
	mov         w3,#0x64
	adrp        x8,|$SG9624|
	add         x2,x8,PageOffset(|$SG9624|)
	mov         w1,#1
	adrp        x8,|?app@@3PEAU_ChApp_@@EA|
	ldr         x0,[x8,PageOffset(|?app@@3PEAU_ChApp_@@EA|)]
	bl          ChCreateWindow
	adrp        x8,|?mainWin@@3PEAU_chwin_@@EA|
	str         x0,[x8,PageOffset(|?mainWin@@3PEAU_chwin_@@EA|)]

; 355  : 		500);
; 356  : 
; 357  : 	_music_library_drawn = false;

	adrp        x9,|?_music_library_drawn@@3DA|
	mov         w8,#0
	strb        w8,[x9,PageOffset(|?_music_library_drawn@@3DA|)]

; 358  : 	_start_player = false;

	adrp        x9,|?_start_player@@3DA|
	mov         w8,#0
	strb        w8,[x9,PageOffset(|?_start_player@@3DA|)]

; 359  : 	selectedFile = NULL;

	adrp        x9,|?selectedFile@@3PEADEA|
	mov         x8,#0
	str         x8,[x9,PageOffset(|?selectedFile@@3PEADEA|)]

; 360  : 
; 361  : 	if (argc > 1) {

	ldr         w8,[sp,#0x10]
	cmp         w8,#1
	ble         |$LN4@main|

; 362  : 		selectedFile = argv[1];

	ldr         x8,[sp,#0x30]
	add         x8,x8,#8
	adrp        x9,|?selectedFile@@3PEADEA|
	ldr         x8,[x8]
	str         x8,[x9,PageOffset(|?selectedFile@@3PEADEA|)]

; 363  : 		_auto_start = true;

	adrp        x9,|?_auto_start@@3DA|
	mov         w8,#1
	strb        w8,[x9,PageOffset(|?_auto_start@@3DA|)]

; 364  : 		_file = _KeOpenFile(selectedFile, FILE_OPEN_READ_ONLY);

	mov         w1,#2
	adrp        x8,|?selectedFile@@3PEADEA|
	ldr         x0,[x8,PageOffset(|?selectedFile@@3PEADEA|)]
	bl          _KeOpenFile
	mov         w0,w0
	adrp        x8,|?_file@@3HA|
	str         w0,[x8,PageOffset(|?_file@@3HA|)]

; 365  : 		_start_player = true;

	adrp        x9,|?_start_player@@3DA|
	mov         w8,#1
	strb        w8,[x9,PageOffset(|?_start_player@@3DA|)]
|$LN4@main|

; 366  : 	}
; 367  : 	
; 368  : 	mainWin->ChCloseWin = AudioPlayerClose;

	adrp        x8,|?mainWin@@3PEAU_chwin_@@EA|
	ldr         x8,[x8,PageOffset(|?mainWin@@3PEAU_chwin_@@EA|)]
	add         x9,x8,#0xD8
	adrp        x8,|?AudioPlayerClose@@YAXPEAU_chwin_@@@Z|
	add         x8,x8,PageOffset(|?AudioPlayerClose@@YAXPEAU_chwin_@@@Z|)
	str         x8,[x9]

; 369  : 
; 370  : 	mainMenubar = ChCreateMenubar(mainWin);

	adrp        x8,|?mainWin@@3PEAU_chwin_@@EA|
	ldr         x0,[x8,PageOffset(|?mainWin@@3PEAU_chwin_@@EA|)]
	bl          ChCreateMenubar
	adrp        x8,|?mainMenubar@@3PEAU_menubar_@@EA|
	str         x0,[x8,PageOffset(|?mainMenubar@@3PEAU_menubar_@@EA|)]

; 371  : 
; 372  : 	ChMenuButton *file = ChCreateMenubutton(mainMenubar, "File");

	adrp        x8,|$SG9626|
	add         x1,x8,PageOffset(|$SG9626|)
	adrp        x8,|?mainMenubar@@3PEAU_menubar_@@EA|
	ldr         x0,[x8,PageOffset(|?mainMenubar@@3PEAU_menubar_@@EA|)]
	bl          ChCreateMenubutton
	str         x0,[sp,#0x38]

; 373  : 	ChMenubarAddButton(mainMenubar, file);

	ldr         x1,[sp,#0x38]
	adrp        x8,|?mainMenubar@@3PEAU_menubar_@@EA|
	ldr         x0,[x8,PageOffset(|?mainMenubar@@3PEAU_menubar_@@EA|)]
	bl          ChMenubarAddButton

; 374  : 	ChMenuButton *edit = ChCreateMenubutton(mainMenubar, "Help");

	adrp        x8,|$SG9627|
	add         x1,x8,PageOffset(|$SG9627|)
	adrp        x8,|?mainMenubar@@3PEAU_menubar_@@EA|
	ldr         x0,[x8,PageOffset(|?mainMenubar@@3PEAU_menubar_@@EA|)]
	bl          ChCreateMenubutton
	str         x0,[sp,#0x48]

; 375  : 	ChMenubarAddButton(mainMenubar, edit);

	ldr         x1,[sp,#0x48]
	adrp        x8,|?mainMenubar@@3PEAU_menubar_@@EA|
	ldr         x0,[x8,PageOffset(|?mainMenubar@@3PEAU_menubar_@@EA|)]
	bl          ChMenubarAddButton

; 376  : 
; 377  : 	ChPopupMenu* pm = ChCreatePopupMenu(mainWin,NULL);

	mov         x1,#0
	adrp        x8,|?mainWin@@3PEAU_chwin_@@EA|
	ldr         x0,[x8,PageOffset(|?mainWin@@3PEAU_chwin_@@EA|)]
	bl          ChCreatePopupMenu
	str         x0,[sp,#0x28]

; 378  : 	ChMenuItem* browse = ChCreateMenuItem("Select Song...", pm);

	ldr         x1,[sp,#0x28]
	adrp        x8,|$SG9628|
	add         x0,x8,PageOffset(|$SG9628|)
	bl          ChCreateMenuItem
	str         x0,[sp,#0x50]

; 379  : 	browse->wid.ChActionHandler = BrowseMenuActionHandler;

	ldr         x8,[sp,#0x50]
	add         x9,x8,#0x20
	adrp        x8,|?BrowseMenuActionHandler@@YAXPEAU_ChWidget_@@PEAU_chwin_@@@Z|
	add         x8,x8,PageOffset(|?BrowseMenuActionHandler@@YAXPEAU_ChWidget_@@PEAU_chwin_@@@Z|)
	str         x8,[x9]

; 380  : 	ChMenuItem* item = ChCreateMenuItem("Exit", pm);

	ldr         x1,[sp,#0x28]
	adrp        x8,|$SG9629|
	add         x0,x8,PageOffset(|$SG9629|)
	bl          ChCreateMenuItem
	str         x0,[sp,#0x58]

; 381  : 	item->wid.ChActionHandler = ExitItemClicked;

	ldr         x8,[sp,#0x58]
	add         x9,x8,#0x20
	adrp        x8,|?ExitItemClicked@@YAXPEAU_ChWidget_@@PEAU_chwin_@@@Z|
	add         x8,x8,PageOffset(|?ExitItemClicked@@YAXPEAU_ChWidget_@@PEAU_chwin_@@@Z|)
	str         x8,[x9]

; 382  : 	ChMenuButtonAddMenu(file, pm);

	ldr         x1,[sp,#0x28]
	ldr         x0,[sp,#0x38]
	bl          ChMenuButtonAddMenu

; 383  : 
; 384  : 	ChPopupMenu* help = ChCreatePopupMenu(mainWin, NULL);

	mov         x1,#0
	adrp        x8,|?mainWin@@3PEAU_chwin_@@EA|
	ldr         x0,[x8,PageOffset(|?mainWin@@3PEAU_chwin_@@EA|)]
	bl          ChCreatePopupMenu
	str         x0,[sp,#0x40]

; 385  : 	ChMenuItem* about = ChCreateMenuItem("About", help);

	ldr         x1,[sp,#0x40]
	adrp        x8,|$SG9630|
	add         x0,x8,PageOffset(|$SG9630|)
	bl          ChCreateMenuItem
	str         x0,[sp,#0x60]

; 386  : 	about->wid.ChActionHandler = AboutClicked;

	ldr         x8,[sp,#0x60]
	add         x9,x8,#0x20
	adrp        x8,|?AboutClicked@@YAXPEAU_ChWidget_@@PEAU_chwin_@@@Z|
	add         x8,x8,PageOffset(|?AboutClicked@@YAXPEAU_ChWidget_@@PEAU_chwin_@@@Z|)
	str         x8,[x9]

; 387  : 	ChMenuButtonAddMenu(edit, help);

	ldr         x1,[sp,#0x40]
	ldr         x0,[sp,#0x48]
	bl          ChMenuButtonAddMenu

; 388  : 
; 389  : 	ChWindowAddWidget(mainWin, (ChWidget*)mainMenubar);

	adrp        x8,|?mainMenubar@@3PEAU_menubar_@@EA|
	ldr         x1,[x8,PageOffset(|?mainMenubar@@3PEAU_menubar_@@EA|)]
	adrp        x8,|?mainWin@@3PEAU_chwin_@@EA|
	ldr         x0,[x8,PageOffset(|?mainWin@@3PEAU_chwin_@@EA|)]
	bl          ChWindowAddWidget

; 390  : 
; 391  : 	
; 392  : 	ChButton *prevbutt = ChCreateButton(10, mainWin->info->height - 100, 100,65, "Previous");

	adrp        x8,|?mainWin@@3PEAU_chwin_@@EA|
	ldr         x8,[x8,PageOffset(|?mainWin@@3PEAU_chwin_@@EA|)]
	add         x8,x8,#0x28
	ldr         x9,[x8]
	mov         x8,#0x1014
	add         x8,x9,x8
	ldr         w8,[x8]
	sub         w1,w8,#0x64
	adrp        x8,|$SG9631|
	add         x4,x8,PageOffset(|$SG9631|)
	mov         w3,#0x41
	mov         w2,#0x64
	mov         w1,w1
	mov         w0,#0xA
	bl          ChCreateButton
	str         x0,[sp,#0x68]

; 393  : 	ChWindowAddWidget(mainWin, (ChWidget*)prevbutt);

	ldr         x1,[sp,#0x68]
	adrp        x8,|?mainWin@@3PEAU_chwin_@@EA|
	ldr         x0,[x8,PageOffset(|?mainWin@@3PEAU_chwin_@@EA|)]
	bl          ChWindowAddWidget

; 394  : 
; 395  : 	ChButton *playbutt = ChCreateButton(mainWin->info->width / 2 - 140/2, mainWin->info->height - 100, 140, 65, "Play/Pause");

	adrp        x8,|?mainWin@@3PEAU_chwin_@@EA|
	ldr         x8,[x8,PageOffset(|?mainWin@@3PEAU_chwin_@@EA|)]
	add         x8,x8,#0x28
	ldr         x9,[x8]
	mov         x8,#0x1014
	add         x8,x9,x8
	ldr         w8,[x8]
	sub         w1,w8,#0x64
	adrp        x8,|?mainWin@@3PEAU_chwin_@@EA|
	ldr         x8,[x8,PageOffset(|?mainWin@@3PEAU_chwin_@@EA|)]
	add         x8,x8,#0x28
	ldr         x9,[x8]
	mov         x8,#0x1010
	add         x8,x9,x8
	ldr         w9,[x8]
	mov         w8,#2
	sdiv        w8,w9,w8
	sub         w0,w8,#0x46
	adrp        x8,|$SG9632|
	add         x4,x8,PageOffset(|$SG9632|)
	mov         w3,#0x41
	mov         w2,#0x8C
	mov         w1,w1
	mov         w0,w0
	bl          ChCreateButton
	str         x0,[sp,#0x18]

; 396  : 	playbutt->base.ChActionHandler = PlayPauseButtonAction;

	ldr         x8,[sp,#0x18]
	add         x9,x8,#0x20
	adrp        x8,|?PlayPauseButtonAction@@YAXPEAU_ChWidget_@@PEAU_chwin_@@@Z|
	add         x8,x8,PageOffset(|?PlayPauseButtonAction@@YAXPEAU_ChWidget_@@PEAU_chwin_@@@Z|)
	str         x8,[x9]

; 397  : 	ChWindowAddWidget(mainWin, (ChWidget*)playbutt);

	ldr         x1,[sp,#0x18]
	adrp        x8,|?mainWin@@3PEAU_chwin_@@EA|
	ldr         x0,[x8,PageOffset(|?mainWin@@3PEAU_chwin_@@EA|)]
	bl          ChWindowAddWidget

; 398  : 
; 399  : 	ChButton *nextbutt = ChCreateButton((playbutt->base.x + playbutt->base.w) + 18, mainWin->info->height - 100, 100, 65, "Next");

	adrp        x8,|?mainWin@@3PEAU_chwin_@@EA|
	ldr         x8,[x8,PageOffset(|?mainWin@@3PEAU_chwin_@@EA|)]
	add         x8,x8,#0x28
	ldr         x9,[x8]
	mov         x8,#0x1014
	add         x8,x9,x8
	ldr         w8,[x8]
	sub         w1,w8,#0x64
	ldr         x9,[sp,#0x18]
	ldr         x8,[sp,#0x18]
	add         x8,x8,#8
	ldr         w9,[x9]
	ldr         w8,[x8]
	add         w8,w9,w8
	add         w0,w8,#0x12
	adrp        x8,|$SG9633|
	add         x4,x8,PageOffset(|$SG9633|)
	mov         w3,#0x41
	mov         w2,#0x64
	mov         w1,w1
	mov         w0,w0
	bl          ChCreateButton
	str         x0,[sp,#0x70]

; 400  : 	ChWindowAddWidget(mainWin, (ChWidget*)nextbutt);

	ldr         x1,[sp,#0x70]
	adrp        x8,|?mainWin@@3PEAU_chwin_@@EA|
	ldr         x0,[x8,PageOffset(|?mainWin@@3PEAU_chwin_@@EA|)]
	bl          ChWindowAddWidget

; 401  : 
; 402  : 	ChWindowPaint(mainWin);

	adrp        x8,|?mainWin@@3PEAU_chwin_@@EA|
	ldr         x0,[x8,PageOffset(|?mainWin@@3PEAU_chwin_@@EA|)]
	bl          ChWindowPaint

; 403  : 
; 404  : 	DrawWallpaper(mainWin->canv, "/musicbk.jpg", 10, 64);

	adrp        x8,|?mainWin@@3PEAU_chwin_@@EA|
	ldr         x8,[x8,PageOffset(|?mainWin@@3PEAU_chwin_@@EA|)]
	add         x9,x8,#0x18
	mov         w3,#0x40
	mov         w2,#0xA
	adrp        x8,|$SG9634|
	add         x1,x8,PageOffset(|$SG9634|)
	ldr         x0,[x9]
	bl          |?DrawWallpaper@@YAXPEAU_ChCanvas_@@PEADHH@Z|

; 405  : 	ChWindowUpdate(mainWin, 0, 0, mainWin->info->width,

	adrp        x8,|?mainWin@@3PEAU_chwin_@@EA|
	ldr         x8,[x8,PageOffset(|?mainWin@@3PEAU_chwin_@@EA|)]
	add         x8,x8,#0x28
	ldr         x9,[x8]
	mov         x8,#0x1014
	add         x10,x9,x8
	adrp        x8,|?mainWin@@3PEAU_chwin_@@EA|
	ldr         x8,[x8,PageOffset(|?mainWin@@3PEAU_chwin_@@EA|)]
	add         x8,x8,#0x28
	ldr         x9,[x8]
	mov         x8,#0x1010
	add         x8,x9,x8
	mov         w6,#0
	mov         w5,#1
	ldr         w4,[x10]
	ldr         w3,[x8]
	mov         w2,#0
	mov         w1,#0
	adrp        x8,|?mainWin@@3PEAU_chwin_@@EA|
	ldr         x0,[x8,PageOffset(|?mainWin@@3PEAU_chwin_@@EA|)]
	bl          ChWindowUpdate

; 406  : 	mainWin->info->height, 1, 0);
; 407  : 	
; 408  : 	mainCanvas = mainWin->canv;

	adrp        x8,|?mainWin@@3PEAU_chwin_@@EA|
	ldr         x8,[x8,PageOffset(|?mainWin@@3PEAU_chwin_@@EA|)]
	add         x8,x8,#0x18
	adrp        x9,|?mainCanvas@@3PEAU_ChCanvas_@@EA|
	ldr         x8,[x8]
	str         x8,[x9,PageOffset(|?mainCanvas@@3PEAU_ChCanvas_@@EA|)]

; 409  : 
; 410  : 	soundbuff = malloc(4096);

	mov         w0,#0x1000
	bl          malloc
	adrp        x8,|?soundbuff@@3PEAXEA|
	str         x0,[x8,PageOffset(|?soundbuff@@3PEAXEA|)]

; 411  : 	memset(soundbuff, 0, 4096);

	mov         x2,#0x1000
	mov         w1,#0
	adrp        x8,|?soundbuff@@3PEAXEA|
	ldr         x0,[x8,PageOffset(|?soundbuff@@3PEAXEA|)]
	bl          memset

; 412  : 
; 413  : 
; 414  : 	/* prepare the browser UI*/
; 415  : 	PrepareBrowserUI();

	bl          |?PrepareBrowserUI@@YAXXZ|

; 416  : 
; 417  : 	//int threadIdx = _KeCreateThread(PlayerThread,"accent");
; 418  : 
; 419  : 	PostEvent e;
; 420  : 	memset(&e, 0, sizeof(PostEvent));

	mov         x2,#0xB0
	mov         w1,#0
	add         x0,sp,#0x78
	bl          memset

; 421  : 
; 422  : 	ChWindowBroadcastIcon(app, "/icons/media.bmp");

	adrp        x8,|$SG9635|
	add         x1,x8,PageOffset(|$SG9635|)
	adrp        x8,|?app@@3PEAU_ChApp_@@EA|
	ldr         x0,[x8,PageOffset(|?app@@3PEAU_ChApp_@@EA|)]
	bl          ChWindowBroadcastIcon

; 423  : 
; 424  : 	setjmp(mainWin->jump);

	adrp        x8,|?mainWin@@3PEAU_chwin_@@EA|
	ldr         x8,[x8,PageOffset(|?mainWin@@3PEAU_chwin_@@EA|)]
	add         x0,x8,#0x88
	bl          setjmp
|$LN2@main|

; 425  : 	while (1) {

	mov         w8,#1
	cmp         w8,#0
	beq         |$LN3@main|

; 426  : 		int err = _KeFileIoControl(app->postboxfd, POSTBOX_GET_EVENT, &e);

	adrp        x8,|?app@@3PEAU_ChApp_@@EA|
	ldr         x8,[x8,PageOffset(|?app@@3PEAU_ChApp_@@EA|)]
	add         x2,sp,#0x78
	mov         w1,#0x194
	ldr         w0,[x8]
	bl          _KeFileIoControl
	mov         w0,w0
	str         w0,[sp,#0x20]

; 427  : 		WindowHandleMessage(&e);

	add         x0,sp,#0x78
	bl          |?WindowHandleMessage@@YAXPEAU_post_event_@@@Z|

; 428  : 		if (err == POSTBOX_NO_EVENT)

	ldr         w8,[sp,#0x20]
	cmn         w8,#1
	bne         |$LN5@main|

; 429  : 			_KePauseThread();

	bl          _KePauseThread
|$LN5@main|

; 430  : 	}

	b           |$LN2@main|
|$LN3@main|
	ldp         fp,lr,[sp],#0x130
	ret

	ENDP  ; |main|

; Function compile flags: /Odtp
; File C:\Users\paras\source\repos\grep-name\XenevaOS\Process\AudioPlayer\main.cpp

	AREA	|.text$mn|, CODE, ARM64

|?AudioPlayerClose@@YAXPEAU_chwin_@@@Z| PROC		; AudioPlayerClose

; 331  : void AudioPlayerClose(ChWindow* win) {

|$LN9|
	stp         fp,lr,[sp,#-0x30]!
	mov         fp,sp
	str         x0,[sp,#0x20]

; 332  : 	for (int i = 0; i < browserWidgetList->pointer; i++) {

	mov         w8,#0
	str         w8,[sp,#0x10]
	b           |$LN4@AudioPlaye|
|$LN2@AudioPlaye|
	ldr         w8,[sp,#0x10]
	add         w8,w8,#1
	str         w8,[sp,#0x10]
|$LN4@AudioPlaye|
	adrp        x8,|?browserWidgetList@@3PEAU_list_@@EA|
	ldr         x8,[x8,PageOffset(|?browserWidgetList@@3PEAU_list_@@EA|)]
	ldr         w9,[x8]
	ldr         w8,[sp,#0x10]
	cmp         w8,w9
	bhs         |$LN3@AudioPlaye|

; 333  : 		ChWidget* wid = (ChWidget*)list_get_at(browserWidgetList, i);

	ldr         w1,[sp,#0x10]
	adrp        x8,|?browserWidgetList@@3PEAU_list_@@EA|
	ldr         x0,[x8,PageOffset(|?browserWidgetList@@3PEAU_list_@@EA|)]
	bl          list_get_at
	str         x0,[sp,#0x18]

; 334  : 		if (wid == (ChWidget*)mainMenubar){

	adrp        x8,|?mainMenubar@@3PEAU_menubar_@@EA|
	ldr         x9,[x8,PageOffset(|?mainMenubar@@3PEAU_menubar_@@EA|)]
	ldr         x8,[sp,#0x18]
	cmp         x8,x9
	bne         |$LN5@AudioPlaye|

; 335  : 			list_remove(browserWidgetList, i);

	ldr         w1,[sp,#0x10]
	adrp        x8,|?browserWidgetList@@3PEAU_list_@@EA|
	ldr         x0,[x8,PageOffset(|?browserWidgetList@@3PEAU_list_@@EA|)]
	bl          list_remove

; 336  : 		}

	b           |$LN6@AudioPlaye|
|$LN5@AudioPlaye|

; 337  : 		else {
; 338  : 			if (wid->ChDestroy)

	ldr         x8,[sp,#0x18]
	add         x8,x8,#0x48
	ldr         x8,[x8]
	cmp         x8,#0
	beq         |$LN7@AudioPlaye|

; 339  : 				wid->ChDestroy(wid, win);

	ldr         x8,[sp,#0x18]
	add         x8,x8,#0x48
	ldr         x1,[sp,#0x20]
	ldr         x0,[sp,#0x18]
	ldr         x8,[x8]
	blr         x8
|$LN7@AudioPlaye|
|$LN6@AudioPlaye|

; 340  : 		}
; 341  : 	}

	b           |$LN2@AudioPlaye|
|$LN3@AudioPlaye|

; 342  : 	list_clear_all(browserWidgetList);

	adrp        x8,|?browserWidgetList@@3PEAU_list_@@EA|
	ldr         x0,[x8,PageOffset(|?browserWidgetList@@3PEAU_list_@@EA|)]
	bl          list_clear_all

; 343  : 	free(browserWidgetList);

	adrp        x8,|?browserWidgetList@@3PEAU_list_@@EA|
	ldr         x0,[x8,PageOffset(|?browserWidgetList@@3PEAU_list_@@EA|)]
	bl          free

; 344  : 	ChDeAllocateBuffer(browserCanvas);

	adrp        x8,|?browserCanvas@@3PEAU_ChCanvas_@@EA|
	ldr         x0,[x8,PageOffset(|?browserCanvas@@3PEAU_ChCanvas_@@EA|)]
	bl          ChDeAllocateBuffer

; 345  : 	free(browserCanvas);

	adrp        x8,|?browserCanvas@@3PEAU_ChCanvas_@@EA|
	ldr         x0,[x8,PageOffset(|?browserCanvas@@3PEAU_ChCanvas_@@EA|)]
	bl          free
	ldp         fp,lr,[sp],#0x30
	ret

	ENDP  ; |?AudioPlayerClose@@YAXPEAU_chwin_@@@Z|, AudioPlayerClose

; Function compile flags: /Odtp
; File C:\Users\paras\source\repos\grep-name\XenevaOS\Process\AudioPlayer\main.cpp

	AREA	|.text$mn|, CODE, ARM64

|?PrepareBrowserUI@@YAXXZ| PROC				; PrepareBrowserUI

; 300  : void PrepareBrowserUI(){

|$LN3|
	stp         fp,lr,[sp,#-0x20]!
	mov         fp,sp

; 301  : 	/* allocate the browser canvas */
; 302  : 	browserCanvas = ChCreateCanvas(mainWin->canv->canvasWidth, mainWin->canv->canvasHeight);

	adrp        x8,|?mainWin@@3PEAU_chwin_@@EA|
	ldr         x8,[x8,PageOffset(|?mainWin@@3PEAU_chwin_@@EA|)]
	add         x8,x8,#0x18
	ldr         x8,[x8]
	add         x9,x8,#0x1C
	adrp        x8,|?mainWin@@3PEAU_chwin_@@EA|
	ldr         x8,[x8,PageOffset(|?mainWin@@3PEAU_chwin_@@EA|)]
	add         x8,x8,#0x18
	ldr         x8,[x8]
	add         x8,x8,#0x18
	ldr         w1,[x9]
	ldr         w0,[x8]
	bl          ChCreateCanvas
	adrp        x8,|?browserCanvas@@3PEAU_ChCanvas_@@EA|
	str         x0,[x8,PageOffset(|?browserCanvas@@3PEAU_ChCanvas_@@EA|)]

; 303  : 	ChAllocateBuffer(browserCanvas);

	adrp        x8,|?browserCanvas@@3PEAU_ChCanvas_@@EA|
	ldr         x0,[x8,PageOffset(|?browserCanvas@@3PEAU_ChCanvas_@@EA|)]
	bl          ChAllocateBuffer

; 304  : 	mainWidgetList = mainWin->widgets;

	adrp        x8,|?mainWin@@3PEAU_chwin_@@EA|
	ldr         x8,[x8,PageOffset(|?mainWin@@3PEAU_chwin_@@EA|)]
	add         x8,x8,#0x50
	adrp        x9,|?mainWidgetList@@3PEAU_list_@@EA|
	ldr         x8,[x8]
	str         x8,[x9,PageOffset(|?mainWidgetList@@3PEAU_list_@@EA|)]

; 305  : 	browserWidgetList = initialize_list();

	bl          initialize_list
	adrp        x8,|?browserWidgetList@@3PEAU_list_@@EA|
	str         x0,[x8,PageOffset(|?browserWidgetList@@3PEAU_list_@@EA|)]

; 306  : 
; 307  : 	musicIcon = ChCreateIcon();

	bl          ChCreateIcon
	adrp        x8,|?musicIcon@@3PEAU_icon_@@EA|
	str         x0,[x8,PageOffset(|?musicIcon@@3PEAU_icon_@@EA|)]

; 308  : 	ChIconOpen(musicIcon, "/icons/music.bmp");

	adrp        x8,|$SG9586|
	add         x1,x8,PageOffset(|$SG9586|)
	adrp        x8,|?musicIcon@@3PEAU_icon_@@EA|
	ldr         x0,[x8,PageOffset(|?musicIcon@@3PEAU_icon_@@EA|)]
	bl          ChIconOpen

; 309  : 	ChIconRead(musicIcon);

	adrp        x8,|?musicIcon@@3PEAU_icon_@@EA|
	ldr         x0,[x8,PageOffset(|?musicIcon@@3PEAU_icon_@@EA|)]
	bl          ChIconRead

; 310  : 
; 311  : 	ChScrollPane* sp = ChCreateScrollPane(mainWin, 10, 64, 100, 380);

	mov         w4,#0x17C
	mov         w3,#0x64
	mov         w2,#0x40
	mov         w1,#0xA
	adrp        x8,|?mainWin@@3PEAU_chwin_@@EA|
	ldr         x0,[x8,PageOffset(|?mainWin@@3PEAU_chwin_@@EA|)]
	bl          ChCreateScrollPane
	str         x0,[sp,#0x10]

; 312  : 	browseList = ChCreateListView(10, 100, 380, 380);

	mov         w3,#0x17C
	mov         w2,#0x17C
	mov         w1,#0x64
	mov         w0,#0xA
	bl          ChCreateListView
	adrp        x8,|?browseList@@3PEAU_list_view_@@EA|
	str         x0,[x8,PageOffset(|?browseList@@3PEAU_list_view_@@EA|)]

; 313  : 	ChListViewSetScrollpane(browseList, sp);

	ldr         x1,[sp,#0x10]
	adrp        x8,|?browseList@@3PEAU_list_view_@@EA|
	ldr         x0,[x8,PageOffset(|?browseList@@3PEAU_list_view_@@EA|)]
	bl          ChListViewSetScrollpane

; 314  : 
; 315  : 	MusicPrepareLibrary(browseList);

	adrp        x8,|?browseList@@3PEAU_list_view_@@EA|
	ldr         x0,[x8,PageOffset(|?browseList@@3PEAU_list_view_@@EA|)]
	bl          |?MusicPrepareLibrary@@YAXPEAU_list_view_@@@Z|

; 316  : 
; 317  : 	ChButton *selectButt = ChCreateButton(mainWin->info->width - 75, 36, 65, 35, "Select");

	adrp        x8,|?mainWin@@3PEAU_chwin_@@EA|
	ldr         x8,[x8,PageOffset(|?mainWin@@3PEAU_chwin_@@EA|)]
	add         x8,x8,#0x28
	ldr         x9,[x8]
	mov         x8,#0x1010
	add         x8,x9,x8
	ldr         w8,[x8]
	sub         w0,w8,#0x4B
	adrp        x8,|$SG9587|
	add         x4,x8,PageOffset(|$SG9587|)
	mov         w3,#0x23
	mov         w2,#0x41
	mov         w1,#0x24
	mov         w0,w0
	bl          ChCreateButton
	str         x0,[sp,#0x18]

; 318  : 	selectButt->base.ChActionHandler = SelectButtonActionHandler;

	ldr         x8,[sp,#0x18]
	add         x9,x8,#0x20
	adrp        x8,|?SelectButtonActionHandler@@YAXPEAU_ChWidget_@@PEAU_chwin_@@@Z|
	add         x8,x8,PageOffset(|?SelectButtonActionHandler@@YAXPEAU_ChWidget_@@PEAU_chwin_@@@Z|)
	str         x8,[x9]

; 319  : 	list_add(browserWidgetList, mainMenubar);

	adrp        x8,|?mainMenubar@@3PEAU_menubar_@@EA|
	ldr         x1,[x8,PageOffset(|?mainMenubar@@3PEAU_menubar_@@EA|)]
	adrp        x8,|?browserWidgetList@@3PEAU_list_@@EA|
	ldr         x0,[x8,PageOffset(|?browserWidgetList@@3PEAU_list_@@EA|)]
	bl          list_add

; 320  : 	list_add(browserWidgetList, browseList);

	adrp        x8,|?browseList@@3PEAU_list_view_@@EA|
	ldr         x1,[x8,PageOffset(|?browseList@@3PEAU_list_view_@@EA|)]
	adrp        x8,|?browserWidgetList@@3PEAU_list_@@EA|
	ldr         x0,[x8,PageOffset(|?browserWidgetList@@3PEAU_list_@@EA|)]
	bl          list_add

; 321  : 	list_add(browserWidgetList, sp);

	ldr         x1,[sp,#0x10]
	adrp        x8,|?browserWidgetList@@3PEAU_list_@@EA|
	ldr         x0,[x8,PageOffset(|?browserWidgetList@@3PEAU_list_@@EA|)]
	bl          list_add

; 322  : 	list_add(browserWidgetList, selectButt);

	ldr         x1,[sp,#0x18]
	adrp        x8,|?browserWidgetList@@3PEAU_list_@@EA|
	ldr         x0,[x8,PageOffset(|?browserWidgetList@@3PEAU_list_@@EA|)]
	bl          list_add
	ldp         fp,lr,[sp],#0x20
	ret

	ENDP  ; |?PrepareBrowserUI@@YAXXZ|, PrepareBrowserUI

; Function compile flags: /Odtp
; File C:\Users\paras\source\repos\grep-name\XenevaOS\Process\AudioPlayer\main.cpp

	AREA	|.text$mn|, CODE, ARM64

|?PlayPauseButtonAction@@YAXPEAU_ChWidget_@@PEAU_chwin_@@@Z| PROC ; PlayPauseButtonAction

; 283  : void PlayPauseButtonAction(ChWidget* wid, ChWindow* mainWin) {

|$LN5|
	stp         fp,lr,[sp,#-0x40]!
	mov         fp,sp
	str         x0,[sp,#0x10]
	str         x1,[sp,#0x18]

; 284  : 	if (selectedFile != NULL) {

	adrp        x8,|?selectedFile@@3PEADEA|
	ldr         x8,[x8,PageOffset(|?selectedFile@@3PEADEA|)]
	cmp         x8,#0
	beq         |$LN2@PlayPauseB|

; 285  : 		if (!_auto_start) {

	adrp        x8,|?_auto_start@@3DA|
	ldrsb       w8,[x8,PageOffset(|?_auto_start@@3DA|)]
	mov         w8,w8
	cmp         w8,#0
	bne         |$LN3@PlayPauseB|

; 286  : 			char path[32];
; 287  : 			memset(path, 0, 32);

	mov         x2,#0x20
	mov         w1,#0
	add         x0,sp,#0x20
	bl          memset

; 288  : 			strcpy(path, "/MUSIC/");

	adrp        x8,|$SG9577|
	add         x1,x8,PageOffset(|$SG9577|)
	add         x0,sp,#0x20
	bl          strcpy

; 289  : 			strcpy(path + strlen("/MUSIC/"), selectedFile);

	adrp        x8,|$SG9578|
	add         x0,x8,PageOffset(|$SG9578|)
	bl          strlen
	add         x8,sp,#0x20
	add         x0,x8,x0
	adrp        x8,|?selectedFile@@3PEADEA|
	ldr         x1,[x8,PageOffset(|?selectedFile@@3PEADEA|)]
	bl          strcpy

; 290  : 			_KePrint("Selected file -> %s \r\n", path);

	add         x1,sp,#0x20
	adrp        x8,|$SG9579|
	add         x0,x8,PageOffset(|$SG9579|)
	bl          _KePrint

; 291  : 			_file = _KeOpenFile(path, FILE_OPEN_READ_ONLY);

	mov         w1,#2
	add         x0,sp,#0x20
	bl          _KeOpenFile
	mov         w0,w0
	adrp        x8,|?_file@@3HA|
	str         w0,[x8,PageOffset(|?_file@@3HA|)]

; 292  : 			_KePrint("_file -> %d \r\n", _file);

	adrp        x8,|?_file@@3HA|
	ldr         w1,[x8,PageOffset(|?_file@@3HA|)]
	adrp        x8,|$SG9580|
	add         x0,x8,PageOffset(|$SG9580|)
	bl          _KePrint

; 293  : 			_start_player = 1;

	adrp        x9,|?_start_player@@3DA|
	mov         w8,#1
	strb        w8,[x9,PageOffset(|?_start_player@@3DA|)]
|$LN3@PlayPauseB|

; 294  : 		}
; 295  : 		_KePrint("selected File -> %s \r\n", selectedFile);

	adrp        x8,|?selectedFile@@3PEADEA|
	ldr         x1,[x8,PageOffset(|?selectedFile@@3PEADEA|)]
	adrp        x8,|$SG9581|
	add         x0,x8,PageOffset(|$SG9581|)
	bl          _KePrint
|$LN2@PlayPauseB|
	ldp         fp,lr,[sp],#0x40
	ret

	ENDP  ; |?PlayPauseButtonAction@@YAXPEAU_ChWidget_@@PEAU_chwin_@@@Z|, PlayPauseButtonAction

; Function compile flags: /Odtp
; File C:\Users\paras\source\repos\grep-name\XenevaOS\Process\AudioPlayer\main.cpp

	AREA	|.text$mn|, CODE, ARM64

|?MusicPrepareLibrary@@YAXPEAU_list_view_@@@Z| PROC	; MusicPrepareLibrary

; 264  : void MusicPrepareLibrary(ChListView *lv) {

|$LN8|
	stp         fp,lr,[sp,#-0x30]!
	mov         fp,sp
	str         x0,[sp,#0x20]

; 265  : 	int dirfd = _KeOpenDir("/music");

	adrp        x8,|$SG9566|
	add         x0,x8,PageOffset(|$SG9566|)
	bl          _KeOpenDir
	mov         w0,w0
	str         w0,[sp,#0x10]

; 266  : 	XEDirectoryEntry* dirent = (XEDirectoryEntry*)malloc(sizeof(XEDirectoryEntry));

	mov         w0,#0x34
	bl          malloc
	str         x0,[sp,#0x18]

; 267  : 	memset(dirent, 0, sizeof(XEDirectoryEntry));

	mov         x2,#0x34
	mov         w1,#0
	ldr         x0,[sp,#0x18]
	bl          memset
|$LN2@MusicPrepa|

; 268  : 	while (1) {

	mov         w8,#1
	cmp         w8,#0
	beq         |$LN3@MusicPrepa|

; 269  : 		if (dirent->index == -1)

	ldr         x8,[sp,#0x18]
	add         x8,x8,#0x20
	ldr         w8,[x8]
	cmn         w8,#1
	bne         |$LN4@MusicPrepa|

; 270  : 			break;

	b           |$LN3@MusicPrepa|
|$LN4@MusicPrepa|

; 271  : 		int code = _KeReadDir(dirfd, dirent);

	ldr         x1,[sp,#0x18]
	ldr         w0,[sp,#0x10]
	bl          _KeReadDir
	mov         w0,w0
	str         w0,[sp,#0x14]

; 272  : 		if (code != -1) {

	ldr         w8,[sp,#0x14]
	cmn         w8,#1
	beq         |$LN5@MusicPrepa|

; 273  : 			if (dirent->flags & FILE_GENERAL){

	ldr         x8,[sp,#0x18]
	add         x8,x8,#0x30
	ldrb        w8,[x8]
	mov         w8,w8
	tbz         x8,#2,|$LN6@MusicPrepa|

; 274  : 				ChListItem*li = ChListViewAddItem(mainWin, lv, dirent->filename);

	ldr         x2,[sp,#0x18]
	ldr         x1,[sp,#0x20]
	adrp        x8,|?mainWin@@3PEAU_chwin_@@EA|
	ldr         x0,[x8,PageOffset(|?mainWin@@3PEAU_chwin_@@EA|)]
	bl          ChListViewAddItem
	str         x0,[sp,#0x28]

; 275  : 				ChListViewSetListItemIcon(li, musicIcon);

	adrp        x8,|?musicIcon@@3PEAU_icon_@@EA|
	ldr         x1,[x8,PageOffset(|?musicIcon@@3PEAU_icon_@@EA|)]
	ldr         x0,[sp,#0x28]
	bl          ChListViewSetListItemIcon
|$LN6@MusicPrepa|
|$LN5@MusicPrepa|

; 276  : 			}
; 277  : 
; 278  : 		}
; 279  : 		memset(dirent->filename, 0, 32);

	ldr         x0,[sp,#0x18]
	mov         x2,#0x20
	mov         w1,#0
	bl          memset

; 280  : 	}

	b           |$LN2@MusicPrepa|
|$LN3@MusicPrepa|
	ldp         fp,lr,[sp],#0x30
	ret

	ENDP  ; |?MusicPrepareLibrary@@YAXPEAU_list_view_@@@Z|, MusicPrepareLibrary

; Function compile flags: /Odtp
; File C:\Users\paras\source\repos\grep-name\XenevaOS\Process\AudioPlayer\main.cpp

	AREA	|.text$mn|, CODE, ARM64

|?SelectButtonActionHandler@@YAXPEAU_ChWidget_@@PEAU_chwin_@@@Z| PROC ; SelectButtonActionHandler

; 253  : void SelectButtonActionHandler(ChWidget* wid, ChWindow* win) {

|$LN4|
	stp         fp,lr,[sp,#-0x30]!
	mov         fp,sp
	str         x0,[sp,#0x18]
	str         x1,[sp,#0x20]

; 254  : 	ChListItem* li = ChListViewGetSelectedItem(browseList);

	adrp        x8,|?browseList@@3PEAU_list_view_@@EA|
	ldr         x0,[x8,PageOffset(|?browseList@@3PEAU_list_view_@@EA|)]
	bl          ChListViewGetSelectedItem
	str         x0,[sp,#0x10]

; 255  : 	if (li) {

	ldr         x8,[sp,#0x10]
	cmp         x8,#0
	beq         |$LN2@SelectButt|

; 256  : 		selectedFile = li->itemText;

	ldr         x8,[sp,#0x10]
	add         x8,x8,#0x20
	adrp        x9,|?selectedFile@@3PEADEA|
	ldr         x8,[x8]
	str         x8,[x9,PageOffset(|?selectedFile@@3PEADEA|)]
|$LN2@SelectButt|

; 257  : 	}
; 258  : 	_KeProcessSleep(100);

	mov         x0,#0x64
	bl          _KeProcessSleep

; 259  : 	UpdateHomeUI();

	bl          |?UpdateHomeUI@@YAXXZ|

; 260  : 	_KeProcessSleep(100);

	mov         x0,#0x64
	bl          _KeProcessSleep
	ldp         fp,lr,[sp],#0x30
	ret

	ENDP  ; |?SelectButtonActionHandler@@YAXPEAU_ChWidget_@@PEAU_chwin_@@@Z|, SelectButtonActionHandler

; Function compile flags: /Odtp
; File C:\Users\paras\source\repos\grep-name\XenevaOS\Process\AudioPlayer\main.cpp

	AREA	|.text$mn|, CODE, ARM64

|?BrowseMenuActionHandler@@YAXPEAU_ChWidget_@@PEAU_chwin_@@@Z| PROC ; BrowseMenuActionHandler

; 233  : void BrowseMenuActionHandler(ChWidget* wid, ChWindow* win) {

|$LN6|
	stp         fp,lr,[sp,#-0x20]!
	mov         fp,sp
	str         x0,[sp,#0x10]
	str         x1,[sp,#0x18]

; 234  : 	if (_music_library_drawn == false){

	adrp        x8,|?_music_library_drawn@@3DA|
	ldrsb       w8,[x8,PageOffset(|?_music_library_drawn@@3DA|)]
	mov         w8,w8
	cmp         w8,#0
	bne         |$LN2@BrowseMenu|

; 235  : 		mainWin->widgets = browserWidgetList;

	adrp        x8,|?mainWin@@3PEAU_chwin_@@EA|
	ldr         x8,[x8,PageOffset(|?mainWin@@3PEAU_chwin_@@EA|)]
	add         x9,x8,#0x50
	adrp        x8,|?browserWidgetList@@3PEAU_list_@@EA|
	ldr         x8,[x8,PageOffset(|?browserWidgetList@@3PEAU_list_@@EA|)]
	str         x8,[x9]

; 236  : 		mainWin->canv = browserCanvas;

	adrp        x8,|?mainWin@@3PEAU_chwin_@@EA|
	ldr         x8,[x8,PageOffset(|?mainWin@@3PEAU_chwin_@@EA|)]
	add         x9,x8,#0x18
	adrp        x8,|?browserCanvas@@3PEAU_ChCanvas_@@EA|
	ldr         x8,[x8,PageOffset(|?browserCanvas@@3PEAU_ChCanvas_@@EA|)]
	str         x8,[x9]

; 237  : 		ChWindowPaint(mainWin);

	adrp        x8,|?mainWin@@3PEAU_chwin_@@EA|
	ldr         x0,[x8,PageOffset(|?mainWin@@3PEAU_chwin_@@EA|)]
	bl          ChWindowPaint

; 238  : 
; 239  : 		ChFontSetSize(mainWin->app->baseFont, 18);

	adrp        x8,|?mainWin@@3PEAU_chwin_@@EA|
	ldr         x8,[x8,PageOffset(|?mainWin@@3PEAU_chwin_@@EA|)]
	add         x8,x8,#0x30
	ldr         x8,[x8]
	add         x8,x8,#0x30
	mov         w1,#0x12
	ldr         x0,[x8]
	bl          ChFontSetSize

; 240  : 		ChFontDrawText(browserCanvas, mainWin->app->baseFont, "Your Music library.....", 10, 88, 18, LIGHTBLACK);

	adrp        x8,|?mainWin@@3PEAU_chwin_@@EA|
	ldr         x8,[x8,PageOffset(|?mainWin@@3PEAU_chwin_@@EA|)]
	add         x8,x8,#0x30
	ldr         x8,[x8]
	add         x9,x8,#0x30
	ldr         w6,|$LN5@BrowseMenu|
	mov         w5,#0x12
	mov         w4,#0x58
	mov         w3,#0xA
	adrp        x8,|$SG9546|
	add         x2,x8,PageOffset(|$SG9546|)
	ldr         x1,[x9]
	adrp        x8,|?browserCanvas@@3PEAU_ChCanvas_@@EA|
	ldr         x0,[x8,PageOffset(|?browserCanvas@@3PEAU_ChCanvas_@@EA|)]
	bl          ChFontDrawText

; 241  : 
; 242  : 		ChWindowUpdate(mainWin, 0, 0, mainWin->info->width, mainWin->info->height, 1, 0);

	adrp        x8,|?mainWin@@3PEAU_chwin_@@EA|
	ldr         x8,[x8,PageOffset(|?mainWin@@3PEAU_chwin_@@EA|)]
	add         x8,x8,#0x28
	ldr         x9,[x8]
	mov         x8,#0x1014
	add         x10,x9,x8
	adrp        x8,|?mainWin@@3PEAU_chwin_@@EA|
	ldr         x8,[x8,PageOffset(|?mainWin@@3PEAU_chwin_@@EA|)]
	add         x8,x8,#0x28
	ldr         x9,[x8]
	mov         x8,#0x1010
	add         x8,x9,x8
	mov         w6,#0
	mov         w5,#1
	ldr         w4,[x10]
	ldr         w3,[x8]
	mov         w2,#0
	mov         w1,#0
	adrp        x8,|?mainWin@@3PEAU_chwin_@@EA|
	ldr         x0,[x8,PageOffset(|?mainWin@@3PEAU_chwin_@@EA|)]
	bl          ChWindowUpdate

; 243  : 		_music_library_drawn = true;

	adrp        x9,|?_music_library_drawn@@3DA|
	mov         w8,#1
	strb        w8,[x9,PageOffset(|?_music_library_drawn@@3DA|)]

; 244  : 	}

	b           |$LN3@BrowseMenu|
|$LN2@BrowseMenu|

; 245  : 	else{
; 246  : 		_KePrint("Updating the browsing \r\n");

	adrp        x8,|$SG9547|
	add         x0,x8,PageOffset(|$SG9547|)
	bl          _KePrint

; 247  : 		UpdateBrowserUI();

	bl          |?UpdateBrowserUI@@YAXXZ|

; 248  : 		_KeProcessSleep(100);

	mov         x0,#0x64
	bl          _KeProcessSleep
|$LN3@BrowseMenu|
	ldp         fp,lr,[sp],#0x20
	ret
|$LN5@BrowseMenu|
	DCD         0xff3e3e3e

	ENDP  ; |?BrowseMenuActionHandler@@YAXPEAU_ChWidget_@@PEAU_chwin_@@@Z|, BrowseMenuActionHandler

; Function compile flags: /Odtp
; File C:\Users\paras\source\repos\grep-name\XenevaOS\Process\AudioPlayer\main.cpp

	AREA	|.text$mn|, CODE, ARM64

|?UpdateBrowserUI@@YAXXZ| PROC				; UpdateBrowserUI

; 226  : void UpdateBrowserUI() {

|$LN3|
	stp         fp,lr,[sp,#-0x10]!
	mov         fp,sp

; 227  : 	mainWin->canv = browserCanvas;

	adrp        x8,|?mainWin@@3PEAU_chwin_@@EA|
	ldr         x8,[x8,PageOffset(|?mainWin@@3PEAU_chwin_@@EA|)]
	add         x9,x8,#0x18
	adrp        x8,|?browserCanvas@@3PEAU_ChCanvas_@@EA|
	ldr         x8,[x8,PageOffset(|?browserCanvas@@3PEAU_ChCanvas_@@EA|)]
	str         x8,[x9]

; 228  : 	mainWin->widgets = browserWidgetList;

	adrp        x8,|?mainWin@@3PEAU_chwin_@@EA|
	ldr         x8,[x8,PageOffset(|?mainWin@@3PEAU_chwin_@@EA|)]
	add         x9,x8,#0x50
	adrp        x8,|?browserWidgetList@@3PEAU_list_@@EA|
	ldr         x8,[x8,PageOffset(|?browserWidgetList@@3PEAU_list_@@EA|)]
	str         x8,[x9]

; 229  : 	ChWindowUpdate(mainWin, 0, 0, mainWin->info->width, mainWin->info->height, 1, 0);

	adrp        x8,|?mainWin@@3PEAU_chwin_@@EA|
	ldr         x8,[x8,PageOffset(|?mainWin@@3PEAU_chwin_@@EA|)]
	add         x8,x8,#0x28
	ldr         x9,[x8]
	mov         x8,#0x1014
	add         x10,x9,x8
	adrp        x8,|?mainWin@@3PEAU_chwin_@@EA|
	ldr         x8,[x8,PageOffset(|?mainWin@@3PEAU_chwin_@@EA|)]
	add         x8,x8,#0x28
	ldr         x9,[x8]
	mov         x8,#0x1010
	add         x8,x9,x8
	mov         w6,#0
	mov         w5,#1
	ldr         w4,[x10]
	ldr         w3,[x8]
	mov         w2,#0
	mov         w1,#0
	adrp        x8,|?mainWin@@3PEAU_chwin_@@EA|
	ldr         x0,[x8,PageOffset(|?mainWin@@3PEAU_chwin_@@EA|)]
	bl          ChWindowUpdate
	ldp         fp,lr,[sp],#0x10
	ret

	ENDP  ; |?UpdateBrowserUI@@YAXXZ|, UpdateBrowserUI

; Function compile flags: /Odtp
; File C:\Users\paras\source\repos\grep-name\XenevaOS\Process\AudioPlayer\main.cpp

	AREA	|.text$mn|, CODE, ARM64

|?UpdateHomeUI@@YAXXZ| PROC				; UpdateHomeUI

; 220  : void UpdateHomeUI() {

|$LN3|
	stp         fp,lr,[sp,#-0x10]!
	mov         fp,sp

; 221  : 	mainWin->canv = mainCanvas;

	adrp        x8,|?mainWin@@3PEAU_chwin_@@EA|
	ldr         x8,[x8,PageOffset(|?mainWin@@3PEAU_chwin_@@EA|)]
	add         x9,x8,#0x18
	adrp        x8,|?mainCanvas@@3PEAU_ChCanvas_@@EA|
	ldr         x8,[x8,PageOffset(|?mainCanvas@@3PEAU_ChCanvas_@@EA|)]
	str         x8,[x9]

; 222  : 	mainWin->widgets = mainWidgetList;

	adrp        x8,|?mainWin@@3PEAU_chwin_@@EA|
	ldr         x8,[x8,PageOffset(|?mainWin@@3PEAU_chwin_@@EA|)]
	add         x9,x8,#0x50
	adrp        x8,|?mainWidgetList@@3PEAU_list_@@EA|
	ldr         x8,[x8,PageOffset(|?mainWidgetList@@3PEAU_list_@@EA|)]
	str         x8,[x9]

; 223  : 	ChWindowUpdate(mainWin, 0, 0, mainWin->info->width, mainWin->info->height, 1, 0);

	adrp        x8,|?mainWin@@3PEAU_chwin_@@EA|
	ldr         x8,[x8,PageOffset(|?mainWin@@3PEAU_chwin_@@EA|)]
	add         x8,x8,#0x28
	ldr         x9,[x8]
	mov         x8,#0x1014
	add         x10,x9,x8
	adrp        x8,|?mainWin@@3PEAU_chwin_@@EA|
	ldr         x8,[x8,PageOffset(|?mainWin@@3PEAU_chwin_@@EA|)]
	add         x8,x8,#0x28
	ldr         x9,[x8]
	mov         x8,#0x1010
	add         x8,x9,x8
	mov         w6,#0
	mov         w5,#1
	ldr         w4,[x10]
	ldr         w3,[x8]
	mov         w2,#0
	mov         w1,#0
	adrp        x8,|?mainWin@@3PEAU_chwin_@@EA|
	ldr         x0,[x8,PageOffset(|?mainWin@@3PEAU_chwin_@@EA|)]
	bl          ChWindowUpdate
	ldp         fp,lr,[sp],#0x10
	ret

	ENDP  ; |?UpdateHomeUI@@YAXXZ|, UpdateHomeUI

; Function compile flags: /Odtp
; File C:\Users\paras\source\repos\grep-name\XenevaOS\Process\AudioPlayer\main.cpp

	AREA	|.text$mn|, CODE, ARM64

|?DrawWallpaper@@YAXPEAU_ChCanvas_@@PEADHH@Z| PROC	; DrawWallpaper

; 183  : void DrawWallpaper(ChCanvas *canv, char* filename, int x, int y) {

|$LN16|
	stp         fp,lr,[sp,#-0xB0]!
	mov         fp,sp
	str         x0,[sp,#0x78]
	str         x1,[sp,#0x68]
	str         w2,[sp,#0x48]
	str         w3,[sp,#0x44]

; 184  : 	int image = _KeOpenFile(filename, FILE_OPEN_READ_ONLY);

	mov         w1,#2
	ldr         x0,[sp,#0x68]
	bl          _KeOpenFile
	mov         w0,w0
	str         w0,[sp,#0x24]

; 185  : 	XEFileStatus stat;
; 186  : 	memset(&stat, 0, sizeof(XEFileStatus));

	mov         x2,#0x28
	mov         w1,#0
	add         x0,sp,#0x80
	bl          memset

; 187  : 	_KeFileStat(image, &stat);

	add         x1,sp,#0x80
	ldr         w0,[sp,#0x24]
	bl          _KeFileStat

; 188  : 	void* data_ = _KeMemMap(NULL, stat.size, 0, 0, -1, 0);

	mov         x5,#0
	mov         w4,#-1
	mov         w3,#0
	mov         w2,#0
	ldr         x1,[sp,#0x88]
	mov         x0,#0
	bl          _KeMemMap
	str         x0,[sp,#0x38]

; 189  : 	memset(data_, 0, ALIGN_UP(stat.size, 4096));

	ldr         x8,[sp,#0x88]
	add         x8,x8,#1,lsl #0xC
	sub         x9,x8,#1
	mov         x8,#0x1000
	udiv        x9,x9,x8
	mov         x8,#0x1000
	mul         x2,x9,x8
	mov         w1,#0
	ldr         x0,[sp,#0x38]
	bl          memset

; 190  : 	_KeReadFile(image, data_, ALIGN_UP(stat.size, 4096));

	ldr         x8,[sp,#0x88]
	add         x8,x8,#1,lsl #0xC
	sub         x9,x8,#1
	mov         x8,#0x1000
	udiv        x9,x9,x8
	mov         x8,#0x1000
	mul         x2,x9,x8
	ldr         x1,[sp,#0x38]
	ldr         w0,[sp,#0x24]
	bl          _KeReadFile

; 191  : 
; 192  : 	uint8_t* data1 = (uint8_t*)data_;

	ldr         x8,[sp,#0x38]
	str         x8,[sp,#0x70]

; 193  : 
; 194  : 	Jpeg::Decoder *decor = new Jpeg::Decoder((uint8_t*)data1, ALIGN_UP(stat.size, 4096), malloc, free);

	ldr         x0,|$LN15@DrawWallpa|
	bl          |??2@YAPEAX_K@Z|
	str         x0,[sp,#0x58]
	ldr         x8,[sp,#0x58]
	cmp         x8,#0
	beq         |$LN13@DrawWallpa|
	ldr         x8,[sp,#0x88]
	add         x8,x8,#1,lsl #0xC
	sub         x9,x8,#1
	mov         x8,#0x1000
	udiv        x9,x9,x8
	mov         x8,#0x1000
	mul         x8,x9,x8
	mov         w2,w8
	adrp        x8,free
	add         x4,x8,PageOffset(free)
	adrp        x8,malloc
	add         x3,x8,PageOffset(malloc)
	mov         w2,w2
	ldr         x1,[sp,#0x70]
	ldr         x0,[sp,#0x58]
	bl          |??0Decoder@Jpeg@@QEAA@PEBEIP6APEAXI@ZP6AXPEAX@Z@Z|
	str         x0,[sp,#0x60]
	b           |$LN14@DrawWallpa|
|$LN13@DrawWallpa|
	mov         x8,#0
	str         x8,[sp,#0x60]
|$LN14@DrawWallpa|
	ldr         x8,[sp,#0x60]
	str         x8,[sp,#0x30]

; 195  : 	if (decor->GetResult() != Jpeg::Decoder::OK) {

	ldr         x0,[sp,#0x30]
	bl          |?GetResult@Decoder@Jpeg@@QEBA?AW4DecodeResult@12@XZ|
	mov         w0,w0
	cmp         w0,#0
	beq         |$LN11@DrawWallpa|

; 196  : 		_KePrint("Decoder error \n");

	adrp        x8,|$SG9535|
	add         x0,x8,PageOffset(|$SG9535|)
	bl          _KePrint
|$LN2@DrawWallpa|

; 197  : 		for (;;);

	b           |$LN2@DrawWallpa|

; 198  : 		return;

	b           |$LN1@DrawWallpa|
|$LN11@DrawWallpa|

; 199  : 	}
; 200  : 	int w = decor->GetWidth();

	ldr         x0,[sp,#0x30]
	bl          |?GetWidth@Decoder@Jpeg@@QEBAHXZ|
	mov         w0,w0
	str         w0,[sp,#0x28]

; 201  : 	int h = decor->GetHeight();

	ldr         x0,[sp,#0x30]
	bl          |?GetHeight@Decoder@Jpeg@@QEBAHXZ|
	mov         w0,w0
	str         w0,[sp,#0x40]

; 202  : 	uint8_t* data = decor->GetImage();

	ldr         x0,[sp,#0x30]
	bl          |?GetImage@Decoder@Jpeg@@QEBAPEAEXZ|
	str         x0,[sp,#0x50]

; 203  : 	for (int i = 0; i < h; i++) {

	mov         w8,#0
	str         w8,[sp,#0x14]
	b           |$LN7@DrawWallpa|
|$LN5@DrawWallpa|
	ldr         w8,[sp,#0x14]
	add         w8,w8,#1
	str         w8,[sp,#0x14]
|$LN7@DrawWallpa|
	ldr         w9,[sp,#0x40]
	ldr         w8,[sp,#0x14]
	cmp         w8,w9
	bge         |$LN6@DrawWallpa|

; 204  : 		for (int k = 0; k < w; k++) {

	mov         w8,#0
	str         w8,[sp,#0x18]
	b           |$LN10@DrawWallpa|
|$LN8@DrawWallpa|
	ldr         w8,[sp,#0x18]
	add         w8,w8,#1
	str         w8,[sp,#0x18]
|$LN10@DrawWallpa|
	ldr         w9,[sp,#0x28]
	ldr         w8,[sp,#0x18]
	cmp         w8,w9
	bge         |$LN9@DrawWallpa|

; 205  : 			int j = k + i * w;

	ldr         w9,[sp,#0x14]
	ldr         w8,[sp,#0x28]
	mul         w9,w9,w8
	ldr         w8,[sp,#0x18]
	add         w8,w8,w9
	str         w8,[sp,#0x1C]

; 206  : 			uint8_t r = data[j * 3];

	ldr         w9,[sp,#0x1C]
	mov         w8,#3
	mul         w8,w9,w8
	sxtw        x9,w8
	mov         x8,#1
	mul         x9,x9,x8
	ldr         x8,[sp,#0x50]
	add         x8,x8,x9
	ldrb        w8,[x8]
	strb        w8,[sp,#0x10]

; 207  : 			uint8_t g = data[j * 3 + 1];

	ldr         w9,[sp,#0x1C]
	mov         w8,#3
	mul         w8,w9,w8
	add         w8,w8,#1
	sxtw        x9,w8
	mov         x8,#1
	mul         x9,x9,x8
	ldr         x8,[sp,#0x50]
	add         x8,x8,x9
	ldrb        w8,[x8]
	strb        w8,[sp,#0x11]

; 208  : 			uint8_t b = data[j * 3 + 2];

	ldr         w9,[sp,#0x1C]
	mov         w8,#3
	mul         w8,w9,w8
	add         w8,w8,#2
	sxtw        x9,w8
	mov         x8,#1
	mul         x9,x9,x8
	ldr         x8,[sp,#0x50]
	add         x8,x8,x9
	ldrb        w8,[x8]
	strb        w8,[sp,#0x12]

; 209  : 			uint32_t rgba = ((r << 16) | (g << 8) | (b)) & 0x00ffffff;

	ldrb        w8,[sp,#0x10]
	mov         w8,w8
	lsl         w9,w8,#0x10
	ldrb        w8,[sp,#0x11]
	mov         w8,w8
	lsl         w8,w8,#8
	orr         w9,w9,w8
	ldrb        w8,[sp,#0x12]
	mov         w8,w8
	orr         w8,w9,w8
	and         w8,w8,#0xFFFFFF
	str         w8,[sp,#0x20]

; 210  : 			rgba = rgba | 0xff000000;

	ldr         w8,[sp,#0x20]
	orr         w8,w8,#0xFF000000
	str         w8,[sp,#0x20]

; 211  : 			ChDrawPixel(canv, x + k, y + i, rgba);

	ldr         w9,[sp,#0x44]
	ldr         w8,[sp,#0x14]
	add         w2,w9,w8
	ldr         w9,[sp,#0x48]
	ldr         w8,[sp,#0x18]
	add         w1,w9,w8
	ldr         w3,[sp,#0x20]
	mov         w2,w2
	mov         w1,w1
	ldr         x0,[sp,#0x78]
	bl          ChDrawPixel

; 212  : 			j++;

	ldr         w8,[sp,#0x1C]
	add         w8,w8,#1
	str         w8,[sp,#0x1C]

; 213  : 		}

	b           |$LN8@DrawWallpa|
|$LN9@DrawWallpa|

; 214  : 	}

	b           |$LN5@DrawWallpa|
|$LN6@DrawWallpa|

; 215  : 	
; 216  : 	_KeMemUnmap(data_, stat.size);

	ldr         x1,[sp,#0x88]
	ldr         x0,[sp,#0x38]
	bl          _KeMemUnmap

; 217  : 	_KeCloseFile(image);

	ldr         w0,[sp,#0x24]
	bl          _KeCloseFile
|$LN1@DrawWallpa|
	ldp         fp,lr,[sp],#0xB0
	ret
	nop
|$LN15@DrawWallpa|
	DCQ         0x80330

	ENDP  ; |?DrawWallpaper@@YAXPEAU_ChCanvas_@@PEADHH@Z|, DrawWallpaper

; Function compile flags: /Odtp
; File C:\Users\paras\source\repos\grep-name\XenevaOS\Process\AudioPlayer\main.cpp

	AREA	|.text$mn|, CODE, ARM64

|?ExitItemClicked@@YAXPEAU_ChWidget_@@PEAU_chwin_@@@Z| PROC ; ExitItemClicked

; 176  : void ExitItemClicked(ChWidget* wid, ChWindow* win) {

|$LN3|
	stp         fp,lr,[sp,#-0x20]!
	mov         fp,sp
	str         x0,[sp,#0x10]
	str         x1,[sp,#0x18]

; 177  : 	ChWindowCloseWindow(mainWin);

	adrp        x8,|?mainWin@@3PEAU_chwin_@@EA|
	ldr         x0,[x8,PageOffset(|?mainWin@@3PEAU_chwin_@@EA|)]
	bl          ChWindowCloseWindow
	ldp         fp,lr,[sp],#0x20
	ret

	ENDP  ; |?ExitItemClicked@@YAXPEAU_ChWidget_@@PEAU_chwin_@@@Z|, ExitItemClicked

; Function compile flags: /Odtp
; File C:\Users\paras\source\repos\grep-name\XenevaOS\Process\AudioPlayer\main.cpp

	AREA	|.text$mn|, CODE, ARM64

|?AboutClicked@@YAXPEAU_ChWidget_@@PEAU_chwin_@@@Z| PROC ; AboutClicked

; 166  : void AboutClicked(ChWidget* wid, ChWindow* win) {

|$LN3|
	stp         fp,lr,[sp,#-0x30]!
	mov         fp,sp
	str         x0,[sp,#0x18]
	str         x1,[sp,#0x20]

; 167  : 	ChMessageBox* mb = ChCreateMessageBox(mainWin, "Accent v1.0", "Accent Player v1.0 for XenevaOS !!", MSGBOX_TYPE_ONLYCLOSE, MSGBOX_ICON_SUCCESS);

	mov         w4,#0x65
	mov         w3,#4
	adrp        x8,|$SG9493|
	add         x2,x8,PageOffset(|$SG9493|)
	adrp        x8,|$SG9494|
	add         x1,x8,PageOffset(|$SG9494|)
	adrp        x8,|?mainWin@@3PEAU_chwin_@@EA|
	ldr         x0,[x8,PageOffset(|?mainWin@@3PEAU_chwin_@@EA|)]
	bl          ChCreateMessageBox
	str         x0,[sp,#0x10]

; 168  : 	ChMessageBoxShow(mb);

	ldr         x0,[sp,#0x10]
	bl          ChMessageBoxShow
	ldp         fp,lr,[sp],#0x30
	ret

	ENDP  ; |?AboutClicked@@YAXPEAU_ChWidget_@@PEAU_chwin_@@@Z|, AboutClicked

; Function compile flags: /Odtp
; File C:\Users\paras\source\repos\grep-name\XenevaOS\Process\AudioPlayer\main.cpp

	AREA	|.text$mn|, CODE, ARM64

|?WindowHandleMessage@@YAXPEAU_post_event_@@@Z| PROC	; WindowHandleMessage

; 133  : void WindowHandleMessage(PostEvent *e) {

|$LN11|
	stp         fp,lr,[sp,#-0x50]!
	mov         fp,sp
	str         x0,[sp,#0x10]

; 134  : 	switch (e->type) {

	ldr         x8,[sp,#0x10]
	ldrb        w8,[x8]
	mov         w8,w8
	str         w8,[sp,#0x18]
	ldr         w8,[sp,#0x18]
	cmp         w8,#0x97
	beq         |$LN4@WindowHand|
	ldr         w8,[sp,#0x18]
	cmp         w8,#0x98
	beq         |$LN8@WindowHand|
	ldr         w8,[sp,#0x18]
	cmp         w8,#0x9A
	beq         |$LN9@WindowHand|
	b           |$LN2@WindowHand|
|$LN4@WindowHand|

; 135  : 	/* handle mouse event from deodhai */
; 136  : 	case DEODHAI_REPLY_MOUSE_EVENT:{
; 137  : 									   int handle = e->dword4;

	ldr         x8,[sp,#0x10]
	add         x8,x8,#0x14
	ldr         w8,[x8]
	str         w8,[sp,#0x1C]

; 138  : 									   if (e->dword5 == WINDOW_HANDLE_TYPE_NORMAL){

	ldr         x8,[sp,#0x10]
	add         x8,x8,#0x18
	ldr         w8,[x8]
	cmp         w8,#1
	bne         |$LN5@WindowHand|

; 139  : 										   ChWindow* mouseWin = ChGetWindowByHandle(mainWin, handle);

	ldr         w1,[sp,#0x1C]
	adrp        x8,|?mainWin@@3PEAU_chwin_@@EA|
	ldr         x0,[x8,PageOffset(|?mainWin@@3PEAU_chwin_@@EA|)]
	bl          ChGetWindowByHandle
	str         x0,[sp,#0x30]

; 140  : 										   ChWindowHandleMouse(mouseWin, e->dword, e->dword2, e->dword3);

	ldr         x8,[sp,#0x10]
	add         x10,x8,#0x10
	ldr         x8,[sp,#0x10]
	add         x9,x8,#0xC
	ldr         x8,[sp,#0x10]
	add         x8,x8,#8
	ldr         w3,[x10]
	ldr         w2,[x9]
	ldr         w1,[x8]
	ldr         x0,[sp,#0x30]
	bl          ChWindowHandleMouse

; 141  : 									   }

	b           |$LN6@WindowHand|
|$LN5@WindowHand|

; 142  : 									   else if (e->dword5 == WINDOW_HANDLE_TYPE_POPUP) {

	ldr         x8,[sp,#0x10]
	add         x8,x8,#0x18
	ldr         w8,[x8]
	cmp         w8,#2
	bne         |$LN7@WindowHand|

; 143  : 										   ChWindow* pw = ChGetPopupWindowByHandle(mainWin, handle);

	ldr         w1,[sp,#0x1C]
	adrp        x8,|?mainWin@@3PEAU_chwin_@@EA|
	ldr         x0,[x8,PageOffset(|?mainWin@@3PEAU_chwin_@@EA|)]
	bl          ChGetPopupWindowByHandle
	str         x0,[sp,#0x38]

; 144  : 										   ChPopupWindowHandleMouse(pw, e->dword, e->dword2, e->dword3);

	ldr         x8,[sp,#0x10]
	add         x10,x8,#0x10
	ldr         x8,[sp,#0x10]
	add         x9,x8,#0xC
	ldr         x8,[sp,#0x10]
	add         x8,x8,#8
	ldr         w3,[x10]
	ldr         w2,[x9]
	ldr         w1,[x8]
	ldr         x0,[sp,#0x38]
	bl          ChPopupWindowHandleMouse
|$LN7@WindowHand|
|$LN6@WindowHand|

; 145  : 									   }
; 146  : 									   memset(e, 0, sizeof(PostEvent));

	mov         x2,#0xB0
	mov         w1,#0
	ldr         x0,[sp,#0x10]
	bl          memset

; 147  : 									   break;

	b           |$LN2@WindowHand|
|$LN8@WindowHand|

; 148  : 	}
; 149  : 		/* handle key events from deodhai */
; 150  : 	case DEODHAI_REPLY_KEY_EVENT:{
; 151  : 									 int code = e->dword;

	ldr         x8,[sp,#0x10]
	add         x8,x8,#8
	ldr         w8,[x8]
	str         w8,[sp,#0x28]

; 152  : 									 memset(e, 0, sizeof(PostEvent));

	mov         x2,#0xB0
	mov         w1,#0
	ldr         x0,[sp,#0x10]
	bl          memset

; 153  : 									 break;

	b           |$LN2@WindowHand|
|$LN9@WindowHand|

; 154  : 	}
; 155  : 	case DEODHAI_REPLY_FOCUS_CHANGED:{
; 156  : 										 int focus_val = e->dword;

	ldr         x8,[sp,#0x10]
	add         x8,x8,#8
	ldr         w8,[x8]
	str         w8,[sp,#0x24]

; 157  : 										 int handle = e->dword2;

	ldr         x8,[sp,#0x10]
	add         x8,x8,#0xC
	ldr         w8,[x8]
	str         w8,[sp,#0x20]

; 158  : 										 ChWindow* focWin = ChGetWindowByHandle(mainWin, handle);

	ldr         w1,[sp,#0x20]
	adrp        x8,|?mainWin@@3PEAU_chwin_@@EA|
	ldr         x0,[x8,PageOffset(|?mainWin@@3PEAU_chwin_@@EA|)]
	bl          ChGetWindowByHandle
	str         x0,[sp,#0x40]

; 159  : 										 ChWindowHandleFocus(focWin, focus_val, handle);

	ldr         w8,[sp,#0x24]
	sxtb        w1,w8
	ldr         w2,[sp,#0x20]
	mov         w1,w1
	ldr         x0,[sp,#0x40]
	bl          ChWindowHandleFocus

; 160  : 										 memset(e, 0, sizeof(PostEvent));

	mov         x2,#0xB0
	mov         w1,#0
	ldr         x0,[sp,#0x10]
	bl          memset
|$LN2@WindowHand|
	ldp         fp,lr,[sp],#0x50
	ret

	ENDP  ; |?WindowHandleMessage@@YAXPEAU_post_event_@@@Z|, WindowHandleMessage

; Function compile flags: /Odtp
; File C:\Users\paras\source\repos\grep-name\XenevaOS\Process\AudioPlayer\main.cpp

	AREA	|.text$mn|, CODE, ARM64

|?PlayerThread@@YAXXZ| PROC				; PlayerThread

; 101  : void PlayerThread() {

|$LN9|
	stp         fp,lr,[sp,#-0x40]!
	mov         fp,sp

; 102  : 	/* register the sound */
; 103  : 	RegisterSound();

	bl          |?RegisterSound@@YAXXZ|

; 104  : 	XEFileStatus stat;
; 105  : 	memset(&stat, 0, sizeof(XEFileStatus));

	mov         x2,#0x28
	mov         w1,#0
	add         x0,sp,#0x10
	bl          memset
|$LN2@PlayerThre|

; 106  : 	while (1) {

	mov         w8,#1
	cmp         w8,#0
	beq         |$LN3@PlayerThre|

; 107  : 		/*
; 108  : 		 * _start_player expects its sound file to be
; 109  : 		 * ready i.e its already opened 
; 110  : 		 */
; 111  : 		if (_start_player) {

	adrp        x8,|?_start_player@@3DA|
	ldrsb       w8,[x8,PageOffset(|?_start_player@@3DA|)]
	mov         w8,w8
	cmp         w8,#0
	beq         |$LN4@PlayerThre|

; 112  : 			_KeFileStat(_file, &stat);

	add         x1,sp,#0x10
	adrp        x8,|?_file@@3HA|
	ldr         w0,[x8,PageOffset(|?_file@@3HA|)]
	bl          _KeFileStat

; 113  : 			if (stat.eof) {

	ldrb        w8,[sp,#0x34]
	mov         w8,w8
	cmp         w8,#0
	beq         |$LN5@PlayerThre|

; 114  : 				_KeCloseFile(_file);

	adrp        x8,|?_file@@3HA|
	ldr         w0,[x8,PageOffset(|?_file@@3HA|)]
	bl          _KeCloseFile

; 115  : 				_start_player = false;

	adrp        x9,|?_start_player@@3DA|
	mov         w8,#0
	strb        w8,[x9,PageOffset(|?_start_player@@3DA|)]

; 116  : 			}

	b           |$LN6@PlayerThre|
|$LN5@PlayerThre|

; 117  : 			else{
; 118  : 				_KeReadFile(_file, soundbuff, 4096);

	mov         x2,#0x1000
	adrp        x8,|?soundbuff@@3PEAXEA|
	ldr         x1,[x8,PageOffset(|?soundbuff@@3PEAXEA|)]
	adrp        x8,|?_file@@3HA|
	ldr         w0,[x8,PageOffset(|?_file@@3HA|)]
	bl          _KeReadFile

; 119  : 				_KeWriteFile(snd, soundbuff, 4096);

	mov         x2,#0x1000
	adrp        x8,|?soundbuff@@3PEAXEA|
	ldr         x1,[x8,PageOffset(|?soundbuff@@3PEAXEA|)]
	adrp        x8,|?snd@@3HA|
	ldr         w0,[x8,PageOffset(|?snd@@3HA|)]
	bl          _KeWriteFile
|$LN6@PlayerThre|
|$LN4@PlayerThre|

; 120  : 			}
; 121  : 		}
; 122  : 
; 123  : 		if (!_start_player) 

	adrp        x8,|?_start_player@@3DA|
	ldrsb       w8,[x8,PageOffset(|?_start_player@@3DA|)]
	mov         w8,w8
	cmp         w8,#0
	bne         |$LN7@PlayerThre|

; 124  : 			_KeProcessSleep(1000);

	mov         x0,#0x3E8
	bl          _KeProcessSleep
|$LN7@PlayerThre|

; 125  : 	}

	b           |$LN2@PlayerThre|
|$LN3@PlayerThre|
	ldp         fp,lr,[sp],#0x40
	ret

	ENDP  ; |?PlayerThread@@YAXXZ|, PlayerThread

; Function compile flags: /Odtp
; File C:\Users\paras\source\repos\grep-name\XenevaOS\Process\AudioPlayer\main.cpp

	AREA	|.text$mn|, CODE, ARM64

|?RegisterSound@@YAXXZ| PROC				; RegisterSound

; 75   : void RegisterSound() {

|$LN4|
	stp         fp,lr,[sp,#-0x40]!
	mov         fp,sp

; 76   : 
; 77   : 	/* open the sound device-file, it is in /dev directory */
; 78   : 	snd = _KeOpenFile("/dev/sound", FILE_OPEN_WRITE);

	mov         w1,#4
	adrp        x8,|$SG9456|
	add         x0,x8,PageOffset(|$SG9456|)
	bl          _KeOpenFile
	mov         w0,w0
	adrp        x8,|?snd@@3HA|
	str         w0,[x8,PageOffset(|?snd@@3HA|)]

; 79   : 
; 80   : 	char test[2];
; 81   : 	/* allocate an ioctl structure where required information
; 82   : 	* will be putted */
; 83   : 	XEFileIOControl ioctl;
; 84   : 	
; 85   : 	memset(&ioctl, 0, sizeof(XEFileIOControl));

	mov         x2,#0x28
	mov         w1,#0
	add         x0,sp,#0x10
	bl          memset

; 86   : 
; 87   : 	/* uint_1 holds the millisecond to sleep after
; 88   : 	* one frame playback */
; 89   : 	ioctl.uint_1 = 0;

	mov         w8,#0
	str         w8,[sp,#0x1C]

; 90   : 
; 91   : 	/* most important aurora_syscall_magic number, without
; 92   : 	* this, iocontrol system call will not work */
; 93   : 	ioctl.syscall_magic = AURORA_SYSCALL_MAGIC;

	ldr         w8,|$LN3@RegisterSo|
	str         w8,[sp,#0x10]

; 94   : 
; 95   : 	/* register the app to sound layer, as it will create
; 96   : 	* a private dsp-box for this app */
; 97   : 	_KeFileIoControl(snd, SOUND_REGISTER_SNDPLR, &ioctl);

	add         x2,sp,#0x10
	mov         w1,#0x64
	adrp        x8,|?snd@@3HA|
	ldr         w0,[x8,PageOffset(|?snd@@3HA|)]
	bl          _KeFileIoControl
	ldp         fp,lr,[sp],#0x40
	ret
|$LN3@RegisterSo|
	DCD         0x15062023

	ENDP  ; |?RegisterSound@@YAXXZ|, RegisterSound

; Function compile flags: /Odtp
; File C:\Users\paras\source\repos\grep-name\XenevaOS\Process\AudioPlayer\minimp4.h

	AREA	|.text$mn|, CODE, ARM64

|?MP4D_read_spspps@@YAPEBXPEBUMP4D_demux_tag@@IHHPEAH@Z| PROC ; MP4D_read_spspps

; 3349 : {

	stp         fp,lr,[sp,#-0x50]!
	mov         fp,sp
	str         x0,[sp,#0x30]
	str         w1,[sp,#0x14]
	str         w2,[sp,#0x38]
	str         w3,[sp,#0x28]
	str         x4,[sp,#0x40]

; 3350 :     int sps_count, skip_bytes;
; 3351 :     int bytepos = 0;

	mov         w8,#0
	str         w8,[sp,#0x10]

; 3352 :     unsigned char* p = mp4->track[ntrack].dsi;

	ldr         x8,[sp,#0x30]
	add         x10,x8,#0x10
	ldr         w8,[sp,#0x14]
	uxtw        x9,w8
	mov         x8,#0x78
	mul         x9,x9,x8
	ldr         x8,[x10]
	add         x8,x8,x9
	add         x8,x8,#8
	ldr         x8,[x8]
	str         x8,[sp,#0x20]

; 3353 :     if (ntrack >= mp4->track_count)

	ldr         x8,[sp,#0x30]
	add         x8,x8,#0x28
	ldr         w9,[x8]
	ldr         w8,[sp,#0x14]
	cmp         w8,w9
	blo         |$LN2@MP4D_read_|

; 3354 :         return NULL;

	mov         x0,#0
	b           |$LN1@MP4D_read_|
|$LN2@MP4D_read_|

; 3355 :     if (mp4->track[ntrack].object_type_indication != MP4_OBJECT_TYPE_AVC)

	ldr         x8,[sp,#0x30]
	add         x10,x8,#0x10
	ldr         w8,[sp,#0x14]
	uxtw        x9,w8
	mov         x8,#0x78
	mul         x9,x9,x8
	ldr         x8,[x10]
	add         x8,x8,x9
	add         x8,x8,#0x14
	ldr         w8,[x8]
	cmp         w8,#0x21
	beq         |$LN3@MP4D_read_|

; 3356 :         return NULL;    // SPS/PPS are specific for AVC format only

	mov         x0,#0
	b           |$LN1@MP4D_read_|
|$LN3@MP4D_read_|

; 3357 : 
; 3358 :     if (pps_flag)

	ldr         w8,[sp,#0x38]
	cmp         w8,#0
	beq         |$LN4@MP4D_read_|

; 3359 :     {
; 3360 :         // Skip all SPS
; 3361 :         sps_count = p[bytepos++];

	ldr         w8,[sp,#0x10]
	sxtw        x9,w8
	mov         x8,#1
	mul         x9,x9,x8
	ldr         x8,[sp,#0x20]
	add         x8,x8,x9
	ldrb        w8,[x8]
	mov         w8,w8
	str         w8,[sp,#0x1C]
	ldr         w8,[sp,#0x10]
	add         w8,w8,#1
	str         w8,[sp,#0x10]

; 3362 :         skip_bytes = skip_spspps(p + bytepos, mp4->track[ntrack].dsi_bytes - bytepos, sps_count);

	ldr         x8,[sp,#0x30]
	add         x10,x8,#0x10
	ldr         w8,[sp,#0x14]
	uxtw        x9,w8
	mov         x8,#0x78
	mul         x9,x9,x8
	ldr         x8,[x10]
	add         x8,x8,x9
	add         x8,x8,#0x10
	ldr         w9,[x8]
	ldr         w8,[sp,#0x10]
	sub         w1,w9,w8
	ldr         w8,[sp,#0x10]
	sxtw        x9,w8
	ldr         x8,[sp,#0x20]
	add         x0,x8,x9
	ldr         w2,[sp,#0x1C]
	mov         w1,w1
	bl          |?skip_spspps@@YAHPEBEHH@Z|
	mov         w0,w0
	str         w0,[sp,#0x18]

; 3363 :         if (skip_bytes < 0)

	ldr         w8,[sp,#0x18]
	cmp         w8,#0
	bge         |$LN5@MP4D_read_|

; 3364 :             return NULL;

	mov         x0,#0
	b           |$LN1@MP4D_read_|
|$LN5@MP4D_read_|

; 3365 :         bytepos += skip_bytes;

	ldr         w9,[sp,#0x10]
	ldr         w8,[sp,#0x18]
	add         w8,w9,w8
	str         w8,[sp,#0x10]
|$LN4@MP4D_read_|

; 3366 :     }
; 3367 : 
; 3368 :     // Skip sps/pps before the given target
; 3369 :     sps_count = p[bytepos++];

	ldr         w8,[sp,#0x10]
	sxtw        x9,w8
	mov         x8,#1
	mul         x9,x9,x8
	ldr         x8,[sp,#0x20]
	add         x8,x8,x9
	ldrb        w8,[x8]
	mov         w8,w8
	str         w8,[sp,#0x1C]
	ldr         w8,[sp,#0x10]
	add         w8,w8,#1
	str         w8,[sp,#0x10]

; 3370 :     if (nsps >= sps_count)

	ldr         w9,[sp,#0x1C]
	ldr         w8,[sp,#0x28]
	cmp         w8,w9
	blt         |$LN6@MP4D_read_|

; 3371 :         return NULL;

	mov         x0,#0
	b           |$LN1@MP4D_read_|
|$LN6@MP4D_read_|

; 3372 :     skip_bytes = skip_spspps(p + bytepos, mp4->track[ntrack].dsi_bytes - bytepos, nsps);

	ldr         x8,[sp,#0x30]
	add         x10,x8,#0x10
	ldr         w8,[sp,#0x14]
	uxtw        x9,w8
	mov         x8,#0x78
	mul         x9,x9,x8
	ldr         x8,[x10]
	add         x8,x8,x9
	add         x8,x8,#0x10
	ldr         w9,[x8]
	ldr         w8,[sp,#0x10]
	sub         w1,w9,w8
	ldr         w8,[sp,#0x10]
	sxtw        x9,w8
	ldr         x8,[sp,#0x20]
	add         x0,x8,x9
	ldr         w2,[sp,#0x28]
	mov         w1,w1
	bl          |?skip_spspps@@YAHPEBEHH@Z|
	mov         w0,w0
	str         w0,[sp,#0x18]

; 3373 :     if (skip_bytes < 0)

	ldr         w8,[sp,#0x18]
	cmp         w8,#0
	bge         |$LN7@MP4D_read_|

; 3374 :         return NULL;

	mov         x0,#0
	b           |$LN1@MP4D_read_|
|$LN7@MP4D_read_|

; 3375 :     bytepos += skip_bytes;

	ldr         w9,[sp,#0x10]
	ldr         w8,[sp,#0x18]
	add         w8,w9,w8
	str         w8,[sp,#0x10]

; 3376 :     *sps_bytes = p[bytepos] * 256 + p[bytepos + 1];

	ldr         w8,[sp,#0x10]
	sxtw        x9,w8
	mov         x8,#1
	mul         x9,x9,x8
	ldr         x8,[sp,#0x20]
	add         x8,x8,x9
	ldrb        w9,[x8]
	mov         w9,w9
	mov         w8,#0x100
	mul         w10,w9,w8
	ldr         w8,[sp,#0x10]
	add         w8,w8,#1
	sxtw        x9,w8
	mov         x8,#1
	mul         x9,x9,x8
	ldr         x8,[sp,#0x20]
	add         x8,x8,x9
	ldrb        w8,[x8]
	mov         w8,w8
	add         w9,w10,w8
	ldr         x8,[sp,#0x40]
	str         w9,[x8]

; 3377 :     return p + bytepos + 2;

	ldr         w8,[sp,#0x10]
	sxtw        x9,w8
	ldr         x8,[sp,#0x20]
	add         x8,x8,x9
	add         x0,x8,#2
|$LN1@MP4D_read_|
	ldp         fp,lr,[sp],#0x50
	ret

	ENDP  ; |?MP4D_read_spspps@@YAPEBXPEBUMP4D_demux_tag@@IHHPEAH@Z|, MP4D_read_spspps

; Function compile flags: /Odtp
; File C:\Users\paras\source\repos\grep-name\XenevaOS\Process\AudioPlayer\minimp4.h

	AREA	|.text$mn|, CODE, ARM64

|?skip_spspps@@YAHPEBEHH@Z| PROC			; skip_spspps

; 3335 : {

	sub         sp,sp,#0x20
	str         x0,[sp,#0x18]
	str         w1,[sp,#0xC]
	str         w2,[sp,#8]

; 3336 :     int i, k = 0;

	mov         w8,#0
	str         w8,[sp]

; 3337 :     for (i = 0; i < nskip; i++)

	mov         w8,#0
	str         w8,[sp,#4]
	b           |$LN4@skip_spspp|
|$LN2@skip_spspp|
	ldr         w8,[sp,#4]
	add         w8,w8,#1
	str         w8,[sp,#4]
|$LN4@skip_spspp|
	ldr         w9,[sp,#8]
	ldr         w8,[sp,#4]
	cmp         w8,w9
	bge         |$LN3@skip_spspp|

; 3338 :     {
; 3339 :         unsigned segmbytes;
; 3340 :         if (k > nbytes - 2)

	ldr         w8,[sp,#0xC]
	sub         w9,w8,#2
	ldr         w8,[sp]
	cmp         w8,w9
	ble         |$LN5@skip_spspp|

; 3341 :             return -1;

	mov         w0,#-1
	b           |$LN1@skip_spspp|
|$LN5@skip_spspp|

; 3342 :         segmbytes = p[k] * 256 + p[k + 1];

	ldr         w8,[sp]
	sxtw        x9,w8
	mov         x8,#1
	mul         x9,x9,x8
	ldr         x8,[sp,#0x18]
	add         x8,x8,x9
	ldrb        w9,[x8]
	mov         w9,w9
	mov         w8,#0x100
	mul         w10,w9,w8
	ldr         w8,[sp]
	add         w8,w8,#1
	sxtw        x9,w8
	mov         x8,#1
	mul         x9,x9,x8
	ldr         x8,[sp,#0x18]
	add         x8,x8,x9
	ldrb        w8,[x8]
	mov         w8,w8
	add         w8,w10,w8
	str         w8,[sp,#0x10]

; 3343 :         k += 2 + segmbytes;

	ldr         w8,[sp,#0x10]
	add         w9,w8,#2
	ldr         w8,[sp]
	add         w8,w8,w9
	str         w8,[sp]

; 3344 :     }

	b           |$LN2@skip_spspp|
|$LN3@skip_spspp|

; 3345 :     return k;

	ldr         w0,[sp]
|$LN1@skip_spspp|
	add         sp,sp,#0x20
	ret

	ENDP  ; |?skip_spspps@@YAHPEBEHH@Z|, skip_spspps

; Function compile flags: /Odtp
; File C:\Users\paras\source\repos\grep-name\XenevaOS\Process\AudioPlayer\minimp4.h

	AREA	|.text$mn|, CODE, ARM64

|?sample_to_chunk@@YAHPEAUMP4D_track_t@@IPEAI@Z| PROC	; sample_to_chunk

; 3237 : {

	sub         sp,sp,#0x20
	str         x0,[sp,#0x10]
	str         w1,[sp,#0xC]
	str         x2,[sp,#0x18]

; 3238 :     unsigned chunk_group = 0, nc;

	mov         w8,#0
	str         w8,[sp]

; 3239 :     unsigned sum = 0;

	mov         w8,#0
	str         w8,[sp,#8]

; 3240 :     *nfirst_sample_in_chunk = 0;

	ldr         x9,[sp,#0x18]
	mov         w8,#0
	str         w8,[x9]

; 3241 :     if (tr->chunk_count <= 1)

	ldr         x8,[sp,#0x10]
	add         x8,x8,#0x58
	ldr         w8,[x8]
	cmp         w8,#1
	bhi         |$LN5@sample_to_|

; 3242 :     {
; 3243 :         return 0;

	mov         w0,#0
	b           |$LN1@sample_to_|
|$LN5@sample_to_|

; 3244 :     }
; 3245 :     for (nc = 0; nc < tr->chunk_count; nc++)

	mov         w8,#0
	str         w8,[sp,#4]
	b           |$LN4@sample_to_|
|$LN2@sample_to_|
	ldr         w8,[sp,#4]
	add         w8,w8,#1
	str         w8,[sp,#4]
|$LN4@sample_to_|
	ldr         x8,[sp,#0x10]
	add         x8,x8,#0x58
	ldr         w9,[x8]
	ldr         w8,[sp,#4]
	cmp         w8,w9
	bhs         |$LN3@sample_to_|

; 3246 :     {
; 3247 :         if (chunk_group + 1 < tr->sample_to_chunk_count     // stuck at last entry till EOF
; 3248 :             && nc + 1 ==    // Chunks counted starting with '1'

	ldr         w8,[sp]
	add         w9,w8,#1
	ldr         x8,[sp,#0x10]
	add         x8,x8,#0x48
	ldr         w8,[x8]
	cmp         w9,w8
	bhs         |$LN6@sample_to_|
	ldr         w8,[sp,#4]
	add         w11,w8,#1
	ldr         x8,[sp,#0x10]
	add         x10,x8,#0x50
	ldr         w8,[sp]
	add         w8,w8,#1
	uxtw        x9,w8
	mov         x8,#8
	mul         x9,x9,x8
	ldr         x8,[x10]
	add         x8,x8,x9
	ldr         w8,[x8]
	cmp         w11,w8
	bne         |$LN6@sample_to_|

; 3249 :             tr->sample_to_chunk[chunk_group + 1].first_chunk)    // next group?
; 3250 :         {
; 3251 :             chunk_group++;

	ldr         w8,[sp]
	add         w8,w8,#1
	str         w8,[sp]
|$LN6@sample_to_|

; 3252 :         }
; 3253 : 
; 3254 :         sum += tr->sample_to_chunk[chunk_group].samples_per_chunk;

	ldr         x8,[sp,#0x10]
	add         x10,x8,#0x50
	ldr         w8,[sp]
	uxtw        x9,w8
	mov         x8,#8
	mul         x9,x9,x8
	ldr         x8,[x10]
	add         x8,x8,x9
	add         x8,x8,#4
	ldr         w9,[sp,#8]
	ldr         w8,[x8]
	add         w8,w9,w8
	str         w8,[sp,#8]

; 3255 :         if (nsample < sum)

	ldr         w9,[sp,#8]
	ldr         w8,[sp,#0xC]
	cmp         w8,w9
	bhs         |$LN7@sample_to_|

; 3256 :             return nc;

	ldr         w0,[sp,#4]
	b           |$LN1@sample_to_|
|$LN7@sample_to_|

; 3257 : 
; 3258 :         // TODO: this can be calculated once per file
; 3259 :         *nfirst_sample_in_chunk = sum;

	ldr         x9,[sp,#0x18]
	ldr         w8,[sp,#8]
	str         w8,[x9]

; 3260 :     }

	b           |$LN2@sample_to_|
|$LN3@sample_to_|

; 3261 :     return -1;

	mov         w0,#-1
|$LN1@sample_to_|
	add         sp,sp,#0x20
	ret

	ENDP  ; |?sample_to_chunk@@YAHPEAUMP4D_track_t@@IPEAI@Z|, sample_to_chunk

; Function compile flags: /Odtp
; File C:\Users\paras\source\repos\grep-name\XenevaOS\Process\AudioPlayer\minimp4.h

	AREA	|.text$mn|, CODE, ARM64

|?my_fseek@@YAXPEAUMP4D_demux_tag@@_KPEAH@Z| PROC	; my_fseek

; 2538 : {

	sub         sp,sp,#0x20
	str         x0,[sp]
	str         x1,[sp,#8]
	str         x2,[sp,#0x10]

; 2539 :     mp4->read_pos += pos;

	ldr         x8,[sp]
	ldr         x9,[x8]
	ldr         x8,[sp,#8]
	add         x9,x9,x8
	ldr         x8,[sp]
	str         x9,[x8]

; 2540 :     if (mp4->read_pos >= mp4->read_size)

	ldr         x10,[sp]
	ldr         x8,[sp]
	add         x8,x8,#8
	ldr         x9,[x8]
	ldr         x8,[x10]
	cmp         x8,x9
	blt         |$LN2@my_fseek|

; 2541 :         *eof_flag = 1;

	ldr         x9,[sp,#0x10]
	mov         w8,#1
	str         w8,[x9]
|$LN2@my_fseek|
	add         sp,sp,#0x20
	ret

	ENDP  ; |?my_fseek@@YAXPEAUMP4D_demux_tag@@_KPEAH@Z|, my_fseek

; Function compile flags: /Odtp
; File C:\Users\paras\source\repos\grep-name\XenevaOS\Process\AudioPlayer\minimp4.h

	AREA	|.text$mn|, CODE, ARM64

|?read_payload@@YAIPEAUMP4D_demux_tag@@IPEA_KPEAH@Z| PROC ; read_payload

; 2522 : {

	stp         fp,lr,[sp,#-0x30]!
	mov         fp,sp
	str         x0,[sp,#0x28]
	str         w1,[sp,#0x10]
	str         x2,[sp,#0x18]
	str         x3,[sp,#0x20]

; 2523 :     if (*payload_bytes < nb)

	ldr         w8,[sp,#0x10]
	uxtw        x9,w8
	ldr         x8,[sp,#0x18]
	ldr         x8,[x8]
	cmp         x8,x9
	bhs         |$LN2@read_paylo|

; 2524 :     {
; 2525 :         *eof_flag = 1;

	ldr         x9,[sp,#0x20]
	mov         w8,#1
	str         w8,[x9]

; 2526 :         nb = (int)*payload_bytes;

	ldr         x8,[sp,#0x18]
	ldr         x8,[x8]
	mov         w8,w8
	str         w8,[sp,#0x10]
|$LN2@read_paylo|

; 2527 :     }
; 2528 :     *payload_bytes -= nb;

	ldr         w8,[sp,#0x10]
	uxtw        x9,w8
	ldr         x8,[sp,#0x18]
	ldr         x8,[x8]
	sub         x9,x8,x9
	ldr         x8,[sp,#0x18]
	str         x9,[x8]

; 2529 : 
; 2530 :     return minimp4_read(mp4, nb, eof_flag);

	ldr         x2,[sp,#0x20]
	ldr         w1,[sp,#0x10]
	ldr         x0,[sp,#0x28]
	bl          |?minimp4_read@@YAIPEAUMP4D_demux_tag@@HPEAH@Z|
	mov         w0,w0
	mov         w0,w0
	ldp         fp,lr,[sp],#0x30
	ret

	ENDP  ; |?read_payload@@YAIPEAUMP4D_demux_tag@@IPEA_KPEAH@Z|, read_payload

; Function compile flags: /Odtp
; File C:\Users\paras\source\repos\grep-name\XenevaOS\Process\AudioPlayer\minimp4.h

	AREA	|.text$mn|, CODE, ARM64

|?minimp4_read@@YAIPEAUMP4D_demux_tag@@HPEAH@Z| PROC	; minimp4_read

; 2500 : {

	str         x19,[sp,#-0x10]!
	stp         fp,lr,[sp,#-0x30]!
	mov         fp,sp
	str         x0,[sp,#0x20]
	str         w1,[sp,#0x1C]
	str         x2,[sp,#0x28]

; 2501 :     uint32_t v = 0; int last_byte;

	mov         w8,#0
	str         w8,[sp,#0x10]

; 2502 :     switch (nb)

	ldr         w8,[sp,#0x1C]
	str         w8,[sp,#0x14]
	ldr         w8,[sp,#0x14]
	sub         w8,w8,#1
	str         w8,[sp,#0x14]
	ldr         w8,[sp,#0x14]
	cmp         w8,#3
	bhi         |$LN7@minimp4_re|
	ldr         w10,[sp,#0x14]
	adr         x9,__swt
	ldrsb       x8,[x9,w10 uxtw #0]
	add         x8,x9,x8,lsl #2
	br          x8
|$LN4@minimp4_re|

; 2503 :     {
; 2504 :     case 4: v = (v << 8) | minimp4_fgets(mp4);

	ldr         w8,[sp,#0x10]
	lsl         w19,w8,#8
	ldr         x0,[sp,#0x20]
	bl          |?minimp4_fgets@@YAHPEAUMP4D_demux_tag@@@Z|
	mov         w0,w0
	orr         w8,w19,w0
	str         w8,[sp,#0x10]
|$LN5@minimp4_re|

; 2505 :     case 3: v = (v << 8) | minimp4_fgets(mp4);

	ldr         w8,[sp,#0x10]
	lsl         w19,w8,#8
	ldr         x0,[sp,#0x20]
	bl          |?minimp4_fgets@@YAHPEAUMP4D_demux_tag@@@Z|
	mov         w0,w0
	orr         w8,w19,w0
	str         w8,[sp,#0x10]
|$LN6@minimp4_re|

; 2506 :     case 2: v = (v << 8) | minimp4_fgets(mp4);

	ldr         w8,[sp,#0x10]
	lsl         w19,w8,#8
	ldr         x0,[sp,#0x20]
	bl          |?minimp4_fgets@@YAHPEAUMP4D_demux_tag@@@Z|
	mov         w0,w0
	orr         w8,w19,w0
	str         w8,[sp,#0x10]
|$LN7@minimp4_re|
|$LN8@minimp4_re|

; 2507 :     default:
; 2508 :     case 1: v = (v << 8) | (last_byte = minimp4_fgets(mp4));

	ldr         x0,[sp,#0x20]
	bl          |?minimp4_fgets@@YAHPEAUMP4D_demux_tag@@@Z|
	mov         w0,w0
	str         w0,[sp,#0x18]
	ldr         w8,[sp,#0x10]
	lsl         w9,w8,#8
	ldr         w8,[sp,#0x18]
	orr         w8,w9,w8
	str         w8,[sp,#0x10]

; 2509 :     }
; 2510 :     if (last_byte < 0)

	ldr         w8,[sp,#0x18]
	cmp         w8,#0
	bge         |$LN9@minimp4_re|

; 2511 :     {
; 2512 :         *eof_flag = 1;

	ldr         x9,[sp,#0x28]
	mov         w8,#1
	str         w8,[x9]
|$LN9@minimp4_re|

; 2513 :     }
; 2514 :     return v;

	ldr         w0,[sp,#0x10]
	ldp         fp,lr,[sp],#0x30
	ldr         x19,[sp],#0x10
	ret
|__swt|
|$LN12@minimp4_re|

; 2502 :     switch (nb)

	DCB         0xed
|$LN13@minimp4_re|
	DCB         0xe6
|$LN14@minimp4_re|
	DCB         0xdf
|$LN15@minimp4_re|
	DCB         0xd8

	ENDP  ; |?minimp4_read@@YAIPEAUMP4D_demux_tag@@HPEAH@Z|, minimp4_read

; Function compile flags: /Odtp
; File C:\Users\paras\source\repos\grep-name\XenevaOS\Process\AudioPlayer\minimp4.h

	AREA	|.text$mn|, CODE, ARM64

|?minimp4_fgets@@YAHPEAUMP4D_demux_tag@@@Z| PROC	; minimp4_fgets

; 2487 : {

	stp         fp,lr,[sp,#-0x20]!
	mov         fp,sp
	str         x0,[sp,#0x18]

; 2488 :     uint8_t c;
; 2489 :     if (mp4->read_callback(mp4->read_pos, &c, 1, mp4->token))

	ldr         x8,[sp,#0x18]
	add         x10,x8,#0x20
	ldr         x9,[sp,#0x18]
	ldr         x8,[sp,#0x18]
	add         x8,x8,#0x18
	ldr         x3,[x10]
	mov         x2,#1
	add         x1,sp,#0x10
	ldr         x0,[x9]
	ldr         x8,[x8]
	blr         x8
	mov         w0,w0
	cmp         w0,#0
	beq         |$LN2@minimp4_fg|

; 2490 :         return -1;

	mov         w0,#-1
	b           |$LN1@minimp4_fg|
|$LN2@minimp4_fg|

; 2491 :     mp4->read_pos++;

	ldr         x8,[sp,#0x18]
	ldr         x8,[x8]
	add         x9,x8,#1
	ldr         x8,[sp,#0x18]
	str         x9,[x8]

; 2492 :     return c;

	ldrb        w0,[sp,#0x10]
	mov         w0,w0
	mov         w0,w0
|$LN1@minimp4_fg|
	ldp         fp,lr,[sp],#0x20
	ret

	ENDP  ; |?minimp4_fgets@@YAHPEAUMP4D_demux_tag@@@Z|, minimp4_fgets

; Function compile flags: /Odtp
; File C:\Users\paras\source\repos\grep-name\XenevaOS\Process\AudioPlayer\minimp4.h

	AREA	|.text$mn|, CODE, ARM64

|?mp4_h265_write_nal@@YAHPEAUmp4_h26x_writer_tag@@PEBEHI@Z| PROC ; mp4_h265_write_nal

; 2297 : {

	stp         fp,lr,[sp,#-0x50]!
	mov         fp,sp
	str         x0,[sp,#0x18]
	str         x1,[sp,#0x40]
	str         w2,[sp,#0x10]
	str         w3,[sp,#0x48]

; 2298 :     int payload_type = (nal[0] >> 1) & 0x3f;

	ldr         x8,[sp,#0x40]
	ldrb        w8,[x8]
	mov         w8,w8
	asr         w8,w8,#1
	and         w8,w8,#0x3F
	str         w8,[sp,#0x28]

; 2299 :     int is_intra = payload_type >= HEVC_NAL_BLA_W_LP && payload_type <= HEVC_NAL_CRA_NUT;

	ldr         w8,[sp,#0x28]
	cmp         w8,#0x10
	blt         |$LN14@mp4_h265_w|
	ldr         w8,[sp,#0x28]
	cmp         w8,#0x15
	bgt         |$LN14@mp4_h265_w|
	mov         w8,#1
	str         w8,[sp,#0x30]
	b           |$LN15@mp4_h265_w|
|$LN14@mp4_h265_w|
	mov         w8,#0
	str         w8,[sp,#0x30]
|$LN15@mp4_h265_w|
	ldr         w8,[sp,#0x30]
	str         w8,[sp,#0x34]

; 2300 :     int err = MP4E_STATUS_OK;

	mov         w8,#0
	str         w8,[sp,#0x3C]

; 2301 :     //printf("payload_type=%d, intra=%d\n", payload_type, is_intra);
; 2302 : 
; 2303 :     if (is_intra && !h->need_sps && !h->need_pps && !h->need_vps)

	ldr         w8,[sp,#0x34]
	cmp         w8,#0
	beq         |$LN4@mp4_h265_w|
	ldr         x9,[sp,#0x18]
	mov         x8,#0x1214
	add         x8,x9,x8
	ldr         w8,[x8]
	cmp         w8,#0
	bne         |$LN4@mp4_h265_w|
	ldr         x9,[sp,#0x18]
	mov         x8,#0x1218
	add         x8,x9,x8
	ldr         w8,[x8]
	cmp         w8,#0
	bne         |$LN4@mp4_h265_w|
	ldr         x9,[sp,#0x18]
	mov         x8,#0x1210
	add         x8,x9,x8
	ldr         w8,[x8]
	cmp         w8,#0
	bne         |$LN4@mp4_h265_w|

; 2304 :         h->need_idr = 0;

	ldr         x9,[sp,#0x18]
	mov         x8,#0x121C
	add         x9,x9,x8
	mov         w8,#0
	str         w8,[x9]
|$LN4@mp4_h265_w|

; 2305 :     switch (payload_type)

	ldr         w8,[sp,#0x28]
	str         w8,[sp,#0x2C]
	ldr         w8,[sp,#0x2C]
	cmp         w8,#0x20
	beq         |$LN5@mp4_h265_w|
	ldr         w8,[sp,#0x2C]
	cmp         w8,#0x21
	beq         |$LN6@mp4_h265_w|
	ldr         w8,[sp,#0x2C]
	cmp         w8,#0x22
	beq         |$LN7@mp4_h265_w|
	b           |$LN8@mp4_h265_w|
|$LN5@mp4_h265_w|

; 2306 :     {
; 2307 :     case HEVC_NAL_VPS:
; 2308 :         MP4E_set_vps(h->mux, h->mux_track_id, nal, sizeof_nal);

	ldr         x9,[sp,#0x18]
	mov         x8,#0x1208
	add         x10,x9,x8
	ldr         x9,[sp,#0x18]
	mov         x8,#0x1200
	add         x8,x9,x8
	ldr         w3,[sp,#0x10]
	ldr         x2,[sp,#0x40]
	ldr         w1,[x10]
	ldr         x0,[x8]
	bl          MP4E_set_vps

; 2309 :         h->need_vps = 0;

	ldr         x9,[sp,#0x18]
	mov         x8,#0x1210
	add         x9,x9,x8
	mov         w8,#0
	str         w8,[x9]

; 2310 :         break;

	b           |$LN2@mp4_h265_w|
|$LN6@mp4_h265_w|

; 2311 :     case HEVC_NAL_SPS:
; 2312 :         MP4E_set_sps(h->mux, h->mux_track_id, nal, sizeof_nal);

	ldr         x9,[sp,#0x18]
	mov         x8,#0x1208
	add         x10,x9,x8
	ldr         x9,[sp,#0x18]
	mov         x8,#0x1200
	add         x8,x9,x8
	ldr         w3,[sp,#0x10]
	ldr         x2,[sp,#0x40]
	ldr         w1,[x10]
	ldr         x0,[x8]
	bl          MP4E_set_sps

; 2313 :         h->need_sps = 0;

	ldr         x9,[sp,#0x18]
	mov         x8,#0x1214
	add         x9,x9,x8
	mov         w8,#0
	str         w8,[x9]

; 2314 :         break;

	b           |$LN2@mp4_h265_w|
|$LN7@mp4_h265_w|

; 2315 :     case HEVC_NAL_PPS:
; 2316 :         MP4E_set_pps(h->mux, h->mux_track_id, nal, sizeof_nal);

	ldr         x9,[sp,#0x18]
	mov         x8,#0x1208
	add         x10,x9,x8
	ldr         x9,[sp,#0x18]
	mov         x8,#0x1200
	add         x8,x9,x8
	ldr         w3,[sp,#0x10]
	ldr         x2,[sp,#0x40]
	ldr         w1,[x10]
	ldr         x0,[x8]
	bl          MP4E_set_pps

; 2317 :         h->need_pps = 0;

	ldr         x9,[sp,#0x18]
	mov         x8,#0x1218
	add         x9,x9,x8
	mov         w8,#0
	str         w8,[x9]

; 2318 :         break;

	b           |$LN2@mp4_h265_w|
|$LN8@mp4_h265_w|

; 2319 :     default:
; 2320 :         if (h->need_vps || h->need_sps || h->need_pps || h->need_idr)

	ldr         x9,[sp,#0x18]
	mov         x8,#0x1210
	add         x8,x9,x8
	ldr         w8,[x8]
	cmp         w8,#0
	bne         |$LN10@mp4_h265_w|
	ldr         x9,[sp,#0x18]
	mov         x8,#0x1214
	add         x8,x9,x8
	ldr         w8,[x8]
	cmp         w8,#0
	bne         |$LN10@mp4_h265_w|
	ldr         x9,[sp,#0x18]
	mov         x8,#0x1218
	add         x8,x9,x8
	ldr         w8,[x8]
	cmp         w8,#0
	bne         |$LN10@mp4_h265_w|
	ldr         x9,[sp,#0x18]
	mov         x8,#0x121C
	add         x8,x9,x8
	ldr         w8,[x8]
	cmp         w8,#0
	beq         |$LN9@mp4_h265_w|
|$LN10@mp4_h265_w|

; 2321 :             return MP4E_STATUS_BAD_ARGUMENTS;

	mov         w0,#-1
	b           |$LN1@mp4_h265_w|
|$LN9@mp4_h265_w|

; 2322 :         {
; 2323 :             unsigned char* tmp = (unsigned char*)malloc(4 + sizeof_nal);

	ldr         w8,[sp,#0x10]
	add         w0,w8,#4
	mov         w0,w0
	bl          malloc
	str         x0,[sp,#0x20]

; 2324 :             if (!tmp)

	ldr         x8,[sp,#0x20]
	cmp         x8,#0
	bne         |$LN11@mp4_h265_w|

; 2325 :                 return MP4E_STATUS_NO_MEMORY;

	mov         w0,#-2
	b           |$LN1@mp4_h265_w|
|$LN11@mp4_h265_w|

; 2326 :             int sample_kind = MP4E_SAMPLE_DEFAULT;

	mov         w8,#0
	str         w8,[sp,#0x38]

; 2327 :             tmp[0] = (unsigned char)(sizeof_nal >> 24);

	ldr         w8,[sp,#0x10]
	asr         w8,w8,#0x18
	uxtb        w9,w8
	ldr         x8,[sp,#0x20]
	strb        w9,[x8]

; 2328 :             tmp[1] = (unsigned char)(sizeof_nal >> 16);

	ldr         w8,[sp,#0x10]
	asr         w8,w8,#0x10
	uxtb        w9,w8
	ldr         x8,[sp,#0x20]
	add         x8,x8,#1
	strb        w9,[x8]

; 2329 :             tmp[2] = (unsigned char)(sizeof_nal >> 8);

	ldr         w8,[sp,#0x10]
	asr         w8,w8,#8
	uxtb        w9,w8
	ldr         x8,[sp,#0x20]
	add         x8,x8,#2
	strb        w9,[x8]

; 2330 :             tmp[3] = (unsigned char)(sizeof_nal);

	ldr         w8,[sp,#0x10]
	uxtb        w9,w8
	ldr         x8,[sp,#0x20]
	add         x8,x8,#3
	strb        w9,[x8]

; 2331 :             memcpy(tmp + 4,(void*) nal, sizeof_nal);

	ldr         w8,[sp,#0x10]
	sxtw        x2,w8
	ldr         x8,[sp,#0x20]
	add         x0,x8,#4
	ldr         x1,[sp,#0x40]
	bl          memcpy

; 2332 :             if (is_intra)

	ldr         w8,[sp,#0x34]
	cmp         w8,#0
	beq         |$LN12@mp4_h265_w|

; 2333 :                 sample_kind = MP4E_SAMPLE_RANDOM_ACCESS;

	mov         w8,#1
	str         w8,[sp,#0x38]
|$LN12@mp4_h265_w|

; 2334 :             err = MP4E_put_sample(h->mux, h->mux_track_id, tmp, 4 + sizeof_nal, timeStamp90kHz_next, sample_kind);

	ldr         w8,[sp,#0x10]
	add         w3,w8,#4
	ldr         x9,[sp,#0x18]
	mov         x8,#0x1208
	add         x10,x9,x8
	ldr         x9,[sp,#0x18]
	mov         x8,#0x1200
	add         x8,x9,x8
	ldr         w5,[sp,#0x38]
	ldr         w4,[sp,#0x48]
	mov         w3,w3
	ldr         x2,[sp,#0x20]
	ldr         w1,[x10]
	ldr         x0,[x8]
	bl          MP4E_put_sample
	mov         w0,w0
	str         w0,[sp,#0x3C]

; 2335 :             free(tmp);

	ldr         x0,[sp,#0x20]
	bl          free
|$LN2@mp4_h265_w|

; 2336 :         }
; 2337 :         break;
; 2338 :     }
; 2339 :     return err;

	ldr         w0,[sp,#0x3C]
|$LN1@mp4_h265_w|
	ldp         fp,lr,[sp],#0x50
	ret

	ENDP  ; |?mp4_h265_write_nal@@YAHPEAUmp4_h26x_writer_tag@@PEBEHI@Z|, mp4_h265_write_nal

; Function compile flags: /Odtp
; File C:\Users\paras\source\repos\grep-name\XenevaOS\Process\AudioPlayer\minimp4.h

	AREA	|.text$mn|, CODE, ARM64

|?find_nal_unit@@YAPEBEPEBEHPEAH@Z| PROC		; find_nal_unit

; 2232 : {

	stp         fp,lr,[sp,#-0x40]!
	mov         fp,sp
	str         x0,[sp,#0x28]
	str         w1,[sp,#0x10]
	str         x2,[sp,#0x38]

; 2233 :     const uint8_t* eof = h264_data + h264_data_bytes;

	ldr         w8,[sp,#0x10]
	sxtw        x9,w8
	ldr         x8,[sp,#0x28]
	add         x8,x8,x9
	str         x8,[sp,#0x30]

; 2234 :     int zcount;
; 2235 :     const uint8_t* start = find_start_code(h264_data, h264_data_bytes, &zcount);

	add         x2,sp,#0x14
	ldr         w1,[sp,#0x10]
	ldr         x0,[sp,#0x28]
	bl          |?find_start_code@@YAPEBEPEBEHPEAH@Z|
	str         x0,[sp,#0x18]

; 2236 :     const uint8_t* stop = start;

	ldr         x8,[sp,#0x18]
	str         x8,[sp,#0x20]

; 2237 :     if (start)

	ldr         x8,[sp,#0x18]
	cmp         x8,#0
	beq         |$LN4@find_nal_u|

; 2238 :     {
; 2239 :         stop = find_start_code(start, (int)(eof - start), &zcount);

	ldr         x9,[sp,#0x30]
	ldr         x8,[sp,#0x18]
	sub         x8,x9,x8
	mov         w1,w8
	add         x2,sp,#0x14
	mov         w1,w1
	ldr         x0,[sp,#0x18]
	bl          |?find_start_code@@YAPEBEPEBEHPEAH@Z|
	str         x0,[sp,#0x20]
|$LN2@find_nal_u|

; 2240 :         while (stop > start && !stop[-1])

	ldr         x9,[sp,#0x18]
	ldr         x8,[sp,#0x20]
	cmp         x8,x9
	bls         |$LN3@find_nal_u|
	ldr         x9,[sp,#0x20]
	mov         x8,#-1
	add         x8,x9,x8
	ldrb        w8,[x8]
	mov         w8,w8
	cmp         w8,#0
	bne         |$LN3@find_nal_u|

; 2241 :         {
; 2242 :             stop--;

	ldr         x8,[sp,#0x20]
	sub         x8,x8,#1
	str         x8,[sp,#0x20]

; 2243 :         }

	b           |$LN2@find_nal_u|
|$LN3@find_nal_u|
|$LN4@find_nal_u|

; 2244 :     }
; 2245 : 
; 2246 :     *pnal_unit_bytes = (int)(stop - start - zcount);

	ldr         x9,[sp,#0x20]
	ldr         x8,[sp,#0x18]
	sub         x9,x9,x8
	ldr         w8,[sp,#0x14]
	sxtw        x8,w8
	sub         x8,x9,x8
	mov         w9,w8
	ldr         x8,[sp,#0x38]
	str         w9,[x8]

; 2247 :     return start;

	ldr         x0,[sp,#0x18]
	ldp         fp,lr,[sp],#0x40
	ret

	ENDP  ; |?find_nal_unit@@YAPEBEPEBEHPEAH@Z|, find_nal_unit

; Function compile flags: /Odtp
; File C:\Users\paras\source\repos\grep-name\XenevaOS\Process\AudioPlayer\minimp4.h

	AREA	|.text$mn|, CODE, ARM64

|?find_start_code@@YAPEBEPEBEHPEAH@Z| PROC		; find_start_code

; 2208 : {

	stp         fp,lr,[sp,#-0x50]!
	mov         fp,sp
	str         x0,[sp,#0x28]
	str         w1,[sp,#0x14]
	str         x2,[sp,#0x40]

; 2209 :     const uint8_t* eof = h264_data + h264_data_bytes;

	ldr         w8,[sp,#0x14]
	sxtw        x9,w8
	ldr         x8,[sp,#0x28]
	add         x8,x8,x9
	str         x8,[sp,#0x20]

; 2210 :     const uint8_t* p = h264_data;

	ldr         x8,[sp,#0x28]
	str         x8,[sp,#0x18]
|$LN4@find_start|

; 2211 :     do
; 2212 :     {
; 2213 :         int zero_cnt = 1;

	mov         w8,#1
	str         w8,[sp,#0x10]

; 2214 :         const uint8_t* found = (uint8_t*)memchr(p, 0, eof - p);

	ldr         x9,[sp,#0x20]
	ldr         x8,[sp,#0x18]
	sub         x2,x9,x8
	mov         w1,#0
	ldr         x0,[sp,#0x18]
	bl          memchr
	str         x0,[sp,#0x30]

; 2215 :         p = found ? found : eof;

	ldr         x8,[sp,#0x30]
	cmp         x8,#0
	beq         |$LN9@find_start|
	ldr         x8,[sp,#0x30]
	str         x8,[sp,#0x38]
	b           |$LN10@find_start|
|$LN9@find_start|
	ldr         x8,[sp,#0x20]
	str         x8,[sp,#0x38]
|$LN10@find_start|
	ldr         x8,[sp,#0x38]
	str         x8,[sp,#0x18]
|$LN5@find_start|

; 2216 :         while (p + zero_cnt < eof && !p[zero_cnt]) zero_cnt++;

	ldr         w8,[sp,#0x10]
	sxtw        x9,w8
	ldr         x8,[sp,#0x18]
	add         x9,x8,x9
	ldr         x8,[sp,#0x20]
	cmp         x9,x8
	bhs         |$LN6@find_start|
	ldr         w8,[sp,#0x10]
	sxtw        x9,w8
	mov         x8,#1
	mul         x9,x9,x8
	ldr         x8,[sp,#0x18]
	add         x8,x8,x9
	ldrb        w8,[x8]
	mov         w8,w8
	cmp         w8,#0
	bne         |$LN6@find_start|
	ldr         w8,[sp,#0x10]
	add         w8,w8,#1
	str         w8,[sp,#0x10]
	b           |$LN5@find_start|
|$LN6@find_start|

; 2217 :         if (zero_cnt >= 2 && p[zero_cnt] == 1)

	ldr         w8,[sp,#0x10]
	cmp         w8,#2
	blt         |$LN7@find_start|
	ldr         w8,[sp,#0x10]
	sxtw        x9,w8
	mov         x8,#1
	mul         x9,x9,x8
	ldr         x8,[sp,#0x18]
	add         x8,x8,x9
	ldrb        w8,[x8]
	mov         w8,w8
	cmp         w8,#1
	bne         |$LN7@find_start|

; 2218 :         {
; 2219 :             *zcount = zero_cnt + 1;

	ldr         w8,[sp,#0x10]
	add         w9,w8,#1
	ldr         x8,[sp,#0x40]
	str         w9,[x8]

; 2220 :             return p + zero_cnt + 1;

	ldr         w8,[sp,#0x10]
	sxtw        x9,w8
	ldr         x8,[sp,#0x18]
	add         x8,x8,x9
	add         x0,x8,#1
	b           |$LN1@find_start|
|$LN7@find_start|

; 2221 :         }
; 2222 :         p += zero_cnt;

	ldr         w8,[sp,#0x10]
	sxtw        x9,w8
	ldr         x8,[sp,#0x18]
	add         x8,x8,x9
	str         x8,[sp,#0x18]

; 2223 :     } while (p < eof);

	ldr         x9,[sp,#0x20]
	ldr         x8,[sp,#0x18]
	cmp         x8,x9
	blo         |$LN4@find_start|

; 2224 :     *zcount = 0;

	ldr         x9,[sp,#0x40]
	mov         w8,#0
	str         w8,[x9]

; 2225 :     return eof;

	ldr         x0,[sp,#0x20]
|$LN1@find_start|
	ldp         fp,lr,[sp],#0x50
	ret

	ENDP  ; |?find_start_code@@YAPEBEPEBEHPEAH@Z|, find_start_code

; Function compile flags: /Odtp
; File C:\Users\paras\source\repos\grep-name\XenevaOS\Process\AudioPlayer\minimp4.h

	AREA	|.text$mn|, CODE, ARM64

|?transcode_nalu@@YAHPEAUh264_sps_id_patcher_t@@PEBEHPEAE@Z| PROC ; transcode_nalu

; 2143 : {

	stp         fp,lr,[sp,#-0xC0]!
	mov         fp,sp
	str         x0,[sp,#0x20]
	str         x1,[sp,#0x38]
	str         w2,[sp,#0x10]
	str         x3,[sp,#0x30]

; 2144 :     int old_id;
; 2145 : 
; 2146 :     bit_reader_t bst[1];
; 2147 :     bs_t bdt[1];
; 2148 : 
; 2149 :     bit_reader_t bs[1];
; 2150 :     bs_t bd[1];
; 2151 :     int payload_type = src[0] & 31;

	ldr         x8,[sp,#0x38]
	ldrb        w8,[x8]
	mov         w8,w8
	and         w8,w8,#0x1F
	str         w8,[sp,#0x40]

; 2152 : 
; 2153 :     *dst = *src;

	ldr         x9,[sp,#0x30]
	ldr         x8,[sp,#0x38]
	ldrb        w8,[x8]
	strb        w8,[x9]

; 2154 :     h264e_bs_init_bits(bd, dst + 1);

	ldr         x8,[sp,#0x30]
	add         x1,x8,#1
	add         x0,sp,#0x50
	bl          |?h264e_bs_init_bits@@YAXPEAUbs_t@@PEAX@Z|

; 2155 :     init_bits(bs, src + 1, nalu_bytes - 1);

	ldr         w8,[sp,#0x10]
	sub         w2,w8,#1
	ldr         x8,[sp,#0x38]
	add         x1,x8,#1
	mov         w2,w2
	add         x0,sp,#0x80
	bl          |?init_bits@@YAXPEAUbit_reader_t@@PEBXI@Z|

; 2156 :     h264e_bs_init_bits(bdt, dst + 1);

	ldr         x8,[sp,#0x30]
	add         x1,x8,#1
	add         x0,sp,#0x68
	bl          |?h264e_bs_init_bits@@YAXPEAUbs_t@@PEAX@Z|

; 2157 :     init_bits(bst, src + 1, nalu_bytes - 1);

	ldr         w8,[sp,#0x10]
	sub         w2,w8,#1
	ldr         x8,[sp,#0x38]
	add         x1,x8,#1
	mov         w2,w2
	add         x0,sp,#0xA0
	bl          |?init_bits@@YAXPEAUbit_reader_t@@PEBXI@Z|

; 2158 : 
; 2159 :     switch (payload_type)

	ldr         w8,[sp,#0x40]
	str         w8,[sp,#0x18]
	ldr         w8,[sp,#0x18]
	sub         w8,w8,#1
	str         w8,[sp,#0x18]
	ldr         w8,[sp,#0x18]
	cmp         w8,#7
	bhi         |$LN11@transcode_|
	ldr         w10,[sp,#0x18]
	adr         x9,__swt
	ldrsb       x8,[x9,w10 uxtw #0]
	add         x8,x9,x8,lsl #2
	br          x8
|$LN4@transcode_|

; 2160 :     {
; 2161 :     case 7:
; 2162 :     {
; 2163 :         int cb = change_sps_id(bst, bdt, 0, &old_id);

	add         x3,sp,#0x14
	mov         w2,#0
	add         x1,sp,#0x68
	add         x0,sp,#0xA0
	bl          |?change_sps_id@@YAHPEAUbit_reader_t@@PEAUbs_t@@HPEAH@Z|
	mov         w0,w0
	str         w0,[sp,#0x44]

; 2164 :         int id = find_mem_cache(h->sps_cache, h->sps_bytes, MINIMP4_MAX_SPS, dst + 1, cb);

	ldr         x8,[sp,#0x30]
	add         x3,x8,#1
	ldr         x8,[sp,#0x20]
	add         x1,x8,#0x900
	ldr         x0,[sp,#0x20]
	ldr         w4,[sp,#0x44]
	mov         w2,#0x20
	bl          |?find_mem_cache@@YAHQEAPEAXQEAHHPEAXH@Z|
	mov         w0,w0
	str         w0,[sp,#0x28]

; 2165 :         if (id == -1)

	ldr         w8,[sp,#0x28]
	cmn         w8,#1
	bne         |$LN5@transcode_|

; 2166 :             return 0;

	mov         w0,#0
	b           |$LN1@transcode_|
|$LN5@transcode_|

; 2167 :         h->map_sps[old_id] = id;

	ldr         x8,[sp,#0x20]
	add         x10,x8,#0xD80
	ldr         w8,[sp,#0x14]
	sxtw        x9,w8
	mov         x8,#4
	mul         x8,x9,x8
	add         x9,x10,x8
	ldr         w8,[sp,#0x28]
	str         w8,[x9]

; 2168 :         change_sps_id(bs, bd, id, &old_id);

	add         x3,sp,#0x14
	ldr         w2,[sp,#0x28]
	add         x1,sp,#0x50
	add         x0,sp,#0x80
	bl          |?change_sps_id@@YAHPEAUbit_reader_t@@PEAUbs_t@@HPEAH@Z|

; 2169 :     }
; 2170 :     break;

	b           |$LN2@transcode_|
|$LN6@transcode_|

; 2171 :     case 8:
; 2172 :     {
; 2173 :         int cb = patch_pps(h, bst, bdt, 0, &old_id);

	add         x4,sp,#0x14
	mov         w3,#0
	add         x2,sp,#0x68
	add         x1,sp,#0xA0
	ldr         x0,[sp,#0x20]
	bl          |?patch_pps@@YAHPEAUh264_sps_id_patcher_t@@PEAUbit_reader_t@@PEAUbs_t@@HPEAH@Z|
	mov         w0,w0
	str         w0,[sp,#0x48]

; 2174 :         int id = find_mem_cache(h->pps_cache, h->pps_bytes, MINIMP4_MAX_PPS, dst + 1, cb);

	ldr         x8,[sp,#0x30]
	add         x3,x8,#1
	ldr         x8,[sp,#0x20]
	add         x1,x8,#0x980
	ldr         x8,[sp,#0x20]
	add         x0,x8,#0x100
	ldr         w4,[sp,#0x48]
	mov         w2,#0x100
	bl          |?find_mem_cache@@YAHQEAPEAXQEAHHPEAXH@Z|
	mov         w0,w0
	str         w0,[sp,#0x2C]

; 2175 :         if (id == -1)

	ldr         w8,[sp,#0x2C]
	cmn         w8,#1
	bne         |$LN7@transcode_|

; 2176 :             return 0;

	mov         w0,#0
	b           |$LN1@transcode_|
|$LN7@transcode_|

; 2177 :         h->map_pps[old_id] = id;

	ldr         x8,[sp,#0x20]
	add         x10,x8,#0xE00
	ldr         w8,[sp,#0x14]
	sxtw        x9,w8
	mov         x8,#4
	mul         x8,x9,x8
	add         x9,x10,x8
	ldr         w8,[sp,#0x2C]
	str         w8,[x9]

; 2178 :         patch_pps(h, bs, bd, id, &old_id);

	add         x4,sp,#0x14
	ldr         w3,[sp,#0x2C]
	add         x2,sp,#0x50
	add         x1,sp,#0x80
	ldr         x0,[sp,#0x20]
	bl          |?patch_pps@@YAHPEAUh264_sps_id_patcher_t@@PEAUbit_reader_t@@PEAUbs_t@@HPEAH@Z|

; 2179 :     }
; 2180 :     break;

	b           |$LN2@transcode_|
|$LN8@transcode_|
|$LN9@transcode_|
|$LN10@transcode_|

; 2181 :     case 1:
; 2182 :     case 2:
; 2183 :     case 5:
; 2184 :         patch_slice_header(h, bs, bd);

	add         x2,sp,#0x50
	add         x1,sp,#0x80
	ldr         x0,[sp,#0x20]
	bl          |?patch_slice_header@@YAXPEAUh264_sps_id_patcher_t@@PEAUbit_reader_t@@PEAUbs_t@@@Z|

; 2185 :         break;

	b           |$LN2@transcode_|
|$LN11@transcode_|

; 2186 :     default:
; 2187 :         memcpy(dst, (void*)src, nalu_bytes);

	ldr         w8,[sp,#0x10]
	sxtw        x2,w8
	ldr         x1,[sp,#0x38]
	ldr         x0,[sp,#0x30]
	bl          memcpy

; 2188 :         return nalu_bytes;

	ldr         w0,[sp,#0x10]
	b           |$LN1@transcode_|
|$LN2@transcode_|

; 2189 :     }
; 2190 : 
; 2191 :     nalu_bytes = 1 + h264e_bs_byte_align(bd) / 8;

	add         x0,sp,#0x50
	bl          |?h264e_bs_byte_align@@YAIPEAUbs_t@@@Z|
	mov         w0,w0
	mov         w8,#8
	udiv        w8,w0,w8
	add         w8,w8,#1
	str         w8,[sp,#0x10]

; 2192 :     h264e_bs_flush(bd);

	add         x0,sp,#0x50
	bl          |?h264e_bs_flush@@YAXPEAUbs_t@@@Z|

; 2193 : 
; 2194 :     return nalu_bytes;

	ldr         w0,[sp,#0x10]
|$LN1@transcode_|
	ldp         fp,lr,[sp],#0xC0
	ret
|__swt|
|$LN14@transcode_|

; 2158 : 
; 2159 :     switch (payload_type)

	DCB         0xe8
|$LN15@transcode_|
	DCB         0xe8
|$LN16@transcode_|
	DCB         0xed
|$LN17@transcode_|
	DCB         0xed
|$LN18@transcode_|
	DCB         0xe8
|$LN19@transcode_|
	DCB         0xed
|$LN20@transcode_|
	DCB         0x9b
|$LN21@transcode_|
	DCB         0xc0

	ENDP  ; |?transcode_nalu@@YAHPEAUh264_sps_id_patcher_t@@PEBEHPEAE@Z|, transcode_nalu

; Function compile flags: /Odtp
; File C:\Users\paras\source\repos\grep-name\XenevaOS\Process\AudioPlayer\minimp4.h

	AREA	|.text$mn|, CODE, ARM64

|?patch_slice_header@@YAXPEAUh264_sps_id_patcher_t@@PEAUbit_reader_t@@PEAUbs_t@@@Z| PROC ; patch_slice_header

; 2127 : {

	stp         fp,lr,[sp,#-0x40]!
	mov         fp,sp
	str         x0,[sp,#0x30]
	str         x1,[sp,#0x28]
	str         x2,[sp,#0x20]

; 2128 :     unsigned first_mb_in_slice = ue_bits(bs);

	ldr         x0,[sp,#0x28]
	bl          |?ue_bits@@YAHPEAUbit_reader_t@@@Z|
	mov         w0,w0
	str         w0,[sp,#0x18]

; 2129 :     unsigned slice_type = ue_bits(bs);

	ldr         x0,[sp,#0x28]
	bl          |?ue_bits@@YAHPEAUbit_reader_t@@@Z|
	mov         w0,w0
	str         w0,[sp,#0x1C]

; 2130 :     unsigned pps_id = ue_bits(bs);

	ldr         x0,[sp,#0x28]
	bl          |?ue_bits@@YAHPEAUbit_reader_t@@@Z|
	mov         w0,w0
	str         w0,[sp,#0x10]

; 2131 : 
; 2132 :     pps_id = h->map_pps[pps_id];

	ldr         x8,[sp,#0x30]
	add         x10,x8,#0xE00
	ldr         w8,[sp,#0x10]
	uxtw        x9,w8
	mov         x8,#4
	mul         x8,x9,x8
	add         x8,x10,x8
	ldr         w8,[x8]
	str         w8,[sp,#0x10]

; 2133 : 
; 2134 :     assert(pps_id <= 255);

	ldr         w8,[sp,#0x10]
	cmp         w8,#0
	bne         |$LN4@patch_slic|
	mov         w8,#1
	str         w8,[sp,#0x14]
	b           |$LN5@patch_slic|
|$LN4@patch_slic|
	mov         w8,#0
	str         w8,[sp,#0x14]
|$LN5@patch_slic|
	ldr         w8,[sp,#0x14]
	cmp         w8,#0xFF
	bgt         |$LN2@patch_slic|
	bl          abort
|$LN2@patch_slic|

; 2135 : 
; 2136 :     h264e_bs_put_golomb(bd, first_mb_in_slice);

	ldr         w1,[sp,#0x18]
	ldr         x0,[sp,#0x20]
	bl          |?h264e_bs_put_golomb@@YAXPEAUbs_t@@I@Z|

; 2137 :     h264e_bs_put_golomb(bd, slice_type);

	ldr         w1,[sp,#0x1C]
	ldr         x0,[sp,#0x20]
	bl          |?h264e_bs_put_golomb@@YAXPEAUbs_t@@I@Z|

; 2138 :     h264e_bs_put_golomb(bd, pps_id);

	ldr         w1,[sp,#0x10]
	ldr         x0,[sp,#0x20]
	bl          |?h264e_bs_put_golomb@@YAXPEAUbs_t@@I@Z|

; 2139 :     copy_bits(bs, bd);

	ldr         x1,[sp,#0x20]
	ldr         x0,[sp,#0x28]
	bl          |?copy_bits@@YAXPEAUbit_reader_t@@PEAUbs_t@@@Z|
	ldp         fp,lr,[sp],#0x40
	ret

	ENDP  ; |?patch_slice_header@@YAXPEAUh264_sps_id_patcher_t@@PEAUbit_reader_t@@PEAUbs_t@@@Z|, patch_slice_header

; Function compile flags: /Odtp
; File C:\Users\paras\source\repos\grep-name\XenevaOS\Process\AudioPlayer\minimp4.h

	AREA	|.text$mn|, CODE, ARM64

|?patch_pps@@YAHPEAUh264_sps_id_patcher_t@@PEAUbit_reader_t@@PEAUbs_t@@HPEAH@Z| PROC ; patch_pps

; 2105 : {

	stp         fp,lr,[sp,#-0x50]!
	mov         fp,sp
	str         x0,[sp,#0x40]
	str         x1,[sp,#0x30]
	str         x2,[sp,#0x20]
	str         w3,[sp,#0x28]
	str         x4,[sp,#0x38]

; 2106 :     int bytes;
; 2107 :     unsigned pps_id = ue_bits(bs);  // max = 255

	ldr         x0,[sp,#0x30]
	bl          |?ue_bits@@YAHPEAUbit_reader_t@@@Z|
	mov         w0,w0
	str         w0,[sp,#0x10]

; 2108 :     unsigned sps_id = ue_bits(bs);  // max = 31

	ldr         x0,[sp,#0x30]
	bl          |?ue_bits@@YAHPEAUbit_reader_t@@@Z|
	mov         w0,w0
	str         w0,[sp,#0x14]

; 2109 : 
; 2110 :     *old_id = pps_id;

	ldr         x9,[sp,#0x38]
	ldr         w8,[sp,#0x10]
	str         w8,[x9]

; 2111 :     sps_id = h->map_sps[sps_id];

	ldr         x8,[sp,#0x40]
	add         x10,x8,#0xD80
	ldr         w8,[sp,#0x14]
	uxtw        x9,w8
	mov         x8,#4
	mul         x8,x9,x8
	add         x8,x10,x8
	ldr         w8,[x8]
	str         w8,[sp,#0x14]

; 2112 :     pps_id = new_pps_id;

	ldr         w8,[sp,#0x28]
	str         w8,[sp,#0x10]

; 2113 : 
; 2114 :     assert(sps_id <= 31);

	ldr         w8,[sp,#0x14]
	cmp         w8,#0
	bne         |$LN5@patch_pps|
	mov         w8,#1
	str         w8,[sp,#0x18]
	b           |$LN6@patch_pps|
|$LN5@patch_pps|
	mov         w8,#0
	str         w8,[sp,#0x18]
|$LN6@patch_pps|
	ldr         w8,[sp,#0x18]
	cmp         w8,#0x1F
	bgt         |$LN2@patch_pps|
	bl          abort
|$LN2@patch_pps|

; 2115 :     assert(pps_id <= 255);

	ldr         w8,[sp,#0x10]
	cmp         w8,#0
	bne         |$LN7@patch_pps|
	mov         w8,#1
	str         w8,[sp,#0x1C]
	b           |$LN8@patch_pps|
|$LN7@patch_pps|
	mov         w8,#0
	str         w8,[sp,#0x1C]
|$LN8@patch_pps|
	ldr         w8,[sp,#0x1C]
	cmp         w8,#0xFF
	bgt         |$LN3@patch_pps|
	bl          abort
|$LN3@patch_pps|

; 2116 : 
; 2117 :     h264e_bs_put_golomb(bd, pps_id);

	ldr         w1,[sp,#0x10]
	ldr         x0,[sp,#0x20]
	bl          |?h264e_bs_put_golomb@@YAXPEAUbs_t@@I@Z|

; 2118 :     h264e_bs_put_golomb(bd, sps_id);

	ldr         w1,[sp,#0x14]
	ldr         x0,[sp,#0x20]
	bl          |?h264e_bs_put_golomb@@YAXPEAUbs_t@@I@Z|

; 2119 :     copy_bits(bs, bd);

	ldr         x1,[sp,#0x20]
	ldr         x0,[sp,#0x30]
	bl          |?copy_bits@@YAXPEAUbit_reader_t@@PEAUbs_t@@@Z|

; 2120 : 
; 2121 :     bytes = h264e_bs_byte_align(bd) / 8;

	ldr         x0,[sp,#0x20]
	bl          |?h264e_bs_byte_align@@YAIPEAUbs_t@@@Z|
	mov         w0,w0
	mov         w8,#8
	udiv        w8,w0,w8
	str         w8,[sp,#0x2C]

; 2122 :     h264e_bs_flush(bd);

	ldr         x0,[sp,#0x20]
	bl          |?h264e_bs_flush@@YAXPEAUbs_t@@@Z|

; 2123 :     return bytes;

	ldr         w0,[sp,#0x2C]
	ldp         fp,lr,[sp],#0x50
	ret

	ENDP  ; |?patch_pps@@YAHPEAUh264_sps_id_patcher_t@@PEAUbit_reader_t@@PEAUbs_t@@HPEAH@Z|, patch_pps

; Function compile flags: /Odtp
; File C:\Users\paras\source\repos\grep-name\XenevaOS\Process\AudioPlayer\minimp4.h

	AREA	|.text$mn|, CODE, ARM64

|?change_sps_id@@YAHPEAUbit_reader_t@@PEAUbs_t@@HPEAH@Z| PROC ; change_sps_id

; 2083 : {

	stp         fp,lr,[sp,#-0x50]!
	mov         fp,sp
	str         x0,[sp,#0x38]
	str         x1,[sp,#0x20]
	str         w2,[sp,#0x2C]
	str         x3,[sp,#0x40]

; 2084 :     unsigned bits, sps_id, i, bytes;
; 2085 :     for (i = 0; i < 3; i++)

	mov         w8,#0
	str         w8,[sp,#0x14]
	b           |$LN4@change_sps|
|$LN2@change_sps|
	ldr         w8,[sp,#0x14]
	add         w8,w8,#1
	str         w8,[sp,#0x14]
|$LN4@change_sps|
	ldr         w8,[sp,#0x14]
	cmp         w8,#3
	bhs         |$LN3@change_sps|

; 2086 :     {
; 2087 :         bits = GetBits(8);

	mov         w1,#8
	ldr         x0,[sp,#0x38]
	bl          |?get_bits@@YAIPEAUbit_reader_t@@H@Z|
	mov         w0,w0
	str         w0,[sp,#0x28]

; 2088 :         h264e_bs_put_bits(bd, 8, bits);

	ldr         w2,[sp,#0x28]
	mov         w1,#8
	ldr         x0,[sp,#0x20]
	bl          |?h264e_bs_put_bits@@YAXPEAUbs_t@@II@Z|

; 2089 :     }

	b           |$LN2@change_sps|
|$LN3@change_sps|

; 2090 :     sps_id = ue_bits(bs);               // max = 31

	ldr         x0,[sp,#0x38]
	bl          |?ue_bits@@YAHPEAUbit_reader_t@@@Z|
	mov         w0,w0
	str         w0,[sp,#0x10]

; 2091 : 
; 2092 :     *old_id = sps_id;

	ldr         x9,[sp,#0x40]
	ldr         w8,[sp,#0x10]
	str         w8,[x9]

; 2093 :     sps_id = new_id;

	ldr         w8,[sp,#0x2C]
	str         w8,[sp,#0x10]

; 2094 :     assert(sps_id <= 31);

	ldr         w8,[sp,#0x10]
	cmp         w8,#0
	bne         |$LN7@change_sps|
	mov         w8,#1
	str         w8,[sp,#0x18]
	b           |$LN8@change_sps|
|$LN7@change_sps|
	mov         w8,#0
	str         w8,[sp,#0x18]
|$LN8@change_sps|
	ldr         w8,[sp,#0x18]
	cmp         w8,#0x1F
	bgt         |$LN5@change_sps|
	bl          abort
|$LN5@change_sps|

; 2095 : 
; 2096 :     h264e_bs_put_golomb(bd, sps_id);

	ldr         w1,[sp,#0x10]
	ldr         x0,[sp,#0x20]
	bl          |?h264e_bs_put_golomb@@YAXPEAUbs_t@@I@Z|

; 2097 :     copy_bits(bs, bd);

	ldr         x1,[sp,#0x20]
	ldr         x0,[sp,#0x38]
	bl          |?copy_bits@@YAXPEAUbit_reader_t@@PEAUbs_t@@@Z|

; 2098 : 
; 2099 :     bytes = h264e_bs_byte_align(bd) / 8;

	ldr         x0,[sp,#0x20]
	bl          |?h264e_bs_byte_align@@YAIPEAUbs_t@@@Z|
	mov         w0,w0
	mov         w8,#8
	udiv        w8,w0,w8
	str         w8,[sp,#0x30]

; 2100 :     h264e_bs_flush(bd);

	ldr         x0,[sp,#0x20]
	bl          |?h264e_bs_flush@@YAXPEAUbs_t@@@Z|

; 2101 :     return bytes;

	ldr         w0,[sp,#0x30]
	ldp         fp,lr,[sp],#0x50
	ret

	ENDP  ; |?change_sps_id@@YAHPEAUbit_reader_t@@PEAUbs_t@@HPEAH@Z|, change_sps_id

; Function compile flags: /Odtp
; File C:\Users\paras\source\repos\grep-name\XenevaOS\Process\AudioPlayer\minimp4.h

	AREA	|.text$mn|, CODE, ARM64

|?copy_bits@@YAXPEAUbit_reader_t@@PEAUbs_t@@@Z| PROC	; copy_bits

; 2059 : {

	stp         fp,lr,[sp,#-0x30]!
	mov         fp,sp
	str         x0,[sp,#0x20]
	str         x1,[sp,#0x28]

; 2060 :     unsigned cb, bits;
; 2061 :     int bit_count = remaining_bits(bs);

	ldr         x0,[sp,#0x20]
	bl          |?remaining_bits@@YAHPEBUbit_reader_t@@@Z|
	mov         w0,w0
	str         w0,[sp,#0x10]
|$LN2@copy_bits|

; 2062 :     while (bit_count > 7)

	ldr         w8,[sp,#0x10]
	cmp         w8,#7
	ble         |$LN3@copy_bits|

; 2063 :     {
; 2064 :         cb = MINIMP4_MIN(bit_count - 7, 8);

	ldr         w8,[sp,#0x10]
	sub         w8,w8,#7
	cmp         w8,#8
	bge         |$LN9@copy_bits|
	ldr         w8,[sp,#0x10]
	sub         w8,w8,#7
	str         w8,[sp,#0x1C]
	b           |$LN10@copy_bits|
|$LN9@copy_bits|
	mov         w8,#8
	str         w8,[sp,#0x1C]
|$LN10@copy_bits|
	ldr         w8,[sp,#0x1C]
	str         w8,[sp,#0x18]

; 2065 :         bits = GetBits(cb);

	ldr         w1,[sp,#0x18]
	ldr         x0,[sp,#0x20]
	bl          |?get_bits@@YAIPEAUbit_reader_t@@H@Z|
	mov         w0,w0
	str         w0,[sp,#0x14]

; 2066 :         h264e_bs_put_bits(bd, cb, bits);

	ldr         w2,[sp,#0x14]
	ldr         w1,[sp,#0x18]
	ldr         x0,[sp,#0x28]
	bl          |?h264e_bs_put_bits@@YAXPEAUbs_t@@II@Z|

; 2067 :         bit_count -= cb;

	ldr         w9,[sp,#0x10]
	ldr         w8,[sp,#0x18]
	sub         w8,w9,w8
	str         w8,[sp,#0x10]

; 2068 :     }

	b           |$LN2@copy_bits|
|$LN3@copy_bits|

; 2069 : 
; 2070 :     // cut extra zeros after stop-bit
; 2071 :     bits = GetBits(bit_count);

	ldr         w1,[sp,#0x10]
	ldr         x0,[sp,#0x20]
	bl          |?get_bits@@YAIPEAUbit_reader_t@@H@Z|
	mov         w0,w0
	str         w0,[sp,#0x14]

; 2072 :     for (; bit_count && ~bits & 1; bit_count--)

	b           |$LN6@copy_bits|
|$LN4@copy_bits|
	ldr         w8,[sp,#0x10]
	sub         w8,w8,#1
	str         w8,[sp,#0x10]
|$LN6@copy_bits|
	ldr         w8,[sp,#0x10]
	cmp         w8,#0
	beq         |$LN5@copy_bits|
	ldr         w8,[sp,#0x14]
	tbnz        x8,#0,|$LN5@copy_bits|

; 2073 :     {
; 2074 :         bits >>= 1;

	ldr         w8,[sp,#0x14]
	lsr         w8,w8,#1
	str         w8,[sp,#0x14]

; 2075 :     }

	b           |$LN4@copy_bits|
|$LN5@copy_bits|

; 2076 :     if (bit_count)

	ldr         w8,[sp,#0x10]
	cmp         w8,#0
	beq         |$LN7@copy_bits|

; 2077 :     {
; 2078 :         h264e_bs_put_bits(bd, bit_count, bits);

	ldr         w2,[sp,#0x14]
	ldr         w1,[sp,#0x10]
	ldr         x0,[sp,#0x28]
	bl          |?h264e_bs_put_bits@@YAXPEAUbs_t@@II@Z|
|$LN7@copy_bits|
	ldp         fp,lr,[sp],#0x30
	ret

	ENDP  ; |?copy_bits@@YAXPEAUbit_reader_t@@PEAUbs_t@@@Z|, copy_bits

; Function compile flags: /Odtp
; File C:\Users\paras\source\repos\grep-name\XenevaOS\Process\AudioPlayer\minimp4.h

	AREA	|.text$mn|, CODE, ARM64

|?nal_put_esc@@YAHPEAEPEBEH@Z| PROC			; nal_put_esc

; 2038 : {

	sub         sp,sp,#0x30
	str         x0,[sp,#0x18]
	str         x1,[sp,#0x20]
	str         w2,[sp,#0x10]

; 2039 :     int i, j = 4, cntz = 0;

	mov         w8,#4
	str         w8,[sp,#4]
	mov         w8,#0
	str         w8,[sp,#8]

; 2040 :     d[0] = d[1] = d[2] = 0; d[3] = 1; // start code

	ldr         x8,[sp,#0x18]
	add         x9,x8,#2
	mov         w8,#0
	strb        w8,[x9]
	ldr         x8,[sp,#0x18]
	add         x9,x8,#1
	mov         w8,#0
	strb        w8,[x9]
	ldr         x9,[sp,#0x18]
	mov         w8,#0
	strb        w8,[x9]
	ldr         x8,[sp,#0x18]
	add         x9,x8,#3
	mov         w8,#1
	strb        w8,[x9]

; 2041 :     for (i = 0; i < n; i++)

	mov         w8,#0
	str         w8,[sp,#0xC]
	b           |$LN4@nal_put_es|
|$LN2@nal_put_es|
	ldr         w8,[sp,#0xC]
	add         w8,w8,#1
	str         w8,[sp,#0xC]
|$LN4@nal_put_es|
	ldr         w9,[sp,#0x10]
	ldr         w8,[sp,#0xC]
	cmp         w8,w9
	bge         |$LN3@nal_put_es|

; 2042 :     {
; 2043 :         uint8_t byte = *s++;

	ldr         x8,[sp,#0x20]
	ldrb        w8,[x8]
	strb        w8,[sp]
	ldr         x8,[sp,#0x20]
	add         x8,x8,#1
	str         x8,[sp,#0x20]

; 2044 :         if (cntz == 2 && byte <= 3)

	ldr         w8,[sp,#8]
	cmp         w8,#2
	bne         |$LN5@nal_put_es|
	ldrb        w8,[sp]
	mov         w8,w8
	cmp         w8,#3
	bgt         |$LN5@nal_put_es|

; 2045 :         {
; 2046 :             d[j++] = 3;

	ldr         w8,[sp,#4]
	sxtw        x9,w8
	mov         x8,#1
	mul         x9,x9,x8
	ldr         x8,[sp,#0x18]
	add         x9,x8,x9
	mov         w8,#3
	strb        w8,[x9]
	ldr         w8,[sp,#4]
	add         w8,w8,#1
	str         w8,[sp,#4]

; 2047 :             cntz = 0;

	mov         w8,#0
	str         w8,[sp,#8]
|$LN5@nal_put_es|

; 2048 :         }
; 2049 :         if (byte)

	ldrb        w8,[sp]
	mov         w8,w8
	cmp         w8,#0
	beq         |$LN6@nal_put_es|

; 2050 :             cntz = 0;

	mov         w8,#0
	str         w8,[sp,#8]
	b           |$LN7@nal_put_es|
|$LN6@nal_put_es|

; 2051 :         else
; 2052 :             cntz++;

	ldr         w8,[sp,#8]
	add         w8,w8,#1
	str         w8,[sp,#8]
|$LN7@nal_put_es|

; 2053 :         d[j++] = byte;

	ldr         w8,[sp,#4]
	sxtw        x9,w8
	mov         x8,#1
	mul         x9,x9,x8
	ldr         x8,[sp,#0x18]
	add         x9,x8,x9
	ldrb        w8,[sp]
	strb        w8,[x9]
	ldr         w8,[sp,#4]
	add         w8,w8,#1
	str         w8,[sp,#4]

; 2054 :     }

	b           |$LN2@nal_put_es|
|$LN3@nal_put_es|

; 2055 :     return j;

	ldr         w0,[sp,#4]
	add         sp,sp,#0x30
	ret

	ENDP  ; |?nal_put_esc@@YAHPEAEPEBEH@Z|, nal_put_esc

; Function compile flags: /Odtp
; File C:\Users\paras\source\repos\grep-name\XenevaOS\Process\AudioPlayer\minimp4.h

	AREA	|.text$mn|, CODE, ARM64

|?remove_nal_escapes@@YAHPEAEPEBEH@Z| PROC		; remove_nal_escapes

; 1998 : {

	sub         sp,sp,#0x20
	str         x0,[sp,#0x18]
	str         x1,[sp,#0x10]
	str         w2,[sp,#0xC]

; 1999 :     int i = 0, j = 0, zero_cnt = 0;

	mov         w8,#0
	str         w8,[sp,#8]
	mov         w8,#0
	str         w8,[sp]
	mov         w8,#0
	str         w8,[sp,#4]

; 2000 :     for (j = 0; j < h264_data_bytes; j++)

	mov         w8,#0
	str         w8,[sp]
	b           |$LN4@remove_nal|
|$LN2@remove_nal|
	ldr         w8,[sp]
	add         w8,w8,#1
	str         w8,[sp]
|$LN4@remove_nal|
	ldr         w9,[sp,#0xC]
	ldr         w8,[sp]
	cmp         w8,w9
	bge         |$LN3@remove_nal|

; 2001 :     {
; 2002 :         if (zero_cnt == 2 && src[j] <= 3)

	ldr         w8,[sp,#4]
	cmp         w8,#2
	bne         |$LN5@remove_nal|
	ldr         w8,[sp]
	sxtw        x9,w8
	mov         x8,#1
	mul         x9,x9,x8
	ldr         x8,[sp,#0x10]
	add         x8,x8,x9
	ldrb        w8,[x8]
	mov         w8,w8
	cmp         w8,#3
	bgt         |$LN5@remove_nal|

; 2003 :         {
; 2004 :             if (src[j] == 3)

	ldr         w8,[sp]
	sxtw        x9,w8
	mov         x8,#1
	mul         x9,x9,x8
	ldr         x8,[sp,#0x10]
	add         x8,x8,x9
	ldrb        w8,[x8]
	mov         w8,w8
	cmp         w8,#3
	bne         |$LN6@remove_nal|

; 2005 :             {
; 2006 :                 if (j == h264_data_bytes - 1)

	ldr         w8,[sp,#0xC]
	sub         w9,w8,#1
	ldr         w8,[sp]
	cmp         w8,w9
	bne         |$LN8@remove_nal|

; 2007 :                 {
; 2008 :                     // cabac_zero_word: no action
; 2009 :                 }

	b           |$LN9@remove_nal|
|$LN8@remove_nal|

; 2010 :                 else if (src[j + 1] <= 3)

	ldr         w8,[sp]
	add         w8,w8,#1
	sxtw        x9,w8
	mov         x8,#1
	mul         x9,x9,x8
	ldr         x8,[sp,#0x10]
	add         x8,x8,x9
	ldrb        w8,[x8]
	mov         w8,w8
	cmp         w8,#3
	bgt         |$LN10@remove_nal|

; 2011 :                 {
; 2012 :                     j++;

	ldr         w8,[sp]
	add         w8,w8,#1
	str         w8,[sp]

; 2013 :                     zero_cnt = 0;

	mov         w8,#0
	str         w8,[sp,#4]
|$LN10@remove_nal|
|$LN9@remove_nal|

; 2014 :                 }
; 2015 :                 else
; 2016 :                 {
; 2017 :                     // TODO: assume end-of-nal
; 2018 :                     //return 0;
; 2019 :                 }
; 2020 :             }

	b           |$LN7@remove_nal|
|$LN6@remove_nal|

; 2021 :             else
; 2022 :                 return 0;

	mov         w0,#0
	b           |$LN1@remove_nal|
|$LN7@remove_nal|
|$LN5@remove_nal|

; 2023 :         }
; 2024 :         dst[i++] = src[j];

	ldr         w8,[sp]
	sxtw        x9,w8
	mov         x8,#1
	mul         x9,x9,x8
	ldr         x8,[sp,#0x10]
	add         x10,x8,x9
	ldr         w8,[sp,#8]
	sxtw        x9,w8
	mov         x8,#1
	mul         x9,x9,x8
	ldr         x8,[sp,#0x18]
	add         x9,x8,x9
	ldrb        w8,[x10]
	strb        w8,[x9]
	ldr         w8,[sp,#8]
	add         w8,w8,#1
	str         w8,[sp,#8]

; 2025 :         if (src[j])

	ldr         w8,[sp]
	sxtw        x9,w8
	mov         x8,#1
	mul         x9,x9,x8
	ldr         x8,[sp,#0x10]
	add         x8,x8,x9
	ldrb        w8,[x8]
	mov         w8,w8
	cmp         w8,#0
	beq         |$LN12@remove_nal|

; 2026 :             zero_cnt = 0;

	mov         w8,#0
	str         w8,[sp,#4]
	b           |$LN13@remove_nal|
|$LN12@remove_nal|

; 2027 :         else
; 2028 :             zero_cnt++;

	ldr         w8,[sp,#4]
	add         w8,w8,#1
	str         w8,[sp,#4]
|$LN13@remove_nal|

; 2029 :     }

	b           |$LN2@remove_nal|
|$LN3@remove_nal|

; 2030 :     //while (--j > i) src[j] = 0;
; 2031 :     return i;

	ldr         w0,[sp,#8]
|$LN1@remove_nal|
	add         sp,sp,#0x20
	ret

	ENDP  ; |?remove_nal_escapes@@YAHPEAEPEBEH@Z|, remove_nal_escapes

; Function compile flags: /Odtp
; File C:\Users\paras\source\repos\grep-name\XenevaOS\Process\AudioPlayer\minimp4.h

	AREA	|.text$mn|, CODE, ARM64

|?find_mem_cache@@YAHQEAPEAXQEAHHPEAXH@Z| PROC		; find_mem_cache

; 1969 : {

	stp         fp,lr,[sp,#-0x40]!
	mov         fp,sp
	str         x0,[sp,#0x20]
	str         x1,[sp,#0x28]
	str         w2,[sp,#0x18]
	str         x3,[sp,#0x30]
	str         w4,[sp,#0x14]

; 1970 :     int i;
; 1971 :     if (!bytes)

	ldr         w8,[sp,#0x14]
	cmp         w8,#0
	bne         |$LN8@find_mem_c|

; 1972 :         return -1;

	mov         w0,#-1
	b           |$LN1@find_mem_c|
|$LN8@find_mem_c|

; 1973 :     for (i = 0; i < cache_size; i++)

	mov         w8,#0
	str         w8,[sp,#0x10]
	b           |$LN4@find_mem_c|
|$LN2@find_mem_c|
	ldr         w8,[sp,#0x10]
	add         w8,w8,#1
	str         w8,[sp,#0x10]
|$LN4@find_mem_c|
	ldr         w9,[sp,#0x18]
	ldr         w8,[sp,#0x10]
	cmp         w8,w9
	bge         |$LN3@find_mem_c|

; 1974 :     {
; 1975 :         if (cache_bytes[i] == bytes && !memcmp(mem, cache[i], bytes))

	ldr         w8,[sp,#0x10]
	sxtw        x9,w8
	mov         x8,#4
	mul         x9,x9,x8
	ldr         x8,[sp,#0x28]
	add         x8,x8,x9
	ldr         w9,[sp,#0x14]
	ldr         w8,[x8]
	cmp         w8,w9
	bne         |$LN9@find_mem_c|
	ldr         w8,[sp,#0x14]
	sxtw        x2,w8
	ldr         w8,[sp,#0x10]
	sxtw        x9,w8
	mov         x8,#8
	mul         x9,x9,x8
	ldr         x8,[sp,#0x20]
	add         x8,x8,x9
	ldr         x1,[x8]
	ldr         x0,[sp,#0x30]
	bl          memcmp
	mov         w0,w0
	cmp         w0,#0
	bne         |$LN9@find_mem_c|

; 1976 :             return i;   // found

	ldr         w0,[sp,#0x10]
	b           |$LN1@find_mem_c|
|$LN9@find_mem_c|

; 1977 :     }

	b           |$LN2@find_mem_c|
|$LN3@find_mem_c|

; 1978 :     for (i = 0; i < cache_size; i++)

	mov         w8,#0
	str         w8,[sp,#0x10]
	b           |$LN7@find_mem_c|
|$LN5@find_mem_c|
	ldr         w8,[sp,#0x10]
	add         w8,w8,#1
	str         w8,[sp,#0x10]
|$LN7@find_mem_c|
	ldr         w9,[sp,#0x18]
	ldr         w8,[sp,#0x10]
	cmp         w8,w9
	bge         |$LN6@find_mem_c|

; 1979 :     {
; 1980 :         if (!cache_bytes[i])

	ldr         w8,[sp,#0x10]
	sxtw        x9,w8
	mov         x8,#4
	mul         x9,x9,x8
	ldr         x8,[sp,#0x28]
	add         x8,x8,x9
	ldr         w8,[x8]
	cmp         w8,#0
	bne         |$LN10@find_mem_c|

; 1981 :         {
; 1982 :             cache[i] = malloc(bytes);

	ldr         w0,[sp,#0x14]
	bl          malloc
	ldr         w8,[sp,#0x10]
	sxtw        x9,w8
	mov         x8,#8
	mul         x9,x9,x8
	ldr         x8,[sp,#0x20]
	add         x8,x8,x9
	str         x0,[x8]

; 1983 :             if (cache[i])

	ldr         w8,[sp,#0x10]
	sxtw        x9,w8
	mov         x8,#8
	mul         x9,x9,x8
	ldr         x8,[sp,#0x20]
	add         x8,x8,x9
	ldr         x8,[x8]
	cmp         x8,#0
	beq         |$LN11@find_mem_c|

; 1984 :             {
; 1985 :                 memcpy(cache[i], mem, bytes);

	ldr         w8,[sp,#0x14]
	sxtw        x2,w8
	ldr         w8,[sp,#0x10]
	sxtw        x9,w8
	mov         x8,#8
	mul         x9,x9,x8
	ldr         x8,[sp,#0x20]
	add         x8,x8,x9
	ldr         x1,[sp,#0x30]
	ldr         x0,[x8]
	bl          memcpy

; 1986 :                 cache_bytes[i] = bytes;

	ldr         w8,[sp,#0x10]
	sxtw        x9,w8
	mov         x8,#4
	mul         x9,x9,x8
	ldr         x8,[sp,#0x28]
	add         x9,x8,x9
	ldr         w8,[sp,#0x14]
	str         w8,[x9]
|$LN11@find_mem_c|

; 1987 :             }
; 1988 :             return i;   // put in

	ldr         w0,[sp,#0x10]
	b           |$LN1@find_mem_c|
|$LN10@find_mem_c|

; 1989 :         }
; 1990 :     }

	b           |$LN5@find_mem_c|
|$LN6@find_mem_c|

; 1991 :     return -1;  // no room

	mov         w0,#-1
|$LN1@find_mem_c|
	ldp         fp,lr,[sp],#0x40
	ret

	ENDP  ; |?find_mem_cache@@YAHQEAPEAXQEAHHPEAXH@Z|, find_mem_cache

; Function compile flags: /Odtp
; File C:\Users\paras\source\repos\grep-name\XenevaOS\Process\AudioPlayer\minimp4.h

	AREA	|.text$mn|, CODE, ARM64

|?h264e_bs_init_bits@@YAXPEAUbs_t@@PEAX@Z| PROC		; h264e_bs_init_bits

; 1961 : {

	sub         sp,sp,#0x10
	str         x0,[sp]
	str         x1,[sp,#8]

; 1962 :     bs->origin = (bs_item_t*)data;

	ldr         x8,[sp]
	add         x9,x8,#0x10
	ldr         x8,[sp,#8]
	str         x8,[x9]

; 1963 :     bs->buf = bs->origin;

	ldr         x8,[sp]
	add         x10,x8,#0x10
	ldr         x8,[sp]
	add         x9,x8,#8
	ldr         x8,[x10]
	str         x8,[x9]

; 1964 :     bs->shift = BS_BITS;

	ldr         x9,[sp]
	mov         w8,#0x20
	str         w8,[x9]

; 1965 :     bs->cache = 0;

	ldr         x8,[sp]
	add         x9,x8,#4
	mov         w8,#0
	str         w8,[x9]
	add         sp,sp,#0x10
	ret

	ENDP  ; |?h264e_bs_init_bits@@YAXPEAUbs_t@@PEAX@Z|, h264e_bs_init_bits

; Function compile flags: /Odtp
; File C:\Users\paras\source\repos\grep-name\XenevaOS\Process\AudioPlayer\minimp4.h

	AREA	|.text$mn|, CODE, ARM64

|?h264e_bs_put_golomb@@YAXPEAUbs_t@@I@Z| PROC		; h264e_bs_put_golomb

; 1949 : {

	stp         fp,lr,[sp,#-0x30]!
	mov         fp,sp
	str         x0,[sp,#0x20]
	str         w1,[sp,#0x18]

; 1950 :     int size = 0;

	mov         w8,#0
	str         w8,[sp,#0x14]

; 1951 :     unsigned t = val + 1;

	ldr         w8,[sp,#0x18]
	add         w8,w8,#1
	str         w8,[sp,#0x10]
|$LN4@h264e_bs_p|

; 1952 :     do
; 1953 :     {
; 1954 :         size++;

	ldr         w8,[sp,#0x14]
	add         w8,w8,#1
	str         w8,[sp,#0x14]

; 1955 :     } while (t >>= 1);

	ldr         w8,[sp,#0x10]
	lsr         w8,w8,#1
	str         w8,[sp,#0x10]
	ldr         w8,[sp,#0x10]
	cmp         w8,#0
	bne         |$LN4@h264e_bs_p|

; 1956 : 
; 1957 :     h264e_bs_put_bits(bs, 2 * size - 1, val + 1);

	ldr         w8,[sp,#0x18]
	add         w2,w8,#1
	ldr         w9,[sp,#0x14]
	mov         w8,#2
	mul         w8,w9,w8
	sub         w1,w8,#1
	mov         w2,w2
	mov         w1,w1
	ldr         x0,[sp,#0x20]
	bl          |?h264e_bs_put_bits@@YAXPEAUbs_t@@II@Z|
	ldp         fp,lr,[sp],#0x30
	ret

	ENDP  ; |?h264e_bs_put_golomb@@YAXPEAUbs_t@@I@Z|, h264e_bs_put_golomb

; Function compile flags: /Odtp
; File C:\Users\paras\source\repos\grep-name\XenevaOS\Process\AudioPlayer\minimp4.h

	AREA	|.text$mn|, CODE, ARM64

|?h264e_bs_byte_align@@YAIPEAUbs_t@@@Z| PROC		; h264e_bs_byte_align

; 1928 : {

	stp         fp,lr,[sp,#-0x20]!
	mov         fp,sp
	str         x0,[sp,#0x18]

; 1929 :     int pos = h264e_bs_get_pos_bits(bs);

	ldr         x0,[sp,#0x18]
	bl          |?h264e_bs_get_pos_bits@@YAIPEBUbs_t@@@Z|
	mov         w0,w0
	str         w0,[sp,#0x10]

; 1930 :     h264e_bs_put_bits(bs, -pos & 7, 0);

	ldr         w8,[sp,#0x10]
	neg         w8,w8
	and         w1,w8,#7
	mov         w2,#0
	mov         w1,w1
	ldr         x0,[sp,#0x18]
	bl          |?h264e_bs_put_bits@@YAXPEAUbs_t@@II@Z|

; 1931 :     return pos + (-pos & 7);

	ldr         w8,[sp,#0x10]
	neg         w8,w8
	and         w9,w8,#7
	ldr         w8,[sp,#0x10]
	add         w0,w8,w9
	mov         w0,w0
	ldp         fp,lr,[sp],#0x20
	ret

	ENDP  ; |?h264e_bs_byte_align@@YAIPEAUbs_t@@@Z|, h264e_bs_byte_align

; Function compile flags: /Odtp
; File C:\Users\paras\source\repos\grep-name\XenevaOS\Process\AudioPlayer\minimp4.h

	AREA	|.text$mn|, CODE, ARM64

|?h264e_bs_get_pos_bits@@YAIPEBUbs_t@@@Z| PROC		; h264e_bs_get_pos_bits

; 1920 : {

	stp         fp,lr,[sp,#-0x20]!
	mov         fp,sp
	str         x0,[sp,#0x18]

; 1921 :     unsigned pos_bits = (unsigned)((bs->buf - bs->origin) * BS_BITS);

	ldr         x8,[sp,#0x18]
	add         x9,x8,#8
	ldr         x8,[sp,#0x18]
	add         x8,x8,#0x10
	ldr         x9,[x9]
	ldr         x8,[x8]
	sub         x8,x9,x8
	asr         x9,x8,#2
	mov         x8,#0x20
	mul         x8,x9,x8
	mov         w8,w8
	str         w8,[sp,#0x10]

; 1922 :     pos_bits += BS_BITS - bs->shift;

	ldr         x8,[sp,#0x18]
	mov         w9,#0x20
	ldr         w8,[x8]
	sub         w9,w9,w8
	ldr         w8,[sp,#0x10]
	add         w8,w8,w9
	str         w8,[sp,#0x10]

; 1923 :     assert((int)pos_bits >= 0);

	ldr         w8,[sp,#0x10]
	cmp         w8,#0
	bne         |$LN4@h264e_bs_g|
	mov         w8,#1
	str         w8,[sp,#0x14]
	b           |$LN5@h264e_bs_g|
|$LN4@h264e_bs_g|
	mov         w8,#0
	str         w8,[sp,#0x14]
|$LN5@h264e_bs_g|
	ldr         w8,[sp,#0x14]
	cmp         w8,#0
	blt         |$LN2@h264e_bs_g|
	bl          abort
|$LN2@h264e_bs_g|

; 1924 :     return pos_bits;

	ldr         w0,[sp,#0x10]
	ldp         fp,lr,[sp],#0x20
	ret

	ENDP  ; |?h264e_bs_get_pos_bits@@YAIPEBUbs_t@@@Z|, h264e_bs_get_pos_bits

; Function compile flags: /Odtp
; File C:\Users\paras\source\repos\grep-name\XenevaOS\Process\AudioPlayer\minimp4.h

	AREA	|.text$mn|, CODE, ARM64

|?h264e_bs_flush@@YAXPEAUbs_t@@@Z| PROC			; h264e_bs_flush

; 1915 : {

	sub         sp,sp,#0x10
	str         x0,[sp]

; 1916 :     *bs->buf = SWAP32(bs->cache);

	ldr         x8,[sp]
	add         x8,x8,#4
	ldr         w8,[x8]
	lsr         w9,w8,#0x18
	ldr         x8,[sp]
	add         x8,x8,#4
	ldr         w8,[x8]
	lsr         w8,w8,#8
	and         w8,w8,#0xFF00
	orr         w9,w9,w8
	ldr         x8,[sp]
	add         x8,x8,#4
	ldr         w8,[x8]
	lsl         w8,w8,#8
	and         w8,w8,#0xFF0000
	orr         w9,w9,w8
	ldr         x8,[sp]
	add         x8,x8,#4
	ldr         w8,[x8]
	and         w8,w8,#0xFF
	lsl         w8,w8,#0x18
	orr         w9,w9,w8
	ldr         x8,[sp]
	add         x8,x8,#8
	ldr         x8,[x8]
	str         w9,[x8]
	add         sp,sp,#0x10
	ret

	ENDP  ; |?h264e_bs_flush@@YAXPEAUbs_t@@@Z|, h264e_bs_flush

; Function compile flags: /Odtp
; File C:\Users\paras\source\repos\grep-name\XenevaOS\Process\AudioPlayer\minimp4.h

	AREA	|.text$mn|, CODE, ARM64

|?h264e_bs_put_bits@@YAXPEAUbs_t@@II@Z| PROC		; h264e_bs_put_bits

; 1899 : {

	stp         fp,lr,[sp,#-0x30]!
	mov         fp,sp
	str         x0,[sp,#0x20]
	str         w1,[sp,#0x10]
	str         w2,[sp,#0x14]

; 1900 :     assert(!(val >> n));

	ldr         w9,[sp,#0x14]
	ldr         w8,[sp,#0x10]
	lsr         w8,w9,w8
	cmp         w8,#0
	beq         |$LN2@h264e_bs_p|
	bl          abort
|$LN2@h264e_bs_p|

; 1901 :     bs->shift -= n;

	ldr         x8,[sp,#0x20]
	ldr         w9,[x8]
	ldr         w8,[sp,#0x10]
	sub         w9,w9,w8
	ldr         x8,[sp,#0x20]
	str         w9,[x8]

; 1902 :     assert((unsigned)n <= 32);

	ldr         w8,[sp,#0x10]
	cmp         w8,#0
	bne         |$LN7@h264e_bs_p|
	mov         w8,#1
	str         w8,[sp,#0x18]
	b           |$LN8@h264e_bs_p|
|$LN7@h264e_bs_p|
	mov         w8,#0
	str         w8,[sp,#0x18]
|$LN8@h264e_bs_p|
	ldr         w8,[sp,#0x18]
	cmp         w8,#0x20
	bgt         |$LN3@h264e_bs_p|
	bl          abort
|$LN3@h264e_bs_p|

; 1903 :     if (bs->shift < 0)

	ldr         x8,[sp,#0x20]
	ldr         w8,[x8]
	cmp         w8,#0
	bge         |$LN4@h264e_bs_p|

; 1904 :     {
; 1905 :         assert(-bs->shift < 32);

	ldr         x8,[sp,#0x20]
	ldr         w8,[x8]
	neg         w8,w8
	cmp         w8,#0
	bne         |$LN9@h264e_bs_p|
	mov         w8,#1
	str         w8,[sp,#0x1C]
	b           |$LN10@h264e_bs_p|
|$LN9@h264e_bs_p|
	mov         w8,#0
	str         w8,[sp,#0x1C]
|$LN10@h264e_bs_p|
	ldr         w8,[sp,#0x1C]
	cmp         w8,#0x20
	bge         |$LN5@h264e_bs_p|
	bl          abort
|$LN5@h264e_bs_p|

; 1906 :         bs->cache |= val >> -bs->shift;

	ldr         x8,[sp,#0x20]
	add         x10,x8,#4
	ldr         x8,[sp,#0x20]
	ldr         w8,[x8]
	neg         w9,w8
	ldr         w8,[sp,#0x14]
	lsr         w9,w8,w9
	ldr         w8,[x10]
	orr         w9,w8,w9
	ldr         x8,[sp,#0x20]
	add         x8,x8,#4
	str         w9,[x8]

; 1907 :         *bs->buf++ = SWAP32(bs->cache);

	ldr         x8,[sp,#0x20]
	add         x8,x8,#4
	ldr         w8,[x8]
	lsr         w9,w8,#0x18
	ldr         x8,[sp,#0x20]
	add         x8,x8,#4
	ldr         w8,[x8]
	lsr         w8,w8,#8
	and         w8,w8,#0xFF00
	orr         w9,w9,w8
	ldr         x8,[sp,#0x20]
	add         x8,x8,#4
	ldr         w8,[x8]
	lsl         w8,w8,#8
	and         w8,w8,#0xFF0000
	orr         w9,w9,w8
	ldr         x8,[sp,#0x20]
	add         x8,x8,#4
	ldr         w8,[x8]
	and         w8,w8,#0xFF
	lsl         w8,w8,#0x18
	orr         w9,w9,w8
	ldr         x8,[sp,#0x20]
	add         x8,x8,#8
	ldr         x8,[x8]
	str         w9,[x8]
	ldr         x8,[sp,#0x20]
	add         x8,x8,#8
	ldr         x8,[x8]
	add         x9,x8,#4
	ldr         x8,[sp,#0x20]
	add         x8,x8,#8
	str         x9,[x8]

; 1908 :         bs->shift = 32 + bs->shift;

	ldr         x8,[sp,#0x20]
	ldr         w8,[x8]
	add         w9,w8,#0x20
	ldr         x8,[sp,#0x20]
	str         w9,[x8]

; 1909 :         bs->cache = 0;

	ldr         x8,[sp,#0x20]
	add         x9,x8,#4
	mov         w8,#0
	str         w8,[x9]
|$LN4@h264e_bs_p|

; 1910 :     }
; 1911 :     bs->cache |= val << bs->shift;

	ldr         x8,[sp,#0x20]
	add         x10,x8,#4
	ldr         x8,[sp,#0x20]
	ldr         w9,[sp,#0x14]
	ldr         w8,[x8]
	lsl         w9,w9,w8
	ldr         w8,[x10]
	orr         w9,w8,w9
	ldr         x8,[sp,#0x20]
	add         x8,x8,#4
	str         w9,[x8]
	ldp         fp,lr,[sp],#0x30
	ret

	ENDP  ; |?h264e_bs_put_bits@@YAXPEAUbs_t@@II@Z|, h264e_bs_put_bits

; Function compile flags: /Odtp
; File C:\Users\paras\source\repos\grep-name\XenevaOS\Process\AudioPlayer\minimp4.h

	AREA	|.text$mn|, CODE, ARM64

|?ue_bits@@YAHPEAUbit_reader_t@@@Z| PROC		; ue_bits

; 1874 : {

	stp         fp,lr,[sp,#-0x30]!
	mov         fp,sp
	str         x0,[sp,#0x20]

; 1875 :     int clz;
; 1876 :     int val;
; 1877 :     for (clz = 0; !get_bits(bs, 1); clz++) {}

	mov         w8,#0
	str         w8,[sp,#0x10]
	b           |$LN4@ue_bits|
|$LN2@ue_bits|
	ldr         w8,[sp,#0x10]
	add         w8,w8,#1
	str         w8,[sp,#0x10]
|$LN4@ue_bits|
	mov         w1,#1
	ldr         x0,[sp,#0x20]
	bl          |?get_bits@@YAIPEAUbit_reader_t@@H@Z|
	mov         w0,w0
	cmp         w0,#0
	bne         |$LN3@ue_bits|
	b           |$LN2@ue_bits|
|$LN3@ue_bits|

; 1878 :     //get_bits(bs, clz + 1);
; 1879 :     val = (1 << clz) - 1 + (clz ? get_bits(bs, clz) : 0);

	ldr         w8,[sp,#0x10]
	cmp         w8,#0
	beq         |$LN6@ue_bits|
	ldr         w1,[sp,#0x10]
	ldr         x0,[sp,#0x20]
	bl          |?get_bits@@YAIPEAUbit_reader_t@@H@Z|
	mov         w0,w0
	str         w0,[sp,#0x14]
	b           |$LN7@ue_bits|
|$LN6@ue_bits|
	mov         w8,#0
	str         w8,[sp,#0x14]
|$LN7@ue_bits|
	mov         w9,#1
	ldr         w8,[sp,#0x10]
	lsl         w8,w9,w8
	sub         w9,w8,#1
	ldr         w8,[sp,#0x14]
	add         w8,w9,w8
	str         w8,[sp,#0x18]

; 1880 :     return val;

	ldr         w0,[sp,#0x18]
	ldp         fp,lr,[sp],#0x30
	ret

	ENDP  ; |?ue_bits@@YAHPEAUbit_reader_t@@@Z|, ue_bits

; Function compile flags: /Odtp
; File C:\Users\paras\source\repos\grep-name\XenevaOS\Process\AudioPlayer\minimp4.h

	AREA	|.text$mn|, CODE, ARM64

|?init_bits@@YAXPEAUbit_reader_t@@PEBXI@Z| PROC		; init_bits

; 1862 : {

	stp         fp,lr,[sp,#-0x30]!
	mov         fp,sp
	str         x0,[sp,#0x18]
	str         x1,[sp,#0x20]
	str         w2,[sp,#0x10]

; 1863 :     bs->origin = (const uint16_t*)data;

	ldr         x8,[sp,#0x18]
	add         x9,x8,#0x10
	ldr         x8,[sp,#0x20]
	str         x8,[x9]

; 1864 :     bs->origin_bytes = data_bytes;

	ldr         x8,[sp,#0x18]
	add         x9,x8,#0x18
	ldr         w8,[sp,#0x10]
	str         w8,[x9]

; 1865 :     set_pos_bits(bs, 0);

	mov         w1,#0
	ldr         x0,[sp,#0x18]
	bl          |?set_pos_bits@@YAXPEAUbit_reader_t@@I@Z|
	ldp         fp,lr,[sp],#0x30
	ret

	ENDP  ; |?init_bits@@YAXPEAUbit_reader_t@@PEBXI@Z|, init_bits

; Function compile flags: /Odtp
; File C:\Users\paras\source\repos\grep-name\XenevaOS\Process\AudioPlayer\minimp4.h

	AREA	|.text$mn|, CODE, ARM64

|?remaining_bits@@YAHPEBUbit_reader_t@@@Z| PROC		; remaining_bits

; 1857 : {

	str         x19,[sp,#-0x10]!
	stp         fp,lr,[sp,#-0x20]!
	mov         fp,sp
	str         x0,[sp,#0x10]

; 1858 :     return bs->origin_bytes * 8 - get_pos_bits(bs);

	ldr         x8,[sp,#0x10]
	add         x8,x8,#0x18
	ldr         w9,[x8]
	mov         w8,#8
	mul         w19,w9,w8
	ldr         x0,[sp,#0x10]
	bl          |?get_pos_bits@@YAIPEBUbit_reader_t@@@Z|
	mov         w0,w0
	sub         w0,w19,w0
	mov         w0,w0
	ldp         fp,lr,[sp],#0x20
	ldr         x19,[sp],#0x10
	ret

	ENDP  ; |?remaining_bits@@YAHPEBUbit_reader_t@@@Z|, remaining_bits

; Function compile flags: /Odtp
; File C:\Users\paras\source\repos\grep-name\XenevaOS\Process\AudioPlayer\minimp4.h

	AREA	|.text$mn|, CODE, ARM64

|?get_pos_bits@@YAIPEBUbit_reader_t@@@Z| PROC		; get_pos_bits

; 1846 : {

	stp         fp,lr,[sp,#-0x20]!
	mov         fp,sp
	str         x0,[sp,#0x18]

; 1847 :     // Current bitbuffer position =
; 1848 :     // position of next wobits in the internal buffer
; 1849 :     // minus bs, available in bit cache wobits
; 1850 :     unsigned pos_bits = (unsigned)(bs->buf - bs->origin) * 16;

	ldr         x8,[sp,#0x18]
	add         x9,x8,#8
	ldr         x8,[sp,#0x18]
	add         x8,x8,#0x10
	ldr         x9,[x9]
	ldr         x8,[x8]
	sub         x8,x9,x8
	asr         x8,x8,#1
	mov         w9,w8
	mov         w8,#0x10
	mul         w8,w9,w8
	str         w8,[sp,#0x10]

; 1851 :     pos_bits -= 16 - bs->cache_free_bits;

	ldr         x8,[sp,#0x18]
	add         x8,x8,#4
	mov         w9,#0x10
	ldr         w8,[x8]
	sub         w9,w9,w8
	ldr         w8,[sp,#0x10]
	sub         w8,w8,w9
	str         w8,[sp,#0x10]

; 1852 :     assert((int)pos_bits >= 0);

	ldr         w8,[sp,#0x10]
	cmp         w8,#0
	bne         |$LN4@get_pos_bi|
	mov         w8,#1
	str         w8,[sp,#0x14]
	b           |$LN5@get_pos_bi|
|$LN4@get_pos_bi|
	mov         w8,#0
	str         w8,[sp,#0x14]
|$LN5@get_pos_bi|
	ldr         w8,[sp,#0x14]
	cmp         w8,#0
	blt         |$LN2@get_pos_bi|
	bl          abort
|$LN2@get_pos_bi|

; 1853 :     return pos_bits;

	ldr         w0,[sp,#0x10]
	ldp         fp,lr,[sp],#0x20
	ret

	ENDP  ; |?get_pos_bits@@YAIPEBUbit_reader_t@@@Z|, get_pos_bits

; Function compile flags: /Odtp
; File C:\Users\paras\source\repos\grep-name\XenevaOS\Process\AudioPlayer\minimp4.h

	AREA	|.text$mn|, CODE, ARM64

|?set_pos_bits@@YAXPEAUbit_reader_t@@I@Z| PROC		; set_pos_bits

; 1835 : {

	stp         fp,lr,[sp,#-0x20]!
	mov         fp,sp
	str         x0,[sp,#0x18]
	str         w1,[sp,#0x10]

; 1836 :     assert((int)pos_bits >= 0);

	ldr         w8,[sp,#0x10]
	cmp         w8,#0
	bne         |$LN4@set_pos_bi|
	mov         w8,#1
	str         w8,[sp,#0x14]
	b           |$LN5@set_pos_bi|
|$LN4@set_pos_bi|
	mov         w8,#0
	str         w8,[sp,#0x14]
|$LN5@set_pos_bi|
	ldr         w8,[sp,#0x14]
	cmp         w8,#0
	blt         |$LN2@set_pos_bi|
	bl          abort
|$LN2@set_pos_bi|

; 1837 : 
; 1838 :     bs->buf = bs->origin + pos_bits / 16;

	ldr         x8,[sp,#0x18]
	add         x10,x8,#0x10
	ldr         w9,[sp,#0x10]
	mov         w8,#0x10
	udiv        w8,w9,w8
	uxtw        x9,w8
	mov         x8,#2
	mul         x9,x9,x8
	ldr         x8,[x10]
	add         x9,x8,x9
	ldr         x8,[sp,#0x18]
	add         x8,x8,#8
	str         x9,[x8]

; 1839 :     bs->cache = 0;

	ldr         x9,[sp,#0x18]
	mov         w8,#0
	str         w8,[x9]

; 1840 :     bs->cache_free_bits = 16;

	ldr         x8,[sp,#0x18]
	add         x9,x8,#4
	mov         w8,#0x10
	str         w8,[x9]

; 1841 :     flush_bits(bs, 0);

	mov         w1,#0
	ldr         x0,[sp,#0x18]
	bl          |?flush_bits@@YAXPEAUbit_reader_t@@H@Z|

; 1842 :     flush_bits(bs, pos_bits & 15);

	ldr         w8,[sp,#0x10]
	and         w1,w8,#0xF
	mov         w1,w1
	ldr         x0,[sp,#0x18]
	bl          |?flush_bits@@YAXPEAUbit_reader_t@@H@Z|
	ldp         fp,lr,[sp],#0x20
	ret

	ENDP  ; |?set_pos_bits@@YAXPEAUbit_reader_t@@I@Z|, set_pos_bits

; Function compile flags: /Odtp
; File C:\Users\paras\source\repos\grep-name\XenevaOS\Process\AudioPlayer\minimp4.h

	AREA	|.text$mn|, CODE, ARM64

|?get_bits@@YAIPEAUbit_reader_t@@H@Z| PROC		; get_bits

; 1828 : {

	stp         fp,lr,[sp,#-0x20]!
	mov         fp,sp
	str         x0,[sp,#0x18]
	str         w1,[sp,#0x10]

; 1829 :     unsigned int retval = show_bits(bs, n);

	ldr         w1,[sp,#0x10]
	ldr         x0,[sp,#0x18]
	bl          |?show_bits@@YAIPEAUbit_reader_t@@H@Z|
	mov         w0,w0
	str         w0,[sp,#0x14]

; 1830 :     flush_bits(bs, n);

	ldr         w1,[sp,#0x10]
	ldr         x0,[sp,#0x18]
	bl          |?flush_bits@@YAXPEAUbit_reader_t@@H@Z|

; 1831 :     return retval;

	ldr         w0,[sp,#0x14]
	ldp         fp,lr,[sp],#0x20
	ret

	ENDP  ; |?get_bits@@YAIPEAUbit_reader_t@@H@Z|, get_bits

; Function compile flags: /Odtp
; File C:\Users\paras\source\repos\grep-name\XenevaOS\Process\AudioPlayer\minimp4.h

	AREA	|.text$mn|, CODE, ARM64

|?flush_bits@@YAXPEAUbit_reader_t@@H@Z| PROC		; flush_bits

; 1815 : {

	stp         fp,lr,[sp,#-0x20]!
	mov         fp,sp
	str         x0,[sp,#0x18]
	str         w1,[sp,#0x10]

; 1816 :     assert(n >= 0 && n <= 16);

	ldr         w8,[sp,#0x10]
	cmp         w8,#0
	bne         |$LN5@flush_bits|
	mov         w8,#1
	str         w8,[sp,#0x14]
	b           |$LN6@flush_bits|
|$LN5@flush_bits|
	mov         w8,#0
	str         w8,[sp,#0x14]
|$LN6@flush_bits|
	ldr         w8,[sp,#0x14]
	cmp         w8,#0
	blt         |$LN2@flush_bits|
	ldr         w8,[sp,#0x10]
	cmp         w8,#0x10
	bgt         |$LN2@flush_bits|
	bl          abort
|$LN2@flush_bits|

; 1817 :     bs->cache <<= n;

	ldr         x8,[sp,#0x18]
	ldr         w9,[x8]
	ldr         w8,[sp,#0x10]
	lsl         w9,w9,w8
	ldr         x8,[sp,#0x18]
	str         w9,[x8]

; 1818 :     bs->cache_free_bits += n;

	ldr         x8,[sp,#0x18]
	add         x8,x8,#4
	ldr         w9,[x8]
	ldr         w8,[sp,#0x10]
	add         w9,w9,w8
	ldr         x8,[sp,#0x18]
	add         x8,x8,#4
	str         w9,[x8]

; 1819 :     if (bs->cache_free_bits >= 0)

	ldr         x8,[sp,#0x18]
	add         x8,x8,#4
	ldr         w8,[x8]
	cmp         w8,#0
	blt         |$LN3@flush_bits|

; 1820 :     {
; 1821 :         bs->cache |= ((uint32_t)LOAD_SHORT(*bs->buf)) << bs->cache_free_bits;

	ldr         x10,[sp,#0x18]
	ldr         x8,[sp,#0x18]
	add         x8,x8,#8
	ldr         x8,[x8]
	ldrh        w8,[x8]
	mov         w8,w8
	lsl         w8,w8,#8
	uxth        w9,w8
	mov         w9,w9
	ldr         x8,[sp,#0x18]
	add         x8,x8,#8
	ldr         x8,[x8]
	ldrh        w8,[x8]
	mov         w8,w8
	asr         w8,w8,#8
	orr         w9,w9,w8
	ldr         x8,[sp,#0x18]
	add         x8,x8,#4
	ldr         w8,[x8]
	lsl         w9,w9,w8
	ldr         w8,[x10]
	orr         w9,w8,w9
	ldr         x8,[sp,#0x18]
	str         w9,[x8]

; 1822 :         bs->buf++;

	ldr         x8,[sp,#0x18]
	add         x8,x8,#8
	ldr         x8,[x8]
	add         x9,x8,#2
	ldr         x8,[sp,#0x18]
	add         x8,x8,#8
	str         x9,[x8]

; 1823 :         bs->cache_free_bits -= 16;

	ldr         x8,[sp,#0x18]
	add         x8,x8,#4
	ldr         w8,[x8]
	sub         w9,w8,#0x10
	ldr         x8,[sp,#0x18]
	add         x8,x8,#4
	str         w9,[x8]
|$LN3@flush_bits|
	ldp         fp,lr,[sp],#0x20
	ret

	ENDP  ; |?flush_bits@@YAXPEAUbit_reader_t@@H@Z|, flush_bits

; Function compile flags: /Odtp
; File C:\Users\paras\source\repos\grep-name\XenevaOS\Process\AudioPlayer\minimp4.h

	AREA	|.text$mn|, CODE, ARM64

|?show_bits@@YAIPEAUbit_reader_t@@H@Z| PROC		; show_bits

; 1807 : {

	stp         fp,lr,[sp,#-0x30]!
	mov         fp,sp
	str         x0,[sp,#0x20]
	str         w1,[sp,#0x10]

; 1808 :     unsigned int retval;
; 1809 :     assert(n > 0 && n <= 16);

	ldr         w8,[sp,#0x10]
	cmp         w8,#0
	bne         |$LN4@show_bits|
	mov         w8,#1
	str         w8,[sp,#0x14]
	b           |$LN5@show_bits|
|$LN4@show_bits|
	mov         w8,#0
	str         w8,[sp,#0x14]
|$LN5@show_bits|
	ldr         w8,[sp,#0x14]
	cmp         w8,#0
	ble         |$LN2@show_bits|
	ldr         w8,[sp,#0x10]
	cmp         w8,#0x10
	bgt         |$LN2@show_bits|
	bl          abort
|$LN2@show_bits|

; 1810 :     retval = (unsigned int)(bs->cache >> (32 - n));

	ldr         x10,[sp,#0x20]
	mov         w9,#0x20
	ldr         w8,[sp,#0x10]
	sub         w9,w9,w8
	ldr         w8,[x10]
	lsr         w8,w8,w9
	str         w8,[sp,#0x18]

; 1811 :     return retval;

	ldr         w0,[sp,#0x18]
	ldp         fp,lr,[sp],#0x30
	ret

	ENDP  ; |?show_bits@@YAIPEAUbit_reader_t@@H@Z|, show_bits

; Function compile flags: /Odtp
; File C:\Users\paras\source\repos\grep-name\XenevaOS\Process\AudioPlayer\minimp4.h

	AREA	|.text$mn|, CODE, ARM64

|?od_size_of_size@@YAHH@Z| PROC				; od_size_of_size

; 1167 : {

	sub         sp,sp,#0x10
	str         w0,[sp,#8]

; 1168 :     int i, size_of_size = 1;

	mov         w8,#1
	str         w8,[sp,#4]

; 1169 :     for (i = size; i > 0x7F; i -= 0x7F)

	ldr         w8,[sp,#8]
	str         w8,[sp]
	b           |$LN4@od_size_of|
|$LN2@od_size_of|
	ldr         w8,[sp]
	sub         w8,w8,#0x7F
	str         w8,[sp]
|$LN4@od_size_of|
	ldr         w8,[sp]
	cmp         w8,#0x7F
	ble         |$LN3@od_size_of|

; 1170 :         size_of_size++;

	ldr         w8,[sp,#4]
	add         w8,w8,#1
	str         w8,[sp,#4]
	b           |$LN2@od_size_of|
|$LN3@od_size_of|

; 1171 :     return size_of_size;

	ldr         w0,[sp,#4]
	add         sp,sp,#0x10
	ret

	ENDP  ; |?od_size_of_size@@YAHH@Z|, od_size_of_size

; Function compile flags: /Odtp
; File C:\Users\paras\source\repos\grep-name\XenevaOS\Process\AudioPlayer\minimp4.h

	AREA	|.text$mn|, CODE, ARM64

|?mp4e_write_mdat_box@@YAHPEAUMP4E_mux_tag@@I@Z| PROC	; mp4e_write_mdat_box

; 1090 : {

	stp         fp,lr,[sp,#-0x30]!
	mov         fp,sp
	str         x0,[sp,#0x20]
	str         w1,[sp,#0x10]

; 1091 :     unsigned char base[8], * p = base;

	add         x8,sp,#0x28
	str         x8,[sp,#0x18]

; 1092 :     WRITE_4(size);

	ldr         w8,[sp,#0x10]
	lsr         w8,w8,#0x18
	uxtb        w9,w8
	ldr         x8,[sp,#0x18]
	strb        w9,[x8]
	ldr         x8,[sp,#0x18]
	add         x8,x8,#1
	str         x8,[sp,#0x18]
	ldr         w8,[sp,#0x10]
	lsr         w8,w8,#0x10
	uxtb        w9,w8
	ldr         x8,[sp,#0x18]
	strb        w9,[x8]
	ldr         x8,[sp,#0x18]
	add         x8,x8,#1
	str         x8,[sp,#0x18]
	ldr         w8,[sp,#0x10]
	lsr         w8,w8,#8
	uxtb        w9,w8
	ldr         x8,[sp,#0x18]
	strb        w9,[x8]
	ldr         x8,[sp,#0x18]
	add         x8,x8,#1
	str         x8,[sp,#0x18]
	ldr         w8,[sp,#0x10]
	uxtb        w9,w8
	ldr         x8,[sp,#0x18]
	strb        w9,[x8]
	ldr         x8,[sp,#0x18]
	add         x8,x8,#1
	str         x8,[sp,#0x18]

; 1093 :     WRITE_4(BOX_mdat);

	ldr         x9,[sp,#0x18]
	mov         w8,#0x6D
	strb        w8,[x9]
	ldr         x8,[sp,#0x18]
	add         x8,x8,#1
	str         x8,[sp,#0x18]
	ldr         x9,[sp,#0x18]
	mov         w8,#0x64
	strb        w8,[x9]
	ldr         x8,[sp,#0x18]
	add         x8,x8,#1
	str         x8,[sp,#0x18]
	ldr         x9,[sp,#0x18]
	mov         w8,#0x61
	strb        w8,[x9]
	ldr         x8,[sp,#0x18]
	add         x8,x8,#1
	str         x8,[sp,#0x18]
	ldr         x9,[sp,#0x18]
	mov         w8,#0x74
	strb        w8,[x9]
	ldr         x8,[sp,#0x18]
	add         x8,x8,#1
	str         x8,[sp,#0x18]

; 1094 :     ERR(mux->write_callback(mux->write_pos, base, p - base, mux->token));

	ldr         x8,[sp,#0x20]
	add         x10,x8,#0x20
	ldr         x9,[sp,#0x18]
	add         x8,sp,#0x28
	sub         x2,x9,x8
	ldr         x8,[sp,#0x20]
	add         x9,x8,#0x10
	ldr         x8,[sp,#0x20]
	add         x8,x8,#0x18
	ldr         x3,[x10]
	add         x1,sp,#0x28
	ldr         x0,[x9]
	ldr         x8,[x8]
	blr         x8
	mov         w0,w0
	str         w0,[sp,#0x14]
	ldr         w8,[sp,#0x14]
	cmp         w8,#0
	beq         |$LN2@mp4e_write|
	ldr         w0,[sp,#0x14]
	b           |$LN1@mp4e_write|
|$LN2@mp4e_write|

; 1095 :     mux->write_pos += p - base;

	ldr         x8,[sp,#0x20]
	add         x10,x8,#0x10
	ldr         x9,[sp,#0x18]
	add         x8,sp,#0x28
	sub         x9,x9,x8
	ldr         x8,[x10]
	add         x9,x8,x9
	ldr         x8,[sp,#0x20]
	add         x8,x8,#0x10
	str         x9,[x8]

; 1096 :     return MP4E_STATUS_OK;

	mov         w0,#0
|$LN1@mp4e_write|
	ldp         fp,lr,[sp],#0x30
	ret

	ENDP  ; |?mp4e_write_mdat_box@@YAHPEAUMP4E_mux_tag@@I@Z|, mp4e_write_mdat_box

; Function compile flags: /Odtp
; File C:\Users\paras\source\repos\grep-name\XenevaOS\Process\AudioPlayer\minimp4.h

	AREA	|.text$mn|, CODE, ARM64

|?mp4e_write_fragment_header@@YAHPEAUMP4E_mux_tag@@HHHH@Z| PROC ; mp4e_write_fragment_header

; 998  : {

	sub         sp,sp,#0x470
	stp         fp,lr,[sp]
	mov         fp,sp
	str         x0,[sp,#0x30]
	str         w1,[sp,#0x2C]
	str         w2,[sp,#0x28]
	str         w3,[sp,#0x24]
	str         w4,[sp,#0x50]

; 999  :     unsigned char base[888], * p = base;

	add         x8,sp,#0x58
	str         x8,[sp,#0x10]

; 1000 :     unsigned char* stack_base[20]; // atoms nesting stack
; 1001 :     unsigned char** stack = stack_base;

	add         x8,sp,#0x3D0
	str         x8,[sp,#0x18]

; 1002 :     unsigned char* pdata_offset;
; 1003 :     unsigned flags;
; 1004 :     enum
; 1005 :     {
; 1006 :         default_sample_duration_present = 0x000008,
; 1007 :         default_sample_flags_present = 0x000020,
; 1008 :     } e;
; 1009 : 
; 1010 :     track_t* tr = ((track_t*)mux->tracks.data) + track_num;

	ldr         x10,[sp,#0x30]
	ldr         w8,[sp,#0x2C]
	sxtw        x9,w8
	mov         x8,#0x70
	mul         x9,x9,x8
	ldr         x8,[x10]
	add         x8,x8,x9
	str         x8,[sp,#0x48]

; 1011 : 
; 1012 :     ATOM(BOX_moof)

	ldr         x9,[sp,#0x18]
	ldr         x8,[sp,#0x10]
	str         x8,[x9]
	ldr         x8,[sp,#0x18]
	add         x8,x8,#8
	str         x8,[sp,#0x18]
	ldr         x8,[sp,#0x10]
	add         x8,x8,#4
	str         x8,[sp,#0x10]
	ldr         x9,[sp,#0x10]
	mov         w8,#0x6D
	strb        w8,[x9]
	ldr         x8,[sp,#0x10]
	add         x8,x8,#1
	str         x8,[sp,#0x10]
	ldr         x9,[sp,#0x10]
	mov         w8,#0x6F
	strb        w8,[x9]
	ldr         x8,[sp,#0x10]
	add         x8,x8,#1
	str         x8,[sp,#0x10]
	ldr         x9,[sp,#0x10]
	mov         w8,#0x6F
	strb        w8,[x9]
	ldr         x8,[sp,#0x10]
	add         x8,x8,#1
	str         x8,[sp,#0x10]
	ldr         x9,[sp,#0x10]
	mov         w8,#0x66
	strb        w8,[x9]
	ldr         x8,[sp,#0x10]
	add         x8,x8,#1
	str         x8,[sp,#0x10]

; 1013 :         ATOM_FULL(BOX_mfhd, 0)

	ldr         x9,[sp,#0x18]
	ldr         x8,[sp,#0x10]
	str         x8,[x9]
	ldr         x8,[sp,#0x18]
	add         x8,x8,#8
	str         x8,[sp,#0x18]
	ldr         x8,[sp,#0x10]
	add         x8,x8,#4
	str         x8,[sp,#0x10]
	ldr         x9,[sp,#0x10]
	mov         w8,#0x6D
	strb        w8,[x9]
	ldr         x8,[sp,#0x10]
	add         x8,x8,#1
	str         x8,[sp,#0x10]
	ldr         x9,[sp,#0x10]
	mov         w8,#0x66
	strb        w8,[x9]
	ldr         x8,[sp,#0x10]
	add         x8,x8,#1
	str         x8,[sp,#0x10]
	ldr         x9,[sp,#0x10]
	mov         w8,#0x68
	strb        w8,[x9]
	ldr         x8,[sp,#0x10]
	add         x8,x8,#1
	str         x8,[sp,#0x10]
	ldr         x9,[sp,#0x10]
	mov         w8,#0x64
	strb        w8,[x9]
	ldr         x8,[sp,#0x10]
	add         x8,x8,#1
	str         x8,[sp,#0x10]
	ldr         x9,[sp,#0x10]
	mov         w8,#0
	strb        w8,[x9]
	ldr         x8,[sp,#0x10]
	add         x8,x8,#1
	str         x8,[sp,#0x10]
	ldr         x9,[sp,#0x10]
	mov         w8,#0
	strb        w8,[x9]
	ldr         x8,[sp,#0x10]
	add         x8,x8,#1
	str         x8,[sp,#0x10]
	ldr         x9,[sp,#0x10]
	mov         w8,#0
	strb        w8,[x9]
	ldr         x8,[sp,#0x10]
	add         x8,x8,#1
	str         x8,[sp,#0x10]
	ldr         x9,[sp,#0x10]
	mov         w8,#0
	strb        w8,[x9]
	ldr         x8,[sp,#0x10]
	add         x8,x8,#1
	str         x8,[sp,#0x10]

; 1014 :         WRITE_4(mux->fragments_count);  // start from 1

	ldr         x8,[sp,#0x30]
	add         x8,x8,#0x38
	ldr         w8,[x8]
	asr         w8,w8,#0x18
	uxtb        w9,w8
	ldr         x8,[sp,#0x10]
	strb        w9,[x8]
	ldr         x8,[sp,#0x10]
	add         x8,x8,#1
	str         x8,[sp,#0x10]
	ldr         x8,[sp,#0x30]
	add         x8,x8,#0x38
	ldr         w8,[x8]
	asr         w8,w8,#0x10
	uxtb        w9,w8
	ldr         x8,[sp,#0x10]
	strb        w9,[x8]
	ldr         x8,[sp,#0x10]
	add         x8,x8,#1
	str         x8,[sp,#0x10]
	ldr         x8,[sp,#0x30]
	add         x8,x8,#0x38
	ldr         w8,[x8]
	asr         w8,w8,#8
	uxtb        w9,w8
	ldr         x8,[sp,#0x10]
	strb        w9,[x8]
	ldr         x8,[sp,#0x10]
	add         x8,x8,#1
	str         x8,[sp,#0x10]
	ldr         x8,[sp,#0x30]
	add         x8,x8,#0x38
	ldr         w8,[x8]
	uxtb        w9,w8
	ldr         x8,[sp,#0x10]
	strb        w9,[x8]
	ldr         x8,[sp,#0x10]
	add         x8,x8,#1
	str         x8,[sp,#0x10]

; 1015 :     END_ATOM

	ldr         x8,[sp,#0x18]
	sub         x8,x8,#8
	str         x8,[sp,#0x18]
	ldr         x9,[sp,#0x10]
	ldr         x8,[sp,#0x18]
	ldr         x8,[x8]
	sub         x8,x9,x8
	asr         x8,x8,#0x18
	uxtb        w9,w8
	ldr         x8,[sp,#0x18]
	ldr         x8,[x8]
	strb        w9,[x8]
	ldr         x9,[sp,#0x10]
	ldr         x8,[sp,#0x18]
	ldr         x8,[x8]
	sub         x8,x9,x8
	asr         x8,x8,#0x10
	uxtb        w9,w8
	ldr         x8,[sp,#0x18]
	ldr         x8,[x8]
	add         x8,x8,#1
	strb        w9,[x8]
	ldr         x9,[sp,#0x10]
	ldr         x8,[sp,#0x18]
	ldr         x8,[x8]
	sub         x8,x9,x8
	asr         x8,x8,#8
	uxtb        w9,w8
	ldr         x8,[sp,#0x18]
	ldr         x8,[x8]
	add         x8,x8,#2
	strb        w9,[x8]
	ldr         x9,[sp,#0x10]
	ldr         x8,[sp,#0x18]
	ldr         x8,[x8]
	sub         x8,x9,x8
	uxtb        w9,w8
	ldr         x8,[sp,#0x18]
	ldr         x8,[x8]
	add         x8,x8,#3
	strb        w9,[x8]

; 1016 :         ATOM(BOX_traf)

	ldr         x9,[sp,#0x18]
	ldr         x8,[sp,#0x10]
	str         x8,[x9]
	ldr         x8,[sp,#0x18]
	add         x8,x8,#8
	str         x8,[sp,#0x18]
	ldr         x8,[sp,#0x10]
	add         x8,x8,#4
	str         x8,[sp,#0x10]
	ldr         x9,[sp,#0x10]
	mov         w8,#0x74
	strb        w8,[x9]
	ldr         x8,[sp,#0x10]
	add         x8,x8,#1
	str         x8,[sp,#0x10]
	ldr         x9,[sp,#0x10]
	mov         w8,#0x72
	strb        w8,[x9]
	ldr         x8,[sp,#0x10]
	add         x8,x8,#1
	str         x8,[sp,#0x10]
	ldr         x9,[sp,#0x10]
	mov         w8,#0x61
	strb        w8,[x9]
	ldr         x8,[sp,#0x10]
	add         x8,x8,#1
	str         x8,[sp,#0x10]
	ldr         x9,[sp,#0x10]
	mov         w8,#0x66
	strb        w8,[x9]
	ldr         x8,[sp,#0x10]
	add         x8,x8,#1
	str         x8,[sp,#0x10]

; 1017 :         flags = 0;

	mov         w8,#0
	str         w8,[sp,#0x20]

; 1018 :     if (tr->info.track_media_kind == e_video)

	ldr         x8,[sp,#0x48]
	add         x8,x8,#8
	ldr         w8,[x8]
	cmp         w8,#1
	bne         |$LN2@mp4e_write|

; 1019 :         flags |= 0x20;          // default-sample-flags-present

	ldr         w8,[sp,#0x20]
	orr         w8,w8,#0x20
	str         w8,[sp,#0x20]
	b           |$LN3@mp4e_write|
|$LN2@mp4e_write|

; 1020 :     else
; 1021 :         flags |= 0x08;          // default-sample-duration-present

	ldr         w8,[sp,#0x20]
	orr         w8,w8,#8
	str         w8,[sp,#0x20]
|$LN3@mp4e_write|

; 1022 :     flags = (tr->info.track_media_kind == e_video) ? 0x20020 : 0x20008;

	ldr         x8,[sp,#0x48]
	add         x8,x8,#8
	ldr         w8,[x8]
	cmp         w8,#1
	bne         |$LN12@mp4e_write|
	ldr         w8,|$LN14@mp4e_write|
	str         w8,[sp,#0x40]
	b           |$LN13@mp4e_write|
|$LN12@mp4e_write|
	ldr         w8,|$LN15@mp4e_write|
	str         w8,[sp,#0x40]
|$LN13@mp4e_write|
	ldr         w8,[sp,#0x40]
	str         w8,[sp,#0x20]

; 1023 : 
; 1024 :     ATOM_FULL(BOX_tfhd, flags)

	ldr         x9,[sp,#0x18]
	ldr         x8,[sp,#0x10]
	str         x8,[x9]
	ldr         x8,[sp,#0x18]
	add         x8,x8,#8
	str         x8,[sp,#0x18]
	ldr         x8,[sp,#0x10]
	add         x8,x8,#4
	str         x8,[sp,#0x10]
	ldr         x9,[sp,#0x10]
	mov         w8,#0x74
	strb        w8,[x9]
	ldr         x8,[sp,#0x10]
	add         x8,x8,#1
	str         x8,[sp,#0x10]
	ldr         x9,[sp,#0x10]
	mov         w8,#0x66
	strb        w8,[x9]
	ldr         x8,[sp,#0x10]
	add         x8,x8,#1
	str         x8,[sp,#0x10]
	ldr         x9,[sp,#0x10]
	mov         w8,#0x68
	strb        w8,[x9]
	ldr         x8,[sp,#0x10]
	add         x8,x8,#1
	str         x8,[sp,#0x10]
	ldr         x9,[sp,#0x10]
	mov         w8,#0x64
	strb        w8,[x9]
	ldr         x8,[sp,#0x10]
	add         x8,x8,#1
	str         x8,[sp,#0x10]
	ldr         w8,[sp,#0x20]
	lsr         w8,w8,#0x18
	uxtb        w9,w8
	ldr         x8,[sp,#0x10]
	strb        w9,[x8]
	ldr         x8,[sp,#0x10]
	add         x8,x8,#1
	str         x8,[sp,#0x10]
	ldr         w8,[sp,#0x20]
	lsr         w8,w8,#0x10
	uxtb        w9,w8
	ldr         x8,[sp,#0x10]
	strb        w9,[x8]
	ldr         x8,[sp,#0x10]
	add         x8,x8,#1
	str         x8,[sp,#0x10]
	ldr         w8,[sp,#0x20]
	lsr         w8,w8,#8
	uxtb        w9,w8
	ldr         x8,[sp,#0x10]
	strb        w9,[x8]
	ldr         x8,[sp,#0x10]
	add         x8,x8,#1
	str         x8,[sp,#0x10]
	ldr         w8,[sp,#0x20]
	uxtb        w9,w8
	ldr         x8,[sp,#0x10]
	strb        w9,[x8]
	ldr         x8,[sp,#0x10]
	add         x8,x8,#1
	str         x8,[sp,#0x10]

; 1025 :         WRITE_4(track_num + 1); // track_ID

	ldr         w8,[sp,#0x2C]
	add         w8,w8,#1
	asr         w8,w8,#0x18
	uxtb        w9,w8
	ldr         x8,[sp,#0x10]
	strb        w9,[x8]
	ldr         x8,[sp,#0x10]
	add         x8,x8,#1
	str         x8,[sp,#0x10]
	ldr         w8,[sp,#0x2C]
	add         w8,w8,#1
	asr         w8,w8,#0x10
	uxtb        w9,w8
	ldr         x8,[sp,#0x10]
	strb        w9,[x8]
	ldr         x8,[sp,#0x10]
	add         x8,x8,#1
	str         x8,[sp,#0x10]
	ldr         w8,[sp,#0x2C]
	add         w8,w8,#1
	asr         w8,w8,#8
	uxtb        w9,w8
	ldr         x8,[sp,#0x10]
	strb        w9,[x8]
	ldr         x8,[sp,#0x10]
	add         x8,x8,#1
	str         x8,[sp,#0x10]
	ldr         w8,[sp,#0x2C]
	add         w8,w8,#1
	uxtb        w9,w8
	ldr         x8,[sp,#0x10]
	strb        w9,[x8]
	ldr         x8,[sp,#0x10]
	add         x8,x8,#1
	str         x8,[sp,#0x10]

; 1026 :     if (tr->info.track_media_kind == e_video)

	ldr         x8,[sp,#0x48]
	add         x8,x8,#8
	ldr         w8,[x8]
	cmp         w8,#1
	bne         |$LN4@mp4e_write|

; 1027 :     {
; 1028 :         WRITE_4(0x1010000); // default_sample_flags

	ldr         x9,[sp,#0x10]
	mov         w8,#1
	strb        w8,[x9]
	ldr         x8,[sp,#0x10]
	add         x8,x8,#1
	str         x8,[sp,#0x10]
	ldr         x9,[sp,#0x10]
	mov         w8,#1
	strb        w8,[x9]
	ldr         x8,[sp,#0x10]
	add         x8,x8,#1
	str         x8,[sp,#0x10]
	ldr         x9,[sp,#0x10]
	mov         w8,#0
	strb        w8,[x9]
	ldr         x8,[sp,#0x10]
	add         x8,x8,#1
	str         x8,[sp,#0x10]
	ldr         x9,[sp,#0x10]
	mov         w8,#0
	strb        w8,[x9]
	ldr         x8,[sp,#0x10]
	add         x8,x8,#1
	str         x8,[sp,#0x10]

; 1029 :     }

	b           |$LN5@mp4e_write|
|$LN4@mp4e_write|

; 1030 :     else
; 1031 :     {
; 1032 :         WRITE_4(duration);

	ldr         w8,[sp,#0x24]
	asr         w8,w8,#0x18
	uxtb        w9,w8
	ldr         x8,[sp,#0x10]
	strb        w9,[x8]
	ldr         x8,[sp,#0x10]
	add         x8,x8,#1
	str         x8,[sp,#0x10]
	ldr         w8,[sp,#0x24]
	asr         w8,w8,#0x10
	uxtb        w9,w8
	ldr         x8,[sp,#0x10]
	strb        w9,[x8]
	ldr         x8,[sp,#0x10]
	add         x8,x8,#1
	str         x8,[sp,#0x10]
	ldr         w8,[sp,#0x24]
	asr         w8,w8,#8
	uxtb        w9,w8
	ldr         x8,[sp,#0x10]
	strb        w9,[x8]
	ldr         x8,[sp,#0x10]
	add         x8,x8,#1
	str         x8,[sp,#0x10]
	ldr         w8,[sp,#0x24]
	uxtb        w9,w8
	ldr         x8,[sp,#0x10]
	strb        w9,[x8]
	ldr         x8,[sp,#0x10]
	add         x8,x8,#1
	str         x8,[sp,#0x10]
|$LN5@mp4e_write|

; 1033 :     }
; 1034 :     END_ATOM

	ldr         x8,[sp,#0x18]
	sub         x8,x8,#8
	str         x8,[sp,#0x18]
	ldr         x9,[sp,#0x10]
	ldr         x8,[sp,#0x18]
	ldr         x8,[x8]
	sub         x8,x9,x8
	asr         x8,x8,#0x18
	uxtb        w9,w8
	ldr         x8,[sp,#0x18]
	ldr         x8,[x8]
	strb        w9,[x8]
	ldr         x9,[sp,#0x10]
	ldr         x8,[sp,#0x18]
	ldr         x8,[x8]
	sub         x8,x9,x8
	asr         x8,x8,#0x10
	uxtb        w9,w8
	ldr         x8,[sp,#0x18]
	ldr         x8,[x8]
	add         x8,x8,#1
	strb        w9,[x8]
	ldr         x9,[sp,#0x10]
	ldr         x8,[sp,#0x18]
	ldr         x8,[x8]
	sub         x8,x9,x8
	asr         x8,x8,#8
	uxtb        w9,w8
	ldr         x8,[sp,#0x18]
	ldr         x8,[x8]
	add         x8,x8,#2
	strb        w9,[x8]
	ldr         x9,[sp,#0x10]
	ldr         x8,[sp,#0x18]
	ldr         x8,[x8]
	sub         x8,x9,x8
	uxtb        w9,w8
	ldr         x8,[sp,#0x18]
	ldr         x8,[x8]
	add         x8,x8,#3
	strb        w9,[x8]

; 1035 : #if MP4D_TFDT_SUPPORT
; 1036 :         ATOM_FULL(BOX_tfdt, 0x01000000) // version 1
; 1037 :         WRITE_4(timestamp >> 32); // upper timestamp
; 1038 :     WRITE_4(timestamp & 0xffffffff); // lower timestamp
; 1039 :     END_ATOM
; 1040 : #endif
; 1041 :         if (tr->info.track_media_kind == e_audio)

	ldr         x8,[sp,#0x48]
	add         x8,x8,#8
	ldr         w8,[x8]
	cmp         w8,#0
	bne         |$LN6@mp4e_write|

; 1042 :         {
; 1043 :             flags = 0;

	mov         w8,#0
	str         w8,[sp,#0x20]

; 1044 :             flags |= 0x001;         // data-offset-present

	ldr         w8,[sp,#0x20]
	orr         w8,w8,#1
	str         w8,[sp,#0x20]

; 1045 :             flags |= 0x200;         // sample-size-present

	ldr         w8,[sp,#0x20]
	orr         w8,w8,#0x200
	str         w8,[sp,#0x20]

; 1046 :             ATOM_FULL(BOX_trun, flags)

	ldr         x9,[sp,#0x18]
	ldr         x8,[sp,#0x10]
	str         x8,[x9]
	ldr         x8,[sp,#0x18]
	add         x8,x8,#8
	str         x8,[sp,#0x18]
	ldr         x8,[sp,#0x10]
	add         x8,x8,#4
	str         x8,[sp,#0x10]
	ldr         x9,[sp,#0x10]
	mov         w8,#0x74
	strb        w8,[x9]
	ldr         x8,[sp,#0x10]
	add         x8,x8,#1
	str         x8,[sp,#0x10]
	ldr         x9,[sp,#0x10]
	mov         w8,#0x72
	strb        w8,[x9]
	ldr         x8,[sp,#0x10]
	add         x8,x8,#1
	str         x8,[sp,#0x10]
	ldr         x9,[sp,#0x10]
	mov         w8,#0x75
	strb        w8,[x9]
	ldr         x8,[sp,#0x10]
	add         x8,x8,#1
	str         x8,[sp,#0x10]
	ldr         x9,[sp,#0x10]
	mov         w8,#0x6E
	strb        w8,[x9]
	ldr         x8,[sp,#0x10]
	add         x8,x8,#1
	str         x8,[sp,#0x10]
	ldr         w8,[sp,#0x20]
	lsr         w8,w8,#0x18
	uxtb        w9,w8
	ldr         x8,[sp,#0x10]
	strb        w9,[x8]
	ldr         x8,[sp,#0x10]
	add         x8,x8,#1
	str         x8,[sp,#0x10]
	ldr         w8,[sp,#0x20]
	lsr         w8,w8,#0x10
	uxtb        w9,w8
	ldr         x8,[sp,#0x10]
	strb        w9,[x8]
	ldr         x8,[sp,#0x10]
	add         x8,x8,#1
	str         x8,[sp,#0x10]
	ldr         w8,[sp,#0x20]
	lsr         w8,w8,#8
	uxtb        w9,w8
	ldr         x8,[sp,#0x10]
	strb        w9,[x8]
	ldr         x8,[sp,#0x10]
	add         x8,x8,#1
	str         x8,[sp,#0x10]
	ldr         w8,[sp,#0x20]
	uxtb        w9,w8
	ldr         x8,[sp,#0x10]
	strb        w9,[x8]
	ldr         x8,[sp,#0x10]
	add         x8,x8,#1
	str         x8,[sp,#0x10]

; 1047 :                 WRITE_4(1);         // sample_count

	ldr         x9,[sp,#0x10]
	mov         w8,#0
	strb        w8,[x9]
	ldr         x8,[sp,#0x10]
	add         x8,x8,#1
	str         x8,[sp,#0x10]
	ldr         x9,[sp,#0x10]
	mov         w8,#0
	strb        w8,[x9]
	ldr         x8,[sp,#0x10]
	add         x8,x8,#1
	str         x8,[sp,#0x10]
	ldr         x9,[sp,#0x10]
	mov         w8,#0
	strb        w8,[x9]
	ldr         x8,[sp,#0x10]
	add         x8,x8,#1
	str         x8,[sp,#0x10]
	ldr         x9,[sp,#0x10]
	mov         w8,#1
	strb        w8,[x9]
	ldr         x8,[sp,#0x10]
	add         x8,x8,#1
	str         x8,[sp,#0x10]

; 1048 :             pdata_offset = p; p += 4;  // save ptr to data_offset

	ldr         x8,[sp,#0x10]
	str         x8,[sp,#0x38]
	ldr         x8,[sp,#0x10]
	add         x8,x8,#4
	str         x8,[sp,#0x10]

; 1049 :             WRITE_4(data_bytes);// sample_size

	ldr         w8,[sp,#0x28]
	asr         w8,w8,#0x18
	uxtb        w9,w8
	ldr         x8,[sp,#0x10]
	strb        w9,[x8]
	ldr         x8,[sp,#0x10]
	add         x8,x8,#1
	str         x8,[sp,#0x10]
	ldr         w8,[sp,#0x28]
	asr         w8,w8,#0x10
	uxtb        w9,w8
	ldr         x8,[sp,#0x10]
	strb        w9,[x8]
	ldr         x8,[sp,#0x10]
	add         x8,x8,#1
	str         x8,[sp,#0x10]
	ldr         w8,[sp,#0x28]
	asr         w8,w8,#8
	uxtb        w9,w8
	ldr         x8,[sp,#0x10]
	strb        w9,[x8]
	ldr         x8,[sp,#0x10]
	add         x8,x8,#1
	str         x8,[sp,#0x10]
	ldr         w8,[sp,#0x28]
	uxtb        w9,w8
	ldr         x8,[sp,#0x10]
	strb        w9,[x8]
	ldr         x8,[sp,#0x10]
	add         x8,x8,#1
	str         x8,[sp,#0x10]

; 1050 :             END_ATOM

	ldr         x8,[sp,#0x18]
	sub         x8,x8,#8
	str         x8,[sp,#0x18]
	ldr         x9,[sp,#0x10]
	ldr         x8,[sp,#0x18]
	ldr         x8,[x8]
	sub         x8,x9,x8
	asr         x8,x8,#0x18
	uxtb        w9,w8
	ldr         x8,[sp,#0x18]
	ldr         x8,[x8]
	strb        w9,[x8]
	ldr         x9,[sp,#0x10]
	ldr         x8,[sp,#0x18]
	ldr         x8,[x8]
	sub         x8,x9,x8
	asr         x8,x8,#0x10
	uxtb        w9,w8
	ldr         x8,[sp,#0x18]
	ldr         x8,[x8]
	add         x8,x8,#1
	strb        w9,[x8]
	ldr         x9,[sp,#0x10]
	ldr         x8,[sp,#0x18]
	ldr         x8,[x8]
	sub         x8,x9,x8
	asr         x8,x8,#8
	uxtb        w9,w8
	ldr         x8,[sp,#0x18]
	ldr         x8,[x8]
	add         x8,x8,#2
	strb        w9,[x8]
	ldr         x9,[sp,#0x10]
	ldr         x8,[sp,#0x18]
	ldr         x8,[x8]
	sub         x8,x9,x8
	uxtb        w9,w8
	ldr         x8,[sp,#0x18]
	ldr         x8,[x8]
	add         x8,x8,#3
	strb        w9,[x8]

; 1051 :         }

	b           |$LN7@mp4e_write|
|$LN6@mp4e_write|

; 1052 :         else if (kind == MP4E_SAMPLE_RANDOM_ACCESS)

	ldr         w8,[sp,#0x50]
	cmp         w8,#1
	bne         |$LN8@mp4e_write|

; 1053 :         {
; 1054 :             flags = 0;

	mov         w8,#0
	str         w8,[sp,#0x20]

; 1055 :             flags |= 0x001;         // data-offset-present

	ldr         w8,[sp,#0x20]
	orr         w8,w8,#1
	str         w8,[sp,#0x20]

; 1056 :             flags |= 0x004;         // first-sample-flags-present

	ldr         w8,[sp,#0x20]
	orr         w8,w8,#4
	str         w8,[sp,#0x20]

; 1057 :             flags |= 0x100;         // sample-duration-present

	ldr         w8,[sp,#0x20]
	orr         w8,w8,#0x100
	str         w8,[sp,#0x20]

; 1058 :             flags |= 0x200;         // sample-size-present

	ldr         w8,[sp,#0x20]
	orr         w8,w8,#0x200
	str         w8,[sp,#0x20]

; 1059 :             ATOM_FULL(BOX_trun, flags)

	ldr         x9,[sp,#0x18]
	ldr         x8,[sp,#0x10]
	str         x8,[x9]
	ldr         x8,[sp,#0x18]
	add         x8,x8,#8
	str         x8,[sp,#0x18]
	ldr         x8,[sp,#0x10]
	add         x8,x8,#4
	str         x8,[sp,#0x10]
	ldr         x9,[sp,#0x10]
	mov         w8,#0x74
	strb        w8,[x9]
	ldr         x8,[sp,#0x10]
	add         x8,x8,#1
	str         x8,[sp,#0x10]
	ldr         x9,[sp,#0x10]
	mov         w8,#0x72
	strb        w8,[x9]
	ldr         x8,[sp,#0x10]
	add         x8,x8,#1
	str         x8,[sp,#0x10]
	ldr         x9,[sp,#0x10]
	mov         w8,#0x75
	strb        w8,[x9]
	ldr         x8,[sp,#0x10]
	add         x8,x8,#1
	str         x8,[sp,#0x10]
	ldr         x9,[sp,#0x10]
	mov         w8,#0x6E
	strb        w8,[x9]
	ldr         x8,[sp,#0x10]
	add         x8,x8,#1
	str         x8,[sp,#0x10]
	ldr         w8,[sp,#0x20]
	lsr         w8,w8,#0x18
	uxtb        w9,w8
	ldr         x8,[sp,#0x10]
	strb        w9,[x8]
	ldr         x8,[sp,#0x10]
	add         x8,x8,#1
	str         x8,[sp,#0x10]
	ldr         w8,[sp,#0x20]
	lsr         w8,w8,#0x10
	uxtb        w9,w8
	ldr         x8,[sp,#0x10]
	strb        w9,[x8]
	ldr         x8,[sp,#0x10]
	add         x8,x8,#1
	str         x8,[sp,#0x10]
	ldr         w8,[sp,#0x20]
	lsr         w8,w8,#8
	uxtb        w9,w8
	ldr         x8,[sp,#0x10]
	strb        w9,[x8]
	ldr         x8,[sp,#0x10]
	add         x8,x8,#1
	str         x8,[sp,#0x10]
	ldr         w8,[sp,#0x20]
	uxtb        w9,w8
	ldr         x8,[sp,#0x10]
	strb        w9,[x8]
	ldr         x8,[sp,#0x10]
	add         x8,x8,#1
	str         x8,[sp,#0x10]

; 1060 :                 WRITE_4(1);         // sample_count

	ldr         x9,[sp,#0x10]
	mov         w8,#0
	strb        w8,[x9]
	ldr         x8,[sp,#0x10]
	add         x8,x8,#1
	str         x8,[sp,#0x10]
	ldr         x9,[sp,#0x10]
	mov         w8,#0
	strb        w8,[x9]
	ldr         x8,[sp,#0x10]
	add         x8,x8,#1
	str         x8,[sp,#0x10]
	ldr         x9,[sp,#0x10]
	mov         w8,#0
	strb        w8,[x9]
	ldr         x8,[sp,#0x10]
	add         x8,x8,#1
	str         x8,[sp,#0x10]
	ldr         x9,[sp,#0x10]
	mov         w8,#1
	strb        w8,[x9]
	ldr         x8,[sp,#0x10]
	add         x8,x8,#1
	str         x8,[sp,#0x10]

; 1061 :             pdata_offset = p; p += 4;   // save ptr to data_offset

	ldr         x8,[sp,#0x10]
	str         x8,[sp,#0x38]
	ldr         x8,[sp,#0x10]
	add         x8,x8,#4
	str         x8,[sp,#0x10]

; 1062 :             WRITE_4(0x2000000); // first_sample_flags

	ldr         x9,[sp,#0x10]
	mov         w8,#2
	strb        w8,[x9]
	ldr         x8,[sp,#0x10]
	add         x8,x8,#1
	str         x8,[sp,#0x10]
	ldr         x9,[sp,#0x10]
	mov         w8,#0
	strb        w8,[x9]
	ldr         x8,[sp,#0x10]
	add         x8,x8,#1
	str         x8,[sp,#0x10]
	ldr         x9,[sp,#0x10]
	mov         w8,#0
	strb        w8,[x9]
	ldr         x8,[sp,#0x10]
	add         x8,x8,#1
	str         x8,[sp,#0x10]
	ldr         x9,[sp,#0x10]
	mov         w8,#0
	strb        w8,[x9]
	ldr         x8,[sp,#0x10]
	add         x8,x8,#1
	str         x8,[sp,#0x10]

; 1063 :             WRITE_4(duration);  // sample_duration

	ldr         w8,[sp,#0x24]
	asr         w8,w8,#0x18
	uxtb        w9,w8
	ldr         x8,[sp,#0x10]
	strb        w9,[x8]
	ldr         x8,[sp,#0x10]
	add         x8,x8,#1
	str         x8,[sp,#0x10]
	ldr         w8,[sp,#0x24]
	asr         w8,w8,#0x10
	uxtb        w9,w8
	ldr         x8,[sp,#0x10]
	strb        w9,[x8]
	ldr         x8,[sp,#0x10]
	add         x8,x8,#1
	str         x8,[sp,#0x10]
	ldr         w8,[sp,#0x24]
	asr         w8,w8,#8
	uxtb        w9,w8
	ldr         x8,[sp,#0x10]
	strb        w9,[x8]
	ldr         x8,[sp,#0x10]
	add         x8,x8,#1
	str         x8,[sp,#0x10]
	ldr         w8,[sp,#0x24]
	uxtb        w9,w8
	ldr         x8,[sp,#0x10]
	strb        w9,[x8]
	ldr         x8,[sp,#0x10]
	add         x8,x8,#1
	str         x8,[sp,#0x10]

; 1064 :             WRITE_4(data_bytes);// sample_size

	ldr         w8,[sp,#0x28]
	asr         w8,w8,#0x18
	uxtb        w9,w8
	ldr         x8,[sp,#0x10]
	strb        w9,[x8]
	ldr         x8,[sp,#0x10]
	add         x8,x8,#1
	str         x8,[sp,#0x10]
	ldr         w8,[sp,#0x28]
	asr         w8,w8,#0x10
	uxtb        w9,w8
	ldr         x8,[sp,#0x10]
	strb        w9,[x8]
	ldr         x8,[sp,#0x10]
	add         x8,x8,#1
	str         x8,[sp,#0x10]
	ldr         w8,[sp,#0x28]
	asr         w8,w8,#8
	uxtb        w9,w8
	ldr         x8,[sp,#0x10]
	strb        w9,[x8]
	ldr         x8,[sp,#0x10]
	add         x8,x8,#1
	str         x8,[sp,#0x10]
	ldr         w8,[sp,#0x28]
	uxtb        w9,w8
	ldr         x8,[sp,#0x10]
	strb        w9,[x8]
	ldr         x8,[sp,#0x10]
	add         x8,x8,#1
	str         x8,[sp,#0x10]

; 1065 :             END_ATOM

	ldr         x8,[sp,#0x18]
	sub         x8,x8,#8
	str         x8,[sp,#0x18]
	ldr         x9,[sp,#0x10]
	ldr         x8,[sp,#0x18]
	ldr         x8,[x8]
	sub         x8,x9,x8
	asr         x8,x8,#0x18
	uxtb        w9,w8
	ldr         x8,[sp,#0x18]
	ldr         x8,[x8]
	strb        w9,[x8]
	ldr         x9,[sp,#0x10]
	ldr         x8,[sp,#0x18]
	ldr         x8,[x8]
	sub         x8,x9,x8
	asr         x8,x8,#0x10
	uxtb        w9,w8
	ldr         x8,[sp,#0x18]
	ldr         x8,[x8]
	add         x8,x8,#1
	strb        w9,[x8]
	ldr         x9,[sp,#0x10]
	ldr         x8,[sp,#0x18]
	ldr         x8,[x8]
	sub         x8,x9,x8
	asr         x8,x8,#8
	uxtb        w9,w8
	ldr         x8,[sp,#0x18]
	ldr         x8,[x8]
	add         x8,x8,#2
	strb        w9,[x8]
	ldr         x9,[sp,#0x10]
	ldr         x8,[sp,#0x18]
	ldr         x8,[x8]
	sub         x8,x9,x8
	uxtb        w9,w8
	ldr         x8,[sp,#0x18]
	ldr         x8,[x8]
	add         x8,x8,#3
	strb        w9,[x8]

; 1066 :         }

	b           |$LN9@mp4e_write|
|$LN8@mp4e_write|

; 1067 :         else
; 1068 :         {
; 1069 :             flags = 0;

	mov         w8,#0
	str         w8,[sp,#0x20]

; 1070 :             flags |= 0x001;         // data-offset-present

	ldr         w8,[sp,#0x20]
	orr         w8,w8,#1
	str         w8,[sp,#0x20]

; 1071 :             flags |= 0x100;         // sample-duration-present

	ldr         w8,[sp,#0x20]
	orr         w8,w8,#0x100
	str         w8,[sp,#0x20]

; 1072 :             flags |= 0x200;         // sample-size-present

	ldr         w8,[sp,#0x20]
	orr         w8,w8,#0x200
	str         w8,[sp,#0x20]

; 1073 :             ATOM_FULL(BOX_trun, flags)

	ldr         x9,[sp,#0x18]
	ldr         x8,[sp,#0x10]
	str         x8,[x9]
	ldr         x8,[sp,#0x18]
	add         x8,x8,#8
	str         x8,[sp,#0x18]
	ldr         x8,[sp,#0x10]
	add         x8,x8,#4
	str         x8,[sp,#0x10]
	ldr         x9,[sp,#0x10]
	mov         w8,#0x74
	strb        w8,[x9]
	ldr         x8,[sp,#0x10]
	add         x8,x8,#1
	str         x8,[sp,#0x10]
	ldr         x9,[sp,#0x10]
	mov         w8,#0x72
	strb        w8,[x9]
	ldr         x8,[sp,#0x10]
	add         x8,x8,#1
	str         x8,[sp,#0x10]
	ldr         x9,[sp,#0x10]
	mov         w8,#0x75
	strb        w8,[x9]
	ldr         x8,[sp,#0x10]
	add         x8,x8,#1
	str         x8,[sp,#0x10]
	ldr         x9,[sp,#0x10]
	mov         w8,#0x6E
	strb        w8,[x9]
	ldr         x8,[sp,#0x10]
	add         x8,x8,#1
	str         x8,[sp,#0x10]
	ldr         w8,[sp,#0x20]
	lsr         w8,w8,#0x18
	uxtb        w9,w8
	ldr         x8,[sp,#0x10]
	strb        w9,[x8]
	ldr         x8,[sp,#0x10]
	add         x8,x8,#1
	str         x8,[sp,#0x10]
	ldr         w8,[sp,#0x20]
	lsr         w8,w8,#0x10
	uxtb        w9,w8
	ldr         x8,[sp,#0x10]
	strb        w9,[x8]
	ldr         x8,[sp,#0x10]
	add         x8,x8,#1
	str         x8,[sp,#0x10]
	ldr         w8,[sp,#0x20]
	lsr         w8,w8,#8
	uxtb        w9,w8
	ldr         x8,[sp,#0x10]
	strb        w9,[x8]
	ldr         x8,[sp,#0x10]
	add         x8,x8,#1
	str         x8,[sp,#0x10]
	ldr         w8,[sp,#0x20]
	uxtb        w9,w8
	ldr         x8,[sp,#0x10]
	strb        w9,[x8]
	ldr         x8,[sp,#0x10]
	add         x8,x8,#1
	str         x8,[sp,#0x10]

; 1074 :                 WRITE_4(1);         // sample_count

	ldr         x9,[sp,#0x10]
	mov         w8,#0
	strb        w8,[x9]
	ldr         x8,[sp,#0x10]
	add         x8,x8,#1
	str         x8,[sp,#0x10]
	ldr         x9,[sp,#0x10]
	mov         w8,#0
	strb        w8,[x9]
	ldr         x8,[sp,#0x10]
	add         x8,x8,#1
	str         x8,[sp,#0x10]
	ldr         x9,[sp,#0x10]
	mov         w8,#0
	strb        w8,[x9]
	ldr         x8,[sp,#0x10]
	add         x8,x8,#1
	str         x8,[sp,#0x10]
	ldr         x9,[sp,#0x10]
	mov         w8,#1
	strb        w8,[x9]
	ldr         x8,[sp,#0x10]
	add         x8,x8,#1
	str         x8,[sp,#0x10]

; 1075 :             pdata_offset = p; p += 4;   // save ptr to data_offset

	ldr         x8,[sp,#0x10]
	str         x8,[sp,#0x38]
	ldr         x8,[sp,#0x10]
	add         x8,x8,#4
	str         x8,[sp,#0x10]

; 1076 :             WRITE_4(duration);  // sample_duration

	ldr         w8,[sp,#0x24]
	asr         w8,w8,#0x18
	uxtb        w9,w8
	ldr         x8,[sp,#0x10]
	strb        w9,[x8]
	ldr         x8,[sp,#0x10]
	add         x8,x8,#1
	str         x8,[sp,#0x10]
	ldr         w8,[sp,#0x24]
	asr         w8,w8,#0x10
	uxtb        w9,w8
	ldr         x8,[sp,#0x10]
	strb        w9,[x8]
	ldr         x8,[sp,#0x10]
	add         x8,x8,#1
	str         x8,[sp,#0x10]
	ldr         w8,[sp,#0x24]
	asr         w8,w8,#8
	uxtb        w9,w8
	ldr         x8,[sp,#0x10]
	strb        w9,[x8]
	ldr         x8,[sp,#0x10]
	add         x8,x8,#1
	str         x8,[sp,#0x10]
	ldr         w8,[sp,#0x24]
	uxtb        w9,w8
	ldr         x8,[sp,#0x10]
	strb        w9,[x8]
	ldr         x8,[sp,#0x10]
	add         x8,x8,#1
	str         x8,[sp,#0x10]

; 1077 :             WRITE_4(data_bytes);// sample_size

	ldr         w8,[sp,#0x28]
	asr         w8,w8,#0x18
	uxtb        w9,w8
	ldr         x8,[sp,#0x10]
	strb        w9,[x8]
	ldr         x8,[sp,#0x10]
	add         x8,x8,#1
	str         x8,[sp,#0x10]
	ldr         w8,[sp,#0x28]
	asr         w8,w8,#0x10
	uxtb        w9,w8
	ldr         x8,[sp,#0x10]
	strb        w9,[x8]
	ldr         x8,[sp,#0x10]
	add         x8,x8,#1
	str         x8,[sp,#0x10]
	ldr         w8,[sp,#0x28]
	asr         w8,w8,#8
	uxtb        w9,w8
	ldr         x8,[sp,#0x10]
	strb        w9,[x8]
	ldr         x8,[sp,#0x10]
	add         x8,x8,#1
	str         x8,[sp,#0x10]
	ldr         w8,[sp,#0x28]
	uxtb        w9,w8
	ldr         x8,[sp,#0x10]
	strb        w9,[x8]
	ldr         x8,[sp,#0x10]
	add         x8,x8,#1
	str         x8,[sp,#0x10]

; 1078 :             END_ATOM

	ldr         x8,[sp,#0x18]
	sub         x8,x8,#8
	str         x8,[sp,#0x18]
	ldr         x9,[sp,#0x10]
	ldr         x8,[sp,#0x18]
	ldr         x8,[x8]
	sub         x8,x9,x8
	asr         x8,x8,#0x18
	uxtb        w9,w8
	ldr         x8,[sp,#0x18]
	ldr         x8,[x8]
	strb        w9,[x8]
	ldr         x9,[sp,#0x10]
	ldr         x8,[sp,#0x18]
	ldr         x8,[x8]
	sub         x8,x9,x8
	asr         x8,x8,#0x10
	uxtb        w9,w8
	ldr         x8,[sp,#0x18]
	ldr         x8,[x8]
	add         x8,x8,#1
	strb        w9,[x8]
	ldr         x9,[sp,#0x10]
	ldr         x8,[sp,#0x18]
	ldr         x8,[x8]
	sub         x8,x9,x8
	asr         x8,x8,#8
	uxtb        w9,w8
	ldr         x8,[sp,#0x18]
	ldr         x8,[x8]
	add         x8,x8,#2
	strb        w9,[x8]
	ldr         x9,[sp,#0x10]
	ldr         x8,[sp,#0x18]
	ldr         x8,[x8]
	sub         x8,x9,x8
	uxtb        w9,w8
	ldr         x8,[sp,#0x18]
	ldr         x8,[x8]
	add         x8,x8,#3
	strb        w9,[x8]
|$LN9@mp4e_write|
|$LN7@mp4e_write|

; 1079 :         }
; 1080 :     END_ATOM

	ldr         x8,[sp,#0x18]
	sub         x8,x8,#8
	str         x8,[sp,#0x18]
	ldr         x9,[sp,#0x10]
	ldr         x8,[sp,#0x18]
	ldr         x8,[x8]
	sub         x8,x9,x8
	asr         x8,x8,#0x18
	uxtb        w9,w8
	ldr         x8,[sp,#0x18]
	ldr         x8,[x8]
	strb        w9,[x8]
	ldr         x9,[sp,#0x10]
	ldr         x8,[sp,#0x18]
	ldr         x8,[x8]
	sub         x8,x9,x8
	asr         x8,x8,#0x10
	uxtb        w9,w8
	ldr         x8,[sp,#0x18]
	ldr         x8,[x8]
	add         x8,x8,#1
	strb        w9,[x8]
	ldr         x9,[sp,#0x10]
	ldr         x8,[sp,#0x18]
	ldr         x8,[x8]
	sub         x8,x9,x8
	asr         x8,x8,#8
	uxtb        w9,w8
	ldr         x8,[sp,#0x18]
	ldr         x8,[x8]
	add         x8,x8,#2
	strb        w9,[x8]
	ldr         x9,[sp,#0x10]
	ldr         x8,[sp,#0x18]
	ldr         x8,[x8]
	sub         x8,x9,x8
	uxtb        w9,w8
	ldr         x8,[sp,#0x18]
	ldr         x8,[x8]
	add         x8,x8,#3
	strb        w9,[x8]

; 1081 :         END_ATOM

	ldr         x8,[sp,#0x18]
	sub         x8,x8,#8
	str         x8,[sp,#0x18]
	ldr         x9,[sp,#0x10]
	ldr         x8,[sp,#0x18]
	ldr         x8,[x8]
	sub         x8,x9,x8
	asr         x8,x8,#0x18
	uxtb        w9,w8
	ldr         x8,[sp,#0x18]
	ldr         x8,[x8]
	strb        w9,[x8]
	ldr         x9,[sp,#0x10]
	ldr         x8,[sp,#0x18]
	ldr         x8,[x8]
	sub         x8,x9,x8
	asr         x8,x8,#0x10
	uxtb        w9,w8
	ldr         x8,[sp,#0x18]
	ldr         x8,[x8]
	add         x8,x8,#1
	strb        w9,[x8]
	ldr         x9,[sp,#0x10]
	ldr         x8,[sp,#0x18]
	ldr         x8,[x8]
	sub         x8,x9,x8
	asr         x8,x8,#8
	uxtb        w9,w8
	ldr         x8,[sp,#0x18]
	ldr         x8,[x8]
	add         x8,x8,#2
	strb        w9,[x8]
	ldr         x9,[sp,#0x10]
	ldr         x8,[sp,#0x18]
	ldr         x8,[x8]
	sub         x8,x9,x8
	uxtb        w9,w8
	ldr         x8,[sp,#0x18]
	ldr         x8,[x8]
	add         x8,x8,#3
	strb        w9,[x8]

; 1082 :         WR4(pdata_offset, (p - base) + 8);

	ldr         x9,[sp,#0x10]
	add         x8,sp,#0x58
	sub         x8,x9,x8
	add         x8,x8,#8
	asr         x8,x8,#0x18
	uxtb        w9,w8
	ldr         x8,[sp,#0x38]
	strb        w9,[x8]
	ldr         x9,[sp,#0x10]
	add         x8,sp,#0x58
	sub         x8,x9,x8
	add         x8,x8,#8
	asr         x8,x8,#0x10
	uxtb        w9,w8
	ldr         x8,[sp,#0x38]
	add         x8,x8,#1
	strb        w9,[x8]
	ldr         x9,[sp,#0x10]
	add         x8,sp,#0x58
	sub         x8,x9,x8
	add         x8,x8,#8
	asr         x8,x8,#8
	uxtb        w9,w8
	ldr         x8,[sp,#0x38]
	add         x8,x8,#2
	strb        w9,[x8]
	ldr         x9,[sp,#0x10]
	add         x8,sp,#0x58
	sub         x8,x9,x8
	add         x8,x8,#8
	uxtb        w9,w8
	ldr         x8,[sp,#0x38]
	add         x8,x8,#3
	strb        w9,[x8]

; 1083 : 
; 1084 :     ERR(mux->write_callback(mux->write_pos, base, p - base, mux->token));

	ldr         x8,[sp,#0x30]
	add         x10,x8,#0x20
	ldr         x9,[sp,#0x10]
	add         x8,sp,#0x58
	sub         x2,x9,x8
	ldr         x8,[sp,#0x30]
	add         x9,x8,#0x10
	ldr         x8,[sp,#0x30]
	add         x8,x8,#0x18
	ldr         x3,[x10]
	add         x1,sp,#0x58
	ldr         x0,[x9]
	ldr         x8,[x8]
	blr         x8
	mov         w0,w0
	str         w0,[sp,#0x44]
	ldr         w8,[sp,#0x44]
	cmp         w8,#0
	beq         |$LN10@mp4e_write|
	ldr         w0,[sp,#0x44]
	b           |$LN1@mp4e_write|
|$LN10@mp4e_write|

; 1085 :     mux->write_pos += p - base;

	ldr         x8,[sp,#0x30]
	add         x10,x8,#0x10
	ldr         x9,[sp,#0x10]
	add         x8,sp,#0x58
	sub         x9,x9,x8
	ldr         x8,[x10]
	add         x9,x8,x9
	ldr         x8,[sp,#0x30]
	add         x8,x8,#0x10
	str         x9,[x8]

; 1086 :     return MP4E_STATUS_OK;

	mov         w0,#0
|$LN1@mp4e_write|
	ldp         fp,lr,[sp]
	add         sp,sp,#0x470
	ret
	nop
|$LN14@mp4e_write|
	DCD         0x20020
|$LN15@mp4e_write|
	DCD         0x20008

	ENDP  ; |?mp4e_write_fragment_header@@YAHPEAUMP4E_mux_tag@@HHHH@Z|, mp4e_write_fragment_header

; Function compile flags: /Odtp
; File C:\Users\paras\source\repos\grep-name\XenevaOS\Process\AudioPlayer\minimp4.h

	AREA	|.text$mn|, CODE, ARM64

|?mp4e_flush_index@@YAHPEAUMP4E_mux_tag@@@Z| PROC	; mp4e_flush_index

; 1196 : {

	stp         fp,lr,[sp,#-0x1A0]!
	mov         fp,sp
	str         x0,[sp,#0x48]

; 1197 :     unsigned char* stack_base[20]; // atoms nesting stack
; 1198 :     unsigned char** stack = stack_base;

	add         x8,sp,#0x100
	str         x8,[sp,#0x18]

; 1199 :     unsigned char* base, * p;
; 1200 :     unsigned int ntr, index_bytes, ntracks = mux->tracks.bytes / sizeof(track_t);

	ldr         x8,[sp,#0x48]
	add         x8,x8,#8
	ldr         w8,[x8]
	sxtw        x9,w8
	mov         x8,#0x70
	udiv        x8,x9,x8
	mov         w8,w8
	str         w8,[sp,#0x58]

; 1201 :     int i, err;
; 1202 : 
; 1203 :     // How much memory needed for indexes
; 1204 :     // Experimental data:
; 1205 :     // file with 1 track = 560 bytes
; 1206 :     // file with 2 tracks = 972 bytes
; 1207 :     // track size = 412 bytes;
; 1208 :     // file header size = 148 bytes
; 1209 : #define FILE_HEADER_BYTES 256
; 1210 : #define TRACK_HEADER_BYTES 512
; 1211 :     index_bytes = FILE_HEADER_BYTES;

	mov         w8,#0x100
	str         w8,[sp,#0x38]

; 1212 :     if (mux->text_comment)

	ldr         x8,[sp,#0x48]
	add         x8,x8,#0x28
	ldr         x8,[x8]
	cmp         x8,#0
	beq         |$LN67@mp4e_flush|

; 1213 :         index_bytes += 128 + strlen(mux->text_comment);

	ldr         x8,[sp,#0x48]
	add         x8,x8,#0x28
	ldr         x0,[x8]
	bl          strlen
	add         x9,x0,#0x80
	ldr         w8,[sp,#0x38]
	uxtw        x8,w8
	add         x8,x8,x9
	mov         w8,w8
	str         w8,[sp,#0x38]
|$LN67@mp4e_flush|

; 1214 :     for (ntr = 0; ntr < ntracks; ntr++)

	mov         w8,#0
	str         w8,[sp,#0x34]
	b           |$LN4@mp4e_flush|
|$LN2@mp4e_flush|
	ldr         w8,[sp,#0x34]
	add         w8,w8,#1
	str         w8,[sp,#0x34]
|$LN4@mp4e_flush|
	ldr         w9,[sp,#0x58]
	ldr         w8,[sp,#0x34]
	cmp         w8,w9
	bhs         |$LN3@mp4e_flush|

; 1215 :     {
; 1216 :         track_t* tr = ((track_t*)mux->tracks.data) + ntr;

	ldr         x10,[sp,#0x48]
	ldr         w8,[sp,#0x34]
	uxtw        x9,w8
	mov         x8,#0x70
	mul         x9,x9,x8
	ldr         x8,[x10]
	add         x8,x8,x9
	str         x8,[sp,#0xC8]

; 1217 :         index_bytes += TRACK_HEADER_BYTES;          // fixed amount (implementation-dependent)

	ldr         w8,[sp,#0x38]
	add         w8,w8,#0x200
	str         w8,[sp,#0x38]

; 1218 :         // may need extra 4 bytes for duration field + 4 bytes for worst-case random access box
; 1219 :         index_bytes += tr->smpl.bytes * (sizeof(sample_t) + 4 + 4) / sizeof(sample_t);

	ldr         x8,[sp,#0xC8]
	add         x8,x8,#0x20
	add         x8,x8,#8
	ldr         w8,[x8]
	sxtw        x9,w8
	mov         x8,#0x20
	mul         x9,x9,x8
	mov         x8,#0x18
	udiv        x9,x9,x8
	ldr         w8,[sp,#0x38]
	uxtw        x8,w8
	add         x8,x8,x9
	mov         w8,w8
	str         w8,[sp,#0x38]

; 1220 :         index_bytes += tr->vsps.bytes;

	ldr         x8,[sp,#0xC8]
	add         x8,x8,#0x40
	add         x8,x8,#8
	ldr         w9,[sp,#0x38]
	ldr         w8,[x8]
	add         w8,w9,w8
	str         w8,[sp,#0x38]

; 1221 :         index_bytes += tr->vpps.bytes;

	ldr         x8,[sp,#0xC8]
	add         x8,x8,#0x50
	add         x8,x8,#8
	ldr         w9,[sp,#0x38]
	ldr         w8,[x8]
	add         w8,w9,w8
	str         w8,[sp,#0x38]

; 1222 : 
; 1223 :         ERR(write_pending_data(mux, tr));

	ldr         x1,[sp,#0xC8]
	ldr         x0,[sp,#0x48]
	bl          |?write_pending_data@@YAHPEAUMP4E_mux_tag@@PEAUtrack_t@@@Z|
	mov         w0,w0
	str         w0,[sp,#0xA0]
	ldr         w8,[sp,#0xA0]
	cmp         w8,#0
	beq         |$LN68@mp4e_flush|
	ldr         w0,[sp,#0xA0]
	b           |$LN1@mp4e_flush|
|$LN68@mp4e_flush|

; 1224 :     }

	b           |$LN2@mp4e_flush|
|$LN3@mp4e_flush|

; 1225 : 
; 1226 :     base = (unsigned char*)malloc(index_bytes);

	ldr         w0,[sp,#0x38]
	bl          malloc
	str         x0,[sp,#0x88]

; 1227 :     if (!base)

	ldr         x8,[sp,#0x88]
	cmp         x8,#0
	bne         |$LN69@mp4e_flush|

; 1228 :         return MP4E_STATUS_NO_MEMORY;

	mov         w0,#-2
	b           |$LN1@mp4e_flush|
|$LN69@mp4e_flush|

; 1229 :     p = base;

	ldr         x8,[sp,#0x88]
	str         x8,[sp,#0x10]

; 1230 : 
; 1231 :     if (!mux->sequential_mode_flag)

	ldr         x8,[sp,#0x48]
	add         x8,x8,#0x30
	ldr         w8,[x8]
	cmp         w8,#0
	bne         |$LN70@mp4e_flush|

; 1232 :     {
; 1233 :         // update size of mdat box.
; 1234 :         // One of 2 points, which requires random file access.
; 1235 :         // Second is optional duration update at beginning of file in fragmentation mode.
; 1236 :         // This can be avoided using "till eof" size code, but in this case indexes must be
; 1237 :         // written before the mdat....
; 1238 :         int64_t size = mux->write_pos - sizeof(box_ftyp);

	ldr         x8,[sp,#0x48]
	add         x8,x8,#0x10
	ldr         x8,[x8]
	sub         x8,x8,#0x18
	str         x8,[sp,#0x78]

; 1239 :         const int64_t size_limit = (int64_t)(uint64_t)0xfffffffe;

	mov         x8,#0xFFFFFFFE
	str         x8,[sp,#0xF8]

; 1240 :         if (size > size_limit)

	mov         x9,#0xFFFFFFFE
	ldr         x8,[sp,#0x78]
	cmp         x8,x9
	ble         |$LN71@mp4e_flush|

; 1241 :         {
; 1242 :             WRITE_4(1);

	ldr         x9,[sp,#0x10]
	mov         w8,#0
	strb        w8,[x9]
	ldr         x8,[sp,#0x10]
	add         x8,x8,#1
	str         x8,[sp,#0x10]
	ldr         x9,[sp,#0x10]
	mov         w8,#0
	strb        w8,[x9]
	ldr         x8,[sp,#0x10]
	add         x8,x8,#1
	str         x8,[sp,#0x10]
	ldr         x9,[sp,#0x10]
	mov         w8,#0
	strb        w8,[x9]
	ldr         x8,[sp,#0x10]
	add         x8,x8,#1
	str         x8,[sp,#0x10]
	ldr         x9,[sp,#0x10]
	mov         w8,#1
	strb        w8,[x9]
	ldr         x8,[sp,#0x10]
	add         x8,x8,#1
	str         x8,[sp,#0x10]

; 1243 :             WRITE_4(BOX_mdat);

	ldr         x9,[sp,#0x10]
	mov         w8,#0x6D
	strb        w8,[x9]
	ldr         x8,[sp,#0x10]
	add         x8,x8,#1
	str         x8,[sp,#0x10]
	ldr         x9,[sp,#0x10]
	mov         w8,#0x64
	strb        w8,[x9]
	ldr         x8,[sp,#0x10]
	add         x8,x8,#1
	str         x8,[sp,#0x10]
	ldr         x9,[sp,#0x10]
	mov         w8,#0x61
	strb        w8,[x9]
	ldr         x8,[sp,#0x10]
	add         x8,x8,#1
	str         x8,[sp,#0x10]
	ldr         x9,[sp,#0x10]
	mov         w8,#0x74
	strb        w8,[x9]
	ldr         x8,[sp,#0x10]
	add         x8,x8,#1
	str         x8,[sp,#0x10]

; 1244 :             WRITE_4((size >> 32) & 0xffffffff);

	ldr         x8,[sp,#0x78]
	asr         x8,x8,#0x20
	and         x8,x8,#0xFFFFFFFF
	asr         x8,x8,#0x18
	uxtb        w9,w8
	ldr         x8,[sp,#0x10]
	strb        w9,[x8]
	ldr         x8,[sp,#0x10]
	add         x8,x8,#1
	str         x8,[sp,#0x10]
	ldr         x8,[sp,#0x78]
	asr         x8,x8,#0x20
	and         x8,x8,#0xFFFFFFFF
	asr         x8,x8,#0x10
	uxtb        w9,w8
	ldr         x8,[sp,#0x10]
	strb        w9,[x8]
	ldr         x8,[sp,#0x10]
	add         x8,x8,#1
	str         x8,[sp,#0x10]
	ldr         x8,[sp,#0x78]
	asr         x8,x8,#0x20
	and         x8,x8,#0xFFFFFFFF
	asr         x8,x8,#8
	uxtb        w9,w8
	ldr         x8,[sp,#0x10]
	strb        w9,[x8]
	ldr         x8,[sp,#0x10]
	add         x8,x8,#1
	str         x8,[sp,#0x10]
	ldr         x8,[sp,#0x78]
	asr         x8,x8,#0x20
	and         x8,x8,#0xFFFFFFFF
	uxtb        w9,w8
	ldr         x8,[sp,#0x10]
	strb        w9,[x8]
	ldr         x8,[sp,#0x10]
	add         x8,x8,#1
	str         x8,[sp,#0x10]

; 1245 :             WRITE_4(size & 0xffffffff);

	ldr         x8,[sp,#0x78]
	and         x8,x8,#0xFFFFFFFF
	asr         x8,x8,#0x18
	uxtb        w9,w8
	ldr         x8,[sp,#0x10]
	strb        w9,[x8]
	ldr         x8,[sp,#0x10]
	add         x8,x8,#1
	str         x8,[sp,#0x10]
	ldr         x8,[sp,#0x78]
	and         x8,x8,#0xFFFFFFFF
	asr         x8,x8,#0x10
	uxtb        w9,w8
	ldr         x8,[sp,#0x10]
	strb        w9,[x8]
	ldr         x8,[sp,#0x10]
	add         x8,x8,#1
	str         x8,[sp,#0x10]
	ldr         x8,[sp,#0x78]
	and         x8,x8,#0xFFFFFFFF
	asr         x8,x8,#8
	uxtb        w9,w8
	ldr         x8,[sp,#0x10]
	strb        w9,[x8]
	ldr         x8,[sp,#0x10]
	add         x8,x8,#1
	str         x8,[sp,#0x10]
	ldr         x8,[sp,#0x78]
	and         x8,x8,#0xFFFFFFFF
	uxtb        w9,w8
	ldr         x8,[sp,#0x10]
	strb        w9,[x8]
	ldr         x8,[sp,#0x10]
	add         x8,x8,#1
	str         x8,[sp,#0x10]

; 1246 :         }

	b           |$LN72@mp4e_flush|
|$LN71@mp4e_flush|

; 1247 :         else
; 1248 :         {
; 1249 :             WRITE_4(8);

	ldr         x9,[sp,#0x10]
	mov         w8,#0
	strb        w8,[x9]
	ldr         x8,[sp,#0x10]
	add         x8,x8,#1
	str         x8,[sp,#0x10]
	ldr         x9,[sp,#0x10]
	mov         w8,#0
	strb        w8,[x9]
	ldr         x8,[sp,#0x10]
	add         x8,x8,#1
	str         x8,[sp,#0x10]
	ldr         x9,[sp,#0x10]
	mov         w8,#0
	strb        w8,[x9]
	ldr         x8,[sp,#0x10]
	add         x8,x8,#1
	str         x8,[sp,#0x10]
	ldr         x9,[sp,#0x10]
	mov         w8,#8
	strb        w8,[x9]
	ldr         x8,[sp,#0x10]
	add         x8,x8,#1
	str         x8,[sp,#0x10]

; 1250 :             WRITE_4(BOX_free);

	ldr         x9,[sp,#0x10]
	mov         w8,#0x66
	strb        w8,[x9]
	ldr         x8,[sp,#0x10]
	add         x8,x8,#1
	str         x8,[sp,#0x10]
	ldr         x9,[sp,#0x10]
	mov         w8,#0x72
	strb        w8,[x9]
	ldr         x8,[sp,#0x10]
	add         x8,x8,#1
	str         x8,[sp,#0x10]
	ldr         x9,[sp,#0x10]
	mov         w8,#0x65
	strb        w8,[x9]
	ldr         x8,[sp,#0x10]
	add         x8,x8,#1
	str         x8,[sp,#0x10]
	ldr         x9,[sp,#0x10]
	mov         w8,#0x65
	strb        w8,[x9]
	ldr         x8,[sp,#0x10]
	add         x8,x8,#1
	str         x8,[sp,#0x10]

; 1251 :             WRITE_4(size - 8);

	ldr         x8,[sp,#0x78]
	sub         x8,x8,#8
	asr         x8,x8,#0x18
	uxtb        w9,w8
	ldr         x8,[sp,#0x10]
	strb        w9,[x8]
	ldr         x8,[sp,#0x10]
	add         x8,x8,#1
	str         x8,[sp,#0x10]
	ldr         x8,[sp,#0x78]
	sub         x8,x8,#8
	asr         x8,x8,#0x10
	uxtb        w9,w8
	ldr         x8,[sp,#0x10]
	strb        w9,[x8]
	ldr         x8,[sp,#0x10]
	add         x8,x8,#1
	str         x8,[sp,#0x10]
	ldr         x8,[sp,#0x78]
	sub         x8,x8,#8
	asr         x8,x8,#8
	uxtb        w9,w8
	ldr         x8,[sp,#0x10]
	strb        w9,[x8]
	ldr         x8,[sp,#0x10]
	add         x8,x8,#1
	str         x8,[sp,#0x10]
	ldr         x8,[sp,#0x78]
	sub         x8,x8,#8
	uxtb        w9,w8
	ldr         x8,[sp,#0x10]
	strb        w9,[x8]
	ldr         x8,[sp,#0x10]
	add         x8,x8,#1
	str         x8,[sp,#0x10]

; 1252 :             WRITE_4(BOX_mdat);

	ldr         x9,[sp,#0x10]
	mov         w8,#0x6D
	strb        w8,[x9]
	ldr         x8,[sp,#0x10]
	add         x8,x8,#1
	str         x8,[sp,#0x10]
	ldr         x9,[sp,#0x10]
	mov         w8,#0x64
	strb        w8,[x9]
	ldr         x8,[sp,#0x10]
	add         x8,x8,#1
	str         x8,[sp,#0x10]
	ldr         x9,[sp,#0x10]
	mov         w8,#0x61
	strb        w8,[x9]
	ldr         x8,[sp,#0x10]
	add         x8,x8,#1
	str         x8,[sp,#0x10]
	ldr         x9,[sp,#0x10]
	mov         w8,#0x74
	strb        w8,[x9]
	ldr         x8,[sp,#0x10]
	add         x8,x8,#1
	str         x8,[sp,#0x10]
|$LN72@mp4e_flush|

; 1253 :         }
; 1254 :         ERR(mux->write_callback(sizeof(box_ftyp), base, p - base, mux->token));

	ldr         x8,[sp,#0x48]
	add         x10,x8,#0x20
	ldr         x9,[sp,#0x10]
	ldr         x8,[sp,#0x88]
	sub         x2,x9,x8
	ldr         x8,[sp,#0x48]
	add         x8,x8,#0x18
	ldr         x3,[x10]
	ldr         x1,[sp,#0x88]
	mov         x0,#0x18
	ldr         x8,[x8]
	blr         x8
	mov         w0,w0
	str         w0,[sp,#0xA4]
	ldr         w8,[sp,#0xA4]
	cmp         w8,#0
	beq         |$LN73@mp4e_flush|
	ldr         w0,[sp,#0xA4]
	b           |$LN1@mp4e_flush|
|$LN73@mp4e_flush|

; 1255 :         p = base;

	ldr         x8,[sp,#0x88]
	str         x8,[sp,#0x10]
|$LN70@mp4e_flush|

; 1256 :     }
; 1257 : 
; 1258 :     // Write index atoms; order taken from Table 1 of [1]
; 1259 : #define MOOV_TIMESCALE 1000
; 1260 :     ATOM(BOX_moov);

	ldr         x9,[sp,#0x18]
	ldr         x8,[sp,#0x10]
	str         x8,[x9]
	ldr         x8,[sp,#0x18]
	add         x8,x8,#8
	str         x8,[sp,#0x18]
	ldr         x8,[sp,#0x10]
	add         x8,x8,#4
	str         x8,[sp,#0x10]
	ldr         x9,[sp,#0x10]
	mov         w8,#0x6D
	strb        w8,[x9]
	ldr         x8,[sp,#0x10]
	add         x8,x8,#1
	str         x8,[sp,#0x10]
	ldr         x9,[sp,#0x10]
	mov         w8,#0x6F
	strb        w8,[x9]
	ldr         x8,[sp,#0x10]
	add         x8,x8,#1
	str         x8,[sp,#0x10]
	ldr         x9,[sp,#0x10]
	mov         w8,#0x6F
	strb        w8,[x9]
	ldr         x8,[sp,#0x10]
	add         x8,x8,#1
	str         x8,[sp,#0x10]
	ldr         x9,[sp,#0x10]
	mov         w8,#0x76
	strb        w8,[x9]
	ldr         x8,[sp,#0x10]
	add         x8,x8,#1
	str         x8,[sp,#0x10]

; 1261 :     ATOM_FULL(BOX_mvhd, 0);

	ldr         x9,[sp,#0x18]
	ldr         x8,[sp,#0x10]
	str         x8,[x9]
	ldr         x8,[sp,#0x18]
	add         x8,x8,#8
	str         x8,[sp,#0x18]
	ldr         x8,[sp,#0x10]
	add         x8,x8,#4
	str         x8,[sp,#0x10]
	ldr         x9,[sp,#0x10]
	mov         w8,#0x6D
	strb        w8,[x9]
	ldr         x8,[sp,#0x10]
	add         x8,x8,#1
	str         x8,[sp,#0x10]
	ldr         x9,[sp,#0x10]
	mov         w8,#0x76
	strb        w8,[x9]
	ldr         x8,[sp,#0x10]
	add         x8,x8,#1
	str         x8,[sp,#0x10]
	ldr         x9,[sp,#0x10]
	mov         w8,#0x68
	strb        w8,[x9]
	ldr         x8,[sp,#0x10]
	add         x8,x8,#1
	str         x8,[sp,#0x10]
	ldr         x9,[sp,#0x10]
	mov         w8,#0x64
	strb        w8,[x9]
	ldr         x8,[sp,#0x10]
	add         x8,x8,#1
	str         x8,[sp,#0x10]
	ldr         x9,[sp,#0x10]
	mov         w8,#0
	strb        w8,[x9]
	ldr         x8,[sp,#0x10]
	add         x8,x8,#1
	str         x8,[sp,#0x10]
	ldr         x9,[sp,#0x10]
	mov         w8,#0
	strb        w8,[x9]
	ldr         x8,[sp,#0x10]
	add         x8,x8,#1
	str         x8,[sp,#0x10]
	ldr         x9,[sp,#0x10]
	mov         w8,#0
	strb        w8,[x9]
	ldr         x8,[sp,#0x10]
	add         x8,x8,#1
	str         x8,[sp,#0x10]
	ldr         x9,[sp,#0x10]
	mov         w8,#0
	strb        w8,[x9]
	ldr         x8,[sp,#0x10]
	add         x8,x8,#1
	str         x8,[sp,#0x10]

; 1262 :     WRITE_4(0); // creation_time

	ldr         x9,[sp,#0x10]
	mov         w8,#0
	strb        w8,[x9]
	ldr         x8,[sp,#0x10]
	add         x8,x8,#1
	str         x8,[sp,#0x10]
	ldr         x9,[sp,#0x10]
	mov         w8,#0
	strb        w8,[x9]
	ldr         x8,[sp,#0x10]
	add         x8,x8,#1
	str         x8,[sp,#0x10]
	ldr         x9,[sp,#0x10]
	mov         w8,#0
	strb        w8,[x9]
	ldr         x8,[sp,#0x10]
	add         x8,x8,#1
	str         x8,[sp,#0x10]
	ldr         x9,[sp,#0x10]
	mov         w8,#0
	strb        w8,[x9]
	ldr         x8,[sp,#0x10]
	add         x8,x8,#1
	str         x8,[sp,#0x10]

; 1263 :     WRITE_4(0); // modification_time

	ldr         x9,[sp,#0x10]
	mov         w8,#0
	strb        w8,[x9]
	ldr         x8,[sp,#0x10]
	add         x8,x8,#1
	str         x8,[sp,#0x10]
	ldr         x9,[sp,#0x10]
	mov         w8,#0
	strb        w8,[x9]
	ldr         x8,[sp,#0x10]
	add         x8,x8,#1
	str         x8,[sp,#0x10]
	ldr         x9,[sp,#0x10]
	mov         w8,#0
	strb        w8,[x9]
	ldr         x8,[sp,#0x10]
	add         x8,x8,#1
	str         x8,[sp,#0x10]
	ldr         x9,[sp,#0x10]
	mov         w8,#0
	strb        w8,[x9]
	ldr         x8,[sp,#0x10]
	add         x8,x8,#1
	str         x8,[sp,#0x10]

; 1264 : 
; 1265 :     if (ntracks)

	ldr         w8,[sp,#0x58]
	cmp         w8,#0
	beq         |$LN74@mp4e_flush|

; 1266 :     {
; 1267 :         track_t* tr = ((track_t*)mux->tracks.data) + 0;    // take 1st track

	ldr         x8,[sp,#0x48]
	ldr         x8,[x8]
	str         x8,[sp,#0xE8]

; 1268 :         unsigned duration = get_duration(tr);

	ldr         x0,[sp,#0xE8]
	bl          |?get_duration@@YAIPEBUtrack_t@@@Z|
	mov         w0,w0
	str         w0,[sp,#0x68]

; 1269 :         duration = (unsigned)(duration * 1LL * MOOV_TIMESCALE / tr->info.time_scale);

	ldr         w8,[sp,#0x68]
	uxtw        x9,w8
	mov         x8,#0x3E8
	mul         x9,x9,x8
	ldr         x8,[sp,#0xE8]
	add         x8,x8,#0xC
	ldr         w8,[x8]
	uxtw        x8,w8
	cbnz        x8,|$LN123@mp4e_flush|
	brk         #0xF004
|$LN123@mp4e_flush|
	sdiv        x8,x9,x8
	mov         w8,w8
	str         w8,[sp,#0x68]

; 1270 :         WRITE_4(MOOV_TIMESCALE); // duration

	ldr         x9,[sp,#0x10]
	mov         w8,#0
	strb        w8,[x9]
	ldr         x8,[sp,#0x10]
	add         x8,x8,#1
	str         x8,[sp,#0x10]
	ldr         x9,[sp,#0x10]
	mov         w8,#0
	strb        w8,[x9]
	ldr         x8,[sp,#0x10]
	add         x8,x8,#1
	str         x8,[sp,#0x10]
	ldr         x9,[sp,#0x10]
	mov         w8,#3
	strb        w8,[x9]
	ldr         x8,[sp,#0x10]
	add         x8,x8,#1
	str         x8,[sp,#0x10]
	ldr         x9,[sp,#0x10]
	mov         w8,#0xE8
	strb        w8,[x9]
	ldr         x8,[sp,#0x10]
	add         x8,x8,#1
	str         x8,[sp,#0x10]

; 1271 :         WRITE_4(duration); // duration

	ldr         w8,[sp,#0x68]
	lsr         w8,w8,#0x18
	uxtb        w9,w8
	ldr         x8,[sp,#0x10]
	strb        w9,[x8]
	ldr         x8,[sp,#0x10]
	add         x8,x8,#1
	str         x8,[sp,#0x10]
	ldr         w8,[sp,#0x68]
	lsr         w8,w8,#0x10
	uxtb        w9,w8
	ldr         x8,[sp,#0x10]
	strb        w9,[x8]
	ldr         x8,[sp,#0x10]
	add         x8,x8,#1
	str         x8,[sp,#0x10]
	ldr         w8,[sp,#0x68]
	lsr         w8,w8,#8
	uxtb        w9,w8
	ldr         x8,[sp,#0x10]
	strb        w9,[x8]
	ldr         x8,[sp,#0x10]
	add         x8,x8,#1
	str         x8,[sp,#0x10]
	ldr         w8,[sp,#0x68]
	uxtb        w9,w8
	ldr         x8,[sp,#0x10]
	strb        w9,[x8]
	ldr         x8,[sp,#0x10]
	add         x8,x8,#1
	str         x8,[sp,#0x10]
|$LN74@mp4e_flush|

; 1272 :     }
; 1273 : 
; 1274 :     WRITE_4(0x00010000); // rate

	ldr         x9,[sp,#0x10]
	mov         w8,#0
	strb        w8,[x9]
	ldr         x8,[sp,#0x10]
	add         x8,x8,#1
	str         x8,[sp,#0x10]
	ldr         x9,[sp,#0x10]
	mov         w8,#1
	strb        w8,[x9]
	ldr         x8,[sp,#0x10]
	add         x8,x8,#1
	str         x8,[sp,#0x10]
	ldr         x9,[sp,#0x10]
	mov         w8,#0
	strb        w8,[x9]
	ldr         x8,[sp,#0x10]
	add         x8,x8,#1
	str         x8,[sp,#0x10]
	ldr         x9,[sp,#0x10]
	mov         w8,#0
	strb        w8,[x9]
	ldr         x8,[sp,#0x10]
	add         x8,x8,#1
	str         x8,[sp,#0x10]

; 1275 :     WRITE_2(0x0100); // volume

	ldr         x9,[sp,#0x10]
	mov         w8,#1
	strb        w8,[x9]
	ldr         x8,[sp,#0x10]
	add         x8,x8,#1
	str         x8,[sp,#0x10]
	ldr         x9,[sp,#0x10]
	mov         w8,#0
	strb        w8,[x9]
	ldr         x8,[sp,#0x10]
	add         x8,x8,#1
	str         x8,[sp,#0x10]

; 1276 :     WRITE_2(0); // reserved

	ldr         x9,[sp,#0x10]
	mov         w8,#0
	strb        w8,[x9]
	ldr         x8,[sp,#0x10]
	add         x8,x8,#1
	str         x8,[sp,#0x10]
	ldr         x9,[sp,#0x10]
	mov         w8,#0
	strb        w8,[x9]
	ldr         x8,[sp,#0x10]
	add         x8,x8,#1
	str         x8,[sp,#0x10]

; 1277 :     WRITE_4(0); // reserved

	ldr         x9,[sp,#0x10]
	mov         w8,#0
	strb        w8,[x9]
	ldr         x8,[sp,#0x10]
	add         x8,x8,#1
	str         x8,[sp,#0x10]
	ldr         x9,[sp,#0x10]
	mov         w8,#0
	strb        w8,[x9]
	ldr         x8,[sp,#0x10]
	add         x8,x8,#1
	str         x8,[sp,#0x10]
	ldr         x9,[sp,#0x10]
	mov         w8,#0
	strb        w8,[x9]
	ldr         x8,[sp,#0x10]
	add         x8,x8,#1
	str         x8,[sp,#0x10]
	ldr         x9,[sp,#0x10]
	mov         w8,#0
	strb        w8,[x9]
	ldr         x8,[sp,#0x10]
	add         x8,x8,#1
	str         x8,[sp,#0x10]

; 1278 :     WRITE_4(0); // reserved

	ldr         x9,[sp,#0x10]
	mov         w8,#0
	strb        w8,[x9]
	ldr         x8,[sp,#0x10]
	add         x8,x8,#1
	str         x8,[sp,#0x10]
	ldr         x9,[sp,#0x10]
	mov         w8,#0
	strb        w8,[x9]
	ldr         x8,[sp,#0x10]
	add         x8,x8,#1
	str         x8,[sp,#0x10]
	ldr         x9,[sp,#0x10]
	mov         w8,#0
	strb        w8,[x9]
	ldr         x8,[sp,#0x10]
	add         x8,x8,#1
	str         x8,[sp,#0x10]
	ldr         x9,[sp,#0x10]
	mov         w8,#0
	strb        w8,[x9]
	ldr         x8,[sp,#0x10]
	add         x8,x8,#1
	str         x8,[sp,#0x10]

; 1279 : 
; 1280 :     // matrix[9]
; 1281 :     WRITE_4(0x00010000); WRITE_4(0); WRITE_4(0);

	ldr         x9,[sp,#0x10]
	mov         w8,#0
	strb        w8,[x9]
	ldr         x8,[sp,#0x10]
	add         x8,x8,#1
	str         x8,[sp,#0x10]
	ldr         x9,[sp,#0x10]
	mov         w8,#1
	strb        w8,[x9]
	ldr         x8,[sp,#0x10]
	add         x8,x8,#1
	str         x8,[sp,#0x10]
	ldr         x9,[sp,#0x10]
	mov         w8,#0
	strb        w8,[x9]
	ldr         x8,[sp,#0x10]
	add         x8,x8,#1
	str         x8,[sp,#0x10]
	ldr         x9,[sp,#0x10]
	mov         w8,#0
	strb        w8,[x9]
	ldr         x8,[sp,#0x10]
	add         x8,x8,#1
	str         x8,[sp,#0x10]
	ldr         x9,[sp,#0x10]
	mov         w8,#0
	strb        w8,[x9]
	ldr         x8,[sp,#0x10]
	add         x8,x8,#1
	str         x8,[sp,#0x10]
	ldr         x9,[sp,#0x10]
	mov         w8,#0
	strb        w8,[x9]
	ldr         x8,[sp,#0x10]
	add         x8,x8,#1
	str         x8,[sp,#0x10]
	ldr         x9,[sp,#0x10]
	mov         w8,#0
	strb        w8,[x9]
	ldr         x8,[sp,#0x10]
	add         x8,x8,#1
	str         x8,[sp,#0x10]
	ldr         x9,[sp,#0x10]
	mov         w8,#0
	strb        w8,[x9]
	ldr         x8,[sp,#0x10]
	add         x8,x8,#1
	str         x8,[sp,#0x10]
	ldr         x9,[sp,#0x10]
	mov         w8,#0
	strb        w8,[x9]
	ldr         x8,[sp,#0x10]
	add         x8,x8,#1
	str         x8,[sp,#0x10]
	ldr         x9,[sp,#0x10]
	mov         w8,#0
	strb        w8,[x9]
	ldr         x8,[sp,#0x10]
	add         x8,x8,#1
	str         x8,[sp,#0x10]
	ldr         x9,[sp,#0x10]
	mov         w8,#0
	strb        w8,[x9]
	ldr         x8,[sp,#0x10]
	add         x8,x8,#1
	str         x8,[sp,#0x10]
	ldr         x9,[sp,#0x10]
	mov         w8,#0
	strb        w8,[x9]
	ldr         x8,[sp,#0x10]
	add         x8,x8,#1
	str         x8,[sp,#0x10]

; 1282 :     WRITE_4(0); WRITE_4(0x00010000); WRITE_4(0);

	ldr         x9,[sp,#0x10]
	mov         w8,#0
	strb        w8,[x9]
	ldr         x8,[sp,#0x10]
	add         x8,x8,#1
	str         x8,[sp,#0x10]
	ldr         x9,[sp,#0x10]
	mov         w8,#0
	strb        w8,[x9]
	ldr         x8,[sp,#0x10]
	add         x8,x8,#1
	str         x8,[sp,#0x10]
	ldr         x9,[sp,#0x10]
	mov         w8,#0
	strb        w8,[x9]
	ldr         x8,[sp,#0x10]
	add         x8,x8,#1
	str         x8,[sp,#0x10]
	ldr         x9,[sp,#0x10]
	mov         w8,#0
	strb        w8,[x9]
	ldr         x8,[sp,#0x10]
	add         x8,x8,#1
	str         x8,[sp,#0x10]
	ldr         x9,[sp,#0x10]
	mov         w8,#0
	strb        w8,[x9]
	ldr         x8,[sp,#0x10]
	add         x8,x8,#1
	str         x8,[sp,#0x10]
	ldr         x9,[sp,#0x10]
	mov         w8,#1
	strb        w8,[x9]
	ldr         x8,[sp,#0x10]
	add         x8,x8,#1
	str         x8,[sp,#0x10]
	ldr         x9,[sp,#0x10]
	mov         w8,#0
	strb        w8,[x9]
	ldr         x8,[sp,#0x10]
	add         x8,x8,#1
	str         x8,[sp,#0x10]
	ldr         x9,[sp,#0x10]
	mov         w8,#0
	strb        w8,[x9]
	ldr         x8,[sp,#0x10]
	add         x8,x8,#1
	str         x8,[sp,#0x10]
	ldr         x9,[sp,#0x10]
	mov         w8,#0
	strb        w8,[x9]
	ldr         x8,[sp,#0x10]
	add         x8,x8,#1
	str         x8,[sp,#0x10]
	ldr         x9,[sp,#0x10]
	mov         w8,#0
	strb        w8,[x9]
	ldr         x8,[sp,#0x10]
	add         x8,x8,#1
	str         x8,[sp,#0x10]
	ldr         x9,[sp,#0x10]
	mov         w8,#0
	strb        w8,[x9]
	ldr         x8,[sp,#0x10]
	add         x8,x8,#1
	str         x8,[sp,#0x10]
	ldr         x9,[sp,#0x10]
	mov         w8,#0
	strb        w8,[x9]
	ldr         x8,[sp,#0x10]
	add         x8,x8,#1
	str         x8,[sp,#0x10]

; 1283 :     WRITE_4(0); WRITE_4(0); WRITE_4(0x40000000);

	ldr         x9,[sp,#0x10]
	mov         w8,#0
	strb        w8,[x9]
	ldr         x8,[sp,#0x10]
	add         x8,x8,#1
	str         x8,[sp,#0x10]
	ldr         x9,[sp,#0x10]
	mov         w8,#0
	strb        w8,[x9]
	ldr         x8,[sp,#0x10]
	add         x8,x8,#1
	str         x8,[sp,#0x10]
	ldr         x9,[sp,#0x10]
	mov         w8,#0
	strb        w8,[x9]
	ldr         x8,[sp,#0x10]
	add         x8,x8,#1
	str         x8,[sp,#0x10]
	ldr         x9,[sp,#0x10]
	mov         w8,#0
	strb        w8,[x9]
	ldr         x8,[sp,#0x10]
	add         x8,x8,#1
	str         x8,[sp,#0x10]
	ldr         x9,[sp,#0x10]
	mov         w8,#0
	strb        w8,[x9]
	ldr         x8,[sp,#0x10]
	add         x8,x8,#1
	str         x8,[sp,#0x10]
	ldr         x9,[sp,#0x10]
	mov         w8,#0
	strb        w8,[x9]
	ldr         x8,[sp,#0x10]
	add         x8,x8,#1
	str         x8,[sp,#0x10]
	ldr         x9,[sp,#0x10]
	mov         w8,#0
	strb        w8,[x9]
	ldr         x8,[sp,#0x10]
	add         x8,x8,#1
	str         x8,[sp,#0x10]
	ldr         x9,[sp,#0x10]
	mov         w8,#0
	strb        w8,[x9]
	ldr         x8,[sp,#0x10]
	add         x8,x8,#1
	str         x8,[sp,#0x10]
	ldr         x9,[sp,#0x10]
	mov         w8,#0x40
	strb        w8,[x9]
	ldr         x8,[sp,#0x10]
	add         x8,x8,#1
	str         x8,[sp,#0x10]
	ldr         x9,[sp,#0x10]
	mov         w8,#0
	strb        w8,[x9]
	ldr         x8,[sp,#0x10]
	add         x8,x8,#1
	str         x8,[sp,#0x10]
	ldr         x9,[sp,#0x10]
	mov         w8,#0
	strb        w8,[x9]
	ldr         x8,[sp,#0x10]
	add         x8,x8,#1
	str         x8,[sp,#0x10]
	ldr         x9,[sp,#0x10]
	mov         w8,#0
	strb        w8,[x9]
	ldr         x8,[sp,#0x10]
	add         x8,x8,#1
	str         x8,[sp,#0x10]

; 1284 : 
; 1285 :     // pre_defined[6]
; 1286 :     WRITE_4(0); WRITE_4(0); WRITE_4(0);

	ldr         x9,[sp,#0x10]
	mov         w8,#0
	strb        w8,[x9]
	ldr         x8,[sp,#0x10]
	add         x8,x8,#1
	str         x8,[sp,#0x10]
	ldr         x9,[sp,#0x10]
	mov         w8,#0
	strb        w8,[x9]
	ldr         x8,[sp,#0x10]
	add         x8,x8,#1
	str         x8,[sp,#0x10]
	ldr         x9,[sp,#0x10]
	mov         w8,#0
	strb        w8,[x9]
	ldr         x8,[sp,#0x10]
	add         x8,x8,#1
	str         x8,[sp,#0x10]
	ldr         x9,[sp,#0x10]
	mov         w8,#0
	strb        w8,[x9]
	ldr         x8,[sp,#0x10]
	add         x8,x8,#1
	str         x8,[sp,#0x10]
	ldr         x9,[sp,#0x10]
	mov         w8,#0
	strb        w8,[x9]
	ldr         x8,[sp,#0x10]
	add         x8,x8,#1
	str         x8,[sp,#0x10]
	ldr         x9,[sp,#0x10]
	mov         w8,#0
	strb        w8,[x9]
	ldr         x8,[sp,#0x10]
	add         x8,x8,#1
	str         x8,[sp,#0x10]
	ldr         x9,[sp,#0x10]
	mov         w8,#0
	strb        w8,[x9]
	ldr         x8,[sp,#0x10]
	add         x8,x8,#1
	str         x8,[sp,#0x10]
	ldr         x9,[sp,#0x10]
	mov         w8,#0
	strb        w8,[x9]
	ldr         x8,[sp,#0x10]
	add         x8,x8,#1
	str         x8,[sp,#0x10]
	ldr         x9,[sp,#0x10]
	mov         w8,#0
	strb        w8,[x9]
	ldr         x8,[sp,#0x10]
	add         x8,x8,#1
	str         x8,[sp,#0x10]
	ldr         x9,[sp,#0x10]
	mov         w8,#0
	strb        w8,[x9]
	ldr         x8,[sp,#0x10]
	add         x8,x8,#1
	str         x8,[sp,#0x10]
	ldr         x9,[sp,#0x10]
	mov         w8,#0
	strb        w8,[x9]
	ldr         x8,[sp,#0x10]
	add         x8,x8,#1
	str         x8,[sp,#0x10]
	ldr         x9,[sp,#0x10]
	mov         w8,#0
	strb        w8,[x9]
	ldr         x8,[sp,#0x10]
	add         x8,x8,#1
	str         x8,[sp,#0x10]

; 1287 :     WRITE_4(0); WRITE_4(0); WRITE_4(0);

	ldr         x9,[sp,#0x10]
	mov         w8,#0
	strb        w8,[x9]
	ldr         x8,[sp,#0x10]
	add         x8,x8,#1
	str         x8,[sp,#0x10]
	ldr         x9,[sp,#0x10]
	mov         w8,#0
	strb        w8,[x9]
	ldr         x8,[sp,#0x10]
	add         x8,x8,#1
	str         x8,[sp,#0x10]
	ldr         x9,[sp,#0x10]
	mov         w8,#0
	strb        w8,[x9]
	ldr         x8,[sp,#0x10]
	add         x8,x8,#1
	str         x8,[sp,#0x10]
	ldr         x9,[sp,#0x10]
	mov         w8,#0
	strb        w8,[x9]
	ldr         x8,[sp,#0x10]
	add         x8,x8,#1
	str         x8,[sp,#0x10]
	ldr         x9,[sp,#0x10]
	mov         w8,#0
	strb        w8,[x9]
	ldr         x8,[sp,#0x10]
	add         x8,x8,#1
	str         x8,[sp,#0x10]
	ldr         x9,[sp,#0x10]
	mov         w8,#0
	strb        w8,[x9]
	ldr         x8,[sp,#0x10]
	add         x8,x8,#1
	str         x8,[sp,#0x10]
	ldr         x9,[sp,#0x10]
	mov         w8,#0
	strb        w8,[x9]
	ldr         x8,[sp,#0x10]
	add         x8,x8,#1
	str         x8,[sp,#0x10]
	ldr         x9,[sp,#0x10]
	mov         w8,#0
	strb        w8,[x9]
	ldr         x8,[sp,#0x10]
	add         x8,x8,#1
	str         x8,[sp,#0x10]
	ldr         x9,[sp,#0x10]
	mov         w8,#0
	strb        w8,[x9]
	ldr         x8,[sp,#0x10]
	add         x8,x8,#1
	str         x8,[sp,#0x10]
	ldr         x9,[sp,#0x10]
	mov         w8,#0
	strb        w8,[x9]
	ldr         x8,[sp,#0x10]
	add         x8,x8,#1
	str         x8,[sp,#0x10]
	ldr         x9,[sp,#0x10]
	mov         w8,#0
	strb        w8,[x9]
	ldr         x8,[sp,#0x10]
	add         x8,x8,#1
	str         x8,[sp,#0x10]
	ldr         x9,[sp,#0x10]
	mov         w8,#0
	strb        w8,[x9]
	ldr         x8,[sp,#0x10]
	add         x8,x8,#1
	str         x8,[sp,#0x10]

; 1288 : 
; 1289 :     //next_track_ID is a non-zero integer that indicates a value to use for the track ID of the next track to be
; 1290 :     //added to this presentation. Zero is not a valid track ID value. The value of next_track_ID shall be
; 1291 :     //larger than the largest track-ID in use.
; 1292 :     WRITE_4(ntracks + 1);

	ldr         w8,[sp,#0x58]
	add         w8,w8,#1
	lsr         w8,w8,#0x18
	uxtb        w9,w8
	ldr         x8,[sp,#0x10]
	strb        w9,[x8]
	ldr         x8,[sp,#0x10]
	add         x8,x8,#1
	str         x8,[sp,#0x10]
	ldr         w8,[sp,#0x58]
	add         w8,w8,#1
	lsr         w8,w8,#0x10
	uxtb        w9,w8
	ldr         x8,[sp,#0x10]
	strb        w9,[x8]
	ldr         x8,[sp,#0x10]
	add         x8,x8,#1
	str         x8,[sp,#0x10]
	ldr         w8,[sp,#0x58]
	add         w8,w8,#1
	lsr         w8,w8,#8
	uxtb        w9,w8
	ldr         x8,[sp,#0x10]
	strb        w9,[x8]
	ldr         x8,[sp,#0x10]
	add         x8,x8,#1
	str         x8,[sp,#0x10]
	ldr         w8,[sp,#0x58]
	add         w8,w8,#1
	uxtb        w9,w8
	ldr         x8,[sp,#0x10]
	strb        w9,[x8]
	ldr         x8,[sp,#0x10]
	add         x8,x8,#1
	str         x8,[sp,#0x10]

; 1293 :     END_ATOM;

	ldr         x8,[sp,#0x18]
	sub         x8,x8,#8
	str         x8,[sp,#0x18]
	ldr         x9,[sp,#0x10]
	ldr         x8,[sp,#0x18]
	ldr         x8,[x8]
	sub         x8,x9,x8
	asr         x8,x8,#0x18
	uxtb        w9,w8
	ldr         x8,[sp,#0x18]
	ldr         x8,[x8]
	strb        w9,[x8]
	ldr         x9,[sp,#0x10]
	ldr         x8,[sp,#0x18]
	ldr         x8,[x8]
	sub         x8,x9,x8
	asr         x8,x8,#0x10
	uxtb        w9,w8
	ldr         x8,[sp,#0x18]
	ldr         x8,[x8]
	add         x8,x8,#1
	strb        w9,[x8]
	ldr         x9,[sp,#0x10]
	ldr         x8,[sp,#0x18]
	ldr         x8,[x8]
	sub         x8,x9,x8
	asr         x8,x8,#8
	uxtb        w9,w8
	ldr         x8,[sp,#0x18]
	ldr         x8,[x8]
	add         x8,x8,#2
	strb        w9,[x8]
	ldr         x9,[sp,#0x10]
	ldr         x8,[sp,#0x18]
	ldr         x8,[x8]
	sub         x8,x9,x8
	uxtb        w9,w8
	ldr         x8,[sp,#0x18]
	ldr         x8,[x8]
	add         x8,x8,#3
	strb        w9,[x8]

; 1294 : 
; 1295 :     for (ntr = 0; ntr < ntracks; ntr++)

	mov         w8,#0
	str         w8,[sp,#0x34]
	b           |$LN7@mp4e_flush|
|$LN5@mp4e_flush|
	ldr         w8,[sp,#0x34]
	add         w8,w8,#1
	str         w8,[sp,#0x34]
|$LN7@mp4e_flush|
	ldr         w9,[sp,#0x58]
	ldr         w8,[sp,#0x34]
	cmp         w8,w9
	bhs         |$LN6@mp4e_flush|

; 1296 :     {
; 1297 :         track_t* tr = ((track_t*)mux->tracks.data) + ntr;

	ldr         x10,[sp,#0x48]
	ldr         w8,[sp,#0x34]
	uxtw        x9,w8
	mov         x8,#0x70
	mul         x9,x9,x8
	ldr         x8,[x10]
	add         x8,x8,x9
	str         x8,[sp,#0x28]

; 1298 :         unsigned duration = get_duration(tr);

	ldr         x0,[sp,#0x28]
	bl          |?get_duration@@YAIPEBUtrack_t@@@Z|
	mov         w0,w0
	str         w0,[sp,#0x50]

; 1299 :         int samples_count = tr->smpl.bytes / sizeof(sample_t);

	ldr         x8,[sp,#0x28]
	add         x8,x8,#0x20
	add         x8,x8,#8
	ldr         w8,[x8]
	sxtw        x9,w8
	mov         x8,#0x18
	udiv        x8,x9,x8
	mov         w8,w8
	str         w8,[sp,#0x30]

; 1300 :         const sample_t* sample = (const sample_t*)tr->smpl.data;

	ldr         x8,[sp,#0x28]
	add         x8,x8,#0x20
	ldr         x8,[x8]
	str         x8,[sp,#0x40]

; 1301 :         unsigned handler_type;
; 1302 :         const char* handler_ascii = NULL;

	mov         x8,#0
	str         x8,[sp,#0xC0]

; 1303 : 
; 1304 :         if (mux->enable_fragmentation)

	ldr         x8,[sp,#0x48]
	add         x8,x8,#0x34
	ldr         w8,[x8]
	cmp         w8,#0
	beq         |$LN75@mp4e_flush|

; 1305 :             samples_count = 0;

	mov         w8,#0
	str         w8,[sp,#0x30]
	b           |$LN76@mp4e_flush|
|$LN75@mp4e_flush|

; 1306 :         else if (samples_count <= 0)

	ldr         w8,[sp,#0x30]
	cmp         w8,#0
	bgt         |$LN77@mp4e_flush|

; 1307 :             continue;   // skip empty track

	b           |$LN5@mp4e_flush|
|$LN77@mp4e_flush|
|$LN76@mp4e_flush|

; 1308 : 
; 1309 :         switch (tr->info.track_media_kind)

	ldr         x8,[sp,#0x28]
	add         x8,x8,#8
	ldr         w8,[x8]
	str         w8,[sp,#0x94]
	ldr         w8,[sp,#0x94]
	cmp         w8,#0
	beq         |$LN78@mp4e_flush|
	ldr         w8,[sp,#0x94]
	cmp         w8,#1
	beq         |$LN79@mp4e_flush|
	ldr         w8,[sp,#0x94]
	cmp         w8,#2
	beq         |$LN80@mp4e_flush|
	b           |$LN81@mp4e_flush|
|$LN78@mp4e_flush|

; 1310 :         {
; 1311 :         case e_audio:
; 1312 :             handler_type = MP4E_HANDLER_TYPE_SOUN;

	ldr         w8,|$LN128@mp4e_flush|
	str         w8,[sp,#0x6C]

; 1313 :             handler_ascii = "SoundHandler";

	adrp        x8,|$SG8543|
	add         x8,x8,PageOffset(|$SG8543|)
	str         x8,[sp,#0xC0]

; 1314 :             break;

	b           |$LN8@mp4e_flush|
|$LN79@mp4e_flush|

; 1315 :         case e_video:
; 1316 :             handler_type = MP4E_HANDLER_TYPE_VIDE;

	ldr         w8,|$LN129@mp4e_flush|
	str         w8,[sp,#0x6C]

; 1317 :             handler_ascii = "VideoHandler";

	adrp        x8,|$SG8545|
	add         x8,x8,PageOffset(|$SG8545|)
	str         x8,[sp,#0xC0]

; 1318 :             break;

	b           |$LN8@mp4e_flush|
|$LN80@mp4e_flush|

; 1319 :         case e_private:
; 1320 :             handler_type = MP4E_HANDLER_TYPE_GESM;

	ldr         w8,|$LN130@mp4e_flush|
	str         w8,[sp,#0x6C]

; 1321 :             break;

	b           |$LN8@mp4e_flush|
|$LN81@mp4e_flush|

; 1322 :         default:
; 1323 :             return MP4E_STATUS_BAD_ARGUMENTS;

	mov         w0,#-1
	b           |$LN1@mp4e_flush|
|$LN8@mp4e_flush|

; 1324 :         }
; 1325 : 
; 1326 :         ATOM(BOX_trak);

	ldr         x9,[sp,#0x18]
	ldr         x8,[sp,#0x10]
	str         x8,[x9]
	ldr         x8,[sp,#0x18]
	add         x8,x8,#8
	str         x8,[sp,#0x18]
	ldr         x8,[sp,#0x10]
	add         x8,x8,#4
	str         x8,[sp,#0x10]
	ldr         x9,[sp,#0x10]
	mov         w8,#0x74
	strb        w8,[x9]
	ldr         x8,[sp,#0x10]
	add         x8,x8,#1
	str         x8,[sp,#0x10]
	ldr         x9,[sp,#0x10]
	mov         w8,#0x72
	strb        w8,[x9]
	ldr         x8,[sp,#0x10]
	add         x8,x8,#1
	str         x8,[sp,#0x10]
	ldr         x9,[sp,#0x10]
	mov         w8,#0x61
	strb        w8,[x9]
	ldr         x8,[sp,#0x10]
	add         x8,x8,#1
	str         x8,[sp,#0x10]
	ldr         x9,[sp,#0x10]
	mov         w8,#0x6B
	strb        w8,[x9]
	ldr         x8,[sp,#0x10]
	add         x8,x8,#1
	str         x8,[sp,#0x10]

; 1327 :         ATOM_FULL(BOX_tkhd, 7); // flag: 1=trak enabled; 2=track in movie; 4=track in preview

	ldr         x9,[sp,#0x18]
	ldr         x8,[sp,#0x10]
	str         x8,[x9]
	ldr         x8,[sp,#0x18]
	add         x8,x8,#8
	str         x8,[sp,#0x18]
	ldr         x8,[sp,#0x10]
	add         x8,x8,#4
	str         x8,[sp,#0x10]
	ldr         x9,[sp,#0x10]
	mov         w8,#0x74
	strb        w8,[x9]
	ldr         x8,[sp,#0x10]
	add         x8,x8,#1
	str         x8,[sp,#0x10]
	ldr         x9,[sp,#0x10]
	mov         w8,#0x6B
	strb        w8,[x9]
	ldr         x8,[sp,#0x10]
	add         x8,x8,#1
	str         x8,[sp,#0x10]
	ldr         x9,[sp,#0x10]
	mov         w8,#0x68
	strb        w8,[x9]
	ldr         x8,[sp,#0x10]
	add         x8,x8,#1
	str         x8,[sp,#0x10]
	ldr         x9,[sp,#0x10]
	mov         w8,#0x64
	strb        w8,[x9]
	ldr         x8,[sp,#0x10]
	add         x8,x8,#1
	str         x8,[sp,#0x10]
	ldr         x9,[sp,#0x10]
	mov         w8,#0
	strb        w8,[x9]
	ldr         x8,[sp,#0x10]
	add         x8,x8,#1
	str         x8,[sp,#0x10]
	ldr         x9,[sp,#0x10]
	mov         w8,#0
	strb        w8,[x9]
	ldr         x8,[sp,#0x10]
	add         x8,x8,#1
	str         x8,[sp,#0x10]
	ldr         x9,[sp,#0x10]
	mov         w8,#0
	strb        w8,[x9]
	ldr         x8,[sp,#0x10]
	add         x8,x8,#1
	str         x8,[sp,#0x10]
	ldr         x9,[sp,#0x10]
	mov         w8,#7
	strb        w8,[x9]
	ldr         x8,[sp,#0x10]
	add         x8,x8,#1
	str         x8,[sp,#0x10]

; 1328 :         WRITE_4(0);             // creation_time

	ldr         x9,[sp,#0x10]
	mov         w8,#0
	strb        w8,[x9]
	ldr         x8,[sp,#0x10]
	add         x8,x8,#1
	str         x8,[sp,#0x10]
	ldr         x9,[sp,#0x10]
	mov         w8,#0
	strb        w8,[x9]
	ldr         x8,[sp,#0x10]
	add         x8,x8,#1
	str         x8,[sp,#0x10]
	ldr         x9,[sp,#0x10]
	mov         w8,#0
	strb        w8,[x9]
	ldr         x8,[sp,#0x10]
	add         x8,x8,#1
	str         x8,[sp,#0x10]
	ldr         x9,[sp,#0x10]
	mov         w8,#0
	strb        w8,[x9]
	ldr         x8,[sp,#0x10]
	add         x8,x8,#1
	str         x8,[sp,#0x10]

; 1329 :         WRITE_4(0);             // modification_time

	ldr         x9,[sp,#0x10]
	mov         w8,#0
	strb        w8,[x9]
	ldr         x8,[sp,#0x10]
	add         x8,x8,#1
	str         x8,[sp,#0x10]
	ldr         x9,[sp,#0x10]
	mov         w8,#0
	strb        w8,[x9]
	ldr         x8,[sp,#0x10]
	add         x8,x8,#1
	str         x8,[sp,#0x10]
	ldr         x9,[sp,#0x10]
	mov         w8,#0
	strb        w8,[x9]
	ldr         x8,[sp,#0x10]
	add         x8,x8,#1
	str         x8,[sp,#0x10]
	ldr         x9,[sp,#0x10]
	mov         w8,#0
	strb        w8,[x9]
	ldr         x8,[sp,#0x10]
	add         x8,x8,#1
	str         x8,[sp,#0x10]

; 1330 :         WRITE_4(ntr + 1);       // track_ID

	ldr         w8,[sp,#0x34]
	add         w8,w8,#1
	lsr         w8,w8,#0x18
	uxtb        w9,w8
	ldr         x8,[sp,#0x10]
	strb        w9,[x8]
	ldr         x8,[sp,#0x10]
	add         x8,x8,#1
	str         x8,[sp,#0x10]
	ldr         w8,[sp,#0x34]
	add         w8,w8,#1
	lsr         w8,w8,#0x10
	uxtb        w9,w8
	ldr         x8,[sp,#0x10]
	strb        w9,[x8]
	ldr         x8,[sp,#0x10]
	add         x8,x8,#1
	str         x8,[sp,#0x10]
	ldr         w8,[sp,#0x34]
	add         w8,w8,#1
	lsr         w8,w8,#8
	uxtb        w9,w8
	ldr         x8,[sp,#0x10]
	strb        w9,[x8]
	ldr         x8,[sp,#0x10]
	add         x8,x8,#1
	str         x8,[sp,#0x10]
	ldr         w8,[sp,#0x34]
	add         w8,w8,#1
	uxtb        w9,w8
	ldr         x8,[sp,#0x10]
	strb        w9,[x8]
	ldr         x8,[sp,#0x10]
	add         x8,x8,#1
	str         x8,[sp,#0x10]

; 1331 :         WRITE_4(0);             // reserved

	ldr         x9,[sp,#0x10]
	mov         w8,#0
	strb        w8,[x9]
	ldr         x8,[sp,#0x10]
	add         x8,x8,#1
	str         x8,[sp,#0x10]
	ldr         x9,[sp,#0x10]
	mov         w8,#0
	strb        w8,[x9]
	ldr         x8,[sp,#0x10]
	add         x8,x8,#1
	str         x8,[sp,#0x10]
	ldr         x9,[sp,#0x10]
	mov         w8,#0
	strb        w8,[x9]
	ldr         x8,[sp,#0x10]
	add         x8,x8,#1
	str         x8,[sp,#0x10]
	ldr         x9,[sp,#0x10]
	mov         w8,#0
	strb        w8,[x9]
	ldr         x8,[sp,#0x10]
	add         x8,x8,#1
	str         x8,[sp,#0x10]

; 1332 :         WRITE_4((unsigned)(duration * 1LL * MOOV_TIMESCALE / tr->info.time_scale));

	ldr         w8,[sp,#0x50]
	uxtw        x9,w8
	mov         x8,#0x3E8
	mul         x9,x9,x8
	ldr         x8,[sp,#0x28]
	add         x8,x8,#0xC
	ldr         w8,[x8]
	uxtw        x8,w8
	cbnz        x8,|$LN124@mp4e_flush|
	brk         #0xF004
|$LN124@mp4e_flush|
	sdiv        x8,x9,x8
	mov         w8,w8
	lsr         w8,w8,#0x18
	uxtb        w9,w8
	ldr         x8,[sp,#0x10]
	strb        w9,[x8]
	ldr         x8,[sp,#0x10]
	add         x8,x8,#1
	str         x8,[sp,#0x10]
	ldr         w8,[sp,#0x50]
	uxtw        x9,w8
	mov         x8,#0x3E8
	mul         x9,x9,x8
	ldr         x8,[sp,#0x28]
	add         x8,x8,#0xC
	ldr         w8,[x8]
	uxtw        x8,w8
	cbnz        x8,|$LN125@mp4e_flush|
	brk         #0xF004
|$LN125@mp4e_flush|
	sdiv        x8,x9,x8
	mov         w8,w8
	lsr         w8,w8,#0x10
	uxtb        w9,w8
	ldr         x8,[sp,#0x10]
	strb        w9,[x8]
	ldr         x8,[sp,#0x10]
	add         x8,x8,#1
	str         x8,[sp,#0x10]
	ldr         w8,[sp,#0x50]
	uxtw        x9,w8
	mov         x8,#0x3E8
	mul         x9,x9,x8
	ldr         x8,[sp,#0x28]
	add         x8,x8,#0xC
	ldr         w8,[x8]
	uxtw        x8,w8
	cbnz        x8,|$LN126@mp4e_flush|
	brk         #0xF004
|$LN126@mp4e_flush|
	sdiv        x8,x9,x8
	mov         w8,w8
	lsr         w8,w8,#8
	uxtb        w9,w8
	ldr         x8,[sp,#0x10]
	strb        w9,[x8]
	ldr         x8,[sp,#0x10]
	add         x8,x8,#1
	str         x8,[sp,#0x10]
	ldr         w8,[sp,#0x50]
	uxtw        x9,w8
	mov         x8,#0x3E8
	mul         x9,x9,x8
	ldr         x8,[sp,#0x28]
	add         x8,x8,#0xC
	ldr         w8,[x8]
	uxtw        x8,w8
	cbnz        x8,|$LN127@mp4e_flush|
	brk         #0xF004
|$LN127@mp4e_flush|
	sdiv        x8,x9,x8
	uxtb        w9,w8
	ldr         x8,[sp,#0x10]
	strb        w9,[x8]
	ldr         x8,[sp,#0x10]
	add         x8,x8,#1
	str         x8,[sp,#0x10]

; 1333 :         WRITE_4(0); WRITE_4(0); // reserved[2]

	ldr         x9,[sp,#0x10]
	mov         w8,#0
	strb        w8,[x9]
	ldr         x8,[sp,#0x10]
	add         x8,x8,#1
	str         x8,[sp,#0x10]
	ldr         x9,[sp,#0x10]
	mov         w8,#0
	strb        w8,[x9]
	ldr         x8,[sp,#0x10]
	add         x8,x8,#1
	str         x8,[sp,#0x10]
	ldr         x9,[sp,#0x10]
	mov         w8,#0
	strb        w8,[x9]
	ldr         x8,[sp,#0x10]
	add         x8,x8,#1
	str         x8,[sp,#0x10]
	ldr         x9,[sp,#0x10]
	mov         w8,#0
	strb        w8,[x9]
	ldr         x8,[sp,#0x10]
	add         x8,x8,#1
	str         x8,[sp,#0x10]
	ldr         x9,[sp,#0x10]
	mov         w8,#0
	strb        w8,[x9]
	ldr         x8,[sp,#0x10]
	add         x8,x8,#1
	str         x8,[sp,#0x10]
	ldr         x9,[sp,#0x10]
	mov         w8,#0
	strb        w8,[x9]
	ldr         x8,[sp,#0x10]
	add         x8,x8,#1
	str         x8,[sp,#0x10]
	ldr         x9,[sp,#0x10]
	mov         w8,#0
	strb        w8,[x9]
	ldr         x8,[sp,#0x10]
	add         x8,x8,#1
	str         x8,[sp,#0x10]
	ldr         x9,[sp,#0x10]
	mov         w8,#0
	strb        w8,[x9]
	ldr         x8,[sp,#0x10]
	add         x8,x8,#1
	str         x8,[sp,#0x10]

; 1334 :         WRITE_2(0);             // layer

	ldr         x9,[sp,#0x10]
	mov         w8,#0
	strb        w8,[x9]
	ldr         x8,[sp,#0x10]
	add         x8,x8,#1
	str         x8,[sp,#0x10]
	ldr         x9,[sp,#0x10]
	mov         w8,#0
	strb        w8,[x9]
	ldr         x8,[sp,#0x10]
	add         x8,x8,#1
	str         x8,[sp,#0x10]

; 1335 :         WRITE_2(0);             // alternate_group

	ldr         x9,[sp,#0x10]
	mov         w8,#0
	strb        w8,[x9]
	ldr         x8,[sp,#0x10]
	add         x8,x8,#1
	str         x8,[sp,#0x10]
	ldr         x9,[sp,#0x10]
	mov         w8,#0
	strb        w8,[x9]
	ldr         x8,[sp,#0x10]
	add         x8,x8,#1
	str         x8,[sp,#0x10]

; 1336 :         WRITE_2(0x0100);        // volume {if track_is_audio 0x0100 else 0};

	ldr         x9,[sp,#0x10]
	mov         w8,#1
	strb        w8,[x9]
	ldr         x8,[sp,#0x10]
	add         x8,x8,#1
	str         x8,[sp,#0x10]
	ldr         x9,[sp,#0x10]
	mov         w8,#0
	strb        w8,[x9]
	ldr         x8,[sp,#0x10]
	add         x8,x8,#1
	str         x8,[sp,#0x10]

; 1337 :         WRITE_2(0);             // reserved

	ldr         x9,[sp,#0x10]
	mov         w8,#0
	strb        w8,[x9]
	ldr         x8,[sp,#0x10]
	add         x8,x8,#1
	str         x8,[sp,#0x10]
	ldr         x9,[sp,#0x10]
	mov         w8,#0
	strb        w8,[x9]
	ldr         x8,[sp,#0x10]
	add         x8,x8,#1
	str         x8,[sp,#0x10]

; 1338 : 
; 1339 :         // matrix[9]
; 1340 :         WRITE_4(0x00010000); WRITE_4(0); WRITE_4(0);

	ldr         x9,[sp,#0x10]
	mov         w8,#0
	strb        w8,[x9]
	ldr         x8,[sp,#0x10]
	add         x8,x8,#1
	str         x8,[sp,#0x10]
	ldr         x9,[sp,#0x10]
	mov         w8,#1
	strb        w8,[x9]
	ldr         x8,[sp,#0x10]
	add         x8,x8,#1
	str         x8,[sp,#0x10]
	ldr         x9,[sp,#0x10]
	mov         w8,#0
	strb        w8,[x9]
	ldr         x8,[sp,#0x10]
	add         x8,x8,#1
	str         x8,[sp,#0x10]
	ldr         x9,[sp,#0x10]
	mov         w8,#0
	strb        w8,[x9]
	ldr         x8,[sp,#0x10]
	add         x8,x8,#1
	str         x8,[sp,#0x10]
	ldr         x9,[sp,#0x10]
	mov         w8,#0
	strb        w8,[x9]
	ldr         x8,[sp,#0x10]
	add         x8,x8,#1
	str         x8,[sp,#0x10]
	ldr         x9,[sp,#0x10]
	mov         w8,#0
	strb        w8,[x9]
	ldr         x8,[sp,#0x10]
	add         x8,x8,#1
	str         x8,[sp,#0x10]
	ldr         x9,[sp,#0x10]
	mov         w8,#0
	strb        w8,[x9]
	ldr         x8,[sp,#0x10]
	add         x8,x8,#1
	str         x8,[sp,#0x10]
	ldr         x9,[sp,#0x10]
	mov         w8,#0
	strb        w8,[x9]
	ldr         x8,[sp,#0x10]
	add         x8,x8,#1
	str         x8,[sp,#0x10]
	ldr         x9,[sp,#0x10]
	mov         w8,#0
	strb        w8,[x9]
	ldr         x8,[sp,#0x10]
	add         x8,x8,#1
	str         x8,[sp,#0x10]
	ldr         x9,[sp,#0x10]
	mov         w8,#0
	strb        w8,[x9]
	ldr         x8,[sp,#0x10]
	add         x8,x8,#1
	str         x8,[sp,#0x10]
	ldr         x9,[sp,#0x10]
	mov         w8,#0
	strb        w8,[x9]
	ldr         x8,[sp,#0x10]
	add         x8,x8,#1
	str         x8,[sp,#0x10]
	ldr         x9,[sp,#0x10]
	mov         w8,#0
	strb        w8,[x9]
	ldr         x8,[sp,#0x10]
	add         x8,x8,#1
	str         x8,[sp,#0x10]

; 1341 :         WRITE_4(0); WRITE_4(0x00010000); WRITE_4(0);

	ldr         x9,[sp,#0x10]
	mov         w8,#0
	strb        w8,[x9]
	ldr         x8,[sp,#0x10]
	add         x8,x8,#1
	str         x8,[sp,#0x10]
	ldr         x9,[sp,#0x10]
	mov         w8,#0
	strb        w8,[x9]
	ldr         x8,[sp,#0x10]
	add         x8,x8,#1
	str         x8,[sp,#0x10]
	ldr         x9,[sp,#0x10]
	mov         w8,#0
	strb        w8,[x9]
	ldr         x8,[sp,#0x10]
	add         x8,x8,#1
	str         x8,[sp,#0x10]
	ldr         x9,[sp,#0x10]
	mov         w8,#0
	strb        w8,[x9]
	ldr         x8,[sp,#0x10]
	add         x8,x8,#1
	str         x8,[sp,#0x10]
	ldr         x9,[sp,#0x10]
	mov         w8,#0
	strb        w8,[x9]
	ldr         x8,[sp,#0x10]
	add         x8,x8,#1
	str         x8,[sp,#0x10]
	ldr         x9,[sp,#0x10]
	mov         w8,#1
	strb        w8,[x9]
	ldr         x8,[sp,#0x10]
	add         x8,x8,#1
	str         x8,[sp,#0x10]
	ldr         x9,[sp,#0x10]
	mov         w8,#0
	strb        w8,[x9]
	ldr         x8,[sp,#0x10]
	add         x8,x8,#1
	str         x8,[sp,#0x10]
	ldr         x9,[sp,#0x10]
	mov         w8,#0
	strb        w8,[x9]
	ldr         x8,[sp,#0x10]
	add         x8,x8,#1
	str         x8,[sp,#0x10]
	ldr         x9,[sp,#0x10]
	mov         w8,#0
	strb        w8,[x9]
	ldr         x8,[sp,#0x10]
	add         x8,x8,#1
	str         x8,[sp,#0x10]
	ldr         x9,[sp,#0x10]
	mov         w8,#0
	strb        w8,[x9]
	ldr         x8,[sp,#0x10]
	add         x8,x8,#1
	str         x8,[sp,#0x10]
	ldr         x9,[sp,#0x10]
	mov         w8,#0
	strb        w8,[x9]
	ldr         x8,[sp,#0x10]
	add         x8,x8,#1
	str         x8,[sp,#0x10]
	ldr         x9,[sp,#0x10]
	mov         w8,#0
	strb        w8,[x9]
	ldr         x8,[sp,#0x10]
	add         x8,x8,#1
	str         x8,[sp,#0x10]

; 1342 :         WRITE_4(0); WRITE_4(0); WRITE_4(0x40000000);

	ldr         x9,[sp,#0x10]
	mov         w8,#0
	strb        w8,[x9]
	ldr         x8,[sp,#0x10]
	add         x8,x8,#1
	str         x8,[sp,#0x10]
	ldr         x9,[sp,#0x10]
	mov         w8,#0
	strb        w8,[x9]
	ldr         x8,[sp,#0x10]
	add         x8,x8,#1
	str         x8,[sp,#0x10]
	ldr         x9,[sp,#0x10]
	mov         w8,#0
	strb        w8,[x9]
	ldr         x8,[sp,#0x10]
	add         x8,x8,#1
	str         x8,[sp,#0x10]
	ldr         x9,[sp,#0x10]
	mov         w8,#0
	strb        w8,[x9]
	ldr         x8,[sp,#0x10]
	add         x8,x8,#1
	str         x8,[sp,#0x10]
	ldr         x9,[sp,#0x10]
	mov         w8,#0
	strb        w8,[x9]
	ldr         x8,[sp,#0x10]
	add         x8,x8,#1
	str         x8,[sp,#0x10]
	ldr         x9,[sp,#0x10]
	mov         w8,#0
	strb        w8,[x9]
	ldr         x8,[sp,#0x10]
	add         x8,x8,#1
	str         x8,[sp,#0x10]
	ldr         x9,[sp,#0x10]
	mov         w8,#0
	strb        w8,[x9]
	ldr         x8,[sp,#0x10]
	add         x8,x8,#1
	str         x8,[sp,#0x10]
	ldr         x9,[sp,#0x10]
	mov         w8,#0
	strb        w8,[x9]
	ldr         x8,[sp,#0x10]
	add         x8,x8,#1
	str         x8,[sp,#0x10]
	ldr         x9,[sp,#0x10]
	mov         w8,#0x40
	strb        w8,[x9]
	ldr         x8,[sp,#0x10]
	add         x8,x8,#1
	str         x8,[sp,#0x10]
	ldr         x9,[sp,#0x10]
	mov         w8,#0
	strb        w8,[x9]
	ldr         x8,[sp,#0x10]
	add         x8,x8,#1
	str         x8,[sp,#0x10]
	ldr         x9,[sp,#0x10]
	mov         w8,#0
	strb        w8,[x9]
	ldr         x8,[sp,#0x10]
	add         x8,x8,#1
	str         x8,[sp,#0x10]
	ldr         x9,[sp,#0x10]
	mov         w8,#0
	strb        w8,[x9]
	ldr         x8,[sp,#0x10]
	add         x8,x8,#1
	str         x8,[sp,#0x10]

; 1343 : 
; 1344 :         if (tr->info.track_media_kind == e_audio || tr->info.track_media_kind == e_private)

	ldr         x8,[sp,#0x28]
	add         x8,x8,#8
	ldr         w8,[x8]
	cmp         w8,#0
	beq         |$LN84@mp4e_flush|
	ldr         x8,[sp,#0x28]
	add         x8,x8,#8
	ldr         w8,[x8]
	cmp         w8,#2
	bne         |$LN82@mp4e_flush|
|$LN84@mp4e_flush|

; 1345 :         {
; 1346 :             WRITE_4(0); // width

	ldr         x9,[sp,#0x10]
	mov         w8,#0
	strb        w8,[x9]
	ldr         x8,[sp,#0x10]
	add         x8,x8,#1
	str         x8,[sp,#0x10]
	ldr         x9,[sp,#0x10]
	mov         w8,#0
	strb        w8,[x9]
	ldr         x8,[sp,#0x10]
	add         x8,x8,#1
	str         x8,[sp,#0x10]
	ldr         x9,[sp,#0x10]
	mov         w8,#0
	strb        w8,[x9]
	ldr         x8,[sp,#0x10]
	add         x8,x8,#1
	str         x8,[sp,#0x10]
	ldr         x9,[sp,#0x10]
	mov         w8,#0
	strb        w8,[x9]
	ldr         x8,[sp,#0x10]
	add         x8,x8,#1
	str         x8,[sp,#0x10]

; 1347 :             WRITE_4(0); // height

	ldr         x9,[sp,#0x10]
	mov         w8,#0
	strb        w8,[x9]
	ldr         x8,[sp,#0x10]
	add         x8,x8,#1
	str         x8,[sp,#0x10]
	ldr         x9,[sp,#0x10]
	mov         w8,#0
	strb        w8,[x9]
	ldr         x8,[sp,#0x10]
	add         x8,x8,#1
	str         x8,[sp,#0x10]
	ldr         x9,[sp,#0x10]
	mov         w8,#0
	strb        w8,[x9]
	ldr         x8,[sp,#0x10]
	add         x8,x8,#1
	str         x8,[sp,#0x10]
	ldr         x9,[sp,#0x10]
	mov         w8,#0
	strb        w8,[x9]
	ldr         x8,[sp,#0x10]
	add         x8,x8,#1
	str         x8,[sp,#0x10]

; 1348 :         }

	b           |$LN83@mp4e_flush|
|$LN82@mp4e_flush|

; 1349 :         else
; 1350 :         {
; 1351 :             WRITE_4(tr->info.u.v.width * 0x10000);  // width

	ldr         x8,[sp,#0x28]
	add         x8,x8,#0x14
	ldr         w9,[x8]
	mov         w8,#0x10000
	mul         w8,w9,w8
	asr         w8,w8,#0x18
	uxtb        w9,w8
	ldr         x8,[sp,#0x10]
	strb        w9,[x8]
	ldr         x8,[sp,#0x10]
	add         x8,x8,#1
	str         x8,[sp,#0x10]
	ldr         x8,[sp,#0x28]
	add         x8,x8,#0x14
	ldr         w9,[x8]
	mov         w8,#0x10000
	mul         w8,w9,w8
	asr         w8,w8,#0x10
	uxtb        w9,w8
	ldr         x8,[sp,#0x10]
	strb        w9,[x8]
	ldr         x8,[sp,#0x10]
	add         x8,x8,#1
	str         x8,[sp,#0x10]
	ldr         x8,[sp,#0x28]
	add         x8,x8,#0x14
	ldr         w9,[x8]
	mov         w8,#0x10000
	mul         w8,w9,w8
	asr         w8,w8,#8
	uxtb        w9,w8
	ldr         x8,[sp,#0x10]
	strb        w9,[x8]
	ldr         x8,[sp,#0x10]
	add         x8,x8,#1
	str         x8,[sp,#0x10]
	ldr         x8,[sp,#0x28]
	add         x8,x8,#0x14
	ldr         w9,[x8]
	mov         w8,#0x10000
	mul         w8,w9,w8
	uxtb        w9,w8
	ldr         x8,[sp,#0x10]
	strb        w9,[x8]
	ldr         x8,[sp,#0x10]
	add         x8,x8,#1
	str         x8,[sp,#0x10]

; 1352 :             WRITE_4(tr->info.u.v.height * 0x10000); // height

	ldr         x8,[sp,#0x28]
	add         x8,x8,#0x14
	add         x8,x8,#4
	ldr         w9,[x8]
	mov         w8,#0x10000
	mul         w8,w9,w8
	asr         w8,w8,#0x18
	uxtb        w9,w8
	ldr         x8,[sp,#0x10]
	strb        w9,[x8]
	ldr         x8,[sp,#0x10]
	add         x8,x8,#1
	str         x8,[sp,#0x10]
	ldr         x8,[sp,#0x28]
	add         x8,x8,#0x14
	add         x8,x8,#4
	ldr         w9,[x8]
	mov         w8,#0x10000
	mul         w8,w9,w8
	asr         w8,w8,#0x10
	uxtb        w9,w8
	ldr         x8,[sp,#0x10]
	strb        w9,[x8]
	ldr         x8,[sp,#0x10]
	add         x8,x8,#1
	str         x8,[sp,#0x10]
	ldr         x8,[sp,#0x28]
	add         x8,x8,#0x14
	add         x8,x8,#4
	ldr         w9,[x8]
	mov         w8,#0x10000
	mul         w8,w9,w8
	asr         w8,w8,#8
	uxtb        w9,w8
	ldr         x8,[sp,#0x10]
	strb        w9,[x8]
	ldr         x8,[sp,#0x10]
	add         x8,x8,#1
	str         x8,[sp,#0x10]
	ldr         x8,[sp,#0x28]
	add         x8,x8,#0x14
	add         x8,x8,#4
	ldr         w9,[x8]
	mov         w8,#0x10000
	mul         w8,w9,w8
	uxtb        w9,w8
	ldr         x8,[sp,#0x10]
	strb        w9,[x8]
	ldr         x8,[sp,#0x10]
	add         x8,x8,#1
	str         x8,[sp,#0x10]
|$LN83@mp4e_flush|

; 1353 :         }
; 1354 :         END_ATOM;

	ldr         x8,[sp,#0x18]
	sub         x8,x8,#8
	str         x8,[sp,#0x18]
	ldr         x9,[sp,#0x10]
	ldr         x8,[sp,#0x18]
	ldr         x8,[x8]
	sub         x8,x9,x8
	asr         x8,x8,#0x18
	uxtb        w9,w8
	ldr         x8,[sp,#0x18]
	ldr         x8,[x8]
	strb        w9,[x8]
	ldr         x9,[sp,#0x10]
	ldr         x8,[sp,#0x18]
	ldr         x8,[x8]
	sub         x8,x9,x8
	asr         x8,x8,#0x10
	uxtb        w9,w8
	ldr         x8,[sp,#0x18]
	ldr         x8,[x8]
	add         x8,x8,#1
	strb        w9,[x8]
	ldr         x9,[sp,#0x10]
	ldr         x8,[sp,#0x18]
	ldr         x8,[x8]
	sub         x8,x9,x8
	asr         x8,x8,#8
	uxtb        w9,w8
	ldr         x8,[sp,#0x18]
	ldr         x8,[x8]
	add         x8,x8,#2
	strb        w9,[x8]
	ldr         x9,[sp,#0x10]
	ldr         x8,[sp,#0x18]
	ldr         x8,[x8]
	sub         x8,x9,x8
	uxtb        w9,w8
	ldr         x8,[sp,#0x18]
	ldr         x8,[x8]
	add         x8,x8,#3
	strb        w9,[x8]

; 1355 : 
; 1356 :         ATOM(BOX_mdia);

	ldr         x9,[sp,#0x18]
	ldr         x8,[sp,#0x10]
	str         x8,[x9]
	ldr         x8,[sp,#0x18]
	add         x8,x8,#8
	str         x8,[sp,#0x18]
	ldr         x8,[sp,#0x10]
	add         x8,x8,#4
	str         x8,[sp,#0x10]
	ldr         x9,[sp,#0x10]
	mov         w8,#0x6D
	strb        w8,[x9]
	ldr         x8,[sp,#0x10]
	add         x8,x8,#1
	str         x8,[sp,#0x10]
	ldr         x9,[sp,#0x10]
	mov         w8,#0x64
	strb        w8,[x9]
	ldr         x8,[sp,#0x10]
	add         x8,x8,#1
	str         x8,[sp,#0x10]
	ldr         x9,[sp,#0x10]
	mov         w8,#0x69
	strb        w8,[x9]
	ldr         x8,[sp,#0x10]
	add         x8,x8,#1
	str         x8,[sp,#0x10]
	ldr         x9,[sp,#0x10]
	mov         w8,#0x61
	strb        w8,[x9]
	ldr         x8,[sp,#0x10]
	add         x8,x8,#1
	str         x8,[sp,#0x10]

; 1357 :         ATOM_FULL(BOX_mdhd, 0);

	ldr         x9,[sp,#0x18]
	ldr         x8,[sp,#0x10]
	str         x8,[x9]
	ldr         x8,[sp,#0x18]
	add         x8,x8,#8
	str         x8,[sp,#0x18]
	ldr         x8,[sp,#0x10]
	add         x8,x8,#4
	str         x8,[sp,#0x10]
	ldr         x9,[sp,#0x10]
	mov         w8,#0x6D
	strb        w8,[x9]
	ldr         x8,[sp,#0x10]
	add         x8,x8,#1
	str         x8,[sp,#0x10]
	ldr         x9,[sp,#0x10]
	mov         w8,#0x64
	strb        w8,[x9]
	ldr         x8,[sp,#0x10]
	add         x8,x8,#1
	str         x8,[sp,#0x10]
	ldr         x9,[sp,#0x10]
	mov         w8,#0x68
	strb        w8,[x9]
	ldr         x8,[sp,#0x10]
	add         x8,x8,#1
	str         x8,[sp,#0x10]
	ldr         x9,[sp,#0x10]
	mov         w8,#0x64
	strb        w8,[x9]
	ldr         x8,[sp,#0x10]
	add         x8,x8,#1
	str         x8,[sp,#0x10]
	ldr         x9,[sp,#0x10]
	mov         w8,#0
	strb        w8,[x9]
	ldr         x8,[sp,#0x10]
	add         x8,x8,#1
	str         x8,[sp,#0x10]
	ldr         x9,[sp,#0x10]
	mov         w8,#0
	strb        w8,[x9]
	ldr         x8,[sp,#0x10]
	add         x8,x8,#1
	str         x8,[sp,#0x10]
	ldr         x9,[sp,#0x10]
	mov         w8,#0
	strb        w8,[x9]
	ldr         x8,[sp,#0x10]
	add         x8,x8,#1
	str         x8,[sp,#0x10]
	ldr         x9,[sp,#0x10]
	mov         w8,#0
	strb        w8,[x9]
	ldr         x8,[sp,#0x10]
	add         x8,x8,#1
	str         x8,[sp,#0x10]

; 1358 :         WRITE_4(0); // creation_time

	ldr         x9,[sp,#0x10]
	mov         w8,#0
	strb        w8,[x9]
	ldr         x8,[sp,#0x10]
	add         x8,x8,#1
	str         x8,[sp,#0x10]
	ldr         x9,[sp,#0x10]
	mov         w8,#0
	strb        w8,[x9]
	ldr         x8,[sp,#0x10]
	add         x8,x8,#1
	str         x8,[sp,#0x10]
	ldr         x9,[sp,#0x10]
	mov         w8,#0
	strb        w8,[x9]
	ldr         x8,[sp,#0x10]
	add         x8,x8,#1
	str         x8,[sp,#0x10]
	ldr         x9,[sp,#0x10]
	mov         w8,#0
	strb        w8,[x9]
	ldr         x8,[sp,#0x10]
	add         x8,x8,#1
	str         x8,[sp,#0x10]

; 1359 :         WRITE_4(0); // modification_time

	ldr         x9,[sp,#0x10]
	mov         w8,#0
	strb        w8,[x9]
	ldr         x8,[sp,#0x10]
	add         x8,x8,#1
	str         x8,[sp,#0x10]
	ldr         x9,[sp,#0x10]
	mov         w8,#0
	strb        w8,[x9]
	ldr         x8,[sp,#0x10]
	add         x8,x8,#1
	str         x8,[sp,#0x10]
	ldr         x9,[sp,#0x10]
	mov         w8,#0
	strb        w8,[x9]
	ldr         x8,[sp,#0x10]
	add         x8,x8,#1
	str         x8,[sp,#0x10]
	ldr         x9,[sp,#0x10]
	mov         w8,#0
	strb        w8,[x9]
	ldr         x8,[sp,#0x10]
	add         x8,x8,#1
	str         x8,[sp,#0x10]

; 1360 :         WRITE_4(tr->info.time_scale);

	ldr         x8,[sp,#0x28]
	add         x8,x8,#0xC
	ldr         w8,[x8]
	lsr         w8,w8,#0x18
	uxtb        w9,w8
	ldr         x8,[sp,#0x10]
	strb        w9,[x8]
	ldr         x8,[sp,#0x10]
	add         x8,x8,#1
	str         x8,[sp,#0x10]
	ldr         x8,[sp,#0x28]
	add         x8,x8,#0xC
	ldr         w8,[x8]
	lsr         w8,w8,#0x10
	uxtb        w9,w8
	ldr         x8,[sp,#0x10]
	strb        w9,[x8]
	ldr         x8,[sp,#0x10]
	add         x8,x8,#1
	str         x8,[sp,#0x10]
	ldr         x8,[sp,#0x28]
	add         x8,x8,#0xC
	ldr         w8,[x8]
	lsr         w8,w8,#8
	uxtb        w9,w8
	ldr         x8,[sp,#0x10]
	strb        w9,[x8]
	ldr         x8,[sp,#0x10]
	add         x8,x8,#1
	str         x8,[sp,#0x10]
	ldr         x8,[sp,#0x28]
	add         x8,x8,#0xC
	ldr         w8,[x8]
	uxtb        w9,w8
	ldr         x8,[sp,#0x10]
	strb        w9,[x8]
	ldr         x8,[sp,#0x10]
	add         x8,x8,#1
	str         x8,[sp,#0x10]

; 1361 :         WRITE_4(duration); // duration

	ldr         w8,[sp,#0x50]
	lsr         w8,w8,#0x18
	uxtb        w9,w8
	ldr         x8,[sp,#0x10]
	strb        w9,[x8]
	ldr         x8,[sp,#0x10]
	add         x8,x8,#1
	str         x8,[sp,#0x10]
	ldr         w8,[sp,#0x50]
	lsr         w8,w8,#0x10
	uxtb        w9,w8
	ldr         x8,[sp,#0x10]
	strb        w9,[x8]
	ldr         x8,[sp,#0x10]
	add         x8,x8,#1
	str         x8,[sp,#0x10]
	ldr         w8,[sp,#0x50]
	lsr         w8,w8,#8
	uxtb        w9,w8
	ldr         x8,[sp,#0x10]
	strb        w9,[x8]
	ldr         x8,[sp,#0x10]
	add         x8,x8,#1
	str         x8,[sp,#0x10]
	ldr         w8,[sp,#0x50]
	uxtb        w9,w8
	ldr         x8,[sp,#0x10]
	strb        w9,[x8]
	ldr         x8,[sp,#0x10]
	add         x8,x8,#1
	str         x8,[sp,#0x10]

; 1362 :         {
; 1363 :             int lang_code = ((tr->info.language[0] & 31) << 10) | ((tr->info.language[1] & 31) << 5) | (tr->info.language[2] & 31);

	ldr         x8,[sp,#0x28]
	add         x8,x8,#4
	ldrb        w8,[x8]
	mov         w8,w8
	and         w8,w8,#0x1F
	lsl         w9,w8,#0xA
	ldr         x8,[sp,#0x28]
	add         x8,x8,#5
	ldrb        w8,[x8]
	mov         w8,w8
	and         w8,w8,#0x1F
	lsl         w8,w8,#5
	orr         w9,w9,w8
	ldr         x8,[sp,#0x28]
	add         x8,x8,#6
	ldrb        w8,[x8]
	mov         w8,w8
	and         w8,w8,#0x1F
	orr         w8,w9,w8
	str         w8,[sp,#0xA8]

; 1364 :             WRITE_2(lang_code); // language

	ldr         w8,[sp,#0xA8]
	asr         w8,w8,#8
	uxtb        w9,w8
	ldr         x8,[sp,#0x10]
	strb        w9,[x8]
	ldr         x8,[sp,#0x10]
	add         x8,x8,#1
	str         x8,[sp,#0x10]
	ldr         w8,[sp,#0xA8]
	uxtb        w9,w8
	ldr         x8,[sp,#0x10]
	strb        w9,[x8]
	ldr         x8,[sp,#0x10]
	add         x8,x8,#1
	str         x8,[sp,#0x10]

; 1365 :         }
; 1366 :         WRITE_2(0); // pre_defined

	ldr         x9,[sp,#0x10]
	mov         w8,#0
	strb        w8,[x9]
	ldr         x8,[sp,#0x10]
	add         x8,x8,#1
	str         x8,[sp,#0x10]
	ldr         x9,[sp,#0x10]
	mov         w8,#0
	strb        w8,[x9]
	ldr         x8,[sp,#0x10]
	add         x8,x8,#1
	str         x8,[sp,#0x10]

; 1367 :         END_ATOM;

	ldr         x8,[sp,#0x18]
	sub         x8,x8,#8
	str         x8,[sp,#0x18]
	ldr         x9,[sp,#0x10]
	ldr         x8,[sp,#0x18]
	ldr         x8,[x8]
	sub         x8,x9,x8
	asr         x8,x8,#0x18
	uxtb        w9,w8
	ldr         x8,[sp,#0x18]
	ldr         x8,[x8]
	strb        w9,[x8]
	ldr         x9,[sp,#0x10]
	ldr         x8,[sp,#0x18]
	ldr         x8,[x8]
	sub         x8,x9,x8
	asr         x8,x8,#0x10
	uxtb        w9,w8
	ldr         x8,[sp,#0x18]
	ldr         x8,[x8]
	add         x8,x8,#1
	strb        w9,[x8]
	ldr         x9,[sp,#0x10]
	ldr         x8,[sp,#0x18]
	ldr         x8,[x8]
	sub         x8,x9,x8
	asr         x8,x8,#8
	uxtb        w9,w8
	ldr         x8,[sp,#0x18]
	ldr         x8,[x8]
	add         x8,x8,#2
	strb        w9,[x8]
	ldr         x9,[sp,#0x10]
	ldr         x8,[sp,#0x18]
	ldr         x8,[x8]
	sub         x8,x9,x8
	uxtb        w9,w8
	ldr         x8,[sp,#0x18]
	ldr         x8,[x8]
	add         x8,x8,#3
	strb        w9,[x8]

; 1368 : 
; 1369 :         ATOM_FULL(BOX_hdlr, 0);

	ldr         x9,[sp,#0x18]
	ldr         x8,[sp,#0x10]
	str         x8,[x9]
	ldr         x8,[sp,#0x18]
	add         x8,x8,#8
	str         x8,[sp,#0x18]
	ldr         x8,[sp,#0x10]
	add         x8,x8,#4
	str         x8,[sp,#0x10]
	ldr         x9,[sp,#0x10]
	mov         w8,#0x68
	strb        w8,[x9]
	ldr         x8,[sp,#0x10]
	add         x8,x8,#1
	str         x8,[sp,#0x10]
	ldr         x9,[sp,#0x10]
	mov         w8,#0x64
	strb        w8,[x9]
	ldr         x8,[sp,#0x10]
	add         x8,x8,#1
	str         x8,[sp,#0x10]
	ldr         x9,[sp,#0x10]
	mov         w8,#0x6C
	strb        w8,[x9]
	ldr         x8,[sp,#0x10]
	add         x8,x8,#1
	str         x8,[sp,#0x10]
	ldr         x9,[sp,#0x10]
	mov         w8,#0x72
	strb        w8,[x9]
	ldr         x8,[sp,#0x10]
	add         x8,x8,#1
	str         x8,[sp,#0x10]
	ldr         x9,[sp,#0x10]
	mov         w8,#0
	strb        w8,[x9]
	ldr         x8,[sp,#0x10]
	add         x8,x8,#1
	str         x8,[sp,#0x10]
	ldr         x9,[sp,#0x10]
	mov         w8,#0
	strb        w8,[x9]
	ldr         x8,[sp,#0x10]
	add         x8,x8,#1
	str         x8,[sp,#0x10]
	ldr         x9,[sp,#0x10]
	mov         w8,#0
	strb        w8,[x9]
	ldr         x8,[sp,#0x10]
	add         x8,x8,#1
	str         x8,[sp,#0x10]
	ldr         x9,[sp,#0x10]
	mov         w8,#0
	strb        w8,[x9]
	ldr         x8,[sp,#0x10]
	add         x8,x8,#1
	str         x8,[sp,#0x10]

; 1370 :         WRITE_4(0); // pre_defined

	ldr         x9,[sp,#0x10]
	mov         w8,#0
	strb        w8,[x9]
	ldr         x8,[sp,#0x10]
	add         x8,x8,#1
	str         x8,[sp,#0x10]
	ldr         x9,[sp,#0x10]
	mov         w8,#0
	strb        w8,[x9]
	ldr         x8,[sp,#0x10]
	add         x8,x8,#1
	str         x8,[sp,#0x10]
	ldr         x9,[sp,#0x10]
	mov         w8,#0
	strb        w8,[x9]
	ldr         x8,[sp,#0x10]
	add         x8,x8,#1
	str         x8,[sp,#0x10]
	ldr         x9,[sp,#0x10]
	mov         w8,#0
	strb        w8,[x9]
	ldr         x8,[sp,#0x10]
	add         x8,x8,#1
	str         x8,[sp,#0x10]

; 1371 :         WRITE_4(handler_type); // handler_type

	ldr         w8,[sp,#0x6C]
	lsr         w8,w8,#0x18
	uxtb        w9,w8
	ldr         x8,[sp,#0x10]
	strb        w9,[x8]
	ldr         x8,[sp,#0x10]
	add         x8,x8,#1
	str         x8,[sp,#0x10]
	ldr         w8,[sp,#0x6C]
	lsr         w8,w8,#0x10
	uxtb        w9,w8
	ldr         x8,[sp,#0x10]
	strb        w9,[x8]
	ldr         x8,[sp,#0x10]
	add         x8,x8,#1
	str         x8,[sp,#0x10]
	ldr         w8,[sp,#0x6C]
	lsr         w8,w8,#8
	uxtb        w9,w8
	ldr         x8,[sp,#0x10]
	strb        w9,[x8]
	ldr         x8,[sp,#0x10]
	add         x8,x8,#1
	str         x8,[sp,#0x10]
	ldr         w8,[sp,#0x6C]
	uxtb        w9,w8
	ldr         x8,[sp,#0x10]
	strb        w9,[x8]
	ldr         x8,[sp,#0x10]
	add         x8,x8,#1
	str         x8,[sp,#0x10]

; 1372 :         WRITE_4(0); WRITE_4(0); WRITE_4(0); // reserved[3]

	ldr         x9,[sp,#0x10]
	mov         w8,#0
	strb        w8,[x9]
	ldr         x8,[sp,#0x10]
	add         x8,x8,#1
	str         x8,[sp,#0x10]
	ldr         x9,[sp,#0x10]
	mov         w8,#0
	strb        w8,[x9]
	ldr         x8,[sp,#0x10]
	add         x8,x8,#1
	str         x8,[sp,#0x10]
	ldr         x9,[sp,#0x10]
	mov         w8,#0
	strb        w8,[x9]
	ldr         x8,[sp,#0x10]
	add         x8,x8,#1
	str         x8,[sp,#0x10]
	ldr         x9,[sp,#0x10]
	mov         w8,#0
	strb        w8,[x9]
	ldr         x8,[sp,#0x10]
	add         x8,x8,#1
	str         x8,[sp,#0x10]
	ldr         x9,[sp,#0x10]
	mov         w8,#0
	strb        w8,[x9]
	ldr         x8,[sp,#0x10]
	add         x8,x8,#1
	str         x8,[sp,#0x10]
	ldr         x9,[sp,#0x10]
	mov         w8,#0
	strb        w8,[x9]
	ldr         x8,[sp,#0x10]
	add         x8,x8,#1
	str         x8,[sp,#0x10]
	ldr         x9,[sp,#0x10]
	mov         w8,#0
	strb        w8,[x9]
	ldr         x8,[sp,#0x10]
	add         x8,x8,#1
	str         x8,[sp,#0x10]
	ldr         x9,[sp,#0x10]
	mov         w8,#0
	strb        w8,[x9]
	ldr         x8,[sp,#0x10]
	add         x8,x8,#1
	str         x8,[sp,#0x10]
	ldr         x9,[sp,#0x10]
	mov         w8,#0
	strb        w8,[x9]
	ldr         x8,[sp,#0x10]
	add         x8,x8,#1
	str         x8,[sp,#0x10]
	ldr         x9,[sp,#0x10]
	mov         w8,#0
	strb        w8,[x9]
	ldr         x8,[sp,#0x10]
	add         x8,x8,#1
	str         x8,[sp,#0x10]
	ldr         x9,[sp,#0x10]
	mov         w8,#0
	strb        w8,[x9]
	ldr         x8,[sp,#0x10]
	add         x8,x8,#1
	str         x8,[sp,#0x10]
	ldr         x9,[sp,#0x10]
	mov         w8,#0
	strb        w8,[x9]
	ldr         x8,[sp,#0x10]
	add         x8,x8,#1
	str         x8,[sp,#0x10]

; 1373 :         // name is a null-terminated string in UTF-8 characters which gives a human-readable name for the track type (for debugging and inspection purposes).
; 1374 :         // set mdia hdlr name field to what quicktime uses.
; 1375 :         // Sony smartphone may fail to decode short files w/o handler name
; 1376 :         if (handler_ascii)

	ldr         x8,[sp,#0xC0]
	cmp         x8,#0
	beq         |$LN85@mp4e_flush|

; 1377 :         {
; 1378 :             for (i = 0; i < (int)strlen(handler_ascii) + 1; i++)

	mov         w8,#0
	str         w8,[sp,#0x20]
	b           |$LN12@mp4e_flush|
|$LN10@mp4e_flush|
	ldr         w8,[sp,#0x20]
	add         w8,w8,#1
	str         w8,[sp,#0x20]
|$LN12@mp4e_flush|
	ldr         x0,[sp,#0xC0]
	bl          strlen
	mov         w8,w0
	add         w9,w8,#1
	ldr         w8,[sp,#0x20]
	cmp         w8,w9
	bge         |$LN11@mp4e_flush|

; 1379 :             {
; 1380 :                 WRITE_1(handler_ascii[i]);

	ldr         w8,[sp,#0x20]
	sxtw        x9,w8
	mov         x8,#1
	mul         x9,x9,x8
	ldr         x8,[sp,#0xC0]
	add         x8,x8,x9
	ldrsb       w8,[x8]
	uxtb        w9,w8
	ldr         x8,[sp,#0x10]
	strb        w9,[x8]
	ldr         x8,[sp,#0x10]
	add         x8,x8,#1
	str         x8,[sp,#0x10]

; 1381 :             }

	b           |$LN10@mp4e_flush|
|$LN11@mp4e_flush|

; 1382 :         }

	b           |$LN86@mp4e_flush|
|$LN85@mp4e_flush|

; 1383 :         else
; 1384 :         {
; 1385 :             WRITE_4(0);

	ldr         x9,[sp,#0x10]
	mov         w8,#0
	strb        w8,[x9]
	ldr         x8,[sp,#0x10]
	add         x8,x8,#1
	str         x8,[sp,#0x10]
	ldr         x9,[sp,#0x10]
	mov         w8,#0
	strb        w8,[x9]
	ldr         x8,[sp,#0x10]
	add         x8,x8,#1
	str         x8,[sp,#0x10]
	ldr         x9,[sp,#0x10]
	mov         w8,#0
	strb        w8,[x9]
	ldr         x8,[sp,#0x10]
	add         x8,x8,#1
	str         x8,[sp,#0x10]
	ldr         x9,[sp,#0x10]
	mov         w8,#0
	strb        w8,[x9]
	ldr         x8,[sp,#0x10]
	add         x8,x8,#1
	str         x8,[sp,#0x10]
|$LN86@mp4e_flush|

; 1386 :         }
; 1387 :         END_ATOM;

	ldr         x8,[sp,#0x18]
	sub         x8,x8,#8
	str         x8,[sp,#0x18]
	ldr         x9,[sp,#0x10]
	ldr         x8,[sp,#0x18]
	ldr         x8,[x8]
	sub         x8,x9,x8
	asr         x8,x8,#0x18
	uxtb        w9,w8
	ldr         x8,[sp,#0x18]
	ldr         x8,[x8]
	strb        w9,[x8]
	ldr         x9,[sp,#0x10]
	ldr         x8,[sp,#0x18]
	ldr         x8,[x8]
	sub         x8,x9,x8
	asr         x8,x8,#0x10
	uxtb        w9,w8
	ldr         x8,[sp,#0x18]
	ldr         x8,[x8]
	add         x8,x8,#1
	strb        w9,[x8]
	ldr         x9,[sp,#0x10]
	ldr         x8,[sp,#0x18]
	ldr         x8,[x8]
	sub         x8,x9,x8
	asr         x8,x8,#8
	uxtb        w9,w8
	ldr         x8,[sp,#0x18]
	ldr         x8,[x8]
	add         x8,x8,#2
	strb        w9,[x8]
	ldr         x9,[sp,#0x10]
	ldr         x8,[sp,#0x18]
	ldr         x8,[x8]
	sub         x8,x9,x8
	uxtb        w9,w8
	ldr         x8,[sp,#0x18]
	ldr         x8,[x8]
	add         x8,x8,#3
	strb        w9,[x8]

; 1388 : 
; 1389 :         ATOM(BOX_minf);

	ldr         x9,[sp,#0x18]
	ldr         x8,[sp,#0x10]
	str         x8,[x9]
	ldr         x8,[sp,#0x18]
	add         x8,x8,#8
	str         x8,[sp,#0x18]
	ldr         x8,[sp,#0x10]
	add         x8,x8,#4
	str         x8,[sp,#0x10]
	ldr         x9,[sp,#0x10]
	mov         w8,#0x6D
	strb        w8,[x9]
	ldr         x8,[sp,#0x10]
	add         x8,x8,#1
	str         x8,[sp,#0x10]
	ldr         x9,[sp,#0x10]
	mov         w8,#0x69
	strb        w8,[x9]
	ldr         x8,[sp,#0x10]
	add         x8,x8,#1
	str         x8,[sp,#0x10]
	ldr         x9,[sp,#0x10]
	mov         w8,#0x6E
	strb        w8,[x9]
	ldr         x8,[sp,#0x10]
	add         x8,x8,#1
	str         x8,[sp,#0x10]
	ldr         x9,[sp,#0x10]
	mov         w8,#0x66
	strb        w8,[x9]
	ldr         x8,[sp,#0x10]
	add         x8,x8,#1
	str         x8,[sp,#0x10]

; 1390 : 
; 1391 :         if (tr->info.track_media_kind == e_audio)

	ldr         x8,[sp,#0x28]
	add         x8,x8,#8
	ldr         w8,[x8]
	cmp         w8,#0
	bne         |$LN87@mp4e_flush|

; 1392 :         {
; 1393 :             // Sound Media Header Box
; 1394 :             ATOM_FULL(BOX_smhd, 0);

	ldr         x9,[sp,#0x18]
	ldr         x8,[sp,#0x10]
	str         x8,[x9]
	ldr         x8,[sp,#0x18]
	add         x8,x8,#8
	str         x8,[sp,#0x18]
	ldr         x8,[sp,#0x10]
	add         x8,x8,#4
	str         x8,[sp,#0x10]
	ldr         x9,[sp,#0x10]
	mov         w8,#0x73
	strb        w8,[x9]
	ldr         x8,[sp,#0x10]
	add         x8,x8,#1
	str         x8,[sp,#0x10]
	ldr         x9,[sp,#0x10]
	mov         w8,#0x6D
	strb        w8,[x9]
	ldr         x8,[sp,#0x10]
	add         x8,x8,#1
	str         x8,[sp,#0x10]
	ldr         x9,[sp,#0x10]
	mov         w8,#0x68
	strb        w8,[x9]
	ldr         x8,[sp,#0x10]
	add         x8,x8,#1
	str         x8,[sp,#0x10]
	ldr         x9,[sp,#0x10]
	mov         w8,#0x64
	strb        w8,[x9]
	ldr         x8,[sp,#0x10]
	add         x8,x8,#1
	str         x8,[sp,#0x10]
	ldr         x9,[sp,#0x10]
	mov         w8,#0
	strb        w8,[x9]
	ldr         x8,[sp,#0x10]
	add         x8,x8,#1
	str         x8,[sp,#0x10]
	ldr         x9,[sp,#0x10]
	mov         w8,#0
	strb        w8,[x9]
	ldr         x8,[sp,#0x10]
	add         x8,x8,#1
	str         x8,[sp,#0x10]
	ldr         x9,[sp,#0x10]
	mov         w8,#0
	strb        w8,[x9]
	ldr         x8,[sp,#0x10]
	add         x8,x8,#1
	str         x8,[sp,#0x10]
	ldr         x9,[sp,#0x10]
	mov         w8,#0
	strb        w8,[x9]
	ldr         x8,[sp,#0x10]
	add         x8,x8,#1
	str         x8,[sp,#0x10]

; 1395 :             WRITE_2(0);   // balance

	ldr         x9,[sp,#0x10]
	mov         w8,#0
	strb        w8,[x9]
	ldr         x8,[sp,#0x10]
	add         x8,x8,#1
	str         x8,[sp,#0x10]
	ldr         x9,[sp,#0x10]
	mov         w8,#0
	strb        w8,[x9]
	ldr         x8,[sp,#0x10]
	add         x8,x8,#1
	str         x8,[sp,#0x10]

; 1396 :             WRITE_2(0);   // reserved

	ldr         x9,[sp,#0x10]
	mov         w8,#0
	strb        w8,[x9]
	ldr         x8,[sp,#0x10]
	add         x8,x8,#1
	str         x8,[sp,#0x10]
	ldr         x9,[sp,#0x10]
	mov         w8,#0
	strb        w8,[x9]
	ldr         x8,[sp,#0x10]
	add         x8,x8,#1
	str         x8,[sp,#0x10]

; 1397 :             END_ATOM;

	ldr         x8,[sp,#0x18]
	sub         x8,x8,#8
	str         x8,[sp,#0x18]
	ldr         x9,[sp,#0x10]
	ldr         x8,[sp,#0x18]
	ldr         x8,[x8]
	sub         x8,x9,x8
	asr         x8,x8,#0x18
	uxtb        w9,w8
	ldr         x8,[sp,#0x18]
	ldr         x8,[x8]
	strb        w9,[x8]
	ldr         x9,[sp,#0x10]
	ldr         x8,[sp,#0x18]
	ldr         x8,[x8]
	sub         x8,x9,x8
	asr         x8,x8,#0x10
	uxtb        w9,w8
	ldr         x8,[sp,#0x18]
	ldr         x8,[x8]
	add         x8,x8,#1
	strb        w9,[x8]
	ldr         x9,[sp,#0x10]
	ldr         x8,[sp,#0x18]
	ldr         x8,[x8]
	sub         x8,x9,x8
	asr         x8,x8,#8
	uxtb        w9,w8
	ldr         x8,[sp,#0x18]
	ldr         x8,[x8]
	add         x8,x8,#2
	strb        w9,[x8]
	ldr         x9,[sp,#0x10]
	ldr         x8,[sp,#0x18]
	ldr         x8,[x8]
	sub         x8,x9,x8
	uxtb        w9,w8
	ldr         x8,[sp,#0x18]
	ldr         x8,[x8]
	add         x8,x8,#3
	strb        w9,[x8]
|$LN87@mp4e_flush|

; 1398 :         }
; 1399 :         if (tr->info.track_media_kind == e_video)

	ldr         x8,[sp,#0x28]
	add         x8,x8,#8
	ldr         w8,[x8]
	cmp         w8,#1
	bne         |$LN88@mp4e_flush|

; 1400 :         {
; 1401 :             // mandatory Video Media Header Box
; 1402 :             ATOM_FULL(BOX_vmhd, 1);

	ldr         x9,[sp,#0x18]
	ldr         x8,[sp,#0x10]
	str         x8,[x9]
	ldr         x8,[sp,#0x18]
	add         x8,x8,#8
	str         x8,[sp,#0x18]
	ldr         x8,[sp,#0x10]
	add         x8,x8,#4
	str         x8,[sp,#0x10]
	ldr         x9,[sp,#0x10]
	mov         w8,#0x76
	strb        w8,[x9]
	ldr         x8,[sp,#0x10]
	add         x8,x8,#1
	str         x8,[sp,#0x10]
	ldr         x9,[sp,#0x10]
	mov         w8,#0x6D
	strb        w8,[x9]
	ldr         x8,[sp,#0x10]
	add         x8,x8,#1
	str         x8,[sp,#0x10]
	ldr         x9,[sp,#0x10]
	mov         w8,#0x68
	strb        w8,[x9]
	ldr         x8,[sp,#0x10]
	add         x8,x8,#1
	str         x8,[sp,#0x10]
	ldr         x9,[sp,#0x10]
	mov         w8,#0x64
	strb        w8,[x9]
	ldr         x8,[sp,#0x10]
	add         x8,x8,#1
	str         x8,[sp,#0x10]
	ldr         x9,[sp,#0x10]
	mov         w8,#0
	strb        w8,[x9]
	ldr         x8,[sp,#0x10]
	add         x8,x8,#1
	str         x8,[sp,#0x10]
	ldr         x9,[sp,#0x10]
	mov         w8,#0
	strb        w8,[x9]
	ldr         x8,[sp,#0x10]
	add         x8,x8,#1
	str         x8,[sp,#0x10]
	ldr         x9,[sp,#0x10]
	mov         w8,#0
	strb        w8,[x9]
	ldr         x8,[sp,#0x10]
	add         x8,x8,#1
	str         x8,[sp,#0x10]
	ldr         x9,[sp,#0x10]
	mov         w8,#1
	strb        w8,[x9]
	ldr         x8,[sp,#0x10]
	add         x8,x8,#1
	str         x8,[sp,#0x10]

; 1403 :             WRITE_2(0); // graphicsmode

	ldr         x9,[sp,#0x10]
	mov         w8,#0
	strb        w8,[x9]
	ldr         x8,[sp,#0x10]
	add         x8,x8,#1
	str         x8,[sp,#0x10]
	ldr         x9,[sp,#0x10]
	mov         w8,#0
	strb        w8,[x9]
	ldr         x8,[sp,#0x10]
	add         x8,x8,#1
	str         x8,[sp,#0x10]

; 1404 :             WRITE_2(0); WRITE_2(0); WRITE_2(0); // opcolor[3]

	ldr         x9,[sp,#0x10]
	mov         w8,#0
	strb        w8,[x9]
	ldr         x8,[sp,#0x10]
	add         x8,x8,#1
	str         x8,[sp,#0x10]
	ldr         x9,[sp,#0x10]
	mov         w8,#0
	strb        w8,[x9]
	ldr         x8,[sp,#0x10]
	add         x8,x8,#1
	str         x8,[sp,#0x10]
	ldr         x9,[sp,#0x10]
	mov         w8,#0
	strb        w8,[x9]
	ldr         x8,[sp,#0x10]
	add         x8,x8,#1
	str         x8,[sp,#0x10]
	ldr         x9,[sp,#0x10]
	mov         w8,#0
	strb        w8,[x9]
	ldr         x8,[sp,#0x10]
	add         x8,x8,#1
	str         x8,[sp,#0x10]
	ldr         x9,[sp,#0x10]
	mov         w8,#0
	strb        w8,[x9]
	ldr         x8,[sp,#0x10]
	add         x8,x8,#1
	str         x8,[sp,#0x10]
	ldr         x9,[sp,#0x10]
	mov         w8,#0
	strb        w8,[x9]
	ldr         x8,[sp,#0x10]
	add         x8,x8,#1
	str         x8,[sp,#0x10]

; 1405 :             END_ATOM;

	ldr         x8,[sp,#0x18]
	sub         x8,x8,#8
	str         x8,[sp,#0x18]
	ldr         x9,[sp,#0x10]
	ldr         x8,[sp,#0x18]
	ldr         x8,[x8]
	sub         x8,x9,x8
	asr         x8,x8,#0x18
	uxtb        w9,w8
	ldr         x8,[sp,#0x18]
	ldr         x8,[x8]
	strb        w9,[x8]
	ldr         x9,[sp,#0x10]
	ldr         x8,[sp,#0x18]
	ldr         x8,[x8]
	sub         x8,x9,x8
	asr         x8,x8,#0x10
	uxtb        w9,w8
	ldr         x8,[sp,#0x18]
	ldr         x8,[x8]
	add         x8,x8,#1
	strb        w9,[x8]
	ldr         x9,[sp,#0x10]
	ldr         x8,[sp,#0x18]
	ldr         x8,[x8]
	sub         x8,x9,x8
	asr         x8,x8,#8
	uxtb        w9,w8
	ldr         x8,[sp,#0x18]
	ldr         x8,[x8]
	add         x8,x8,#2
	strb        w9,[x8]
	ldr         x9,[sp,#0x10]
	ldr         x8,[sp,#0x18]
	ldr         x8,[x8]
	sub         x8,x9,x8
	uxtb        w9,w8
	ldr         x8,[sp,#0x18]
	ldr         x8,[x8]
	add         x8,x8,#3
	strb        w9,[x8]
|$LN88@mp4e_flush|

; 1406 :         }
; 1407 : 
; 1408 :         ATOM(BOX_dinf);

	ldr         x9,[sp,#0x18]
	ldr         x8,[sp,#0x10]
	str         x8,[x9]
	ldr         x8,[sp,#0x18]
	add         x8,x8,#8
	str         x8,[sp,#0x18]
	ldr         x8,[sp,#0x10]
	add         x8,x8,#4
	str         x8,[sp,#0x10]
	ldr         x9,[sp,#0x10]
	mov         w8,#0x64
	strb        w8,[x9]
	ldr         x8,[sp,#0x10]
	add         x8,x8,#1
	str         x8,[sp,#0x10]
	ldr         x9,[sp,#0x10]
	mov         w8,#0x69
	strb        w8,[x9]
	ldr         x8,[sp,#0x10]
	add         x8,x8,#1
	str         x8,[sp,#0x10]
	ldr         x9,[sp,#0x10]
	mov         w8,#0x6E
	strb        w8,[x9]
	ldr         x8,[sp,#0x10]
	add         x8,x8,#1
	str         x8,[sp,#0x10]
	ldr         x9,[sp,#0x10]
	mov         w8,#0x66
	strb        w8,[x9]
	ldr         x8,[sp,#0x10]
	add         x8,x8,#1
	str         x8,[sp,#0x10]

; 1409 :         ATOM_FULL(BOX_dref, 0);

	ldr         x9,[sp,#0x18]
	ldr         x8,[sp,#0x10]
	str         x8,[x9]
	ldr         x8,[sp,#0x18]
	add         x8,x8,#8
	str         x8,[sp,#0x18]
	ldr         x8,[sp,#0x10]
	add         x8,x8,#4
	str         x8,[sp,#0x10]
	ldr         x9,[sp,#0x10]
	mov         w8,#0x64
	strb        w8,[x9]
	ldr         x8,[sp,#0x10]
	add         x8,x8,#1
	str         x8,[sp,#0x10]
	ldr         x9,[sp,#0x10]
	mov         w8,#0x72
	strb        w8,[x9]
	ldr         x8,[sp,#0x10]
	add         x8,x8,#1
	str         x8,[sp,#0x10]
	ldr         x9,[sp,#0x10]
	mov         w8,#0x65
	strb        w8,[x9]
	ldr         x8,[sp,#0x10]
	add         x8,x8,#1
	str         x8,[sp,#0x10]
	ldr         x9,[sp,#0x10]
	mov         w8,#0x66
	strb        w8,[x9]
	ldr         x8,[sp,#0x10]
	add         x8,x8,#1
	str         x8,[sp,#0x10]
	ldr         x9,[sp,#0x10]
	mov         w8,#0
	strb        w8,[x9]
	ldr         x8,[sp,#0x10]
	add         x8,x8,#1
	str         x8,[sp,#0x10]
	ldr         x9,[sp,#0x10]
	mov         w8,#0
	strb        w8,[x9]
	ldr         x8,[sp,#0x10]
	add         x8,x8,#1
	str         x8,[sp,#0x10]
	ldr         x9,[sp,#0x10]
	mov         w8,#0
	strb        w8,[x9]
	ldr         x8,[sp,#0x10]
	add         x8,x8,#1
	str         x8,[sp,#0x10]
	ldr         x9,[sp,#0x10]
	mov         w8,#0
	strb        w8,[x9]
	ldr         x8,[sp,#0x10]
	add         x8,x8,#1
	str         x8,[sp,#0x10]

; 1410 :         WRITE_4(1); // entry_count

	ldr         x9,[sp,#0x10]
	mov         w8,#0
	strb        w8,[x9]
	ldr         x8,[sp,#0x10]
	add         x8,x8,#1
	str         x8,[sp,#0x10]
	ldr         x9,[sp,#0x10]
	mov         w8,#0
	strb        w8,[x9]
	ldr         x8,[sp,#0x10]
	add         x8,x8,#1
	str         x8,[sp,#0x10]
	ldr         x9,[sp,#0x10]
	mov         w8,#0
	strb        w8,[x9]
	ldr         x8,[sp,#0x10]
	add         x8,x8,#1
	str         x8,[sp,#0x10]
	ldr         x9,[sp,#0x10]
	mov         w8,#1
	strb        w8,[x9]
	ldr         x8,[sp,#0x10]
	add         x8,x8,#1
	str         x8,[sp,#0x10]

; 1411 :             // If the flag is set indicating that the data is in the same file as this box, then no string (not even an empty one)
; 1412 :             // shall be supplied in the entry field.
; 1413 : 
; 1414 :             // ASP the correct way to avoid supply the string, is to use flag 1
; 1415 :             // otherwise ISO reference demux crashes
; 1416 :         ATOM_FULL(BOX_url, 1);

	ldr         x9,[sp,#0x18]
	ldr         x8,[sp,#0x10]
	str         x8,[x9]
	ldr         x8,[sp,#0x18]
	add         x8,x8,#8
	str         x8,[sp,#0x18]
	ldr         x8,[sp,#0x10]
	add         x8,x8,#4
	str         x8,[sp,#0x10]
	ldr         x9,[sp,#0x10]
	mov         w8,#0x75
	strb        w8,[x9]
	ldr         x8,[sp,#0x10]
	add         x8,x8,#1
	str         x8,[sp,#0x10]
	ldr         x9,[sp,#0x10]
	mov         w8,#0x72
	strb        w8,[x9]
	ldr         x8,[sp,#0x10]
	add         x8,x8,#1
	str         x8,[sp,#0x10]
	ldr         x9,[sp,#0x10]
	mov         w8,#0x6C
	strb        w8,[x9]
	ldr         x8,[sp,#0x10]
	add         x8,x8,#1
	str         x8,[sp,#0x10]
	ldr         x9,[sp,#0x10]
	mov         w8,#0x20
	strb        w8,[x9]
	ldr         x8,[sp,#0x10]
	add         x8,x8,#1
	str         x8,[sp,#0x10]
	ldr         x9,[sp,#0x10]
	mov         w8,#0
	strb        w8,[x9]
	ldr         x8,[sp,#0x10]
	add         x8,x8,#1
	str         x8,[sp,#0x10]
	ldr         x9,[sp,#0x10]
	mov         w8,#0
	strb        w8,[x9]
	ldr         x8,[sp,#0x10]
	add         x8,x8,#1
	str         x8,[sp,#0x10]
	ldr         x9,[sp,#0x10]
	mov         w8,#0
	strb        w8,[x9]
	ldr         x8,[sp,#0x10]
	add         x8,x8,#1
	str         x8,[sp,#0x10]
	ldr         x9,[sp,#0x10]
	mov         w8,#1
	strb        w8,[x9]
	ldr         x8,[sp,#0x10]
	add         x8,x8,#1
	str         x8,[sp,#0x10]

; 1417 :         END_ATOM;

	ldr         x8,[sp,#0x18]
	sub         x8,x8,#8
	str         x8,[sp,#0x18]
	ldr         x9,[sp,#0x10]
	ldr         x8,[sp,#0x18]
	ldr         x8,[x8]
	sub         x8,x9,x8
	asr         x8,x8,#0x18
	uxtb        w9,w8
	ldr         x8,[sp,#0x18]
	ldr         x8,[x8]
	strb        w9,[x8]
	ldr         x9,[sp,#0x10]
	ldr         x8,[sp,#0x18]
	ldr         x8,[x8]
	sub         x8,x9,x8
	asr         x8,x8,#0x10
	uxtb        w9,w8
	ldr         x8,[sp,#0x18]
	ldr         x8,[x8]
	add         x8,x8,#1
	strb        w9,[x8]
	ldr         x9,[sp,#0x10]
	ldr         x8,[sp,#0x18]
	ldr         x8,[x8]
	sub         x8,x9,x8
	asr         x8,x8,#8
	uxtb        w9,w8
	ldr         x8,[sp,#0x18]
	ldr         x8,[x8]
	add         x8,x8,#2
	strb        w9,[x8]
	ldr         x9,[sp,#0x10]
	ldr         x8,[sp,#0x18]
	ldr         x8,[x8]
	sub         x8,x9,x8
	uxtb        w9,w8
	ldr         x8,[sp,#0x18]
	ldr         x8,[x8]
	add         x8,x8,#3
	strb        w9,[x8]

; 1418 :         END_ATOM;

	ldr         x8,[sp,#0x18]
	sub         x8,x8,#8
	str         x8,[sp,#0x18]
	ldr         x9,[sp,#0x10]
	ldr         x8,[sp,#0x18]
	ldr         x8,[x8]
	sub         x8,x9,x8
	asr         x8,x8,#0x18
	uxtb        w9,w8
	ldr         x8,[sp,#0x18]
	ldr         x8,[x8]
	strb        w9,[x8]
	ldr         x9,[sp,#0x10]
	ldr         x8,[sp,#0x18]
	ldr         x8,[x8]
	sub         x8,x9,x8
	asr         x8,x8,#0x10
	uxtb        w9,w8
	ldr         x8,[sp,#0x18]
	ldr         x8,[x8]
	add         x8,x8,#1
	strb        w9,[x8]
	ldr         x9,[sp,#0x10]
	ldr         x8,[sp,#0x18]
	ldr         x8,[x8]
	sub         x8,x9,x8
	asr         x8,x8,#8
	uxtb        w9,w8
	ldr         x8,[sp,#0x18]
	ldr         x8,[x8]
	add         x8,x8,#2
	strb        w9,[x8]
	ldr         x9,[sp,#0x10]
	ldr         x8,[sp,#0x18]
	ldr         x8,[x8]
	sub         x8,x9,x8
	uxtb        w9,w8
	ldr         x8,[sp,#0x18]
	ldr         x8,[x8]
	add         x8,x8,#3
	strb        w9,[x8]

; 1419 :         END_ATOM;

	ldr         x8,[sp,#0x18]
	sub         x8,x8,#8
	str         x8,[sp,#0x18]
	ldr         x9,[sp,#0x10]
	ldr         x8,[sp,#0x18]
	ldr         x8,[x8]
	sub         x8,x9,x8
	asr         x8,x8,#0x18
	uxtb        w9,w8
	ldr         x8,[sp,#0x18]
	ldr         x8,[x8]
	strb        w9,[x8]
	ldr         x9,[sp,#0x10]
	ldr         x8,[sp,#0x18]
	ldr         x8,[x8]
	sub         x8,x9,x8
	asr         x8,x8,#0x10
	uxtb        w9,w8
	ldr         x8,[sp,#0x18]
	ldr         x8,[x8]
	add         x8,x8,#1
	strb        w9,[x8]
	ldr         x9,[sp,#0x10]
	ldr         x8,[sp,#0x18]
	ldr         x8,[x8]
	sub         x8,x9,x8
	asr         x8,x8,#8
	uxtb        w9,w8
	ldr         x8,[sp,#0x18]
	ldr         x8,[x8]
	add         x8,x8,#2
	strb        w9,[x8]
	ldr         x9,[sp,#0x10]
	ldr         x8,[sp,#0x18]
	ldr         x8,[x8]
	sub         x8,x9,x8
	uxtb        w9,w8
	ldr         x8,[sp,#0x18]
	ldr         x8,[x8]
	add         x8,x8,#3
	strb        w9,[x8]

; 1420 : 
; 1421 :         ATOM(BOX_stbl);

	ldr         x9,[sp,#0x18]
	ldr         x8,[sp,#0x10]
	str         x8,[x9]
	ldr         x8,[sp,#0x18]
	add         x8,x8,#8
	str         x8,[sp,#0x18]
	ldr         x8,[sp,#0x10]
	add         x8,x8,#4
	str         x8,[sp,#0x10]
	ldr         x9,[sp,#0x10]
	mov         w8,#0x73
	strb        w8,[x9]
	ldr         x8,[sp,#0x10]
	add         x8,x8,#1
	str         x8,[sp,#0x10]
	ldr         x9,[sp,#0x10]
	mov         w8,#0x74
	strb        w8,[x9]
	ldr         x8,[sp,#0x10]
	add         x8,x8,#1
	str         x8,[sp,#0x10]
	ldr         x9,[sp,#0x10]
	mov         w8,#0x62
	strb        w8,[x9]
	ldr         x8,[sp,#0x10]
	add         x8,x8,#1
	str         x8,[sp,#0x10]
	ldr         x9,[sp,#0x10]
	mov         w8,#0x6C
	strb        w8,[x9]
	ldr         x8,[sp,#0x10]
	add         x8,x8,#1
	str         x8,[sp,#0x10]

; 1422 :         ATOM_FULL(BOX_stsd, 0);

	ldr         x9,[sp,#0x18]
	ldr         x8,[sp,#0x10]
	str         x8,[x9]
	ldr         x8,[sp,#0x18]
	add         x8,x8,#8
	str         x8,[sp,#0x18]
	ldr         x8,[sp,#0x10]
	add         x8,x8,#4
	str         x8,[sp,#0x10]
	ldr         x9,[sp,#0x10]
	mov         w8,#0x73
	strb        w8,[x9]
	ldr         x8,[sp,#0x10]
	add         x8,x8,#1
	str         x8,[sp,#0x10]
	ldr         x9,[sp,#0x10]
	mov         w8,#0x74
	strb        w8,[x9]
	ldr         x8,[sp,#0x10]
	add         x8,x8,#1
	str         x8,[sp,#0x10]
	ldr         x9,[sp,#0x10]
	mov         w8,#0x73
	strb        w8,[x9]
	ldr         x8,[sp,#0x10]
	add         x8,x8,#1
	str         x8,[sp,#0x10]
	ldr         x9,[sp,#0x10]
	mov         w8,#0x64
	strb        w8,[x9]
	ldr         x8,[sp,#0x10]
	add         x8,x8,#1
	str         x8,[sp,#0x10]
	ldr         x9,[sp,#0x10]
	mov         w8,#0
	strb        w8,[x9]
	ldr         x8,[sp,#0x10]
	add         x8,x8,#1
	str         x8,[sp,#0x10]
	ldr         x9,[sp,#0x10]
	mov         w8,#0
	strb        w8,[x9]
	ldr         x8,[sp,#0x10]
	add         x8,x8,#1
	str         x8,[sp,#0x10]
	ldr         x9,[sp,#0x10]
	mov         w8,#0
	strb        w8,[x9]
	ldr         x8,[sp,#0x10]
	add         x8,x8,#1
	str         x8,[sp,#0x10]
	ldr         x9,[sp,#0x10]
	mov         w8,#0
	strb        w8,[x9]
	ldr         x8,[sp,#0x10]
	add         x8,x8,#1
	str         x8,[sp,#0x10]

; 1423 :         WRITE_4(1); // entry_count;

	ldr         x9,[sp,#0x10]
	mov         w8,#0
	strb        w8,[x9]
	ldr         x8,[sp,#0x10]
	add         x8,x8,#1
	str         x8,[sp,#0x10]
	ldr         x9,[sp,#0x10]
	mov         w8,#0
	strb        w8,[x9]
	ldr         x8,[sp,#0x10]
	add         x8,x8,#1
	str         x8,[sp,#0x10]
	ldr         x9,[sp,#0x10]
	mov         w8,#0
	strb        w8,[x9]
	ldr         x8,[sp,#0x10]
	add         x8,x8,#1
	str         x8,[sp,#0x10]
	ldr         x9,[sp,#0x10]
	mov         w8,#1
	strb        w8,[x9]
	ldr         x8,[sp,#0x10]
	add         x8,x8,#1
	str         x8,[sp,#0x10]

; 1424 : 
; 1425 :         if (tr->info.track_media_kind == e_audio || tr->info.track_media_kind == e_private)

	ldr         x8,[sp,#0x28]
	add         x8,x8,#8
	ldr         w8,[x8]
	cmp         w8,#0
	beq         |$LN90@mp4e_flush|
	ldr         x8,[sp,#0x28]
	add         x8,x8,#8
	ldr         w8,[x8]
	cmp         w8,#2
	bne         |$LN89@mp4e_flush|
|$LN90@mp4e_flush|

; 1426 :         {
; 1427 :             // AudioSampleEntry() assume MP4E_HANDLER_TYPE_SOUN
; 1428 :             if (tr->info.track_media_kind == e_audio)

	ldr         x8,[sp,#0x28]
	add         x8,x8,#8
	ldr         w8,[x8]
	cmp         w8,#0
	bne         |$LN91@mp4e_flush|

; 1429 :             {
; 1430 :                 ATOM(BOX_mp4a);

	ldr         x9,[sp,#0x18]
	ldr         x8,[sp,#0x10]
	str         x8,[x9]
	ldr         x8,[sp,#0x18]
	add         x8,x8,#8
	str         x8,[sp,#0x18]
	ldr         x8,[sp,#0x10]
	add         x8,x8,#4
	str         x8,[sp,#0x10]
	ldr         x9,[sp,#0x10]
	mov         w8,#0x6D
	strb        w8,[x9]
	ldr         x8,[sp,#0x10]
	add         x8,x8,#1
	str         x8,[sp,#0x10]
	ldr         x9,[sp,#0x10]
	mov         w8,#0x70
	strb        w8,[x9]
	ldr         x8,[sp,#0x10]
	add         x8,x8,#1
	str         x8,[sp,#0x10]
	ldr         x9,[sp,#0x10]
	mov         w8,#0x34
	strb        w8,[x9]
	ldr         x8,[sp,#0x10]
	add         x8,x8,#1
	str         x8,[sp,#0x10]
	ldr         x9,[sp,#0x10]
	mov         w8,#0x61
	strb        w8,[x9]
	ldr         x8,[sp,#0x10]
	add         x8,x8,#1
	str         x8,[sp,#0x10]

; 1431 :             }

	b           |$LN92@mp4e_flush|
|$LN91@mp4e_flush|

; 1432 :             else
; 1433 :             {
; 1434 :                 ATOM(BOX_mp4s);

	ldr         x9,[sp,#0x18]
	ldr         x8,[sp,#0x10]
	str         x8,[x9]
	ldr         x8,[sp,#0x18]
	add         x8,x8,#8
	str         x8,[sp,#0x18]
	ldr         x8,[sp,#0x10]
	add         x8,x8,#4
	str         x8,[sp,#0x10]
	ldr         x9,[sp,#0x10]
	mov         w8,#0x6D
	strb        w8,[x9]
	ldr         x8,[sp,#0x10]
	add         x8,x8,#1
	str         x8,[sp,#0x10]
	ldr         x9,[sp,#0x10]
	mov         w8,#0x70
	strb        w8,[x9]
	ldr         x8,[sp,#0x10]
	add         x8,x8,#1
	str         x8,[sp,#0x10]
	ldr         x9,[sp,#0x10]
	mov         w8,#0x34
	strb        w8,[x9]
	ldr         x8,[sp,#0x10]
	add         x8,x8,#1
	str         x8,[sp,#0x10]
	ldr         x9,[sp,#0x10]
	mov         w8,#0x73
	strb        w8,[x9]
	ldr         x8,[sp,#0x10]
	add         x8,x8,#1
	str         x8,[sp,#0x10]
|$LN92@mp4e_flush|

; 1435 :             }
; 1436 : 
; 1437 :             // SampleEntry
; 1438 :             WRITE_4(0); WRITE_2(0); // reserved[6]

	ldr         x9,[sp,#0x10]
	mov         w8,#0
	strb        w8,[x9]
	ldr         x8,[sp,#0x10]
	add         x8,x8,#1
	str         x8,[sp,#0x10]
	ldr         x9,[sp,#0x10]
	mov         w8,#0
	strb        w8,[x9]
	ldr         x8,[sp,#0x10]
	add         x8,x8,#1
	str         x8,[sp,#0x10]
	ldr         x9,[sp,#0x10]
	mov         w8,#0
	strb        w8,[x9]
	ldr         x8,[sp,#0x10]
	add         x8,x8,#1
	str         x8,[sp,#0x10]
	ldr         x9,[sp,#0x10]
	mov         w8,#0
	strb        w8,[x9]
	ldr         x8,[sp,#0x10]
	add         x8,x8,#1
	str         x8,[sp,#0x10]
	ldr         x9,[sp,#0x10]
	mov         w8,#0
	strb        w8,[x9]
	ldr         x8,[sp,#0x10]
	add         x8,x8,#1
	str         x8,[sp,#0x10]
	ldr         x9,[sp,#0x10]
	mov         w8,#0
	strb        w8,[x9]
	ldr         x8,[sp,#0x10]
	add         x8,x8,#1
	str         x8,[sp,#0x10]

; 1439 :             WRITE_2(1); // data_reference_index; - this is a tag for descriptor below

	ldr         x9,[sp,#0x10]
	mov         w8,#0
	strb        w8,[x9]
	ldr         x8,[sp,#0x10]
	add         x8,x8,#1
	str         x8,[sp,#0x10]
	ldr         x9,[sp,#0x10]
	mov         w8,#1
	strb        w8,[x9]
	ldr         x8,[sp,#0x10]
	add         x8,x8,#1
	str         x8,[sp,#0x10]

; 1440 : 
; 1441 :             if (tr->info.track_media_kind == e_audio)

	ldr         x8,[sp,#0x28]
	add         x8,x8,#8
	ldr         w8,[x8]
	cmp         w8,#0
	bne         |$LN93@mp4e_flush|

; 1442 :             {
; 1443 :                 // AudioSampleEntry
; 1444 :                 WRITE_4(0); WRITE_4(0); // reserved[2]

	ldr         x9,[sp,#0x10]
	mov         w8,#0
	strb        w8,[x9]
	ldr         x8,[sp,#0x10]
	add         x8,x8,#1
	str         x8,[sp,#0x10]
	ldr         x9,[sp,#0x10]
	mov         w8,#0
	strb        w8,[x9]
	ldr         x8,[sp,#0x10]
	add         x8,x8,#1
	str         x8,[sp,#0x10]
	ldr         x9,[sp,#0x10]
	mov         w8,#0
	strb        w8,[x9]
	ldr         x8,[sp,#0x10]
	add         x8,x8,#1
	str         x8,[sp,#0x10]
	ldr         x9,[sp,#0x10]
	mov         w8,#0
	strb        w8,[x9]
	ldr         x8,[sp,#0x10]
	add         x8,x8,#1
	str         x8,[sp,#0x10]
	ldr         x9,[sp,#0x10]
	mov         w8,#0
	strb        w8,[x9]
	ldr         x8,[sp,#0x10]
	add         x8,x8,#1
	str         x8,[sp,#0x10]
	ldr         x9,[sp,#0x10]
	mov         w8,#0
	strb        w8,[x9]
	ldr         x8,[sp,#0x10]
	add         x8,x8,#1
	str         x8,[sp,#0x10]
	ldr         x9,[sp,#0x10]
	mov         w8,#0
	strb        w8,[x9]
	ldr         x8,[sp,#0x10]
	add         x8,x8,#1
	str         x8,[sp,#0x10]
	ldr         x9,[sp,#0x10]
	mov         w8,#0
	strb        w8,[x9]
	ldr         x8,[sp,#0x10]
	add         x8,x8,#1
	str         x8,[sp,#0x10]

; 1445 :                 WRITE_2(tr->info.u.a.channelcount); // channelcount

	ldr         x8,[sp,#0x28]
	add         x8,x8,#0x14
	ldr         w8,[x8]
	lsr         w8,w8,#8
	uxtb        w9,w8
	ldr         x8,[sp,#0x10]
	strb        w9,[x8]
	ldr         x8,[sp,#0x10]
	add         x8,x8,#1
	str         x8,[sp,#0x10]
	ldr         x8,[sp,#0x28]
	add         x8,x8,#0x14
	ldr         w8,[x8]
	uxtb        w9,w8
	ldr         x8,[sp,#0x10]
	strb        w9,[x8]
	ldr         x8,[sp,#0x10]
	add         x8,x8,#1
	str         x8,[sp,#0x10]

; 1446 :                 WRITE_2(16); // samplesize

	ldr         x9,[sp,#0x10]
	mov         w8,#0
	strb        w8,[x9]
	ldr         x8,[sp,#0x10]
	add         x8,x8,#1
	str         x8,[sp,#0x10]
	ldr         x9,[sp,#0x10]
	mov         w8,#0x10
	strb        w8,[x9]
	ldr         x8,[sp,#0x10]
	add         x8,x8,#1
	str         x8,[sp,#0x10]

; 1447 :                 WRITE_4(0);  // pre_defined+reserved

	ldr         x9,[sp,#0x10]
	mov         w8,#0
	strb        w8,[x9]
	ldr         x8,[sp,#0x10]
	add         x8,x8,#1
	str         x8,[sp,#0x10]
	ldr         x9,[sp,#0x10]
	mov         w8,#0
	strb        w8,[x9]
	ldr         x8,[sp,#0x10]
	add         x8,x8,#1
	str         x8,[sp,#0x10]
	ldr         x9,[sp,#0x10]
	mov         w8,#0
	strb        w8,[x9]
	ldr         x8,[sp,#0x10]
	add         x8,x8,#1
	str         x8,[sp,#0x10]
	ldr         x9,[sp,#0x10]
	mov         w8,#0
	strb        w8,[x9]
	ldr         x8,[sp,#0x10]
	add         x8,x8,#1
	str         x8,[sp,#0x10]

; 1448 :                 WRITE_4((tr->info.time_scale << 16));  // samplerate == = {timescale of media}<<16;

	ldr         x8,[sp,#0x28]
	add         x8,x8,#0xC
	ldr         w8,[x8]
	ubfx        w8,w8,#8,#8
	uxtb        w9,w8
	ldr         x8,[sp,#0x10]
	strb        w9,[x8]
	ldr         x8,[sp,#0x10]
	add         x8,x8,#1
	str         x8,[sp,#0x10]
	ldr         x8,[sp,#0x28]
	add         x8,x8,#0xC
	ldr         w8,[x8]
	uxth        w8,w8
	uxtb        w9,w8
	ldr         x8,[sp,#0x10]
	strb        w9,[x8]
	ldr         x8,[sp,#0x10]
	add         x8,x8,#1
	str         x8,[sp,#0x10]
	ldr         x8,[sp,#0x28]
	add         x8,x8,#0xC
	ldr         w8,[x8]
	lsl         w8,w8,#0x10
	lsr         w8,w8,#8
	uxtb        w9,w8
	ldr         x8,[sp,#0x10]
	strb        w9,[x8]
	ldr         x8,[sp,#0x10]
	add         x8,x8,#1
	str         x8,[sp,#0x10]
	ldr         x8,[sp,#0x28]
	add         x8,x8,#0xC
	ldr         w8,[x8]
	lsl         w8,w8,#0x10
	uxtb        w9,w8
	ldr         x8,[sp,#0x10]
	strb        w9,[x8]
	ldr         x8,[sp,#0x10]
	add         x8,x8,#1
	str         x8,[sp,#0x10]
|$LN93@mp4e_flush|

; 1449 :             }
; 1450 : 
; 1451 :             ATOM_FULL(BOX_esds, 0);

	ldr         x9,[sp,#0x18]
	ldr         x8,[sp,#0x10]
	str         x8,[x9]
	ldr         x8,[sp,#0x18]
	add         x8,x8,#8
	str         x8,[sp,#0x18]
	ldr         x8,[sp,#0x10]
	add         x8,x8,#4
	str         x8,[sp,#0x10]
	ldr         x9,[sp,#0x10]
	mov         w8,#0x65
	strb        w8,[x9]
	ldr         x8,[sp,#0x10]
	add         x8,x8,#1
	str         x8,[sp,#0x10]
	ldr         x9,[sp,#0x10]
	mov         w8,#0x73
	strb        w8,[x9]
	ldr         x8,[sp,#0x10]
	add         x8,x8,#1
	str         x8,[sp,#0x10]
	ldr         x9,[sp,#0x10]
	mov         w8,#0x64
	strb        w8,[x9]
	ldr         x8,[sp,#0x10]
	add         x8,x8,#1
	str         x8,[sp,#0x10]
	ldr         x9,[sp,#0x10]
	mov         w8,#0x73
	strb        w8,[x9]
	ldr         x8,[sp,#0x10]
	add         x8,x8,#1
	str         x8,[sp,#0x10]
	ldr         x9,[sp,#0x10]
	mov         w8,#0
	strb        w8,[x9]
	ldr         x8,[sp,#0x10]
	add         x8,x8,#1
	str         x8,[sp,#0x10]
	ldr         x9,[sp,#0x10]
	mov         w8,#0
	strb        w8,[x9]
	ldr         x8,[sp,#0x10]
	add         x8,x8,#1
	str         x8,[sp,#0x10]
	ldr         x9,[sp,#0x10]
	mov         w8,#0
	strb        w8,[x9]
	ldr         x8,[sp,#0x10]
	add         x8,x8,#1
	str         x8,[sp,#0x10]
	ldr         x9,[sp,#0x10]
	mov         w8,#0
	strb        w8,[x9]
	ldr         x8,[sp,#0x10]
	add         x8,x8,#1
	str         x8,[sp,#0x10]

; 1452 :             if (tr->vsps.bytes > 0)

	ldr         x8,[sp,#0x28]
	add         x8,x8,#0x40
	add         x8,x8,#8
	ldr         w8,[x8]
	cmp         w8,#0
	ble         |$LN94@mp4e_flush|

; 1453 :             {
; 1454 :                 int dsi_bytes = tr->vsps.bytes - 2; //  - two bytes size field

	ldr         x8,[sp,#0x28]
	add         x8,x8,#0x40
	add         x8,x8,#8
	ldr         w8,[x8]
	sub         w8,w8,#2
	str         w8,[sp,#0x54]

; 1455 :                 int dsi_size_size = od_size_of_size(dsi_bytes);

	ldr         w0,[sp,#0x54]
	bl          |?od_size_of_size@@YAHH@Z|
	mov         w0,w0
	str         w0,[sp,#0xDC]

; 1456 :                 int dcd_bytes = dsi_bytes + dsi_size_size + 1 + (1 + 1 + 3 + 4 + 4);

	ldr         w9,[sp,#0x54]
	ldr         w8,[sp,#0xDC]
	add         w8,w9,w8
	add         w8,w8,#0xE
	str         w8,[sp,#0x5C]

; 1457 :                 int dcd_size_size = od_size_of_size(dcd_bytes);

	ldr         w0,[sp,#0x5C]
	bl          |?od_size_of_size@@YAHH@Z|
	mov         w0,w0
	str         w0,[sp,#0xE0]

; 1458 :                 int esd_bytes = dcd_bytes + dcd_size_size + 1 + 3;

	ldr         w9,[sp,#0x5C]
	ldr         w8,[sp,#0xE0]
	add         w8,w9,w8
	add         w8,w8,#4
	str         w8,[sp,#0x80]

; 1459 : 
; 1460 : #define WRITE_OD_LEN(size) if (size > 0x7F) do { size -= 0x7F; WRITE_1(0x00ff); } while (size > 0x7F); WRITE_1(size)
; 1461 :                 WRITE_1(3); // OD_ESD

	ldr         x9,[sp,#0x10]
	mov         w8,#3
	strb        w8,[x9]
	ldr         x8,[sp,#0x10]
	add         x8,x8,#1
	str         x8,[sp,#0x10]

; 1462 :                 WRITE_OD_LEN(esd_bytes);

	ldr         w8,[sp,#0x80]
	cmp         w8,#0x7F
	ble         |$LN95@mp4e_flush|
|$LN15@mp4e_flush|
	ldr         w8,[sp,#0x80]
	sub         w8,w8,#0x7F
	str         w8,[sp,#0x80]
	ldr         x9,[sp,#0x10]
	mov         w8,#0xFF
	strb        w8,[x9]
	ldr         x8,[sp,#0x10]
	add         x8,x8,#1
	str         x8,[sp,#0x10]
	ldr         w8,[sp,#0x80]
	cmp         w8,#0x7F
	bgt         |$LN15@mp4e_flush|
|$LN95@mp4e_flush|
	ldr         w8,[sp,#0x80]
	uxtb        w9,w8
	ldr         x8,[sp,#0x10]
	strb        w9,[x8]
	ldr         x8,[sp,#0x10]
	add         x8,x8,#1
	str         x8,[sp,#0x10]

; 1463 :                 WRITE_2(0); // ES_ID(2) // TODO - what is this?

	ldr         x9,[sp,#0x10]
	mov         w8,#0
	strb        w8,[x9]
	ldr         x8,[sp,#0x10]
	add         x8,x8,#1
	str         x8,[sp,#0x10]
	ldr         x9,[sp,#0x10]
	mov         w8,#0
	strb        w8,[x9]
	ldr         x8,[sp,#0x10]
	add         x8,x8,#1
	str         x8,[sp,#0x10]

; 1464 :                 WRITE_1(0); // flags(1)

	ldr         x9,[sp,#0x10]
	mov         w8,#0
	strb        w8,[x9]
	ldr         x8,[sp,#0x10]
	add         x8,x8,#1
	str         x8,[sp,#0x10]

; 1465 : 
; 1466 :                 WRITE_1(4); // OD_DCD

	ldr         x9,[sp,#0x10]
	mov         w8,#4
	strb        w8,[x9]
	ldr         x8,[sp,#0x10]
	add         x8,x8,#1
	str         x8,[sp,#0x10]

; 1467 :                 WRITE_OD_LEN(dcd_bytes);

	ldr         w8,[sp,#0x5C]
	cmp         w8,#0x7F
	ble         |$LN96@mp4e_flush|
|$LN18@mp4e_flush|
	ldr         w8,[sp,#0x5C]
	sub         w8,w8,#0x7F
	str         w8,[sp,#0x5C]
	ldr         x9,[sp,#0x10]
	mov         w8,#0xFF
	strb        w8,[x9]
	ldr         x8,[sp,#0x10]
	add         x8,x8,#1
	str         x8,[sp,#0x10]
	ldr         w8,[sp,#0x5C]
	cmp         w8,#0x7F
	bgt         |$LN18@mp4e_flush|
|$LN96@mp4e_flush|
	ldr         w8,[sp,#0x5C]
	uxtb        w9,w8
	ldr         x8,[sp,#0x10]
	strb        w9,[x8]
	ldr         x8,[sp,#0x10]
	add         x8,x8,#1
	str         x8,[sp,#0x10]

; 1468 :                 if (tr->info.track_media_kind == e_audio)

	ldr         x8,[sp,#0x28]
	add         x8,x8,#8
	ldr         w8,[x8]
	cmp         w8,#0
	bne         |$LN97@mp4e_flush|

; 1469 :                 {
; 1470 :                     WRITE_1(MP4_OBJECT_TYPE_AUDIO_ISO_IEC_14496_3); // OD_DCD

	ldr         x9,[sp,#0x10]
	mov         w8,#0x40
	strb        w8,[x9]
	ldr         x8,[sp,#0x10]
	add         x8,x8,#1
	str         x8,[sp,#0x10]

; 1471 :                     WRITE_1(5 << 2); // stream_type == AudioStream

	ldr         x9,[sp,#0x10]
	mov         w8,#0x14
	strb        w8,[x9]
	ldr         x8,[sp,#0x10]
	add         x8,x8,#1
	str         x8,[sp,#0x10]

; 1472 :                 }

	b           |$LN98@mp4e_flush|
|$LN97@mp4e_flush|

; 1473 :                 else
; 1474 :                 {
; 1475 :                     // http://xhelmboyx.tripod.com/formats/mp4-layout.txt
; 1476 :                     WRITE_1(208); // 208 = private video

	ldr         x9,[sp,#0x10]
	mov         w8,#0xD0
	strb        w8,[x9]
	ldr         x8,[sp,#0x10]
	add         x8,x8,#1
	str         x8,[sp,#0x10]

; 1477 :                     WRITE_1(32 << 2); // stream_type == user private

	ldr         x9,[sp,#0x10]
	mov         w8,#0x80
	strb        w8,[x9]
	ldr         x8,[sp,#0x10]
	add         x8,x8,#1
	str         x8,[sp,#0x10]
|$LN98@mp4e_flush|

; 1478 :                 }
; 1479 :                 WRITE_3(tr->info.u.a.channelcount * 6144 / 8); // bufferSizeDB in bytes, constant as in reference decoder

	ldr         x8,[sp,#0x28]
	add         x8,x8,#0x14
	ldr         w9,[x8]
	mov         w8,#0x1800
	mul         w9,w9,w8
	mov         w8,#8
	udiv        w8,w9,w8
	lsr         w8,w8,#0x10
	uxtb        w9,w8
	ldr         x8,[sp,#0x10]
	strb        w9,[x8]
	ldr         x8,[sp,#0x10]
	add         x8,x8,#1
	str         x8,[sp,#0x10]
	ldr         x8,[sp,#0x28]
	add         x8,x8,#0x14
	ldr         w9,[x8]
	mov         w8,#0x1800
	mul         w9,w9,w8
	mov         w8,#8
	udiv        w8,w9,w8
	lsr         w8,w8,#8
	uxtb        w9,w8
	ldr         x8,[sp,#0x10]
	strb        w9,[x8]
	ldr         x8,[sp,#0x10]
	add         x8,x8,#1
	str         x8,[sp,#0x10]
	ldr         x8,[sp,#0x28]
	add         x8,x8,#0x14
	ldr         w9,[x8]
	mov         w8,#0x1800
	mul         w9,w9,w8
	mov         w8,#8
	udiv        w8,w9,w8
	uxtb        w9,w8
	ldr         x8,[sp,#0x10]
	strb        w9,[x8]
	ldr         x8,[sp,#0x10]
	add         x8,x8,#1
	str         x8,[sp,#0x10]

; 1480 :                 WRITE_4(0); // maxBitrate TODO

	ldr         x9,[sp,#0x10]
	mov         w8,#0
	strb        w8,[x9]
	ldr         x8,[sp,#0x10]
	add         x8,x8,#1
	str         x8,[sp,#0x10]
	ldr         x9,[sp,#0x10]
	mov         w8,#0
	strb        w8,[x9]
	ldr         x8,[sp,#0x10]
	add         x8,x8,#1
	str         x8,[sp,#0x10]
	ldr         x9,[sp,#0x10]
	mov         w8,#0
	strb        w8,[x9]
	ldr         x8,[sp,#0x10]
	add         x8,x8,#1
	str         x8,[sp,#0x10]
	ldr         x9,[sp,#0x10]
	mov         w8,#0
	strb        w8,[x9]
	ldr         x8,[sp,#0x10]
	add         x8,x8,#1
	str         x8,[sp,#0x10]

; 1481 :                 WRITE_4(0); // avg_bitrate_bps TODO

	ldr         x9,[sp,#0x10]
	mov         w8,#0
	strb        w8,[x9]
	ldr         x8,[sp,#0x10]
	add         x8,x8,#1
	str         x8,[sp,#0x10]
	ldr         x9,[sp,#0x10]
	mov         w8,#0
	strb        w8,[x9]
	ldr         x8,[sp,#0x10]
	add         x8,x8,#1
	str         x8,[sp,#0x10]
	ldr         x9,[sp,#0x10]
	mov         w8,#0
	strb        w8,[x9]
	ldr         x8,[sp,#0x10]
	add         x8,x8,#1
	str         x8,[sp,#0x10]
	ldr         x9,[sp,#0x10]
	mov         w8,#0
	strb        w8,[x9]
	ldr         x8,[sp,#0x10]
	add         x8,x8,#1
	str         x8,[sp,#0x10]

; 1482 : 
; 1483 :                 WRITE_1(5); // OD_DSI

	ldr         x9,[sp,#0x10]
	mov         w8,#5
	strb        w8,[x9]
	ldr         x8,[sp,#0x10]
	add         x8,x8,#1
	str         x8,[sp,#0x10]

; 1484 :                 WRITE_OD_LEN(dsi_bytes);

	ldr         w8,[sp,#0x54]
	cmp         w8,#0x7F
	ble         |$LN99@mp4e_flush|
|$LN21@mp4e_flush|
	ldr         w8,[sp,#0x54]
	sub         w8,w8,#0x7F
	str         w8,[sp,#0x54]
	ldr         x9,[sp,#0x10]
	mov         w8,#0xFF
	strb        w8,[x9]
	ldr         x8,[sp,#0x10]
	add         x8,x8,#1
	str         x8,[sp,#0x10]
	ldr         w8,[sp,#0x54]
	cmp         w8,#0x7F
	bgt         |$LN21@mp4e_flush|
|$LN99@mp4e_flush|
	ldr         w8,[sp,#0x54]
	uxtb        w9,w8
	ldr         x8,[sp,#0x10]
	strb        w9,[x8]
	ldr         x8,[sp,#0x10]
	add         x8,x8,#1
	str         x8,[sp,#0x10]

; 1485 :                 for (i = 0; i < dsi_bytes; i++)

	mov         w8,#0
	str         w8,[sp,#0x20]
	b           |$LN24@mp4e_flush|
|$LN22@mp4e_flush|
	ldr         w8,[sp,#0x20]
	add         w8,w8,#1
	str         w8,[sp,#0x20]
|$LN24@mp4e_flush|
	ldr         w9,[sp,#0x54]
	ldr         w8,[sp,#0x20]
	cmp         w8,w9
	bge         |$LN23@mp4e_flush|

; 1486 :                 {
; 1487 :                     WRITE_1(tr->vsps.data[2 + i]);

	ldr         x8,[sp,#0x28]
	add         x10,x8,#0x40
	ldr         w8,[sp,#0x20]
	add         w8,w8,#2
	sxtw        x9,w8
	mov         x8,#1
	mul         x9,x9,x8
	ldr         x8,[x10]
	add         x8,x8,x9
	ldr         x9,[sp,#0x10]
	ldrb        w8,[x8]
	strb        w8,[x9]
	ldr         x8,[sp,#0x10]
	add         x8,x8,#1
	str         x8,[sp,#0x10]

; 1488 :                 }

	b           |$LN22@mp4e_flush|
|$LN23@mp4e_flush|
|$LN94@mp4e_flush|

; 1489 :             }
; 1490 :             END_ATOM;

	ldr         x8,[sp,#0x18]
	sub         x8,x8,#8
	str         x8,[sp,#0x18]
	ldr         x9,[sp,#0x10]
	ldr         x8,[sp,#0x18]
	ldr         x8,[x8]
	sub         x8,x9,x8
	asr         x8,x8,#0x18
	uxtb        w9,w8
	ldr         x8,[sp,#0x18]
	ldr         x8,[x8]
	strb        w9,[x8]
	ldr         x9,[sp,#0x10]
	ldr         x8,[sp,#0x18]
	ldr         x8,[x8]
	sub         x8,x9,x8
	asr         x8,x8,#0x10
	uxtb        w9,w8
	ldr         x8,[sp,#0x18]
	ldr         x8,[x8]
	add         x8,x8,#1
	strb        w9,[x8]
	ldr         x9,[sp,#0x10]
	ldr         x8,[sp,#0x18]
	ldr         x8,[x8]
	sub         x8,x9,x8
	asr         x8,x8,#8
	uxtb        w9,w8
	ldr         x8,[sp,#0x18]
	ldr         x8,[x8]
	add         x8,x8,#2
	strb        w9,[x8]
	ldr         x9,[sp,#0x10]
	ldr         x8,[sp,#0x18]
	ldr         x8,[x8]
	sub         x8,x9,x8
	uxtb        w9,w8
	ldr         x8,[sp,#0x18]
	ldr         x8,[x8]
	add         x8,x8,#3
	strb        w9,[x8]

; 1491 :             END_ATOM;

	ldr         x8,[sp,#0x18]
	sub         x8,x8,#8
	str         x8,[sp,#0x18]
	ldr         x9,[sp,#0x10]
	ldr         x8,[sp,#0x18]
	ldr         x8,[x8]
	sub         x8,x9,x8
	asr         x8,x8,#0x18
	uxtb        w9,w8
	ldr         x8,[sp,#0x18]
	ldr         x8,[x8]
	strb        w9,[x8]
	ldr         x9,[sp,#0x10]
	ldr         x8,[sp,#0x18]
	ldr         x8,[x8]
	sub         x8,x9,x8
	asr         x8,x8,#0x10
	uxtb        w9,w8
	ldr         x8,[sp,#0x18]
	ldr         x8,[x8]
	add         x8,x8,#1
	strb        w9,[x8]
	ldr         x9,[sp,#0x10]
	ldr         x8,[sp,#0x18]
	ldr         x8,[x8]
	sub         x8,x9,x8
	asr         x8,x8,#8
	uxtb        w9,w8
	ldr         x8,[sp,#0x18]
	ldr         x8,[x8]
	add         x8,x8,#2
	strb        w9,[x8]
	ldr         x9,[sp,#0x10]
	ldr         x8,[sp,#0x18]
	ldr         x8,[x8]
	sub         x8,x9,x8
	uxtb        w9,w8
	ldr         x8,[sp,#0x18]
	ldr         x8,[x8]
	add         x8,x8,#3
	strb        w9,[x8]
|$LN89@mp4e_flush|

; 1492 :         }
; 1493 : 
; 1494 :         if (tr->info.track_media_kind == e_video && (MP4_OBJECT_TYPE_AVC == tr->info.object_type_indication || MP4_OBJECT_TYPE_HEVC == tr->info.object_type_indication))

	ldr         x8,[sp,#0x28]
	add         x8,x8,#8
	ldr         w8,[x8]
	cmp         w8,#1
	bne         |$LN100@mp4e_flush|
	ldr         x8,[sp,#0x28]
	ldr         w9,[x8]
	mov         w8,#0x21
	cmp         w8,w9
	beq         |$LN101@mp4e_flush|
	ldr         x8,[sp,#0x28]
	ldr         w9,[x8]
	mov         w8,#0x23
	cmp         w8,w9
	bne         |$LN100@mp4e_flush|
|$LN101@mp4e_flush|

; 1495 :         {
; 1496 :             int numOfSequenceParameterSets = items_count(&tr->vsps);

	ldr         x8,[sp,#0x28]
	add         x0,x8,#0x40
	bl          |?items_count@@YAHPEAUminimp4_vector_t@@@Z|
	mov         w0,w0
	str         w0,[sp,#0x98]

; 1497 :             int numOfPictureParameterSets = items_count(&tr->vpps);

	ldr         x8,[sp,#0x28]
	add         x0,x8,#0x50
	bl          |?items_count@@YAHPEAUminimp4_vector_t@@@Z|
	mov         w0,w0
	str         w0,[sp,#0x9C]

; 1498 :             if (MP4_OBJECT_TYPE_AVC == tr->info.object_type_indication)

	ldr         x8,[sp,#0x28]
	ldr         w9,[x8]
	mov         w8,#0x21
	cmp         w8,w9
	bne         |$LN102@mp4e_flush|

; 1499 :             {
; 1500 :                 ATOM(BOX_avc1);

	ldr         x9,[sp,#0x18]
	ldr         x8,[sp,#0x10]
	str         x8,[x9]
	ldr         x8,[sp,#0x18]
	add         x8,x8,#8
	str         x8,[sp,#0x18]
	ldr         x8,[sp,#0x10]
	add         x8,x8,#4
	str         x8,[sp,#0x10]
	ldr         x9,[sp,#0x10]
	mov         w8,#0x61
	strb        w8,[x9]
	ldr         x8,[sp,#0x10]
	add         x8,x8,#1
	str         x8,[sp,#0x10]
	ldr         x9,[sp,#0x10]
	mov         w8,#0x76
	strb        w8,[x9]
	ldr         x8,[sp,#0x10]
	add         x8,x8,#1
	str         x8,[sp,#0x10]
	ldr         x9,[sp,#0x10]
	mov         w8,#0x63
	strb        w8,[x9]
	ldr         x8,[sp,#0x10]
	add         x8,x8,#1
	str         x8,[sp,#0x10]
	ldr         x9,[sp,#0x10]
	mov         w8,#0x31
	strb        w8,[x9]
	ldr         x8,[sp,#0x10]
	add         x8,x8,#1
	str         x8,[sp,#0x10]

; 1501 :             }

	b           |$LN103@mp4e_flush|
|$LN102@mp4e_flush|

; 1502 :             else
; 1503 :             {
; 1504 :                 ATOM(BOX_hvc1);

	ldr         x9,[sp,#0x18]
	ldr         x8,[sp,#0x10]
	str         x8,[x9]
	ldr         x8,[sp,#0x18]
	add         x8,x8,#8
	str         x8,[sp,#0x18]
	ldr         x8,[sp,#0x10]
	add         x8,x8,#4
	str         x8,[sp,#0x10]
	ldr         x9,[sp,#0x10]
	mov         w8,#0x68
	strb        w8,[x9]
	ldr         x8,[sp,#0x10]
	add         x8,x8,#1
	str         x8,[sp,#0x10]
	ldr         x9,[sp,#0x10]
	mov         w8,#0x76
	strb        w8,[x9]
	ldr         x8,[sp,#0x10]
	add         x8,x8,#1
	str         x8,[sp,#0x10]
	ldr         x9,[sp,#0x10]
	mov         w8,#0x63
	strb        w8,[x9]
	ldr         x8,[sp,#0x10]
	add         x8,x8,#1
	str         x8,[sp,#0x10]
	ldr         x9,[sp,#0x10]
	mov         w8,#0x31
	strb        w8,[x9]
	ldr         x8,[sp,#0x10]
	add         x8,x8,#1
	str         x8,[sp,#0x10]
|$LN103@mp4e_flush|

; 1505 :             }
; 1506 :             // VisualSampleEntry  8.16.2
; 1507 :             // extends SampleEntry
; 1508 :             WRITE_2(0); // reserved

	ldr         x9,[sp,#0x10]
	mov         w8,#0
	strb        w8,[x9]
	ldr         x8,[sp,#0x10]
	add         x8,x8,#1
	str         x8,[sp,#0x10]
	ldr         x9,[sp,#0x10]
	mov         w8,#0
	strb        w8,[x9]
	ldr         x8,[sp,#0x10]
	add         x8,x8,#1
	str         x8,[sp,#0x10]

; 1509 :             WRITE_2(0); // reserved

	ldr         x9,[sp,#0x10]
	mov         w8,#0
	strb        w8,[x9]
	ldr         x8,[sp,#0x10]
	add         x8,x8,#1
	str         x8,[sp,#0x10]
	ldr         x9,[sp,#0x10]
	mov         w8,#0
	strb        w8,[x9]
	ldr         x8,[sp,#0x10]
	add         x8,x8,#1
	str         x8,[sp,#0x10]

; 1510 :             WRITE_2(0); // reserved

	ldr         x9,[sp,#0x10]
	mov         w8,#0
	strb        w8,[x9]
	ldr         x8,[sp,#0x10]
	add         x8,x8,#1
	str         x8,[sp,#0x10]
	ldr         x9,[sp,#0x10]
	mov         w8,#0
	strb        w8,[x9]
	ldr         x8,[sp,#0x10]
	add         x8,x8,#1
	str         x8,[sp,#0x10]

; 1511 :             WRITE_2(1); // data_reference_index

	ldr         x9,[sp,#0x10]
	mov         w8,#0
	strb        w8,[x9]
	ldr         x8,[sp,#0x10]
	add         x8,x8,#1
	str         x8,[sp,#0x10]
	ldr         x9,[sp,#0x10]
	mov         w8,#1
	strb        w8,[x9]
	ldr         x8,[sp,#0x10]
	add         x8,x8,#1
	str         x8,[sp,#0x10]

; 1512 : 
; 1513 :             WRITE_2(0); // pre_defined

	ldr         x9,[sp,#0x10]
	mov         w8,#0
	strb        w8,[x9]
	ldr         x8,[sp,#0x10]
	add         x8,x8,#1
	str         x8,[sp,#0x10]
	ldr         x9,[sp,#0x10]
	mov         w8,#0
	strb        w8,[x9]
	ldr         x8,[sp,#0x10]
	add         x8,x8,#1
	str         x8,[sp,#0x10]

; 1514 :             WRITE_2(0); // reserved

	ldr         x9,[sp,#0x10]
	mov         w8,#0
	strb        w8,[x9]
	ldr         x8,[sp,#0x10]
	add         x8,x8,#1
	str         x8,[sp,#0x10]
	ldr         x9,[sp,#0x10]
	mov         w8,#0
	strb        w8,[x9]
	ldr         x8,[sp,#0x10]
	add         x8,x8,#1
	str         x8,[sp,#0x10]

; 1515 :             WRITE_4(0); // pre_defined

	ldr         x9,[sp,#0x10]
	mov         w8,#0
	strb        w8,[x9]
	ldr         x8,[sp,#0x10]
	add         x8,x8,#1
	str         x8,[sp,#0x10]
	ldr         x9,[sp,#0x10]
	mov         w8,#0
	strb        w8,[x9]
	ldr         x8,[sp,#0x10]
	add         x8,x8,#1
	str         x8,[sp,#0x10]
	ldr         x9,[sp,#0x10]
	mov         w8,#0
	strb        w8,[x9]
	ldr         x8,[sp,#0x10]
	add         x8,x8,#1
	str         x8,[sp,#0x10]
	ldr         x9,[sp,#0x10]
	mov         w8,#0
	strb        w8,[x9]
	ldr         x8,[sp,#0x10]
	add         x8,x8,#1
	str         x8,[sp,#0x10]

; 1516 :             WRITE_4(0); // pre_defined

	ldr         x9,[sp,#0x10]
	mov         w8,#0
	strb        w8,[x9]
	ldr         x8,[sp,#0x10]
	add         x8,x8,#1
	str         x8,[sp,#0x10]
	ldr         x9,[sp,#0x10]
	mov         w8,#0
	strb        w8,[x9]
	ldr         x8,[sp,#0x10]
	add         x8,x8,#1
	str         x8,[sp,#0x10]
	ldr         x9,[sp,#0x10]
	mov         w8,#0
	strb        w8,[x9]
	ldr         x8,[sp,#0x10]
	add         x8,x8,#1
	str         x8,[sp,#0x10]
	ldr         x9,[sp,#0x10]
	mov         w8,#0
	strb        w8,[x9]
	ldr         x8,[sp,#0x10]
	add         x8,x8,#1
	str         x8,[sp,#0x10]

; 1517 :             WRITE_4(0); // pre_defined

	ldr         x9,[sp,#0x10]
	mov         w8,#0
	strb        w8,[x9]
	ldr         x8,[sp,#0x10]
	add         x8,x8,#1
	str         x8,[sp,#0x10]
	ldr         x9,[sp,#0x10]
	mov         w8,#0
	strb        w8,[x9]
	ldr         x8,[sp,#0x10]
	add         x8,x8,#1
	str         x8,[sp,#0x10]
	ldr         x9,[sp,#0x10]
	mov         w8,#0
	strb        w8,[x9]
	ldr         x8,[sp,#0x10]
	add         x8,x8,#1
	str         x8,[sp,#0x10]
	ldr         x9,[sp,#0x10]
	mov         w8,#0
	strb        w8,[x9]
	ldr         x8,[sp,#0x10]
	add         x8,x8,#1
	str         x8,[sp,#0x10]

; 1518 :             WRITE_2(tr->info.u.v.width);

	ldr         x8,[sp,#0x28]
	add         x8,x8,#0x14
	ldr         w8,[x8]
	asr         w8,w8,#8
	uxtb        w9,w8
	ldr         x8,[sp,#0x10]
	strb        w9,[x8]
	ldr         x8,[sp,#0x10]
	add         x8,x8,#1
	str         x8,[sp,#0x10]
	ldr         x8,[sp,#0x28]
	add         x8,x8,#0x14
	ldr         w8,[x8]
	uxtb        w9,w8
	ldr         x8,[sp,#0x10]
	strb        w9,[x8]
	ldr         x8,[sp,#0x10]
	add         x8,x8,#1
	str         x8,[sp,#0x10]

; 1519 :             WRITE_2(tr->info.u.v.height);

	ldr         x8,[sp,#0x28]
	add         x8,x8,#0x14
	add         x8,x8,#4
	ldr         w8,[x8]
	asr         w8,w8,#8
	uxtb        w9,w8
	ldr         x8,[sp,#0x10]
	strb        w9,[x8]
	ldr         x8,[sp,#0x10]
	add         x8,x8,#1
	str         x8,[sp,#0x10]
	ldr         x8,[sp,#0x28]
	add         x8,x8,#0x14
	add         x8,x8,#4
	ldr         w8,[x8]
	uxtb        w9,w8
	ldr         x8,[sp,#0x10]
	strb        w9,[x8]
	ldr         x8,[sp,#0x10]
	add         x8,x8,#1
	str         x8,[sp,#0x10]

; 1520 :             WRITE_4(0x00480000); // horizresolution = 72 dpi

	ldr         x9,[sp,#0x10]
	mov         w8,#0
	strb        w8,[x9]
	ldr         x8,[sp,#0x10]
	add         x8,x8,#1
	str         x8,[sp,#0x10]
	ldr         x9,[sp,#0x10]
	mov         w8,#0x48
	strb        w8,[x9]
	ldr         x8,[sp,#0x10]
	add         x8,x8,#1
	str         x8,[sp,#0x10]
	ldr         x9,[sp,#0x10]
	mov         w8,#0
	strb        w8,[x9]
	ldr         x8,[sp,#0x10]
	add         x8,x8,#1
	str         x8,[sp,#0x10]
	ldr         x9,[sp,#0x10]
	mov         w8,#0
	strb        w8,[x9]
	ldr         x8,[sp,#0x10]
	add         x8,x8,#1
	str         x8,[sp,#0x10]

; 1521 :             WRITE_4(0x00480000); // vertresolution  = 72 dpi

	ldr         x9,[sp,#0x10]
	mov         w8,#0
	strb        w8,[x9]
	ldr         x8,[sp,#0x10]
	add         x8,x8,#1
	str         x8,[sp,#0x10]
	ldr         x9,[sp,#0x10]
	mov         w8,#0x48
	strb        w8,[x9]
	ldr         x8,[sp,#0x10]
	add         x8,x8,#1
	str         x8,[sp,#0x10]
	ldr         x9,[sp,#0x10]
	mov         w8,#0
	strb        w8,[x9]
	ldr         x8,[sp,#0x10]
	add         x8,x8,#1
	str         x8,[sp,#0x10]
	ldr         x9,[sp,#0x10]
	mov         w8,#0
	strb        w8,[x9]
	ldr         x8,[sp,#0x10]
	add         x8,x8,#1
	str         x8,[sp,#0x10]

; 1522 :             WRITE_4(0); // reserved

	ldr         x9,[sp,#0x10]
	mov         w8,#0
	strb        w8,[x9]
	ldr         x8,[sp,#0x10]
	add         x8,x8,#1
	str         x8,[sp,#0x10]
	ldr         x9,[sp,#0x10]
	mov         w8,#0
	strb        w8,[x9]
	ldr         x8,[sp,#0x10]
	add         x8,x8,#1
	str         x8,[sp,#0x10]
	ldr         x9,[sp,#0x10]
	mov         w8,#0
	strb        w8,[x9]
	ldr         x8,[sp,#0x10]
	add         x8,x8,#1
	str         x8,[sp,#0x10]
	ldr         x9,[sp,#0x10]
	mov         w8,#0
	strb        w8,[x9]
	ldr         x8,[sp,#0x10]
	add         x8,x8,#1
	str         x8,[sp,#0x10]

; 1523 :             WRITE_2(1); // frame_count

	ldr         x9,[sp,#0x10]
	mov         w8,#0
	strb        w8,[x9]
	ldr         x8,[sp,#0x10]
	add         x8,x8,#1
	str         x8,[sp,#0x10]
	ldr         x9,[sp,#0x10]
	mov         w8,#1
	strb        w8,[x9]
	ldr         x8,[sp,#0x10]
	add         x8,x8,#1
	str         x8,[sp,#0x10]

; 1524 :             for (i = 0; i < 32; i++)

	mov         w8,#0
	str         w8,[sp,#0x20]
	b           |$LN27@mp4e_flush|
|$LN25@mp4e_flush|
	ldr         w8,[sp,#0x20]
	add         w8,w8,#1
	str         w8,[sp,#0x20]
|$LN27@mp4e_flush|
	ldr         w8,[sp,#0x20]
	cmp         w8,#0x20
	bge         |$LN26@mp4e_flush|

; 1525 :             {
; 1526 :                 WRITE_1(0); //  compressorname

	ldr         x9,[sp,#0x10]
	mov         w8,#0
	strb        w8,[x9]
	ldr         x8,[sp,#0x10]
	add         x8,x8,#1
	str         x8,[sp,#0x10]

; 1527 :             }

	b           |$LN25@mp4e_flush|
|$LN26@mp4e_flush|

; 1528 :             WRITE_2(24); // depth

	ldr         x9,[sp,#0x10]
	mov         w8,#0
	strb        w8,[x9]
	ldr         x8,[sp,#0x10]
	add         x8,x8,#1
	str         x8,[sp,#0x10]
	ldr         x9,[sp,#0x10]
	mov         w8,#0x18
	strb        w8,[x9]
	ldr         x8,[sp,#0x10]
	add         x8,x8,#1
	str         x8,[sp,#0x10]

; 1529 :             WRITE_2(-1); // pre_defined

	ldr         x9,[sp,#0x10]
	mov         w8,#0xFF
	strb        w8,[x9]
	ldr         x8,[sp,#0x10]
	add         x8,x8,#1
	str         x8,[sp,#0x10]
	ldr         x9,[sp,#0x10]
	mov         w8,#0xFF
	strb        w8,[x9]
	ldr         x8,[sp,#0x10]
	add         x8,x8,#1
	str         x8,[sp,#0x10]

; 1530 : 
; 1531 :             if (MP4_OBJECT_TYPE_AVC == tr->info.object_type_indication)

	ldr         x8,[sp,#0x28]
	ldr         w9,[x8]
	mov         w8,#0x21
	cmp         w8,w9
	bne         |$LN104@mp4e_flush|

; 1532 :             {
; 1533 :                 ATOM(BOX_avcC);

	ldr         x9,[sp,#0x18]
	ldr         x8,[sp,#0x10]
	str         x8,[x9]
	ldr         x8,[sp,#0x18]
	add         x8,x8,#8
	str         x8,[sp,#0x18]
	ldr         x8,[sp,#0x10]
	add         x8,x8,#4
	str         x8,[sp,#0x10]
	ldr         x9,[sp,#0x10]
	mov         w8,#0x61
	strb        w8,[x9]
	ldr         x8,[sp,#0x10]
	add         x8,x8,#1
	str         x8,[sp,#0x10]
	ldr         x9,[sp,#0x10]
	mov         w8,#0x76
	strb        w8,[x9]
	ldr         x8,[sp,#0x10]
	add         x8,x8,#1
	str         x8,[sp,#0x10]
	ldr         x9,[sp,#0x10]
	mov         w8,#0x63
	strb        w8,[x9]
	ldr         x8,[sp,#0x10]
	add         x8,x8,#1
	str         x8,[sp,#0x10]
	ldr         x9,[sp,#0x10]
	mov         w8,#0x43
	strb        w8,[x9]
	ldr         x8,[sp,#0x10]
	add         x8,x8,#1
	str         x8,[sp,#0x10]

; 1534 :                 // AVCDecoderConfigurationRecord 5.2.4.1.1
; 1535 :                 WRITE_1(1); // configurationVersion

	ldr         x9,[sp,#0x10]
	mov         w8,#1
	strb        w8,[x9]
	ldr         x8,[sp,#0x10]
	add         x8,x8,#1
	str         x8,[sp,#0x10]

; 1536 :                 WRITE_1(tr->vsps.data[2 + 1]);

	ldr         x8,[sp,#0x28]
	add         x8,x8,#0x40
	ldr         x8,[x8]
	add         x8,x8,#3
	ldr         x9,[sp,#0x10]
	ldrb        w8,[x8]
	strb        w8,[x9]
	ldr         x8,[sp,#0x10]
	add         x8,x8,#1
	str         x8,[sp,#0x10]

; 1537 :                 WRITE_1(tr->vsps.data[2 + 2]);

	ldr         x8,[sp,#0x28]
	add         x8,x8,#0x40
	ldr         x8,[x8]
	add         x8,x8,#4
	ldr         x9,[sp,#0x10]
	ldrb        w8,[x8]
	strb        w8,[x9]
	ldr         x8,[sp,#0x10]
	add         x8,x8,#1
	str         x8,[sp,#0x10]

; 1538 :                 WRITE_1(tr->vsps.data[2 + 3]);

	ldr         x8,[sp,#0x28]
	add         x8,x8,#0x40
	ldr         x8,[x8]
	add         x8,x8,#5
	ldr         x9,[sp,#0x10]
	ldrb        w8,[x8]
	strb        w8,[x9]
	ldr         x8,[sp,#0x10]
	add         x8,x8,#1
	str         x8,[sp,#0x10]

; 1539 :                 WRITE_1(255); // 0xfc + NALU_len - 1

	ldr         x9,[sp,#0x10]
	mov         w8,#0xFF
	strb        w8,[x9]
	ldr         x8,[sp,#0x10]
	add         x8,x8,#1
	str         x8,[sp,#0x10]

; 1540 :                 WRITE_1(0xe0 | numOfSequenceParameterSets);

	ldr         w8,[sp,#0x98]
	orr         w8,w8,#0xE0
	uxtb        w9,w8
	ldr         x8,[sp,#0x10]
	strb        w9,[x8]
	ldr         x8,[sp,#0x10]
	add         x8,x8,#1
	str         x8,[sp,#0x10]

; 1541 :                 for (i = 0; i < tr->vsps.bytes; i++)

	mov         w8,#0
	str         w8,[sp,#0x20]
	b           |$LN30@mp4e_flush|
|$LN28@mp4e_flush|
	ldr         w8,[sp,#0x20]
	add         w8,w8,#1
	str         w8,[sp,#0x20]
|$LN30@mp4e_flush|
	ldr         x8,[sp,#0x28]
	add         x8,x8,#0x40
	add         x8,x8,#8
	ldr         w9,[x8]
	ldr         w8,[sp,#0x20]
	cmp         w8,w9
	bge         |$LN29@mp4e_flush|

; 1542 :                 {
; 1543 :                     WRITE_1(tr->vsps.data[i]);

	ldr         x8,[sp,#0x28]
	add         x10,x8,#0x40
	ldr         w8,[sp,#0x20]
	sxtw        x9,w8
	mov         x8,#1
	mul         x9,x9,x8
	ldr         x8,[x10]
	add         x8,x8,x9
	ldr         x9,[sp,#0x10]
	ldrb        w8,[x8]
	strb        w8,[x9]
	ldr         x8,[sp,#0x10]
	add         x8,x8,#1
	str         x8,[sp,#0x10]

; 1544 :                 }

	b           |$LN28@mp4e_flush|
|$LN29@mp4e_flush|

; 1545 :                 WRITE_1(numOfPictureParameterSets);

	ldr         w8,[sp,#0x9C]
	uxtb        w9,w8
	ldr         x8,[sp,#0x10]
	strb        w9,[x8]
	ldr         x8,[sp,#0x10]
	add         x8,x8,#1
	str         x8,[sp,#0x10]

; 1546 :                 for (i = 0; i < tr->vpps.bytes; i++)

	mov         w8,#0
	str         w8,[sp,#0x20]
	b           |$LN33@mp4e_flush|
|$LN31@mp4e_flush|
	ldr         w8,[sp,#0x20]
	add         w8,w8,#1
	str         w8,[sp,#0x20]
|$LN33@mp4e_flush|
	ldr         x8,[sp,#0x28]
	add         x8,x8,#0x50
	add         x8,x8,#8
	ldr         w9,[x8]
	ldr         w8,[sp,#0x20]
	cmp         w8,w9
	bge         |$LN32@mp4e_flush|

; 1547 :                 {
; 1548 :                     WRITE_1(tr->vpps.data[i]);

	ldr         x8,[sp,#0x28]
	add         x10,x8,#0x50
	ldr         w8,[sp,#0x20]
	sxtw        x9,w8
	mov         x8,#1
	mul         x9,x9,x8
	ldr         x8,[x10]
	add         x8,x8,x9
	ldr         x9,[sp,#0x10]
	ldrb        w8,[x8]
	strb        w8,[x9]
	ldr         x8,[sp,#0x10]
	add         x8,x8,#1
	str         x8,[sp,#0x10]

; 1549 :                 }

	b           |$LN31@mp4e_flush|
|$LN32@mp4e_flush|

; 1550 :             }

	b           |$LN105@mp4e_flush|
|$LN104@mp4e_flush|

; 1551 :             else
; 1552 :             {
; 1553 :                 int numOfVPS = items_count(&tr->vpps);

	ldr         x8,[sp,#0x28]
	add         x0,x8,#0x50
	bl          |?items_count@@YAHPEAUminimp4_vector_t@@@Z|
	mov         w0,w0
	str         w0,[sp,#0xAC]

; 1554 :                 ATOM(BOX_hvcC);

	ldr         x9,[sp,#0x18]
	ldr         x8,[sp,#0x10]
	str         x8,[x9]
	ldr         x8,[sp,#0x18]
	add         x8,x8,#8
	str         x8,[sp,#0x18]
	ldr         x8,[sp,#0x10]
	add         x8,x8,#4
	str         x8,[sp,#0x10]
	ldr         x9,[sp,#0x10]
	mov         w8,#0x68
	strb        w8,[x9]
	ldr         x8,[sp,#0x10]
	add         x8,x8,#1
	str         x8,[sp,#0x10]
	ldr         x9,[sp,#0x10]
	mov         w8,#0x76
	strb        w8,[x9]
	ldr         x8,[sp,#0x10]
	add         x8,x8,#1
	str         x8,[sp,#0x10]
	ldr         x9,[sp,#0x10]
	mov         w8,#0x63
	strb        w8,[x9]
	ldr         x8,[sp,#0x10]
	add         x8,x8,#1
	str         x8,[sp,#0x10]
	ldr         x9,[sp,#0x10]
	mov         w8,#0x43
	strb        w8,[x9]
	ldr         x8,[sp,#0x10]
	add         x8,x8,#1
	str         x8,[sp,#0x10]

; 1555 :                 // TODO: read actual params from stream
; 1556 :                 WRITE_1(1);    // configurationVersion

	ldr         x9,[sp,#0x10]
	mov         w8,#1
	strb        w8,[x9]
	ldr         x8,[sp,#0x10]
	add         x8,x8,#1
	str         x8,[sp,#0x10]

; 1557 :                 WRITE_1(1);    // Profile Space (2), Tier (1), Profile (5)

	ldr         x9,[sp,#0x10]
	mov         w8,#1
	strb        w8,[x9]
	ldr         x8,[sp,#0x10]
	add         x8,x8,#1
	str         x8,[sp,#0x10]

; 1558 :                 WRITE_4(0x60000000); // Profile Compatibility

	ldr         x9,[sp,#0x10]
	mov         w8,#0x60
	strb        w8,[x9]
	ldr         x8,[sp,#0x10]
	add         x8,x8,#1
	str         x8,[sp,#0x10]
	ldr         x9,[sp,#0x10]
	mov         w8,#0
	strb        w8,[x9]
	ldr         x8,[sp,#0x10]
	add         x8,x8,#1
	str         x8,[sp,#0x10]
	ldr         x9,[sp,#0x10]
	mov         w8,#0
	strb        w8,[x9]
	ldr         x8,[sp,#0x10]
	add         x8,x8,#1
	str         x8,[sp,#0x10]
	ldr         x9,[sp,#0x10]
	mov         w8,#0
	strb        w8,[x9]
	ldr         x8,[sp,#0x10]
	add         x8,x8,#1
	str         x8,[sp,#0x10]

; 1559 :                 WRITE_2(0);    // progressive, interlaced, non packed constraint, frame only constraint flags

	ldr         x9,[sp,#0x10]
	mov         w8,#0
	strb        w8,[x9]
	ldr         x8,[sp,#0x10]
	add         x8,x8,#1
	str         x8,[sp,#0x10]
	ldr         x9,[sp,#0x10]
	mov         w8,#0
	strb        w8,[x9]
	ldr         x8,[sp,#0x10]
	add         x8,x8,#1
	str         x8,[sp,#0x10]

; 1560 :                 WRITE_4(0);    // constraint indicator flags

	ldr         x9,[sp,#0x10]
	mov         w8,#0
	strb        w8,[x9]
	ldr         x8,[sp,#0x10]
	add         x8,x8,#1
	str         x8,[sp,#0x10]
	ldr         x9,[sp,#0x10]
	mov         w8,#0
	strb        w8,[x9]
	ldr         x8,[sp,#0x10]
	add         x8,x8,#1
	str         x8,[sp,#0x10]
	ldr         x9,[sp,#0x10]
	mov         w8,#0
	strb        w8,[x9]
	ldr         x8,[sp,#0x10]
	add         x8,x8,#1
	str         x8,[sp,#0x10]
	ldr         x9,[sp,#0x10]
	mov         w8,#0
	strb        w8,[x9]
	ldr         x8,[sp,#0x10]
	add         x8,x8,#1
	str         x8,[sp,#0x10]

; 1561 :                 WRITE_1(0);    // level_idc

	ldr         x9,[sp,#0x10]
	mov         w8,#0
	strb        w8,[x9]
	ldr         x8,[sp,#0x10]
	add         x8,x8,#1
	str         x8,[sp,#0x10]

; 1562 :                 WRITE_2(0xf000); // Min Spatial Segmentation

	ldr         x9,[sp,#0x10]
	mov         w8,#0xF0
	strb        w8,[x9]
	ldr         x8,[sp,#0x10]
	add         x8,x8,#1
	str         x8,[sp,#0x10]
	ldr         x9,[sp,#0x10]
	mov         w8,#0
	strb        w8,[x9]
	ldr         x8,[sp,#0x10]
	add         x8,x8,#1
	str         x8,[sp,#0x10]

; 1563 :                 WRITE_1(0xfc); // Parallelism Type

	ldr         x9,[sp,#0x10]
	mov         w8,#0xFC
	strb        w8,[x9]
	ldr         x8,[sp,#0x10]
	add         x8,x8,#1
	str         x8,[sp,#0x10]

; 1564 :                 WRITE_1(0xfc); // Chroma Format

	ldr         x9,[sp,#0x10]
	mov         w8,#0xFC
	strb        w8,[x9]
	ldr         x8,[sp,#0x10]
	add         x8,x8,#1
	str         x8,[sp,#0x10]

; 1565 :                 WRITE_1(0xf8); // Luma Depth

	ldr         x9,[sp,#0x10]
	mov         w8,#0xF8
	strb        w8,[x9]
	ldr         x8,[sp,#0x10]
	add         x8,x8,#1
	str         x8,[sp,#0x10]

; 1566 :                 WRITE_1(0xf8); // Chroma Depth

	ldr         x9,[sp,#0x10]
	mov         w8,#0xF8
	strb        w8,[x9]
	ldr         x8,[sp,#0x10]
	add         x8,x8,#1
	str         x8,[sp,#0x10]

; 1567 :                 WRITE_2(0);    // Avg Frame Rate

	ldr         x9,[sp,#0x10]
	mov         w8,#0
	strb        w8,[x9]
	ldr         x8,[sp,#0x10]
	add         x8,x8,#1
	str         x8,[sp,#0x10]
	ldr         x9,[sp,#0x10]
	mov         w8,#0
	strb        w8,[x9]
	ldr         x8,[sp,#0x10]
	add         x8,x8,#1
	str         x8,[sp,#0x10]

; 1568 :                 WRITE_1(3);    // ConstantFrameRate (2), NumTemporalLayers (3), TemporalIdNested (1), LengthSizeMinusOne (2)

	ldr         x9,[sp,#0x10]
	mov         w8,#3
	strb        w8,[x9]
	ldr         x8,[sp,#0x10]
	add         x8,x8,#1
	str         x8,[sp,#0x10]

; 1569 : 
; 1570 :                 WRITE_1(3);    // Num Of Arrays

	ldr         x9,[sp,#0x10]
	mov         w8,#3
	strb        w8,[x9]
	ldr         x8,[sp,#0x10]
	add         x8,x8,#1
	str         x8,[sp,#0x10]

; 1571 :                 WRITE_1((1 << 7) | (HEVC_NAL_VPS & 0x3f)); // Array Completeness + NAL Unit Type

	ldr         x9,[sp,#0x10]
	mov         w8,#0xA0
	strb        w8,[x9]
	ldr         x8,[sp,#0x10]
	add         x8,x8,#1
	str         x8,[sp,#0x10]

; 1572 :                 WRITE_2(numOfVPS);

	ldr         w8,[sp,#0xAC]
	asr         w8,w8,#8
	uxtb        w9,w8
	ldr         x8,[sp,#0x10]
	strb        w9,[x8]
	ldr         x8,[sp,#0x10]
	add         x8,x8,#1
	str         x8,[sp,#0x10]
	ldr         w8,[sp,#0xAC]
	uxtb        w9,w8
	ldr         x8,[sp,#0x10]
	strb        w9,[x8]
	ldr         x8,[sp,#0x10]
	add         x8,x8,#1
	str         x8,[sp,#0x10]

; 1573 :                 for (i = 0; i < tr->vvps.bytes; i++)

	mov         w8,#0
	str         w8,[sp,#0x20]
	b           |$LN36@mp4e_flush|
|$LN34@mp4e_flush|
	ldr         w8,[sp,#0x20]
	add         w8,w8,#1
	str         w8,[sp,#0x20]
|$LN36@mp4e_flush|
	ldr         x8,[sp,#0x28]
	add         x8,x8,#0x60
	add         x8,x8,#8
	ldr         w9,[x8]
	ldr         w8,[sp,#0x20]
	cmp         w8,w9
	bge         |$LN35@mp4e_flush|

; 1574 :                 {
; 1575 :                     WRITE_1(tr->vvps.data[i]);

	ldr         x8,[sp,#0x28]
	add         x10,x8,#0x60
	ldr         w8,[sp,#0x20]
	sxtw        x9,w8
	mov         x8,#1
	mul         x9,x9,x8
	ldr         x8,[x10]
	add         x8,x8,x9
	ldr         x9,[sp,#0x10]
	ldrb        w8,[x8]
	strb        w8,[x9]
	ldr         x8,[sp,#0x10]
	add         x8,x8,#1
	str         x8,[sp,#0x10]

; 1576 :                 }

	b           |$LN34@mp4e_flush|
|$LN35@mp4e_flush|

; 1577 :                 WRITE_1((1 << 7) | (HEVC_NAL_SPS & 0x3f));

	ldr         x9,[sp,#0x10]
	mov         w8,#0xA1
	strb        w8,[x9]
	ldr         x8,[sp,#0x10]
	add         x8,x8,#1
	str         x8,[sp,#0x10]

; 1578 :                 WRITE_2(numOfSequenceParameterSets);

	ldr         w8,[sp,#0x98]
	asr         w8,w8,#8
	uxtb        w9,w8
	ldr         x8,[sp,#0x10]
	strb        w9,[x8]
	ldr         x8,[sp,#0x10]
	add         x8,x8,#1
	str         x8,[sp,#0x10]
	ldr         w8,[sp,#0x98]
	uxtb        w9,w8
	ldr         x8,[sp,#0x10]
	strb        w9,[x8]
	ldr         x8,[sp,#0x10]
	add         x8,x8,#1
	str         x8,[sp,#0x10]

; 1579 :                 for (i = 0; i < tr->vsps.bytes; i++)

	mov         w8,#0
	str         w8,[sp,#0x20]
	b           |$LN39@mp4e_flush|
|$LN37@mp4e_flush|
	ldr         w8,[sp,#0x20]
	add         w8,w8,#1
	str         w8,[sp,#0x20]
|$LN39@mp4e_flush|
	ldr         x8,[sp,#0x28]
	add         x8,x8,#0x40
	add         x8,x8,#8
	ldr         w9,[x8]
	ldr         w8,[sp,#0x20]
	cmp         w8,w9
	bge         |$LN38@mp4e_flush|

; 1580 :                 {
; 1581 :                     WRITE_1(tr->vsps.data[i]);

	ldr         x8,[sp,#0x28]
	add         x10,x8,#0x40
	ldr         w8,[sp,#0x20]
	sxtw        x9,w8
	mov         x8,#1
	mul         x9,x9,x8
	ldr         x8,[x10]
	add         x8,x8,x9
	ldr         x9,[sp,#0x10]
	ldrb        w8,[x8]
	strb        w8,[x9]
	ldr         x8,[sp,#0x10]
	add         x8,x8,#1
	str         x8,[sp,#0x10]

; 1582 :                 }

	b           |$LN37@mp4e_flush|
|$LN38@mp4e_flush|

; 1583 :                 WRITE_1((1 << 7) | (HEVC_NAL_PPS & 0x3f));

	ldr         x9,[sp,#0x10]
	mov         w8,#0xA2
	strb        w8,[x9]
	ldr         x8,[sp,#0x10]
	add         x8,x8,#1
	str         x8,[sp,#0x10]

; 1584 :                 WRITE_2(numOfPictureParameterSets);

	ldr         w8,[sp,#0x9C]
	asr         w8,w8,#8
	uxtb        w9,w8
	ldr         x8,[sp,#0x10]
	strb        w9,[x8]
	ldr         x8,[sp,#0x10]
	add         x8,x8,#1
	str         x8,[sp,#0x10]
	ldr         w8,[sp,#0x9C]
	uxtb        w9,w8
	ldr         x8,[sp,#0x10]
	strb        w9,[x8]
	ldr         x8,[sp,#0x10]
	add         x8,x8,#1
	str         x8,[sp,#0x10]

; 1585 :                 for (i = 0; i < tr->vpps.bytes; i++)

	mov         w8,#0
	str         w8,[sp,#0x20]
	b           |$LN42@mp4e_flush|
|$LN40@mp4e_flush|
	ldr         w8,[sp,#0x20]
	add         w8,w8,#1
	str         w8,[sp,#0x20]
|$LN42@mp4e_flush|
	ldr         x8,[sp,#0x28]
	add         x8,x8,#0x50
	add         x8,x8,#8
	ldr         w9,[x8]
	ldr         w8,[sp,#0x20]
	cmp         w8,w9
	bge         |$LN41@mp4e_flush|

; 1586 :                 {
; 1587 :                     WRITE_1(tr->vpps.data[i]);

	ldr         x8,[sp,#0x28]
	add         x10,x8,#0x50
	ldr         w8,[sp,#0x20]
	sxtw        x9,w8
	mov         x8,#1
	mul         x9,x9,x8
	ldr         x8,[x10]
	add         x8,x8,x9
	ldr         x9,[sp,#0x10]
	ldrb        w8,[x8]
	strb        w8,[x9]
	ldr         x8,[sp,#0x10]
	add         x8,x8,#1
	str         x8,[sp,#0x10]

; 1588 :                 }

	b           |$LN40@mp4e_flush|
|$LN41@mp4e_flush|
|$LN105@mp4e_flush|

; 1589 :             }
; 1590 : 
; 1591 :             END_ATOM;

	ldr         x8,[sp,#0x18]
	sub         x8,x8,#8
	str         x8,[sp,#0x18]
	ldr         x9,[sp,#0x10]
	ldr         x8,[sp,#0x18]
	ldr         x8,[x8]
	sub         x8,x9,x8
	asr         x8,x8,#0x18
	uxtb        w9,w8
	ldr         x8,[sp,#0x18]
	ldr         x8,[x8]
	strb        w9,[x8]
	ldr         x9,[sp,#0x10]
	ldr         x8,[sp,#0x18]
	ldr         x8,[x8]
	sub         x8,x9,x8
	asr         x8,x8,#0x10
	uxtb        w9,w8
	ldr         x8,[sp,#0x18]
	ldr         x8,[x8]
	add         x8,x8,#1
	strb        w9,[x8]
	ldr         x9,[sp,#0x10]
	ldr         x8,[sp,#0x18]
	ldr         x8,[x8]
	sub         x8,x9,x8
	asr         x8,x8,#8
	uxtb        w9,w8
	ldr         x8,[sp,#0x18]
	ldr         x8,[x8]
	add         x8,x8,#2
	strb        w9,[x8]
	ldr         x9,[sp,#0x10]
	ldr         x8,[sp,#0x18]
	ldr         x8,[x8]
	sub         x8,x9,x8
	uxtb        w9,w8
	ldr         x8,[sp,#0x18]
	ldr         x8,[x8]
	add         x8,x8,#3
	strb        w9,[x8]

; 1592 :             END_ATOM;

	ldr         x8,[sp,#0x18]
	sub         x8,x8,#8
	str         x8,[sp,#0x18]
	ldr         x9,[sp,#0x10]
	ldr         x8,[sp,#0x18]
	ldr         x8,[x8]
	sub         x8,x9,x8
	asr         x8,x8,#0x18
	uxtb        w9,w8
	ldr         x8,[sp,#0x18]
	ldr         x8,[x8]
	strb        w9,[x8]
	ldr         x9,[sp,#0x10]
	ldr         x8,[sp,#0x18]
	ldr         x8,[x8]
	sub         x8,x9,x8
	asr         x8,x8,#0x10
	uxtb        w9,w8
	ldr         x8,[sp,#0x18]
	ldr         x8,[x8]
	add         x8,x8,#1
	strb        w9,[x8]
	ldr         x9,[sp,#0x10]
	ldr         x8,[sp,#0x18]
	ldr         x8,[x8]
	sub         x8,x9,x8
	asr         x8,x8,#8
	uxtb        w9,w8
	ldr         x8,[sp,#0x18]
	ldr         x8,[x8]
	add         x8,x8,#2
	strb        w9,[x8]
	ldr         x9,[sp,#0x10]
	ldr         x8,[sp,#0x18]
	ldr         x8,[x8]
	sub         x8,x9,x8
	uxtb        w9,w8
	ldr         x8,[sp,#0x18]
	ldr         x8,[x8]
	add         x8,x8,#3
	strb        w9,[x8]
|$LN100@mp4e_flush|

; 1593 :         }
; 1594 :         END_ATOM;

	ldr         x8,[sp,#0x18]
	sub         x8,x8,#8
	str         x8,[sp,#0x18]
	ldr         x9,[sp,#0x10]
	ldr         x8,[sp,#0x18]
	ldr         x8,[x8]
	sub         x8,x9,x8
	asr         x8,x8,#0x18
	uxtb        w9,w8
	ldr         x8,[sp,#0x18]
	ldr         x8,[x8]
	strb        w9,[x8]
	ldr         x9,[sp,#0x10]
	ldr         x8,[sp,#0x18]
	ldr         x8,[x8]
	sub         x8,x9,x8
	asr         x8,x8,#0x10
	uxtb        w9,w8
	ldr         x8,[sp,#0x18]
	ldr         x8,[x8]
	add         x8,x8,#1
	strb        w9,[x8]
	ldr         x9,[sp,#0x10]
	ldr         x8,[sp,#0x18]
	ldr         x8,[x8]
	sub         x8,x9,x8
	asr         x8,x8,#8
	uxtb        w9,w8
	ldr         x8,[sp,#0x18]
	ldr         x8,[x8]
	add         x8,x8,#2
	strb        w9,[x8]
	ldr         x9,[sp,#0x10]
	ldr         x8,[sp,#0x18]
	ldr         x8,[x8]
	sub         x8,x9,x8
	uxtb        w9,w8
	ldr         x8,[sp,#0x18]
	ldr         x8,[x8]
	add         x8,x8,#3
	strb        w9,[x8]

; 1595 : 
; 1596 :         /************************************************************************/
; 1597 :         /*      indexes                                                         */
; 1598 :         /************************************************************************/
; 1599 : 
; 1600 :         // Time to Sample Box
; 1601 :         ATOM_FULL(BOX_stts, 0);

	ldr         x9,[sp,#0x18]
	ldr         x8,[sp,#0x10]
	str         x8,[x9]
	ldr         x8,[sp,#0x18]
	add         x8,x8,#8
	str         x8,[sp,#0x18]
	ldr         x8,[sp,#0x10]
	add         x8,x8,#4
	str         x8,[sp,#0x10]
	ldr         x9,[sp,#0x10]
	mov         w8,#0x73
	strb        w8,[x9]
	ldr         x8,[sp,#0x10]
	add         x8,x8,#1
	str         x8,[sp,#0x10]
	ldr         x9,[sp,#0x10]
	mov         w8,#0x74
	strb        w8,[x9]
	ldr         x8,[sp,#0x10]
	add         x8,x8,#1
	str         x8,[sp,#0x10]
	ldr         x9,[sp,#0x10]
	mov         w8,#0x74
	strb        w8,[x9]
	ldr         x8,[sp,#0x10]
	add         x8,x8,#1
	str         x8,[sp,#0x10]
	ldr         x9,[sp,#0x10]
	mov         w8,#0x73
	strb        w8,[x9]
	ldr         x8,[sp,#0x10]
	add         x8,x8,#1
	str         x8,[sp,#0x10]
	ldr         x9,[sp,#0x10]
	mov         w8,#0
	strb        w8,[x9]
	ldr         x8,[sp,#0x10]
	add         x8,x8,#1
	str         x8,[sp,#0x10]
	ldr         x9,[sp,#0x10]
	mov         w8,#0
	strb        w8,[x9]
	ldr         x8,[sp,#0x10]
	add         x8,x8,#1
	str         x8,[sp,#0x10]
	ldr         x9,[sp,#0x10]
	mov         w8,#0
	strb        w8,[x9]
	ldr         x8,[sp,#0x10]
	add         x8,x8,#1
	str         x8,[sp,#0x10]
	ldr         x9,[sp,#0x10]
	mov         w8,#0
	strb        w8,[x9]
	ldr         x8,[sp,#0x10]
	add         x8,x8,#1
	str         x8,[sp,#0x10]

; 1602 :         {
; 1603 :             unsigned char* pentry_count = p;

	ldr         x8,[sp,#0x10]
	str         x8,[sp,#0xD0]

; 1604 :             int cnt = 1, entry_count = 0;

	mov         w8,#1
	str         w8,[sp,#0x60]
	mov         w8,#0
	str         w8,[sp,#0x70]

; 1605 :             WRITE_4(0);

	ldr         x9,[sp,#0x10]
	mov         w8,#0
	strb        w8,[x9]
	ldr         x8,[sp,#0x10]
	add         x8,x8,#1
	str         x8,[sp,#0x10]
	ldr         x9,[sp,#0x10]
	mov         w8,#0
	strb        w8,[x9]
	ldr         x8,[sp,#0x10]
	add         x8,x8,#1
	str         x8,[sp,#0x10]
	ldr         x9,[sp,#0x10]
	mov         w8,#0
	strb        w8,[x9]
	ldr         x8,[sp,#0x10]
	add         x8,x8,#1
	str         x8,[sp,#0x10]
	ldr         x9,[sp,#0x10]
	mov         w8,#0
	strb        w8,[x9]
	ldr         x8,[sp,#0x10]
	add         x8,x8,#1
	str         x8,[sp,#0x10]

; 1606 :             for (i = 0; i < samples_count; i++, cnt++)

	mov         w8,#0
	str         w8,[sp,#0x20]
	b           |$LN45@mp4e_flush|
|$LN43@mp4e_flush|
	ldr         w8,[sp,#0x20]
	add         w8,w8,#1
	str         w8,[sp,#0x20]
	ldr         w8,[sp,#0x60]
	add         w8,w8,#1
	str         w8,[sp,#0x60]
|$LN45@mp4e_flush|
	ldr         w9,[sp,#0x30]
	ldr         w8,[sp,#0x20]
	cmp         w8,w9
	bge         |$LN44@mp4e_flush|

; 1607 :             {
; 1608 :                 if (i == (samples_count - 1) || sample[i].duration != sample[i + 1].duration)

	ldr         w8,[sp,#0x30]
	sub         w9,w8,#1
	ldr         w8,[sp,#0x20]
	cmp         w8,w9
	beq         |$LN107@mp4e_flush|
	ldr         w8,[sp,#0x20]
	sxtw        x9,w8
	mov         x8,#0x18
	mul         x9,x9,x8
	ldr         x8,[sp,#0x40]
	add         x8,x8,x9
	add         x10,x8,#0x10
	ldr         w8,[sp,#0x20]
	add         w8,w8,#1
	sxtw        x9,w8
	mov         x8,#0x18
	mul         x9,x9,x8
	ldr         x8,[sp,#0x40]
	add         x8,x8,x9
	add         x8,x8,#0x10
	ldr         w9,[x8]
	ldr         w8,[x10]
	cmp         w8,w9
	beq         |$LN106@mp4e_flush|
|$LN107@mp4e_flush|

; 1609 :                 {
; 1610 :                     WRITE_4(cnt);

	ldr         w8,[sp,#0x60]
	asr         w8,w8,#0x18
	uxtb        w9,w8
	ldr         x8,[sp,#0x10]
	strb        w9,[x8]
	ldr         x8,[sp,#0x10]
	add         x8,x8,#1
	str         x8,[sp,#0x10]
	ldr         w8,[sp,#0x60]
	asr         w8,w8,#0x10
	uxtb        w9,w8
	ldr         x8,[sp,#0x10]
	strb        w9,[x8]
	ldr         x8,[sp,#0x10]
	add         x8,x8,#1
	str         x8,[sp,#0x10]
	ldr         w8,[sp,#0x60]
	asr         w8,w8,#8
	uxtb        w9,w8
	ldr         x8,[sp,#0x10]
	strb        w9,[x8]
	ldr         x8,[sp,#0x10]
	add         x8,x8,#1
	str         x8,[sp,#0x10]
	ldr         w8,[sp,#0x60]
	uxtb        w9,w8
	ldr         x8,[sp,#0x10]
	strb        w9,[x8]
	ldr         x8,[sp,#0x10]
	add         x8,x8,#1
	str         x8,[sp,#0x10]

; 1611 :                     WRITE_4(sample[i].duration);

	ldr         w8,[sp,#0x20]
	sxtw        x9,w8
	mov         x8,#0x18
	mul         x9,x9,x8
	ldr         x8,[sp,#0x40]
	add         x8,x8,x9
	add         x8,x8,#0x10
	ldr         w8,[x8]
	lsr         w8,w8,#0x18
	uxtb        w9,w8
	ldr         x8,[sp,#0x10]
	strb        w9,[x8]
	ldr         x8,[sp,#0x10]
	add         x8,x8,#1
	str         x8,[sp,#0x10]
	ldr         w8,[sp,#0x20]
	sxtw        x9,w8
	mov         x8,#0x18
	mul         x9,x9,x8
	ldr         x8,[sp,#0x40]
	add         x8,x8,x9
	add         x8,x8,#0x10
	ldr         w8,[x8]
	lsr         w8,w8,#0x10
	uxtb        w9,w8
	ldr         x8,[sp,#0x10]
	strb        w9,[x8]
	ldr         x8,[sp,#0x10]
	add         x8,x8,#1
	str         x8,[sp,#0x10]
	ldr         w8,[sp,#0x20]
	sxtw        x9,w8
	mov         x8,#0x18
	mul         x9,x9,x8
	ldr         x8,[sp,#0x40]
	add         x8,x8,x9
	add         x8,x8,#0x10
	ldr         w8,[x8]
	lsr         w8,w8,#8
	uxtb        w9,w8
	ldr         x8,[sp,#0x10]
	strb        w9,[x8]
	ldr         x8,[sp,#0x10]
	add         x8,x8,#1
	str         x8,[sp,#0x10]
	ldr         w8,[sp,#0x20]
	sxtw        x9,w8
	mov         x8,#0x18
	mul         x9,x9,x8
	ldr         x8,[sp,#0x40]
	add         x8,x8,x9
	add         x8,x8,#0x10
	ldr         w8,[x8]
	uxtb        w9,w8
	ldr         x8,[sp,#0x10]
	strb        w9,[x8]
	ldr         x8,[sp,#0x10]
	add         x8,x8,#1
	str         x8,[sp,#0x10]

; 1612 :                     cnt = 0;

	mov         w8,#0
	str         w8,[sp,#0x60]

; 1613 :                     entry_count++;

	ldr         w8,[sp,#0x70]
	add         w8,w8,#1
	str         w8,[sp,#0x70]
|$LN106@mp4e_flush|

; 1614 :                 }
; 1615 :             }

	b           |$LN43@mp4e_flush|
|$LN44@mp4e_flush|

; 1616 :             WR4(pentry_count, entry_count);

	ldr         w8,[sp,#0x70]
	asr         w8,w8,#0x18
	uxtb        w9,w8
	ldr         x8,[sp,#0xD0]
	strb        w9,[x8]
	ldr         w8,[sp,#0x70]
	asr         w8,w8,#0x10
	uxtb        w9,w8
	ldr         x8,[sp,#0xD0]
	add         x8,x8,#1
	strb        w9,[x8]
	ldr         w8,[sp,#0x70]
	asr         w8,w8,#8
	uxtb        w9,w8
	ldr         x8,[sp,#0xD0]
	add         x8,x8,#2
	strb        w9,[x8]
	ldr         w8,[sp,#0x70]
	uxtb        w9,w8
	ldr         x8,[sp,#0xD0]
	add         x8,x8,#3
	strb        w9,[x8]

; 1617 :         }
; 1618 :         END_ATOM;

	ldr         x8,[sp,#0x18]
	sub         x8,x8,#8
	str         x8,[sp,#0x18]
	ldr         x9,[sp,#0x10]
	ldr         x8,[sp,#0x18]
	ldr         x8,[x8]
	sub         x8,x9,x8
	asr         x8,x8,#0x18
	uxtb        w9,w8
	ldr         x8,[sp,#0x18]
	ldr         x8,[x8]
	strb        w9,[x8]
	ldr         x9,[sp,#0x10]
	ldr         x8,[sp,#0x18]
	ldr         x8,[x8]
	sub         x8,x9,x8
	asr         x8,x8,#0x10
	uxtb        w9,w8
	ldr         x8,[sp,#0x18]
	ldr         x8,[x8]
	add         x8,x8,#1
	strb        w9,[x8]
	ldr         x9,[sp,#0x10]
	ldr         x8,[sp,#0x18]
	ldr         x8,[x8]
	sub         x8,x9,x8
	asr         x8,x8,#8
	uxtb        w9,w8
	ldr         x8,[sp,#0x18]
	ldr         x8,[x8]
	add         x8,x8,#2
	strb        w9,[x8]
	ldr         x9,[sp,#0x10]
	ldr         x8,[sp,#0x18]
	ldr         x8,[x8]
	sub         x8,x9,x8
	uxtb        w9,w8
	ldr         x8,[sp,#0x18]
	ldr         x8,[x8]
	add         x8,x8,#3
	strb        w9,[x8]

; 1619 : 
; 1620 :         // Sample To Chunk Box
; 1621 :         ATOM_FULL(BOX_stsc, 0);

	ldr         x9,[sp,#0x18]
	ldr         x8,[sp,#0x10]
	str         x8,[x9]
	ldr         x8,[sp,#0x18]
	add         x8,x8,#8
	str         x8,[sp,#0x18]
	ldr         x8,[sp,#0x10]
	add         x8,x8,#4
	str         x8,[sp,#0x10]
	ldr         x9,[sp,#0x10]
	mov         w8,#0x73
	strb        w8,[x9]
	ldr         x8,[sp,#0x10]
	add         x8,x8,#1
	str         x8,[sp,#0x10]
	ldr         x9,[sp,#0x10]
	mov         w8,#0x74
	strb        w8,[x9]
	ldr         x8,[sp,#0x10]
	add         x8,x8,#1
	str         x8,[sp,#0x10]
	ldr         x9,[sp,#0x10]
	mov         w8,#0x73
	strb        w8,[x9]
	ldr         x8,[sp,#0x10]
	add         x8,x8,#1
	str         x8,[sp,#0x10]
	ldr         x9,[sp,#0x10]
	mov         w8,#0x63
	strb        w8,[x9]
	ldr         x8,[sp,#0x10]
	add         x8,x8,#1
	str         x8,[sp,#0x10]
	ldr         x9,[sp,#0x10]
	mov         w8,#0
	strb        w8,[x9]
	ldr         x8,[sp,#0x10]
	add         x8,x8,#1
	str         x8,[sp,#0x10]
	ldr         x9,[sp,#0x10]
	mov         w8,#0
	strb        w8,[x9]
	ldr         x8,[sp,#0x10]
	add         x8,x8,#1
	str         x8,[sp,#0x10]
	ldr         x9,[sp,#0x10]
	mov         w8,#0
	strb        w8,[x9]
	ldr         x8,[sp,#0x10]
	add         x8,x8,#1
	str         x8,[sp,#0x10]
	ldr         x9,[sp,#0x10]
	mov         w8,#0
	strb        w8,[x9]
	ldr         x8,[sp,#0x10]
	add         x8,x8,#1
	str         x8,[sp,#0x10]

; 1622 :         if (mux->enable_fragmentation)

	ldr         x8,[sp,#0x48]
	add         x8,x8,#0x34
	ldr         w8,[x8]
	cmp         w8,#0
	beq         |$LN108@mp4e_flush|

; 1623 :         {
; 1624 :             WRITE_4(0); // entry_count

	ldr         x9,[sp,#0x10]
	mov         w8,#0
	strb        w8,[x9]
	ldr         x8,[sp,#0x10]
	add         x8,x8,#1
	str         x8,[sp,#0x10]
	ldr         x9,[sp,#0x10]
	mov         w8,#0
	strb        w8,[x9]
	ldr         x8,[sp,#0x10]
	add         x8,x8,#1
	str         x8,[sp,#0x10]
	ldr         x9,[sp,#0x10]
	mov         w8,#0
	strb        w8,[x9]
	ldr         x8,[sp,#0x10]
	add         x8,x8,#1
	str         x8,[sp,#0x10]
	ldr         x9,[sp,#0x10]
	mov         w8,#0
	strb        w8,[x9]
	ldr         x8,[sp,#0x10]
	add         x8,x8,#1
	str         x8,[sp,#0x10]

; 1625 :         }

	b           |$LN109@mp4e_flush|
|$LN108@mp4e_flush|

; 1626 :         else
; 1627 :         {
; 1628 :             WRITE_4(1); // entry_count

	ldr         x9,[sp,#0x10]
	mov         w8,#0
	strb        w8,[x9]
	ldr         x8,[sp,#0x10]
	add         x8,x8,#1
	str         x8,[sp,#0x10]
	ldr         x9,[sp,#0x10]
	mov         w8,#0
	strb        w8,[x9]
	ldr         x8,[sp,#0x10]
	add         x8,x8,#1
	str         x8,[sp,#0x10]
	ldr         x9,[sp,#0x10]
	mov         w8,#0
	strb        w8,[x9]
	ldr         x8,[sp,#0x10]
	add         x8,x8,#1
	str         x8,[sp,#0x10]
	ldr         x9,[sp,#0x10]
	mov         w8,#1
	strb        w8,[x9]
	ldr         x8,[sp,#0x10]
	add         x8,x8,#1
	str         x8,[sp,#0x10]

; 1629 :             WRITE_4(1); // first_chunk;

	ldr         x9,[sp,#0x10]
	mov         w8,#0
	strb        w8,[x9]
	ldr         x8,[sp,#0x10]
	add         x8,x8,#1
	str         x8,[sp,#0x10]
	ldr         x9,[sp,#0x10]
	mov         w8,#0
	strb        w8,[x9]
	ldr         x8,[sp,#0x10]
	add         x8,x8,#1
	str         x8,[sp,#0x10]
	ldr         x9,[sp,#0x10]
	mov         w8,#0
	strb        w8,[x9]
	ldr         x8,[sp,#0x10]
	add         x8,x8,#1
	str         x8,[sp,#0x10]
	ldr         x9,[sp,#0x10]
	mov         w8,#1
	strb        w8,[x9]
	ldr         x8,[sp,#0x10]
	add         x8,x8,#1
	str         x8,[sp,#0x10]

; 1630 :             WRITE_4(1); // samples_per_chunk;

	ldr         x9,[sp,#0x10]
	mov         w8,#0
	strb        w8,[x9]
	ldr         x8,[sp,#0x10]
	add         x8,x8,#1
	str         x8,[sp,#0x10]
	ldr         x9,[sp,#0x10]
	mov         w8,#0
	strb        w8,[x9]
	ldr         x8,[sp,#0x10]
	add         x8,x8,#1
	str         x8,[sp,#0x10]
	ldr         x9,[sp,#0x10]
	mov         w8,#0
	strb        w8,[x9]
	ldr         x8,[sp,#0x10]
	add         x8,x8,#1
	str         x8,[sp,#0x10]
	ldr         x9,[sp,#0x10]
	mov         w8,#1
	strb        w8,[x9]
	ldr         x8,[sp,#0x10]
	add         x8,x8,#1
	str         x8,[sp,#0x10]

; 1631 :             WRITE_4(1); // sample_description_index;

	ldr         x9,[sp,#0x10]
	mov         w8,#0
	strb        w8,[x9]
	ldr         x8,[sp,#0x10]
	add         x8,x8,#1
	str         x8,[sp,#0x10]
	ldr         x9,[sp,#0x10]
	mov         w8,#0
	strb        w8,[x9]
	ldr         x8,[sp,#0x10]
	add         x8,x8,#1
	str         x8,[sp,#0x10]
	ldr         x9,[sp,#0x10]
	mov         w8,#0
	strb        w8,[x9]
	ldr         x8,[sp,#0x10]
	add         x8,x8,#1
	str         x8,[sp,#0x10]
	ldr         x9,[sp,#0x10]
	mov         w8,#1
	strb        w8,[x9]
	ldr         x8,[sp,#0x10]
	add         x8,x8,#1
	str         x8,[sp,#0x10]
|$LN109@mp4e_flush|

; 1632 :         }
; 1633 :         END_ATOM;

	ldr         x8,[sp,#0x18]
	sub         x8,x8,#8
	str         x8,[sp,#0x18]
	ldr         x9,[sp,#0x10]
	ldr         x8,[sp,#0x18]
	ldr         x8,[x8]
	sub         x8,x9,x8
	asr         x8,x8,#0x18
	uxtb        w9,w8
	ldr         x8,[sp,#0x18]
	ldr         x8,[x8]
	strb        w9,[x8]
	ldr         x9,[sp,#0x10]
	ldr         x8,[sp,#0x18]
	ldr         x8,[x8]
	sub         x8,x9,x8
	asr         x8,x8,#0x10
	uxtb        w9,w8
	ldr         x8,[sp,#0x18]
	ldr         x8,[x8]
	add         x8,x8,#1
	strb        w9,[x8]
	ldr         x9,[sp,#0x10]
	ldr         x8,[sp,#0x18]
	ldr         x8,[x8]
	sub         x8,x9,x8
	asr         x8,x8,#8
	uxtb        w9,w8
	ldr         x8,[sp,#0x18]
	ldr         x8,[x8]
	add         x8,x8,#2
	strb        w9,[x8]
	ldr         x9,[sp,#0x10]
	ldr         x8,[sp,#0x18]
	ldr         x8,[x8]
	sub         x8,x9,x8
	uxtb        w9,w8
	ldr         x8,[sp,#0x18]
	ldr         x8,[x8]
	add         x8,x8,#3
	strb        w9,[x8]

; 1634 : 
; 1635 :         // Sample Size Box
; 1636 :         ATOM_FULL(BOX_stsz, 0);

	ldr         x9,[sp,#0x18]
	ldr         x8,[sp,#0x10]
	str         x8,[x9]
	ldr         x8,[sp,#0x18]
	add         x8,x8,#8
	str         x8,[sp,#0x18]
	ldr         x8,[sp,#0x10]
	add         x8,x8,#4
	str         x8,[sp,#0x10]
	ldr         x9,[sp,#0x10]
	mov         w8,#0x73
	strb        w8,[x9]
	ldr         x8,[sp,#0x10]
	add         x8,x8,#1
	str         x8,[sp,#0x10]
	ldr         x9,[sp,#0x10]
	mov         w8,#0x74
	strb        w8,[x9]
	ldr         x8,[sp,#0x10]
	add         x8,x8,#1
	str         x8,[sp,#0x10]
	ldr         x9,[sp,#0x10]
	mov         w8,#0x73
	strb        w8,[x9]
	ldr         x8,[sp,#0x10]
	add         x8,x8,#1
	str         x8,[sp,#0x10]
	ldr         x9,[sp,#0x10]
	mov         w8,#0x7A
	strb        w8,[x9]
	ldr         x8,[sp,#0x10]
	add         x8,x8,#1
	str         x8,[sp,#0x10]
	ldr         x9,[sp,#0x10]
	mov         w8,#0
	strb        w8,[x9]
	ldr         x8,[sp,#0x10]
	add         x8,x8,#1
	str         x8,[sp,#0x10]
	ldr         x9,[sp,#0x10]
	mov         w8,#0
	strb        w8,[x9]
	ldr         x8,[sp,#0x10]
	add         x8,x8,#1
	str         x8,[sp,#0x10]
	ldr         x9,[sp,#0x10]
	mov         w8,#0
	strb        w8,[x9]
	ldr         x8,[sp,#0x10]
	add         x8,x8,#1
	str         x8,[sp,#0x10]
	ldr         x9,[sp,#0x10]
	mov         w8,#0
	strb        w8,[x9]
	ldr         x8,[sp,#0x10]
	add         x8,x8,#1
	str         x8,[sp,#0x10]

; 1637 :         WRITE_4(0); // sample_size  If this field is set to 0, then the samples have different sizes, and those sizes

	ldr         x9,[sp,#0x10]
	mov         w8,#0
	strb        w8,[x9]
	ldr         x8,[sp,#0x10]
	add         x8,x8,#1
	str         x8,[sp,#0x10]
	ldr         x9,[sp,#0x10]
	mov         w8,#0
	strb        w8,[x9]
	ldr         x8,[sp,#0x10]
	add         x8,x8,#1
	str         x8,[sp,#0x10]
	ldr         x9,[sp,#0x10]
	mov         w8,#0
	strb        w8,[x9]
	ldr         x8,[sp,#0x10]
	add         x8,x8,#1
	str         x8,[sp,#0x10]
	ldr         x9,[sp,#0x10]
	mov         w8,#0
	strb        w8,[x9]
	ldr         x8,[sp,#0x10]
	add         x8,x8,#1
	str         x8,[sp,#0x10]

; 1638 :                     //  are stored in the sample size table.
; 1639 :         WRITE_4(samples_count);  // sample_count;

	ldr         w8,[sp,#0x30]
	asr         w8,w8,#0x18
	uxtb        w9,w8
	ldr         x8,[sp,#0x10]
	strb        w9,[x8]
	ldr         x8,[sp,#0x10]
	add         x8,x8,#1
	str         x8,[sp,#0x10]
	ldr         w8,[sp,#0x30]
	asr         w8,w8,#0x10
	uxtb        w9,w8
	ldr         x8,[sp,#0x10]
	strb        w9,[x8]
	ldr         x8,[sp,#0x10]
	add         x8,x8,#1
	str         x8,[sp,#0x10]
	ldr         w8,[sp,#0x30]
	asr         w8,w8,#8
	uxtb        w9,w8
	ldr         x8,[sp,#0x10]
	strb        w9,[x8]
	ldr         x8,[sp,#0x10]
	add         x8,x8,#1
	str         x8,[sp,#0x10]
	ldr         w8,[sp,#0x30]
	uxtb        w9,w8
	ldr         x8,[sp,#0x10]
	strb        w9,[x8]
	ldr         x8,[sp,#0x10]
	add         x8,x8,#1
	str         x8,[sp,#0x10]

; 1640 :         for (i = 0; i < samples_count; i++)

	mov         w8,#0
	str         w8,[sp,#0x20]
	b           |$LN48@mp4e_flush|
|$LN46@mp4e_flush|
	ldr         w8,[sp,#0x20]
	add         w8,w8,#1
	str         w8,[sp,#0x20]
|$LN48@mp4e_flush|
	ldr         w9,[sp,#0x30]
	ldr         w8,[sp,#0x20]
	cmp         w8,w9
	bge         |$LN47@mp4e_flush|

; 1641 :         {
; 1642 :             WRITE_4(sample[i].size);

	ldr         w8,[sp,#0x20]
	sxtw        x9,w8
	mov         x8,#0x18
	mul         x9,x9,x8
	ldr         x8,[sp,#0x40]
	add         x8,x8,x9
	ldr         x8,[x8]
	lsr         x8,x8,#0x18
	uxtb        w9,w8
	ldr         x8,[sp,#0x10]
	strb        w9,[x8]
	ldr         x8,[sp,#0x10]
	add         x8,x8,#1
	str         x8,[sp,#0x10]
	ldr         w8,[sp,#0x20]
	sxtw        x9,w8
	mov         x8,#0x18
	mul         x9,x9,x8
	ldr         x8,[sp,#0x40]
	add         x8,x8,x9
	ldr         x8,[x8]
	lsr         x8,x8,#0x10
	uxtb        w9,w8
	ldr         x8,[sp,#0x10]
	strb        w9,[x8]
	ldr         x8,[sp,#0x10]
	add         x8,x8,#1
	str         x8,[sp,#0x10]
	ldr         w8,[sp,#0x20]
	sxtw        x9,w8
	mov         x8,#0x18
	mul         x9,x9,x8
	ldr         x8,[sp,#0x40]
	add         x8,x8,x9
	ldr         x8,[x8]
	lsr         x8,x8,#8
	uxtb        w9,w8
	ldr         x8,[sp,#0x10]
	strb        w9,[x8]
	ldr         x8,[sp,#0x10]
	add         x8,x8,#1
	str         x8,[sp,#0x10]
	ldr         w8,[sp,#0x20]
	sxtw        x9,w8
	mov         x8,#0x18
	mul         x9,x9,x8
	ldr         x8,[sp,#0x40]
	add         x8,x8,x9
	ldr         x8,[x8]
	uxtb        w9,w8
	ldr         x8,[sp,#0x10]
	strb        w9,[x8]
	ldr         x8,[sp,#0x10]
	add         x8,x8,#1
	str         x8,[sp,#0x10]

; 1643 :         }

	b           |$LN46@mp4e_flush|
|$LN47@mp4e_flush|

; 1644 :         END_ATOM;

	ldr         x8,[sp,#0x18]
	sub         x8,x8,#8
	str         x8,[sp,#0x18]
	ldr         x9,[sp,#0x10]
	ldr         x8,[sp,#0x18]
	ldr         x8,[x8]
	sub         x8,x9,x8
	asr         x8,x8,#0x18
	uxtb        w9,w8
	ldr         x8,[sp,#0x18]
	ldr         x8,[x8]
	strb        w9,[x8]
	ldr         x9,[sp,#0x10]
	ldr         x8,[sp,#0x18]
	ldr         x8,[x8]
	sub         x8,x9,x8
	asr         x8,x8,#0x10
	uxtb        w9,w8
	ldr         x8,[sp,#0x18]
	ldr         x8,[x8]
	add         x8,x8,#1
	strb        w9,[x8]
	ldr         x9,[sp,#0x10]
	ldr         x8,[sp,#0x18]
	ldr         x8,[x8]
	sub         x8,x9,x8
	asr         x8,x8,#8
	uxtb        w9,w8
	ldr         x8,[sp,#0x18]
	ldr         x8,[x8]
	add         x8,x8,#2
	strb        w9,[x8]
	ldr         x9,[sp,#0x10]
	ldr         x8,[sp,#0x18]
	ldr         x8,[x8]
	sub         x8,x9,x8
	uxtb        w9,w8
	ldr         x8,[sp,#0x18]
	ldr         x8,[x8]
	add         x8,x8,#3
	strb        w9,[x8]

; 1645 : 
; 1646 :         // Chunk Offset Box
; 1647 :         int is_64_bit = 0;

	mov         w8,#0
	str         w8,[sp,#0xB0]

; 1648 :         if (samples_count && sample[samples_count - 1].offset > 0xffffffff)

	ldr         w8,[sp,#0x30]
	cmp         w8,#0
	beq         |$LN110@mp4e_flush|
	ldr         w8,[sp,#0x30]
	sub         w8,w8,#1
	sxtw        x9,w8
	mov         x8,#0x18
	mul         x9,x9,x8
	ldr         x8,[sp,#0x40]
	add         x8,x8,x9
	add         x8,x8,#8
	mov         x9,#0xFFFFFFFF
	ldr         x8,[x8]
	cmp         x8,x9
	bls         |$LN110@mp4e_flush|

; 1649 :             is_64_bit = 1;

	mov         w8,#1
	str         w8,[sp,#0xB0]
|$LN110@mp4e_flush|

; 1650 :         if (!is_64_bit)

	ldr         w8,[sp,#0xB0]
	cmp         w8,#0
	bne         |$LN111@mp4e_flush|

; 1651 :         {
; 1652 :             ATOM_FULL(BOX_stco, 0);

	ldr         x9,[sp,#0x18]
	ldr         x8,[sp,#0x10]
	str         x8,[x9]
	ldr         x8,[sp,#0x18]
	add         x8,x8,#8
	str         x8,[sp,#0x18]
	ldr         x8,[sp,#0x10]
	add         x8,x8,#4
	str         x8,[sp,#0x10]
	ldr         x9,[sp,#0x10]
	mov         w8,#0x73
	strb        w8,[x9]
	ldr         x8,[sp,#0x10]
	add         x8,x8,#1
	str         x8,[sp,#0x10]
	ldr         x9,[sp,#0x10]
	mov         w8,#0x74
	strb        w8,[x9]
	ldr         x8,[sp,#0x10]
	add         x8,x8,#1
	str         x8,[sp,#0x10]
	ldr         x9,[sp,#0x10]
	mov         w8,#0x63
	strb        w8,[x9]
	ldr         x8,[sp,#0x10]
	add         x8,x8,#1
	str         x8,[sp,#0x10]
	ldr         x9,[sp,#0x10]
	mov         w8,#0x6F
	strb        w8,[x9]
	ldr         x8,[sp,#0x10]
	add         x8,x8,#1
	str         x8,[sp,#0x10]
	ldr         x9,[sp,#0x10]
	mov         w8,#0
	strb        w8,[x9]
	ldr         x8,[sp,#0x10]
	add         x8,x8,#1
	str         x8,[sp,#0x10]
	ldr         x9,[sp,#0x10]
	mov         w8,#0
	strb        w8,[x9]
	ldr         x8,[sp,#0x10]
	add         x8,x8,#1
	str         x8,[sp,#0x10]
	ldr         x9,[sp,#0x10]
	mov         w8,#0
	strb        w8,[x9]
	ldr         x8,[sp,#0x10]
	add         x8,x8,#1
	str         x8,[sp,#0x10]
	ldr         x9,[sp,#0x10]
	mov         w8,#0
	strb        w8,[x9]
	ldr         x8,[sp,#0x10]
	add         x8,x8,#1
	str         x8,[sp,#0x10]

; 1653 :             WRITE_4(samples_count);

	ldr         w8,[sp,#0x30]
	asr         w8,w8,#0x18
	uxtb        w9,w8
	ldr         x8,[sp,#0x10]
	strb        w9,[x8]
	ldr         x8,[sp,#0x10]
	add         x8,x8,#1
	str         x8,[sp,#0x10]
	ldr         w8,[sp,#0x30]
	asr         w8,w8,#0x10
	uxtb        w9,w8
	ldr         x8,[sp,#0x10]
	strb        w9,[x8]
	ldr         x8,[sp,#0x10]
	add         x8,x8,#1
	str         x8,[sp,#0x10]
	ldr         w8,[sp,#0x30]
	asr         w8,w8,#8
	uxtb        w9,w8
	ldr         x8,[sp,#0x10]
	strb        w9,[x8]
	ldr         x8,[sp,#0x10]
	add         x8,x8,#1
	str         x8,[sp,#0x10]
	ldr         w8,[sp,#0x30]
	uxtb        w9,w8
	ldr         x8,[sp,#0x10]
	strb        w9,[x8]
	ldr         x8,[sp,#0x10]
	add         x8,x8,#1
	str         x8,[sp,#0x10]

; 1654 :             for (i = 0; i < samples_count; i++)

	mov         w8,#0
	str         w8,[sp,#0x20]
	b           |$LN51@mp4e_flush|
|$LN49@mp4e_flush|
	ldr         w8,[sp,#0x20]
	add         w8,w8,#1
	str         w8,[sp,#0x20]
|$LN51@mp4e_flush|
	ldr         w9,[sp,#0x30]
	ldr         w8,[sp,#0x20]
	cmp         w8,w9
	bge         |$LN50@mp4e_flush|

; 1655 :             {
; 1656 :                 WRITE_4(sample[i].offset);

	ldr         w8,[sp,#0x20]
	sxtw        x9,w8
	mov         x8,#0x18
	mul         x9,x9,x8
	ldr         x8,[sp,#0x40]
	add         x8,x8,x9
	add         x8,x8,#8
	ldr         x8,[x8]
	lsr         x8,x8,#0x18
	uxtb        w9,w8
	ldr         x8,[sp,#0x10]
	strb        w9,[x8]
	ldr         x8,[sp,#0x10]
	add         x8,x8,#1
	str         x8,[sp,#0x10]
	ldr         w8,[sp,#0x20]
	sxtw        x9,w8
	mov         x8,#0x18
	mul         x9,x9,x8
	ldr         x8,[sp,#0x40]
	add         x8,x8,x9
	add         x8,x8,#8
	ldr         x8,[x8]
	lsr         x8,x8,#0x10
	uxtb        w9,w8
	ldr         x8,[sp,#0x10]
	strb        w9,[x8]
	ldr         x8,[sp,#0x10]
	add         x8,x8,#1
	str         x8,[sp,#0x10]
	ldr         w8,[sp,#0x20]
	sxtw        x9,w8
	mov         x8,#0x18
	mul         x9,x9,x8
	ldr         x8,[sp,#0x40]
	add         x8,x8,x9
	add         x8,x8,#8
	ldr         x8,[x8]
	lsr         x8,x8,#8
	uxtb        w9,w8
	ldr         x8,[sp,#0x10]
	strb        w9,[x8]
	ldr         x8,[sp,#0x10]
	add         x8,x8,#1
	str         x8,[sp,#0x10]
	ldr         w8,[sp,#0x20]
	sxtw        x9,w8
	mov         x8,#0x18
	mul         x9,x9,x8
	ldr         x8,[sp,#0x40]
	add         x8,x8,x9
	add         x8,x8,#8
	ldr         x8,[x8]
	uxtb        w9,w8
	ldr         x8,[sp,#0x10]
	strb        w9,[x8]
	ldr         x8,[sp,#0x10]
	add         x8,x8,#1
	str         x8,[sp,#0x10]

; 1657 :             }

	b           |$LN49@mp4e_flush|
|$LN50@mp4e_flush|

; 1658 :         }

	b           |$LN112@mp4e_flush|
|$LN111@mp4e_flush|

; 1659 :         else
; 1660 :         {
; 1661 :             ATOM_FULL(BOX_co64, 0);

	ldr         x9,[sp,#0x18]
	ldr         x8,[sp,#0x10]
	str         x8,[x9]
	ldr         x8,[sp,#0x18]
	add         x8,x8,#8
	str         x8,[sp,#0x18]
	ldr         x8,[sp,#0x10]
	add         x8,x8,#4
	str         x8,[sp,#0x10]
	ldr         x9,[sp,#0x10]
	mov         w8,#0x63
	strb        w8,[x9]
	ldr         x8,[sp,#0x10]
	add         x8,x8,#1
	str         x8,[sp,#0x10]
	ldr         x9,[sp,#0x10]
	mov         w8,#0x6F
	strb        w8,[x9]
	ldr         x8,[sp,#0x10]
	add         x8,x8,#1
	str         x8,[sp,#0x10]
	ldr         x9,[sp,#0x10]
	mov         w8,#0x36
	strb        w8,[x9]
	ldr         x8,[sp,#0x10]
	add         x8,x8,#1
	str         x8,[sp,#0x10]
	ldr         x9,[sp,#0x10]
	mov         w8,#0x34
	strb        w8,[x9]
	ldr         x8,[sp,#0x10]
	add         x8,x8,#1
	str         x8,[sp,#0x10]
	ldr         x9,[sp,#0x10]
	mov         w8,#0
	strb        w8,[x9]
	ldr         x8,[sp,#0x10]
	add         x8,x8,#1
	str         x8,[sp,#0x10]
	ldr         x9,[sp,#0x10]
	mov         w8,#0
	strb        w8,[x9]
	ldr         x8,[sp,#0x10]
	add         x8,x8,#1
	str         x8,[sp,#0x10]
	ldr         x9,[sp,#0x10]
	mov         w8,#0
	strb        w8,[x9]
	ldr         x8,[sp,#0x10]
	add         x8,x8,#1
	str         x8,[sp,#0x10]
	ldr         x9,[sp,#0x10]
	mov         w8,#0
	strb        w8,[x9]
	ldr         x8,[sp,#0x10]
	add         x8,x8,#1
	str         x8,[sp,#0x10]

; 1662 :             WRITE_4(samples_count);

	ldr         w8,[sp,#0x30]
	asr         w8,w8,#0x18
	uxtb        w9,w8
	ldr         x8,[sp,#0x10]
	strb        w9,[x8]
	ldr         x8,[sp,#0x10]
	add         x8,x8,#1
	str         x8,[sp,#0x10]
	ldr         w8,[sp,#0x30]
	asr         w8,w8,#0x10
	uxtb        w9,w8
	ldr         x8,[sp,#0x10]
	strb        w9,[x8]
	ldr         x8,[sp,#0x10]
	add         x8,x8,#1
	str         x8,[sp,#0x10]
	ldr         w8,[sp,#0x30]
	asr         w8,w8,#8
	uxtb        w9,w8
	ldr         x8,[sp,#0x10]
	strb        w9,[x8]
	ldr         x8,[sp,#0x10]
	add         x8,x8,#1
	str         x8,[sp,#0x10]
	ldr         w8,[sp,#0x30]
	uxtb        w9,w8
	ldr         x8,[sp,#0x10]
	strb        w9,[x8]
	ldr         x8,[sp,#0x10]
	add         x8,x8,#1
	str         x8,[sp,#0x10]

; 1663 :             for (i = 0; i < samples_count; i++)

	mov         w8,#0
	str         w8,[sp,#0x20]
	b           |$LN54@mp4e_flush|
|$LN52@mp4e_flush|
	ldr         w8,[sp,#0x20]
	add         w8,w8,#1
	str         w8,[sp,#0x20]
|$LN54@mp4e_flush|
	ldr         w9,[sp,#0x30]
	ldr         w8,[sp,#0x20]
	cmp         w8,w9
	bge         |$LN53@mp4e_flush|

; 1664 :             {
; 1665 :                 WRITE_4((sample[i].offset >> 32) & 0xffffffff);

	ldr         w8,[sp,#0x20]
	sxtw        x9,w8
	mov         x8,#0x18
	mul         x9,x9,x8
	ldr         x8,[sp,#0x40]
	add         x8,x8,x9
	add         x8,x8,#8
	ldr         x8,[x8]
	lsr         x8,x8,#0x20
	lsr         x8,x8,#0x18
	uxtb        w9,w8
	ldr         x8,[sp,#0x10]
	strb        w9,[x8]
	ldr         x8,[sp,#0x10]
	add         x8,x8,#1
	str         x8,[sp,#0x10]
	ldr         w8,[sp,#0x20]
	sxtw        x9,w8
	mov         x8,#0x18
	mul         x9,x9,x8
	ldr         x8,[sp,#0x40]
	add         x8,x8,x9
	add         x8,x8,#8
	ldr         x8,[x8]
	lsr         x8,x8,#0x20
	lsr         x8,x8,#0x10
	uxtb        w9,w8
	ldr         x8,[sp,#0x10]
	strb        w9,[x8]
	ldr         x8,[sp,#0x10]
	add         x8,x8,#1
	str         x8,[sp,#0x10]
	ldr         w8,[sp,#0x20]
	sxtw        x9,w8
	mov         x8,#0x18
	mul         x9,x9,x8
	ldr         x8,[sp,#0x40]
	add         x8,x8,x9
	add         x8,x8,#8
	ldr         x8,[x8]
	lsr         x8,x8,#0x20
	lsr         x8,x8,#8
	uxtb        w9,w8
	ldr         x8,[sp,#0x10]
	strb        w9,[x8]
	ldr         x8,[sp,#0x10]
	add         x8,x8,#1
	str         x8,[sp,#0x10]
	ldr         w8,[sp,#0x20]
	sxtw        x9,w8
	mov         x8,#0x18
	mul         x9,x9,x8
	ldr         x8,[sp,#0x40]
	add         x8,x8,x9
	add         x8,x8,#8
	ldr         x8,[x8]
	lsr         x8,x8,#0x20
	uxtb        w9,w8
	ldr         x8,[sp,#0x10]
	strb        w9,[x8]
	ldr         x8,[sp,#0x10]
	add         x8,x8,#1
	str         x8,[sp,#0x10]

; 1666 :                 WRITE_4(sample[i].offset & 0xffffffff);

	ldr         w8,[sp,#0x20]
	sxtw        x9,w8
	mov         x8,#0x18
	mul         x9,x9,x8
	ldr         x8,[sp,#0x40]
	add         x8,x8,x9
	add         x8,x8,#8
	ldr         x8,[x8]
	and         x8,x8,#0xFFFFFFFF
	lsr         x8,x8,#0x18
	uxtb        w9,w8
	ldr         x8,[sp,#0x10]
	strb        w9,[x8]
	ldr         x8,[sp,#0x10]
	add         x8,x8,#1
	str         x8,[sp,#0x10]
	ldr         w8,[sp,#0x20]
	sxtw        x9,w8
	mov         x8,#0x18
	mul         x9,x9,x8
	ldr         x8,[sp,#0x40]
	add         x8,x8,x9
	add         x8,x8,#8
	ldr         x8,[x8]
	and         x8,x8,#0xFFFFFFFF
	lsr         x8,x8,#0x10
	uxtb        w9,w8
	ldr         x8,[sp,#0x10]
	strb        w9,[x8]
	ldr         x8,[sp,#0x10]
	add         x8,x8,#1
	str         x8,[sp,#0x10]
	ldr         w8,[sp,#0x20]
	sxtw        x9,w8
	mov         x8,#0x18
	mul         x9,x9,x8
	ldr         x8,[sp,#0x40]
	add         x8,x8,x9
	add         x8,x8,#8
	ldr         x8,[x8]
	and         x8,x8,#0xFFFFFFFF
	lsr         x8,x8,#8
	uxtb        w9,w8
	ldr         x8,[sp,#0x10]
	strb        w9,[x8]
	ldr         x8,[sp,#0x10]
	add         x8,x8,#1
	str         x8,[sp,#0x10]
	ldr         w8,[sp,#0x20]
	sxtw        x9,w8
	mov         x8,#0x18
	mul         x9,x9,x8
	ldr         x8,[sp,#0x40]
	add         x8,x8,x9
	add         x8,x8,#8
	ldr         x8,[x8]
	and         x8,x8,#0xFFFFFFFF
	uxtb        w9,w8
	ldr         x8,[sp,#0x10]
	strb        w9,[x8]
	ldr         x8,[sp,#0x10]
	add         x8,x8,#1
	str         x8,[sp,#0x10]

; 1667 :             }

	b           |$LN52@mp4e_flush|
|$LN53@mp4e_flush|
|$LN112@mp4e_flush|

; 1668 :         }
; 1669 :         END_ATOM;

	ldr         x8,[sp,#0x18]
	sub         x8,x8,#8
	str         x8,[sp,#0x18]
	ldr         x9,[sp,#0x10]
	ldr         x8,[sp,#0x18]
	ldr         x8,[x8]
	sub         x8,x9,x8
	asr         x8,x8,#0x18
	uxtb        w9,w8
	ldr         x8,[sp,#0x18]
	ldr         x8,[x8]
	strb        w9,[x8]
	ldr         x9,[sp,#0x10]
	ldr         x8,[sp,#0x18]
	ldr         x8,[x8]
	sub         x8,x9,x8
	asr         x8,x8,#0x10
	uxtb        w9,w8
	ldr         x8,[sp,#0x18]
	ldr         x8,[x8]
	add         x8,x8,#1
	strb        w9,[x8]
	ldr         x9,[sp,#0x10]
	ldr         x8,[sp,#0x18]
	ldr         x8,[x8]
	sub         x8,x9,x8
	asr         x8,x8,#8
	uxtb        w9,w8
	ldr         x8,[sp,#0x18]
	ldr         x8,[x8]
	add         x8,x8,#2
	strb        w9,[x8]
	ldr         x9,[sp,#0x10]
	ldr         x8,[sp,#0x18]
	ldr         x8,[x8]
	sub         x8,x9,x8
	uxtb        w9,w8
	ldr         x8,[sp,#0x18]
	ldr         x8,[x8]
	add         x8,x8,#3
	strb        w9,[x8]

; 1670 : 
; 1671 :         // Sync Sample Box
; 1672 :         {
; 1673 :             int ra_count = 0;

	mov         w8,#0
	str         w8,[sp,#0x64]

; 1674 :             for (i = 0; i < samples_count; i++)

	mov         w8,#0
	str         w8,[sp,#0x20]
	b           |$LN57@mp4e_flush|
|$LN55@mp4e_flush|
	ldr         w8,[sp,#0x20]
	add         w8,w8,#1
	str         w8,[sp,#0x20]
|$LN57@mp4e_flush|
	ldr         w9,[sp,#0x30]
	ldr         w8,[sp,#0x20]
	cmp         w8,w9
	bge         |$LN56@mp4e_flush|

; 1675 :             {
; 1676 :                 ra_count += !!sample[i].flag_random_access;

	ldr         w8,[sp,#0x20]
	sxtw        x9,w8
	mov         x8,#0x18
	mul         x9,x9,x8
	ldr         x8,[sp,#0x40]
	add         x8,x8,x9
	add         x8,x8,#0x14
	ldr         w8,[x8]
	cmp         w8,#0
	beq         |$LN119@mp4e_flush|
	mov         w8,#1
	str         w8,[sp,#0xB4]
	b           |$LN120@mp4e_flush|
|$LN119@mp4e_flush|
	mov         w8,#0
	str         w8,[sp,#0xB4]
|$LN120@mp4e_flush|
	ldr         w9,[sp,#0x64]
	ldr         w8,[sp,#0xB4]
	add         w8,w9,w8
	str         w8,[sp,#0x64]

; 1677 :             }

	b           |$LN55@mp4e_flush|
|$LN56@mp4e_flush|

; 1678 :             if (ra_count != samples_count)

	ldr         w9,[sp,#0x30]
	ldr         w8,[sp,#0x64]
	cmp         w8,w9
	beq         |$LN113@mp4e_flush|

; 1679 :             {
; 1680 :                 // If the sync sample box is not present, every sample is a random access point.
; 1681 :                 ATOM_FULL(BOX_stss, 0);

	ldr         x9,[sp,#0x18]
	ldr         x8,[sp,#0x10]
	str         x8,[x9]
	ldr         x8,[sp,#0x18]
	add         x8,x8,#8
	str         x8,[sp,#0x18]
	ldr         x8,[sp,#0x10]
	add         x8,x8,#4
	str         x8,[sp,#0x10]
	ldr         x9,[sp,#0x10]
	mov         w8,#0x73
	strb        w8,[x9]
	ldr         x8,[sp,#0x10]
	add         x8,x8,#1
	str         x8,[sp,#0x10]
	ldr         x9,[sp,#0x10]
	mov         w8,#0x74
	strb        w8,[x9]
	ldr         x8,[sp,#0x10]
	add         x8,x8,#1
	str         x8,[sp,#0x10]
	ldr         x9,[sp,#0x10]
	mov         w8,#0x73
	strb        w8,[x9]
	ldr         x8,[sp,#0x10]
	add         x8,x8,#1
	str         x8,[sp,#0x10]
	ldr         x9,[sp,#0x10]
	mov         w8,#0x73
	strb        w8,[x9]
	ldr         x8,[sp,#0x10]
	add         x8,x8,#1
	str         x8,[sp,#0x10]
	ldr         x9,[sp,#0x10]
	mov         w8,#0
	strb        w8,[x9]
	ldr         x8,[sp,#0x10]
	add         x8,x8,#1
	str         x8,[sp,#0x10]
	ldr         x9,[sp,#0x10]
	mov         w8,#0
	strb        w8,[x9]
	ldr         x8,[sp,#0x10]
	add         x8,x8,#1
	str         x8,[sp,#0x10]
	ldr         x9,[sp,#0x10]
	mov         w8,#0
	strb        w8,[x9]
	ldr         x8,[sp,#0x10]
	add         x8,x8,#1
	str         x8,[sp,#0x10]
	ldr         x9,[sp,#0x10]
	mov         w8,#0
	strb        w8,[x9]
	ldr         x8,[sp,#0x10]
	add         x8,x8,#1
	str         x8,[sp,#0x10]

; 1682 :                 WRITE_4(ra_count);

	ldr         w8,[sp,#0x64]
	asr         w8,w8,#0x18
	uxtb        w9,w8
	ldr         x8,[sp,#0x10]
	strb        w9,[x8]
	ldr         x8,[sp,#0x10]
	add         x8,x8,#1
	str         x8,[sp,#0x10]
	ldr         w8,[sp,#0x64]
	asr         w8,w8,#0x10
	uxtb        w9,w8
	ldr         x8,[sp,#0x10]
	strb        w9,[x8]
	ldr         x8,[sp,#0x10]
	add         x8,x8,#1
	str         x8,[sp,#0x10]
	ldr         w8,[sp,#0x64]
	asr         w8,w8,#8
	uxtb        w9,w8
	ldr         x8,[sp,#0x10]
	strb        w9,[x8]
	ldr         x8,[sp,#0x10]
	add         x8,x8,#1
	str         x8,[sp,#0x10]
	ldr         w8,[sp,#0x64]
	uxtb        w9,w8
	ldr         x8,[sp,#0x10]
	strb        w9,[x8]
	ldr         x8,[sp,#0x10]
	add         x8,x8,#1
	str         x8,[sp,#0x10]

; 1683 :                 for (i = 0; i < samples_count; i++)

	mov         w8,#0
	str         w8,[sp,#0x20]
	b           |$LN60@mp4e_flush|
|$LN58@mp4e_flush|
	ldr         w8,[sp,#0x20]
	add         w8,w8,#1
	str         w8,[sp,#0x20]
|$LN60@mp4e_flush|
	ldr         w9,[sp,#0x30]
	ldr         w8,[sp,#0x20]
	cmp         w8,w9
	bge         |$LN59@mp4e_flush|

; 1684 :                 {
; 1685 :                     if (sample[i].flag_random_access)

	ldr         w8,[sp,#0x20]
	sxtw        x9,w8
	mov         x8,#0x18
	mul         x9,x9,x8
	ldr         x8,[sp,#0x40]
	add         x8,x8,x9
	add         x8,x8,#0x14
	ldr         w8,[x8]
	cmp         w8,#0
	beq         |$LN114@mp4e_flush|

; 1686 :                     {
; 1687 :                         WRITE_4(i + 1);

	ldr         w8,[sp,#0x20]
	add         w8,w8,#1
	asr         w8,w8,#0x18
	uxtb        w9,w8
	ldr         x8,[sp,#0x10]
	strb        w9,[x8]
	ldr         x8,[sp,#0x10]
	add         x8,x8,#1
	str         x8,[sp,#0x10]
	ldr         w8,[sp,#0x20]
	add         w8,w8,#1
	asr         w8,w8,#0x10
	uxtb        w9,w8
	ldr         x8,[sp,#0x10]
	strb        w9,[x8]
	ldr         x8,[sp,#0x10]
	add         x8,x8,#1
	str         x8,[sp,#0x10]
	ldr         w8,[sp,#0x20]
	add         w8,w8,#1
	asr         w8,w8,#8
	uxtb        w9,w8
	ldr         x8,[sp,#0x10]
	strb        w9,[x8]
	ldr         x8,[sp,#0x10]
	add         x8,x8,#1
	str         x8,[sp,#0x10]
	ldr         w8,[sp,#0x20]
	add         w8,w8,#1
	uxtb        w9,w8
	ldr         x8,[sp,#0x10]
	strb        w9,[x8]
	ldr         x8,[sp,#0x10]
	add         x8,x8,#1
	str         x8,[sp,#0x10]
|$LN114@mp4e_flush|

; 1688 :                     }
; 1689 :                 }

	b           |$LN58@mp4e_flush|
|$LN59@mp4e_flush|

; 1690 :                 END_ATOM;

	ldr         x8,[sp,#0x18]
	sub         x8,x8,#8
	str         x8,[sp,#0x18]
	ldr         x9,[sp,#0x10]
	ldr         x8,[sp,#0x18]
	ldr         x8,[x8]
	sub         x8,x9,x8
	asr         x8,x8,#0x18
	uxtb        w9,w8
	ldr         x8,[sp,#0x18]
	ldr         x8,[x8]
	strb        w9,[x8]
	ldr         x9,[sp,#0x10]
	ldr         x8,[sp,#0x18]
	ldr         x8,[x8]
	sub         x8,x9,x8
	asr         x8,x8,#0x10
	uxtb        w9,w8
	ldr         x8,[sp,#0x18]
	ldr         x8,[x8]
	add         x8,x8,#1
	strb        w9,[x8]
	ldr         x9,[sp,#0x10]
	ldr         x8,[sp,#0x18]
	ldr         x8,[x8]
	sub         x8,x9,x8
	asr         x8,x8,#8
	uxtb        w9,w8
	ldr         x8,[sp,#0x18]
	ldr         x8,[x8]
	add         x8,x8,#2
	strb        w9,[x8]
	ldr         x9,[sp,#0x10]
	ldr         x8,[sp,#0x18]
	ldr         x8,[x8]
	sub         x8,x9,x8
	uxtb        w9,w8
	ldr         x8,[sp,#0x18]
	ldr         x8,[x8]
	add         x8,x8,#3
	strb        w9,[x8]
|$LN113@mp4e_flush|

; 1691 :             }
; 1692 :         }
; 1693 :         END_ATOM;

	ldr         x8,[sp,#0x18]
	sub         x8,x8,#8
	str         x8,[sp,#0x18]
	ldr         x9,[sp,#0x10]
	ldr         x8,[sp,#0x18]
	ldr         x8,[x8]
	sub         x8,x9,x8
	asr         x8,x8,#0x18
	uxtb        w9,w8
	ldr         x8,[sp,#0x18]
	ldr         x8,[x8]
	strb        w9,[x8]
	ldr         x9,[sp,#0x10]
	ldr         x8,[sp,#0x18]
	ldr         x8,[x8]
	sub         x8,x9,x8
	asr         x8,x8,#0x10
	uxtb        w9,w8
	ldr         x8,[sp,#0x18]
	ldr         x8,[x8]
	add         x8,x8,#1
	strb        w9,[x8]
	ldr         x9,[sp,#0x10]
	ldr         x8,[sp,#0x18]
	ldr         x8,[x8]
	sub         x8,x9,x8
	asr         x8,x8,#8
	uxtb        w9,w8
	ldr         x8,[sp,#0x18]
	ldr         x8,[x8]
	add         x8,x8,#2
	strb        w9,[x8]
	ldr         x9,[sp,#0x10]
	ldr         x8,[sp,#0x18]
	ldr         x8,[x8]
	sub         x8,x9,x8
	uxtb        w9,w8
	ldr         x8,[sp,#0x18]
	ldr         x8,[x8]
	add         x8,x8,#3
	strb        w9,[x8]

; 1694 :         END_ATOM;

	ldr         x8,[sp,#0x18]
	sub         x8,x8,#8
	str         x8,[sp,#0x18]
	ldr         x9,[sp,#0x10]
	ldr         x8,[sp,#0x18]
	ldr         x8,[x8]
	sub         x8,x9,x8
	asr         x8,x8,#0x18
	uxtb        w9,w8
	ldr         x8,[sp,#0x18]
	ldr         x8,[x8]
	strb        w9,[x8]
	ldr         x9,[sp,#0x10]
	ldr         x8,[sp,#0x18]
	ldr         x8,[x8]
	sub         x8,x9,x8
	asr         x8,x8,#0x10
	uxtb        w9,w8
	ldr         x8,[sp,#0x18]
	ldr         x8,[x8]
	add         x8,x8,#1
	strb        w9,[x8]
	ldr         x9,[sp,#0x10]
	ldr         x8,[sp,#0x18]
	ldr         x8,[x8]
	sub         x8,x9,x8
	asr         x8,x8,#8
	uxtb        w9,w8
	ldr         x8,[sp,#0x18]
	ldr         x8,[x8]
	add         x8,x8,#2
	strb        w9,[x8]
	ldr         x9,[sp,#0x10]
	ldr         x8,[sp,#0x18]
	ldr         x8,[x8]
	sub         x8,x9,x8
	uxtb        w9,w8
	ldr         x8,[sp,#0x18]
	ldr         x8,[x8]
	add         x8,x8,#3
	strb        w9,[x8]

; 1695 :         END_ATOM;

	ldr         x8,[sp,#0x18]
	sub         x8,x8,#8
	str         x8,[sp,#0x18]
	ldr         x9,[sp,#0x10]
	ldr         x8,[sp,#0x18]
	ldr         x8,[x8]
	sub         x8,x9,x8
	asr         x8,x8,#0x18
	uxtb        w9,w8
	ldr         x8,[sp,#0x18]
	ldr         x8,[x8]
	strb        w9,[x8]
	ldr         x9,[sp,#0x10]
	ldr         x8,[sp,#0x18]
	ldr         x8,[x8]
	sub         x8,x9,x8
	asr         x8,x8,#0x10
	uxtb        w9,w8
	ldr         x8,[sp,#0x18]
	ldr         x8,[x8]
	add         x8,x8,#1
	strb        w9,[x8]
	ldr         x9,[sp,#0x10]
	ldr         x8,[sp,#0x18]
	ldr         x8,[x8]
	sub         x8,x9,x8
	asr         x8,x8,#8
	uxtb        w9,w8
	ldr         x8,[sp,#0x18]
	ldr         x8,[x8]
	add         x8,x8,#2
	strb        w9,[x8]
	ldr         x9,[sp,#0x10]
	ldr         x8,[sp,#0x18]
	ldr         x8,[x8]
	sub         x8,x9,x8
	uxtb        w9,w8
	ldr         x8,[sp,#0x18]
	ldr         x8,[x8]
	add         x8,x8,#3
	strb        w9,[x8]

; 1696 :         END_ATOM;

	ldr         x8,[sp,#0x18]
	sub         x8,x8,#8
	str         x8,[sp,#0x18]
	ldr         x9,[sp,#0x10]
	ldr         x8,[sp,#0x18]
	ldr         x8,[x8]
	sub         x8,x9,x8
	asr         x8,x8,#0x18
	uxtb        w9,w8
	ldr         x8,[sp,#0x18]
	ldr         x8,[x8]
	strb        w9,[x8]
	ldr         x9,[sp,#0x10]
	ldr         x8,[sp,#0x18]
	ldr         x8,[x8]
	sub         x8,x9,x8
	asr         x8,x8,#0x10
	uxtb        w9,w8
	ldr         x8,[sp,#0x18]
	ldr         x8,[x8]
	add         x8,x8,#1
	strb        w9,[x8]
	ldr         x9,[sp,#0x10]
	ldr         x8,[sp,#0x18]
	ldr         x8,[x8]
	sub         x8,x9,x8
	asr         x8,x8,#8
	uxtb        w9,w8
	ldr         x8,[sp,#0x18]
	ldr         x8,[x8]
	add         x8,x8,#2
	strb        w9,[x8]
	ldr         x9,[sp,#0x10]
	ldr         x8,[sp,#0x18]
	ldr         x8,[x8]
	sub         x8,x9,x8
	uxtb        w9,w8
	ldr         x8,[sp,#0x18]
	ldr         x8,[x8]
	add         x8,x8,#3
	strb        w9,[x8]

; 1697 :     } // tracks loop

	b           |$LN5@mp4e_flush|
|$LN6@mp4e_flush|

; 1698 : 
; 1699 :     if (mux->text_comment)

	ldr         x8,[sp,#0x48]
	add         x8,x8,#0x28
	ldr         x8,[x8]
	cmp         x8,#0
	beq         |$LN115@mp4e_flush|

; 1700 :     {
; 1701 :         ATOM(BOX_udta);

	ldr         x9,[sp,#0x18]
	ldr         x8,[sp,#0x10]
	str         x8,[x9]
	ldr         x8,[sp,#0x18]
	add         x8,x8,#8
	str         x8,[sp,#0x18]
	ldr         x8,[sp,#0x10]
	add         x8,x8,#4
	str         x8,[sp,#0x10]
	ldr         x9,[sp,#0x10]
	mov         w8,#0x75
	strb        w8,[x9]
	ldr         x8,[sp,#0x10]
	add         x8,x8,#1
	str         x8,[sp,#0x10]
	ldr         x9,[sp,#0x10]
	mov         w8,#0x64
	strb        w8,[x9]
	ldr         x8,[sp,#0x10]
	add         x8,x8,#1
	str         x8,[sp,#0x10]
	ldr         x9,[sp,#0x10]
	mov         w8,#0x74
	strb        w8,[x9]
	ldr         x8,[sp,#0x10]
	add         x8,x8,#1
	str         x8,[sp,#0x10]
	ldr         x9,[sp,#0x10]
	mov         w8,#0x61
	strb        w8,[x9]
	ldr         x8,[sp,#0x10]
	add         x8,x8,#1
	str         x8,[sp,#0x10]

; 1702 :         ATOM_FULL(BOX_meta, 0);

	ldr         x9,[sp,#0x18]
	ldr         x8,[sp,#0x10]
	str         x8,[x9]
	ldr         x8,[sp,#0x18]
	add         x8,x8,#8
	str         x8,[sp,#0x18]
	ldr         x8,[sp,#0x10]
	add         x8,x8,#4
	str         x8,[sp,#0x10]
	ldr         x9,[sp,#0x10]
	mov         w8,#0x6D
	strb        w8,[x9]
	ldr         x8,[sp,#0x10]
	add         x8,x8,#1
	str         x8,[sp,#0x10]
	ldr         x9,[sp,#0x10]
	mov         w8,#0x65
	strb        w8,[x9]
	ldr         x8,[sp,#0x10]
	add         x8,x8,#1
	str         x8,[sp,#0x10]
	ldr         x9,[sp,#0x10]
	mov         w8,#0x74
	strb        w8,[x9]
	ldr         x8,[sp,#0x10]
	add         x8,x8,#1
	str         x8,[sp,#0x10]
	ldr         x9,[sp,#0x10]
	mov         w8,#0x61
	strb        w8,[x9]
	ldr         x8,[sp,#0x10]
	add         x8,x8,#1
	str         x8,[sp,#0x10]
	ldr         x9,[sp,#0x10]
	mov         w8,#0
	strb        w8,[x9]
	ldr         x8,[sp,#0x10]
	add         x8,x8,#1
	str         x8,[sp,#0x10]
	ldr         x9,[sp,#0x10]
	mov         w8,#0
	strb        w8,[x9]
	ldr         x8,[sp,#0x10]
	add         x8,x8,#1
	str         x8,[sp,#0x10]
	ldr         x9,[sp,#0x10]
	mov         w8,#0
	strb        w8,[x9]
	ldr         x8,[sp,#0x10]
	add         x8,x8,#1
	str         x8,[sp,#0x10]
	ldr         x9,[sp,#0x10]
	mov         w8,#0
	strb        w8,[x9]
	ldr         x8,[sp,#0x10]
	add         x8,x8,#1
	str         x8,[sp,#0x10]

; 1703 :         ATOM_FULL(BOX_hdlr, 0);

	ldr         x9,[sp,#0x18]
	ldr         x8,[sp,#0x10]
	str         x8,[x9]
	ldr         x8,[sp,#0x18]
	add         x8,x8,#8
	str         x8,[sp,#0x18]
	ldr         x8,[sp,#0x10]
	add         x8,x8,#4
	str         x8,[sp,#0x10]
	ldr         x9,[sp,#0x10]
	mov         w8,#0x68
	strb        w8,[x9]
	ldr         x8,[sp,#0x10]
	add         x8,x8,#1
	str         x8,[sp,#0x10]
	ldr         x9,[sp,#0x10]
	mov         w8,#0x64
	strb        w8,[x9]
	ldr         x8,[sp,#0x10]
	add         x8,x8,#1
	str         x8,[sp,#0x10]
	ldr         x9,[sp,#0x10]
	mov         w8,#0x6C
	strb        w8,[x9]
	ldr         x8,[sp,#0x10]
	add         x8,x8,#1
	str         x8,[sp,#0x10]
	ldr         x9,[sp,#0x10]
	mov         w8,#0x72
	strb        w8,[x9]
	ldr         x8,[sp,#0x10]
	add         x8,x8,#1
	str         x8,[sp,#0x10]
	ldr         x9,[sp,#0x10]
	mov         w8,#0
	strb        w8,[x9]
	ldr         x8,[sp,#0x10]
	add         x8,x8,#1
	str         x8,[sp,#0x10]
	ldr         x9,[sp,#0x10]
	mov         w8,#0
	strb        w8,[x9]
	ldr         x8,[sp,#0x10]
	add         x8,x8,#1
	str         x8,[sp,#0x10]
	ldr         x9,[sp,#0x10]
	mov         w8,#0
	strb        w8,[x9]
	ldr         x8,[sp,#0x10]
	add         x8,x8,#1
	str         x8,[sp,#0x10]
	ldr         x9,[sp,#0x10]
	mov         w8,#0
	strb        w8,[x9]
	ldr         x8,[sp,#0x10]
	add         x8,x8,#1
	str         x8,[sp,#0x10]

; 1704 :         WRITE_4(0); // pre_defined

	ldr         x9,[sp,#0x10]
	mov         w8,#0
	strb        w8,[x9]
	ldr         x8,[sp,#0x10]
	add         x8,x8,#1
	str         x8,[sp,#0x10]
	ldr         x9,[sp,#0x10]
	mov         w8,#0
	strb        w8,[x9]
	ldr         x8,[sp,#0x10]
	add         x8,x8,#1
	str         x8,[sp,#0x10]
	ldr         x9,[sp,#0x10]
	mov         w8,#0
	strb        w8,[x9]
	ldr         x8,[sp,#0x10]
	add         x8,x8,#1
	str         x8,[sp,#0x10]
	ldr         x9,[sp,#0x10]
	mov         w8,#0
	strb        w8,[x9]
	ldr         x8,[sp,#0x10]
	add         x8,x8,#1
	str         x8,[sp,#0x10]

; 1705 : #define MP4E_HANDLER_TYPE_MDIR  0x6d646972
; 1706 :         WRITE_4(MP4E_HANDLER_TYPE_MDIR); // handler_type

	ldr         x9,[sp,#0x10]
	mov         w8,#0x6D
	strb        w8,[x9]
	ldr         x8,[sp,#0x10]
	add         x8,x8,#1
	str         x8,[sp,#0x10]
	ldr         x9,[sp,#0x10]
	mov         w8,#0x64
	strb        w8,[x9]
	ldr         x8,[sp,#0x10]
	add         x8,x8,#1
	str         x8,[sp,#0x10]
	ldr         x9,[sp,#0x10]
	mov         w8,#0x69
	strb        w8,[x9]
	ldr         x8,[sp,#0x10]
	add         x8,x8,#1
	str         x8,[sp,#0x10]
	ldr         x9,[sp,#0x10]
	mov         w8,#0x72
	strb        w8,[x9]
	ldr         x8,[sp,#0x10]
	add         x8,x8,#1
	str         x8,[sp,#0x10]

; 1707 :         WRITE_4(0); WRITE_4(0); WRITE_4(0); // reserved[3]

	ldr         x9,[sp,#0x10]
	mov         w8,#0
	strb        w8,[x9]
	ldr         x8,[sp,#0x10]
	add         x8,x8,#1
	str         x8,[sp,#0x10]
	ldr         x9,[sp,#0x10]
	mov         w8,#0
	strb        w8,[x9]
	ldr         x8,[sp,#0x10]
	add         x8,x8,#1
	str         x8,[sp,#0x10]
	ldr         x9,[sp,#0x10]
	mov         w8,#0
	strb        w8,[x9]
	ldr         x8,[sp,#0x10]
	add         x8,x8,#1
	str         x8,[sp,#0x10]
	ldr         x9,[sp,#0x10]
	mov         w8,#0
	strb        w8,[x9]
	ldr         x8,[sp,#0x10]
	add         x8,x8,#1
	str         x8,[sp,#0x10]
	ldr         x9,[sp,#0x10]
	mov         w8,#0
	strb        w8,[x9]
	ldr         x8,[sp,#0x10]
	add         x8,x8,#1
	str         x8,[sp,#0x10]
	ldr         x9,[sp,#0x10]
	mov         w8,#0
	strb        w8,[x9]
	ldr         x8,[sp,#0x10]
	add         x8,x8,#1
	str         x8,[sp,#0x10]
	ldr         x9,[sp,#0x10]
	mov         w8,#0
	strb        w8,[x9]
	ldr         x8,[sp,#0x10]
	add         x8,x8,#1
	str         x8,[sp,#0x10]
	ldr         x9,[sp,#0x10]
	mov         w8,#0
	strb        w8,[x9]
	ldr         x8,[sp,#0x10]
	add         x8,x8,#1
	str         x8,[sp,#0x10]
	ldr         x9,[sp,#0x10]
	mov         w8,#0
	strb        w8,[x9]
	ldr         x8,[sp,#0x10]
	add         x8,x8,#1
	str         x8,[sp,#0x10]
	ldr         x9,[sp,#0x10]
	mov         w8,#0
	strb        w8,[x9]
	ldr         x8,[sp,#0x10]
	add         x8,x8,#1
	str         x8,[sp,#0x10]
	ldr         x9,[sp,#0x10]
	mov         w8,#0
	strb        w8,[x9]
	ldr         x8,[sp,#0x10]
	add         x8,x8,#1
	str         x8,[sp,#0x10]
	ldr         x9,[sp,#0x10]
	mov         w8,#0
	strb        w8,[x9]
	ldr         x8,[sp,#0x10]
	add         x8,x8,#1
	str         x8,[sp,#0x10]

; 1708 :         WRITE_4(0); // name is a null-terminated string in UTF-8 characters which gives a human-readable name for the track type (for debugging and inspection purposes).

	ldr         x9,[sp,#0x10]
	mov         w8,#0
	strb        w8,[x9]
	ldr         x8,[sp,#0x10]
	add         x8,x8,#1
	str         x8,[sp,#0x10]
	ldr         x9,[sp,#0x10]
	mov         w8,#0
	strb        w8,[x9]
	ldr         x8,[sp,#0x10]
	add         x8,x8,#1
	str         x8,[sp,#0x10]
	ldr         x9,[sp,#0x10]
	mov         w8,#0
	strb        w8,[x9]
	ldr         x8,[sp,#0x10]
	add         x8,x8,#1
	str         x8,[sp,#0x10]
	ldr         x9,[sp,#0x10]
	mov         w8,#0
	strb        w8,[x9]
	ldr         x8,[sp,#0x10]
	add         x8,x8,#1
	str         x8,[sp,#0x10]

; 1709 :         END_ATOM;

	ldr         x8,[sp,#0x18]
	sub         x8,x8,#8
	str         x8,[sp,#0x18]
	ldr         x9,[sp,#0x10]
	ldr         x8,[sp,#0x18]
	ldr         x8,[x8]
	sub         x8,x9,x8
	asr         x8,x8,#0x18
	uxtb        w9,w8
	ldr         x8,[sp,#0x18]
	ldr         x8,[x8]
	strb        w9,[x8]
	ldr         x9,[sp,#0x10]
	ldr         x8,[sp,#0x18]
	ldr         x8,[x8]
	sub         x8,x9,x8
	asr         x8,x8,#0x10
	uxtb        w9,w8
	ldr         x8,[sp,#0x18]
	ldr         x8,[x8]
	add         x8,x8,#1
	strb        w9,[x8]
	ldr         x9,[sp,#0x10]
	ldr         x8,[sp,#0x18]
	ldr         x8,[x8]
	sub         x8,x9,x8
	asr         x8,x8,#8
	uxtb        w9,w8
	ldr         x8,[sp,#0x18]
	ldr         x8,[x8]
	add         x8,x8,#2
	strb        w9,[x8]
	ldr         x9,[sp,#0x10]
	ldr         x8,[sp,#0x18]
	ldr         x8,[x8]
	sub         x8,x9,x8
	uxtb        w9,w8
	ldr         x8,[sp,#0x18]
	ldr         x8,[x8]
	add         x8,x8,#3
	strb        w9,[x8]

; 1710 :         ATOM(BOX_ilst);

	ldr         x9,[sp,#0x18]
	ldr         x8,[sp,#0x10]
	str         x8,[x9]
	ldr         x8,[sp,#0x18]
	add         x8,x8,#8
	str         x8,[sp,#0x18]
	ldr         x8,[sp,#0x10]
	add         x8,x8,#4
	str         x8,[sp,#0x10]
	ldr         x9,[sp,#0x10]
	mov         w8,#0x69
	strb        w8,[x9]
	ldr         x8,[sp,#0x10]
	add         x8,x8,#1
	str         x8,[sp,#0x10]
	ldr         x9,[sp,#0x10]
	mov         w8,#0x6C
	strb        w8,[x9]
	ldr         x8,[sp,#0x10]
	add         x8,x8,#1
	str         x8,[sp,#0x10]
	ldr         x9,[sp,#0x10]
	mov         w8,#0x73
	strb        w8,[x9]
	ldr         x8,[sp,#0x10]
	add         x8,x8,#1
	str         x8,[sp,#0x10]
	ldr         x9,[sp,#0x10]
	mov         w8,#0x74
	strb        w8,[x9]
	ldr         x8,[sp,#0x10]
	add         x8,x8,#1
	str         x8,[sp,#0x10]

; 1711 :         ATOM(BOX_ccmt);

	ldr         x9,[sp,#0x18]
	ldr         x8,[sp,#0x10]
	str         x8,[x9]
	ldr         x8,[sp,#0x18]
	add         x8,x8,#8
	str         x8,[sp,#0x18]
	ldr         x8,[sp,#0x10]
	add         x8,x8,#4
	str         x8,[sp,#0x10]
	ldr         x9,[sp,#0x10]
	mov         w8,#0xA9
	strb        w8,[x9]
	ldr         x8,[sp,#0x10]
	add         x8,x8,#1
	str         x8,[sp,#0x10]
	ldr         x9,[sp,#0x10]
	mov         w8,#0x63
	strb        w8,[x9]
	ldr         x8,[sp,#0x10]
	add         x8,x8,#1
	str         x8,[sp,#0x10]
	ldr         x9,[sp,#0x10]
	mov         w8,#0x6D
	strb        w8,[x9]
	ldr         x8,[sp,#0x10]
	add         x8,x8,#1
	str         x8,[sp,#0x10]
	ldr         x9,[sp,#0x10]
	mov         w8,#0x74
	strb        w8,[x9]
	ldr         x8,[sp,#0x10]
	add         x8,x8,#1
	str         x8,[sp,#0x10]

; 1712 :         ATOM(BOX_data);

	ldr         x9,[sp,#0x18]
	ldr         x8,[sp,#0x10]
	str         x8,[x9]
	ldr         x8,[sp,#0x18]
	add         x8,x8,#8
	str         x8,[sp,#0x18]
	ldr         x8,[sp,#0x10]
	add         x8,x8,#4
	str         x8,[sp,#0x10]
	ldr         x9,[sp,#0x10]
	mov         w8,#0x64
	strb        w8,[x9]
	ldr         x8,[sp,#0x10]
	add         x8,x8,#1
	str         x8,[sp,#0x10]
	ldr         x9,[sp,#0x10]
	mov         w8,#0x61
	strb        w8,[x9]
	ldr         x8,[sp,#0x10]
	add         x8,x8,#1
	str         x8,[sp,#0x10]
	ldr         x9,[sp,#0x10]
	mov         w8,#0x74
	strb        w8,[x9]
	ldr         x8,[sp,#0x10]
	add         x8,x8,#1
	str         x8,[sp,#0x10]
	ldr         x9,[sp,#0x10]
	mov         w8,#0x61
	strb        w8,[x9]
	ldr         x8,[sp,#0x10]
	add         x8,x8,#1
	str         x8,[sp,#0x10]

; 1713 :         WRITE_4(1); // type

	ldr         x9,[sp,#0x10]
	mov         w8,#0
	strb        w8,[x9]
	ldr         x8,[sp,#0x10]
	add         x8,x8,#1
	str         x8,[sp,#0x10]
	ldr         x9,[sp,#0x10]
	mov         w8,#0
	strb        w8,[x9]
	ldr         x8,[sp,#0x10]
	add         x8,x8,#1
	str         x8,[sp,#0x10]
	ldr         x9,[sp,#0x10]
	mov         w8,#0
	strb        w8,[x9]
	ldr         x8,[sp,#0x10]
	add         x8,x8,#1
	str         x8,[sp,#0x10]
	ldr         x9,[sp,#0x10]
	mov         w8,#1
	strb        w8,[x9]
	ldr         x8,[sp,#0x10]
	add         x8,x8,#1
	str         x8,[sp,#0x10]

; 1714 :         WRITE_4(0); // lang

	ldr         x9,[sp,#0x10]
	mov         w8,#0
	strb        w8,[x9]
	ldr         x8,[sp,#0x10]
	add         x8,x8,#1
	str         x8,[sp,#0x10]
	ldr         x9,[sp,#0x10]
	mov         w8,#0
	strb        w8,[x9]
	ldr         x8,[sp,#0x10]
	add         x8,x8,#1
	str         x8,[sp,#0x10]
	ldr         x9,[sp,#0x10]
	mov         w8,#0
	strb        w8,[x9]
	ldr         x8,[sp,#0x10]
	add         x8,x8,#1
	str         x8,[sp,#0x10]
	ldr         x9,[sp,#0x10]
	mov         w8,#0
	strb        w8,[x9]
	ldr         x8,[sp,#0x10]
	add         x8,x8,#1
	str         x8,[sp,#0x10]

; 1715 :         for (i = 0; i < (int)strlen(mux->text_comment) + 1; i++)

	mov         w8,#0
	str         w8,[sp,#0x20]
	b           |$LN63@mp4e_flush|
|$LN61@mp4e_flush|
	ldr         w8,[sp,#0x20]
	add         w8,w8,#1
	str         w8,[sp,#0x20]
|$LN63@mp4e_flush|
	ldr         x8,[sp,#0x48]
	add         x8,x8,#0x28
	ldr         x0,[x8]
	bl          strlen
	mov         w8,w0
	add         w9,w8,#1
	ldr         w8,[sp,#0x20]
	cmp         w8,w9
	bge         |$LN62@mp4e_flush|

; 1716 :         {
; 1717 :             WRITE_1(mux->text_comment[i]);

	ldr         x8,[sp,#0x48]
	add         x10,x8,#0x28
	ldr         w8,[sp,#0x20]
	sxtw        x9,w8
	mov         x8,#1
	mul         x9,x9,x8
	ldr         x8,[x10]
	add         x8,x8,x9
	ldrsb       w8,[x8]
	uxtb        w9,w8
	ldr         x8,[sp,#0x10]
	strb        w9,[x8]
	ldr         x8,[sp,#0x10]
	add         x8,x8,#1
	str         x8,[sp,#0x10]

; 1718 :         }

	b           |$LN61@mp4e_flush|
|$LN62@mp4e_flush|

; 1719 :         END_ATOM;

	ldr         x8,[sp,#0x18]
	sub         x8,x8,#8
	str         x8,[sp,#0x18]
	ldr         x9,[sp,#0x10]
	ldr         x8,[sp,#0x18]
	ldr         x8,[x8]
	sub         x8,x9,x8
	asr         x8,x8,#0x18
	uxtb        w9,w8
	ldr         x8,[sp,#0x18]
	ldr         x8,[x8]
	strb        w9,[x8]
	ldr         x9,[sp,#0x10]
	ldr         x8,[sp,#0x18]
	ldr         x8,[x8]
	sub         x8,x9,x8
	asr         x8,x8,#0x10
	uxtb        w9,w8
	ldr         x8,[sp,#0x18]
	ldr         x8,[x8]
	add         x8,x8,#1
	strb        w9,[x8]
	ldr         x9,[sp,#0x10]
	ldr         x8,[sp,#0x18]
	ldr         x8,[x8]
	sub         x8,x9,x8
	asr         x8,x8,#8
	uxtb        w9,w8
	ldr         x8,[sp,#0x18]
	ldr         x8,[x8]
	add         x8,x8,#2
	strb        w9,[x8]
	ldr         x9,[sp,#0x10]
	ldr         x8,[sp,#0x18]
	ldr         x8,[x8]
	sub         x8,x9,x8
	uxtb        w9,w8
	ldr         x8,[sp,#0x18]
	ldr         x8,[x8]
	add         x8,x8,#3
	strb        w9,[x8]

; 1720 :         END_ATOM;

	ldr         x8,[sp,#0x18]
	sub         x8,x8,#8
	str         x8,[sp,#0x18]
	ldr         x9,[sp,#0x10]
	ldr         x8,[sp,#0x18]
	ldr         x8,[x8]
	sub         x8,x9,x8
	asr         x8,x8,#0x18
	uxtb        w9,w8
	ldr         x8,[sp,#0x18]
	ldr         x8,[x8]
	strb        w9,[x8]
	ldr         x9,[sp,#0x10]
	ldr         x8,[sp,#0x18]
	ldr         x8,[x8]
	sub         x8,x9,x8
	asr         x8,x8,#0x10
	uxtb        w9,w8
	ldr         x8,[sp,#0x18]
	ldr         x8,[x8]
	add         x8,x8,#1
	strb        w9,[x8]
	ldr         x9,[sp,#0x10]
	ldr         x8,[sp,#0x18]
	ldr         x8,[x8]
	sub         x8,x9,x8
	asr         x8,x8,#8
	uxtb        w9,w8
	ldr         x8,[sp,#0x18]
	ldr         x8,[x8]
	add         x8,x8,#2
	strb        w9,[x8]
	ldr         x9,[sp,#0x10]
	ldr         x8,[sp,#0x18]
	ldr         x8,[x8]
	sub         x8,x9,x8
	uxtb        w9,w8
	ldr         x8,[sp,#0x18]
	ldr         x8,[x8]
	add         x8,x8,#3
	strb        w9,[x8]

; 1721 :         END_ATOM;

	ldr         x8,[sp,#0x18]
	sub         x8,x8,#8
	str         x8,[sp,#0x18]
	ldr         x9,[sp,#0x10]
	ldr         x8,[sp,#0x18]
	ldr         x8,[x8]
	sub         x8,x9,x8
	asr         x8,x8,#0x18
	uxtb        w9,w8
	ldr         x8,[sp,#0x18]
	ldr         x8,[x8]
	strb        w9,[x8]
	ldr         x9,[sp,#0x10]
	ldr         x8,[sp,#0x18]
	ldr         x8,[x8]
	sub         x8,x9,x8
	asr         x8,x8,#0x10
	uxtb        w9,w8
	ldr         x8,[sp,#0x18]
	ldr         x8,[x8]
	add         x8,x8,#1
	strb        w9,[x8]
	ldr         x9,[sp,#0x10]
	ldr         x8,[sp,#0x18]
	ldr         x8,[x8]
	sub         x8,x9,x8
	asr         x8,x8,#8
	uxtb        w9,w8
	ldr         x8,[sp,#0x18]
	ldr         x8,[x8]
	add         x8,x8,#2
	strb        w9,[x8]
	ldr         x9,[sp,#0x10]
	ldr         x8,[sp,#0x18]
	ldr         x8,[x8]
	sub         x8,x9,x8
	uxtb        w9,w8
	ldr         x8,[sp,#0x18]
	ldr         x8,[x8]
	add         x8,x8,#3
	strb        w9,[x8]

; 1722 :         END_ATOM;

	ldr         x8,[sp,#0x18]
	sub         x8,x8,#8
	str         x8,[sp,#0x18]
	ldr         x9,[sp,#0x10]
	ldr         x8,[sp,#0x18]
	ldr         x8,[x8]
	sub         x8,x9,x8
	asr         x8,x8,#0x18
	uxtb        w9,w8
	ldr         x8,[sp,#0x18]
	ldr         x8,[x8]
	strb        w9,[x8]
	ldr         x9,[sp,#0x10]
	ldr         x8,[sp,#0x18]
	ldr         x8,[x8]
	sub         x8,x9,x8
	asr         x8,x8,#0x10
	uxtb        w9,w8
	ldr         x8,[sp,#0x18]
	ldr         x8,[x8]
	add         x8,x8,#1
	strb        w9,[x8]
	ldr         x9,[sp,#0x10]
	ldr         x8,[sp,#0x18]
	ldr         x8,[x8]
	sub         x8,x9,x8
	asr         x8,x8,#8
	uxtb        w9,w8
	ldr         x8,[sp,#0x18]
	ldr         x8,[x8]
	add         x8,x8,#2
	strb        w9,[x8]
	ldr         x9,[sp,#0x10]
	ldr         x8,[sp,#0x18]
	ldr         x8,[x8]
	sub         x8,x9,x8
	uxtb        w9,w8
	ldr         x8,[sp,#0x18]
	ldr         x8,[x8]
	add         x8,x8,#3
	strb        w9,[x8]

; 1723 :         END_ATOM;

	ldr         x8,[sp,#0x18]
	sub         x8,x8,#8
	str         x8,[sp,#0x18]
	ldr         x9,[sp,#0x10]
	ldr         x8,[sp,#0x18]
	ldr         x8,[x8]
	sub         x8,x9,x8
	asr         x8,x8,#0x18
	uxtb        w9,w8
	ldr         x8,[sp,#0x18]
	ldr         x8,[x8]
	strb        w9,[x8]
	ldr         x9,[sp,#0x10]
	ldr         x8,[sp,#0x18]
	ldr         x8,[x8]
	sub         x8,x9,x8
	asr         x8,x8,#0x10
	uxtb        w9,w8
	ldr         x8,[sp,#0x18]
	ldr         x8,[x8]
	add         x8,x8,#1
	strb        w9,[x8]
	ldr         x9,[sp,#0x10]
	ldr         x8,[sp,#0x18]
	ldr         x8,[x8]
	sub         x8,x9,x8
	asr         x8,x8,#8
	uxtb        w9,w8
	ldr         x8,[sp,#0x18]
	ldr         x8,[x8]
	add         x8,x8,#2
	strb        w9,[x8]
	ldr         x9,[sp,#0x10]
	ldr         x8,[sp,#0x18]
	ldr         x8,[x8]
	sub         x8,x9,x8
	uxtb        w9,w8
	ldr         x8,[sp,#0x18]
	ldr         x8,[x8]
	add         x8,x8,#3
	strb        w9,[x8]
|$LN115@mp4e_flush|

; 1724 :     }
; 1725 : 
; 1726 :     if (mux->enable_fragmentation)

	ldr         x8,[sp,#0x48]
	add         x8,x8,#0x34
	ldr         w8,[x8]
	cmp         w8,#0
	beq         |$LN116@mp4e_flush|

; 1727 :     {
; 1728 :         track_t* tr = ((track_t*)mux->tracks.data) + 0;

	ldr         x8,[sp,#0x48]
	ldr         x8,[x8]
	str         x8,[sp,#0xF0]

; 1729 :         uint32_t movie_duration = get_duration(tr);

	ldr         x0,[sp,#0xF0]
	bl          |?get_duration@@YAIPEBUtrack_t@@@Z|
	mov         w0,w0
	str         w0,[sp,#0x90]

; 1730 : 
; 1731 :         ATOM(BOX_mvex);

	ldr         x9,[sp,#0x18]
	ldr         x8,[sp,#0x10]
	str         x8,[x9]
	ldr         x8,[sp,#0x18]
	add         x8,x8,#8
	str         x8,[sp,#0x18]
	ldr         x8,[sp,#0x10]
	add         x8,x8,#4
	str         x8,[sp,#0x10]
	ldr         x9,[sp,#0x10]
	mov         w8,#0x6D
	strb        w8,[x9]
	ldr         x8,[sp,#0x10]
	add         x8,x8,#1
	str         x8,[sp,#0x10]
	ldr         x9,[sp,#0x10]
	mov         w8,#0x76
	strb        w8,[x9]
	ldr         x8,[sp,#0x10]
	add         x8,x8,#1
	str         x8,[sp,#0x10]
	ldr         x9,[sp,#0x10]
	mov         w8,#0x65
	strb        w8,[x9]
	ldr         x8,[sp,#0x10]
	add         x8,x8,#1
	str         x8,[sp,#0x10]
	ldr         x9,[sp,#0x10]
	mov         w8,#0x78
	strb        w8,[x9]
	ldr         x8,[sp,#0x10]
	add         x8,x8,#1
	str         x8,[sp,#0x10]

; 1732 :         ATOM_FULL(BOX_mehd, 0);

	ldr         x9,[sp,#0x18]
	ldr         x8,[sp,#0x10]
	str         x8,[x9]
	ldr         x8,[sp,#0x18]
	add         x8,x8,#8
	str         x8,[sp,#0x18]
	ldr         x8,[sp,#0x10]
	add         x8,x8,#4
	str         x8,[sp,#0x10]
	ldr         x9,[sp,#0x10]
	mov         w8,#0x6D
	strb        w8,[x9]
	ldr         x8,[sp,#0x10]
	add         x8,x8,#1
	str         x8,[sp,#0x10]
	ldr         x9,[sp,#0x10]
	mov         w8,#0x65
	strb        w8,[x9]
	ldr         x8,[sp,#0x10]
	add         x8,x8,#1
	str         x8,[sp,#0x10]
	ldr         x9,[sp,#0x10]
	mov         w8,#0x68
	strb        w8,[x9]
	ldr         x8,[sp,#0x10]
	add         x8,x8,#1
	str         x8,[sp,#0x10]
	ldr         x9,[sp,#0x10]
	mov         w8,#0x64
	strb        w8,[x9]
	ldr         x8,[sp,#0x10]
	add         x8,x8,#1
	str         x8,[sp,#0x10]
	ldr         x9,[sp,#0x10]
	mov         w8,#0
	strb        w8,[x9]
	ldr         x8,[sp,#0x10]
	add         x8,x8,#1
	str         x8,[sp,#0x10]
	ldr         x9,[sp,#0x10]
	mov         w8,#0
	strb        w8,[x9]
	ldr         x8,[sp,#0x10]
	add         x8,x8,#1
	str         x8,[sp,#0x10]
	ldr         x9,[sp,#0x10]
	mov         w8,#0
	strb        w8,[x9]
	ldr         x8,[sp,#0x10]
	add         x8,x8,#1
	str         x8,[sp,#0x10]
	ldr         x9,[sp,#0x10]
	mov         w8,#0
	strb        w8,[x9]
	ldr         x8,[sp,#0x10]
	add         x8,x8,#1
	str         x8,[sp,#0x10]

; 1733 :         WRITE_4(movie_duration); // duration

	ldr         w8,[sp,#0x90]
	lsr         w8,w8,#0x18
	uxtb        w9,w8
	ldr         x8,[sp,#0x10]
	strb        w9,[x8]
	ldr         x8,[sp,#0x10]
	add         x8,x8,#1
	str         x8,[sp,#0x10]
	ldr         w8,[sp,#0x90]
	lsr         w8,w8,#0x10
	uxtb        w9,w8
	ldr         x8,[sp,#0x10]
	strb        w9,[x8]
	ldr         x8,[sp,#0x10]
	add         x8,x8,#1
	str         x8,[sp,#0x10]
	ldr         w8,[sp,#0x90]
	lsr         w8,w8,#8
	uxtb        w9,w8
	ldr         x8,[sp,#0x10]
	strb        w9,[x8]
	ldr         x8,[sp,#0x10]
	add         x8,x8,#1
	str         x8,[sp,#0x10]
	ldr         w8,[sp,#0x90]
	uxtb        w9,w8
	ldr         x8,[sp,#0x10]
	strb        w9,[x8]
	ldr         x8,[sp,#0x10]
	add         x8,x8,#1
	str         x8,[sp,#0x10]

; 1734 :         END_ATOM;

	ldr         x8,[sp,#0x18]
	sub         x8,x8,#8
	str         x8,[sp,#0x18]
	ldr         x9,[sp,#0x10]
	ldr         x8,[sp,#0x18]
	ldr         x8,[x8]
	sub         x8,x9,x8
	asr         x8,x8,#0x18
	uxtb        w9,w8
	ldr         x8,[sp,#0x18]
	ldr         x8,[x8]
	strb        w9,[x8]
	ldr         x9,[sp,#0x10]
	ldr         x8,[sp,#0x18]
	ldr         x8,[x8]
	sub         x8,x9,x8
	asr         x8,x8,#0x10
	uxtb        w9,w8
	ldr         x8,[sp,#0x18]
	ldr         x8,[x8]
	add         x8,x8,#1
	strb        w9,[x8]
	ldr         x9,[sp,#0x10]
	ldr         x8,[sp,#0x18]
	ldr         x8,[x8]
	sub         x8,x9,x8
	asr         x8,x8,#8
	uxtb        w9,w8
	ldr         x8,[sp,#0x18]
	ldr         x8,[x8]
	add         x8,x8,#2
	strb        w9,[x8]
	ldr         x9,[sp,#0x10]
	ldr         x8,[sp,#0x18]
	ldr         x8,[x8]
	sub         x8,x9,x8
	uxtb        w9,w8
	ldr         x8,[sp,#0x18]
	ldr         x8,[x8]
	add         x8,x8,#3
	strb        w9,[x8]

; 1735 :         for (ntr = 0; ntr < ntracks; ntr++)

	mov         w8,#0
	str         w8,[sp,#0x34]
	b           |$LN66@mp4e_flush|
|$LN64@mp4e_flush|
	ldr         w8,[sp,#0x34]
	add         w8,w8,#1
	str         w8,[sp,#0x34]
|$LN66@mp4e_flush|
	ldr         w9,[sp,#0x58]
	ldr         w8,[sp,#0x34]
	cmp         w8,w9
	bhs         |$LN65@mp4e_flush|

; 1736 :         {
; 1737 :             ATOM_FULL(BOX_trex, 0);

	ldr         x9,[sp,#0x18]
	ldr         x8,[sp,#0x10]
	str         x8,[x9]
	ldr         x8,[sp,#0x18]
	add         x8,x8,#8
	str         x8,[sp,#0x18]
	ldr         x8,[sp,#0x10]
	add         x8,x8,#4
	str         x8,[sp,#0x10]
	ldr         x9,[sp,#0x10]
	mov         w8,#0x74
	strb        w8,[x9]
	ldr         x8,[sp,#0x10]
	add         x8,x8,#1
	str         x8,[sp,#0x10]
	ldr         x9,[sp,#0x10]
	mov         w8,#0x72
	strb        w8,[x9]
	ldr         x8,[sp,#0x10]
	add         x8,x8,#1
	str         x8,[sp,#0x10]
	ldr         x9,[sp,#0x10]
	mov         w8,#0x65
	strb        w8,[x9]
	ldr         x8,[sp,#0x10]
	add         x8,x8,#1
	str         x8,[sp,#0x10]
	ldr         x9,[sp,#0x10]
	mov         w8,#0x78
	strb        w8,[x9]
	ldr         x8,[sp,#0x10]
	add         x8,x8,#1
	str         x8,[sp,#0x10]
	ldr         x9,[sp,#0x10]
	mov         w8,#0
	strb        w8,[x9]
	ldr         x8,[sp,#0x10]
	add         x8,x8,#1
	str         x8,[sp,#0x10]
	ldr         x9,[sp,#0x10]
	mov         w8,#0
	strb        w8,[x9]
	ldr         x8,[sp,#0x10]
	add         x8,x8,#1
	str         x8,[sp,#0x10]
	ldr         x9,[sp,#0x10]
	mov         w8,#0
	strb        w8,[x9]
	ldr         x8,[sp,#0x10]
	add         x8,x8,#1
	str         x8,[sp,#0x10]
	ldr         x9,[sp,#0x10]
	mov         w8,#0
	strb        w8,[x9]
	ldr         x8,[sp,#0x10]
	add         x8,x8,#1
	str         x8,[sp,#0x10]

; 1738 :             WRITE_4(ntr + 1);        // track_ID

	ldr         w8,[sp,#0x34]
	add         w8,w8,#1
	lsr         w8,w8,#0x18
	uxtb        w9,w8
	ldr         x8,[sp,#0x10]
	strb        w9,[x8]
	ldr         x8,[sp,#0x10]
	add         x8,x8,#1
	str         x8,[sp,#0x10]
	ldr         w8,[sp,#0x34]
	add         w8,w8,#1
	lsr         w8,w8,#0x10
	uxtb        w9,w8
	ldr         x8,[sp,#0x10]
	strb        w9,[x8]
	ldr         x8,[sp,#0x10]
	add         x8,x8,#1
	str         x8,[sp,#0x10]
	ldr         w8,[sp,#0x34]
	add         w8,w8,#1
	lsr         w8,w8,#8
	uxtb        w9,w8
	ldr         x8,[sp,#0x10]
	strb        w9,[x8]
	ldr         x8,[sp,#0x10]
	add         x8,x8,#1
	str         x8,[sp,#0x10]
	ldr         w8,[sp,#0x34]
	add         w8,w8,#1
	uxtb        w9,w8
	ldr         x8,[sp,#0x10]
	strb        w9,[x8]
	ldr         x8,[sp,#0x10]
	add         x8,x8,#1
	str         x8,[sp,#0x10]

; 1739 :             WRITE_4(1);              // default_sample_description_index

	ldr         x9,[sp,#0x10]
	mov         w8,#0
	strb        w8,[x9]
	ldr         x8,[sp,#0x10]
	add         x8,x8,#1
	str         x8,[sp,#0x10]
	ldr         x9,[sp,#0x10]
	mov         w8,#0
	strb        w8,[x9]
	ldr         x8,[sp,#0x10]
	add         x8,x8,#1
	str         x8,[sp,#0x10]
	ldr         x9,[sp,#0x10]
	mov         w8,#0
	strb        w8,[x9]
	ldr         x8,[sp,#0x10]
	add         x8,x8,#1
	str         x8,[sp,#0x10]
	ldr         x9,[sp,#0x10]
	mov         w8,#1
	strb        w8,[x9]
	ldr         x8,[sp,#0x10]
	add         x8,x8,#1
	str         x8,[sp,#0x10]

; 1740 :             WRITE_4(0);              // default_sample_duration

	ldr         x9,[sp,#0x10]
	mov         w8,#0
	strb        w8,[x9]
	ldr         x8,[sp,#0x10]
	add         x8,x8,#1
	str         x8,[sp,#0x10]
	ldr         x9,[sp,#0x10]
	mov         w8,#0
	strb        w8,[x9]
	ldr         x8,[sp,#0x10]
	add         x8,x8,#1
	str         x8,[sp,#0x10]
	ldr         x9,[sp,#0x10]
	mov         w8,#0
	strb        w8,[x9]
	ldr         x8,[sp,#0x10]
	add         x8,x8,#1
	str         x8,[sp,#0x10]
	ldr         x9,[sp,#0x10]
	mov         w8,#0
	strb        w8,[x9]
	ldr         x8,[sp,#0x10]
	add         x8,x8,#1
	str         x8,[sp,#0x10]

; 1741 :             WRITE_4(0);              // default_sample_size

	ldr         x9,[sp,#0x10]
	mov         w8,#0
	strb        w8,[x9]
	ldr         x8,[sp,#0x10]
	add         x8,x8,#1
	str         x8,[sp,#0x10]
	ldr         x9,[sp,#0x10]
	mov         w8,#0
	strb        w8,[x9]
	ldr         x8,[sp,#0x10]
	add         x8,x8,#1
	str         x8,[sp,#0x10]
	ldr         x9,[sp,#0x10]
	mov         w8,#0
	strb        w8,[x9]
	ldr         x8,[sp,#0x10]
	add         x8,x8,#1
	str         x8,[sp,#0x10]
	ldr         x9,[sp,#0x10]
	mov         w8,#0
	strb        w8,[x9]
	ldr         x8,[sp,#0x10]
	add         x8,x8,#1
	str         x8,[sp,#0x10]

; 1742 :             WRITE_4(0);              // default_sample_flags

	ldr         x9,[sp,#0x10]
	mov         w8,#0
	strb        w8,[x9]
	ldr         x8,[sp,#0x10]
	add         x8,x8,#1
	str         x8,[sp,#0x10]
	ldr         x9,[sp,#0x10]
	mov         w8,#0
	strb        w8,[x9]
	ldr         x8,[sp,#0x10]
	add         x8,x8,#1
	str         x8,[sp,#0x10]
	ldr         x9,[sp,#0x10]
	mov         w8,#0
	strb        w8,[x9]
	ldr         x8,[sp,#0x10]
	add         x8,x8,#1
	str         x8,[sp,#0x10]
	ldr         x9,[sp,#0x10]
	mov         w8,#0
	strb        w8,[x9]
	ldr         x8,[sp,#0x10]
	add         x8,x8,#1
	str         x8,[sp,#0x10]

; 1743 :             END_ATOM;

	ldr         x8,[sp,#0x18]
	sub         x8,x8,#8
	str         x8,[sp,#0x18]
	ldr         x9,[sp,#0x10]
	ldr         x8,[sp,#0x18]
	ldr         x8,[x8]
	sub         x8,x9,x8
	asr         x8,x8,#0x18
	uxtb        w9,w8
	ldr         x8,[sp,#0x18]
	ldr         x8,[x8]
	strb        w9,[x8]
	ldr         x9,[sp,#0x10]
	ldr         x8,[sp,#0x18]
	ldr         x8,[x8]
	sub         x8,x9,x8
	asr         x8,x8,#0x10
	uxtb        w9,w8
	ldr         x8,[sp,#0x18]
	ldr         x8,[x8]
	add         x8,x8,#1
	strb        w9,[x8]
	ldr         x9,[sp,#0x10]
	ldr         x8,[sp,#0x18]
	ldr         x8,[x8]
	sub         x8,x9,x8
	asr         x8,x8,#8
	uxtb        w9,w8
	ldr         x8,[sp,#0x18]
	ldr         x8,[x8]
	add         x8,x8,#2
	strb        w9,[x8]
	ldr         x9,[sp,#0x10]
	ldr         x8,[sp,#0x18]
	ldr         x8,[x8]
	sub         x8,x9,x8
	uxtb        w9,w8
	ldr         x8,[sp,#0x18]
	ldr         x8,[x8]
	add         x8,x8,#3
	strb        w9,[x8]

; 1744 :         }

	b           |$LN64@mp4e_flush|
|$LN65@mp4e_flush|

; 1745 :         END_ATOM;

	ldr         x8,[sp,#0x18]
	sub         x8,x8,#8
	str         x8,[sp,#0x18]
	ldr         x9,[sp,#0x10]
	ldr         x8,[sp,#0x18]
	ldr         x8,[x8]
	sub         x8,x9,x8
	asr         x8,x8,#0x18
	uxtb        w9,w8
	ldr         x8,[sp,#0x18]
	ldr         x8,[x8]
	strb        w9,[x8]
	ldr         x9,[sp,#0x10]
	ldr         x8,[sp,#0x18]
	ldr         x8,[x8]
	sub         x8,x9,x8
	asr         x8,x8,#0x10
	uxtb        w9,w8
	ldr         x8,[sp,#0x18]
	ldr         x8,[x8]
	add         x8,x8,#1
	strb        w9,[x8]
	ldr         x9,[sp,#0x10]
	ldr         x8,[sp,#0x18]
	ldr         x8,[x8]
	sub         x8,x9,x8
	asr         x8,x8,#8
	uxtb        w9,w8
	ldr         x8,[sp,#0x18]
	ldr         x8,[x8]
	add         x8,x8,#2
	strb        w9,[x8]
	ldr         x9,[sp,#0x10]
	ldr         x8,[sp,#0x18]
	ldr         x8,[x8]
	sub         x8,x9,x8
	uxtb        w9,w8
	ldr         x8,[sp,#0x18]
	ldr         x8,[x8]
	add         x8,x8,#3
	strb        w9,[x8]
|$LN116@mp4e_flush|

; 1746 :     }
; 1747 :     END_ATOM;   // moov atom

	ldr         x8,[sp,#0x18]
	sub         x8,x8,#8
	str         x8,[sp,#0x18]
	ldr         x9,[sp,#0x10]
	ldr         x8,[sp,#0x18]
	ldr         x8,[x8]
	sub         x8,x9,x8
	asr         x8,x8,#0x18
	uxtb        w9,w8
	ldr         x8,[sp,#0x18]
	ldr         x8,[x8]
	strb        w9,[x8]
	ldr         x9,[sp,#0x10]
	ldr         x8,[sp,#0x18]
	ldr         x8,[x8]
	sub         x8,x9,x8
	asr         x8,x8,#0x10
	uxtb        w9,w8
	ldr         x8,[sp,#0x18]
	ldr         x8,[x8]
	add         x8,x8,#1
	strb        w9,[x8]
	ldr         x9,[sp,#0x10]
	ldr         x8,[sp,#0x18]
	ldr         x8,[x8]
	sub         x8,x9,x8
	asr         x8,x8,#8
	uxtb        w9,w8
	ldr         x8,[sp,#0x18]
	ldr         x8,[x8]
	add         x8,x8,#2
	strb        w9,[x8]
	ldr         x9,[sp,#0x10]
	ldr         x8,[sp,#0x18]
	ldr         x8,[x8]
	sub         x8,x9,x8
	uxtb        w9,w8
	ldr         x8,[sp,#0x18]
	ldr         x8,[x8]
	add         x8,x8,#3
	strb        w9,[x8]

; 1748 : 
; 1749 :     assert((unsigned)(p - base) <= index_bytes);

	ldr         x9,[sp,#0x10]
	ldr         x8,[sp,#0x88]
	sub         x8,x9,x8
	mov         w8,w8
	cmp         w8,#0
	bne         |$LN121@mp4e_flush|
	mov         w8,#1
	str         w8,[sp,#0xB8]
	b           |$LN122@mp4e_flush|
|$LN121@mp4e_flush|
	mov         w8,#0
	str         w8,[sp,#0xB8]
|$LN122@mp4e_flush|
	ldr         w9,[sp,#0x38]
	ldr         w8,[sp,#0xB8]
	cmp         w8,w9
	bhi         |$LN117@mp4e_flush|
	bl          abort
|$LN117@mp4e_flush|

; 1750 : 
; 1751 :     err = mux->write_callback(mux->write_pos, base, p - base, mux->token);

	ldr         x8,[sp,#0x48]
	add         x10,x8,#0x20
	ldr         x9,[sp,#0x10]
	ldr         x8,[sp,#0x88]
	sub         x2,x9,x8
	ldr         x8,[sp,#0x48]
	add         x9,x8,#0x10
	ldr         x8,[sp,#0x48]
	add         x8,x8,#0x18
	ldr         x3,[x10]
	ldr         x1,[sp,#0x88]
	ldr         x0,[x9]
	ldr         x8,[x8]
	blr         x8
	mov         w0,w0
	str         w0,[sp,#0xD8]

; 1752 :     mux->write_pos += p - base;

	ldr         x8,[sp,#0x48]
	add         x10,x8,#0x10
	ldr         x9,[sp,#0x10]
	ldr         x8,[sp,#0x88]
	sub         x9,x9,x8
	ldr         x8,[x10]
	add         x9,x8,x9
	ldr         x8,[sp,#0x48]
	add         x8,x8,#0x10
	str         x9,[x8]

; 1753 :     free(base);

	ldr         x0,[sp,#0x88]
	bl          free

; 1754 :     return err;

	ldr         w0,[sp,#0xD8]
|$LN1@mp4e_flush|
	ldp         fp,lr,[sp],#0x1A0
	ret
	nop
|$LN128@mp4e_flush|
	DCD         0x736f756e
|$LN129@mp4e_flush|
	DCD         0x76696465
|$LN130@mp4e_flush|
	DCD         0x6765736d

	ENDP  ; |?mp4e_flush_index@@YAHPEAUMP4E_mux_tag@@@Z|, mp4e_flush_index

; Function compile flags: /Odtp
; File C:\Users\paras\source\repos\grep-name\XenevaOS\Process\AudioPlayer\minimp4.h

	AREA	|.text$mn|, CODE, ARM64

|?add_sample_descriptor@@YAHPEAUMP4E_mux_tag@@PEAUtrack_t@@HHH@Z| PROC ; add_sample_descriptor

; 979  : {

	stp         fp,lr,[sp,#-0x50]!
	mov         fp,sp
	str         x0,[sp,#0x30]
	str         x1,[sp,#0x28]
	str         w2,[sp,#0x20]
	str         w3,[sp,#0x10]
	str         w4,[sp,#0x24]

; 980  :     sample_t smp;
; 981  :     smp.size = data_bytes;

	ldr         w8,[sp,#0x20]
	sxtw        x8,w8
	str         x8,[sp,#0x38]

; 982  :     smp.offset = (boxsize_t)mux->write_pos;

	ldr         x8,[sp,#0x30]
	add         x8,x8,#0x10
	ldr         x8,[x8]
	str         x8,[sp,#0x40]

; 983  :     smp.duration = (duration ? duration : tr->info.default_duration);

	ldr         w8,[sp,#0x10]
	cmp         w8,#0
	beq         |$LN3@add_sample|
	ldr         w8,[sp,#0x10]
	str         w8,[sp,#0x14]
	b           |$LN4@add_sample|
|$LN3@add_sample|
	ldr         x8,[sp,#0x28]
	add         x8,x8,#0x10
	ldr         w8,[x8]
	str         w8,[sp,#0x14]
|$LN4@add_sample|
	ldr         w8,[sp,#0x14]
	str         w8,[sp,#0x48]

; 984  :     smp.flag_random_access = (kind == MP4E_SAMPLE_RANDOM_ACCESS);

	ldr         w8,[sp,#0x24]
	cmp         w8,#1
	bne         |$LN5@add_sample|
	mov         w8,#1
	str         w8,[sp,#0x18]
	b           |$LN6@add_sample|
|$LN5@add_sample|
	mov         w8,#0
	str         w8,[sp,#0x18]
|$LN6@add_sample|
	ldr         w8,[sp,#0x18]
	str         w8,[sp,#0x4C]

; 985  :     return NULL != minimp4_vector_put(&tr->smpl, &smp, sizeof(sample_t));

	ldr         x8,[sp,#0x28]
	add         x0,x8,#0x20
	mov         w2,#0x18
	add         x1,sp,#0x38
	bl          |?minimp4_vector_put@@YAPEAEPEAUminimp4_vector_t@@PEBXH@Z|
	mov         x8,#0
	cmp         x8,x0
	beq         |$LN7@add_sample|
	mov         w8,#1
	str         w8,[sp,#0x1C]
	b           |$LN8@add_sample|
|$LN7@add_sample|
	mov         w8,#0
	str         w8,[sp,#0x1C]
|$LN8@add_sample|
	ldr         w0,[sp,#0x1C]
	ldp         fp,lr,[sp],#0x50
	ret

	ENDP  ; |?add_sample_descriptor@@YAHPEAUMP4E_mux_tag@@PEAUtrack_t@@HHH@Z|, add_sample_descriptor

; Function compile flags: /Odtp
; File C:\Users\paras\source\repos\grep-name\XenevaOS\Process\AudioPlayer\minimp4.h

	AREA	|.text$mn|, CODE, ARM64

|?write_pending_data@@YAHPEAUMP4E_mux_tag@@PEAUtrack_t@@@Z| PROC ; write_pending_data

; 946  : {

	stp         fp,lr,[sp,#-0x40]!
	mov         fp,sp
	str         x0,[sp,#0x20]
	str         x1,[sp,#0x28]

; 947  :     // if have pending sample && have at least one sample in the index
; 948  :     if (tr->pending_sample.bytes > 0 && tr->smpl.bytes >= sizeof(sample_t))

	ldr         x8,[sp,#0x28]
	add         x8,x8,#0x30
	add         x8,x8,#8
	ldr         w8,[x8]
	cmp         w8,#0
	ble         |$LN2@write_pend|
	ldr         x8,[sp,#0x28]
	add         x8,x8,#0x20
	add         x8,x8,#8
	ldr         w8,[x8]
	sxtw        x8,w8
	cmp         x8,#0x18
	blo         |$LN2@write_pend|

; 949  :     {
; 950  :         // Complete pending sample
; 951  :         sample_t* smpl_desc;
; 952  :         unsigned char base[8], * p = base;

	add         x8,sp,#0x30
	str         x8,[sp,#0x18]

; 953  : 
; 954  :         assert(mux->sequential_mode_flag);

	ldr         x8,[sp,#0x20]
	add         x8,x8,#0x30
	ldr         w8,[x8]
	cmp         w8,#0
	bne         |$LN3@write_pend|
	bl          abort
|$LN3@write_pend|

; 955  : 
; 956  :         // Write each sample to a separate atom
; 957  :         assert(mux->sequential_mode_flag);      // Separate atom needed for sequential_mode only

	ldr         x8,[sp,#0x20]
	add         x8,x8,#0x30
	ldr         w8,[x8]
	cmp         w8,#0
	bne         |$LN4@write_pend|
	bl          abort
|$LN4@write_pend|

; 958  :         WRITE_4(tr->pending_sample.bytes + 8);

	ldr         x8,[sp,#0x28]
	add         x8,x8,#0x30
	add         x8,x8,#8
	ldr         w8,[x8]
	add         w8,w8,#8
	asr         w8,w8,#0x18
	uxtb        w9,w8
	ldr         x8,[sp,#0x18]
	strb        w9,[x8]
	ldr         x8,[sp,#0x18]
	add         x8,x8,#1
	str         x8,[sp,#0x18]
	ldr         x8,[sp,#0x28]
	add         x8,x8,#0x30
	add         x8,x8,#8
	ldr         w8,[x8]
	add         w8,w8,#8
	asr         w8,w8,#0x10
	uxtb        w9,w8
	ldr         x8,[sp,#0x18]
	strb        w9,[x8]
	ldr         x8,[sp,#0x18]
	add         x8,x8,#1
	str         x8,[sp,#0x18]
	ldr         x8,[sp,#0x28]
	add         x8,x8,#0x30
	add         x8,x8,#8
	ldr         w8,[x8]
	add         w8,w8,#8
	asr         w8,w8,#8
	uxtb        w9,w8
	ldr         x8,[sp,#0x18]
	strb        w9,[x8]
	ldr         x8,[sp,#0x18]
	add         x8,x8,#1
	str         x8,[sp,#0x18]
	ldr         x8,[sp,#0x28]
	add         x8,x8,#0x30
	add         x8,x8,#8
	ldr         w8,[x8]
	add         w8,w8,#8
	uxtb        w9,w8
	ldr         x8,[sp,#0x18]
	strb        w9,[x8]
	ldr         x8,[sp,#0x18]
	add         x8,x8,#1
	str         x8,[sp,#0x18]

; 959  :         WRITE_4(BOX_mdat);

	ldr         x9,[sp,#0x18]
	mov         w8,#0x6D
	strb        w8,[x9]
	ldr         x8,[sp,#0x18]
	add         x8,x8,#1
	str         x8,[sp,#0x18]
	ldr         x9,[sp,#0x18]
	mov         w8,#0x64
	strb        w8,[x9]
	ldr         x8,[sp,#0x18]
	add         x8,x8,#1
	str         x8,[sp,#0x18]
	ldr         x9,[sp,#0x18]
	mov         w8,#0x61
	strb        w8,[x9]
	ldr         x8,[sp,#0x18]
	add         x8,x8,#1
	str         x8,[sp,#0x18]
	ldr         x9,[sp,#0x18]
	mov         w8,#0x74
	strb        w8,[x9]
	ldr         x8,[sp,#0x18]
	add         x8,x8,#1
	str         x8,[sp,#0x18]

; 960  :         ERR(mux->write_callback(mux->write_pos, base, p - base, mux->token));

	ldr         x8,[sp,#0x20]
	add         x10,x8,#0x20
	ldr         x9,[sp,#0x18]
	add         x8,sp,#0x30
	sub         x2,x9,x8
	ldr         x8,[sp,#0x20]
	add         x9,x8,#0x10
	ldr         x8,[sp,#0x20]
	add         x8,x8,#0x18
	ldr         x3,[x10]
	add         x1,sp,#0x30
	ldr         x0,[x9]
	ldr         x8,[x8]
	blr         x8
	mov         w0,w0
	str         w0,[sp,#0x10]
	ldr         w8,[sp,#0x10]
	cmp         w8,#0
	beq         |$LN5@write_pend|
	ldr         w0,[sp,#0x10]
	b           |$LN1@write_pend|
|$LN5@write_pend|

; 961  :         mux->write_pos += p - base;

	ldr         x8,[sp,#0x20]
	add         x10,x8,#0x10
	ldr         x9,[sp,#0x18]
	add         x8,sp,#0x30
	sub         x9,x9,x8
	ldr         x8,[x10]
	add         x9,x8,x9
	ldr         x8,[sp,#0x20]
	add         x8,x8,#0x10
	str         x9,[x8]

; 962  : 
; 963  :         // Update sample descriptor with size and offset
; 964  :         smpl_desc = ((sample_t*)minimp4_vector_alloc_tail(&tr->smpl, 0)) - 1;

	ldr         x8,[sp,#0x28]
	add         x0,x8,#0x20
	mov         w1,#0
	bl          |?minimp4_vector_alloc_tail@@YAPEAEPEAUminimp4_vector_t@@H@Z|
	sub         x8,x0,#0x18
	str         x8,[sp,#0x38]

; 965  :         smpl_desc->size = tr->pending_sample.bytes;

	ldr         x8,[sp,#0x28]
	add         x8,x8,#0x30
	add         x8,x8,#8
	ldr         w8,[x8]
	sxtw        x9,w8
	ldr         x8,[sp,#0x38]
	str         x9,[x8]

; 966  :         smpl_desc->offset = (boxsize_t)mux->write_pos;

	ldr         x8,[sp,#0x20]
	add         x10,x8,#0x10
	ldr         x8,[sp,#0x38]
	add         x9,x8,#8
	ldr         x8,[x10]
	str         x8,[x9]

; 967  : 
; 968  :         // Write data
; 969  :         ERR(mux->write_callback(mux->write_pos, tr->pending_sample.data, tr->pending_sample.bytes, mux->token));

	ldr         x8,[sp,#0x20]
	add         x11,x8,#0x20
	ldr         x8,[sp,#0x28]
	add         x8,x8,#0x30
	add         x8,x8,#8
	ldr         w8,[x8]
	sxtw        x2,w8
	ldr         x8,[sp,#0x28]
	add         x10,x8,#0x30
	ldr         x8,[sp,#0x20]
	add         x9,x8,#0x10
	ldr         x8,[sp,#0x20]
	add         x8,x8,#0x18
	ldr         x3,[x11]
	ldr         x1,[x10]
	ldr         x0,[x9]
	ldr         x8,[x8]
	blr         x8
	mov         w0,w0
	str         w0,[sp,#0x14]
	ldr         w8,[sp,#0x14]
	cmp         w8,#0
	beq         |$LN6@write_pend|
	ldr         w0,[sp,#0x14]
	b           |$LN1@write_pend|
|$LN6@write_pend|

; 970  :         mux->write_pos += tr->pending_sample.bytes;

	ldr         x8,[sp,#0x20]
	add         x10,x8,#0x10
	ldr         x8,[sp,#0x28]
	add         x8,x8,#0x30
	add         x8,x8,#8
	ldr         w8,[x8]
	sxtw        x9,w8
	ldr         x8,[x10]
	add         x9,x8,x9
	ldr         x8,[sp,#0x20]
	add         x8,x8,#0x10
	str         x9,[x8]

; 971  : 
; 972  :         // reset buffer
; 973  :         tr->pending_sample.bytes = 0;

	ldr         x8,[sp,#0x28]
	add         x8,x8,#0x30
	add         x9,x8,#8
	mov         w8,#0
	str         w8,[x9]
|$LN2@write_pend|

; 974  :     }
; 975  :     return MP4E_STATUS_OK;

	mov         w0,#0
|$LN1@write_pend|
	ldp         fp,lr,[sp],#0x40
	ret

	ENDP  ; |?write_pending_data@@YAHPEAUMP4E_mux_tag@@PEAUtrack_t@@@Z|, write_pending_data

; Function compile flags: /Odtp
; File C:\Users\paras\source\repos\grep-name\XenevaOS\Process\AudioPlayer\minimp4.h

	AREA	|.text$mn|, CODE, ARM64

|?get_duration@@YAIPEBUtrack_t@@@Z| PROC		; get_duration

; 935  : {

	sub         sp,sp,#0x20
	str         x0,[sp,#8]

; 936  :     unsigned i, sum_duration = 0;

	mov         w8,#0
	str         w8,[sp,#4]

; 937  :     const sample_t* s = (const sample_t*)tr->smpl.data;

	ldr         x8,[sp,#8]
	add         x8,x8,#0x20
	ldr         x8,[x8]
	str         x8,[sp,#0x10]

; 938  :     for (i = 0; i < tr->smpl.bytes / sizeof(sample_t); i++)

	mov         w8,#0
	str         w8,[sp]
	b           |$LN4@get_durati|
|$LN2@get_durati|
	ldr         w8,[sp]
	add         w8,w8,#1
	str         w8,[sp]
|$LN4@get_durati|
	ldr         w8,[sp]
	uxtw        x10,w8
	ldr         x8,[sp,#8]
	add         x8,x8,#0x20
	add         x8,x8,#8
	ldr         w8,[x8]
	sxtw        x9,w8
	mov         x8,#0x18
	udiv        x8,x9,x8
	cmp         x10,x8
	bhs         |$LN3@get_durati|

; 939  :     {
; 940  :         sum_duration += s[i].duration;

	ldr         w8,[sp]
	uxtw        x9,w8
	mov         x8,#0x18
	mul         x9,x9,x8
	ldr         x8,[sp,#0x10]
	add         x8,x8,x9
	add         x8,x8,#0x10
	ldr         w9,[sp,#4]
	ldr         w8,[x8]
	add         w8,w9,w8
	str         w8,[sp,#4]

; 941  :     }

	b           |$LN2@get_durati|
|$LN3@get_durati|

; 942  :     return sum_duration;

	ldr         w0,[sp,#4]
	add         sp,sp,#0x20
	ret

	ENDP  ; |?get_duration@@YAIPEBUtrack_t@@@Z|, get_duration

; Function compile flags: /Odtp
; File C:\Users\paras\source\repos\grep-name\XenevaOS\Process\AudioPlayer\minimp4.h

	AREA	|.text$mn|, CODE, ARM64

|?items_count@@YAHPEAUminimp4_vector_t@@@Z| PROC	; items_count

; 891  : {

	sub         sp,sp,#0x20
	str         x0,[sp,#0x10]

; 892  :     int i, count = 0;

	mov         w8,#0
	str         w8,[sp,#4]

; 893  :     const unsigned char* p = v->data;

	ldr         x8,[sp,#0x10]
	ldr         x8,[x8]
	str         x8,[sp,#0x18]

; 894  :     for (i = 0; i + 2 < v->bytes;)

	mov         w8,#0
	str         w8,[sp]
|$LN2@items_coun|
	ldr         w8,[sp]
	add         w9,w8,#2
	ldr         x8,[sp,#0x10]
	add         x8,x8,#8
	ldr         w8,[x8]
	cmp         w9,w8
	bge         |$LN3@items_coun|

; 895  :     {
; 896  :         int cb = p[i] * 256 + p[i + 1];

	ldr         w8,[sp]
	sxtw        x9,w8
	mov         x8,#1
	mul         x9,x9,x8
	ldr         x8,[sp,#0x18]
	add         x8,x8,x9
	ldrb        w9,[x8]
	mov         w9,w9
	mov         w8,#0x100
	mul         w10,w9,w8
	ldr         w8,[sp]
	add         w8,w8,#1
	sxtw        x9,w8
	mov         x8,#1
	mul         x9,x9,x8
	ldr         x8,[sp,#0x18]
	add         x8,x8,x9
	ldrb        w8,[x8]
	mov         w8,w8
	add         w8,w10,w8
	str         w8,[sp,#8]

; 897  :         count++;

	ldr         w8,[sp,#4]
	add         w8,w8,#1
	str         w8,[sp,#4]

; 898  :         i += 2 + cb;

	ldr         w8,[sp,#8]
	add         w9,w8,#2
	ldr         w8,[sp]
	add         w8,w8,w9
	str         w8,[sp]

; 899  :     }

	b           |$LN2@items_coun|
|$LN3@items_coun|

; 900  :     return count;

	ldr         w0,[sp,#4]
	add         sp,sp,#0x20
	ret

	ENDP  ; |?items_count@@YAHPEAUminimp4_vector_t@@@Z|, items_count

; Function compile flags: /Odtp
; File C:\Users\paras\source\repos\grep-name\XenevaOS\Process\AudioPlayer\minimp4.h

	AREA	|.text$mn|, CODE, ARM64

|?append_mem@@YAHPEAUminimp4_vector_t@@PEBXH@Z| PROC	; append_mem

; 874  : {

	stp         fp,lr,[sp,#-0x40]!
	mov         fp,sp
	str         x0,[sp,#0x28]
	str         x1,[sp,#0x38]
	str         w2,[sp,#0x18]

; 875  :     int i;
; 876  :     unsigned char size[2];
; 877  :     const unsigned char* p = v->data;

	ldr         x8,[sp,#0x28]
	ldr         x8,[x8]
	str         x8,[sp,#0x30]

; 878  :     for (i = 0; i + 2 < v->bytes;)

	mov         w8,#0
	str         w8,[sp,#0x14]
|$LN2@append_mem|
	ldr         w8,[sp,#0x14]
	add         w9,w8,#2
	ldr         x8,[sp,#0x28]
	add         x8,x8,#8
	ldr         w8,[x8]
	cmp         w9,w8
	bge         |$LN3@append_mem|

; 879  :     {
; 880  :         int cb = p[i] * 256 + p[i + 1];

	ldr         w8,[sp,#0x14]
	sxtw        x9,w8
	mov         x8,#1
	mul         x9,x9,x8
	ldr         x8,[sp,#0x30]
	add         x8,x8,x9
	ldrb        w9,[x8]
	mov         w9,w9
	mov         w8,#0x100
	mul         w10,w9,w8
	ldr         w8,[sp,#0x14]
	add         w8,w8,#1
	sxtw        x9,w8
	mov         x8,#1
	mul         x9,x9,x8
	ldr         x8,[sp,#0x30]
	add         x8,x8,x9
	ldrb        w8,[x8]
	mov         w8,w8
	add         w8,w10,w8
	str         w8,[sp,#0x1C]

; 881  :         if (cb == bytes && !memcmp(p + i + 2, mem, cb))

	ldr         w9,[sp,#0x18]
	ldr         w8,[sp,#0x1C]
	cmp         w8,w9
	bne         |$LN5@append_mem|
	ldr         w8,[sp,#0x1C]
	sxtw        x2,w8
	ldr         w8,[sp,#0x14]
	sxtw        x9,w8
	ldr         x8,[sp,#0x30]
	add         x8,x8,x9
	add         x0,x8,#2
	ldr         x1,[sp,#0x38]
	bl          memcmp
	mov         w0,w0
	cmp         w0,#0
	bne         |$LN5@append_mem|

; 882  :             return 1;

	mov         w0,#1
	b           |$LN1@append_mem|
|$LN5@append_mem|

; 883  :         i += 2 + cb;

	ldr         w8,[sp,#0x1C]
	add         w9,w8,#2
	ldr         w8,[sp,#0x14]
	add         w8,w8,w9
	str         w8,[sp,#0x14]

; 884  :     }

	b           |$LN2@append_mem|
|$LN3@append_mem|

; 885  :     size[0] = bytes >> 8;

	ldr         w8,[sp,#0x18]
	asr         w8,w8,#8
	uxtb        w8,w8
	strb        w8,[sp,#0x10]

; 886  :     size[1] = bytes;

	ldr         w8,[sp,#0x18]
	uxtb        w8,w8
	strb        w8,[sp,#0x11]

; 887  :     return minimp4_vector_put(v, size, 2) && minimp4_vector_put(v, mem, bytes);

	mov         w2,#2
	add         x1,sp,#0x10
	ldr         x0,[sp,#0x28]
	bl          |?minimp4_vector_put@@YAPEAEPEAUminimp4_vector_t@@PEBXH@Z|
	cmp         x0,#0
	beq         |$LN7@append_mem|
	ldr         w2,[sp,#0x18]
	ldr         x1,[sp,#0x38]
	ldr         x0,[sp,#0x28]
	bl          |?minimp4_vector_put@@YAPEAEPEAUminimp4_vector_t@@PEBXH@Z|
	cmp         x0,#0
	beq         |$LN7@append_mem|
	mov         w8,#1
	str         w8,[sp,#0x20]
	b           |$LN8@append_mem|
|$LN7@append_mem|
	mov         w8,#0
	str         w8,[sp,#0x20]
|$LN8@append_mem|
	ldr         w0,[sp,#0x20]
|$LN1@append_mem|
	ldp         fp,lr,[sp],#0x40
	ret

	ENDP  ; |?append_mem@@YAHPEAUminimp4_vector_t@@PEBXH@Z|, append_mem

; Function compile flags: /Odtp
; File C:\Users\paras\source\repos\grep-name\XenevaOS\Process\AudioPlayer\minimp4.h

	AREA	|.text$mn|, CODE, ARM64

|?minimp4_vector_put@@YAPEAEPEAUminimp4_vector_t@@PEBXH@Z| PROC ; minimp4_vector_put

; 798  : {

	stp         fp,lr,[sp,#-0x30]!
	mov         fp,sp
	str         x0,[sp,#0x20]
	str         x1,[sp,#0x28]
	str         w2,[sp,#0x10]

; 799  :     unsigned char* tail = minimp4_vector_alloc_tail(h, bytes);

	ldr         w1,[sp,#0x10]
	ldr         x0,[sp,#0x20]
	bl          |?minimp4_vector_alloc_tail@@YAPEAEPEAUminimp4_vector_t@@H@Z|
	str         x0,[sp,#0x18]

; 800  :     if (tail)

	ldr         x8,[sp,#0x18]
	cmp         x8,#0
	beq         |$LN2@minimp4_ve|

; 801  :         memcpy(tail,(void*) buf, bytes);

	ldr         w8,[sp,#0x10]
	sxtw        x2,w8
	ldr         x1,[sp,#0x28]
	ldr         x0,[sp,#0x18]
	bl          memcpy
|$LN2@minimp4_ve|

; 802  :     return tail;

	ldr         x0,[sp,#0x18]
	ldp         fp,lr,[sp],#0x30
	ret

	ENDP  ; |?minimp4_vector_put@@YAPEAEPEAUminimp4_vector_t@@PEBXH@Z|, minimp4_vector_put

; Function compile flags: /Odtp
; File C:\Users\paras\source\repos\grep-name\XenevaOS\Process\AudioPlayer\minimp4.h

	AREA	|.text$mn|, CODE, ARM64

|?minimp4_vector_alloc_tail@@YAPEAEPEAUminimp4_vector_t@@H@Z| PROC ; minimp4_vector_alloc_tail

; 781  : {

	stp         fp,lr,[sp,#-0x30]!
	mov         fp,sp
	str         x0,[sp,#0x18]
	str         w1,[sp,#0x10]

; 782  :     unsigned char* p;
; 783  :     if (!h->data && !minimp4_vector_init(h, 2 * bytes + 1024))

	ldr         x8,[sp,#0x18]
	ldr         x8,[x8]
	cmp         x8,#0
	bne         |$LN2@minimp4_ve|
	ldr         w9,[sp,#0x10]
	mov         w8,#2
	mul         w8,w9,w8
	add         w1,w8,#0x400
	mov         w1,w1
	ldr         x0,[sp,#0x18]
	bl          |?minimp4_vector_init@@YAHPEAUminimp4_vector_t@@H@Z|
	mov         w0,w0
	cmp         w0,#0
	bne         |$LN2@minimp4_ve|

; 784  :         return NULL;

	mov         x0,#0
	b           |$LN1@minimp4_ve|
|$LN2@minimp4_ve|

; 785  :     if ((h->capacity - h->bytes) < bytes && !minimp4_vector_grow(h, bytes))

	ldr         x8,[sp,#0x18]
	add         x9,x8,#0xC
	ldr         x8,[sp,#0x18]
	add         x8,x8,#8
	ldr         w9,[x9]
	ldr         w8,[x8]
	sub         w9,w9,w8
	ldr         w8,[sp,#0x10]
	cmp         w9,w8
	bge         |$LN3@minimp4_ve|
	ldr         w1,[sp,#0x10]
	ldr         x0,[sp,#0x18]
	bl          |?minimp4_vector_grow@@YAHPEAUminimp4_vector_t@@H@Z|
	mov         w0,w0
	cmp         w0,#0
	bne         |$LN3@minimp4_ve|

; 786  :         return NULL;

	mov         x0,#0
	b           |$LN1@minimp4_ve|
|$LN3@minimp4_ve|

; 787  :     assert(h->data);

	ldr         x8,[sp,#0x18]
	ldr         x8,[x8]
	cmp         x8,#0
	bne         |$LN4@minimp4_ve|
	bl          abort
|$LN4@minimp4_ve|

; 788  :     assert((h->capacity - h->bytes) >= bytes);

	ldr         x8,[sp,#0x18]
	add         x9,x8,#0xC
	ldr         x8,[sp,#0x18]
	add         x8,x8,#8
	ldr         w9,[x9]
	ldr         w8,[x8]
	sub         w8,w9,w8
	cmp         w8,#0
	bne         |$LN7@minimp4_ve|
	mov         w8,#1
	str         w8,[sp,#0x14]
	b           |$LN8@minimp4_ve|
|$LN7@minimp4_ve|
	mov         w8,#0
	str         w8,[sp,#0x14]
|$LN8@minimp4_ve|
	ldr         w9,[sp,#0x10]
	ldr         w8,[sp,#0x14]
	cmp         w8,w9
	blt         |$LN5@minimp4_ve|
	bl          abort
|$LN5@minimp4_ve|

; 789  :     p = h->data + h->bytes;

	ldr         x10,[sp,#0x18]
	ldr         x8,[sp,#0x18]
	add         x8,x8,#8
	ldr         w8,[x8]
	sxtw        x9,w8
	ldr         x8,[x10]
	add         x8,x8,x9
	str         x8,[sp,#0x20]

; 790  :     h->bytes += bytes;

	ldr         x8,[sp,#0x18]
	add         x8,x8,#8
	ldr         w9,[x8]
	ldr         w8,[sp,#0x10]
	add         w9,w9,w8
	ldr         x8,[sp,#0x18]
	add         x8,x8,#8
	str         w9,[x8]

; 791  :     return p;

	ldr         x0,[sp,#0x20]
|$LN1@minimp4_ve|
	ldp         fp,lr,[sp],#0x30
	ret

	ENDP  ; |?minimp4_vector_alloc_tail@@YAPEAEPEAUminimp4_vector_t@@H@Z|, minimp4_vector_alloc_tail

; Function compile flags: /Odtp
; File C:\Users\paras\source\repos\grep-name\XenevaOS\Process\AudioPlayer\minimp4.h

	AREA	|.text$mn|, CODE, ARM64

|?minimp4_vector_grow@@YAHPEAUminimp4_vector_t@@H@Z| PROC ; minimp4_vector_grow

; 762  : {

	stp         fp,lr,[sp,#-0x30]!
	mov         fp,sp
	str         x0,[sp,#0x18]
	str         w1,[sp,#0x14]

; 763  :     void* p;
; 764  :     int new_size = h->capacity * 2 + 1024;

	ldr         x8,[sp,#0x18]
	add         x8,x8,#0xC
	ldr         w9,[x8]
	mov         w8,#2
	mul         w8,w9,w8
	add         w8,w8,#0x400
	str         w8,[sp,#0x10]

; 765  :     if (new_size < h->capacity + bytes)

	ldr         x8,[sp,#0x18]
	add         x8,x8,#0xC
	ldr         w9,[x8]
	ldr         w8,[sp,#0x14]
	add         w9,w9,w8
	ldr         w8,[sp,#0x10]
	cmp         w8,w9
	bge         |$LN2@minimp4_ve|

; 766  :         new_size = h->capacity + bytes + 1024;

	ldr         x8,[sp,#0x18]
	add         x8,x8,#0xC
	ldr         w9,[x8]
	ldr         w8,[sp,#0x14]
	add         w8,w9,w8
	add         w8,w8,#0x400
	str         w8,[sp,#0x10]
|$LN2@minimp4_ve|

; 767  :     p = realloc(h->data, new_size);

	ldr         x8,[sp,#0x18]
	ldr         w1,[sp,#0x10]
	ldr         x0,[x8]
	bl          realloc
	str         x0,[sp,#0x20]

; 768  :     if (!p)

	ldr         x8,[sp,#0x20]
	cmp         x8,#0
	bne         |$LN3@minimp4_ve|

; 769  :         return 0;

	mov         w0,#0
	b           |$LN1@minimp4_ve|
|$LN3@minimp4_ve|

; 770  :     h->data = (unsigned char*)p;

	ldr         x9,[sp,#0x18]
	ldr         x8,[sp,#0x20]
	str         x8,[x9]

; 771  :     h->capacity = new_size;

	ldr         x8,[sp,#0x18]
	add         x9,x8,#0xC
	ldr         w8,[sp,#0x10]
	str         w8,[x9]

; 772  :     return 1;

	mov         w0,#1
|$LN1@minimp4_ve|
	ldp         fp,lr,[sp],#0x30
	ret

	ENDP  ; |?minimp4_vector_grow@@YAHPEAUminimp4_vector_t@@H@Z|, minimp4_vector_grow

; Function compile flags: /Odtp
; File C:\Users\paras\source\repos\grep-name\XenevaOS\Process\AudioPlayer\minimp4.h

	AREA	|.text$mn|, CODE, ARM64

|?minimp4_vector_reset@@YAXPEAUminimp4_vector_t@@@Z| PROC ; minimp4_vector_reset

; 752  : {

	stp         fp,lr,[sp,#-0x20]!
	mov         fp,sp
	str         x0,[sp,#0x10]

; 753  :     if (h->data)

	ldr         x8,[sp,#0x10]
	ldr         x8,[x8]
	cmp         x8,#0
	beq         |$LN2@minimp4_ve|

; 754  :         free(h->data);

	ldr         x8,[sp,#0x10]
	ldr         x0,[x8]
	bl          free
|$LN2@minimp4_ve|

; 755  :     memset(h, 0, sizeof(minimp4_vector_t));

	mov         x2,#0x10
	mov         w1,#0
	ldr         x0,[sp,#0x10]
	bl          memset
	ldp         fp,lr,[sp],#0x20
	ret

	ENDP  ; |?minimp4_vector_reset@@YAXPEAUminimp4_vector_t@@@Z|, minimp4_vector_reset

; Function compile flags: /Odtp
; File C:\Users\paras\source\repos\grep-name\XenevaOS\Process\AudioPlayer\minimp4.h

	AREA	|.text$mn|, CODE, ARM64

|?minimp4_vector_init@@YAHPEAUminimp4_vector_t@@H@Z| PROC ; minimp4_vector_init

; 741  : {

	stp         fp,lr,[sp,#-0x30]!
	mov         fp,sp
	str         x0,[sp,#0x18]
	str         w1,[sp,#0x10]

; 742  :     h->bytes = 0;

	ldr         x8,[sp,#0x18]
	add         x9,x8,#8
	mov         w8,#0
	str         w8,[x9]

; 743  :     h->capacity = capacity;

	ldr         x8,[sp,#0x18]
	add         x9,x8,#0xC
	ldr         w8,[sp,#0x10]
	str         w8,[x9]

; 744  :     h->data = capacity ? (unsigned char*)malloc(capacity) : NULL;

	ldr         w8,[sp,#0x10]
	cmp         w8,#0
	beq         |$LN3@minimp4_ve|
	ldr         w0,[sp,#0x10]
	bl          malloc
	str         x0,[sp,#0x20]
	b           |$LN4@minimp4_ve|
|$LN3@minimp4_ve|
	mov         x8,#0
	str         x8,[sp,#0x20]
|$LN4@minimp4_ve|
	ldr         x9,[sp,#0x18]
	ldr         x8,[sp,#0x20]
	str         x8,[x9]

; 745  :     return !capacity || !!h->data;

	ldr         w8,[sp,#0x10]
	cmp         w8,#0
	beq         |$LN5@minimp4_ve|
	ldr         x8,[sp,#0x18]
	ldr         x8,[x8]
	cmp         x8,#0
	bne         |$LN5@minimp4_ve|
	mov         w8,#0
	str         w8,[sp,#0x14]
	b           |$LN6@minimp4_ve|
|$LN5@minimp4_ve|
	mov         w8,#1
	str         w8,[sp,#0x14]
|$LN6@minimp4_ve|
	ldr         w0,[sp,#0x14]
	ldp         fp,lr,[sp],#0x30
	ret

	ENDP  ; |?minimp4_vector_init@@YAHPEAUminimp4_vector_t@@H@Z|, minimp4_vector_init

; Function compile flags: /Odtp
; File C:\Users\paras\source\repos\grep-name\XenevaOS\Process\AudioPlayer\minimp4.h

	AREA	|.text$mn|, CODE, ARM64

|MP4E_set_text_comment| PROC

; 1181 : {

|$LN7|
	stp         fp,lr,[sp,#-0x20]!
	mov         fp,sp
	str         x0,[sp,#0x10]
	str         x1,[sp,#0x18]

; 1182 :     if (!mux || !comment)

	ldr         x8,[sp,#0x10]
	cmp         x8,#0
	beq         |$LN3@MP4E_set_t|
	ldr         x8,[sp,#0x18]
	cmp         x8,#0
	bne         |$LN2@MP4E_set_t|
|$LN3@MP4E_set_t|

; 1183 :         return MP4E_STATUS_BAD_ARGUMENTS;

	mov         w0,#-1
	b           |$LN1@MP4E_set_t|
|$LN2@MP4E_set_t|

; 1184 :     if (mux->text_comment)

	ldr         x8,[sp,#0x10]
	add         x8,x8,#0x28
	ldr         x8,[x8]
	cmp         x8,#0
	beq         |$LN4@MP4E_set_t|

; 1185 :         free(mux->text_comment);

	ldr         x8,[sp,#0x10]
	add         x8,x8,#0x28
	ldr         x0,[x8]
	bl          free
|$LN4@MP4E_set_t|

; 1186 :     mux->text_comment = strdup(comment);

	ldr         x0,[sp,#0x18]
	bl          strdup
	ldr         x8,[sp,#0x10]
	add         x8,x8,#0x28
	str         x0,[x8]

; 1187 :     if (!mux->text_comment)

	ldr         x8,[sp,#0x10]
	add         x8,x8,#0x28
	ldr         x8,[x8]
	cmp         x8,#0
	bne         |$LN5@MP4E_set_t|

; 1188 :         return MP4E_STATUS_NO_MEMORY;

	mov         w0,#-2
	b           |$LN1@MP4E_set_t|
|$LN5@MP4E_set_t|

; 1189 :     return MP4E_STATUS_OK;

	mov         w0,#0
|$LN1@MP4E_set_t|
	ldp         fp,lr,[sp],#0x20
	ret

	ENDP  ; |MP4E_set_text_comment|

; Function compile flags: /Odtp
; File C:\Users\paras\source\repos\grep-name\XenevaOS\Process\AudioPlayer\minimp4.h

	AREA	|.text$mn|, CODE, ARM64

|MP4E_set_pps| PROC

; 928  : {

|$LN8|
	stp         fp,lr,[sp,#-0x40]!
	mov         fp,sp
	str         x0,[sp,#0x28]
	str         w1,[sp,#0x18]
	str         x2,[sp,#0x30]
	str         w3,[sp,#0x1C]

; 929  :     track_t* tr = ((track_t*)mux->tracks.data) + track_id;

	ldr         x10,[sp,#0x28]
	ldr         w8,[sp,#0x18]
	sxtw        x9,w8
	mov         x8,#0x70
	mul         x9,x9,x8
	ldr         x8,[x10]
	add         x8,x8,x9
	str         x8,[sp,#0x20]

; 930  :     assert(tr->info.track_media_kind == e_video);

	ldr         x8,[sp,#0x20]
	add         x8,x8,#8
	ldr         w8,[x8]
	cmp         w8,#0
	bne         |$LN4@MP4E_set_p|
	mov         w8,#1
	str         w8,[sp,#0x10]
	b           |$LN5@MP4E_set_p|
|$LN4@MP4E_set_p|
	mov         w8,#0
	str         w8,[sp,#0x10]
|$LN5@MP4E_set_p|
	ldr         w8,[sp,#0x10]
	cmp         w8,#1
	bne         |$LN2@MP4E_set_p|
	bl          abort
|$LN2@MP4E_set_p|

; 931  :     return append_mem(&tr->vpps, pps, bytes) ? MP4E_STATUS_OK : MP4E_STATUS_NO_MEMORY;

	ldr         x8,[sp,#0x20]
	add         x0,x8,#0x50
	ldr         w2,[sp,#0x1C]
	ldr         x1,[sp,#0x30]
	bl          |?append_mem@@YAHPEAUminimp4_vector_t@@PEBXH@Z|
	mov         w0,w0
	cmp         w0,#0
	beq         |$LN6@MP4E_set_p|
	mov         w8,#0
	str         w8,[sp,#0x14]
	b           |$LN7@MP4E_set_p|
|$LN6@MP4E_set_p|
	mov         w8,#-2
	str         w8,[sp,#0x14]
|$LN7@MP4E_set_p|
	ldr         w0,[sp,#0x14]
	ldp         fp,lr,[sp],#0x40
	ret

	ENDP  ; |MP4E_set_pps|

; Function compile flags: /Odtp
; File C:\Users\paras\source\repos\grep-name\XenevaOS\Process\AudioPlayer\minimp4.h

	AREA	|.text$mn|, CODE, ARM64

|MP4E_set_sps| PROC

; 921  : {

|$LN8|
	stp         fp,lr,[sp,#-0x40]!
	mov         fp,sp
	str         x0,[sp,#0x28]
	str         w1,[sp,#0x18]
	str         x2,[sp,#0x30]
	str         w3,[sp,#0x1C]

; 922  :     track_t* tr = ((track_t*)mux->tracks.data) + track_id;

	ldr         x10,[sp,#0x28]
	ldr         w8,[sp,#0x18]
	sxtw        x9,w8
	mov         x8,#0x70
	mul         x9,x9,x8
	ldr         x8,[x10]
	add         x8,x8,x9
	str         x8,[sp,#0x20]

; 923  :     assert(tr->info.track_media_kind == e_video);

	ldr         x8,[sp,#0x20]
	add         x8,x8,#8
	ldr         w8,[x8]
	cmp         w8,#0
	bne         |$LN4@MP4E_set_s|
	mov         w8,#1
	str         w8,[sp,#0x10]
	b           |$LN5@MP4E_set_s|
|$LN4@MP4E_set_s|
	mov         w8,#0
	str         w8,[sp,#0x10]
|$LN5@MP4E_set_s|
	ldr         w8,[sp,#0x10]
	cmp         w8,#1
	bne         |$LN2@MP4E_set_s|
	bl          abort
|$LN2@MP4E_set_s|

; 924  :     return append_mem(&tr->vsps, sps, bytes) ? MP4E_STATUS_OK : MP4E_STATUS_NO_MEMORY;

	ldr         x8,[sp,#0x20]
	add         x0,x8,#0x40
	ldr         w2,[sp,#0x1C]
	ldr         x1,[sp,#0x30]
	bl          |?append_mem@@YAHPEAUminimp4_vector_t@@PEBXH@Z|
	mov         w0,w0
	cmp         w0,#0
	beq         |$LN6@MP4E_set_s|
	mov         w8,#0
	str         w8,[sp,#0x14]
	b           |$LN7@MP4E_set_s|
|$LN6@MP4E_set_s|
	mov         w8,#-2
	str         w8,[sp,#0x14]
|$LN7@MP4E_set_s|
	ldr         w0,[sp,#0x14]
	ldp         fp,lr,[sp],#0x40
	ret

	ENDP  ; |MP4E_set_sps|

; Function compile flags: /Odtp
; File C:\Users\paras\source\repos\grep-name\XenevaOS\Process\AudioPlayer\minimp4.h

	AREA	|.text$mn|, CODE, ARM64

|MP4E_set_vps| PROC

; 914  : {

|$LN8|
	stp         fp,lr,[sp,#-0x40]!
	mov         fp,sp
	str         x0,[sp,#0x28]
	str         w1,[sp,#0x18]
	str         x2,[sp,#0x30]
	str         w3,[sp,#0x1C]

; 915  :     track_t* tr = ((track_t*)mux->tracks.data) + track_id;

	ldr         x10,[sp,#0x28]
	ldr         w8,[sp,#0x18]
	sxtw        x9,w8
	mov         x8,#0x70
	mul         x9,x9,x8
	ldr         x8,[x10]
	add         x8,x8,x9
	str         x8,[sp,#0x20]

; 916  :     assert(tr->info.track_media_kind == e_video);

	ldr         x8,[sp,#0x20]
	add         x8,x8,#8
	ldr         w8,[x8]
	cmp         w8,#0
	bne         |$LN4@MP4E_set_v|
	mov         w8,#1
	str         w8,[sp,#0x10]
	b           |$LN5@MP4E_set_v|
|$LN4@MP4E_set_v|
	mov         w8,#0
	str         w8,[sp,#0x10]
|$LN5@MP4E_set_v|
	ldr         w8,[sp,#0x10]
	cmp         w8,#1
	bne         |$LN2@MP4E_set_v|
	bl          abort
|$LN2@MP4E_set_v|

; 917  :     return append_mem(&tr->vvps, vps, bytes) ? MP4E_STATUS_OK : MP4E_STATUS_NO_MEMORY;

	ldr         x8,[sp,#0x20]
	add         x0,x8,#0x60
	ldr         w2,[sp,#0x1C]
	ldr         x1,[sp,#0x30]
	bl          |?append_mem@@YAHPEAUminimp4_vector_t@@PEBXH@Z|
	mov         w0,w0
	cmp         w0,#0
	beq         |$LN6@MP4E_set_v|
	mov         w8,#0
	str         w8,[sp,#0x14]
	b           |$LN7@MP4E_set_v|
|$LN6@MP4E_set_v|
	mov         w8,#-2
	str         w8,[sp,#0x14]
|$LN7@MP4E_set_v|
	ldr         w0,[sp,#0x14]
	ldp         fp,lr,[sp],#0x40
	ret

	ENDP  ; |MP4E_set_vps|

; Function compile flags: /Odtp
; File C:\Users\paras\source\repos\grep-name\XenevaOS\Process\AudioPlayer\minimp4.h

	AREA	|.text$mn|, CODE, ARM64

|MP4E_set_dsi| PROC

; 904  : {

|$LN10|
	stp         fp,lr,[sp,#-0x40]!
	mov         fp,sp
	str         x0,[sp,#0x28]
	str         w1,[sp,#0x18]
	str         x2,[sp,#0x30]
	str         w3,[sp,#0x1C]

; 905  :     track_t* tr = ((track_t*)mux->tracks.data) + track_id;

	ldr         x10,[sp,#0x28]
	ldr         w8,[sp,#0x18]
	sxtw        x9,w8
	mov         x8,#0x70
	mul         x9,x9,x8
	ldr         x8,[x10]
	add         x8,x8,x9
	str         x8,[sp,#0x20]

; 906  :     assert(tr->info.track_media_kind == e_audio ||

	ldr         x8,[sp,#0x20]
	add         x8,x8,#8
	ldr         w8,[x8]
	cmp         w8,#0
	bne         |$LN6@MP4E_set_d|
	mov         w8,#1
	str         w8,[sp,#0x10]
	b           |$LN7@MP4E_set_d|
|$LN6@MP4E_set_d|
	mov         w8,#0
	str         w8,[sp,#0x10]
|$LN7@MP4E_set_d|
	ldr         w8,[sp,#0x10]
	cmp         w8,#0
	beq         |$LN3@MP4E_set_d|
	ldr         x8,[sp,#0x20]
	add         x8,x8,#8
	ldr         w8,[x8]
	cmp         w8,#2
	bne         |$LN2@MP4E_set_d|
|$LN3@MP4E_set_d|
	bl          abort
|$LN2@MP4E_set_d|

; 907  :         tr->info.track_media_kind == e_private);
; 908  :     if (tr->vsps.bytes)

	ldr         x8,[sp,#0x20]
	add         x8,x8,#0x40
	add         x8,x8,#8
	ldr         w8,[x8]
	cmp         w8,#0
	beq         |$LN4@MP4E_set_d|

; 909  :         return MP4E_STATUS_ONLY_ONE_DSI_ALLOWED;   // only one DSI allowed

	mov         w0,#-4
	b           |$LN1@MP4E_set_d|
|$LN4@MP4E_set_d|

; 910  :     return append_mem(&tr->vsps, dsi, bytes) ? MP4E_STATUS_OK : MP4E_STATUS_NO_MEMORY;

	ldr         x8,[sp,#0x20]
	add         x0,x8,#0x40
	ldr         w2,[sp,#0x1C]
	ldr         x1,[sp,#0x30]
	bl          |?append_mem@@YAHPEAUminimp4_vector_t@@PEBXH@Z|
	mov         w0,w0
	cmp         w0,#0
	beq         |$LN8@MP4E_set_d|
	mov         w8,#0
	str         w8,[sp,#0x14]
	b           |$LN9@MP4E_set_d|
|$LN8@MP4E_set_d|
	mov         w8,#-2
	str         w8,[sp,#0x14]
|$LN9@MP4E_set_d|
	ldr         w0,[sp,#0x14]
|$LN1@MP4E_set_d|
	ldp         fp,lr,[sp],#0x40
	ret

	ENDP  ; |MP4E_set_dsi|

; Function compile flags: /Odtp
; File C:\Users\paras\source\repos\grep-name\XenevaOS\Process\AudioPlayer\minimp4.h

	AREA	|.text$mn|, CODE, ARM64

|MP4E_close| PROC

; 1758 : {

|$LN9|
	stp         fp,lr,[sp,#-0x30]!
	mov         fp,sp
	str         x0,[sp,#0x20]

; 1759 :     int err = MP4E_STATUS_OK;

	mov         w8,#0
	str         w8,[sp,#0x14]

; 1760 :     unsigned ntr, ntracks;
; 1761 :     if (!mux)

	ldr         x8,[sp,#0x20]
	cmp         x8,#0
	bne         |$LN5@MP4E_close|

; 1762 :         return MP4E_STATUS_BAD_ARGUMENTS;

	mov         w0,#-1
	b           |$LN1@MP4E_close|
|$LN5@MP4E_close|

; 1763 :     if (!mux->enable_fragmentation)

	ldr         x8,[sp,#0x20]
	add         x8,x8,#0x34
	ldr         w8,[x8]
	cmp         w8,#0
	bne         |$LN6@MP4E_close|

; 1764 :         err = mp4e_flush_index(mux);

	ldr         x0,[sp,#0x20]
	bl          |?mp4e_flush_index@@YAHPEAUMP4E_mux_tag@@@Z|
	mov         w0,w0
	str         w0,[sp,#0x14]
|$LN6@MP4E_close|

; 1765 :     if (mux->text_comment)

	ldr         x8,[sp,#0x20]
	add         x8,x8,#0x28
	ldr         x8,[x8]
	cmp         x8,#0
	beq         |$LN7@MP4E_close|

; 1766 :         free(mux->text_comment);

	ldr         x8,[sp,#0x20]
	add         x8,x8,#0x28
	ldr         x0,[x8]
	bl          free
|$LN7@MP4E_close|

; 1767 :     ntracks = mux->tracks.bytes / sizeof(track_t);

	ldr         x8,[sp,#0x20]
	add         x8,x8,#8
	ldr         w8,[x8]
	sxtw        x9,w8
	mov         x8,#0x70
	udiv        x8,x9,x8
	mov         w8,w8
	str         w8,[sp,#0x18]

; 1768 :     for (ntr = 0; ntr < ntracks; ntr++)

	mov         w8,#0
	str         w8,[sp,#0x10]
	b           |$LN4@MP4E_close|
|$LN2@MP4E_close|
	ldr         w8,[sp,#0x10]
	add         w8,w8,#1
	str         w8,[sp,#0x10]
|$LN4@MP4E_close|
	ldr         w9,[sp,#0x18]
	ldr         w8,[sp,#0x10]
	cmp         w8,w9
	bhs         |$LN3@MP4E_close|

; 1769 :     {
; 1770 :         track_t* tr = ((track_t*)mux->tracks.data) + ntr;

	ldr         x10,[sp,#0x20]
	ldr         w8,[sp,#0x10]
	uxtw        x9,w8
	mov         x8,#0x70
	mul         x9,x9,x8
	ldr         x8,[x10]
	add         x8,x8,x9
	str         x8,[sp,#0x28]

; 1771 :         minimp4_vector_reset(&tr->vsps);

	ldr         x8,[sp,#0x28]
	add         x0,x8,#0x40
	bl          |?minimp4_vector_reset@@YAXPEAUminimp4_vector_t@@@Z|

; 1772 :         minimp4_vector_reset(&tr->vpps);

	ldr         x8,[sp,#0x28]
	add         x0,x8,#0x50
	bl          |?minimp4_vector_reset@@YAXPEAUminimp4_vector_t@@@Z|

; 1773 :         minimp4_vector_reset(&tr->smpl);

	ldr         x8,[sp,#0x28]
	add         x0,x8,#0x20
	bl          |?minimp4_vector_reset@@YAXPEAUminimp4_vector_t@@@Z|

; 1774 :         minimp4_vector_reset(&tr->pending_sample);

	ldr         x8,[sp,#0x28]
	add         x0,x8,#0x30
	bl          |?minimp4_vector_reset@@YAXPEAUminimp4_vector_t@@@Z|

; 1775 :     }

	b           |$LN2@MP4E_close|
|$LN3@MP4E_close|

; 1776 :     minimp4_vector_reset(&mux->tracks);

	ldr         x0,[sp,#0x20]
	bl          |?minimp4_vector_reset@@YAXPEAUminimp4_vector_t@@@Z|

; 1777 :     free(mux);

	ldr         x0,[sp,#0x20]
	bl          free

; 1778 :     return err;

	ldr         w0,[sp,#0x14]
|$LN1@MP4E_close|
	ldp         fp,lr,[sp],#0x30
	ret

	ENDP  ; |MP4E_close|

; Function compile flags: /Odtp
; File C:\Users\paras\source\repos\grep-name\XenevaOS\Process\AudioPlayer\minimp4.h

	AREA	|.text$mn|, CODE, ARM64

|MP4E_put_sample| PROC

; 1103 : {

|$LN22|
	stp         fp,lr,[sp,#-0x60]!
	mov         fp,sp
	str         x0,[sp,#0x10]
	str         w1,[sp,#0x2C]
	str         x2,[sp,#0x48]
	str         w3,[sp,#0x18]
	str         w4,[sp,#0x40]
	str         w5,[sp,#0x1C]

; 1104 :     track_t* tr;
; 1105 :     if (!mux || !data)

	ldr         x8,[sp,#0x10]
	cmp         x8,#0
	beq         |$LN3@MP4E_put_s|
	ldr         x8,[sp,#0x48]
	cmp         x8,#0
	bne         |$LN2@MP4E_put_s|
|$LN3@MP4E_put_s|

; 1106 :         return MP4E_STATUS_BAD_ARGUMENTS;

	mov         w0,#-1
	b           |$LN1@MP4E_put_s|
|$LN2@MP4E_put_s|

; 1107 :     tr = ((track_t*)mux->tracks.data) + track_num;

	ldr         x10,[sp,#0x10]
	ldr         w8,[sp,#0x2C]
	sxtw        x9,w8
	mov         x8,#0x70
	mul         x9,x9,x8
	ldr         x8,[x10]
	add         x8,x8,x9
	str         x8,[sp,#0x20]

; 1108 : 
; 1109 :     if (mux->enable_fragmentation)

	ldr         x8,[sp,#0x10]
	add         x8,x8,#0x34
	ldr         w8,[x8]
	cmp         w8,#0
	beq         |$LN4@MP4E_put_s|

; 1110 :     {
; 1111 : #if MP4D_TFDT_SUPPORT
; 1112 :         // NOTE: assume a constant `duration` to calculate current timestamp
; 1113 :         uint64_t timestamp = (uint64_t)mux->fragments_count * duration;
; 1114 : #endif
; 1115 :         if (!mux->fragments_count++)

	ldr         x8,[sp,#0x10]
	add         x8,x8,#0x38
	ldr         w8,[x8]
	str         w8,[sp,#0x50]
	ldr         x8,[sp,#0x10]
	add         x8,x8,#0x38
	ldr         w8,[x8]
	add         w9,w8,#1
	ldr         x8,[sp,#0x10]
	add         x8,x8,#0x38
	str         w9,[x8]
	ldr         w8,[sp,#0x50]
	cmp         w8,#0
	bne         |$LN5@MP4E_put_s|

; 1116 :             ERR(mp4e_flush_index(mux)); // write file headers before 1st sample

	ldr         x0,[sp,#0x10]
	bl          |?mp4e_flush_index@@YAHPEAUMP4E_mux_tag@@@Z|
	mov         w0,w0
	str         w0,[sp,#0x28]
	ldr         w8,[sp,#0x28]
	cmp         w8,#0
	beq         |$LN6@MP4E_put_s|
	ldr         w0,[sp,#0x28]
	b           |$LN1@MP4E_put_s|
|$LN6@MP4E_put_s|
|$LN5@MP4E_put_s|

; 1117 :         // write MOOF + MDAT + sample data
; 1118 : #if MP4D_TFDT_SUPPORT
; 1119 :         ERR(mp4e_write_fragment_header(mux, track_num, data_bytes, duration, kind, timestamp));
; 1120 : #else
; 1121 :         ERR(mp4e_write_fragment_header(mux, track_num, data_bytes, duration, kind));

	ldr         w4,[sp,#0x1C]
	ldr         w3,[sp,#0x40]
	ldr         w2,[sp,#0x18]
	ldr         w1,[sp,#0x2C]
	ldr         x0,[sp,#0x10]
	bl          |?mp4e_write_fragment_header@@YAHPEAUMP4E_mux_tag@@HHHH@Z|
	mov         w0,w0
	str         w0,[sp,#0x30]
	ldr         w8,[sp,#0x30]
	cmp         w8,#0
	beq         |$LN7@MP4E_put_s|
	ldr         w0,[sp,#0x30]
	b           |$LN1@MP4E_put_s|
|$LN7@MP4E_put_s|

; 1122 : #endif
; 1123 :         // write MDAT box for each sample
; 1124 :         ERR(mp4e_write_mdat_box(mux, data_bytes + 8));

	ldr         w8,[sp,#0x18]
	add         w1,w8,#8
	mov         w1,w1
	ldr         x0,[sp,#0x10]
	bl          |?mp4e_write_mdat_box@@YAHPEAUMP4E_mux_tag@@I@Z|
	mov         w0,w0
	str         w0,[sp,#0x34]
	ldr         w8,[sp,#0x34]
	cmp         w8,#0
	beq         |$LN8@MP4E_put_s|
	ldr         w0,[sp,#0x34]
	b           |$LN1@MP4E_put_s|
|$LN8@MP4E_put_s|

; 1125 :         ERR(mux->write_callback(mux->write_pos, data, data_bytes, mux->token));

	ldr         x8,[sp,#0x10]
	add         x10,x8,#0x20
	ldr         w8,[sp,#0x18]
	sxtw        x2,w8
	ldr         x8,[sp,#0x10]
	add         x9,x8,#0x10
	ldr         x8,[sp,#0x10]
	add         x8,x8,#0x18
	ldr         x3,[x10]
	ldr         x1,[sp,#0x48]
	ldr         x0,[x9]
	ldr         x8,[x8]
	blr         x8
	mov         w0,w0
	str         w0,[sp,#0x38]
	ldr         w8,[sp,#0x38]
	cmp         w8,#0
	beq         |$LN9@MP4E_put_s|
	ldr         w0,[sp,#0x38]
	b           |$LN1@MP4E_put_s|
|$LN9@MP4E_put_s|

; 1126 :         mux->write_pos += data_bytes;

	ldr         x8,[sp,#0x10]
	add         x10,x8,#0x10
	ldr         w8,[sp,#0x18]
	sxtw        x9,w8
	ldr         x8,[x10]
	add         x9,x8,x9
	ldr         x8,[sp,#0x10]
	add         x8,x8,#0x10
	str         x9,[x8]

; 1127 :         return MP4E_STATUS_OK;

	mov         w0,#0
	b           |$LN1@MP4E_put_s|
|$LN4@MP4E_put_s|

; 1128 :     }
; 1129 : 
; 1130 :     if (kind != MP4E_SAMPLE_CONTINUATION)

	ldr         w8,[sp,#0x1C]
	cmp         w8,#2
	beq         |$LN10@MP4E_put_s|

; 1131 :     {
; 1132 :         if (mux->sequential_mode_flag)

	ldr         x8,[sp,#0x10]
	add         x8,x8,#0x30
	ldr         w8,[x8]
	cmp         w8,#0
	beq         |$LN12@MP4E_put_s|

; 1133 :             ERR(write_pending_data(mux, tr));

	ldr         x1,[sp,#0x20]
	ldr         x0,[sp,#0x10]
	bl          |?write_pending_data@@YAHPEAUMP4E_mux_tag@@PEAUtrack_t@@@Z|
	mov         w0,w0
	str         w0,[sp,#0x3C]
	ldr         w8,[sp,#0x3C]
	cmp         w8,#0
	beq         |$LN13@MP4E_put_s|
	ldr         w0,[sp,#0x3C]
	b           |$LN1@MP4E_put_s|
|$LN13@MP4E_put_s|
|$LN12@MP4E_put_s|

; 1134 :         if (!add_sample_descriptor(mux, tr, data_bytes, duration, kind))

	ldr         w4,[sp,#0x1C]
	ldr         w3,[sp,#0x40]
	ldr         w2,[sp,#0x18]
	ldr         x1,[sp,#0x20]
	ldr         x0,[sp,#0x10]
	bl          |?add_sample_descriptor@@YAHPEAUMP4E_mux_tag@@PEAUtrack_t@@HHH@Z|
	mov         w0,w0
	cmp         w0,#0
	bne         |$LN14@MP4E_put_s|

; 1135 :             return MP4E_STATUS_NO_MEMORY;

	mov         w0,#-2
	b           |$LN1@MP4E_put_s|
|$LN14@MP4E_put_s|

; 1136 :     }

	b           |$LN11@MP4E_put_s|
|$LN10@MP4E_put_s|

; 1137 :     else
; 1138 :     {
; 1139 :         if (!mux->sequential_mode_flag)

	ldr         x8,[sp,#0x10]
	add         x8,x8,#0x30
	ldr         w8,[x8]
	cmp         w8,#0
	bne         |$LN15@MP4E_put_s|

; 1140 :         {
; 1141 :             sample_t* smpl_desc;
; 1142 :             if (tr->smpl.bytes < sizeof(sample_t))

	ldr         x8,[sp,#0x20]
	add         x8,x8,#0x20
	add         x8,x8,#8
	ldr         w8,[x8]
	sxtw        x8,w8
	cmp         x8,#0x18
	bhs         |$LN16@MP4E_put_s|

; 1143 :                 return MP4E_STATUS_NO_MEMORY; // write continuation, but there are no samples in the index

	mov         w0,#-2
	b           |$LN1@MP4E_put_s|
|$LN16@MP4E_put_s|

; 1144 :             // Accumulate size of the continuation in the sample descriptor
; 1145 :             smpl_desc = (sample_t*)(tr->smpl.data + tr->smpl.bytes) - 1;

	ldr         x8,[sp,#0x20]
	add         x10,x8,#0x20
	ldr         x8,[sp,#0x20]
	add         x8,x8,#0x20
	add         x8,x8,#8
	ldr         w8,[x8]
	sxtw        x9,w8
	ldr         x8,[x10]
	add         x8,x8,x9
	sub         x8,x8,#0x18
	str         x8,[sp,#0x58]

; 1146 :             smpl_desc->size += data_bytes;

	ldr         x10,[sp,#0x58]
	ldr         w8,[sp,#0x18]
	sxtw        x9,w8
	ldr         x8,[x10]
	add         x9,x8,x9
	ldr         x8,[sp,#0x58]
	str         x9,[x8]
|$LN15@MP4E_put_s|
|$LN11@MP4E_put_s|

; 1147 :         }
; 1148 :     }
; 1149 : 
; 1150 :     if (mux->sequential_mode_flag)

	ldr         x8,[sp,#0x10]
	add         x8,x8,#0x30
	ldr         w8,[x8]
	cmp         w8,#0
	beq         |$LN17@MP4E_put_s|

; 1151 :     {
; 1152 :         if (!minimp4_vector_put(&tr->pending_sample, data, data_bytes))

	ldr         x8,[sp,#0x20]
	add         x0,x8,#0x30
	ldr         w2,[sp,#0x18]
	ldr         x1,[sp,#0x48]
	bl          |?minimp4_vector_put@@YAPEAEPEAUminimp4_vector_t@@PEBXH@Z|
	cmp         x0,#0
	bne         |$LN19@MP4E_put_s|

; 1153 :             return MP4E_STATUS_NO_MEMORY;

	mov         w0,#-2
	b           |$LN1@MP4E_put_s|
|$LN19@MP4E_put_s|

; 1154 :     }

	b           |$LN18@MP4E_put_s|
|$LN17@MP4E_put_s|

; 1155 :     else
; 1156 :     {
; 1157 :         ERR(mux->write_callback(mux->write_pos, data, data_bytes, mux->token));

	ldr         x8,[sp,#0x10]
	add         x10,x8,#0x20
	ldr         w8,[sp,#0x18]
	sxtw        x2,w8
	ldr         x8,[sp,#0x10]
	add         x9,x8,#0x10
	ldr         x8,[sp,#0x10]
	add         x8,x8,#0x18
	ldr         x3,[x10]
	ldr         x1,[sp,#0x48]
	ldr         x0,[x9]
	ldr         x8,[x8]
	blr         x8
	mov         w0,w0
	str         w0,[sp,#0x44]
	ldr         w8,[sp,#0x44]
	cmp         w8,#0
	beq         |$LN20@MP4E_put_s|
	ldr         w0,[sp,#0x44]
	b           |$LN1@MP4E_put_s|
|$LN20@MP4E_put_s|

; 1158 :         mux->write_pos += data_bytes;

	ldr         x8,[sp,#0x10]
	add         x10,x8,#0x10
	ldr         w8,[sp,#0x18]
	sxtw        x9,w8
	ldr         x8,[x10]
	add         x9,x8,x9
	ldr         x8,[sp,#0x10]
	add         x8,x8,#0x10
	str         x9,[x8]
|$LN18@MP4E_put_s|

; 1159 :     }
; 1160 :     return MP4E_STATUS_OK;

	mov         w0,#0
|$LN1@MP4E_put_s|
	ldp         fp,lr,[sp],#0x60
	ret

	ENDP  ; |MP4E_put_sample|

; Function compile flags: /Odtp
; File C:\Users\paras\source\repos\grep-name\XenevaOS\Process\AudioPlayer\minimp4.h

	AREA	|.text$mn|, CODE, ARM64

|MP4E_add_track| PROC

; 842  : {

|$LN7|
	stp         fp,lr,[sp,#-0x30]!
	mov         fp,sp
	str         x0,[sp,#0x20]
	str         x1,[sp,#0x28]

; 843  :     track_t* tr;
; 844  :     int ntr = mux->tracks.bytes / sizeof(track_t);

	ldr         x8,[sp,#0x20]
	add         x8,x8,#8
	ldr         w8,[x8]
	sxtw        x9,w8
	mov         x8,#0x70
	udiv        x8,x9,x8
	mov         w8,w8
	str         w8,[sp,#0x10]

; 845  : 
; 846  :     if (!mux || !track_data)

	ldr         x8,[sp,#0x20]
	cmp         x8,#0
	beq         |$LN3@MP4E_add_t|
	ldr         x8,[sp,#0x28]
	cmp         x8,#0
	bne         |$LN2@MP4E_add_t|
|$LN3@MP4E_add_t|

; 847  :         return MP4E_STATUS_BAD_ARGUMENTS;

	mov         w0,#-1
	b           |$LN1@MP4E_add_t|
|$LN2@MP4E_add_t|

; 848  : 
; 849  :     tr = (track_t*)minimp4_vector_alloc_tail(&mux->tracks, sizeof(track_t));

	ldr         x0,[sp,#0x20]
	mov         w1,#0x70
	bl          |?minimp4_vector_alloc_tail@@YAPEAEPEAUminimp4_vector_t@@H@Z|
	str         x0,[sp,#0x18]

; 850  :     if (!tr)

	ldr         x8,[sp,#0x18]
	cmp         x8,#0
	bne         |$LN4@MP4E_add_t|

; 851  :         return MP4E_STATUS_NO_MEMORY;

	mov         w0,#-2
	b           |$LN1@MP4E_add_t|
|$LN4@MP4E_add_t|

; 852  :     memset(tr, 0, sizeof(track_t));

	mov         x2,#0x70
	mov         w1,#0
	ldr         x0,[sp,#0x18]
	bl          memset

; 853  :     memcpy(&tr->info, (void*)track_data, sizeof(*track_data));

	ldr         x0,[sp,#0x18]
	mov         x2,#0x1C
	ldr         x1,[sp,#0x28]
	bl          memcpy

; 854  :     if (!minimp4_vector_init(&tr->smpl, 256))

	ldr         x8,[sp,#0x18]
	add         x0,x8,#0x20
	mov         w1,#0x100
	bl          |?minimp4_vector_init@@YAHPEAUminimp4_vector_t@@H@Z|
	mov         w0,w0
	cmp         w0,#0
	bne         |$LN5@MP4E_add_t|

; 855  :         return MP4E_STATUS_NO_MEMORY;

	mov         w0,#-2
	b           |$LN1@MP4E_add_t|
|$LN5@MP4E_add_t|

; 856  :     minimp4_vector_init(&tr->vsps, 0);

	ldr         x8,[sp,#0x18]
	add         x0,x8,#0x40
	mov         w1,#0
	bl          |?minimp4_vector_init@@YAHPEAUminimp4_vector_t@@H@Z|

; 857  :     minimp4_vector_init(&tr->vpps, 0);

	ldr         x8,[sp,#0x18]
	add         x0,x8,#0x50
	mov         w1,#0
	bl          |?minimp4_vector_init@@YAHPEAUminimp4_vector_t@@H@Z|

; 858  :     minimp4_vector_init(&tr->pending_sample, 0);

	ldr         x8,[sp,#0x18]
	add         x0,x8,#0x30
	mov         w1,#0
	bl          |?minimp4_vector_init@@YAHPEAUminimp4_vector_t@@H@Z|

; 859  :     return ntr;

	ldr         w0,[sp,#0x10]
|$LN1@MP4E_add_t|
	ldp         fp,lr,[sp],#0x30
	ret

	ENDP  ; |MP4E_add_track|

; Function compile flags: /Odtp
; File C:\Users\paras\source\repos\grep-name\XenevaOS\Process\AudioPlayer\minimp4.h

	AREA	|.text$mn|, CODE, ARM64

|MP4E_open| PROC

; 811  : {

|$LN9|
	stp         fp,lr,[sp,#-0x40]!
	mov         fp,sp
	str         w0,[sp,#0x18]
	str         w1,[sp,#0x14]
	str         x2,[sp,#0x30]
	str         x3,[sp,#0x28]

; 812  :     if (write_callback(0, box_ftyp, sizeof(box_ftyp), token)) // Write fixed header: 'ftyp' box

	ldr         x3,[sp,#0x30]
	mov         x2,#0x18
	adrp        x8,|?box_ftyp@@3QBEB|
	add         x1,x8,PageOffset(|?box_ftyp@@3QBEB|)
	mov         x0,#0
	ldr         x8,[sp,#0x28]
	blr         x8
	mov         w0,w0
	cmp         w0,#0
	beq         |$LN2@MP4E_open|

; 813  :         return 0;

	mov         x0,#0
	b           |$LN1@MP4E_open|
|$LN2@MP4E_open|

; 814  :     MP4E_mux_t* mux = (MP4E_mux_t*)malloc(sizeof(MP4E_mux_t));

	mov         w0,#0x40
	bl          malloc
	str         x0,[sp,#0x20]

; 815  :     if (!mux)

	ldr         x8,[sp,#0x20]
	cmp         x8,#0
	bne         |$LN3@MP4E_open|

; 816  :         return mux;

	ldr         x0,[sp,#0x20]
	b           |$LN1@MP4E_open|
|$LN3@MP4E_open|

; 817  :     mux->sequential_mode_flag = sequential_mode_flag || enable_fragmentation;

	ldr         w8,[sp,#0x18]
	cmp         w8,#0
	bne         |$LN7@MP4E_open|
	ldr         w8,[sp,#0x14]
	cmp         w8,#0
	bne         |$LN7@MP4E_open|
	mov         w8,#0
	str         w8,[sp,#0x10]
	b           |$LN8@MP4E_open|
|$LN7@MP4E_open|
	mov         w8,#1
	str         w8,[sp,#0x10]
|$LN8@MP4E_open|
	ldr         x8,[sp,#0x20]
	add         x9,x8,#0x30
	ldr         w8,[sp,#0x10]
	str         w8,[x9]

; 818  :     mux->enable_fragmentation = enable_fragmentation;

	ldr         x8,[sp,#0x20]
	add         x9,x8,#0x34
	ldr         w8,[sp,#0x14]
	str         w8,[x9]

; 819  :     mux->fragments_count = 0;

	ldr         x8,[sp,#0x20]
	add         x9,x8,#0x38
	mov         w8,#0
	str         w8,[x9]

; 820  :     mux->write_callback = write_callback;

	ldr         x8,[sp,#0x20]
	add         x9,x8,#0x18
	ldr         x8,[sp,#0x28]
	str         x8,[x9]

; 821  :     mux->token = token;

	ldr         x8,[sp,#0x20]
	add         x9,x8,#0x20
	ldr         x8,[sp,#0x30]
	str         x8,[x9]

; 822  :     mux->text_comment = NULL;

	ldr         x8,[sp,#0x20]
	add         x9,x8,#0x28
	mov         x8,#0
	str         x8,[x9]

; 823  :     mux->write_pos = sizeof(box_ftyp);

	ldr         x8,[sp,#0x20]
	add         x9,x8,#0x10
	mov         x8,#0x18
	str         x8,[x9]

; 824  : 
; 825  :     if (!mux->sequential_mode_flag)

	ldr         x8,[sp,#0x20]
	add         x8,x8,#0x30
	ldr         w8,[x8]
	cmp         w8,#0
	bne         |$LN4@MP4E_open|

; 826  :     {   // Write filler, which would be updated later
; 827  :         if (mux->write_callback(mux->write_pos, box_ftyp, 8, mux->token))

	ldr         x8,[sp,#0x20]
	add         x11,x8,#0x20
	ldr         x8,[sp,#0x20]
	add         x10,x8,#0x10
	ldr         x8,[sp,#0x20]
	add         x9,x8,#0x18
	ldr         x3,[x11]
	mov         x2,#8
	adrp        x8,|?box_ftyp@@3QBEB|
	add         x1,x8,PageOffset(|?box_ftyp@@3QBEB|)
	ldr         x0,[x10]
	ldr         x8,[x9]
	blr         x8
	mov         w0,w0
	cmp         w0,#0
	beq         |$LN5@MP4E_open|

; 828  :         {
; 829  :             free(mux);

	ldr         x0,[sp,#0x20]
	bl          free

; 830  :             return 0;

	mov         x0,#0
	b           |$LN1@MP4E_open|
|$LN5@MP4E_open|

; 831  :         }
; 832  :         mux->write_pos += 16; // box_ftyp + box_free for 32bit or 64bit size encoding

	ldr         x8,[sp,#0x20]
	add         x8,x8,#0x10
	ldr         x8,[x8]
	add         x9,x8,#0x10
	ldr         x8,[sp,#0x20]
	add         x8,x8,#0x10
	str         x9,[x8]
|$LN4@MP4E_open|

; 833  :     }
; 834  :     minimp4_vector_init(&mux->tracks, 2 * sizeof(track_t));

	ldr         x0,[sp,#0x20]
	mov         w1,#0xE0
	bl          |?minimp4_vector_init@@YAHPEAUminimp4_vector_t@@H@Z|

; 835  :     return mux;

	ldr         x0,[sp,#0x20]
|$LN1@MP4E_open|
	ldp         fp,lr,[sp],#0x40
	ret

	ENDP  ; |MP4E_open|

; Function compile flags: /Odtp
; File C:\Users\paras\source\repos\grep-name\XenevaOS\Process\AudioPlayer\minimp4.h

	AREA	|.text$mn|, CODE, ARM64

|MP4D_read_pps| PROC

; 3387 : {

|$LN3|
	stp         fp,lr,[sp,#-0x30]!
	mov         fp,sp
	str         x0,[sp,#0x20]
	str         w1,[sp,#0x14]
	str         w2,[sp,#0x10]
	str         x3,[sp,#0x18]

; 3388 :     return MP4D_read_spspps(mp4, ntrack, 1, npps, pps_bytes);

	ldr         x4,[sp,#0x18]
	ldr         w3,[sp,#0x10]
	mov         w2,#1
	ldr         w1,[sp,#0x14]
	ldr         x0,[sp,#0x20]
	bl          |?MP4D_read_spspps@@YAPEBXPEBUMP4D_demux_tag@@IHHPEAH@Z|
	ldp         fp,lr,[sp],#0x30
	ret

	ENDP  ; |MP4D_read_pps|

; Function compile flags: /Odtp
; File C:\Users\paras\source\repos\grep-name\XenevaOS\Process\AudioPlayer\minimp4.h

	AREA	|.text$mn|, CODE, ARM64

|MP4D_read_sps| PROC

; 3382 : {

|$LN3|
	stp         fp,lr,[sp,#-0x30]!
	mov         fp,sp
	str         x0,[sp,#0x20]
	str         w1,[sp,#0x14]
	str         w2,[sp,#0x10]
	str         x3,[sp,#0x18]

; 3383 :     return MP4D_read_spspps(mp4, ntrack, 0, nsps, sps_bytes);

	ldr         x4,[sp,#0x18]
	ldr         w3,[sp,#0x10]
	mov         w2,#0
	ldr         w1,[sp,#0x14]
	ldr         x0,[sp,#0x20]
	bl          |?MP4D_read_spspps@@YAPEBXPEBUMP4D_demux_tag@@IHHPEAH@Z|
	ldp         fp,lr,[sp],#0x30
	ret

	ENDP  ; |MP4D_read_sps|

; Function compile flags: /Odtp
; File C:\Users\paras\source\repos\grep-name\XenevaOS\Process\AudioPlayer\minimp4.h

	AREA	|.text$mn|, CODE, ARM64

|MP4D_close| PROC

; 3310 : {

|$LN18|
	stp         fp,lr,[sp,#-0x30]!
	mov         fp,sp
	str         x0,[sp,#0x18]
|$LN2@MP4D_close|

; 3311 :     while (mp4->track_count)

	ldr         x8,[sp,#0x18]
	add         x8,x8,#0x28
	ldr         w8,[x8]
	cmp         w8,#0
	beq         |$LN3@MP4D_close|

; 3312 :     {
; 3313 :         MP4D_track_t* tr = mp4->track + --mp4->track_count;

	ldr         x8,[sp,#0x18]
	add         x8,x8,#0x28
	ldr         w8,[x8]
	sub         w8,w8,#1
	str         w8,[sp,#0x10]
	ldr         x8,[sp,#0x18]
	add         x9,x8,#0x28
	ldr         w8,[sp,#0x10]
	str         w8,[x9]
	ldr         w8,[sp,#0x10]
	uxtw        x9,w8
	mov         x8,#0x78
	mul         x9,x9,x8
	ldr         x8,[sp,#0x18]
	add         x8,x8,#0x10
	ldr         x8,[x8]
	add         x8,x8,x9
	str         x8,[sp,#0x20]

; 3314 :         FREE(tr->entry_size);

	ldr         x8,[sp,#0x20]
	add         x8,x8,#0x40
	ldr         x8,[x8]
	cmp         x8,#0
	beq         |$LN4@MP4D_close|
	ldr         x8,[sp,#0x20]
	add         x8,x8,#0x40
	ldr         x0,[x8]
	bl          free
	ldr         x8,[sp,#0x20]
	add         x9,x8,#0x40
	mov         x8,#0
	str         x8,[x9]
|$LN4@MP4D_close|

; 3315 : #if MP4D_TIMESTAMPS_SUPPORTED
; 3316 :         FREE(tr->timestamp);

	ldr         x8,[sp,#0x20]
	add         x8,x8,#0x68
	ldr         x8,[x8]
	cmp         x8,#0
	beq         |$LN5@MP4D_close|
	ldr         x8,[sp,#0x20]
	add         x8,x8,#0x68
	ldr         x0,[x8]
	bl          free
	ldr         x8,[sp,#0x20]
	add         x9,x8,#0x68
	mov         x8,#0
	str         x8,[x9]
|$LN5@MP4D_close|

; 3317 :         FREE(tr->duration);

	ldr         x8,[sp,#0x20]
	add         x8,x8,#0x70
	ldr         x8,[x8]
	cmp         x8,#0
	beq         |$LN6@MP4D_close|
	ldr         x8,[sp,#0x20]
	add         x8,x8,#0x70
	ldr         x0,[x8]
	bl          free
	ldr         x8,[sp,#0x20]
	add         x9,x8,#0x70
	mov         x8,#0
	str         x8,[x9]
|$LN6@MP4D_close|

; 3318 : #endif
; 3319 :         FREE(tr->sample_to_chunk);

	ldr         x8,[sp,#0x20]
	add         x8,x8,#0x50
	ldr         x8,[x8]
	cmp         x8,#0
	beq         |$LN7@MP4D_close|
	ldr         x8,[sp,#0x20]
	add         x8,x8,#0x50
	ldr         x0,[x8]
	bl          free
	ldr         x8,[sp,#0x20]
	add         x9,x8,#0x50
	mov         x8,#0
	str         x8,[x9]
|$LN7@MP4D_close|

; 3320 :         FREE(tr->chunk_offset);

	ldr         x8,[sp,#0x20]
	add         x8,x8,#0x60
	ldr         x8,[x8]
	cmp         x8,#0
	beq         |$LN8@MP4D_close|
	ldr         x8,[sp,#0x20]
	add         x8,x8,#0x60
	ldr         x0,[x8]
	bl          free
	ldr         x8,[sp,#0x20]
	add         x9,x8,#0x60
	mov         x8,#0
	str         x8,[x9]
|$LN8@MP4D_close|

; 3321 :         FREE(tr->dsi);

	ldr         x8,[sp,#0x20]
	add         x8,x8,#8
	ldr         x8,[x8]
	cmp         x8,#0
	beq         |$LN9@MP4D_close|
	ldr         x8,[sp,#0x20]
	add         x8,x8,#8
	ldr         x0,[x8]
	bl          free
	ldr         x8,[sp,#0x20]
	add         x9,x8,#8
	mov         x8,#0
	str         x8,[x9]
|$LN9@MP4D_close|

; 3322 :     }

	b           |$LN2@MP4D_close|
|$LN3@MP4D_close|

; 3323 :     FREE(mp4->track);

	ldr         x8,[sp,#0x18]
	add         x8,x8,#0x10
	ldr         x8,[x8]
	cmp         x8,#0
	beq         |$LN10@MP4D_close|
	ldr         x8,[sp,#0x18]
	add         x8,x8,#0x10
	ldr         x0,[x8]
	bl          free
	ldr         x8,[sp,#0x18]
	add         x9,x8,#0x10
	mov         x8,#0
	str         x8,[x9]
|$LN10@MP4D_close|

; 3324 : #if MP4D_INFO_SUPPORTED
; 3325 :     FREE(mp4->tag.title);

	ldr         x8,[sp,#0x18]
	add         x8,x8,#0x38
	ldr         x8,[x8]
	cmp         x8,#0
	beq         |$LN11@MP4D_close|
	ldr         x8,[sp,#0x18]
	add         x8,x8,#0x38
	ldr         x0,[x8]
	bl          free
	ldr         x8,[sp,#0x18]
	add         x9,x8,#0x38
	mov         x8,#0
	str         x8,[x9]
|$LN11@MP4D_close|

; 3326 :     FREE(mp4->tag.artist);

	ldr         x8,[sp,#0x18]
	add         x8,x8,#0x38
	add         x8,x8,#8
	ldr         x8,[x8]
	cmp         x8,#0
	beq         |$LN12@MP4D_close|
	ldr         x8,[sp,#0x18]
	add         x8,x8,#0x38
	add         x8,x8,#8
	ldr         x0,[x8]
	bl          free
	ldr         x8,[sp,#0x18]
	add         x8,x8,#0x38
	add         x9,x8,#8
	mov         x8,#0
	str         x8,[x9]
|$LN12@MP4D_close|

; 3327 :     FREE(mp4->tag.album);

	ldr         x8,[sp,#0x18]
	add         x8,x8,#0x38
	add         x8,x8,#0x10
	ldr         x8,[x8]
	cmp         x8,#0
	beq         |$LN13@MP4D_close|
	ldr         x8,[sp,#0x18]
	add         x8,x8,#0x38
	add         x8,x8,#0x10
	ldr         x0,[x8]
	bl          free
	ldr         x8,[sp,#0x18]
	add         x8,x8,#0x38
	add         x9,x8,#0x10
	mov         x8,#0
	str         x8,[x9]
|$LN13@MP4D_close|

; 3328 :     FREE(mp4->tag.year);

	ldr         x8,[sp,#0x18]
	add         x8,x8,#0x38
	add         x8,x8,#0x18
	ldr         x8,[x8]
	cmp         x8,#0
	beq         |$LN14@MP4D_close|
	ldr         x8,[sp,#0x18]
	add         x8,x8,#0x38
	add         x8,x8,#0x18
	ldr         x0,[x8]
	bl          free
	ldr         x8,[sp,#0x18]
	add         x8,x8,#0x38
	add         x9,x8,#0x18
	mov         x8,#0
	str         x8,[x9]
|$LN14@MP4D_close|

; 3329 :     FREE(mp4->tag.comment);

	ldr         x8,[sp,#0x18]
	add         x8,x8,#0x38
	add         x8,x8,#0x20
	ldr         x8,[x8]
	cmp         x8,#0
	beq         |$LN15@MP4D_close|
	ldr         x8,[sp,#0x18]
	add         x8,x8,#0x38
	add         x8,x8,#0x20
	ldr         x0,[x8]
	bl          free
	ldr         x8,[sp,#0x18]
	add         x8,x8,#0x38
	add         x9,x8,#0x20
	mov         x8,#0
	str         x8,[x9]
|$LN15@MP4D_close|

; 3330 :     FREE(mp4->tag.genre);

	ldr         x8,[sp,#0x18]
	add         x8,x8,#0x38
	add         x8,x8,#0x28
	ldr         x8,[x8]
	cmp         x8,#0
	beq         |$LN16@MP4D_close|
	ldr         x8,[sp,#0x18]
	add         x8,x8,#0x38
	add         x8,x8,#0x28
	ldr         x0,[x8]
	bl          free
	ldr         x8,[sp,#0x18]
	add         x8,x8,#0x38
	add         x9,x8,#0x28
	mov         x8,#0
	str         x8,[x9]
|$LN16@MP4D_close|
	ldp         fp,lr,[sp],#0x30
	ret

	ENDP  ; |MP4D_close|

; Function compile flags: /Odtp
; File C:\Users\paras\source\repos\grep-name\XenevaOS\Process\AudioPlayer\minimp4.h

	AREA	|.text$mn|, CODE, ARM64

|MP4D_frame_offset| PROC

; 3266 : {

|$LN9|
	stp         fp,lr,[sp,#-0x60]!
	mov         fp,sp
	str         x0,[sp,#0x50]
	str         w1,[sp,#0x28]
	str         w2,[sp,#0x24]
	str         x3,[sp,#0x38]
	str         x4,[sp,#0x40]
	str         x5,[sp,#0x48]

; 3267 :     MP4D_track_t* tr = mp4->track + ntrack;

	ldr         x8,[sp,#0x50]
	add         x10,x8,#0x10
	ldr         w8,[sp,#0x28]
	uxtw        x9,w8
	mov         x8,#0x78
	mul         x9,x9,x8
	ldr         x8,[x10]
	add         x8,x8,x9
	str         x8,[sp,#0x18]

; 3268 :     unsigned ns;
; 3269 :     int nchunk = sample_to_chunk(tr, nsample, &ns);

	add         x2,sp,#0x10
	ldr         w1,[sp,#0x24]
	ldr         x0,[sp,#0x18]
	bl          |?sample_to_chunk@@YAHPEAUMP4D_track_t@@IPEAI@Z|
	mov         w0,w0
	str         w0,[sp,#0x20]

; 3270 :     MP4D_file_offset_t offset;
; 3271 : 
; 3272 :     if (nchunk < 0)

	ldr         w8,[sp,#0x20]
	cmp         w8,#0
	bge         |$LN5@MP4D_frame|

; 3273 :     {
; 3274 :         *frame_bytes = 0;

	ldr         x9,[sp,#0x38]
	mov         w8,#0
	str         w8,[x9]

; 3275 :         return 0;

	mov         x0,#0
	b           |$LN1@MP4D_frame|
|$LN5@MP4D_frame|

; 3276 :     }
; 3277 : 
; 3278 :     offset = tr->chunk_offset[nchunk];

	ldr         x8,[sp,#0x18]
	add         x10,x8,#0x60
	ldr         w8,[sp,#0x20]
	sxtw        x9,w8
	mov         x8,#8
	mul         x9,x9,x8
	ldr         x8,[x10]
	add         x8,x8,x9
	ldr         x8,[x8]
	str         x8,[sp,#0x30]

; 3279 :     for (; ns < nsample; ns++)

	b           |$LN4@MP4D_frame|
|$LN2@MP4D_frame|
	ldr         w8,[sp,#0x10]
	add         w8,w8,#1
	str         w8,[sp,#0x10]
|$LN4@MP4D_frame|
	ldr         w9,[sp,#0x24]
	ldr         w8,[sp,#0x10]
	cmp         w8,w9
	bhs         |$LN3@MP4D_frame|

; 3280 :     {
; 3281 :         offset += tr->entry_size[ns];

	ldr         x8,[sp,#0x18]
	add         x10,x8,#0x40
	ldr         w8,[sp,#0x10]
	uxtw        x9,w8
	mov         x8,#4
	mul         x9,x9,x8
	ldr         x8,[x10]
	add         x8,x8,x9
	ldr         w8,[x8]
	uxtw        x9,w8
	ldr         x8,[sp,#0x30]
	add         x8,x8,x9
	str         x8,[sp,#0x30]

; 3282 :     }

	b           |$LN2@MP4D_frame|
|$LN3@MP4D_frame|

; 3283 : 
; 3284 :     *frame_bytes = tr->entry_size[ns];

	ldr         x8,[sp,#0x18]
	add         x10,x8,#0x40
	ldr         w8,[sp,#0x10]
	uxtw        x9,w8
	mov         x8,#4
	mul         x9,x9,x8
	ldr         x8,[x10]
	add         x8,x8,x9
	ldr         x9,[sp,#0x38]
	ldr         w8,[x8]
	str         w8,[x9]

; 3285 : 
; 3286 :     if (timestamp)

	ldr         x8,[sp,#0x40]
	cmp         x8,#0
	beq         |$LN6@MP4D_frame|

; 3287 :     {
; 3288 : #if MP4D_TIMESTAMPS_SUPPORTED
; 3289 :         * timestamp = tr->timestamp[ns];

	ldr         x8,[sp,#0x18]
	add         x10,x8,#0x68
	ldr         w8,[sp,#0x10]
	uxtw        x9,w8
	mov         x8,#4
	mul         x9,x9,x8
	ldr         x8,[x10]
	add         x8,x8,x9
	ldr         x9,[sp,#0x40]
	ldr         w8,[x8]
	str         w8,[x9]
|$LN6@MP4D_frame|

; 3290 : #else
; 3291 :         * timestamp = 0;
; 3292 : #endif
; 3293 :     }
; 3294 :     if (duration)

	ldr         x8,[sp,#0x48]
	cmp         x8,#0
	beq         |$LN7@MP4D_frame|

; 3295 :     {
; 3296 : #if MP4D_TIMESTAMPS_SUPPORTED
; 3297 :         * duration = tr->duration[ns];

	ldr         x8,[sp,#0x18]
	add         x10,x8,#0x70
	ldr         w8,[sp,#0x10]
	uxtw        x9,w8
	mov         x8,#4
	mul         x9,x9,x8
	ldr         x8,[x10]
	add         x8,x8,x9
	ldr         x9,[sp,#0x48]
	ldr         w8,[x8]
	str         w8,[x9]
|$LN7@MP4D_frame|

; 3298 : #else
; 3299 :         * duration = 0;
; 3300 : #endif
; 3301 :     }
; 3302 : 
; 3303 :     return offset;

	ldr         x0,[sp,#0x30]
|$LN1@MP4D_frame|
	ldp         fp,lr,[sp],#0x60
	ret

	ENDP  ; |MP4D_frame_offset|

; Function compile flags: /Odtp
; File C:\Users\paras\source\repos\grep-name\XenevaOS\Process\AudioPlayer\minimp4.h

	AREA	|.text$mn|, CODE, ARM64

|MP4D_open| PROC

; 2569 : {

|$LN273|
	str         x19,[sp,#-0x10]!
	sub         sp,sp,#0x640
	stp         fp,lr,[sp]
	mov         fp,sp
	str         x0,[sp,#0x28]
	str         x1,[sp,#0x110]
	str         x2,[sp,#0x230]
	str         x3,[sp,#0xF8]

; 2570 :     // box stack size
; 2571 :     int depth = 0;

	mov         w8,#0
	str         w8,[sp,#0x30]

; 2572 : 
; 2573 :     struct
; 2574 :     {
; 2575 :         // remaining bytes for box in the stack
; 2576 :         boxsize_t bytes;
; 2577 : 
; 2578 :         // kind of box children's: OD chunks handled in the same manner as name chunks
; 2579 :         boxtype_t format;
; 2580 : 
; 2581 :     } stack[MAX_CHUNKS_DEPTH];
; 2582 : 
; 2583 : #if MP4D_TRACE_SUPPORTED
; 2584 :     // path of current element: List0/List1/... etc
; 2585 :     uint32_t box_path[MAX_CHUNKS_DEPTH];
; 2586 : #endif
; 2587 : 
; 2588 :     int eof_flag = 0;

	mov         w8,#0
	str         w8,[sp,#0x10]

; 2589 :     unsigned i;
; 2590 :     MP4D_track_t* tr = NULL;

	mov         x8,#0
	str         x8,[sp,#0x38]

; 2591 : 
; 2592 :     if (!mp4 || !read_callback)

	ldr         x8,[sp,#0x28]
	cmp         x8,#0
	beq         |$LN54@MP4D_open|
	ldr         x8,[sp,#0x110]
	cmp         x8,#0
	bne         |$LN53@MP4D_open|
|$LN54@MP4D_open|

; 2593 :     {
; 2594 :         TRACE(("\nERROR: invlaid arguments!"));
; 2595 :         return 0;

	mov         w0,#0
	b           |$LN1@MP4D_open|
|$LN53@MP4D_open|

; 2596 :     }
; 2597 : 
; 2598 :     memset(mp4, 0, sizeof(MP4D_demux_t));

	mov         x2,#0x68
	mov         w1,#0
	ldr         x0,[sp,#0x28]
	bl          memset

; 2599 :     mp4->read_callback = read_callback;

	ldr         x8,[sp,#0x28]
	add         x9,x8,#0x18
	ldr         x8,[sp,#0x110]
	str         x8,[x9]

; 2600 :     mp4->token = token;

	ldr         x8,[sp,#0x28]
	add         x9,x8,#0x20
	ldr         x8,[sp,#0x230]
	str         x8,[x9]

; 2601 :     mp4->read_size = file_size;

	ldr         x8,[sp,#0x28]
	add         x9,x8,#8
	ldr         x8,[sp,#0xF8]
	str         x8,[x9]

; 2602 : 
; 2603 :     stack[0].format = BOX_ATOM;   // start with atom box

	mov         w8,#0
	str         w8,[sp,#0x240]

; 2604 :     stack[0].bytes = 0;           // never accessed

	mov         x8,#0
	str         x8,[sp,#0x238]
|$LN4@MP4D_open|

; 2605 : 
; 2606 :     do
; 2607 :     {
; 2608 :         // List of boxes, derived from 'FullBox'
; 2609 :         //                ~~~~~~~~~~~~~~~~~~~~~
; 2610 :         // need read version field and check version for these boxes
; 2611 :         static const struct
; 2612 :         {
; 2613 :             uint32_t name;
; 2614 :             unsigned max_version;
; 2615 :             unsigned use_track_flag;
; 2616 :         } g_fullbox[] =
; 2617 :         {
; 2618 : #if MP4D_INFO_SUPPORTED
; 2619 :             {BOX_mdhd, 1, 1},
; 2620 :             {BOX_mvhd, 1, 0},
; 2621 :             {BOX_hdlr, 0, 0},
; 2622 :             {BOX_meta, 0, 0},   // Android can produce meta box without 'FullBox' field, comment this line to simulate the bug
; 2623 : #endif
; 2624 : #if MP4D_TRACE_TIMESTAMPS
; 2625 :             {BOX_stts, 0, 0},
; 2626 :             {BOX_ctts, 0, 0},
; 2627 : #endif
; 2628 :             {BOX_stz2, 0, 1},
; 2629 :             {BOX_stsz, 0, 1},
; 2630 :             {BOX_stsc, 0, 1},
; 2631 :             {BOX_stco, 0, 1},
; 2632 :             {BOX_co64, 0, 1},
; 2633 :             {BOX_stsd, 0, 0},
; 2634 :             {BOX_esds, 0, 1}    // esds does not use track, but switches to OD mode. Check here, to avoid OD check
; 2635 :         };
; 2636 : 
; 2637 :         // List of boxes, which contains other boxes ('envelopes')
; 2638 :         // Parser will descend down for boxes in this list, otherwise parsing will proceed to
; 2639 :         // the next sibling box
; 2640 :         // OD boxes handled in the same way as atom boxes...
; 2641 :         static const struct
; 2642 :         {
; 2643 :             uint32_t name;
; 2644 :             boxtype_t type;
; 2645 :         } g_envelope_box[] =
; 2646 :         {
; 2647 :             {BOX_esds, BOX_OD},     // TODO: BOX_esds can be used for both audio and video, but this code supports audio only!
; 2648 :             {OD_ESD,   BOX_OD},
; 2649 :             {OD_DCD,   BOX_OD},
; 2650 :             {OD_DSI,   BOX_OD},
; 2651 :             {BOX_trak, BOX_ATOM},
; 2652 :             {BOX_moov, BOX_ATOM},
; 2653 :             //{BOX_moof, BOX_ATOM},
; 2654 :             {BOX_mdia, BOX_ATOM},
; 2655 :             {BOX_tref, BOX_ATOM},
; 2656 :             {BOX_minf, BOX_ATOM},
; 2657 :             {BOX_dinf, BOX_ATOM},
; 2658 :             {BOX_stbl, BOX_ATOM},
; 2659 :             {BOX_stsd, BOX_ATOM},
; 2660 :             {BOX_mp4a, BOX_ATOM},
; 2661 :             {BOX_mp4s, BOX_ATOM},
; 2662 : #if MP4D_AVC_SUPPORTED
; 2663 :             {BOX_mp4v, BOX_ATOM},
; 2664 :             {BOX_avc1, BOX_ATOM},
; 2665 :             //{BOX_avc2, BOX_ATOM},
; 2666 :             //{BOX_svc1, BOX_ATOM},
; 2667 : #endif
; 2668 : #if MP4D_HEVC_SUPPORTED
; 2669 :             {BOX_hvc1, BOX_ATOM},
; 2670 : #endif
; 2671 :             {BOX_udta, BOX_ATOM},
; 2672 :             {BOX_meta, BOX_ATOM},
; 2673 :             {BOX_ilst, BOX_ATOM}
; 2674 :         };
; 2675 : 
; 2676 :         uint32_t FullAtomVersionAndFlags = 0;

	mov         w8,#0
	str         w8,[sp,#0x50]

; 2677 :         boxsize_t payload_bytes;
; 2678 :         boxsize_t box_bytes;
; 2679 :         uint32_t box_name;
; 2680 : #if MP4D_INFO_SUPPORTED
; 2681 :         unsigned char** ptag = NULL;

	mov         x8,#0
	str         x8,[sp,#0x68]

; 2682 : #endif
; 2683 :         int read_bytes = 0;

	mov         w8,#0
	str         w8,[sp,#0x58]

; 2684 : 
; 2685 :         // Read header box type and it's length
; 2686 :         if (stack[depth].format == BOX_ATOM)

	ldr         w8,[sp,#0x30]
	sxtw        x9,w8
	mov         x8,#0x10
	mul         x9,x9,x8
	add         x8,sp,#0x238
	add         x8,x8,x9
	add         x8,x8,#8
	ldr         w8,[x8]
	cmp         w8,#0
	bne         |$LN55@MP4D_open|

; 2687 :         {
; 2688 :             box_bytes = minimp4_read(mp4, 4, &eof_flag);

	add         x2,sp,#0x10
	mov         w1,#4
	ldr         x0,[sp,#0x28]
	bl          |?minimp4_read@@YAIPEAUMP4D_demux_tag@@HPEAH@Z|
	mov         w0,w0
	uxtw        x8,w0
	str         x8,[sp,#0x48]
|$broken_android_meta_hack$274|

; 2689 : #if FIX_BAD_ANDROID_META_BOX
; 2690 :             broken_android_meta_hack :
; 2691 : #endif
; 2692 :             if (eof_flag)

	ldr         w8,[sp,#0x10]
	cmp         w8,#0
	beq         |$LN57@MP4D_open|

; 2693 :                 break;  // normal exit

	b           |$LN3@MP4D_open|
|$LN57@MP4D_open|

; 2694 : 
; 2695 :             if (box_bytes >= 2 && box_bytes < 8)

	ldr         x8,[sp,#0x48]
	cmp         x8,#2
	blo         |$LN58@MP4D_open|
	ldr         x8,[sp,#0x48]
	cmp         x8,#8
	bhs         |$LN58@MP4D_open|

; 2696 :             {
; 2697 :                 ERROR("invalid box size (broken file?)");

	ldr         w8,[sp,#0x30]
	cmp         w8,#0
	bne         |$LN59@MP4D_open|
	b           |$LN3@MP4D_open|
	b           |$LN60@MP4D_open|
|$LN59@MP4D_open|
	ldr         x0,[sp,#0x28]
	bl          MP4D_close
	mov         w0,#0
	b           |$LN1@MP4D_open|
|$LN60@MP4D_open|
|$LN58@MP4D_open|

; 2698 :             }
; 2699 : 
; 2700 :             box_name = minimp4_read(mp4, 4, &eof_flag);

	add         x2,sp,#0x10
	mov         w1,#4
	ldr         x0,[sp,#0x28]
	bl          |?minimp4_read@@YAIPEAUMP4D_demux_tag@@HPEAH@Z|
	mov         w0,w0
	str         w0,[sp,#0x54]

; 2701 :             read_bytes = 8;

	mov         w8,#8
	str         w8,[sp,#0x58]

; 2702 : 
; 2703 :             // Decode box size
; 2704 :             if (box_bytes == 0 ||                         // standard indication of 'till eof' size

	ldr         x8,[sp,#0x48]
	cmp         x8,#0
	beq         |$LN62@MP4D_open|
	mov         x9,#0xFFFFFFFF
	ldr         x8,[sp,#0x48]
	cmp         x8,x9
	bne         |$LN61@MP4D_open|
|$LN62@MP4D_open|

; 2705 :                 box_bytes == (boxsize_t)0xFFFFFFFFU       // some files uses non-standard 'till eof' signaling
; 2706 :                 )
; 2707 :             {
; 2708 :                 box_bytes = ~(boxsize_t)0;

	mov         x8,#-1
	str         x8,[sp,#0x48]
|$LN61@MP4D_open|

; 2709 :             }
; 2710 : 
; 2711 :             payload_bytes = box_bytes - 8;

	ldr         x8,[sp,#0x48]
	sub         x8,x8,#8
	str         x8,[sp,#0x18]

; 2712 : 
; 2713 :             if (box_bytes == 1)           // 64-bit sizes

	ldr         x8,[sp,#0x48]
	cmp         x8,#1
	bne         |$LN63@MP4D_open|

; 2714 :             {
; 2715 :                 TRACE(("\n64-bit chunk encountered"));
; 2716 : 
; 2717 :                 box_bytes = minimp4_read(mp4, 4, &eof_flag);

	add         x2,sp,#0x10
	mov         w1,#4
	ldr         x0,[sp,#0x28]
	bl          |?minimp4_read@@YAIPEAUMP4D_demux_tag@@HPEAH@Z|
	mov         w0,w0
	uxtw        x8,w0
	str         x8,[sp,#0x48]

; 2718 : #if MP4D_64BIT_SUPPORTED
; 2719 :                 box_bytes <<= 32;
; 2720 :                 box_bytes |= minimp4_read(mp4, 4, &eof_flag);
; 2721 : #else
; 2722 :                 if (box_bytes)

	ldr         x8,[sp,#0x48]
	cmp         x8,#0
	beq         |$LN64@MP4D_open|

; 2723 :                 {
; 2724 :                     ERROR("UNSUPPORTED FEATURE: MP4BoxHeader(): 64-bit boxes not supported!");

	ldr         w8,[sp,#0x30]
	cmp         w8,#0
	bne         |$LN65@MP4D_open|
	b           |$LN3@MP4D_open|
	b           |$LN66@MP4D_open|
|$LN65@MP4D_open|
	ldr         x0,[sp,#0x28]
	bl          MP4D_close
	mov         w0,#0
	b           |$LN1@MP4D_open|
|$LN66@MP4D_open|
|$LN64@MP4D_open|

; 2725 :                 }
; 2726 :                 box_bytes = minimp4_read(mp4, 4, &eof_flag);

	add         x2,sp,#0x10
	mov         w1,#4
	ldr         x0,[sp,#0x28]
	bl          |?minimp4_read@@YAIPEAUMP4D_demux_tag@@HPEAH@Z|
	mov         w0,w0
	uxtw        x8,w0
	str         x8,[sp,#0x48]

; 2727 : #endif
; 2728 :                 if (box_bytes < 16)

	ldr         x8,[sp,#0x48]
	cmp         x8,#0x10
	bhs         |$LN67@MP4D_open|

; 2729 :                 {
; 2730 :                     ERROR("invalid box size (broken file?)");

	ldr         w8,[sp,#0x30]
	cmp         w8,#0
	bne         |$LN68@MP4D_open|
	b           |$LN3@MP4D_open|
	b           |$LN69@MP4D_open|
|$LN68@MP4D_open|
	ldr         x0,[sp,#0x28]
	bl          MP4D_close
	mov         w0,#0
	b           |$LN1@MP4D_open|
|$LN69@MP4D_open|
|$LN67@MP4D_open|

; 2731 :                 }
; 2732 :                 payload_bytes = box_bytes - 16;

	ldr         x8,[sp,#0x48]
	sub         x8,x8,#0x10
	str         x8,[sp,#0x18]
|$LN63@MP4D_open|

; 2733 :             }
; 2734 : 
; 2735 :             // Read and check box version for some boxes
; 2736 :             for (i = 0; i < NELEM(g_fullbox); i++)

	mov         w8,#0
	str         w8,[sp,#0x20]
	b           |$LN7@MP4D_open|
|$LN5@MP4D_open|
	ldr         w8,[sp,#0x20]
	add         w8,w8,#1
	str         w8,[sp,#0x20]
|$LN7@MP4D_open|
	ldr         w8,[sp,#0x20]
	uxtw        x8,w8
	cmp         x8,#0xD
	bhs         |$LN6@MP4D_open|

; 2737 :             {
; 2738 :                 if (box_name == g_fullbox[i].name)

	ldr         w8,[sp,#0x20]
	uxtw        x9,w8
	mov         x8,#0xC
	mul         x9,x9,x8
	adrp        x8,|?g_fullbox@?6??MP4D_open@@9@4QBU<unnamed-type-g_fullbox>@?6??1@YAHPEAUMP4D_demux_tag@@P6AH_JPEAX_K2@Z21@Z@B|
	add         x8,x8,PageOffset(|?g_fullbox@?6??MP4D_open@@9@4QBU<unnamed-type-g_fullbox>@?6??1@YAHPEAUMP4D_demux_tag@@P6AH_JPEAX_K2@Z21@Z@B|)
	add         x8,x8,x9
	ldr         w9,[x8]
	ldr         w8,[sp,#0x54]
	cmp         w8,w9
	bne         |$LN70@MP4D_open|

; 2739 :                 {
; 2740 :                     FullAtomVersionAndFlags = READ(4);

	add         x3,sp,#0x10
	add         x2,sp,#0x18
	mov         w1,#4
	ldr         x0,[sp,#0x28]
	bl          |?read_payload@@YAIPEAUMP4D_demux_tag@@IPEA_KPEAH@Z|
	mov         w0,w0
	str         w0,[sp,#0x50]

; 2741 :                     read_bytes += 4;

	ldr         w8,[sp,#0x58]
	add         w8,w8,#4
	str         w8,[sp,#0x58]

; 2742 : 
; 2743 : #if FIX_BAD_ANDROID_META_BOX
; 2744 :                     // Fix invalid BOX_meta, found in some Android-produced MP4
; 2745 :                     // This branch is optional: bad box would be skipped
; 2746 :                     if (box_name == BOX_meta)

	ldr         w9,|$LN244@MP4D_open|
	ldr         w8,[sp,#0x54]
	cmp         w8,w9
	bne         |$LN71@MP4D_open|

; 2747 :                     {
; 2748 :                         if (FullAtomVersionAndFlags >= 8 && FullAtomVersionAndFlags < payload_bytes)

	ldr         w8,[sp,#0x50]
	cmp         w8,#8
	blo         |$LN72@MP4D_open|
	ldr         w8,[sp,#0x50]
	uxtw        x9,w8
	ldr         x8,[sp,#0x18]
	cmp         x9,x8
	bhs         |$LN72@MP4D_open|

; 2749 :                         {
; 2750 :                             if (box_bytes > stack[depth].bytes)

	ldr         w8,[sp,#0x30]
	sxtw        x9,w8
	mov         x8,#0x10
	mul         x9,x9,x8
	add         x8,sp,#0x238
	add         x8,x8,x9
	ldr         x9,[x8]
	ldr         x8,[sp,#0x48]
	cmp         x8,x9
	bls         |$LN73@MP4D_open|

; 2751 :                             {
; 2752 :                                 ERROR("broken file structure!");

	ldr         w8,[sp,#0x30]
	cmp         w8,#0
	bne         |$LN74@MP4D_open|
	b           |$LN6@MP4D_open|
	b           |$LN75@MP4D_open|
|$LN74@MP4D_open|
	ldr         x0,[sp,#0x28]
	bl          MP4D_close
	mov         w0,#0
	b           |$LN1@MP4D_open|
|$LN75@MP4D_open|
|$LN73@MP4D_open|

; 2753 :                             }
; 2754 :                             stack[depth].bytes -= box_bytes;;

	ldr         w8,[sp,#0x30]
	sxtw        x9,w8
	mov         x8,#0x10
	mul         x9,x9,x8
	add         x8,sp,#0x238
	add         x8,x8,x9
	ldr         x9,[x8]
	ldr         x8,[sp,#0x48]
	sub         x10,x9,x8
	ldr         w8,[sp,#0x30]
	sxtw        x9,w8
	mov         x8,#0x10
	mul         x9,x9,x8
	add         x8,sp,#0x238
	add         x8,x8,x9
	str         x10,[x8]

; 2755 :                             depth++;

	ldr         w8,[sp,#0x30]
	add         w8,w8,#1
	str         w8,[sp,#0x30]

; 2756 :                             stack[depth].bytes = payload_bytes + 4; // +4 need for missing header

	ldr         x8,[sp,#0x18]
	add         x10,x8,#4
	ldr         w8,[sp,#0x30]
	sxtw        x9,w8
	mov         x8,#0x10
	mul         x9,x9,x8
	add         x8,sp,#0x238
	add         x8,x8,x9
	str         x10,[x8]

; 2757 :                             stack[depth].format = BOX_ATOM;

	ldr         w8,[sp,#0x30]
	sxtw        x9,w8
	mov         x8,#0x10
	mul         x9,x9,x8
	add         x8,sp,#0x238
	add         x8,x8,x9
	add         x9,x8,#8
	mov         w8,#0
	str         w8,[x9]

; 2758 :                             box_bytes = FullAtomVersionAndFlags;

	ldr         w8,[sp,#0x50]
	uxtw        x8,w8
	str         x8,[sp,#0x48]

; 2759 :                             TRACE(("Bad metadata box detected (Android bug?)!\n"));
; 2760 :                             goto broken_android_meta_hack;

	b           |$broken_android_meta_hack$274|
|$LN72@MP4D_open|
|$LN71@MP4D_open|

; 2761 :                         }
; 2762 :                     }
; 2763 : #endif // FIX_BAD_ANDROID_META_BOX
; 2764 : 
; 2765 :                     if ((FullAtomVersionAndFlags >> 24) > g_fullbox[i].max_version)

	ldr         w8,[sp,#0x50]
	lsr         w10,w8,#0x18
	ldr         w8,[sp,#0x20]
	uxtw        x9,w8
	mov         x8,#0xC
	mul         x9,x9,x8
	adrp        x8,|?g_fullbox@?6??MP4D_open@@9@4QBU<unnamed-type-g_fullbox>@?6??1@YAHPEAUMP4D_demux_tag@@P6AH_JPEAX_K2@Z21@Z@B|
	add         x8,x8,PageOffset(|?g_fullbox@?6??MP4D_open@@9@4QBU<unnamed-type-g_fullbox>@?6??1@YAHPEAUMP4D_demux_tag@@P6AH_JPEAX_K2@Z21@Z@B|)
	add         x8,x8,x9
	add         x8,x8,#4
	ldr         w8,[x8]
	cmp         w10,w8
	bls         |$LN76@MP4D_open|

; 2766 :                     {
; 2767 :                         ERROR("unsupported box version!");

	ldr         w8,[sp,#0x30]
	cmp         w8,#0
	bne         |$LN77@MP4D_open|
	b           |$LN6@MP4D_open|
	b           |$LN78@MP4D_open|
|$LN77@MP4D_open|
	ldr         x0,[sp,#0x28]
	bl          MP4D_close
	mov         w0,#0
	b           |$LN1@MP4D_open|
|$LN78@MP4D_open|
|$LN76@MP4D_open|

; 2768 :                     }
; 2769 :                     if (g_fullbox[i].use_track_flag && !tr)

	ldr         w8,[sp,#0x20]
	uxtw        x9,w8
	mov         x8,#0xC
	mul         x9,x9,x8
	adrp        x8,|?g_fullbox@?6??MP4D_open@@9@4QBU<unnamed-type-g_fullbox>@?6??1@YAHPEAUMP4D_demux_tag@@P6AH_JPEAX_K2@Z21@Z@B|
	add         x8,x8,PageOffset(|?g_fullbox@?6??MP4D_open@@9@4QBU<unnamed-type-g_fullbox>@?6??1@YAHPEAUMP4D_demux_tag@@P6AH_JPEAX_K2@Z21@Z@B|)
	add         x8,x8,x9
	add         x8,x8,#8
	ldr         w8,[x8]
	cmp         w8,#0
	beq         |$LN79@MP4D_open|
	ldr         x8,[sp,#0x38]
	cmp         x8,#0
	bne         |$LN79@MP4D_open|

; 2770 :                     {
; 2771 :                         ERROR("broken file structure!");

	ldr         w8,[sp,#0x30]
	cmp         w8,#0
	bne         |$LN80@MP4D_open|
	b           |$LN6@MP4D_open|
	b           |$LN81@MP4D_open|
|$LN80@MP4D_open|
	ldr         x0,[sp,#0x28]
	bl          MP4D_close
	mov         w0,#0
	b           |$LN1@MP4D_open|
|$LN81@MP4D_open|
|$LN79@MP4D_open|
|$LN70@MP4D_open|

; 2772 :                     }
; 2773 :                 }
; 2774 :             }

	b           |$LN5@MP4D_open|
|$LN6@MP4D_open|

; 2775 :         }

	b           |$LN56@MP4D_open|
|$LN55@MP4D_open|

; 2776 :         else // stack[depth].format == BOX_OD
; 2777 :         {
; 2778 :             int val;
; 2779 :             box_name = OD_BASE + minimp4_read(mp4, 1, &eof_flag);     // 1-byte box type

	add         x2,sp,#0x10
	mov         w1,#1
	ldr         x0,[sp,#0x28]
	bl          |?minimp4_read@@YAIPEAUMP4D_demux_tag@@HPEAH@Z|
	mov         w0,w0
	ldr         w8,|$LN245@MP4D_open|
	add         w8,w0,w8
	str         w8,[sp,#0x54]

; 2780 :             read_bytes += 1;

	ldr         w8,[sp,#0x58]
	add         w8,w8,#1
	str         w8,[sp,#0x58]

; 2781 :             if (eof_flag)

	ldr         w8,[sp,#0x10]
	cmp         w8,#0
	beq         |$LN82@MP4D_open|

; 2782 :                 break;

	b           |$LN3@MP4D_open|
|$LN82@MP4D_open|

; 2783 : 
; 2784 :             payload_bytes = 0;

	mov         x8,#0
	str         x8,[sp,#0x18]

; 2785 :             box_bytes = 1;

	mov         x8,#1
	str         x8,[sp,#0x48]
|$LN10@MP4D_open|

; 2786 :             do
; 2787 :             {
; 2788 :                 val = minimp4_read(mp4, 1, &eof_flag);

	add         x2,sp,#0x10
	mov         w1,#1
	ldr         x0,[sp,#0x28]
	bl          |?minimp4_read@@YAIPEAUMP4D_demux_tag@@HPEAH@Z|
	mov         w0,w0
	str         w0,[sp,#0xBC]

; 2789 :                 read_bytes += 1;

	ldr         w8,[sp,#0x58]
	add         w8,w8,#1
	str         w8,[sp,#0x58]

; 2790 :                 if (eof_flag)

	ldr         w8,[sp,#0x10]
	cmp         w8,#0
	beq         |$LN83@MP4D_open|

; 2791 :                 {
; 2792 :                     ERROR("premature EOF!");

	ldr         w8,[sp,#0x30]
	cmp         w8,#0
	bne         |$LN84@MP4D_open|
	b           |$LN9@MP4D_open|
	b           |$LN85@MP4D_open|
|$LN84@MP4D_open|
	ldr         x0,[sp,#0x28]
	bl          MP4D_close
	mov         w0,#0
	b           |$LN1@MP4D_open|
|$LN85@MP4D_open|
|$LN83@MP4D_open|

; 2793 :                 }
; 2794 :                 payload_bytes = (payload_bytes << 7) | (val & 0x7F);

	ldr         x8,[sp,#0x18]
	lsl         x9,x8,#7
	ldr         w8,[sp,#0xBC]
	and         w8,w8,#0x7F
	sxtw        x8,w8
	orr         x8,x9,x8
	str         x8,[sp,#0x18]

; 2795 :                 box_bytes++;

	ldr         x8,[sp,#0x48]
	add         x8,x8,#1
	str         x8,[sp,#0x48]

; 2796 :             } while (val & 0x80);

	ldr         w8,[sp,#0xBC]
	tbnz        x8,#7,|$LN10@MP4D_open|
|$LN9@MP4D_open|

; 2797 :             box_bytes += payload_bytes;

	ldr         x9,[sp,#0x48]
	ldr         x8,[sp,#0x18]
	add         x8,x9,x8
	str         x8,[sp,#0x48]
|$LN56@MP4D_open|

; 2798 :         }
; 2799 : 
; 2800 : #if MP4D_TRACE_SUPPORTED
; 2801 :         box_path[depth] = (box_name >> 24) | (box_name << 24) | ((box_name >> 8) & 0x0000FF00) | ((box_name << 8) & 0x00FF0000);
; 2802 :         TRACE(("%2d  %8d %.*s  (%d bytes remains for sibilings) \n", depth, (int)box_bytes, depth * 4, (char*)box_path, (int)stack[depth].bytes));
; 2803 : #endif
; 2804 : 
; 2805 :         // Check that box size <= parent size
; 2806 :         if (depth)

	ldr         w8,[sp,#0x30]
	cmp         w8,#0
	beq         |$LN86@MP4D_open|

; 2807 :         {
; 2808 :             // Skip box with bad size
; 2809 :             assert(box_bytes > 0);

	ldr         x8,[sp,#0x48]
	cmp         x8,#0
	bne         |$LN185@MP4D_open|
	mov         w8,#1
	str         w8,[sp,#0xD0]
	b           |$LN186@MP4D_open|
|$LN185@MP4D_open|
	mov         w8,#0
	str         w8,[sp,#0xD0]
|$LN186@MP4D_open|
	ldr         w8,[sp,#0xD0]
	cmp         w8,#0
	ble         |$LN87@MP4D_open|
	bl          abort
|$LN87@MP4D_open|

; 2810 :             if (box_bytes > stack[depth].bytes)

	ldr         w8,[sp,#0x30]
	sxtw        x9,w8
	mov         x8,#0x10
	mul         x9,x9,x8
	add         x8,sp,#0x238
	add         x8,x8,x9
	ldr         x9,[x8]
	ldr         x8,[sp,#0x48]
	cmp         x8,x9
	bls         |$LN88@MP4D_open|

; 2811 :             {
; 2812 :                 TRACE(("Wrong %c%c%c%c box size: broken file?\n", (box_name >> 24) & 255, (box_name >> 16) & 255, (box_name >> 8) & 255, box_name & 255));
; 2813 :                 box_bytes = stack[depth].bytes;

	ldr         w8,[sp,#0x30]
	sxtw        x9,w8
	mov         x8,#0x10
	mul         x9,x9,x8
	add         x8,sp,#0x238
	add         x8,x8,x9
	ldr         x8,[x8]
	str         x8,[sp,#0x48]

; 2814 :                 box_name = 0;

	mov         w8,#0
	str         w8,[sp,#0x54]

; 2815 :                 payload_bytes = box_bytes - read_bytes;

	ldr         w8,[sp,#0x58]
	sxtw        x9,w8
	ldr         x8,[sp,#0x48]
	sub         x8,x8,x9
	str         x8,[sp,#0x18]
|$LN88@MP4D_open|

; 2816 :             }
; 2817 :             stack[depth].bytes -= box_bytes;

	ldr         w8,[sp,#0x30]
	sxtw        x9,w8
	mov         x8,#0x10
	mul         x9,x9,x8
	add         x8,sp,#0x238
	add         x8,x8,x9
	ldr         x9,[x8]
	ldr         x8,[sp,#0x48]
	sub         x10,x9,x8
	ldr         w8,[sp,#0x30]
	sxtw        x9,w8
	mov         x8,#0x10
	mul         x9,x9,x8
	add         x8,sp,#0x238
	add         x8,x8,x9
	str         x10,[x8]
|$LN86@MP4D_open|

; 2818 :         }
; 2819 : 
; 2820 :         // Read box header
; 2821 :         switch (box_name)

	ldr         w8,[sp,#0x54]
	str         w8,[sp,#0x40]
	ldr         w9,|$LN246@MP4D_open|
	ldr         w8,[sp,#0x40]
	cmp         w8,w9
	bhi         |$LN233@MP4D_open|
	ldr         w9,|$LN246@MP4D_open|
	ldr         w8,[sp,#0x40]
	cmp         w8,w9
	beq         |$LN123@MP4D_open|
	ldr         w9,|$LN247@MP4D_open|
	ldr         w8,[sp,#0x40]
	cmp         w8,w9
	bhi         |$LN234@MP4D_open|
	ldr         w9,|$LN247@MP4D_open|
	ldr         w8,[sp,#0x40]
	cmp         w8,w9
	beq         |$LN115@MP4D_open|
	ldr         w9,|$LN248@MP4D_open|
	ldr         w8,[sp,#0x40]
	cmp         w8,w9
	bhi         |$LN235@MP4D_open|
	ldr         w9,|$LN248@MP4D_open|
	ldr         w8,[sp,#0x40]
	cmp         w8,w9
	beq         |$LN146@MP4D_open|
	ldr         w9,|$LN249@MP4D_open|
	ldr         w8,[sp,#0x40]
	cmp         w8,w9
	beq         |$LN153@MP4D_open|
	ldr         w9,|$LN250@MP4D_open|
	ldr         w8,[sp,#0x40]
	cmp         w8,w9
	beq         |$LN157@MP4D_open|
	ldr         w9,|$LN251@MP4D_open|
	ldr         w8,[sp,#0x40]
	cmp         w8,w9
	beq         |$LN159@MP4D_open|
	b           |$LN165@MP4D_open|
|$LN235@MP4D_open|
	ldr         w9,|$LN252@MP4D_open|
	ldr         w8,[sp,#0x40]
	cmp         w8,w9
	beq         |$LN151@MP4D_open|
	ldr         w9,|$LN253@MP4D_open|
	ldr         w8,[sp,#0x40]
	cmp         w8,w9
	beq         |$LN127@MP4D_open|
	b           |$LN165@MP4D_open|
|$LN234@MP4D_open|
	ldr         w9,|$LN254@MP4D_open|
	ldr         w8,[sp,#0x40]
	cmp         w8,w9
	bhi         |$LN236@MP4D_open|
	ldr         w9,|$LN254@MP4D_open|
	ldr         w8,[sp,#0x40]
	cmp         w8,w9
	beq         |$LN142@MP4D_open|
	ldr         w9,|$LN255@MP4D_open|
	ldr         w8,[sp,#0x40]
	cmp         w8,w9
	beq         |$LN113@MP4D_open|
	ldr         w9,|$LN256@MP4D_open|
	ldr         w8,[sp,#0x40]
	cmp         w8,w9
	beq         |$LN125@MP4D_open|
	ldr         w9,|$LN257@MP4D_open|
	ldr         w8,[sp,#0x40]
	cmp         w8,w9
	beq         |$LN124@MP4D_open|
	b           |$LN165@MP4D_open|
|$LN236@MP4D_open|
	ldr         w9,|$LN258@MP4D_open|
	ldr         w8,[sp,#0x40]
	cmp         w8,w9
	beq         |$LN138@MP4D_open|
	ldr         w9,|$LN259@MP4D_open|
	ldr         w8,[sp,#0x40]
	cmp         w8,w9
	beq         |$LN147@MP4D_open|
	b           |$LN165@MP4D_open|
|$LN233@MP4D_open|
	ldr         w9,|$LN260@MP4D_open|
	ldr         w8,[sp,#0x40]
	cmp         w8,w9
	bhi         |$LN237@MP4D_open|
	ldr         w9,|$LN260@MP4D_open|
	ldr         w8,[sp,#0x40]
	cmp         w8,w9
	beq         |$LN132@MP4D_open|
	ldr         w9,|$LN261@MP4D_open|
	ldr         w8,[sp,#0x40]
	cmp         w8,w9
	bhi         |$LN238@MP4D_open|
	ldr         w9,|$LN261@MP4D_open|
	ldr         w8,[sp,#0x40]
	cmp         w8,w9
	beq         |$LN90@MP4D_open|
	ldr         w9,|$LN262@MP4D_open|
	ldr         w8,[sp,#0x40]
	cmp         w8,w9
	beq         |$LN114@MP4D_open|
	ldr         w9,|$LN263@MP4D_open|
	ldr         w8,[sp,#0x40]
	cmp         w8,w9
	beq         |$LN101@MP4D_open|
	ldr         w9,|$LN264@MP4D_open|
	ldr         w8,[sp,#0x40]
	cmp         w8,w9
	beq         |$LN137@MP4D_open|
	b           |$LN165@MP4D_open|
|$LN238@MP4D_open|
	ldr         w9,|$LN265@MP4D_open|
	ldr         w8,[sp,#0x40]
	cmp         w8,w9
	beq         |$LN105@MP4D_open|
	ldr         w9,|$LN266@MP4D_open|
	ldr         w8,[sp,#0x40]
	cmp         w8,w9
	beq         |$LN89@MP4D_open|
	b           |$LN165@MP4D_open|
|$LN237@MP4D_open|
	ldr         w9,|$LN267@MP4D_open|
	ldr         w8,[sp,#0x40]
	cmp         w8,w9
	bhi         |$LN239@MP4D_open|
	ldr         w9,|$LN267@MP4D_open|
	ldr         w8,[sp,#0x40]
	cmp         w8,w9
	beq         |$LN134@MP4D_open|
	ldr         w9,|$LN268@MP4D_open|
	ldr         w8,[sp,#0x40]
	cmp         w8,w9
	beq         |$LN131@MP4D_open|
	ldr         w9,|$LN269@MP4D_open|
	ldr         w8,[sp,#0x40]
	cmp         w8,w9
	beq         |$LN135@MP4D_open|
	b           |$LN165@MP4D_open|
|$LN239@MP4D_open|
	ldr         w9,|$LN270@MP4D_open|
	ldr         w8,[sp,#0x40]
	cmp         w8,w9
	beq         |$LN136@MP4D_open|
	ldr         w9,|$LN271@MP4D_open|
	ldr         w8,[sp,#0x40]
	cmp         w8,w9
	beq         |$LN133@MP4D_open|
	b           |$LN165@MP4D_open|
|$LN89@MP4D_open|
|$LN90@MP4D_open|

; 2822 :         {
; 2823 :         case BOX_stz2:  //ISO/IEC 14496-1 Page 38. Section 8.17.2 - Sample Size Box.
; 2824 :         case BOX_stsz:
; 2825 :         {
; 2826 :             int size = 0;

	mov         w8,#0
	str         w8,[sp,#0x80]

; 2827 :             uint32_t sample_size = READ(4);

	add         x3,sp,#0x10
	add         x2,sp,#0x18
	mov         w1,#4
	ldr         x0,[sp,#0x28]
	bl          |?read_payload@@YAIPEAUMP4D_demux_tag@@IPEA_KPEAH@Z|
	mov         w0,w0
	str         w0,[sp,#0x94]

; 2828 :             tr->sample_count = READ(4);

	add         x3,sp,#0x10
	add         x2,sp,#0x18
	mov         w1,#4
	ldr         x0,[sp,#0x28]
	bl          |?read_payload@@YAIPEAUMP4D_demux_tag@@IPEA_KPEAH@Z|
	mov         w0,w0
	ldr         x8,[sp,#0x38]
	str         w0,[x8]

; 2829 :             MALLOC(unsigned int*, tr->entry_size, tr->sample_count * 4);

	ldr         x8,[sp,#0x38]
	ldr         w9,[x8]
	mov         w8,#4
	mul         w0,w9,w8
	mov         w0,w0
	bl          malloc
	ldr         x8,[sp,#0x38]
	add         x8,x8,#0x40
	str         x0,[x8]
	ldr         x8,[sp,#0x38]
	add         x8,x8,#0x40
	ldr         x8,[x8]
	cmp         x8,#0
	bne         |$LN91@MP4D_open|
	ldr         w8,[sp,#0x30]
	cmp         w8,#0
	bne         |$LN92@MP4D_open|
	b           |$LN11@MP4D_open|
	b           |$LN93@MP4D_open|
|$LN92@MP4D_open|
	ldr         x0,[sp,#0x28]
	bl          MP4D_close
	mov         w0,#0
	b           |$LN1@MP4D_open|
|$LN93@MP4D_open|
|$LN91@MP4D_open|

; 2830 :             for (i = 0; i < tr->sample_count; i++)

	mov         w8,#0
	str         w8,[sp,#0x20]
	b           |$LN15@MP4D_open|
|$LN13@MP4D_open|
	ldr         w8,[sp,#0x20]
	add         w8,w8,#1
	str         w8,[sp,#0x20]
|$LN15@MP4D_open|
	ldr         x8,[sp,#0x38]
	ldr         w9,[x8]
	ldr         w8,[sp,#0x20]
	cmp         w8,w9
	bhs         |$LN14@MP4D_open|

; 2831 :             {
; 2832 :                 if (box_name == BOX_stsz)

	ldr         w9,|$LN261@MP4D_open|
	ldr         w8,[sp,#0x54]
	cmp         w8,w9
	bne         |$LN94@MP4D_open|

; 2833 :                 {
; 2834 :                     tr->entry_size[i] = (sample_size ? sample_size : READ(4));

	ldr         w8,[sp,#0x94]
	cmp         w8,#0
	beq         |$LN187@MP4D_open|
	ldr         w8,[sp,#0x94]
	str         w8,[sp,#0xC0]
	b           |$LN188@MP4D_open|
|$LN187@MP4D_open|
	add         x3,sp,#0x10
	add         x2,sp,#0x18
	mov         w1,#4
	ldr         x0,[sp,#0x28]
	bl          |?read_payload@@YAIPEAUMP4D_demux_tag@@IPEA_KPEAH@Z|
	mov         w0,w0
	str         w0,[sp,#0xC0]
|$LN188@MP4D_open|
	ldr         x8,[sp,#0x38]
	add         x10,x8,#0x40
	ldr         w8,[sp,#0x20]
	uxtw        x9,w8
	mov         x8,#4
	mul         x9,x9,x8
	ldr         x8,[x10]
	add         x9,x8,x9
	ldr         w8,[sp,#0xC0]
	str         w8,[x9]

; 2835 :                 }

	b           |$LN95@MP4D_open|
|$LN94@MP4D_open|

; 2836 :                 else
; 2837 :                 {
; 2838 :                     switch (sample_size & 0xFF)

	ldr         w8,[sp,#0x94]
	and         w8,w8,#0xFF
	str         w8,[sp,#0x98]
	ldr         w8,[sp,#0x98]
	cmp         w8,#4
	beq         |$LN98@MP4D_open|
	ldr         w8,[sp,#0x98]
	cmp         w8,#8
	beq         |$LN97@MP4D_open|
	ldr         w8,[sp,#0x98]
	cmp         w8,#0x10
	beq         |$LN96@MP4D_open|
	b           |$LN16@MP4D_open|
|$LN96@MP4D_open|

; 2839 :                     {
; 2840 :                     case 16:
; 2841 :                         tr->entry_size[i] = READ(2);

	add         x3,sp,#0x10
	add         x2,sp,#0x18
	mov         w1,#2
	ldr         x0,[sp,#0x28]
	bl          |?read_payload@@YAIPEAUMP4D_demux_tag@@IPEA_KPEAH@Z|
	mov         w0,w0
	ldr         x8,[sp,#0x38]
	add         x10,x8,#0x40
	ldr         w8,[sp,#0x20]
	uxtw        x9,w8
	mov         x8,#4
	mul         x9,x9,x8
	ldr         x8,[x10]
	add         x8,x8,x9
	str         w0,[x8]

; 2842 :                         break;

	b           |$LN16@MP4D_open|
|$LN97@MP4D_open|

; 2843 :                     case  8:
; 2844 :                         tr->entry_size[i] = READ(1);

	add         x3,sp,#0x10
	add         x2,sp,#0x18
	mov         w1,#1
	ldr         x0,[sp,#0x28]
	bl          |?read_payload@@YAIPEAUMP4D_demux_tag@@IPEA_KPEAH@Z|
	mov         w0,w0
	ldr         x8,[sp,#0x38]
	add         x10,x8,#0x40
	ldr         w8,[sp,#0x20]
	uxtw        x9,w8
	mov         x8,#4
	mul         x9,x9,x8
	ldr         x8,[x10]
	add         x8,x8,x9
	str         w0,[x8]

; 2845 :                         break;

	b           |$LN16@MP4D_open|
|$LN98@MP4D_open|

; 2846 :                     case  4:
; 2847 :                         if (i & 1)

	ldr         w8,[sp,#0x20]
	tbz         x8,#0,|$LN99@MP4D_open|

; 2848 :                         {
; 2849 :                             tr->entry_size[i] = size & 15;

	ldr         w8,[sp,#0x80]
	and         w11,w8,#0xF
	ldr         x8,[sp,#0x38]
	add         x10,x8,#0x40
	ldr         w8,[sp,#0x20]
	uxtw        x9,w8
	mov         x8,#4
	mul         x9,x9,x8
	ldr         x8,[x10]
	add         x8,x8,x9
	str         w11,[x8]

; 2850 :                         }

	b           |$LN100@MP4D_open|
|$LN99@MP4D_open|

; 2851 :                         else
; 2852 :                         {
; 2853 :                             size = READ(1);

	add         x3,sp,#0x10
	add         x2,sp,#0x18
	mov         w1,#1
	ldr         x0,[sp,#0x28]
	bl          |?read_payload@@YAIPEAUMP4D_demux_tag@@IPEA_KPEAH@Z|
	mov         w0,w0
	str         w0,[sp,#0x80]

; 2854 :                             tr->entry_size[i] = (size >> 4);

	ldr         w8,[sp,#0x80]
	asr         w11,w8,#4
	ldr         x8,[sp,#0x38]
	add         x10,x8,#0x40
	ldr         w8,[sp,#0x20]
	uxtw        x9,w8
	mov         x8,#4
	mul         x9,x9,x8
	ldr         x8,[x10]
	add         x8,x8,x9
	str         w11,[x8]
|$LN100@MP4D_open|
|$LN16@MP4D_open|
|$LN95@MP4D_open|

; 2855 :                         }
; 2856 :                         break;
; 2857 :                     }
; 2858 :                 }
; 2859 :             }

	b           |$LN13@MP4D_open|
|$LN14@MP4D_open|

; 2860 :         }
; 2861 :         break;

	b           |$LN11@MP4D_open|
|$LN101@MP4D_open|

; 2862 : 
; 2863 :         case BOX_stsc:  //ISO/IEC 14496-12 Page 38. Section 8.18 - Sample To Chunk Box.
; 2864 :             tr->sample_to_chunk_count = READ(4);

	add         x3,sp,#0x10
	add         x2,sp,#0x18
	mov         w1,#4
	ldr         x0,[sp,#0x28]
	bl          |?read_payload@@YAIPEAUMP4D_demux_tag@@IPEA_KPEAH@Z|
	mov         w0,w0
	ldr         x8,[sp,#0x38]
	add         x8,x8,#0x48
	str         w0,[x8]

; 2865 :             MALLOC(MP4D_sample_to_chunk_t*, tr->sample_to_chunk, tr->sample_to_chunk_count * sizeof(tr->sample_to_chunk[0]));

	ldr         x8,[sp,#0x38]
	add         x8,x8,#0x48
	ldr         w8,[x8]
	uxtw        x9,w8
	mov         x8,#8
	mul         x8,x9,x8
	mov         w0,w8
	mov         w0,w0
	bl          malloc
	ldr         x8,[sp,#0x38]
	add         x8,x8,#0x50
	str         x0,[x8]
	ldr         x8,[sp,#0x38]
	add         x8,x8,#0x50
	ldr         x8,[x8]
	cmp         x8,#0
	bne         |$LN102@MP4D_open|
	ldr         w8,[sp,#0x30]
	cmp         w8,#0
	bne         |$LN103@MP4D_open|
	b           |$LN11@MP4D_open|
	b           |$LN104@MP4D_open|
|$LN103@MP4D_open|
	ldr         x0,[sp,#0x28]
	bl          MP4D_close
	mov         w0,#0
	b           |$LN1@MP4D_open|
|$LN104@MP4D_open|
|$LN102@MP4D_open|

; 2866 :             for (i = 0; i < tr->sample_to_chunk_count; i++)

	mov         w8,#0
	str         w8,[sp,#0x20]
	b           |$LN20@MP4D_open|
|$LN18@MP4D_open|
	ldr         w8,[sp,#0x20]
	add         w8,w8,#1
	str         w8,[sp,#0x20]
|$LN20@MP4D_open|
	ldr         x8,[sp,#0x38]
	add         x8,x8,#0x48
	ldr         w9,[x8]
	ldr         w8,[sp,#0x20]
	cmp         w8,w9
	bhs         |$LN19@MP4D_open|

; 2867 :             {
; 2868 :                 tr->sample_to_chunk[i].first_chunk = READ(4);

	add         x3,sp,#0x10
	add         x2,sp,#0x18
	mov         w1,#4
	ldr         x0,[sp,#0x28]
	bl          |?read_payload@@YAIPEAUMP4D_demux_tag@@IPEA_KPEAH@Z|
	mov         w0,w0
	ldr         x8,[sp,#0x38]
	add         x10,x8,#0x50
	ldr         w8,[sp,#0x20]
	uxtw        x9,w8
	mov         x8,#8
	mul         x9,x9,x8
	ldr         x8,[x10]
	add         x8,x8,x9
	str         w0,[x8]

; 2869 :                 tr->sample_to_chunk[i].samples_per_chunk = READ(4);

	add         x3,sp,#0x10
	add         x2,sp,#0x18
	mov         w1,#4
	ldr         x0,[sp,#0x28]
	bl          |?read_payload@@YAIPEAUMP4D_demux_tag@@IPEA_KPEAH@Z|
	mov         w0,w0
	ldr         x8,[sp,#0x38]
	add         x10,x8,#0x50
	ldr         w8,[sp,#0x20]
	uxtw        x9,w8
	mov         x8,#8
	mul         x9,x9,x8
	ldr         x8,[x10]
	add         x8,x8,x9
	add         x8,x8,#4
	str         w0,[x8]

; 2870 :                 SKIP(4);    // sample_description_index

	ldr         x8,[sp,#0x18]
	cmp         x8,#4
	bhs         |$LN189@MP4D_open|
	ldr         x8,[sp,#0x18]
	str         x8,[sp,#0x118]
	b           |$LN190@MP4D_open|
|$LN189@MP4D_open|
	mov         x8,#4
	str         x8,[sp,#0x118]
|$LN190@MP4D_open|
	ldr         x8,[sp,#0x118]
	str         x8,[sp,#0x120]
	add         x2,sp,#0x10
	ldr         x1,[sp,#0x120]
	ldr         x0,[sp,#0x28]
	bl          |?my_fseek@@YAXPEAUMP4D_demux_tag@@_KPEAH@Z|
	ldr         x9,[sp,#0x18]
	ldr         x8,[sp,#0x120]
	sub         x8,x9,x8
	str         x8,[sp,#0x18]

; 2871 :             }

	b           |$LN18@MP4D_open|
|$LN19@MP4D_open|

; 2872 :             break;

	b           |$LN11@MP4D_open|
|$LN105@MP4D_open|

; 2873 : #if MP4D_TRACE_TIMESTAMPS || MP4D_TIMESTAMPS_SUPPORTED
; 2874 :         case BOX_stts:
; 2875 :         {
; 2876 :             unsigned count = READ(4);

	add         x3,sp,#0x10
	add         x2,sp,#0x18
	mov         w1,#4
	ldr         x0,[sp,#0x28]
	bl          |?read_payload@@YAIPEAUMP4D_demux_tag@@IPEA_KPEAH@Z|
	mov         w0,w0
	str         w0,[sp,#0xC4]

; 2877 :             unsigned j, k = 0, ts = 0, ts_count = count;

	mov         w8,#0
	str         w8,[sp,#0x64]
	mov         w8,#0
	str         w8,[sp,#0xA0]
	ldr         w8,[sp,#0xC4]
	str         w8,[sp,#0x60]

; 2878 : #if MP4D_TIMESTAMPS_SUPPORTED
; 2879 :             MALLOC(unsigned int*, tr->timestamp, ts_count * 4);

	ldr         w9,[sp,#0x60]
	mov         w8,#4
	mul         w0,w9,w8
	mov         w0,w0
	bl          malloc
	ldr         x8,[sp,#0x38]
	add         x8,x8,#0x68
	str         x0,[x8]
	ldr         x8,[sp,#0x38]
	add         x8,x8,#0x68
	ldr         x8,[x8]
	cmp         x8,#0
	bne         |$LN106@MP4D_open|
	ldr         w8,[sp,#0x30]
	cmp         w8,#0
	bne         |$LN107@MP4D_open|
	b           |$LN11@MP4D_open|
	b           |$LN108@MP4D_open|
|$LN107@MP4D_open|
	ldr         x0,[sp,#0x28]
	bl          MP4D_close
	mov         w0,#0
	b           |$LN1@MP4D_open|
|$LN108@MP4D_open|
|$LN106@MP4D_open|

; 2880 :             MALLOC(unsigned int*, tr->duration, ts_count * 4);

	ldr         w9,[sp,#0x60]
	mov         w8,#4
	mul         w0,w9,w8
	mov         w0,w0
	bl          malloc
	ldr         x8,[sp,#0x38]
	add         x8,x8,#0x70
	str         x0,[x8]
	ldr         x8,[sp,#0x38]
	add         x8,x8,#0x70
	ldr         x8,[x8]
	cmp         x8,#0
	bne         |$LN109@MP4D_open|
	ldr         w8,[sp,#0x30]
	cmp         w8,#0
	bne         |$LN110@MP4D_open|
	b           |$LN11@MP4D_open|
	b           |$LN111@MP4D_open|
|$LN110@MP4D_open|
	ldr         x0,[sp,#0x28]
	bl          MP4D_close
	mov         w0,#0
	b           |$LN1@MP4D_open|
|$LN111@MP4D_open|
|$LN109@MP4D_open|

; 2881 : #endif
; 2882 : 
; 2883 :             for (i = 0; i < count; i++)

	mov         w8,#0
	str         w8,[sp,#0x20]
	b           |$LN23@MP4D_open|
|$LN21@MP4D_open|
	ldr         w8,[sp,#0x20]
	add         w8,w8,#1
	str         w8,[sp,#0x20]
|$LN23@MP4D_open|
	ldr         w9,[sp,#0xC4]
	ldr         w8,[sp,#0x20]
	cmp         w8,w9
	bhs         |$LN22@MP4D_open|

; 2884 :             {
; 2885 :                 unsigned sc = READ(4);

	add         x3,sp,#0x10
	add         x2,sp,#0x18
	mov         w1,#4
	ldr         x0,[sp,#0x28]
	bl          |?read_payload@@YAIPEAUMP4D_demux_tag@@IPEA_KPEAH@Z|
	mov         w0,w0
	str         w0,[sp,#0x84]

; 2886 :                 int d = READ(4);

	add         x3,sp,#0x10
	add         x2,sp,#0x18
	mov         w1,#4
	ldr         x0,[sp,#0x28]
	bl          |?read_payload@@YAIPEAUMP4D_demux_tag@@IPEA_KPEAH@Z|
	mov         w0,w0
	str         w0,[sp,#0xC8]

; 2887 :                 TRACE(("sample %8d count %8d duration %8d\n", i, sc, d));
; 2888 : #if MP4D_TIMESTAMPS_SUPPORTED
; 2889 :                 if (k + sc > ts_count)

	ldr         w9,[sp,#0x64]
	ldr         w8,[sp,#0x84]
	add         w9,w9,w8
	ldr         w8,[sp,#0x60]
	cmp         w9,w8
	bls         |$LN112@MP4D_open|

; 2890 :                 {
; 2891 :                     ts_count = k + sc;

	ldr         w9,[sp,#0x64]
	ldr         w8,[sp,#0x84]
	add         w8,w9,w8
	str         w8,[sp,#0x60]

; 2892 :                     tr->timestamp = (unsigned int*)realloc(tr->timestamp, ts_count * sizeof(unsigned));

	ldr         w8,[sp,#0x60]
	uxtw        x9,w8
	mov         x8,#4
	mul         x8,x9,x8
	mov         w1,w8
	ldr         x8,[sp,#0x38]
	add         x8,x8,#0x68
	mov         w1,w1
	ldr         x0,[x8]
	bl          realloc
	ldr         x8,[sp,#0x38]
	add         x8,x8,#0x68
	str         x0,[x8]

; 2893 :                     tr->duration = (unsigned int*)realloc(tr->duration, ts_count * sizeof(unsigned));

	ldr         w8,[sp,#0x60]
	uxtw        x9,w8
	mov         x8,#4
	mul         x8,x9,x8
	mov         w1,w8
	ldr         x8,[sp,#0x38]
	add         x8,x8,#0x70
	mov         w1,w1
	ldr         x0,[x8]
	bl          realloc
	ldr         x8,[sp,#0x38]
	add         x8,x8,#0x70
	str         x0,[x8]
|$LN112@MP4D_open|

; 2894 :                 }
; 2895 :                 for (j = 0; j < sc; j++)

	mov         w8,#0
	str         w8,[sp,#0x88]
	b           |$LN26@MP4D_open|
|$LN24@MP4D_open|
	ldr         w8,[sp,#0x88]
	add         w8,w8,#1
	str         w8,[sp,#0x88]
|$LN26@MP4D_open|
	ldr         w9,[sp,#0x84]
	ldr         w8,[sp,#0x88]
	cmp         w8,w9
	bhs         |$LN25@MP4D_open|

; 2896 :                 {
; 2897 :                     tr->duration[k] = d;

	ldr         x8,[sp,#0x38]
	add         x10,x8,#0x70
	ldr         w8,[sp,#0x64]
	uxtw        x9,w8
	mov         x8,#4
	mul         x9,x9,x8
	ldr         x8,[x10]
	add         x9,x8,x9
	ldr         w8,[sp,#0xC8]
	str         w8,[x9]

; 2898 :                     tr->timestamp[k++] = ts;

	ldr         x8,[sp,#0x38]
	add         x10,x8,#0x68
	ldr         w8,[sp,#0x64]
	uxtw        x9,w8
	mov         x8,#4
	mul         x9,x9,x8
	ldr         x8,[x10]
	add         x9,x8,x9
	ldr         w8,[sp,#0xA0]
	str         w8,[x9]
	ldr         w8,[sp,#0x64]
	add         w8,w8,#1
	str         w8,[sp,#0x64]

; 2899 :                     ts += d;

	ldr         w9,[sp,#0xA0]
	ldr         w8,[sp,#0xC8]
	add         w8,w9,w8
	str         w8,[sp,#0xA0]

; 2900 :                 }

	b           |$LN24@MP4D_open|
|$LN25@MP4D_open|

; 2901 : #endif
; 2902 :             }

	b           |$LN21@MP4D_open|
|$LN22@MP4D_open|

; 2903 :         }
; 2904 :         break;

	b           |$LN11@MP4D_open|
|$LN113@MP4D_open|

; 2905 :         case BOX_ctts:
; 2906 :         {
; 2907 :             unsigned count = READ(4);

	add         x3,sp,#0x10
	add         x2,sp,#0x18
	mov         w1,#4
	ldr         x0,[sp,#0x28]
	bl          |?read_payload@@YAIPEAUMP4D_demux_tag@@IPEA_KPEAH@Z|
	mov         w0,w0
	str         w0,[sp,#0xD4]

; 2908 :             for (i = 0; i < count; i++)

	mov         w8,#0
	str         w8,[sp,#0x20]
	b           |$LN29@MP4D_open|
|$LN27@MP4D_open|
	ldr         w8,[sp,#0x20]
	add         w8,w8,#1
	str         w8,[sp,#0x20]
|$LN29@MP4D_open|
	ldr         w9,[sp,#0xD4]
	ldr         w8,[sp,#0x20]
	cmp         w8,w9
	bhs         |$LN28@MP4D_open|

; 2909 :             {
; 2910 :                 int sc = READ(4);

	add         x3,sp,#0x10
	add         x2,sp,#0x18
	mov         w1,#4
	ldr         x0,[sp,#0x28]
	bl          |?read_payload@@YAIPEAUMP4D_demux_tag@@IPEA_KPEAH@Z|
	mov         w0,w0
	str         w0,[sp,#0x228]

; 2911 :                 int d = READ(4);

	add         x3,sp,#0x10
	add         x2,sp,#0x18
	mov         w1,#4
	ldr         x0,[sp,#0x28]
	bl          |?read_payload@@YAIPEAUMP4D_demux_tag@@IPEA_KPEAH@Z|
	mov         w0,w0
	str         w0,[sp,#0x210]

; 2912 :                 (void)sc;
; 2913 :                 (void)d;
; 2914 :                 TRACE(("sample %8d count %8d decoding to composition offset %8d\n", i, sc, d));
; 2915 :             }

	b           |$LN27@MP4D_open|
|$LN28@MP4D_open|

; 2916 :         }
; 2917 :         break;

	b           |$LN11@MP4D_open|
|$LN114@MP4D_open|
|$LN115@MP4D_open|

; 2918 : #endif
; 2919 :         case BOX_stco:  //ISO/IEC 14496-12 Page 39. Section 8.19 - Chunk Offset Box.
; 2920 :         case BOX_co64:
; 2921 :             tr->chunk_count = READ(4);

	add         x3,sp,#0x10
	add         x2,sp,#0x18
	mov         w1,#4
	ldr         x0,[sp,#0x28]
	bl          |?read_payload@@YAIPEAUMP4D_demux_tag@@IPEA_KPEAH@Z|
	mov         w0,w0
	ldr         x8,[sp,#0x38]
	add         x8,x8,#0x58
	str         w0,[x8]

; 2922 :             MALLOC(MP4D_file_offset_t*, tr->chunk_offset, tr->chunk_count * sizeof(MP4D_file_offset_t));

	ldr         x8,[sp,#0x38]
	add         x8,x8,#0x58
	ldr         w8,[x8]
	uxtw        x9,w8
	mov         x8,#8
	mul         x8,x9,x8
	mov         w0,w8
	mov         w0,w0
	bl          malloc
	ldr         x8,[sp,#0x38]
	add         x8,x8,#0x60
	str         x0,[x8]
	ldr         x8,[sp,#0x38]
	add         x8,x8,#0x60
	ldr         x8,[x8]
	cmp         x8,#0
	bne         |$LN116@MP4D_open|
	ldr         w8,[sp,#0x30]
	cmp         w8,#0
	bne         |$LN117@MP4D_open|
	b           |$LN11@MP4D_open|
	b           |$LN118@MP4D_open|
|$LN117@MP4D_open|
	ldr         x0,[sp,#0x28]
	bl          MP4D_close
	mov         w0,#0
	b           |$LN1@MP4D_open|
|$LN118@MP4D_open|
|$LN116@MP4D_open|

; 2923 :             for (i = 0; i < tr->chunk_count; i++)

	mov         w8,#0
	str         w8,[sp,#0x20]
	b           |$LN32@MP4D_open|
|$LN30@MP4D_open|
	ldr         w8,[sp,#0x20]
	add         w8,w8,#1
	str         w8,[sp,#0x20]
|$LN32@MP4D_open|
	ldr         x8,[sp,#0x38]
	add         x8,x8,#0x58
	ldr         w9,[x8]
	ldr         w8,[sp,#0x20]
	cmp         w8,w9
	bhs         |$LN31@MP4D_open|

; 2924 :             {
; 2925 :                 tr->chunk_offset[i] = READ(4);

	add         x3,sp,#0x10
	add         x2,sp,#0x18
	mov         w1,#4
	ldr         x0,[sp,#0x28]
	bl          |?read_payload@@YAIPEAUMP4D_demux_tag@@IPEA_KPEAH@Z|
	mov         w0,w0
	uxtw        x11,w0
	ldr         x8,[sp,#0x38]
	add         x10,x8,#0x60
	ldr         w8,[sp,#0x20]
	uxtw        x9,w8
	mov         x8,#8
	mul         x9,x9,x8
	ldr         x8,[x10]
	add         x8,x8,x9
	str         x11,[x8]

; 2926 :                 if (box_name == BOX_co64)

	ldr         w9,|$LN247@MP4D_open|
	ldr         w8,[sp,#0x54]
	cmp         w8,w9
	bne         |$LN119@MP4D_open|

; 2927 :                 {
; 2928 : #if !MP4D_64BIT_SUPPORTED
; 2929 :                     if (tr->chunk_offset[i])

	ldr         x8,[sp,#0x38]
	add         x10,x8,#0x60
	ldr         w8,[sp,#0x20]
	uxtw        x9,w8
	mov         x8,#8
	mul         x9,x9,x8
	ldr         x8,[x10]
	add         x8,x8,x9
	ldr         x8,[x8]
	cmp         x8,#0
	beq         |$LN120@MP4D_open|

; 2930 :                     {
; 2931 :                         ERROR("UNSUPPORTED FEATURE: 64-bit chunk_offset not supported!");

	ldr         w8,[sp,#0x30]
	cmp         w8,#0
	bne         |$LN121@MP4D_open|
	b           |$LN31@MP4D_open|
	b           |$LN122@MP4D_open|
|$LN121@MP4D_open|
	ldr         x0,[sp,#0x28]
	bl          MP4D_close
	mov         w0,#0
	b           |$LN1@MP4D_open|
|$LN122@MP4D_open|
|$LN120@MP4D_open|

; 2932 :                     }
; 2933 : #endif
; 2934 :                     tr->chunk_offset[i] <<= 32;

	ldr         x8,[sp,#0x38]
	add         x10,x8,#0x60
	ldr         w8,[sp,#0x20]
	uxtw        x9,w8
	mov         x8,#8
	mul         x9,x9,x8
	ldr         x8,[x10]
	add         x8,x8,x9
	ldr         x8,[x8]
	lsl         x11,x8,#0x20
	ldr         x8,[sp,#0x38]
	add         x10,x8,#0x60
	ldr         w8,[sp,#0x20]
	uxtw        x9,w8
	mov         x8,#8
	mul         x9,x9,x8
	ldr         x8,[x10]
	add         x8,x8,x9
	str         x11,[x8]

; 2935 :                     tr->chunk_offset[i] |= READ(4);

	ldr         x8,[sp,#0x38]
	add         x10,x8,#0x60
	ldr         w8,[sp,#0x20]
	uxtw        x9,w8
	mov         x8,#8
	mul         x9,x9,x8
	ldr         x8,[x10]
	add         x19,x8,x9
	add         x3,sp,#0x10
	add         x2,sp,#0x18
	mov         w1,#4
	ldr         x0,[sp,#0x28]
	bl          |?read_payload@@YAIPEAUMP4D_demux_tag@@IPEA_KPEAH@Z|
	mov         w0,w0
	uxtw        x9,w0
	ldr         x8,[x19]
	orr         x11,x8,x9
	ldr         x8,[sp,#0x38]
	add         x10,x8,#0x60
	ldr         w8,[sp,#0x20]
	uxtw        x9,w8
	mov         x8,#8
	mul         x9,x9,x8
	ldr         x8,[x10]
	add         x8,x8,x9
	str         x11,[x8]
|$LN119@MP4D_open|

; 2936 :                 }
; 2937 :             }

	b           |$LN30@MP4D_open|
|$LN31@MP4D_open|

; 2938 :             break;

	b           |$LN11@MP4D_open|
|$LN123@MP4D_open|

; 2939 : 
; 2940 : #if MP4D_INFO_SUPPORTED
; 2941 :         case BOX_mvhd:
; 2942 :             SKIP(((FullAtomVersionAndFlags >> 24) == 1) ? 8 + 8 : 4 + 4);

	ldr         w8,[sp,#0x50]
	lsr         w8,w8,#0x18
	cmp         w8,#1
	bne         |$LN191@MP4D_open|
	mov         w8,#0x10
	str         w8,[sp,#0xCC]
	b           |$LN192@MP4D_open|
|$LN191@MP4D_open|
	mov         w8,#8
	str         w8,[sp,#0xCC]
|$LN192@MP4D_open|
	ldr         w8,[sp,#0xCC]
	sxtw        x9,w8
	ldr         x8,[sp,#0x18]
	cmp         x8,x9
	bhs         |$LN195@MP4D_open|
	ldr         x8,[sp,#0x18]
	str         x8,[sp,#0x128]
	b           |$LN196@MP4D_open|
|$LN195@MP4D_open|
	ldr         w8,[sp,#0x50]
	lsr         w8,w8,#0x18
	cmp         w8,#1
	bne         |$LN193@MP4D_open|
	mov         w8,#0x10
	str         w8,[sp,#0xA4]
	b           |$LN194@MP4D_open|
|$LN193@MP4D_open|
	mov         w8,#8
	str         w8,[sp,#0xA4]
|$LN194@MP4D_open|
	ldr         w8,[sp,#0xA4]
	sxtw        x8,w8
	str         x8,[sp,#0x128]
|$LN196@MP4D_open|
	ldr         x8,[sp,#0x128]
	str         x8,[sp,#0x130]
	add         x2,sp,#0x10
	ldr         x1,[sp,#0x130]
	ldr         x0,[sp,#0x28]
	bl          |?my_fseek@@YAXPEAUMP4D_demux_tag@@_KPEAH@Z|
	ldr         x9,[sp,#0x18]
	ldr         x8,[sp,#0x130]
	sub         x8,x9,x8
	str         x8,[sp,#0x18]

; 2943 :             mp4->timescale = READ(4);

	add         x3,sp,#0x10
	add         x2,sp,#0x18
	mov         w1,#4
	ldr         x0,[sp,#0x28]
	bl          |?read_payload@@YAIPEAUMP4D_demux_tag@@IPEA_KPEAH@Z|
	mov         w0,w0
	ldr         x8,[sp,#0x28]
	add         x8,x8,#0x34
	str         w0,[x8]

; 2944 :             mp4->duration_hi = ((FullAtomVersionAndFlags >> 24) == 1) ? READ(4) : 0;

	ldr         w8,[sp,#0x50]
	lsr         w8,w8,#0x18
	cmp         w8,#1
	bne         |$LN197@MP4D_open|
	add         x3,sp,#0x10
	add         x2,sp,#0x18
	mov         w1,#4
	ldr         x0,[sp,#0x28]
	bl          |?read_payload@@YAIPEAUMP4D_demux_tag@@IPEA_KPEAH@Z|
	mov         w0,w0
	str         w0,[sp,#0xA8]
	b           |$LN198@MP4D_open|
|$LN197@MP4D_open|
	mov         w8,#0
	str         w8,[sp,#0xA8]
|$LN198@MP4D_open|
	ldr         x8,[sp,#0x28]
	add         x9,x8,#0x2C
	ldr         w8,[sp,#0xA8]
	str         w8,[x9]

; 2945 :             mp4->duration_lo = READ(4);

	add         x3,sp,#0x10
	add         x2,sp,#0x18
	mov         w1,#4
	ldr         x0,[sp,#0x28]
	bl          |?read_payload@@YAIPEAUMP4D_demux_tag@@IPEA_KPEAH@Z|
	mov         w0,w0
	ldr         x8,[sp,#0x28]
	add         x8,x8,#0x30
	str         w0,[x8]

; 2946 :             SKIP(4 + 2 + 2 + 4 * 2 + 4 * 9 + 4 * 6 + 4);

	ldr         x8,[sp,#0x18]
	cmp         x8,#0x50
	bhs         |$LN199@MP4D_open|
	ldr         x8,[sp,#0x18]
	str         x8,[sp,#0xD8]
	b           |$LN200@MP4D_open|
|$LN199@MP4D_open|
	mov         x8,#0x50
	str         x8,[sp,#0xD8]
|$LN200@MP4D_open|
	ldr         x8,[sp,#0xD8]
	str         x8,[sp,#0x140]
	add         x2,sp,#0x10
	ldr         x1,[sp,#0x140]
	ldr         x0,[sp,#0x28]
	bl          |?my_fseek@@YAXPEAUMP4D_demux_tag@@_KPEAH@Z|
	ldr         x9,[sp,#0x18]
	ldr         x8,[sp,#0x140]
	sub         x8,x9,x8
	str         x8,[sp,#0x18]

; 2947 :             break;

	b           |$LN11@MP4D_open|
|$LN124@MP4D_open|

; 2948 : 
; 2949 :         case BOX_mdhd:
; 2950 :             SKIP(((FullAtomVersionAndFlags >> 24) == 1) ? 8 + 8 : 4 + 4);

	ldr         w8,[sp,#0x50]
	lsr         w8,w8,#0x18
	cmp         w8,#1
	bne         |$LN201@MP4D_open|
	mov         w8,#0x10
	str         w8,[sp,#0xAC]
	b           |$LN202@MP4D_open|
|$LN201@MP4D_open|
	mov         w8,#8
	str         w8,[sp,#0xAC]
|$LN202@MP4D_open|
	ldr         w8,[sp,#0xAC]
	sxtw        x9,w8
	ldr         x8,[sp,#0x18]
	cmp         x8,x9
	bhs         |$LN205@MP4D_open|
	ldr         x8,[sp,#0x18]
	str         x8,[sp,#0x148]
	b           |$LN206@MP4D_open|
|$LN205@MP4D_open|
	ldr         w8,[sp,#0x50]
	lsr         w8,w8,#0x18
	cmp         w8,#1
	bne         |$LN203@MP4D_open|
	mov         w8,#0x10
	str         w8,[sp,#0xB0]
	b           |$LN204@MP4D_open|
|$LN203@MP4D_open|
	mov         w8,#8
	str         w8,[sp,#0xB0]
|$LN204@MP4D_open|
	ldr         w8,[sp,#0xB0]
	sxtw        x8,w8
	str         x8,[sp,#0x148]
|$LN206@MP4D_open|
	ldr         x8,[sp,#0x148]
	str         x8,[sp,#0x150]
	add         x2,sp,#0x10
	ldr         x1,[sp,#0x150]
	ldr         x0,[sp,#0x28]
	bl          |?my_fseek@@YAXPEAUMP4D_demux_tag@@_KPEAH@Z|
	ldr         x9,[sp,#0x18]
	ldr         x8,[sp,#0x150]
	sub         x8,x9,x8
	str         x8,[sp,#0x18]

; 2951 :             tr->timescale = READ(4);

	add         x3,sp,#0x10
	add         x2,sp,#0x18
	mov         w1,#4
	ldr         x0,[sp,#0x28]
	bl          |?read_payload@@YAIPEAUMP4D_demux_tag@@IPEA_KPEAH@Z|
	mov         w0,w0
	ldr         x8,[sp,#0x38]
	add         x8,x8,#0x24
	str         w0,[x8]

; 2952 :             tr->duration_hi = ((FullAtomVersionAndFlags >> 24) == 1) ? READ(4) : 0;

	ldr         w8,[sp,#0x50]
	lsr         w8,w8,#0x18
	cmp         w8,#1
	bne         |$LN207@MP4D_open|
	add         x3,sp,#0x10
	add         x2,sp,#0x18
	mov         w1,#4
	ldr         x0,[sp,#0x28]
	bl          |?read_payload@@YAIPEAUMP4D_demux_tag@@IPEA_KPEAH@Z|
	mov         w0,w0
	str         w0,[sp,#0xB4]
	b           |$LN208@MP4D_open|
|$LN207@MP4D_open|
	mov         w8,#0
	str         w8,[sp,#0xB4]
|$LN208@MP4D_open|
	ldr         x8,[sp,#0x38]
	add         x9,x8,#0x1C
	ldr         w8,[sp,#0xB4]
	str         w8,[x9]

; 2953 :             tr->duration_lo = READ(4);

	add         x3,sp,#0x10
	add         x2,sp,#0x18
	mov         w1,#4
	ldr         x0,[sp,#0x28]
	bl          |?read_payload@@YAIPEAUMP4D_demux_tag@@IPEA_KPEAH@Z|
	mov         w0,w0
	ldr         x8,[sp,#0x38]
	add         x8,x8,#0x20
	str         w0,[x8]

; 2954 : 
; 2955 :             {
; 2956 :                 int ISO_639_2_T = READ(2);

	add         x3,sp,#0x10
	add         x2,sp,#0x18
	mov         w1,#2
	ldr         x0,[sp,#0x28]
	bl          |?read_payload@@YAIPEAUMP4D_demux_tag@@IPEA_KPEAH@Z|
	mov         w0,w0
	str         w0,[sp,#0x5C]

; 2957 :                 tr->language[2] = (ISO_639_2_T & 31) + 0x60; ISO_639_2_T >>= 5;

	ldr         w8,[sp,#0x5C]
	and         w8,w8,#0x1F
	add         w8,w8,#0x60
	uxtb        w9,w8
	ldr         x8,[sp,#0x38]
	add         x8,x8,#0x2E
	strb        w9,[x8]
	ldr         w8,[sp,#0x5C]
	asr         w8,w8,#5
	str         w8,[sp,#0x5C]

; 2958 :                 tr->language[1] = (ISO_639_2_T & 31) + 0x60; ISO_639_2_T >>= 5;

	ldr         w8,[sp,#0x5C]
	and         w8,w8,#0x1F
	add         w8,w8,#0x60
	uxtb        w9,w8
	ldr         x8,[sp,#0x38]
	add         x8,x8,#0x2D
	strb        w9,[x8]
	ldr         w8,[sp,#0x5C]
	asr         w8,w8,#5
	str         w8,[sp,#0x5C]

; 2959 :                 tr->language[0] = (ISO_639_2_T & 31) + 0x60;

	ldr         w8,[sp,#0x5C]
	and         w8,w8,#0x1F
	add         w8,w8,#0x60
	uxtb        w9,w8
	ldr         x8,[sp,#0x38]
	add         x8,x8,#0x2C
	strb        w9,[x8]

; 2960 :             }
; 2961 :             // the rest of this box is skipped by default ...
; 2962 :             break;

	b           |$LN11@MP4D_open|
|$LN125@MP4D_open|

; 2963 : 
; 2964 :         case BOX_hdlr:
; 2965 :             if (tr) // When this box is within 'meta' box, the track may not be avaialable

	ldr         x8,[sp,#0x38]
	cmp         x8,#0
	beq         |$LN126@MP4D_open|

; 2966 :             {
; 2967 :                 SKIP(4); // pre_defined

	ldr         x8,[sp,#0x18]
	cmp         x8,#4
	bhs         |$LN209@MP4D_open|
	ldr         x8,[sp,#0x18]
	str         x8,[sp,#0x158]
	b           |$LN210@MP4D_open|
|$LN209@MP4D_open|
	mov         x8,#4
	str         x8,[sp,#0x158]
|$LN210@MP4D_open|
	ldr         x8,[sp,#0x158]
	str         x8,[sp,#0x160]
	add         x2,sp,#0x10
	ldr         x1,[sp,#0x160]
	ldr         x0,[sp,#0x28]
	bl          |?my_fseek@@YAXPEAUMP4D_demux_tag@@_KPEAH@Z|
	ldr         x9,[sp,#0x18]
	ldr         x8,[sp,#0x160]
	sub         x8,x9,x8
	str         x8,[sp,#0x18]

; 2968 :                 tr->handler_type = READ(4);

	add         x3,sp,#0x10
	add         x2,sp,#0x18
	mov         w1,#4
	ldr         x0,[sp,#0x28]
	bl          |?read_payload@@YAIPEAUMP4D_demux_tag@@IPEA_KPEAH@Z|
	mov         w0,w0
	ldr         x8,[sp,#0x38]
	add         x8,x8,#0x18
	str         w0,[x8]
|$LN126@MP4D_open|

; 2969 :             }
; 2970 :             // typically hdlr box does not contain any useful info.
; 2971 :             // the rest of this box is skipped by default ...
; 2972 :             break;

	b           |$LN11@MP4D_open|
|$LN127@MP4D_open|

; 2973 : 
; 2974 :         case BOX_btrt:
; 2975 :             if (!tr)

	ldr         x8,[sp,#0x38]
	cmp         x8,#0
	bne         |$LN128@MP4D_open|

; 2976 :             {
; 2977 :                 ERROR("broken file structure!");

	ldr         w8,[sp,#0x30]
	cmp         w8,#0
	bne         |$LN129@MP4D_open|
	b           |$LN11@MP4D_open|
	b           |$LN130@MP4D_open|
|$LN129@MP4D_open|
	ldr         x0,[sp,#0x28]
	bl          MP4D_close
	mov         w0,#0
	b           |$LN1@MP4D_open|
|$LN130@MP4D_open|
|$LN128@MP4D_open|

; 2978 :             }
; 2979 : 
; 2980 :             SKIP(4 + 4);

	ldr         x8,[sp,#0x18]
	cmp         x8,#8
	bhs         |$LN211@MP4D_open|
	ldr         x8,[sp,#0x18]
	str         x8,[sp,#0x168]
	b           |$LN212@MP4D_open|
|$LN211@MP4D_open|
	mov         x8,#8
	str         x8,[sp,#0x168]
|$LN212@MP4D_open|
	ldr         x8,[sp,#0x168]
	str         x8,[sp,#0x170]
	add         x2,sp,#0x10
	ldr         x1,[sp,#0x170]
	ldr         x0,[sp,#0x28]
	bl          |?my_fseek@@YAXPEAUMP4D_demux_tag@@_KPEAH@Z|
	ldr         x9,[sp,#0x18]
	ldr         x8,[sp,#0x170]
	sub         x8,x9,x8
	str         x8,[sp,#0x18]

; 2981 :             tr->avg_bitrate_bps = READ(4);

	add         x3,sp,#0x10
	add         x2,sp,#0x18
	mov         w1,#4
	ldr         x0,[sp,#0x28]
	bl          |?read_payload@@YAIPEAUMP4D_demux_tag@@IPEA_KPEAH@Z|
	mov         w0,w0
	ldr         x8,[sp,#0x38]
	add         x8,x8,#0x28
	str         w0,[x8]

; 2982 :             break;

	b           |$LN11@MP4D_open|
|$LN131@MP4D_open|

; 2983 : 
; 2984 :             // Set pointer to tag to be read...
; 2985 :         case BOX_calb: ptag = &mp4->tag.album;   break;

	ldr         x8,[sp,#0x28]
	add         x8,x8,#0x38
	add         x8,x8,#0x10
	str         x8,[sp,#0x68]
	b           |$LN11@MP4D_open|
|$LN132@MP4D_open|

; 2986 :         case BOX_cART: ptag = &mp4->tag.artist;  break;

	ldr         x8,[sp,#0x28]
	add         x8,x8,#0x38
	add         x8,x8,#8
	str         x8,[sp,#0x68]
	b           |$LN11@MP4D_open|
|$LN133@MP4D_open|

; 2987 :         case BOX_cnam: ptag = &mp4->tag.title;   break;

	ldr         x8,[sp,#0x28]
	add         x8,x8,#0x38
	str         x8,[sp,#0x68]
	b           |$LN11@MP4D_open|
|$LN134@MP4D_open|

; 2988 :         case BOX_cday: ptag = &mp4->tag.year;    break;

	ldr         x8,[sp,#0x28]
	add         x8,x8,#0x38
	add         x8,x8,#0x18
	str         x8,[sp,#0x68]
	b           |$LN11@MP4D_open|
|$LN135@MP4D_open|

; 2989 :         case BOX_ccmt: ptag = &mp4->tag.comment; break;

	ldr         x8,[sp,#0x28]
	add         x8,x8,#0x38
	add         x8,x8,#0x20
	str         x8,[sp,#0x68]
	b           |$LN11@MP4D_open|
|$LN136@MP4D_open|

; 2990 :         case BOX_cgen: ptag = &mp4->tag.genre;   break;

	ldr         x8,[sp,#0x28]
	add         x8,x8,#0x38
	add         x8,x8,#0x28
	str         x8,[sp,#0x68]
	b           |$LN11@MP4D_open|
|$LN137@MP4D_open|

; 2991 : 
; 2992 : #endif
; 2993 : 
; 2994 :         case BOX_stsd:
; 2995 :             SKIP(4); // entry_count, BOX_mp4a & BOX_mp4v boxes follows immediately

	ldr         x8,[sp,#0x18]
	cmp         x8,#4
	bhs         |$LN213@MP4D_open|
	ldr         x8,[sp,#0x18]
	str         x8,[sp,#0x178]
	b           |$LN214@MP4D_open|
|$LN213@MP4D_open|
	mov         x8,#4
	str         x8,[sp,#0x178]
|$LN214@MP4D_open|
	ldr         x8,[sp,#0x178]
	str         x8,[sp,#0x180]
	add         x2,sp,#0x10
	ldr         x1,[sp,#0x180]
	ldr         x0,[sp,#0x28]
	bl          |?my_fseek@@YAXPEAUMP4D_demux_tag@@_KPEAH@Z|
	ldr         x9,[sp,#0x18]
	ldr         x8,[sp,#0x180]
	sub         x8,x9,x8
	str         x8,[sp,#0x18]

; 2996 :             break;

	b           |$LN11@MP4D_open|
|$LN138@MP4D_open|

; 2997 : 
; 2998 :         case BOX_mp4s:  // private stream
; 2999 :             if (!tr)

	ldr         x8,[sp,#0x38]
	cmp         x8,#0
	bne         |$LN139@MP4D_open|

; 3000 :             {
; 3001 :                 ERROR("broken file structure!");

	ldr         w8,[sp,#0x30]
	cmp         w8,#0
	bne         |$LN140@MP4D_open|
	b           |$LN11@MP4D_open|
	b           |$LN141@MP4D_open|
|$LN140@MP4D_open|
	ldr         x0,[sp,#0x28]
	bl          MP4D_close
	mov         w0,#0
	b           |$LN1@MP4D_open|
|$LN141@MP4D_open|
|$LN139@MP4D_open|

; 3002 :             }
; 3003 :             SKIP(6 * 1 + 2/*Base SampleEntry*/);

	ldr         x8,[sp,#0x18]
	cmp         x8,#8
	bhs         |$LN215@MP4D_open|
	ldr         x8,[sp,#0x18]
	str         x8,[sp,#0x188]
	b           |$LN216@MP4D_open|
|$LN215@MP4D_open|
	mov         x8,#8
	str         x8,[sp,#0x188]
|$LN216@MP4D_open|
	ldr         x8,[sp,#0x188]
	str         x8,[sp,#0x190]
	add         x2,sp,#0x10
	ldr         x1,[sp,#0x190]
	ldr         x0,[sp,#0x28]
	bl          |?my_fseek@@YAXPEAUMP4D_demux_tag@@_KPEAH@Z|
	ldr         x9,[sp,#0x18]
	ldr         x8,[sp,#0x190]
	sub         x8,x9,x8
	str         x8,[sp,#0x18]

; 3004 :             break;

	b           |$LN11@MP4D_open|
|$LN142@MP4D_open|

; 3005 : 
; 3006 :         case BOX_mp4a:
; 3007 :             if (!tr)

	ldr         x8,[sp,#0x38]
	cmp         x8,#0
	bne         |$LN143@MP4D_open|

; 3008 :             {
; 3009 :                 ERROR("broken file structure!");

	ldr         w8,[sp,#0x30]
	cmp         w8,#0
	bne         |$LN144@MP4D_open|
	b           |$LN11@MP4D_open|
	b           |$LN145@MP4D_open|
|$LN144@MP4D_open|
	ldr         x0,[sp,#0x28]
	bl          MP4D_close
	mov         w0,#0
	b           |$LN1@MP4D_open|
|$LN145@MP4D_open|
|$LN143@MP4D_open|

; 3010 :             }
; 3011 : #if MP4D_INFO_SUPPORTED
; 3012 :             SKIP(6 * 1 + 2/*Base SampleEntry*/ + 4 * 2);

	ldr         x8,[sp,#0x18]
	cmp         x8,#0x10
	bhs         |$LN217@MP4D_open|
	ldr         x8,[sp,#0x18]
	str         x8,[sp,#0x108]
	b           |$LN218@MP4D_open|
|$LN217@MP4D_open|
	mov         x8,#0x10
	str         x8,[sp,#0x108]
|$LN218@MP4D_open|
	ldr         x8,[sp,#0x108]
	str         x8,[sp,#0x1A0]
	add         x2,sp,#0x10
	ldr         x1,[sp,#0x1A0]
	ldr         x0,[sp,#0x28]
	bl          |?my_fseek@@YAXPEAUMP4D_demux_tag@@_KPEAH@Z|
	ldr         x9,[sp,#0x18]
	ldr         x8,[sp,#0x1A0]
	sub         x8,x9,x8
	str         x8,[sp,#0x18]

; 3013 :             tr->SampleDescription.audio.channelcount = READ(2);

	add         x3,sp,#0x10
	add         x2,sp,#0x18
	mov         w1,#2
	ldr         x0,[sp,#0x28]
	bl          |?read_payload@@YAIPEAUMP4D_demux_tag@@IPEA_KPEAH@Z|
	mov         w0,w0
	ldr         x8,[sp,#0x38]
	add         x8,x8,#0x34
	str         w0,[x8]

; 3014 :             SKIP(2/*samplesize*/ + 2 + 2);

	ldr         x8,[sp,#0x18]
	cmp         x8,#6
	bhs         |$LN219@MP4D_open|
	ldr         x8,[sp,#0x18]
	str         x8,[sp,#0x1A8]
	b           |$LN220@MP4D_open|
|$LN219@MP4D_open|
	mov         x8,#6
	str         x8,[sp,#0x1A8]
|$LN220@MP4D_open|
	ldr         x8,[sp,#0x1A8]
	str         x8,[sp,#0x1B0]
	add         x2,sp,#0x10
	ldr         x1,[sp,#0x1B0]
	ldr         x0,[sp,#0x28]
	bl          |?my_fseek@@YAXPEAUMP4D_demux_tag@@_KPEAH@Z|
	ldr         x9,[sp,#0x18]
	ldr         x8,[sp,#0x1B0]
	sub         x8,x9,x8
	str         x8,[sp,#0x18]

; 3015 :             tr->SampleDescription.audio.samplerate_hz = READ(4) >> 16;

	add         x3,sp,#0x10
	add         x2,sp,#0x18
	mov         w1,#4
	ldr         x0,[sp,#0x28]
	bl          |?read_payload@@YAIPEAUMP4D_demux_tag@@IPEA_KPEAH@Z|
	mov         w0,w0
	lsr         w9,w0,#0x10
	ldr         x8,[sp,#0x38]
	add         x8,x8,#0x34
	add         x8,x8,#4
	str         w9,[x8]

; 3016 : #else
; 3017 :             SKIP(28);
; 3018 : #endif
; 3019 :             break;

	b           |$LN11@MP4D_open|
|$LN146@MP4D_open|
|$LN147@MP4D_open|

; 3020 : 
; 3021 : #if MP4D_AVC_SUPPORTED
; 3022 :         case BOX_avc1:  // AVCSampleEntry extends VisualSampleEntry
; 3023 : //         case BOX_avc2:   - no test
; 3024 : //         case BOX_svc1:   - no test
; 3025 :         case BOX_mp4v:
; 3026 :             if (!tr)

	ldr         x8,[sp,#0x38]
	cmp         x8,#0
	bne         |$LN148@MP4D_open|

; 3027 :             {
; 3028 :                 ERROR("broken file structure!");

	ldr         w8,[sp,#0x30]
	cmp         w8,#0
	bne         |$LN149@MP4D_open|
	b           |$LN11@MP4D_open|
	b           |$LN150@MP4D_open|
|$LN149@MP4D_open|
	ldr         x0,[sp,#0x28]
	bl          MP4D_close
	mov         w0,#0
	b           |$LN1@MP4D_open|
|$LN150@MP4D_open|
|$LN148@MP4D_open|

; 3029 :             }
; 3030 : #if MP4D_INFO_SUPPORTED
; 3031 :             SKIP(6 * 1 + 2/*Base SampleEntry*/ + 2 + 2 + 4 * 3);

	ldr         x8,[sp,#0x18]
	cmp         x8,#0x18
	bhs         |$LN221@MP4D_open|
	ldr         x8,[sp,#0x18]
	str         x8,[sp,#0x1B8]
	b           |$LN222@MP4D_open|
|$LN221@MP4D_open|
	mov         x8,#0x18
	str         x8,[sp,#0x1B8]
|$LN222@MP4D_open|
	ldr         x8,[sp,#0x1B8]
	str         x8,[sp,#0x1C0]
	add         x2,sp,#0x10
	ldr         x1,[sp,#0x1C0]
	ldr         x0,[sp,#0x28]
	bl          |?my_fseek@@YAXPEAUMP4D_demux_tag@@_KPEAH@Z|
	ldr         x9,[sp,#0x18]
	ldr         x8,[sp,#0x1C0]
	sub         x8,x9,x8
	str         x8,[sp,#0x18]

; 3032 :             tr->SampleDescription.video.width = READ(2);

	add         x3,sp,#0x10
	add         x2,sp,#0x18
	mov         w1,#2
	ldr         x0,[sp,#0x28]
	bl          |?read_payload@@YAIPEAUMP4D_demux_tag@@IPEA_KPEAH@Z|
	mov         w0,w0
	ldr         x8,[sp,#0x38]
	add         x8,x8,#0x34
	str         w0,[x8]

; 3033 :             tr->SampleDescription.video.height = READ(2);

	add         x3,sp,#0x10
	add         x2,sp,#0x18
	mov         w1,#2
	ldr         x0,[sp,#0x28]
	bl          |?read_payload@@YAIPEAUMP4D_demux_tag@@IPEA_KPEAH@Z|
	mov         w0,w0
	ldr         x8,[sp,#0x38]
	add         x8,x8,#0x34
	add         x8,x8,#4
	str         w0,[x8]

; 3034 :             // frame_count is always 1
; 3035 :             // compressorname is rarely set..
; 3036 :             SKIP(4 + 4 + 4 + 2/*frame_count*/ + 32/*compressorname*/ + 2 + 2);

	ldr         x8,[sp,#0x18]
	cmp         x8,#0x32
	bhs         |$LN223@MP4D_open|
	ldr         x8,[sp,#0x18]
	str         x8,[sp,#0x1C8]
	b           |$LN224@MP4D_open|
|$LN223@MP4D_open|
	mov         x8,#0x32
	str         x8,[sp,#0x1C8]
|$LN224@MP4D_open|
	ldr         x8,[sp,#0x1C8]
	str         x8,[sp,#0x1D0]
	add         x2,sp,#0x10
	ldr         x1,[sp,#0x1D0]
	ldr         x0,[sp,#0x28]
	bl          |?my_fseek@@YAXPEAUMP4D_demux_tag@@_KPEAH@Z|
	ldr         x9,[sp,#0x18]
	ldr         x8,[sp,#0x1D0]
	sub         x8,x9,x8
	str         x8,[sp,#0x18]

; 3037 : #else
; 3038 :             SKIP(78);
; 3039 : #endif
; 3040 :             // ^^^ end of VisualSampleEntry
; 3041 :             // now follows for BOX_avc1:
; 3042 :             //      BOX_avcC
; 3043 :             //      BOX_btrt (optional)
; 3044 :             //      BOX_m4ds (optional)
; 3045 :             // for BOX_mp4v:
; 3046 :             //      BOX_esds
; 3047 :             break;

	b           |$LN11@MP4D_open|
|$LN151@MP4D_open|

; 3048 : 
; 3049 :         case BOX_avcC:  // AVCDecoderConfigurationRecord()
; 3050 :             // hack: AAC-specific DSI field reused (for it have same purpoose as sps/pps)
; 3051 :             // TODO: check this hack if BOX_esds co-exist with BOX_avcC
; 3052 :             tr->object_type_indication = MP4_OBJECT_TYPE_AVC;

	ldr         x8,[sp,#0x38]
	add         x9,x8,#0x14
	mov         w8,#0x21
	str         w8,[x9]

; 3053 :             tr->dsi = (unsigned char*)malloc((size_t)box_bytes);

	ldr         x8,[sp,#0x48]
	mov         w0,w8
	mov         w0,w0
	bl          malloc
	ldr         x8,[sp,#0x38]
	add         x8,x8,#8
	str         x0,[x8]

; 3054 :             tr->dsi_bytes = (unsigned)box_bytes;

	ldr         x8,[sp,#0x48]
	mov         w9,w8
	ldr         x8,[sp,#0x38]
	add         x8,x8,#0x10
	str         w9,[x8]

; 3055 :             {
; 3056 :                 int spspps;
; 3057 :                 unsigned char* p = tr->dsi;

	ldr         x8,[sp,#0x38]
	add         x8,x8,#8
	ldr         x8,[x8]
	str         x8,[sp,#0x70]

; 3058 :                 unsigned int configurationVersion = READ(1);

	add         x3,sp,#0x10
	add         x2,sp,#0x18
	mov         w1,#1
	ldr         x0,[sp,#0x28]
	bl          |?read_payload@@YAIPEAUMP4D_demux_tag@@IPEA_KPEAH@Z|
	mov         w0,w0
	str         w0,[sp,#0x214]

; 3059 :                 unsigned int AVCProfileIndication = READ(1);

	add         x3,sp,#0x10
	add         x2,sp,#0x18
	mov         w1,#1
	ldr         x0,[sp,#0x28]
	bl          |?read_payload@@YAIPEAUMP4D_demux_tag@@IPEA_KPEAH@Z|
	mov         w0,w0
	str         w0,[sp,#0x218]

; 3060 :                 unsigned int profile_compatibility = READ(1);

	add         x3,sp,#0x10
	add         x2,sp,#0x18
	mov         w1,#1
	ldr         x0,[sp,#0x28]
	bl          |?read_payload@@YAIPEAUMP4D_demux_tag@@IPEA_KPEAH@Z|
	mov         w0,w0
	str         w0,[sp,#0x21C]

; 3061 :                 unsigned int AVCLevelIndication = READ(1);

	add         x3,sp,#0x10
	add         x2,sp,#0x18
	mov         w1,#1
	ldr         x0,[sp,#0x28]
	bl          |?read_payload@@YAIPEAUMP4D_demux_tag@@IPEA_KPEAH@Z|
	mov         w0,w0
	str         w0,[sp,#0x224]

; 3062 :                 //bit(6) reserved =
; 3063 :                 unsigned int lengthSizeMinusOne = READ(1) & 3;

	add         x3,sp,#0x10
	add         x2,sp,#0x18
	mov         w1,#1
	ldr         x0,[sp,#0x28]
	bl          |?read_payload@@YAIPEAUMP4D_demux_tag@@IPEA_KPEAH@Z|
	mov         w0,w0
	and         w8,w0,#3
	str         w8,[sp,#0x220]

; 3064 : 
; 3065 :                 (void)configurationVersion;
; 3066 :                 (void)AVCProfileIndication;
; 3067 :                 (void)profile_compatibility;
; 3068 :                 (void)AVCLevelIndication;
; 3069 :                 (void)lengthSizeMinusOne;
; 3070 : 
; 3071 :                 for (spspps = 0; spspps < 2; spspps++)

	mov         w8,#0
	str         w8,[sp,#0x78]
	b           |$LN35@MP4D_open|
|$LN33@MP4D_open|
	ldr         w8,[sp,#0x78]
	add         w8,w8,#1
	str         w8,[sp,#0x78]
|$LN35@MP4D_open|
	ldr         w8,[sp,#0x78]
	cmp         w8,#2
	bge         |$LN34@MP4D_open|

; 3072 :                 {
; 3073 :                     unsigned int numOfSequenceParameterSets = READ(1);

	add         x3,sp,#0x10
	add         x2,sp,#0x18
	mov         w1,#1
	ldr         x0,[sp,#0x28]
	bl          |?read_payload@@YAIPEAUMP4D_demux_tag@@IPEA_KPEAH@Z|
	mov         w0,w0
	str         w0,[sp,#0x7C]

; 3074 :                     if (!spspps)

	ldr         w8,[sp,#0x78]
	cmp         w8,#0
	bne         |$LN152@MP4D_open|

; 3075 :                     {
; 3076 :                         numOfSequenceParameterSets &= 31;  // clears 3 msb for SPS

	ldr         w8,[sp,#0x7C]
	and         w8,w8,#0x1F
	str         w8,[sp,#0x7C]
|$LN152@MP4D_open|

; 3077 :                     }
; 3078 :                     *p++ = numOfSequenceParameterSets;

	ldr         w8,[sp,#0x7C]
	uxtb        w9,w8
	ldr         x8,[sp,#0x70]
	strb        w9,[x8]
	ldr         x8,[sp,#0x70]
	add         x8,x8,#1
	str         x8,[sp,#0x70]

; 3079 :                     for (i = 0; i < numOfSequenceParameterSets; i++)

	mov         w8,#0
	str         w8,[sp,#0x20]
	b           |$LN38@MP4D_open|
|$LN36@MP4D_open|
	ldr         w8,[sp,#0x20]
	add         w8,w8,#1
	str         w8,[sp,#0x20]
|$LN38@MP4D_open|
	ldr         w9,[sp,#0x7C]
	ldr         w8,[sp,#0x20]
	cmp         w8,w9
	bhs         |$LN37@MP4D_open|

; 3080 :                     {
; 3081 :                         unsigned k, sequenceParameterSetLength = READ(2);

	add         x3,sp,#0x10
	add         x2,sp,#0x18
	mov         w1,#2
	ldr         x0,[sp,#0x28]
	bl          |?read_payload@@YAIPEAUMP4D_demux_tag@@IPEA_KPEAH@Z|
	mov         w0,w0
	str         w0,[sp,#0x9C]

; 3082 :                         *p++ = sequenceParameterSetLength >> 8;

	ldr         w8,[sp,#0x9C]
	lsr         w8,w8,#8
	uxtb        w9,w8
	ldr         x8,[sp,#0x70]
	strb        w9,[x8]
	ldr         x8,[sp,#0x70]
	add         x8,x8,#1
	str         x8,[sp,#0x70]

; 3083 :                         *p++ = sequenceParameterSetLength;

	ldr         w8,[sp,#0x9C]
	uxtb        w9,w8
	ldr         x8,[sp,#0x70]
	strb        w9,[x8]
	ldr         x8,[sp,#0x70]
	add         x8,x8,#1
	str         x8,[sp,#0x70]

; 3084 :                         for (k = 0; k < sequenceParameterSetLength; k++)

	mov         w8,#0
	str         w8,[sp,#0x90]
	b           |$LN41@MP4D_open|
|$LN39@MP4D_open|
	ldr         w8,[sp,#0x90]
	add         w8,w8,#1
	str         w8,[sp,#0x90]
|$LN41@MP4D_open|
	ldr         w9,[sp,#0x9C]
	ldr         w8,[sp,#0x90]
	cmp         w8,w9
	bhs         |$LN40@MP4D_open|

; 3085 :                         {
; 3086 :                             *p++ = READ(1);

	add         x3,sp,#0x10
	add         x2,sp,#0x18
	mov         w1,#1
	ldr         x0,[sp,#0x28]
	bl          |?read_payload@@YAIPEAUMP4D_demux_tag@@IPEA_KPEAH@Z|
	mov         w0,w0
	uxtb        w9,w0
	ldr         x8,[sp,#0x70]
	strb        w9,[x8]
	ldr         x8,[sp,#0x70]
	add         x8,x8,#1
	str         x8,[sp,#0x70]

; 3087 :                         }

	b           |$LN39@MP4D_open|
|$LN40@MP4D_open|

; 3088 :                     }

	b           |$LN36@MP4D_open|
|$LN37@MP4D_open|

; 3089 :                 }

	b           |$LN33@MP4D_open|
|$LN34@MP4D_open|

; 3090 :             }
; 3091 :             break;

	b           |$LN11@MP4D_open|
|$LN153@MP4D_open|

; 3092 : #endif  // MP4D_AVC_SUPPORTED
; 3093 : 
; 3094 :         case OD_ESD:
; 3095 :         {
; 3096 :             unsigned flags = READ(3);   // ES_ID(2) + flags(1)

	add         x3,sp,#0x10
	add         x2,sp,#0x18
	mov         w1,#3
	ldr         x0,[sp,#0x28]
	bl          |?read_payload@@YAIPEAUMP4D_demux_tag@@IPEA_KPEAH@Z|
	mov         w0,w0
	str         w0,[sp,#0x8C]

; 3097 : 
; 3098 :             if (flags & 0x80)       // steamdependflag

	ldr         w8,[sp,#0x8C]
	tbz         x8,#7,|$LN154@MP4D_open|

; 3099 :             {
; 3100 :                 SKIP(2);            // dependsOnESID

	ldr         x8,[sp,#0x18]
	cmp         x8,#2
	bhs         |$LN225@MP4D_open|
	ldr         x8,[sp,#0x18]
	str         x8,[sp,#0x1D8]
	b           |$LN226@MP4D_open|
|$LN225@MP4D_open|
	mov         x8,#2
	str         x8,[sp,#0x1D8]
|$LN226@MP4D_open|
	ldr         x8,[sp,#0x1D8]
	str         x8,[sp,#0x1E0]
	add         x2,sp,#0x10
	ldr         x1,[sp,#0x1E0]
	ldr         x0,[sp,#0x28]
	bl          |?my_fseek@@YAXPEAUMP4D_demux_tag@@_KPEAH@Z|
	ldr         x9,[sp,#0x18]
	ldr         x8,[sp,#0x1E0]
	sub         x8,x9,x8
	str         x8,[sp,#0x18]
|$LN154@MP4D_open|

; 3101 :             }
; 3102 :             if (flags & 0x40)       // urlflag

	ldr         w8,[sp,#0x8C]
	tbz         x8,#6,|$LN155@MP4D_open|

; 3103 :             {
; 3104 :                 unsigned bytecount = READ(1);

	add         x3,sp,#0x10
	add         x2,sp,#0x18
	mov         w1,#1
	ldr         x0,[sp,#0x28]
	bl          |?read_payload@@YAIPEAUMP4D_demux_tag@@IPEA_KPEAH@Z|
	mov         w0,w0
	str         w0,[sp,#0xB8]

; 3105 :                 SKIP(bytecount);    // skip URL

	ldr         w8,[sp,#0xB8]
	uxtw        x9,w8
	ldr         x8,[sp,#0x18]
	cmp         x8,x9
	bhs         |$LN227@MP4D_open|
	ldr         x8,[sp,#0x18]
	str         x8,[sp,#0x1E8]
	b           |$LN228@MP4D_open|
|$LN227@MP4D_open|
	ldr         w8,[sp,#0xB8]
	uxtw        x8,w8
	str         x8,[sp,#0x1E8]
|$LN228@MP4D_open|
	ldr         x8,[sp,#0x1E8]
	str         x8,[sp,#0x1F0]
	add         x2,sp,#0x10
	ldr         x1,[sp,#0x1F0]
	ldr         x0,[sp,#0x28]
	bl          |?my_fseek@@YAXPEAUMP4D_demux_tag@@_KPEAH@Z|
	ldr         x9,[sp,#0x18]
	ldr         x8,[sp,#0x1F0]
	sub         x8,x9,x8
	str         x8,[sp,#0x18]
|$LN155@MP4D_open|

; 3106 :             }
; 3107 :             if (flags & 0x20)       // ocrflag (was reserved in MPEG-4 v.1)

	ldr         w8,[sp,#0x8C]
	tbz         x8,#5,|$LN156@MP4D_open|

; 3108 :             {
; 3109 :                 SKIP(2);            // OCRESID

	ldr         x8,[sp,#0x18]
	cmp         x8,#2
	bhs         |$LN229@MP4D_open|
	ldr         x8,[sp,#0x18]
	str         x8,[sp,#0x1F8]
	b           |$LN230@MP4D_open|
|$LN229@MP4D_open|
	mov         x8,#2
	str         x8,[sp,#0x1F8]
|$LN230@MP4D_open|
	ldr         x8,[sp,#0x1F8]
	str         x8,[sp,#0x200]
	add         x2,sp,#0x10
	ldr         x1,[sp,#0x200]
	ldr         x0,[sp,#0x28]
	bl          |?my_fseek@@YAXPEAUMP4D_demux_tag@@_KPEAH@Z|
	ldr         x9,[sp,#0x18]
	ldr         x8,[sp,#0x200]
	sub         x8,x9,x8
	str         x8,[sp,#0x18]
|$LN156@MP4D_open|

; 3110 :             }
; 3111 :             break;

	b           |$LN11@MP4D_open|
|$LN157@MP4D_open|

; 3112 :         }
; 3113 : 
; 3114 :         case OD_DCD:        //ISO/IEC 14496-1 Page 28. Section 8.6.5 - DecoderConfigDescriptor.
; 3115 :             assert(tr);     // ensured by g_fullbox[] check

	ldr         x8,[sp,#0x38]
	cmp         x8,#0
	bne         |$LN158@MP4D_open|
	bl          abort
|$LN158@MP4D_open|

; 3116 :             tr->object_type_indication = READ(1);

	add         x3,sp,#0x10
	add         x2,sp,#0x18
	mov         w1,#1
	ldr         x0,[sp,#0x28]
	bl          |?read_payload@@YAIPEAUMP4D_demux_tag@@IPEA_KPEAH@Z|
	mov         w0,w0
	ldr         x8,[sp,#0x38]
	add         x8,x8,#0x14
	str         w0,[x8]

; 3117 : #if MP4D_INFO_SUPPORTED
; 3118 :             tr->stream_type = READ(1) >> 2;

	add         x3,sp,#0x10
	add         x2,sp,#0x18
	mov         w1,#1
	ldr         x0,[sp,#0x28]
	bl          |?read_payload@@YAIPEAUMP4D_demux_tag@@IPEA_KPEAH@Z|
	mov         w0,w0
	lsr         w9,w0,#2
	ldr         x8,[sp,#0x38]
	add         x8,x8,#0x30
	str         w9,[x8]

; 3119 :             SKIP(3/*bufferSizeDB*/ + 4/*maxBitrate*/);

	ldr         x8,[sp,#0x18]
	cmp         x8,#7
	bhs         |$LN231@MP4D_open|
	ldr         x8,[sp,#0x18]
	str         x8,[sp,#0x208]
	b           |$LN232@MP4D_open|
|$LN231@MP4D_open|
	mov         x8,#7
	str         x8,[sp,#0x208]
|$LN232@MP4D_open|
	ldr         x8,[sp,#0x208]
	str         x8,[sp,#0xE0]
	add         x2,sp,#0x10
	ldr         x1,[sp,#0xE0]
	ldr         x0,[sp,#0x28]
	bl          |?my_fseek@@YAXPEAUMP4D_demux_tag@@_KPEAH@Z|
	ldr         x9,[sp,#0x18]
	ldr         x8,[sp,#0xE0]
	sub         x8,x9,x8
	str         x8,[sp,#0x18]

; 3120 :             tr->avg_bitrate_bps = READ(4);

	add         x3,sp,#0x10
	add         x2,sp,#0x18
	mov         w1,#4
	ldr         x0,[sp,#0x28]
	bl          |?read_payload@@YAIPEAUMP4D_demux_tag@@IPEA_KPEAH@Z|
	mov         w0,w0
	ldr         x8,[sp,#0x38]
	add         x8,x8,#0x28
	str         w0,[x8]

; 3121 : #else
; 3122 :             SKIP(1 + 3 + 4 + 4);
; 3123 : #endif
; 3124 :             break;

	b           |$LN11@MP4D_open|
|$LN159@MP4D_open|

; 3125 : 
; 3126 :         case OD_DSI:        //ISO/IEC 14496-1 Page 28. Section 8.6.5 - DecoderConfigDescriptor.
; 3127 :             assert(tr);     // ensured by g_fullbox[] check

	ldr         x8,[sp,#0x38]
	cmp         x8,#0
	bne         |$LN160@MP4D_open|
	bl          abort
|$LN160@MP4D_open|

; 3128 :             if (!tr->dsi && payload_bytes)

	ldr         x8,[sp,#0x38]
	add         x8,x8,#8
	ldr         x8,[x8]
	cmp         x8,#0
	bne         |$LN161@MP4D_open|
	ldr         x8,[sp,#0x18]
	cmp         x8,#0
	beq         |$LN161@MP4D_open|

; 3129 :             {
; 3130 :                 MALLOC(unsigned char*, tr->dsi, (int)payload_bytes);

	ldr         x8,[sp,#0x18]
	mov         w0,w8
	mov         w0,w0
	bl          malloc
	ldr         x8,[sp,#0x38]
	add         x8,x8,#8
	str         x0,[x8]
	ldr         x8,[sp,#0x38]
	add         x8,x8,#8
	ldr         x8,[x8]
	cmp         x8,#0
	bne         |$LN162@MP4D_open|
	ldr         w8,[sp,#0x30]
	cmp         w8,#0
	bne         |$LN163@MP4D_open|
	b           |$LN11@MP4D_open|
	b           |$LN164@MP4D_open|
|$LN163@MP4D_open|
	ldr         x0,[sp,#0x28]
	bl          MP4D_close
	mov         w0,#0
	b           |$LN1@MP4D_open|
|$LN164@MP4D_open|
|$LN162@MP4D_open|

; 3131 :                 for (i = 0; i < payload_bytes; i++)

	mov         w8,#0
	str         w8,[sp,#0x20]
	b           |$LN44@MP4D_open|
|$LN42@MP4D_open|
	ldr         w8,[sp,#0x20]
	add         w8,w8,#1
	str         w8,[sp,#0x20]
|$LN44@MP4D_open|
	ldr         w8,[sp,#0x20]
	uxtw        x9,w8
	ldr         x8,[sp,#0x18]
	cmp         x9,x8
	bhs         |$LN43@MP4D_open|

; 3132 :                 {
; 3133 :                     tr->dsi[i] = minimp4_read(mp4, 1, &eof_flag);    // These bytes available due to check above

	add         x2,sp,#0x10
	mov         w1,#1
	ldr         x0,[sp,#0x28]
	bl          |?minimp4_read@@YAIPEAUMP4D_demux_tag@@HPEAH@Z|
	mov         w0,w0
	uxtb        w11,w0
	ldr         x8,[sp,#0x38]
	add         x10,x8,#8
	ldr         w8,[sp,#0x20]
	uxtw        x9,w8
	mov         x8,#1
	mul         x9,x9,x8
	ldr         x8,[x10]
	add         x8,x8,x9
	strb        w11,[x8]

; 3134 :                 }

	b           |$LN42@MP4D_open|
|$LN43@MP4D_open|

; 3135 :                 tr->dsi_bytes = i;

	ldr         x8,[sp,#0x38]
	add         x9,x8,#0x10
	ldr         w8,[sp,#0x20]
	str         w8,[x9]

; 3136 :                 payload_bytes -= i;

	ldr         w8,[sp,#0x20]
	uxtw        x9,w8
	ldr         x8,[sp,#0x18]
	sub         x8,x8,x9
	str         x8,[sp,#0x18]
|$LN161@MP4D_open|
|$LN165@MP4D_open|
|$LN11@MP4D_open|

; 3137 :                 break;
; 3138 :             }
; 3139 : 
; 3140 :         default:
; 3141 :             TRACE(("[%c%c%c%c]  %d\n", box_name >> 24, box_name >> 16, box_name >> 8, box_name, (int)payload_bytes));
; 3142 :         }
; 3143 : 
; 3144 : #if MP4D_INFO_SUPPORTED
; 3145 :         // Read tag is tag pointer is set
; 3146 :         if (ptag && !*ptag && payload_bytes > 16)

	ldr         x8,[sp,#0x68]
	cmp         x8,#0
	beq         |$LN166@MP4D_open|
	ldr         x8,[sp,#0x68]
	ldr         x8,[x8]
	cmp         x8,#0
	bne         |$LN166@MP4D_open|
	ldr         x8,[sp,#0x18]
	cmp         x8,#0x10
	bls         |$LN166@MP4D_open|

; 3147 :         {
; 3148 : #if 0
; 3149 :             uint32_t size = READ(4);
; 3150 :             uint32_t data = READ(4);
; 3151 :             uint32_t class = READ(4);
; 3152 :             uint32_t x1 = READ(4);
; 3153 :             TRACE(("%2d  %2d %2d ", size, class, x1));
; 3154 : #else
; 3155 :             SKIP(4 + 4 + 4 + 4);

	ldr         x8,[sp,#0x18]
	cmp         x8,#0x10
	bhs         |$LN240@MP4D_open|
	ldr         x8,[sp,#0x18]
	str         x8,[sp,#0xE8]
	b           |$LN241@MP4D_open|
|$LN240@MP4D_open|
	mov         x8,#0x10
	str         x8,[sp,#0xE8]
|$LN241@MP4D_open|
	ldr         x8,[sp,#0xE8]
	str         x8,[sp,#0x198]
	add         x2,sp,#0x10
	ldr         x1,[sp,#0x198]
	ldr         x0,[sp,#0x28]
	bl          |?my_fseek@@YAXPEAUMP4D_demux_tag@@_KPEAH@Z|
	ldr         x9,[sp,#0x18]
	ldr         x8,[sp,#0x198]
	sub         x8,x9,x8
	str         x8,[sp,#0x18]

; 3156 : #endif
; 3157 :             MALLOC(unsigned char*, *ptag, (unsigned)payload_bytes + 1);

	ldr         x8,[sp,#0x18]
	mov         w8,w8
	add         w0,w8,#1
	mov         w0,w0
	bl          malloc
	ldr         x8,[sp,#0x68]
	str         x0,[x8]
	ldr         x8,[sp,#0x68]
	ldr         x8,[x8]
	cmp         x8,#0
	bne         |$LN167@MP4D_open|
	ldr         w8,[sp,#0x30]
	cmp         w8,#0
	bne         |$LN168@MP4D_open|
	b           |$LN3@MP4D_open|
	b           |$LN169@MP4D_open|
|$LN168@MP4D_open|
	ldr         x0,[sp,#0x28]
	bl          MP4D_close
	mov         w0,#0
	b           |$LN1@MP4D_open|
|$LN169@MP4D_open|
|$LN167@MP4D_open|

; 3158 :             for (i = 0; payload_bytes != 0; i++)

	mov         w8,#0
	str         w8,[sp,#0x20]
	b           |$LN47@MP4D_open|
|$LN45@MP4D_open|
	ldr         w8,[sp,#0x20]
	add         w8,w8,#1
	str         w8,[sp,#0x20]
|$LN47@MP4D_open|
	ldr         x8,[sp,#0x18]
	cmp         x8,#0
	beq         |$LN46@MP4D_open|

; 3159 :             {
; 3160 :                 (*ptag)[i] = READ(1);

	add         x3,sp,#0x10
	add         x2,sp,#0x18
	mov         w1,#1
	ldr         x0,[sp,#0x28]
	bl          |?read_payload@@YAIPEAUMP4D_demux_tag@@IPEA_KPEAH@Z|
	mov         w0,w0
	uxtb        w10,w0
	ldr         w8,[sp,#0x20]
	uxtw        x9,w8
	mov         x8,#1
	mul         x9,x9,x8
	ldr         x8,[sp,#0x68]
	ldr         x8,[x8]
	add         x8,x8,x9
	strb        w10,[x8]

; 3161 :             }

	b           |$LN45@MP4D_open|
|$LN46@MP4D_open|

; 3162 :             (*ptag)[i] = 0; // zero-terminated string

	ldr         w8,[sp,#0x20]
	uxtw        x9,w8
	mov         x8,#1
	mul         x9,x9,x8
	ldr         x8,[sp,#0x68]
	ldr         x8,[x8]
	add         x9,x8,x9
	mov         w8,#0
	strb        w8,[x9]
|$LN166@MP4D_open|

; 3163 :         }
; 3164 : #endif
; 3165 : 
; 3166 :         if (box_name == BOX_trak)

	ldr         w9,|$LN272@MP4D_open|
	ldr         w8,[sp,#0x54]
	cmp         w8,w9
	bne         |$LN170@MP4D_open|

; 3167 :         {
; 3168 :             // New track found: allocate memory using realloc()
; 3169 :             // Typically there are 1 audio track for AAC audio file,
; 3170 :             // 4 tracks for movie file,
; 3171 :             // 3-5 tracks for scalable audio (CELP+AAC)
; 3172 :             // and up to 50 tracks for BSAC scalable audio
; 3173 :             void* mem = realloc(mp4->track, (mp4->track_count + 1) * sizeof(MP4D_track_t));

	ldr         x8,[sp,#0x28]
	add         x8,x8,#0x28
	ldr         w8,[x8]
	add         w8,w8,#1
	uxtw        x9,w8
	mov         x8,#0x78
	mul         x8,x9,x8
	mov         w1,w8
	ldr         x8,[sp,#0x28]
	add         x8,x8,#0x10
	mov         w1,w1
	ldr         x0,[x8]
	bl          realloc
	str         x0,[sp,#0xF0]

; 3174 :             if (!mem)

	ldr         x8,[sp,#0xF0]
	cmp         x8,#0
	bne         |$LN172@MP4D_open|

; 3175 :             {
; 3176 :                 // if realloc fails, it does not deallocate old pointer!
; 3177 :                 ERROR("out of memory");

	ldr         w8,[sp,#0x30]
	cmp         w8,#0
	bne         |$LN173@MP4D_open|
	b           |$LN3@MP4D_open|
	b           |$LN174@MP4D_open|
|$LN173@MP4D_open|
	ldr         x0,[sp,#0x28]
	bl          MP4D_close
	mov         w0,#0
	b           |$LN1@MP4D_open|
|$LN174@MP4D_open|
|$LN172@MP4D_open|

; 3178 :             }
; 3179 :             mp4->track = (MP4D_track_t*)mem;

	ldr         x8,[sp,#0x28]
	add         x9,x8,#0x10
	ldr         x8,[sp,#0xF0]
	str         x8,[x9]

; 3180 :             tr = mp4->track + mp4->track_count++;

	ldr         x8,[sp,#0x28]
	add         x10,x8,#0x10
	ldr         x8,[sp,#0x28]
	add         x8,x8,#0x28
	ldr         w8,[x8]
	uxtw        x9,w8
	mov         x8,#0x78
	mul         x9,x9,x8
	ldr         x8,[x10]
	add         x8,x8,x9
	str         x8,[sp,#0x38]
	ldr         x8,[sp,#0x28]
	add         x8,x8,#0x28
	ldr         w8,[x8]
	add         w9,w8,#1
	ldr         x8,[sp,#0x28]
	add         x8,x8,#0x28
	str         w9,[x8]

; 3181 :             memset(tr, 0, sizeof(MP4D_track_t));

	mov         x2,#0x78
	mov         w1,#0
	ldr         x0,[sp,#0x38]
	bl          memset

; 3182 :         }

	b           |$LN171@MP4D_open|
|$LN170@MP4D_open|

; 3183 :         else if (box_name == BOX_meta)

	ldr         w9,|$LN244@MP4D_open|
	ldr         w8,[sp,#0x54]
	cmp         w8,w9
	bne         |$LN175@MP4D_open|

; 3184 :         {
; 3185 :             tr = NULL;  // Avoid update of 'hdlr' box, which may contains in the 'meta' box

	mov         x8,#0
	str         x8,[sp,#0x38]
|$LN175@MP4D_open|
|$LN171@MP4D_open|

; 3186 :         }
; 3187 : 
; 3188 :         // If this box is envelope, save it's size in box stack
; 3189 :         for (i = 0; i < NELEM(g_envelope_box); i++)

	mov         w8,#0
	str         w8,[sp,#0x20]
	b           |$LN50@MP4D_open|
|$LN48@MP4D_open|
	ldr         w8,[sp,#0x20]
	add         w8,w8,#1
	str         w8,[sp,#0x20]
|$LN50@MP4D_open|
	ldr         w8,[sp,#0x20]
	uxtw        x8,w8
	cmp         x8,#0x14
	bhs         |$LN49@MP4D_open|

; 3190 :         {
; 3191 :             if (box_name == g_envelope_box[i].name)

	ldr         w8,[sp,#0x20]
	uxtw        x9,w8
	mov         x8,#8
	mul         x9,x9,x8
	adrp        x8,|?g_envelope_box@?6??MP4D_open@@9@4QBU<unnamed-type-g_envelope_box>@?6??1@YAHPEAUMP4D_demux_tag@@P6AH_JPEAX_K2@Z21@Z@B|
	add         x8,x8,PageOffset(|?g_envelope_box@?6??MP4D_open@@9@4QBU<unnamed-type-g_envelope_box>@?6??1@YAHPEAUMP4D_demux_tag@@P6AH_JPEAX_K2@Z21@Z@B|)
	add         x8,x8,x9
	ldr         w9,[x8]
	ldr         w8,[sp,#0x54]
	cmp         w8,w9
	bne         |$LN176@MP4D_open|

; 3192 :             {
; 3193 :                 if (++depth >= MAX_CHUNKS_DEPTH)

	ldr         w8,[sp,#0x30]
	add         w8,w8,#1
	str         w8,[sp,#0x30]
	ldr         w8,[sp,#0x30]
	cmp         w8,#0x40
	blt         |$LN177@MP4D_open|

; 3194 :                 {
; 3195 :                     ERROR("too deep atoms nesting!");

	ldr         w8,[sp,#0x30]
	cmp         w8,#0
	bne         |$LN178@MP4D_open|
	b           |$LN49@MP4D_open|
	b           |$LN179@MP4D_open|
|$LN178@MP4D_open|
	ldr         x0,[sp,#0x28]
	bl          MP4D_close
	mov         w0,#0
	b           |$LN1@MP4D_open|
|$LN179@MP4D_open|
|$LN177@MP4D_open|

; 3196 :                 }
; 3197 :                 stack[depth].bytes = payload_bytes;

	ldr         w8,[sp,#0x30]
	sxtw        x9,w8
	mov         x8,#0x10
	mul         x9,x9,x8
	add         x8,sp,#0x238
	add         x9,x8,x9
	ldr         x8,[sp,#0x18]
	str         x8,[x9]

; 3198 :                 stack[depth].format = g_envelope_box[i].type;

	ldr         w8,[sp,#0x20]
	uxtw        x9,w8
	mov         x8,#8
	mul         x9,x9,x8
	adrp        x8,|?g_envelope_box@?6??MP4D_open@@9@4QBU<unnamed-type-g_envelope_box>@?6??1@YAHPEAUMP4D_demux_tag@@P6AH_JPEAX_K2@Z21@Z@B|
	add         x8,x8,PageOffset(|?g_envelope_box@?6??MP4D_open@@9@4QBU<unnamed-type-g_envelope_box>@?6??1@YAHPEAUMP4D_demux_tag@@P6AH_JPEAX_K2@Z21@Z@B|)
	add         x8,x8,x9
	add         x10,x8,#4
	ldr         w8,[sp,#0x30]
	sxtw        x9,w8
	mov         x8,#0x10
	mul         x9,x9,x8
	add         x8,sp,#0x238
	add         x8,x8,x9
	add         x9,x8,#8
	ldr         w8,[x10]
	str         w8,[x9]

; 3199 :                 break;

	b           |$LN49@MP4D_open|
|$LN176@MP4D_open|

; 3200 :             }
; 3201 :         }

	b           |$LN48@MP4D_open|
|$LN49@MP4D_open|

; 3202 : 
; 3203 :         // if box is not envelope, just skip it
; 3204 :         if (i == NELEM(g_envelope_box))

	ldr         w8,[sp,#0x20]
	uxtw        x8,w8
	cmp         x8,#0x14
	bne         |$LN180@MP4D_open|

; 3205 :         {
; 3206 :             if (payload_bytes > file_size)

	ldr         x9,[sp,#0xF8]
	ldr         x8,[sp,#0x18]
	cmp         x8,x9
	bls         |$LN181@MP4D_open|

; 3207 :             {
; 3208 :                 eof_flag = 1;

	mov         w8,#1
	str         w8,[sp,#0x10]

; 3209 :             }

	b           |$LN182@MP4D_open|
|$LN181@MP4D_open|

; 3210 :             else
; 3211 :             {
; 3212 :                 SKIP(payload_bytes);

	ldr         x9,[sp,#0x18]
	ldr         x8,[sp,#0x18]
	cmp         x8,x9
	bhs         |$LN242@MP4D_open|
	ldr         x8,[sp,#0x18]
	str         x8,[sp,#0x100]
	b           |$LN243@MP4D_open|
|$LN242@MP4D_open|
	ldr         x8,[sp,#0x18]
	str         x8,[sp,#0x100]
|$LN243@MP4D_open|
	ldr         x8,[sp,#0x100]
	str         x8,[sp,#0x138]
	add         x2,sp,#0x10
	ldr         x1,[sp,#0x138]
	ldr         x0,[sp,#0x28]
	bl          |?my_fseek@@YAXPEAUMP4D_demux_tag@@_KPEAH@Z|
	ldr         x9,[sp,#0x18]
	ldr         x8,[sp,#0x138]
	sub         x8,x9,x8
	str         x8,[sp,#0x18]
|$LN182@MP4D_open|
|$LN180@MP4D_open|
|$LN51@MP4D_open|

; 3213 :             }
; 3214 :         }
; 3215 : 
; 3216 :         // remove empty boxes from stack
; 3217 :         // don't touch box with index 0 (which indicates whole file)
; 3218 :         while (depth > 0 && !stack[depth].bytes)

	ldr         w8,[sp,#0x30]
	cmp         w8,#0
	ble         |$LN52@MP4D_open|
	ldr         w8,[sp,#0x30]
	sxtw        x9,w8
	mov         x8,#0x10
	mul         x9,x9,x8
	add         x8,sp,#0x238
	add         x8,x8,x9
	ldr         x8,[x8]
	cmp         x8,#0
	bne         |$LN52@MP4D_open|

; 3219 :         {
; 3220 :             depth--;

	ldr         w8,[sp,#0x30]
	sub         w8,w8,#1
	str         w8,[sp,#0x30]

; 3221 :         }

	b           |$LN51@MP4D_open|
|$LN52@MP4D_open|

; 3222 : 
; 3223 :     } while (!eof_flag);

	ldr         w8,[sp,#0x10]
	cmp         w8,#0
	beq         |$LN4@MP4D_open|
|$LN3@MP4D_open|

; 3224 : 
; 3225 :     if (!mp4->track_count)

	ldr         x8,[sp,#0x28]
	add         x8,x8,#0x28
	ldr         w8,[x8]
	cmp         w8,#0
	bne         |$LN183@MP4D_open|

; 3226 :     {
; 3227 :         RETURN_ERROR("no tracks found");

	ldr         x0,[sp,#0x28]
	bl          MP4D_close
	mov         w0,#0
	b           |$LN1@MP4D_open|
|$LN183@MP4D_open|

; 3228 :     }
; 3229 :     return 1;

	mov         w0,#1
|$LN1@MP4D_open|
	ldp         fp,lr,[sp]
	add         sp,sp,#0x640
	ldr         x19,[sp],#0x10
	ret
	nop
|$LN244@MP4D_open|
	DCD         0x6d657461
|$LN245@MP4D_open|
	DCD         0x24242430
|$LN246@MP4D_open|
	DCD         0x6d766864
|$LN247@MP4D_open|
	DCD         0x636f3634
|$LN248@MP4D_open|
	DCD         0x61766331
|$LN249@MP4D_open|
	DCD         0x24242433
|$LN250@MP4D_open|
	DCD         0x24242434
|$LN251@MP4D_open|
	DCD         0x24242435
|$LN252@MP4D_open|
	DCD         0x61766343
|$LN253@MP4D_open|
	DCD         0x62747274
|$LN254@MP4D_open|
	DCD         0x6d703461
|$LN255@MP4D_open|
	DCD         0x63747473
|$LN256@MP4D_open|
	DCD         0x68646c72
|$LN257@MP4D_open|
	DCD         0x6d646864
|$LN258@MP4D_open|
	DCD         0x6d703473
|$LN259@MP4D_open|
	DCD         0x6d703476
|$LN260@MP4D_open|
	DCD         0xa9415254
|$LN261@MP4D_open|
	DCD         0x7374737a
|$LN262@MP4D_open|
	DCD         0x7374636f
|$LN263@MP4D_open|
	DCD         0x73747363
|$LN264@MP4D_open|
	DCD         0x73747364
|$LN265@MP4D_open|
	DCD         0x73747473
|$LN266@MP4D_open|
	DCD         0x73747a32
|$LN267@MP4D_open|
	DCD         0xa9646179
|$LN268@MP4D_open|
	DCD         0xa9616c62
|$LN269@MP4D_open|
	DCD         0xa9636d74
|$LN270@MP4D_open|
	DCD         0xa967656e
|$LN271@MP4D_open|
	DCD         0xa96e616d
|$LN272@MP4D_open|
	DCD         0x7472616b

	ENDP  ; |MP4D_open|

; Function compile flags: /Odtp
; File C:\Users\paras\source\repos\grep-name\XenevaOS\Process\AudioPlayer\minimp4.h

	AREA	|.text$mn|, CODE, ARM64

|mp4_h26x_write_nal| PROC

; 2343 : {

|$LN27|
	stp         fp,lr,[sp,#-0x80]!
	mov         fp,sp
	str         x0,[sp,#0x18]
	str         x1,[sp,#0x28]
	str         w2,[sp,#0x50]
	str         w3,[sp,#0x4C]

; 2344 :     const unsigned char* eof = nal + length;

	ldr         w8,[sp,#0x50]
	sxtw        x9,w8
	ldr         x8,[sp,#0x28]
	add         x8,x8,x9
	str         x8,[sp,#0x58]

; 2345 :     int payload_type, sizeof_nal, err = MP4E_STATUS_OK;

	mov         w8,#0
	str         w8,[sp,#0x3C]
	b           |$LN4@mp4_h26x_w|
|$LN2@mp4_h26x_w|

; 2346 :     for (;; nal++)

	ldr         x8,[sp,#0x28]
	add         x8,x8,#1
	str         x8,[sp,#0x28]
|$LN4@mp4_h26x_w|

; 2347 :     {
; 2348 : #if MINIMP4_TRANSCODE_SPS_ID
; 2349 :         unsigned char* nal1, * nal2;
; 2350 : #endif
; 2351 :         nal = find_nal_unit(nal, (int)(eof - nal), &sizeof_nal);

	ldr         x9,[sp,#0x58]
	ldr         x8,[sp,#0x28]
	sub         x8,x9,x8
	mov         w1,w8
	add         x2,sp,#0x10
	mov         w1,w1
	ldr         x0,[sp,#0x28]
	bl          |?find_nal_unit@@YAPEBEPEBEHPEAH@Z|
	str         x0,[sp,#0x28]

; 2352 :         if (!sizeof_nal)

	ldr         w8,[sp,#0x10]
	cmp         w8,#0
	bne         |$LN7@mp4_h26x_w|

; 2353 :             break;

	b           |$LN3@mp4_h26x_w|
|$LN7@mp4_h26x_w|

; 2354 :         if (h->is_hevc)

	ldr         x9,[sp,#0x18]
	mov         x8,#0x120C
	add         x8,x9,x8
	ldr         w8,[x8]
	cmp         w8,#0
	beq         |$LN8@mp4_h26x_w|

; 2355 :         {
; 2356 :             ERR(mp4_h265_write_nal(h, nal, sizeof_nal, timeStamp90kHz_next));

	ldr         w3,[sp,#0x4C]
	ldr         w2,[sp,#0x10]
	ldr         x1,[sp,#0x28]
	ldr         x0,[sp,#0x18]
	bl          |?mp4_h265_write_nal@@YAHPEAUmp4_h26x_writer_tag@@PEBEHI@Z|
	mov         w0,w0
	str         w0,[sp,#0x48]
	ldr         w8,[sp,#0x48]
	cmp         w8,#0
	beq         |$LN9@mp4_h26x_w|
	ldr         w0,[sp,#0x48]
	b           |$LN1@mp4_h26x_w|
|$LN9@mp4_h26x_w|

; 2357 :             continue;

	b           |$LN2@mp4_h26x_w|
|$LN8@mp4_h26x_w|

; 2358 :         }
; 2359 :         payload_type = nal[0] & 31;

	ldr         x8,[sp,#0x28]
	ldrb        w8,[x8]
	mov         w8,w8
	and         w8,w8,#0x1F
	str         w8,[sp,#0x34]

; 2360 :         if (9 == payload_type)

	ldr         w9,[sp,#0x34]
	mov         w8,#9
	cmp         w8,w9
	bne         |$LN10@mp4_h26x_w|

; 2361 :             continue;  // access unit delimiter, nothing to be done

	b           |$LN2@mp4_h26x_w|
|$LN10@mp4_h26x_w|

; 2362 : #if MINIMP4_TRANSCODE_SPS_ID
; 2363 :         // Transcode SPS, PPS and slice headers, reassigning ID's for SPS and  PPS:
; 2364 :         // - assign unique ID's to different SPS and PPS
; 2365 :         // - assign same ID's to equal (except ID) SPS and PPS
; 2366 :         // - save all different SPS and PPS
; 2367 :         nal1 = (unsigned char*)malloc(sizeof_nal * 17 / 16 + 32);

	ldr         w9,[sp,#0x10]
	mov         w8,#0x11
	mul         w9,w9,w8
	mov         w8,#0x10
	sdiv        w8,w9,w8
	add         w0,w8,#0x20
	mov         w0,w0
	bl          malloc
	str         x0,[sp,#0x40]

; 2368 :         if (!nal1)

	ldr         x8,[sp,#0x40]
	cmp         x8,#0
	bne         |$LN11@mp4_h26x_w|

; 2369 :             return MP4E_STATUS_NO_MEMORY;

	mov         w0,#-2
	b           |$LN1@mp4_h26x_w|
|$LN11@mp4_h26x_w|

; 2370 :         nal2 = (unsigned char*)malloc(sizeof_nal * 17 / 16 + 32);

	ldr         w9,[sp,#0x10]
	mov         w8,#0x11
	mul         w9,w9,w8
	mov         w8,#0x10
	sdiv        w8,w9,w8
	add         w0,w8,#0x20
	mov         w0,w0
	bl          malloc
	str         x0,[sp,#0x20]

; 2371 :         if (!nal2)

	ldr         x8,[sp,#0x20]
	cmp         x8,#0
	bne         |$LN12@mp4_h26x_w|

; 2372 :         {
; 2373 :             free(nal1);

	ldr         x0,[sp,#0x40]
	bl          free

; 2374 :             return MP4E_STATUS_NO_MEMORY;

	mov         w0,#-2
	b           |$LN1@mp4_h26x_w|
|$LN12@mp4_h26x_w|

; 2375 :         }
; 2376 :         sizeof_nal = remove_nal_escapes(nal2, nal, sizeof_nal);

	ldr         w2,[sp,#0x10]
	ldr         x1,[sp,#0x28]
	ldr         x0,[sp,#0x20]
	bl          |?remove_nal_escapes@@YAHPEAEPEBEH@Z|
	mov         w0,w0
	str         w0,[sp,#0x10]

; 2377 :         if (!sizeof_nal)

	ldr         w8,[sp,#0x10]
	cmp         w8,#0
	bne         |$LN13@mp4_h26x_w|
|$exit_with_free$28|

; 2378 :         {
; 2379 :         exit_with_free:
; 2380 :             free(nal1);

	ldr         x0,[sp,#0x40]
	bl          free

; 2381 :             free(nal2);

	ldr         x0,[sp,#0x20]
	bl          free

; 2382 :             return MP4E_STATUS_BAD_ARGUMENTS;

	mov         w0,#-1
	b           |$LN1@mp4_h26x_w|
|$LN13@mp4_h26x_w|

; 2383 :         }
; 2384 : 
; 2385 :         sizeof_nal = transcode_nalu(&h->sps_patcher, nal2, sizeof_nal, nal1);

	ldr         x0,[sp,#0x18]
	ldr         x3,[sp,#0x40]
	ldr         w2,[sp,#0x10]
	ldr         x1,[sp,#0x20]
	bl          |?transcode_nalu@@YAHPEAUh264_sps_id_patcher_t@@PEBEHPEAE@Z|
	mov         w0,w0
	str         w0,[sp,#0x10]

; 2386 :         sizeof_nal = nal_put_esc(nal2, nal1, sizeof_nal);

	ldr         w2,[sp,#0x10]
	ldr         x1,[sp,#0x40]
	ldr         x0,[sp,#0x20]
	bl          |?nal_put_esc@@YAHPEAEPEBEH@Z|
	mov         w0,w0
	str         w0,[sp,#0x10]

; 2387 : 
; 2388 :         switch (payload_type) {

	ldr         w8,[sp,#0x34]
	str         w8,[sp,#0x30]
	ldr         w8,[sp,#0x30]
	cmp         w8,#5
	beq         |$LN17@mp4_h26x_w|
	ldr         w8,[sp,#0x30]
	cmp         w8,#7
	beq         |$LN14@mp4_h26x_w|
	ldr         w8,[sp,#0x30]
	cmp         w8,#8
	beq         |$LN15@mp4_h26x_w|
	b           |$LN19@mp4_h26x_w|
|$LN14@mp4_h26x_w|

; 2389 :         case 7:
; 2390 :             MP4E_set_sps(h->mux, h->mux_track_id, nal2 + 4, sizeof_nal - 4);

	ldr         w8,[sp,#0x10]
	sub         w3,w8,#4
	ldr         x8,[sp,#0x20]
	add         x2,x8,#4
	ldr         x9,[sp,#0x18]
	mov         x8,#0x1208
	add         x10,x9,x8
	ldr         x9,[sp,#0x18]
	mov         x8,#0x1200
	add         x8,x9,x8
	mov         w3,w3
	ldr         w1,[x10]
	ldr         x0,[x8]
	bl          MP4E_set_sps

; 2391 :             h->need_sps = 0;

	ldr         x9,[sp,#0x18]
	mov         x8,#0x1214
	add         x9,x9,x8
	mov         w8,#0
	str         w8,[x9]

; 2392 :             break;

	b           |$LN5@mp4_h26x_w|
|$LN15@mp4_h26x_w|

; 2393 :         case 8:
; 2394 :             if (h->need_sps)

	ldr         x9,[sp,#0x18]
	mov         x8,#0x1214
	add         x8,x9,x8
	ldr         w8,[x8]
	cmp         w8,#0
	beq         |$LN16@mp4_h26x_w|

; 2395 :                 goto exit_with_free;

	b           |$exit_with_free$28|
|$LN16@mp4_h26x_w|

; 2396 :             MP4E_set_pps(h->mux, h->mux_track_id, nal2 + 4, sizeof_nal - 4);

	ldr         w8,[sp,#0x10]
	sub         w3,w8,#4
	ldr         x8,[sp,#0x20]
	add         x2,x8,#4
	ldr         x9,[sp,#0x18]
	mov         x8,#0x1208
	add         x10,x9,x8
	ldr         x9,[sp,#0x18]
	mov         x8,#0x1200
	add         x8,x9,x8
	mov         w3,w3
	ldr         w1,[x10]
	ldr         x0,[x8]
	bl          MP4E_set_pps

; 2397 :             h->need_pps = 0;

	ldr         x9,[sp,#0x18]
	mov         x8,#0x1218
	add         x9,x9,x8
	mov         w8,#0
	str         w8,[x9]

; 2398 :             break;

	b           |$LN5@mp4_h26x_w|
|$LN17@mp4_h26x_w|

; 2399 :         case 5:
; 2400 :             if (h->need_sps)

	ldr         x9,[sp,#0x18]
	mov         x8,#0x1214
	add         x8,x9,x8
	ldr         w8,[x8]
	cmp         w8,#0
	beq         |$LN18@mp4_h26x_w|

; 2401 :                 goto exit_with_free;

	b           |$exit_with_free$28|
|$LN18@mp4_h26x_w|

; 2402 :             h->need_idr = 0;

	ldr         x9,[sp,#0x18]
	mov         x8,#0x121C
	add         x9,x9,x8
	mov         w8,#0
	str         w8,[x9]
|$LN19@mp4_h26x_w|

; 2403 :             // flow through
; 2404 :         default:
; 2405 :             if (h->need_sps)

	ldr         x9,[sp,#0x18]
	mov         x8,#0x1214
	add         x8,x9,x8
	ldr         w8,[x8]
	cmp         w8,#0
	beq         |$LN20@mp4_h26x_w|

; 2406 :                 goto exit_with_free;

	b           |$exit_with_free$28|
|$LN20@mp4_h26x_w|

; 2407 :             if (!h->need_pps && !h->need_idr)

	ldr         x9,[sp,#0x18]
	mov         x8,#0x1218
	add         x8,x9,x8
	ldr         w8,[x8]
	cmp         w8,#0
	bne         |$LN21@mp4_h26x_w|
	ldr         x9,[sp,#0x18]
	mov         x8,#0x121C
	add         x8,x9,x8
	ldr         w8,[x8]
	cmp         w8,#0
	bne         |$LN21@mp4_h26x_w|

; 2408 :             {
; 2409 :                 bit_reader_t bs[1];
; 2410 :                 init_bits(bs, nal + 1, sizeof_nal - 4 - 1);

	ldr         w8,[sp,#0x10]
	sub         w8,w8,#4
	sub         w2,w8,#1
	ldr         x8,[sp,#0x28]
	add         x1,x8,#1
	mov         w2,w2
	add         x0,sp,#0x60
	bl          |?init_bits@@YAXPEAUbit_reader_t@@PEBXI@Z|

; 2411 :                 unsigned first_mb_in_slice = ue_bits(bs);

	add         x0,sp,#0x60
	bl          |?ue_bits@@YAHPEAUbit_reader_t@@@Z|
	mov         w0,w0
	str         w0,[sp,#0x54]

; 2412 :                 //unsigned slice_type = ue_bits(bs);
; 2413 :                 int sample_kind = MP4E_SAMPLE_DEFAULT;

	mov         w8,#0
	str         w8,[sp,#0x38]

; 2414 :                 nal2[0] = (unsigned char)((sizeof_nal - 4) >> 24);

	ldr         w8,[sp,#0x10]
	sub         w8,w8,#4
	asr         w8,w8,#0x18
	uxtb        w9,w8
	ldr         x8,[sp,#0x20]
	strb        w9,[x8]

; 2415 :                 nal2[1] = (unsigned char)((sizeof_nal - 4) >> 16);

	ldr         w8,[sp,#0x10]
	sub         w8,w8,#4
	asr         w8,w8,#0x10
	uxtb        w9,w8
	ldr         x8,[sp,#0x20]
	add         x8,x8,#1
	strb        w9,[x8]

; 2416 :                 nal2[2] = (unsigned char)((sizeof_nal - 4) >> 8);

	ldr         w8,[sp,#0x10]
	sub         w8,w8,#4
	asr         w8,w8,#8
	uxtb        w9,w8
	ldr         x8,[sp,#0x20]
	add         x8,x8,#2
	strb        w9,[x8]

; 2417 :                 nal2[3] = (unsigned char)((sizeof_nal - 4));

	ldr         w8,[sp,#0x10]
	sub         w8,w8,#4
	uxtb        w9,w8
	ldr         x8,[sp,#0x20]
	add         x8,x8,#3
	strb        w9,[x8]

; 2418 :                 if (first_mb_in_slice)

	ldr         w8,[sp,#0x54]
	cmp         w8,#0
	beq         |$LN22@mp4_h26x_w|

; 2419 :                     sample_kind = MP4E_SAMPLE_CONTINUATION;

	mov         w8,#2
	str         w8,[sp,#0x38]
	b           |$LN23@mp4_h26x_w|
|$LN22@mp4_h26x_w|

; 2420 :                 else if (payload_type == 5)

	ldr         w8,[sp,#0x34]
	cmp         w8,#5
	bne         |$LN24@mp4_h26x_w|

; 2421 :                     sample_kind = MP4E_SAMPLE_RANDOM_ACCESS;

	mov         w8,#1
	str         w8,[sp,#0x38]
|$LN24@mp4_h26x_w|
|$LN23@mp4_h26x_w|

; 2422 :                 err = MP4E_put_sample(h->mux, h->mux_track_id, nal2, sizeof_nal, timeStamp90kHz_next, sample_kind);

	ldr         x9,[sp,#0x18]
	mov         x8,#0x1208
	add         x10,x9,x8
	ldr         x9,[sp,#0x18]
	mov         x8,#0x1200
	add         x8,x9,x8
	ldr         w5,[sp,#0x38]
	ldr         w4,[sp,#0x4C]
	ldr         w3,[sp,#0x10]
	ldr         x2,[sp,#0x20]
	ldr         w1,[x10]
	ldr         x0,[x8]
	bl          MP4E_put_sample
	mov         w0,w0
	str         w0,[sp,#0x3C]
|$LN21@mp4_h26x_w|
|$LN5@mp4_h26x_w|

; 2423 :             }
; 2424 :             break;
; 2425 :         }
; 2426 :         free(nal1);

	ldr         x0,[sp,#0x40]
	bl          free

; 2427 :         free(nal2);

	ldr         x0,[sp,#0x20]
	bl          free

; 2428 : #else
; 2429 :         // No SPS/PPS transcoding
; 2430 :         // This branch assumes that encoder use correct SPS/PPS ID's
; 2431 :         switch (payload_type) {
; 2432 :         case 7:
; 2433 :             MP4E_set_sps(h->mux, h->mux_track_id, nal, sizeof_nal);
; 2434 :             h->need_sps = 0;
; 2435 :             break;
; 2436 :         case 8:
; 2437 :             MP4E_set_pps(h->mux, h->mux_track_id, nal, sizeof_nal);
; 2438 :             h->need_pps = 0;
; 2439 :             break;
; 2440 :         case 5:
; 2441 :             if (h->need_sps)
; 2442 :                 return MP4E_STATUS_BAD_ARGUMENTS;
; 2443 :             h->need_idr = 0;
; 2444 :             // flow through
; 2445 :         default:
; 2446 :             if (h->need_sps)
; 2447 :                 return MP4E_STATUS_BAD_ARGUMENTS;
; 2448 :             if (!h->need_pps && !h->need_idr)
; 2449 :             {
; 2450 :                 bit_reader_t bs[1];
; 2451 :                 unsigned char* tmp = (unsigned char*)malloc(4 + sizeof_nal);
; 2452 :                 if (!tmp)
; 2453 :                     return MP4E_STATUS_NO_MEMORY;
; 2454 :                 init_bits(bs, nal + 1, sizeof_nal - 1);
; 2455 :                 unsigned first_mb_in_slice = ue_bits(bs);
; 2456 :                 int sample_kind = MP4E_SAMPLE_DEFAULT;
; 2457 :                 tmp[0] = (unsigned char)(sizeof_nal >> 24);
; 2458 :                 tmp[1] = (unsigned char)(sizeof_nal >> 16);
; 2459 :                 tmp[2] = (unsigned char)(sizeof_nal >> 8);
; 2460 :                 tmp[3] = (unsigned char)(sizeof_nal);
; 2461 :                 memcpy(tmp + 4, nal, sizeof_nal);
; 2462 :                 if (first_mb_in_slice)
; 2463 :                     sample_kind = MP4E_SAMPLE_CONTINUATION;
; 2464 :                 else if (payload_type == 5)
; 2465 :                     sample_kind = MP4E_SAMPLE_RANDOM_ACCESS;
; 2466 :                 err = MP4E_put_sample(h->mux, h->mux_track_id, tmp, 4 + sizeof_nal, timeStamp90kHz_next, sample_kind);
; 2467 :                 free(tmp);
; 2468 :             }
; 2469 :             break;
; 2470 :         }
; 2471 : #endif
; 2472 :         if (err)

	ldr         w8,[sp,#0x3C]
	cmp         w8,#0
	beq         |$LN25@mp4_h26x_w|

; 2473 :             break;

	b           |$LN3@mp4_h26x_w|
|$LN25@mp4_h26x_w|

; 2474 :     }

	b           |$LN2@mp4_h26x_w|
|$LN3@mp4_h26x_w|

; 2475 :     return err;

	ldr         w0,[sp,#0x3C]
|$LN1@mp4_h26x_w|
	ldp         fp,lr,[sp],#0x80
	ret

	ENDP  ; |mp4_h26x_write_nal|

; Function compile flags: /Odtp
; File C:\Users\paras\source\repos\grep-name\XenevaOS\Process\AudioPlayer\minimp4.h

	AREA	|.text$mn|, CODE, ARM64

|mp4_h26x_write_close| PROC

; 2278 : {

|$LN11|
	stp         fp,lr,[sp,#-0x30]!
	mov         fp,sp
	str         x0,[sp,#0x20]

; 2279 : #if MINIMP4_TRANSCODE_SPS_ID
; 2280 :     h264_sps_id_patcher_t* p = &h->sps_patcher;

	ldr         x8,[sp,#0x20]
	str         x8,[sp,#0x18]

; 2281 :     int i;
; 2282 :     for (i = 0; i < MINIMP4_MAX_SPS; i++)

	mov         w8,#0
	str         w8,[sp,#0x10]
	b           |$LN4@mp4_h26x_w|
|$LN2@mp4_h26x_w|
	ldr         w8,[sp,#0x10]
	add         w8,w8,#1
	str         w8,[sp,#0x10]
|$LN4@mp4_h26x_w|
	ldr         w8,[sp,#0x10]
	cmp         w8,#0x20
	bge         |$LN3@mp4_h26x_w|

; 2283 :     {
; 2284 :         if (p->sps_cache[i])

	ldr         x10,[sp,#0x18]
	ldr         w8,[sp,#0x10]
	sxtw        x9,w8
	mov         x8,#8
	mul         x8,x9,x8
	add         x8,x10,x8
	ldr         x8,[x8]
	cmp         x8,#0
	beq         |$LN8@mp4_h26x_w|

; 2285 :             free(p->sps_cache[i]);

	ldr         x10,[sp,#0x18]
	ldr         w8,[sp,#0x10]
	sxtw        x9,w8
	mov         x8,#8
	mul         x8,x9,x8
	add         x8,x10,x8
	ldr         x0,[x8]
	bl          free
|$LN8@mp4_h26x_w|

; 2286 :     }

	b           |$LN2@mp4_h26x_w|
|$LN3@mp4_h26x_w|

; 2287 :     for (i = 0; i < MINIMP4_MAX_PPS; i++)

	mov         w8,#0
	str         w8,[sp,#0x10]
	b           |$LN7@mp4_h26x_w|
|$LN5@mp4_h26x_w|
	ldr         w8,[sp,#0x10]
	add         w8,w8,#1
	str         w8,[sp,#0x10]
|$LN7@mp4_h26x_w|
	ldr         w8,[sp,#0x10]
	cmp         w8,#0x100
	bge         |$LN6@mp4_h26x_w|

; 2288 :     {
; 2289 :         if (p->pps_cache[i])

	ldr         x8,[sp,#0x18]
	add         x10,x8,#0x100
	ldr         w8,[sp,#0x10]
	sxtw        x9,w8
	mov         x8,#8
	mul         x8,x9,x8
	add         x8,x10,x8
	ldr         x8,[x8]
	cmp         x8,#0
	beq         |$LN9@mp4_h26x_w|

; 2290 :             free(p->pps_cache[i]);

	ldr         x8,[sp,#0x18]
	add         x10,x8,#0x100
	ldr         w8,[sp,#0x10]
	sxtw        x9,w8
	mov         x8,#8
	mul         x8,x9,x8
	add         x8,x10,x8
	ldr         x0,[x8]
	bl          free
|$LN9@mp4_h26x_w|

; 2291 :     }

	b           |$LN5@mp4_h26x_w|
|$LN6@mp4_h26x_w|

; 2292 : #endif
; 2293 :     memset(h, 0, sizeof(*h));

	mov         x2,#0x1220
	mov         w1,#0
	ldr         x0,[sp,#0x20]
	bl          memset
	ldp         fp,lr,[sp],#0x30
	ret

	ENDP  ; |mp4_h26x_write_close|

; Function compile flags: /Odtp
; File C:\Users\paras\source\repos\grep-name\XenevaOS\Process\AudioPlayer\minimp4.h

	AREA	|.text$mn|, CODE, ARM64

|mp4_h26x_write_init| PROC

; 2251 : {

|$LN6|
	stp         fp,lr,[sp,#-0x50]!
	mov         fp,sp
	str         x0,[sp,#0x20]
	str         x1,[sp,#0x28]
	str         w2,[sp,#0x18]
	str         w3,[sp,#0x1C]
	str         w4,[sp,#0x10]

; 2252 :     MP4E_track_t tr;
; 2253 :     tr.track_media_kind = e_video;

	mov         w8,#1
	str         w8,[sp,#0x38]

; 2254 :     tr.language[0] = 'u';

	mov         w8,#0x75
	strb        w8,[sp,#0x34]

; 2255 :     tr.language[1] = 'n';

	mov         w8,#0x6E
	strb        w8,[sp,#0x35]

; 2256 :     tr.language[2] = 'd';

	mov         w8,#0x64
	strb        w8,[sp,#0x36]

; 2257 :     tr.language[3] = 0;

	mov         w8,#0
	strb        w8,[sp,#0x37]

; 2258 :     tr.object_type_indication = is_hevc ? MP4_OBJECT_TYPE_HEVC : MP4_OBJECT_TYPE_AVC;

	ldr         w8,[sp,#0x10]
	cmp         w8,#0
	beq         |$LN3@mp4_h26x_w|
	mov         w8,#0x23
	str         w8,[sp,#0x14]
	b           |$LN4@mp4_h26x_w|
|$LN3@mp4_h26x_w|
	mov         w8,#0x21
	str         w8,[sp,#0x14]
|$LN4@mp4_h26x_w|
	ldr         w8,[sp,#0x14]
	str         w8,[sp,#0x30]

; 2259 :     tr.time_scale = 90000;

	ldr         w8,|$LN5@mp4_h26x_w|
	str         w8,[sp,#0x3C]

; 2260 :     tr.default_duration = 0;

	mov         w8,#0
	str         w8,[sp,#0x40]

; 2261 :     tr.u.v.width = width;

	ldr         w8,[sp,#0x18]
	str         w8,[sp,#0x44]

; 2262 :     tr.u.v.height = height;

	ldr         w8,[sp,#0x1C]
	str         w8,[sp,#0x48]

; 2263 :     h->mux_track_id = MP4E_add_track(mux, &tr);

	add         x1,sp,#0x30
	ldr         x0,[sp,#0x28]
	bl          MP4E_add_track
	mov         w0,w0
	ldr         x9,[sp,#0x20]
	mov         x8,#0x1208
	add         x8,x9,x8
	str         w0,[x8]

; 2264 :     h->mux = mux;

	ldr         x9,[sp,#0x20]
	mov         x8,#0x1200
	add         x9,x9,x8
	ldr         x8,[sp,#0x28]
	str         x8,[x9]

; 2265 : 
; 2266 :     h->is_hevc = is_hevc;

	ldr         x9,[sp,#0x20]
	mov         x8,#0x120C
	add         x9,x9,x8
	ldr         w8,[sp,#0x10]
	str         w8,[x9]

; 2267 :     h->need_vps = is_hevc;

	ldr         x9,[sp,#0x20]
	mov         x8,#0x1210
	add         x9,x9,x8
	ldr         w8,[sp,#0x10]
	str         w8,[x9]

; 2268 :     h->need_sps = 1;

	ldr         x9,[sp,#0x20]
	mov         x8,#0x1214
	add         x9,x9,x8
	mov         w8,#1
	str         w8,[x9]

; 2269 :     h->need_pps = 1;

	ldr         x9,[sp,#0x20]
	mov         x8,#0x1218
	add         x9,x9,x8
	mov         w8,#1
	str         w8,[x9]

; 2270 :     h->need_idr = 1;

	ldr         x9,[sp,#0x20]
	mov         x8,#0x121C
	add         x9,x9,x8
	mov         w8,#1
	str         w8,[x9]

; 2271 : #if MINIMP4_TRANSCODE_SPS_ID
; 2272 :     memset(&h->sps_patcher, 0, sizeof(h264_sps_id_patcher_t));

	ldr         x0,[sp,#0x20]
	mov         x2,#0x1200
	mov         w1,#0
	bl          memset

; 2273 : #endif
; 2274 :     return MP4E_STATUS_OK;

	mov         w0,#0
	ldp         fp,lr,[sp],#0x50
	ret
|$LN5@mp4_h26x_w|
	DCD         0x15f90

	ENDP  ; |mp4_h26x_write_init|

; Function compile flags: /Odtp
; File C:\Users\paras\source\repos\grep-name\XenevaOS\Libs\Chitralekha\nanojpg.h

	AREA	|.text$mn|, CODE, ARM64

|?_Decode@Decoder@Jpeg@@AEAA?AW4DecodeResult@12@PEBEH@Z| PROC ; Jpeg::Decoder::_Decode

; 628  : 		DecodeResult _Decode(const unsigned char* jpeg, const int size) {

|$LN22|
	stp         fp,lr,[sp,#-0x30]!
	mov         fp,sp
	str         x0,[sp,#0x18]
	str         x1,[sp,#0x20]
	str         w2,[sp,#0x14]

; 629  : 			ctx.pos = (const unsigned char*)jpeg;

	ldr         x8,[sp,#0x18]
	add         x9,x8,#8
	ldr         x8,[sp,#0x20]
	str         x8,[x9]

; 630  : 			ctx.size = size & 0x7FFFFFFF;

	ldr         w8,[sp,#0x14]
	and         w9,w8,#0x7FFFFFFF
	ldr         x8,[sp,#0x18]
	add         x8,x8,#0x10
	str         w9,[x8]

; 631  : 			if (ctx.size < 2) return NotAJpeg;

	ldr         x8,[sp,#0x18]
	add         x8,x8,#0x10
	ldr         w8,[x8]
	cmp         w8,#2
	bge         |$LN6@Decode|
	mov         w0,#1
	b           |$LN1@Decode|
|$LN6@Decode|

; 632  : 			if ((ctx.pos[0] ^ 0xFF) | (ctx.pos[1] ^ 0xD8)) return NotAJpeg;

	ldr         x8,[sp,#0x18]
	add         x8,x8,#8
	ldr         x8,[x8]
	ldrb        w8,[x8]
	mov         w8,w8
	eor         w10,w8,#0xFF
	ldr         x8,[sp,#0x18]
	add         x8,x8,#8
	ldr         x8,[x8]
	add         x8,x8,#1
	ldrb        w9,[x8]
	mov         w9,w9
	mov         w8,#0xD8
	eor         w8,w9,w8
	orr         w8,w10,w8
	cmp         w8,#0
	beq         |$LN7@Decode|
	mov         w0,#1
	b           |$LN1@Decode|
|$LN7@Decode|

; 633  : 			_Skip(2);

	mov         w1,#2
	ldr         x0,[sp,#0x18]
	bl          |?_Skip@Decoder@Jpeg@@AEAAXH@Z|
|$LN2@Decode|

; 634  : 			while (!ctx.error) {

	ldr         x8,[sp,#0x18]
	ldr         w8,[x8]
	cmp         w8,#0
	bne         |$LN3@Decode|

; 635  : 				if ((ctx.size < 2) || (ctx.pos[0] != 0xFF)) return SyntaxError;

	ldr         x8,[sp,#0x18]
	add         x8,x8,#0x10
	ldr         w8,[x8]
	cmp         w8,#2
	blt         |$LN9@Decode|
	ldr         x8,[sp,#0x18]
	add         x8,x8,#8
	ldr         x8,[x8]
	ldrb        w8,[x8]
	mov         w8,w8
	cmp         w8,#0xFF
	beq         |$LN8@Decode|
|$LN9@Decode|
	mov         w0,#5
	b           |$LN1@Decode|
|$LN8@Decode|

; 636  : 				_Skip(2);

	mov         w1,#2
	ldr         x0,[sp,#0x18]
	bl          |?_Skip@Decoder@Jpeg@@AEAAXH@Z|

; 637  : 				switch (ctx.pos[-1]) {	

	ldr         x8,[sp,#0x18]
	add         x8,x8,#8
	ldr         x9,[x8]
	mov         x8,#-1
	add         x8,x9,x8
	ldrb        w8,[x8]
	mov         w8,w8
	str         w8,[sp,#0x10]
	ldr         w8,[sp,#0x10]
	cmp         w8,#0xDB
	bgt         |$LN21@Decode|
	ldr         w8,[sp,#0x10]
	cmp         w8,#0xDB
	beq         |$LN12@Decode|
	ldr         w8,[sp,#0x10]
	cmp         w8,#0xC0
	beq         |$LN10@Decode|
	ldr         w8,[sp,#0x10]
	cmp         w8,#0xC4
	beq         |$LN11@Decode|
	ldr         w8,[sp,#0x10]
	cmp         w8,#0xDA
	beq         |$LN14@Decode|
	b           |$LN16@Decode|
|$LN21@Decode|
	ldr         w8,[sp,#0x10]
	cmp         w8,#0xDD
	beq         |$LN13@Decode|
	ldr         w8,[sp,#0x10]
	cmp         w8,#0xFE
	beq         |$LN15@Decode|
	b           |$LN16@Decode|
|$LN10@Decode|

; 638  : 				case 0xC0:  _DecodeSOF();  break;

	ldr         x0,[sp,#0x18]
	bl          |?_DecodeSOF@Decoder@Jpeg@@AEAAXXZ|
	b           |$LN4@Decode|
|$LN11@Decode|

; 639  : 				case 0xC4:  _DecodeDHT();  break;

	ldr         x0,[sp,#0x18]
	bl          |?_DecodeDHT@Decoder@Jpeg@@AEAAXXZ|
	b           |$LN4@Decode|
|$LN12@Decode|

; 640  : 				case 0xDB:  _DecodeDQT();  break;

	ldr         x0,[sp,#0x18]
	bl          |?_DecodeDQT@Decoder@Jpeg@@AEAAXXZ|
	b           |$LN4@Decode|
|$LN13@Decode|

; 641  : 				case 0xDD:  _DecodeDRI();  break;

	ldr         x0,[sp,#0x18]
	bl          |?_DecodeDRI@Decoder@Jpeg@@AEAAXXZ|
	b           |$LN4@Decode|
|$LN14@Decode|

; 642  : 				case 0xDA:  _DecodeScan(); break;

	ldr         x0,[sp,#0x18]
	bl          |?_DecodeScan@Decoder@Jpeg@@AEAAXXZ|
	b           |$LN4@Decode|
|$LN15@Decode|

; 643  : 				case 0xFE:  _SkipMarker(); break;

	ldr         x0,[sp,#0x18]
	bl          |?_SkipMarker@Decoder@Jpeg@@AEAAXXZ|
	b           |$LN4@Decode|
|$LN16@Decode|

; 644  : 				default:
; 645  : 					if ((ctx.pos[-1] & 0xF0) == 0xE0){

	ldr         x8,[sp,#0x18]
	add         x8,x8,#8
	ldr         x9,[x8]
	mov         x8,#-1
	add         x8,x9,x8
	ldrb        w8,[x8]
	mov         w8,w8
	and         w8,w8,#0xF0
	cmp         w8,#0xE0
	bne         |$LN17@Decode|

; 646  : 						_SkipMarker();

	ldr         x0,[sp,#0x18]
	bl          |?_SkipMarker@Decoder@Jpeg@@AEAAXXZ|

; 647  : 					}

	b           |$LN18@Decode|
|$LN17@Decode|

; 648  : 					else
; 649  : 						return Unsupported;

	mov         w0,#2
	b           |$LN1@Decode|
|$LN18@Decode|
|$LN4@Decode|

; 650  : 				}
; 651  : 			}

	b           |$LN2@Decode|
|$LN3@Decode|

; 652  : 			if (ctx.error != Internal_Finished) return ctx.error;

	ldr         x8,[sp,#0x18]
	ldr         w8,[x8]
	cmp         w8,#6
	beq         |$LN19@Decode|
	ldr         x8,[sp,#0x18]
	ldr         w0,[x8]
	b           |$LN1@Decode|
|$LN19@Decode|

; 653  : 			ctx.error = OK;

	ldr         x9,[sp,#0x18]
	mov         w8,#0
	str         w8,[x9]

; 654  : 			_Convert();

	ldr         x0,[sp,#0x18]
	bl          |?_Convert@Decoder@Jpeg@@AEAAXXZ|

; 655  : 			return ctx.error;

	ldr         x8,[sp,#0x18]
	ldr         w0,[x8]
|$LN1@Decode|
	ldp         fp,lr,[sp],#0x30
	ret

	ENDP  ; |?_Decode@Decoder@Jpeg@@AEAA?AW4DecodeResult@12@PEBEH@Z|, Jpeg::Decoder::_Decode

; Function compile flags: /Odtp
; File C:\Users\paras\source\repos\grep-name\XenevaOS\Libs\Chitralekha\nanojpg.h

	AREA	|.text$mn|, CODE, ARM64

|?_Convert@Decoder@Jpeg@@AEAAXXZ| PROC			; Jpeg::Decoder::_Convert

; 580  : 		inline void _Convert() {

|$LN30|
	stp         fp,lr,[sp,#-0x70]!
	mov         fp,sp
	str         x0,[sp,#0x10]

; 581  : 			int i;
; 582  : 			Component* c;
; 583  : 			for (i = 0, c = ctx.comp; i < ctx.ncomp; ++i, ++c) {

	mov         w8,#0
	str         w8,[sp,#0x30]
	ldr         x8,[sp,#0x10]
	add         x8,x8,#0x34
	str         x8,[sp,#0x20]
	b           |$LN4@Convert|
|$LN2@Convert|
	ldr         w8,[sp,#0x30]
	add         w8,w8,#1
	str         w8,[sp,#0x30]
	ldr         x8,[sp,#0x20]
	add         x8,x8,#0x30
	str         x8,[sp,#0x20]
|$LN4@Convert|
	ldr         x8,[sp,#0x10]
	add         x8,x8,#0x30
	ldr         w9,[x8]
	ldr         w8,[sp,#0x30]
	cmp         w8,w9
	bge         |$LN3@Convert|
|$LN5@Convert|

; 584  : 				while ((c->width < ctx.width) || (c->height < ctx.height)) {

	ldr         x8,[sp,#0x20]
	add         x10,x8,#0xC
	ldr         x8,[sp,#0x10]
	add         x8,x8,#0x18
	ldr         w9,[x8]
	ldr         w8,[x10]
	cmp         w8,w9
	blt         |$LN19@Convert|
	ldr         x8,[sp,#0x20]
	add         x10,x8,#0x10
	ldr         x8,[sp,#0x10]
	add         x8,x8,#0x1C
	ldr         w9,[x8]
	ldr         w8,[x10]
	cmp         w8,w9
	bge         |$LN6@Convert|
|$LN19@Convert|

; 585  : 					if (c->width < ctx.width) _UpsampleH(c);

	ldr         x8,[sp,#0x20]
	add         x10,x8,#0xC
	ldr         x8,[sp,#0x10]
	add         x8,x8,#0x18
	ldr         w9,[x8]
	ldr         w8,[x10]
	cmp         w8,w9
	bge         |$LN20@Convert|
	ldr         x1,[sp,#0x20]
	ldr         x0,[sp,#0x10]
	bl          |?_UpsampleH@Decoder@Jpeg@@AEAAXPEAUComponent@12@@Z|
|$LN20@Convert|

; 586  : 					if (ctx.error) return;

	ldr         x8,[sp,#0x10]
	ldr         w8,[x8]
	cmp         w8,#0
	beq         |$LN21@Convert|
	b           |$LN1@Convert|
|$LN21@Convert|

; 587  : 					if (c->height < ctx.height) _UpsampleV(c);

	ldr         x8,[sp,#0x20]
	add         x10,x8,#0x10
	ldr         x8,[sp,#0x10]
	add         x8,x8,#0x1C
	ldr         w9,[x8]
	ldr         w8,[x10]
	cmp         w8,w9
	bge         |$LN22@Convert|
	ldr         x1,[sp,#0x20]
	ldr         x0,[sp,#0x10]
	bl          |?_UpsampleV@Decoder@Jpeg@@AEAAXPEAUComponent@12@@Z|
|$LN22@Convert|

; 588  : 					if (ctx.error) return;

	ldr         x8,[sp,#0x10]
	ldr         w8,[x8]
	cmp         w8,#0
	beq         |$LN23@Convert|
	b           |$LN1@Convert|
|$LN23@Convert|

; 589  : 				}

	b           |$LN5@Convert|
|$LN6@Convert|

; 590  : 				if ((c->width < ctx.width) || (c->height < ctx.height)) JPEG_DECODER_THROW(InternalError);

	ldr         x8,[sp,#0x20]
	add         x10,x8,#0xC
	ldr         x8,[sp,#0x10]
	add         x8,x8,#0x18
	ldr         w9,[x8]
	ldr         w8,[x10]
	cmp         w8,w9
	blt         |$LN25@Convert|
	ldr         x8,[sp,#0x20]
	add         x10,x8,#0x10
	ldr         x8,[sp,#0x10]
	add         x8,x8,#0x1C
	ldr         w9,[x8]
	ldr         w8,[x10]
	cmp         w8,w9
	bge         |$LN24@Convert|
|$LN25@Convert|
|$LN9@Convert|
	ldr         x9,[sp,#0x10]
	mov         w8,#4
	str         w8,[x9]
	b           |$LN1@Convert|
	mov         w8,#0
	cmp         w8,#0
	bne         |$LN9@Convert|
|$LN24@Convert|

; 591  : 			}

	b           |$LN2@Convert|
|$LN3@Convert|

; 592  : 			
; 593  : 			if (ctx.ncomp == 3) {

	ldr         x8,[sp,#0x10]
	add         x8,x8,#0x30
	ldr         w8,[x8]
	cmp         w8,#3
	bne         |$LN26@Convert|

; 594  : 				// convert to RGB
; 595  : 				int x, yy;
; 596  : 				unsigned char *prgb = ctx.rgb;

	ldr         x8,[sp,#0x10]
	add         x8,x8,#0x80,lsl #0xC
	add         x8,x8,#0x2D8
	ldr         x8,[x8]
	str         x8,[sp,#0x28]

; 597  : 				const unsigned char *py = ctx.comp[0].pixels;

	ldr         x8,[sp,#0x10]
	add         x8,x8,#0x34
	add         x8,x8,#0x28
	ldr         x8,[x8]
	str         x8,[sp,#0x48]

; 598  : 				const unsigned char *pcb = ctx.comp[1].pixels;

	ldr         x8,[sp,#0x10]
	add         x8,x8,#0x64
	add         x8,x8,#0x28
	ldr         x8,[x8]
	str         x8,[sp,#0x50]

; 599  : 				const unsigned char *pcr = ctx.comp[2].pixels;

	ldr         x8,[sp,#0x10]
	add         x8,x8,#0x94
	add         x8,x8,#0x28
	ldr         x8,[x8]
	str         x8,[sp,#0x58]

; 600  : 				for (yy = ctx.height; yy; --yy) {

	ldr         x8,[sp,#0x10]
	add         x8,x8,#0x1C
	ldr         w8,[x8]
	str         w8,[sp,#0x34]
	b           |$LN12@Convert|
|$LN10@Convert|
	ldr         w8,[sp,#0x34]
	sub         w8,w8,#1
	str         w8,[sp,#0x34]
|$LN12@Convert|
	ldr         w8,[sp,#0x34]
	cmp         w8,#0
	beq         |$LN11@Convert|

; 601  : 					for (x = 0; x < ctx.width; ++x) {

	mov         w8,#0
	str         w8,[sp,#0x18]
	b           |$LN15@Convert|
|$LN13@Convert|
	ldr         w8,[sp,#0x18]
	add         w8,w8,#1
	str         w8,[sp,#0x18]
|$LN15@Convert|
	ldr         x8,[sp,#0x10]
	add         x8,x8,#0x18
	ldr         w9,[x8]
	ldr         w8,[sp,#0x18]
	cmp         w8,w9
	bge         |$LN14@Convert|

; 602  : 						register int y = py[x] << 8;

	ldr         w8,[sp,#0x18]
	sxtw        x9,w8
	mov         x8,#1
	mul         x9,x9,x8
	ldr         x8,[sp,#0x48]
	add         x8,x8,x9
	ldrb        w8,[x8]
	mov         w8,w8
	lsl         w8,w8,#8
	str         w8,[sp,#0x38]

; 603  : 						register int cb = pcb[x] - 128;

	ldr         w8,[sp,#0x18]
	sxtw        x9,w8
	mov         x8,#1
	mul         x9,x9,x8
	ldr         x8,[sp,#0x50]
	add         x8,x8,x9
	ldrb        w8,[x8]
	mov         w8,w8
	sub         w8,w8,#0x80
	str         w8,[sp,#0x44]

; 604  : 						register int cr = pcr[x] - 128;

	ldr         w8,[sp,#0x18]
	sxtw        x9,w8
	mov         x8,#1
	mul         x9,x9,x8
	ldr         x8,[sp,#0x58]
	add         x8,x8,x9
	ldrb        w8,[x8]
	mov         w8,w8
	sub         w8,w8,#0x80
	str         w8,[sp,#0x40]

; 605  : 						*prgb++ = _Clip((y + 359 * cr + 128) >> 8);

	ldr         w9,[sp,#0x40]
	mov         w8,#0x167
	mul         w9,w9,w8
	ldr         w8,[sp,#0x38]
	add         w8,w8,w9
	add         w8,w8,#0x80
	asr         w1,w8,#8
	mov         w1,w1
	ldr         x0,[sp,#0x10]
	bl          |?_Clip@Decoder@Jpeg@@AEAAEH@Z|
	uxtb        w9,w0
	ldr         x8,[sp,#0x28]
	strb        w9,[x8]
	ldr         x8,[sp,#0x28]
	add         x8,x8,#1
	str         x8,[sp,#0x28]

; 606  : 						*prgb++ = _Clip((y - 88 * cb - 183 * cr + 128) >> 8);

	ldr         w9,[sp,#0x44]
	mov         w8,#0x58
	mul         w9,w9,w8
	ldr         w8,[sp,#0x38]
	sub         w10,w8,w9
	ldr         w9,[sp,#0x40]
	mov         w8,#0xB7
	mul         w8,w9,w8
	sub         w8,w10,w8
	add         w8,w8,#0x80
	asr         w1,w8,#8
	mov         w1,w1
	ldr         x0,[sp,#0x10]
	bl          |?_Clip@Decoder@Jpeg@@AEAAEH@Z|
	uxtb        w9,w0
	ldr         x8,[sp,#0x28]
	strb        w9,[x8]
	ldr         x8,[sp,#0x28]
	add         x8,x8,#1
	str         x8,[sp,#0x28]

; 607  : 						*prgb++ = _Clip((y + 454 * cb + 128) >> 8);

	ldr         w9,[sp,#0x44]
	mov         w8,#0x1C6
	mul         w9,w9,w8
	ldr         w8,[sp,#0x38]
	add         w8,w8,w9
	add         w8,w8,#0x80
	asr         w1,w8,#8
	mov         w1,w1
	ldr         x0,[sp,#0x10]
	bl          |?_Clip@Decoder@Jpeg@@AEAAEH@Z|
	uxtb        w9,w0
	ldr         x8,[sp,#0x28]
	strb        w9,[x8]
	ldr         x8,[sp,#0x28]
	add         x8,x8,#1
	str         x8,[sp,#0x28]

; 608  : 					}

	b           |$LN13@Convert|
|$LN14@Convert|

; 609  : 					py += ctx.comp[0].stride;

	ldr         x8,[sp,#0x10]
	add         x8,x8,#0x34
	add         x8,x8,#0x14
	ldr         w8,[x8]
	sxtw        x9,w8
	ldr         x8,[sp,#0x48]
	add         x8,x8,x9
	str         x8,[sp,#0x48]

; 610  : 					pcb += ctx.comp[1].stride;

	ldr         x8,[sp,#0x10]
	add         x8,x8,#0x64
	add         x8,x8,#0x14
	ldr         w8,[x8]
	sxtw        x9,w8
	ldr         x8,[sp,#0x50]
	add         x8,x8,x9
	str         x8,[sp,#0x50]

; 611  : 					pcr += ctx.comp[2].stride;

	ldr         x8,[sp,#0x10]
	add         x8,x8,#0x94
	add         x8,x8,#0x14
	ldr         w8,[x8]
	sxtw        x9,w8
	ldr         x8,[sp,#0x58]
	add         x8,x8,x9
	str         x8,[sp,#0x58]

; 612  : 				}

	b           |$LN10@Convert|
|$LN11@Convert|

; 613  : 			}

	b           |$LN27@Convert|
|$LN26@Convert|

; 614  : 			else if (ctx.comp[0].width != ctx.comp[0].stride) {

	ldr         x8,[sp,#0x10]
	add         x8,x8,#0x34
	add         x10,x8,#0xC
	ldr         x8,[sp,#0x10]
	add         x8,x8,#0x34
	add         x8,x8,#0x14
	ldr         w9,[x8]
	ldr         w8,[x10]
	cmp         w8,w9
	beq         |$LN28@Convert|

; 615  : 				// grayscale -> only remove stride
; 616  : 				unsigned char *pin = &ctx.comp[0].pixels[ctx.comp[0].stride];

	ldr         x8,[sp,#0x10]
	add         x8,x8,#0x34
	add         x10,x8,#0x28
	ldr         x8,[sp,#0x10]
	add         x8,x8,#0x34
	add         x8,x8,#0x14
	ldr         w8,[x8]
	sxtw        x9,w8
	mov         x8,#1
	mul         x9,x9,x8
	ldr         x8,[x10]
	add         x8,x8,x9
	str         x8,[sp,#0x60]

; 617  : 				unsigned char *pout = &ctx.comp[0].pixels[ctx.comp[0].width];

	ldr         x8,[sp,#0x10]
	add         x8,x8,#0x34
	add         x10,x8,#0x28
	ldr         x8,[sp,#0x10]
	add         x8,x8,#0x34
	add         x8,x8,#0xC
	ldr         w8,[x8]
	sxtw        x9,w8
	mov         x8,#1
	mul         x9,x9,x8
	ldr         x8,[x10]
	add         x8,x8,x9
	str         x8,[sp,#0x68]

; 618  : 				int y;
; 619  : 				for (y = ctx.comp[0].height - 1; y; --y) {

	ldr         x8,[sp,#0x10]
	add         x8,x8,#0x34
	add         x8,x8,#0x10
	ldr         w8,[x8]
	sub         w8,w8,#1
	str         w8,[sp,#0x3C]
	b           |$LN18@Convert|
|$LN16@Convert|
	ldr         w8,[sp,#0x3C]
	sub         w8,w8,#1
	str         w8,[sp,#0x3C]
|$LN18@Convert|
	ldr         w8,[sp,#0x3C]
	cmp         w8,#0
	beq         |$LN17@Convert|

; 620  : 					memcpy(pout, pin, ctx.comp[0].width);

	ldr         x8,[sp,#0x10]
	add         x8,x8,#0x34
	add         x8,x8,#0xC
	ldr         w8,[x8]
	sxtw        x2,w8
	ldr         x1,[sp,#0x60]
	ldr         x0,[sp,#0x68]
	bl          memcpy

; 621  : 					pin += ctx.comp[0].stride;

	ldr         x8,[sp,#0x10]
	add         x8,x8,#0x34
	add         x8,x8,#0x14
	ldr         w8,[x8]
	sxtw        x9,w8
	ldr         x8,[sp,#0x60]
	add         x8,x8,x9
	str         x8,[sp,#0x60]

; 622  : 					pout += ctx.comp[0].width;

	ldr         x8,[sp,#0x10]
	add         x8,x8,#0x34
	add         x8,x8,#0xC
	ldr         w8,[x8]
	sxtw        x9,w8
	ldr         x8,[sp,#0x68]
	add         x8,x8,x9
	str         x8,[sp,#0x68]

; 623  : 				}

	b           |$LN16@Convert|
|$LN17@Convert|

; 624  : 				ctx.comp[0].stride = ctx.comp[0].width;

	ldr         x8,[sp,#0x10]
	add         x8,x8,#0x34
	add         x10,x8,#0xC
	ldr         x8,[sp,#0x10]
	add         x8,x8,#0x34
	add         x9,x8,#0x14
	ldr         w8,[x10]
	str         w8,[x9]
|$LN28@Convert|
|$LN27@Convert|
|$LN1@Convert|
	ldp         fp,lr,[sp],#0x70
	ret

	ENDP  ; |?_Convert@Decoder@Jpeg@@AEAAXXZ|, Jpeg::Decoder::_Convert

; Function compile flags: /Odtp
; File C:\Users\paras\source\repos\grep-name\XenevaOS\Libs\Chitralekha\nanojpg.h

	AREA	|.text$mn|, CODE, ARM64

|?_UpsampleV@Decoder@Jpeg@@AEAAXPEAUComponent@12@@Z| PROC ; Jpeg::Decoder::_UpsampleV

; 551  : 		inline void _UpsampleV(Component* c) {

|$LN13|
	stp         fp,lr,[sp,#-0x60]!
	mov         fp,sp
	str         x0,[sp,#0x40]
	str         x1,[sp,#0x30]

; 552  : 			const int w = c->width, s1 = c->stride, s2 = s1 + s1;

	ldr         x8,[sp,#0x30]
	add         x8,x8,#0xC
	ldr         w8,[x8]
	str         w8,[sp,#0x28]
	ldr         x8,[sp,#0x30]
	add         x8,x8,#0x14
	ldr         w8,[x8]
	str         w8,[sp,#0x10]
	ldr         w9,[sp,#0x10]
	ldr         w8,[sp,#0x10]
	add         w8,w9,w8
	str         w8,[sp,#0x2C]

; 553  : 			unsigned char *out, *cin, *cout;
; 554  : 			int x, y;
; 555  : 			out = (unsigned char*)AllocMem((c->width * c->height) << 1);

	ldr         x8,[sp,#0x30]
	add         x9,x8,#0xC
	ldr         x8,[sp,#0x30]
	add         x8,x8,#0x10
	ldr         w9,[x9]
	ldr         w8,[x8]
	mul         w8,w9,w8
	lsl         w0,w8,#1
	ldr         x8,[sp,#0x40]
	add         x8,x8,#0x80,lsl #0xC
	add         x8,x8,#0x320
	mov         w0,w0
	ldr         x8,[x8]
	blr         x8
	str         x0,[sp,#0x50]

; 556  : 			if (!out) JPEG_DECODER_THROW(OutOfMemory);

	ldr         x8,[sp,#0x50]
	cmp         x8,#0
	bne         |$LN11@UpsampleV|
|$LN4@UpsampleV|
	ldr         x9,[sp,#0x40]
	mov         w8,#3
	str         w8,[x9]
	b           |$LN1@UpsampleV|
	mov         w8,#0
	cmp         w8,#0
	bne         |$LN4@UpsampleV|
|$LN11@UpsampleV|

; 557  : 			for (x = 0; x < w; ++x) {

	mov         w8,#0
	str         w8,[sp,#0x38]
	b           |$LN7@UpsampleV|
|$LN5@UpsampleV|
	ldr         w8,[sp,#0x38]
	add         w8,w8,#1
	str         w8,[sp,#0x38]
|$LN7@UpsampleV|
	ldr         w9,[sp,#0x28]
	ldr         w8,[sp,#0x38]
	cmp         w8,w9
	bge         |$LN6@UpsampleV|

; 558  : 				cin = &c->pixels[x];

	ldr         x8,[sp,#0x30]
	add         x10,x8,#0x28
	ldr         w8,[sp,#0x38]
	sxtw        x9,w8
	mov         x8,#1
	mul         x9,x9,x8
	ldr         x8,[x10]
	add         x8,x8,x9
	str         x8,[sp,#0x18]

; 559  : 				cout = &out[x];

	ldr         w8,[sp,#0x38]
	sxtw        x9,w8
	mov         x8,#1
	mul         x9,x9,x8
	ldr         x8,[sp,#0x50]
	add         x8,x8,x9
	str         x8,[sp,#0x20]

; 560  : 				*cout = CF(CF2A * cin[0] + CF2B * cin[s1]);  cout += w;

	ldr         x8,[sp,#0x18]
	ldrb        w9,[x8]
	mov         w9,w9
	mov         w8,#0x8B
	mul         w10,w9,w8
	ldr         w8,[sp,#0x10]
	sxtw        x9,w8
	mov         x8,#1
	mul         x9,x9,x8
	ldr         x8,[sp,#0x18]
	add         x8,x8,x9
	ldrb        w9,[x8]
	mov         w9,w9
	mov         w8,#-0xB
	mul         w8,w9,w8
	add         w1,w10,w8
	mov         w1,w1
	ldr         x0,[sp,#0x40]
	bl          |?CF@Decoder@Jpeg@@AEAAEH@Z|
	uxtb        w9,w0
	ldr         x8,[sp,#0x20]
	strb        w9,[x8]
	ldr         w8,[sp,#0x28]
	sxtw        x9,w8
	ldr         x8,[sp,#0x20]
	add         x8,x8,x9
	str         x8,[sp,#0x20]

; 561  : 				*cout = CF(CF3X * cin[0] + CF3Y * cin[s1] + CF3Z * cin[s2]);  cout += w;

	ldr         x8,[sp,#0x18]
	ldrb        w9,[x8]
	mov         w9,w9
	mov         w8,#0x68
	mul         w10,w9,w8
	ldr         w8,[sp,#0x10]
	sxtw        x9,w8
	mov         x8,#1
	mul         x9,x9,x8
	ldr         x8,[sp,#0x18]
	add         x8,x8,x9
	ldrb        w9,[x8]
	mov         w9,w9
	mov         w8,#0x1B
	mul         w8,w9,w8
	add         w10,w10,w8
	ldr         w8,[sp,#0x2C]
	sxtw        x9,w8
	mov         x8,#1
	mul         x9,x9,x8
	ldr         x8,[sp,#0x18]
	add         x8,x8,x9
	ldrb        w9,[x8]
	mov         w9,w9
	mov         w8,#-3
	mul         w8,w9,w8
	add         w1,w10,w8
	mov         w1,w1
	ldr         x0,[sp,#0x40]
	bl          |?CF@Decoder@Jpeg@@AEAAEH@Z|
	uxtb        w9,w0
	ldr         x8,[sp,#0x20]
	strb        w9,[x8]
	ldr         w8,[sp,#0x28]
	sxtw        x9,w8
	ldr         x8,[sp,#0x20]
	add         x8,x8,x9
	str         x8,[sp,#0x20]

; 562  : 				*cout = CF(CF3A * cin[0] + CF3B * cin[s1] + CF3C * cin[s2]);  cout += w;

	ldr         x8,[sp,#0x18]
	ldrb        w9,[x8]
	mov         w9,w9
	mov         w8,#0x1C
	mul         w10,w9,w8
	ldr         w8,[sp,#0x10]
	sxtw        x9,w8
	mov         x8,#1
	mul         x9,x9,x8
	ldr         x8,[sp,#0x18]
	add         x8,x8,x9
	ldrb        w9,[x8]
	mov         w9,w9
	mov         w8,#0x6D
	mul         w8,w9,w8
	add         w10,w10,w8
	ldr         w8,[sp,#0x2C]
	sxtw        x9,w8
	mov         x8,#1
	mul         x9,x9,x8
	ldr         x8,[sp,#0x18]
	add         x8,x8,x9
	ldrb        w9,[x8]
	mov         w9,w9
	mov         w8,#-9
	mul         w8,w9,w8
	add         w1,w10,w8
	mov         w1,w1
	ldr         x0,[sp,#0x40]
	bl          |?CF@Decoder@Jpeg@@AEAAEH@Z|
	uxtb        w9,w0
	ldr         x8,[sp,#0x20]
	strb        w9,[x8]
	ldr         w8,[sp,#0x28]
	sxtw        x9,w8
	ldr         x8,[sp,#0x20]
	add         x8,x8,x9
	str         x8,[sp,#0x20]

; 563  : 				cin += s1;

	ldr         w8,[sp,#0x10]
	sxtw        x9,w8
	ldr         x8,[sp,#0x18]
	add         x8,x8,x9
	str         x8,[sp,#0x18]

; 564  : 				for (y = c->height - 3; y; --y) {

	ldr         x8,[sp,#0x30]
	add         x8,x8,#0x10
	ldr         w8,[x8]
	sub         w8,w8,#3
	str         w8,[sp,#0x48]
	b           |$LN10@UpsampleV|
|$LN8@UpsampleV|
	ldr         w8,[sp,#0x48]
	sub         w8,w8,#1
	str         w8,[sp,#0x48]
|$LN10@UpsampleV|
	ldr         w8,[sp,#0x48]
	cmp         w8,#0
	beq         |$LN9@UpsampleV|

; 565  : 					*cout = CF(CF4A * cin[-s1] + CF4B * cin[0] + CF4C * cin[s1] + CF4D * cin[s2]);  cout += w;

	ldr         w8,[sp,#0x10]
	neg         w8,w8
	sxtw        x9,w8
	mov         x8,#1
	mul         x9,x9,x8
	ldr         x8,[sp,#0x18]
	add         x8,x8,x9
	ldrb        w9,[x8]
	mov         w9,w9
	mov         w8,#-9
	mul         w10,w9,w8
	ldr         x8,[sp,#0x18]
	ldrb        w9,[x8]
	mov         w9,w9
	mov         w8,#0x6F
	mul         w8,w9,w8
	add         w10,w10,w8
	ldr         w8,[sp,#0x10]
	sxtw        x9,w8
	mov         x8,#1
	mul         x9,x9,x8
	ldr         x8,[sp,#0x18]
	add         x8,x8,x9
	ldrb        w9,[x8]
	mov         w9,w9
	mov         w8,#0x1D
	mul         w8,w9,w8
	add         w10,w10,w8
	ldr         w8,[sp,#0x2C]
	sxtw        x9,w8
	mov         x8,#1
	mul         x9,x9,x8
	ldr         x8,[sp,#0x18]
	add         x8,x8,x9
	ldrb        w9,[x8]
	mov         w9,w9
	mov         w8,#-3
	mul         w8,w9,w8
	add         w1,w10,w8
	mov         w1,w1
	ldr         x0,[sp,#0x40]
	bl          |?CF@Decoder@Jpeg@@AEAAEH@Z|
	uxtb        w9,w0
	ldr         x8,[sp,#0x20]
	strb        w9,[x8]
	ldr         w8,[sp,#0x28]
	sxtw        x9,w8
	ldr         x8,[sp,#0x20]
	add         x8,x8,x9
	str         x8,[sp,#0x20]

; 566  : 					*cout = CF(CF4D * cin[-s1] + CF4C * cin[0] + CF4B * cin[s1] + CF4A * cin[s2]);  cout += w;

	ldr         w8,[sp,#0x10]
	neg         w8,w8
	sxtw        x9,w8
	mov         x8,#1
	mul         x9,x9,x8
	ldr         x8,[sp,#0x18]
	add         x8,x8,x9
	ldrb        w9,[x8]
	mov         w9,w9
	mov         w8,#-3
	mul         w10,w9,w8
	ldr         x8,[sp,#0x18]
	ldrb        w9,[x8]
	mov         w9,w9
	mov         w8,#0x1D
	mul         w8,w9,w8
	add         w10,w10,w8
	ldr         w8,[sp,#0x10]
	sxtw        x9,w8
	mov         x8,#1
	mul         x9,x9,x8
	ldr         x8,[sp,#0x18]
	add         x8,x8,x9
	ldrb        w9,[x8]
	mov         w9,w9
	mov         w8,#0x6F
	mul         w8,w9,w8
	add         w10,w10,w8
	ldr         w8,[sp,#0x2C]
	sxtw        x9,w8
	mov         x8,#1
	mul         x9,x9,x8
	ldr         x8,[sp,#0x18]
	add         x8,x8,x9
	ldrb        w9,[x8]
	mov         w9,w9
	mov         w8,#-9
	mul         w8,w9,w8
	add         w1,w10,w8
	mov         w1,w1
	ldr         x0,[sp,#0x40]
	bl          |?CF@Decoder@Jpeg@@AEAAEH@Z|
	uxtb        w9,w0
	ldr         x8,[sp,#0x20]
	strb        w9,[x8]
	ldr         w8,[sp,#0x28]
	sxtw        x9,w8
	ldr         x8,[sp,#0x20]
	add         x8,x8,x9
	str         x8,[sp,#0x20]

; 567  : 					cin += s1;

	ldr         w8,[sp,#0x10]
	sxtw        x9,w8
	ldr         x8,[sp,#0x18]
	add         x8,x8,x9
	str         x8,[sp,#0x18]

; 568  : 				}

	b           |$LN8@UpsampleV|
|$LN9@UpsampleV|

; 569  : 				cin += s1;

	ldr         w8,[sp,#0x10]
	sxtw        x9,w8
	ldr         x8,[sp,#0x18]
	add         x8,x8,x9
	str         x8,[sp,#0x18]

; 570  : 				*cout = CF(CF3A * cin[0] + CF3B * cin[-s1] + CF3C * cin[-s2]);  cout += w;

	ldr         x8,[sp,#0x18]
	ldrb        w9,[x8]
	mov         w9,w9
	mov         w8,#0x1C
	mul         w10,w9,w8
	ldr         w8,[sp,#0x10]
	neg         w8,w8
	sxtw        x9,w8
	mov         x8,#1
	mul         x9,x9,x8
	ldr         x8,[sp,#0x18]
	add         x8,x8,x9
	ldrb        w9,[x8]
	mov         w9,w9
	mov         w8,#0x6D
	mul         w8,w9,w8
	add         w10,w10,w8
	ldr         w8,[sp,#0x2C]
	neg         w8,w8
	sxtw        x9,w8
	mov         x8,#1
	mul         x9,x9,x8
	ldr         x8,[sp,#0x18]
	add         x8,x8,x9
	ldrb        w9,[x8]
	mov         w9,w9
	mov         w8,#-9
	mul         w8,w9,w8
	add         w1,w10,w8
	mov         w1,w1
	ldr         x0,[sp,#0x40]
	bl          |?CF@Decoder@Jpeg@@AEAAEH@Z|
	uxtb        w9,w0
	ldr         x8,[sp,#0x20]
	strb        w9,[x8]
	ldr         w8,[sp,#0x28]
	sxtw        x9,w8
	ldr         x8,[sp,#0x20]
	add         x8,x8,x9
	str         x8,[sp,#0x20]

; 571  : 				*cout = CF(CF3X * cin[0] + CF3Y * cin[-s1] + CF3Z * cin[-s2]);  cout += w;

	ldr         x8,[sp,#0x18]
	ldrb        w9,[x8]
	mov         w9,w9
	mov         w8,#0x68
	mul         w10,w9,w8
	ldr         w8,[sp,#0x10]
	neg         w8,w8
	sxtw        x9,w8
	mov         x8,#1
	mul         x9,x9,x8
	ldr         x8,[sp,#0x18]
	add         x8,x8,x9
	ldrb        w9,[x8]
	mov         w9,w9
	mov         w8,#0x1B
	mul         w8,w9,w8
	add         w10,w10,w8
	ldr         w8,[sp,#0x2C]
	neg         w8,w8
	sxtw        x9,w8
	mov         x8,#1
	mul         x9,x9,x8
	ldr         x8,[sp,#0x18]
	add         x8,x8,x9
	ldrb        w9,[x8]
	mov         w9,w9
	mov         w8,#-3
	mul         w8,w9,w8
	add         w1,w10,w8
	mov         w1,w1
	ldr         x0,[sp,#0x40]
	bl          |?CF@Decoder@Jpeg@@AEAAEH@Z|
	uxtb        w9,w0
	ldr         x8,[sp,#0x20]
	strb        w9,[x8]
	ldr         w8,[sp,#0x28]
	sxtw        x9,w8
	ldr         x8,[sp,#0x20]
	add         x8,x8,x9
	str         x8,[sp,#0x20]

; 572  : 				*cout = CF(CF2A * cin[0] + CF2B * cin[-s1]);

	ldr         x8,[sp,#0x18]
	ldrb        w9,[x8]
	mov         w9,w9
	mov         w8,#0x8B
	mul         w10,w9,w8
	ldr         w8,[sp,#0x10]
	neg         w8,w8
	sxtw        x9,w8
	mov         x8,#1
	mul         x9,x9,x8
	ldr         x8,[sp,#0x18]
	add         x8,x8,x9
	ldrb        w9,[x8]
	mov         w9,w9
	mov         w8,#-0xB
	mul         w8,w9,w8
	add         w1,w10,w8
	mov         w1,w1
	ldr         x0,[sp,#0x40]
	bl          |?CF@Decoder@Jpeg@@AEAAEH@Z|
	uxtb        w9,w0
	ldr         x8,[sp,#0x20]
	strb        w9,[x8]

; 573  : 			}

	b           |$LN5@UpsampleV|
|$LN6@UpsampleV|

; 574  : 			c->height <<= 1;

	ldr         x8,[sp,#0x30]
	add         x8,x8,#0x10
	ldr         w8,[x8]
	lsl         w9,w8,#1
	ldr         x8,[sp,#0x30]
	add         x8,x8,#0x10
	str         w9,[x8]

; 575  : 			c->stride = c->width;

	ldr         x8,[sp,#0x30]
	add         x10,x8,#0xC
	ldr         x8,[sp,#0x30]
	add         x9,x8,#0x14
	ldr         w8,[x10]
	str         w8,[x9]

; 576  : 			FreeMem(c->pixels);

	ldr         x8,[sp,#0x30]
	add         x9,x8,#0x28
	ldr         x8,[sp,#0x40]
	add         x8,x8,#0x80,lsl #0xC
	add         x8,x8,#0x328
	ldr         x0,[x9]
	ldr         x8,[x8]
	blr         x8

; 577  : 			c->pixels = out;

	ldr         x8,[sp,#0x30]
	add         x9,x8,#0x28
	ldr         x8,[sp,#0x50]
	str         x8,[x9]
|$LN1@UpsampleV|
	ldp         fp,lr,[sp],#0x60
	ret

	ENDP  ; |?_UpsampleV@Decoder@Jpeg@@AEAAXPEAUComponent@12@@Z|, Jpeg::Decoder::_UpsampleV

; Function compile flags: /Odtp
; File C:\Users\paras\source\repos\grep-name\XenevaOS\Libs\Chitralekha\nanojpg.h

	AREA	|.text$mn|, CODE, ARM64

|?_UpsampleH@Decoder@Jpeg@@AEAAXPEAUComponent@12@@Z| PROC ; Jpeg::Decoder::_UpsampleH

; 523  : 		inline void _UpsampleH(Component* c) {

|$LN13|
	stp         fp,lr,[sp,#-0x50]!
	mov         fp,sp
	str         x0,[sp,#0x30]
	str         x1,[sp,#0x28]

; 524  : 			const int xmax = c->width - 3;

	ldr         x8,[sp,#0x28]
	add         x8,x8,#0xC
	ldr         w8,[x8]
	sub         w8,w8,#3
	str         w8,[sp,#0x18]

; 525  : 			unsigned char *out, *lin, *lout;
; 526  : 			int x, y;
; 527  : 			out = (unsigned char*)AllocMem((c->width * c->height) << 1);

	ldr         x8,[sp,#0x28]
	add         x9,x8,#0xC
	ldr         x8,[sp,#0x28]
	add         x8,x8,#0x10
	ldr         w9,[x9]
	ldr         w8,[x8]
	mul         w8,w9,w8
	lsl         w0,w8,#1
	ldr         x8,[sp,#0x30]
	add         x8,x8,#0x80,lsl #0xC
	add         x8,x8,#0x320
	mov         w0,w0
	ldr         x8,[x8]
	blr         x8
	str         x0,[sp,#0x40]

; 528  : 			if (!out) JPEG_DECODER_THROW(OutOfMemory);

	ldr         x8,[sp,#0x40]
	cmp         x8,#0
	bne         |$LN11@UpsampleH|
|$LN4@UpsampleH|
	ldr         x9,[sp,#0x30]
	mov         w8,#3
	str         w8,[x9]
	b           |$LN1@UpsampleH|
	mov         w8,#0
	cmp         w8,#0
	bne         |$LN4@UpsampleH|
|$LN11@UpsampleH|

; 529  : 			lin = c->pixels;

	ldr         x8,[sp,#0x28]
	add         x8,x8,#0x28
	ldr         x8,[x8]
	str         x8,[sp,#0x20]

; 530  : 			lout = out;

	ldr         x8,[sp,#0x40]
	str         x8,[sp,#0x38]

; 531  : 			for (y = c->height; y; --y) {

	ldr         x8,[sp,#0x28]
	add         x8,x8,#0x10
	ldr         w8,[x8]
	str         w8,[sp,#0x14]
	b           |$LN7@UpsampleH|
|$LN5@UpsampleH|
	ldr         w8,[sp,#0x14]
	sub         w8,w8,#1
	str         w8,[sp,#0x14]
|$LN7@UpsampleH|
	ldr         w8,[sp,#0x14]
	cmp         w8,#0
	beq         |$LN6@UpsampleH|

; 532  : 				lout[0] = CF(CF2A * lin[0] + CF2B * lin[1]);

	ldr         x8,[sp,#0x20]
	ldrb        w9,[x8]
	mov         w9,w9
	mov         w8,#0x8B
	mul         w10,w9,w8
	ldr         x8,[sp,#0x20]
	add         x8,x8,#1
	ldrb        w9,[x8]
	mov         w9,w9
	mov         w8,#-0xB
	mul         w8,w9,w8
	add         w1,w10,w8
	mov         w1,w1
	ldr         x0,[sp,#0x30]
	bl          |?CF@Decoder@Jpeg@@AEAAEH@Z|
	uxtb        w9,w0
	ldr         x8,[sp,#0x38]
	strb        w9,[x8]

; 533  : 				lout[1] = CF(CF3X * lin[0] + CF3Y * lin[1] + CF3Z * lin[2]);

	ldr         x8,[sp,#0x20]
	ldrb        w9,[x8]
	mov         w9,w9
	mov         w8,#0x68
	mul         w10,w9,w8
	ldr         x8,[sp,#0x20]
	add         x8,x8,#1
	ldrb        w9,[x8]
	mov         w9,w9
	mov         w8,#0x1B
	mul         w8,w9,w8
	add         w10,w10,w8
	ldr         x8,[sp,#0x20]
	add         x8,x8,#2
	ldrb        w9,[x8]
	mov         w9,w9
	mov         w8,#-3
	mul         w8,w9,w8
	add         w1,w10,w8
	mov         w1,w1
	ldr         x0,[sp,#0x30]
	bl          |?CF@Decoder@Jpeg@@AEAAEH@Z|
	uxtb        w9,w0
	ldr         x8,[sp,#0x38]
	add         x8,x8,#1
	strb        w9,[x8]

; 534  : 				lout[2] = CF(CF3A * lin[0] + CF3B * lin[1] + CF3C * lin[2]);

	ldr         x8,[sp,#0x20]
	ldrb        w9,[x8]
	mov         w9,w9
	mov         w8,#0x1C
	mul         w10,w9,w8
	ldr         x8,[sp,#0x20]
	add         x8,x8,#1
	ldrb        w9,[x8]
	mov         w9,w9
	mov         w8,#0x6D
	mul         w8,w9,w8
	add         w10,w10,w8
	ldr         x8,[sp,#0x20]
	add         x8,x8,#2
	ldrb        w9,[x8]
	mov         w9,w9
	mov         w8,#-9
	mul         w8,w9,w8
	add         w1,w10,w8
	mov         w1,w1
	ldr         x0,[sp,#0x30]
	bl          |?CF@Decoder@Jpeg@@AEAAEH@Z|
	uxtb        w9,w0
	ldr         x8,[sp,#0x38]
	add         x8,x8,#2
	strb        w9,[x8]

; 535  : 				for (x = 0; x < xmax; ++x) {

	mov         w8,#0
	str         w8,[sp,#0x10]
	b           |$LN10@UpsampleH|
|$LN8@UpsampleH|
	ldr         w8,[sp,#0x10]
	add         w8,w8,#1
	str         w8,[sp,#0x10]
|$LN10@UpsampleH|
	ldr         w9,[sp,#0x18]
	ldr         w8,[sp,#0x10]
	cmp         w8,w9
	bge         |$LN9@UpsampleH|

; 536  : 					lout[(x << 1) + 3] = CF(CF4A * lin[x] + CF4B * lin[x + 1] + CF4C * lin[x + 2] + CF4D * lin[x + 3]);

	ldr         w8,[sp,#0x10]
	sxtw        x9,w8
	mov         x8,#1
	mul         x9,x9,x8
	ldr         x8,[sp,#0x20]
	add         x8,x8,x9
	ldrb        w9,[x8]
	mov         w9,w9
	mov         w8,#-9
	mul         w10,w9,w8
	ldr         w8,[sp,#0x10]
	add         w8,w8,#1
	sxtw        x9,w8
	mov         x8,#1
	mul         x9,x9,x8
	ldr         x8,[sp,#0x20]
	add         x8,x8,x9
	ldrb        w9,[x8]
	mov         w9,w9
	mov         w8,#0x6F
	mul         w8,w9,w8
	add         w10,w10,w8
	ldr         w8,[sp,#0x10]
	add         w8,w8,#2
	sxtw        x9,w8
	mov         x8,#1
	mul         x9,x9,x8
	ldr         x8,[sp,#0x20]
	add         x8,x8,x9
	ldrb        w9,[x8]
	mov         w9,w9
	mov         w8,#0x1D
	mul         w8,w9,w8
	add         w10,w10,w8
	ldr         w8,[sp,#0x10]
	add         w8,w8,#3
	sxtw        x9,w8
	mov         x8,#1
	mul         x9,x9,x8
	ldr         x8,[sp,#0x20]
	add         x8,x8,x9
	ldrb        w9,[x8]
	mov         w9,w9
	mov         w8,#-3
	mul         w8,w9,w8
	add         w1,w10,w8
	mov         w1,w1
	ldr         x0,[sp,#0x30]
	bl          |?CF@Decoder@Jpeg@@AEAAEH@Z|
	uxtb        w10,w0
	ldr         w8,[sp,#0x10]
	lsl         w8,w8,#1
	add         w8,w8,#3
	sxtw        x9,w8
	mov         x8,#1
	mul         x9,x9,x8
	ldr         x8,[sp,#0x38]
	add         x8,x8,x9
	strb        w10,[x8]

; 537  : 					lout[(x << 1) + 4] = CF(CF4D * lin[x] + CF4C * lin[x + 1] + CF4B * lin[x + 2] + CF4A * lin[x + 3]);

	ldr         w8,[sp,#0x10]
	sxtw        x9,w8
	mov         x8,#1
	mul         x9,x9,x8
	ldr         x8,[sp,#0x20]
	add         x8,x8,x9
	ldrb        w9,[x8]
	mov         w9,w9
	mov         w8,#-3
	mul         w10,w9,w8
	ldr         w8,[sp,#0x10]
	add         w8,w8,#1
	sxtw        x9,w8
	mov         x8,#1
	mul         x9,x9,x8
	ldr         x8,[sp,#0x20]
	add         x8,x8,x9
	ldrb        w9,[x8]
	mov         w9,w9
	mov         w8,#0x1D
	mul         w8,w9,w8
	add         w10,w10,w8
	ldr         w8,[sp,#0x10]
	add         w8,w8,#2
	sxtw        x9,w8
	mov         x8,#1
	mul         x9,x9,x8
	ldr         x8,[sp,#0x20]
	add         x8,x8,x9
	ldrb        w9,[x8]
	mov         w9,w9
	mov         w8,#0x6F
	mul         w8,w9,w8
	add         w10,w10,w8
	ldr         w8,[sp,#0x10]
	add         w8,w8,#3
	sxtw        x9,w8
	mov         x8,#1
	mul         x9,x9,x8
	ldr         x8,[sp,#0x20]
	add         x8,x8,x9
	ldrb        w9,[x8]
	mov         w9,w9
	mov         w8,#-9
	mul         w8,w9,w8
	add         w1,w10,w8
	mov         w1,w1
	ldr         x0,[sp,#0x30]
	bl          |?CF@Decoder@Jpeg@@AEAAEH@Z|
	uxtb        w10,w0
	ldr         w8,[sp,#0x10]
	lsl         w8,w8,#1
	add         w8,w8,#4
	sxtw        x9,w8
	mov         x8,#1
	mul         x9,x9,x8
	ldr         x8,[sp,#0x38]
	add         x8,x8,x9
	strb        w10,[x8]

; 538  : 				}

	b           |$LN8@UpsampleH|
|$LN9@UpsampleH|

; 539  : 				lin += c->stride;

	ldr         x8,[sp,#0x28]
	add         x8,x8,#0x14
	ldr         w8,[x8]
	sxtw        x9,w8
	ldr         x8,[sp,#0x20]
	add         x8,x8,x9
	str         x8,[sp,#0x20]

; 540  : 				lout += c->width << 1;

	ldr         x8,[sp,#0x28]
	add         x8,x8,#0xC
	ldr         w8,[x8]
	lsl         w8,w8,#1
	sxtw        x9,w8
	ldr         x8,[sp,#0x38]
	add         x8,x8,x9
	str         x8,[sp,#0x38]

; 541  : 				lout[-3] = CF(CF3A * lin[-1] + CF3B * lin[-2] + CF3C * lin[-3]);

	ldr         x9,[sp,#0x20]
	mov         x8,#-1
	add         x8,x9,x8
	ldrb        w9,[x8]
	mov         w9,w9
	mov         w8,#0x1C
	mul         w10,w9,w8
	ldr         x9,[sp,#0x20]
	mov         x8,#-2
	add         x8,x9,x8
	ldrb        w9,[x8]
	mov         w9,w9
	mov         w8,#0x6D
	mul         w8,w9,w8
	add         w10,w10,w8
	ldr         x9,[sp,#0x20]
	mov         x8,#-3
	add         x8,x9,x8
	ldrb        w9,[x8]
	mov         w9,w9
	mov         w8,#-9
	mul         w8,w9,w8
	add         w1,w10,w8
	mov         w1,w1
	ldr         x0,[sp,#0x30]
	bl          |?CF@Decoder@Jpeg@@AEAAEH@Z|
	uxtb        w10,w0
	ldr         x9,[sp,#0x38]
	mov         x8,#-3
	add         x8,x9,x8
	strb        w10,[x8]

; 542  : 				lout[-2] = CF(CF3X * lin[-1] + CF3Y * lin[-2] + CF3Z * lin[-3]);

	ldr         x9,[sp,#0x20]
	mov         x8,#-1
	add         x8,x9,x8
	ldrb        w9,[x8]
	mov         w9,w9
	mov         w8,#0x68
	mul         w10,w9,w8
	ldr         x9,[sp,#0x20]
	mov         x8,#-2
	add         x8,x9,x8
	ldrb        w9,[x8]
	mov         w9,w9
	mov         w8,#0x1B
	mul         w8,w9,w8
	add         w10,w10,w8
	ldr         x9,[sp,#0x20]
	mov         x8,#-3
	add         x8,x9,x8
	ldrb        w9,[x8]
	mov         w9,w9
	mov         w8,#-3
	mul         w8,w9,w8
	add         w1,w10,w8
	mov         w1,w1
	ldr         x0,[sp,#0x30]
	bl          |?CF@Decoder@Jpeg@@AEAAEH@Z|
	uxtb        w10,w0
	ldr         x9,[sp,#0x38]
	mov         x8,#-2
	add         x8,x9,x8
	strb        w10,[x8]

; 543  : 				lout[-1] = CF(CF2A * lin[-1] + CF2B * lin[-2]);

	ldr         x9,[sp,#0x20]
	mov         x8,#-1
	add         x8,x9,x8
	ldrb        w9,[x8]
	mov         w9,w9
	mov         w8,#0x8B
	mul         w10,w9,w8
	ldr         x9,[sp,#0x20]
	mov         x8,#-2
	add         x8,x9,x8
	ldrb        w9,[x8]
	mov         w9,w9
	mov         w8,#-0xB
	mul         w8,w9,w8
	add         w1,w10,w8
	mov         w1,w1
	ldr         x0,[sp,#0x30]
	bl          |?CF@Decoder@Jpeg@@AEAAEH@Z|
	uxtb        w10,w0
	ldr         x9,[sp,#0x38]
	mov         x8,#-1
	add         x8,x9,x8
	strb        w10,[x8]

; 544  : 			}

	b           |$LN5@UpsampleH|
|$LN6@UpsampleH|

; 545  : 			c->width <<= 1;

	ldr         x8,[sp,#0x28]
	add         x8,x8,#0xC
	ldr         w8,[x8]
	lsl         w9,w8,#1
	ldr         x8,[sp,#0x28]
	add         x8,x8,#0xC
	str         w9,[x8]

; 546  : 			c->stride = c->width;

	ldr         x8,[sp,#0x28]
	add         x10,x8,#0xC
	ldr         x8,[sp,#0x28]
	add         x9,x8,#0x14
	ldr         w8,[x10]
	str         w8,[x9]

; 547  : 			FreeMem(c->pixels);

	ldr         x8,[sp,#0x28]
	add         x9,x8,#0x28
	ldr         x8,[sp,#0x30]
	add         x8,x8,#0x80,lsl #0xC
	add         x8,x8,#0x328
	ldr         x0,[x9]
	ldr         x8,[x8]
	blr         x8

; 548  : 			c->pixels = out;

	ldr         x8,[sp,#0x28]
	add         x9,x8,#0x28
	ldr         x8,[sp,#0x40]
	str         x8,[x9]
|$LN1@UpsampleH|
	ldp         fp,lr,[sp],#0x50
	ret

	ENDP  ; |?_UpsampleH@Decoder@Jpeg@@AEAAXPEAUComponent@12@@Z|, Jpeg::Decoder::_UpsampleH

; Function compile flags: /Odtp
; File C:\Users\paras\source\repos\grep-name\XenevaOS\Libs\Chitralekha\nanojpg.h

	AREA	|.text$mn|, CODE, ARM64

|?CF@Decoder@Jpeg@@AEAAEH@Z| PROC			; Jpeg::Decoder::CF

; 519  : 		inline unsigned char CF(const int x) {

|$LN3|
	stp         fp,lr,[sp,#-0x20]!
	mov         fp,sp
	str         x0,[sp,#0x18]
	str         w1,[sp,#0x10]

; 520  : 			return _Clip((x + 64) >> 7);

	ldr         w8,[sp,#0x10]
	add         w8,w8,#0x40
	asr         w1,w8,#7
	mov         w1,w1
	ldr         x0,[sp,#0x18]
	bl          |?_Clip@Decoder@Jpeg@@AEAAEH@Z|
	uxtb        w0,w0
	mov         w0,w0
	ldp         fp,lr,[sp],#0x20
	ret

	ENDP  ; |?CF@Decoder@Jpeg@@AEAAEH@Z|, Jpeg::Decoder::CF

; Function compile flags: /Odtp
; File C:\Users\paras\source\repos\grep-name\XenevaOS\Libs\Chitralekha\nanojpg.h

	AREA	|.text$mn|, CODE, ARM64

|?_DecodeScan@Decoder@Jpeg@@AEAAXXZ| PROC		; Jpeg::Decoder::_DecodeScan

; 465  : 		inline void _DecodeScan(void) {

|$LN52|
	stp         fp,lr,[sp,#-0x40]!
	mov         fp,sp
	str         x0,[sp,#0x10]

; 466  : 			int i, mbx, mby, sbx, sby;
; 467  : 			int rstcount = ctx.rstinterval, nextrst = 0;

	ldr         x8,[sp,#0x10]
	add         x8,x8,#0x80,lsl #0xC
	add         x8,x8,#0x2D4
	ldr         w8,[x8]
	str         w8,[sp,#0x38]
	mov         w8,#0
	str         w8,[sp,#0x3C]

; 468  : 			Component* c;
; 469  : 			_DecodeLength();

	ldr         x0,[sp,#0x10]
	bl          |?_DecodeLength@Decoder@Jpeg@@AEAAXXZ|

; 470  : 			if (ctx.length < (4 + 2 * ctx.ncomp)) JPEG_DECODER_THROW(SyntaxError);

	ldr         x8,[sp,#0x10]
	add         x10,x8,#0x14
	ldr         x8,[sp,#0x10]
	add         x8,x8,#0x30
	ldr         w9,[x8]
	mov         w8,#2
	mul         w8,w9,w8
	add         w9,w8,#4
	ldr         w8,[x10]
	cmp         w8,w9
	bge         |$LN41@DecodeScan|
|$LN4@DecodeScan|
	ldr         x9,[sp,#0x10]
	mov         w8,#5
	str         w8,[x9]
	b           |$LN1@DecodeScan|
	mov         w8,#0
	cmp         w8,#0
	bne         |$LN4@DecodeScan|
|$LN41@DecodeScan|

; 471  : 			if (ctx.pos[0] != ctx.ncomp) JPEG_DECODER_THROW(Unsupported);

	ldr         x8,[sp,#0x10]
	add         x8,x8,#8
	ldr         x8,[x8]
	ldrb        w9,[x8]
	mov         w9,w9
	ldr         x8,[sp,#0x10]
	add         x8,x8,#0x30
	ldr         w8,[x8]
	cmp         w9,w8
	beq         |$LN42@DecodeScan|
|$LN7@DecodeScan|
	ldr         x9,[sp,#0x10]
	mov         w8,#2
	str         w8,[x9]
	b           |$LN1@DecodeScan|
	mov         w8,#0
	cmp         w8,#0
	bne         |$LN7@DecodeScan|
|$LN42@DecodeScan|

; 472  : 			_Skip(1);

	mov         w1,#1
	ldr         x0,[sp,#0x10]
	bl          |?_Skip@Decoder@Jpeg@@AEAAXH@Z|

; 473  : 			for (i = 0, c = ctx.comp; i < ctx.ncomp; ++i, ++c) {

	mov         w8,#0
	str         w8,[sp,#0x18]
	ldr         x8,[sp,#0x10]
	add         x8,x8,#0x34
	str         x8,[sp,#0x20]
	b           |$LN10@DecodeScan|
|$LN8@DecodeScan|
	ldr         w8,[sp,#0x18]
	add         w8,w8,#1
	str         w8,[sp,#0x18]
	ldr         x8,[sp,#0x20]
	add         x8,x8,#0x30
	str         x8,[sp,#0x20]
|$LN10@DecodeScan|
	ldr         x8,[sp,#0x10]
	add         x8,x8,#0x30
	ldr         w9,[x8]
	ldr         w8,[sp,#0x18]
	cmp         w8,w9
	bge         |$LN9@DecodeScan|

; 474  : 				if (ctx.pos[0] != c->cid) JPEG_DECODER_THROW(SyntaxError);

	ldr         x8,[sp,#0x10]
	add         x8,x8,#8
	ldr         x8,[x8]
	ldrb        w9,[x8]
	mov         w9,w9
	ldr         x8,[sp,#0x20]
	ldr         w8,[x8]
	cmp         w9,w8
	beq         |$LN43@DecodeScan|
|$LN13@DecodeScan|
	ldr         x9,[sp,#0x10]
	mov         w8,#5
	str         w8,[x9]
	b           |$LN1@DecodeScan|
	mov         w8,#0
	cmp         w8,#0
	bne         |$LN13@DecodeScan|
|$LN43@DecodeScan|

; 475  : 				if (ctx.pos[1] & 0xEE) JPEG_DECODER_THROW(SyntaxError);

	ldr         x8,[sp,#0x10]
	add         x8,x8,#8
	ldr         x8,[x8]
	add         x8,x8,#1
	ldrb        w9,[x8]
	mov         w9,w9
	mov         w8,#0xEE
	and         w8,w9,w8
	cmp         w8,#0
	beq         |$LN44@DecodeScan|
|$LN16@DecodeScan|
	ldr         x9,[sp,#0x10]
	mov         w8,#5
	str         w8,[x9]
	b           |$LN1@DecodeScan|
	mov         w8,#0
	cmp         w8,#0
	bne         |$LN16@DecodeScan|
|$LN44@DecodeScan|

; 476  : 				c->dctabsel = ctx.pos[1] >> 4;

	ldr         x8,[sp,#0x10]
	add         x8,x8,#8
	ldr         x8,[x8]
	add         x8,x8,#1
	ldrb        w8,[x8]
	mov         w8,w8
	asr         w9,w8,#4
	ldr         x8,[sp,#0x20]
	add         x8,x8,#0x20
	str         w9,[x8]

; 477  : 				c->actabsel = (ctx.pos[1] & 1) | 2;

	ldr         x8,[sp,#0x10]
	add         x8,x8,#8
	ldr         x8,[x8]
	add         x8,x8,#1
	ldrb        w8,[x8]
	mov         w8,w8
	and         w8,w8,#1
	orr         w9,w8,#2
	ldr         x8,[sp,#0x20]
	add         x8,x8,#0x1C
	str         w9,[x8]

; 478  : 				_Skip(2);

	mov         w1,#2
	ldr         x0,[sp,#0x10]
	bl          |?_Skip@Decoder@Jpeg@@AEAAXH@Z|

; 479  : 			}

	b           |$LN8@DecodeScan|
|$LN9@DecodeScan|

; 480  : 			if (ctx.pos[0] || (ctx.pos[1] != 63) || ctx.pos[2]) JPEG_DECODER_THROW(Unsupported);

	ldr         x8,[sp,#0x10]
	add         x8,x8,#8
	ldr         x8,[x8]
	ldrb        w8,[x8]
	mov         w8,w8
	cmp         w8,#0
	bne         |$LN46@DecodeScan|
	ldr         x8,[sp,#0x10]
	add         x8,x8,#8
	ldr         x8,[x8]
	add         x8,x8,#1
	ldrb        w8,[x8]
	mov         w8,w8
	cmp         w8,#0x3F
	bne         |$LN46@DecodeScan|
	ldr         x8,[sp,#0x10]
	add         x8,x8,#8
	ldr         x8,[x8]
	add         x8,x8,#2
	ldrb        w8,[x8]
	mov         w8,w8
	cmp         w8,#0
	beq         |$LN45@DecodeScan|
|$LN46@DecodeScan|
|$LN19@DecodeScan|
	ldr         x9,[sp,#0x10]
	mov         w8,#2
	str         w8,[x9]
	b           |$LN1@DecodeScan|
	mov         w8,#0
	cmp         w8,#0
	bne         |$LN19@DecodeScan|
|$LN45@DecodeScan|

; 481  : 			_Skip(ctx.length);

	ldr         x8,[sp,#0x10]
	add         x8,x8,#0x14
	ldr         w1,[x8]
	ldr         x0,[sp,#0x10]
	bl          |?_Skip@Decoder@Jpeg@@AEAAXH@Z|

; 482  : 			for (mby = 0; mby < ctx.mbheight; ++mby)

	mov         w8,#0
	str         w8,[sp,#0x28]
	b           |$LN22@DecodeScan|
|$LN20@DecodeScan|
	ldr         w8,[sp,#0x28]
	add         w8,w8,#1
	str         w8,[sp,#0x28]
|$LN22@DecodeScan|
	ldr         x8,[sp,#0x10]
	add         x8,x8,#0x24
	ldr         w9,[x8]
	ldr         w8,[sp,#0x28]
	cmp         w8,w9
	bge         |$LN21@DecodeScan|

; 483  : 			for (mbx = 0; mbx < ctx.mbwidth; ++mbx) {

	mov         w8,#0
	str         w8,[sp,#0x30]
	b           |$LN25@DecodeScan|
|$LN23@DecodeScan|
	ldr         w8,[sp,#0x30]
	add         w8,w8,#1
	str         w8,[sp,#0x30]
|$LN25@DecodeScan|
	ldr         x8,[sp,#0x10]
	add         x8,x8,#0x20
	ldr         w9,[x8]
	ldr         w8,[sp,#0x30]
	cmp         w8,w9
	bge         |$LN24@DecodeScan|

; 484  : 				for (i = 0, c = ctx.comp; i < ctx.ncomp; ++i, ++c)

	mov         w8,#0
	str         w8,[sp,#0x18]
	ldr         x8,[sp,#0x10]
	add         x8,x8,#0x34
	str         x8,[sp,#0x20]
	b           |$LN28@DecodeScan|
|$LN26@DecodeScan|
	ldr         w8,[sp,#0x18]
	add         w8,w8,#1
	str         w8,[sp,#0x18]
	ldr         x8,[sp,#0x20]
	add         x8,x8,#0x30
	str         x8,[sp,#0x20]
|$LN28@DecodeScan|
	ldr         x8,[sp,#0x10]
	add         x8,x8,#0x30
	ldr         w9,[x8]
	ldr         w8,[sp,#0x18]
	cmp         w8,w9
	bge         |$LN27@DecodeScan|

; 485  : 				for (sby = 0; sby < c->ssy; ++sby)

	mov         w8,#0
	str         w8,[sp,#0x2C]
	b           |$LN31@DecodeScan|
|$LN29@DecodeScan|
	ldr         w8,[sp,#0x2C]
	add         w8,w8,#1
	str         w8,[sp,#0x2C]
|$LN31@DecodeScan|
	ldr         x8,[sp,#0x20]
	add         x8,x8,#8
	ldr         w9,[x8]
	ldr         w8,[sp,#0x2C]
	cmp         w8,w9
	bge         |$LN30@DecodeScan|

; 486  : 				for (sbx = 0; sbx < c->ssx; ++sbx) {

	mov         w8,#0
	str         w8,[sp,#0x34]
	b           |$LN34@DecodeScan|
|$LN32@DecodeScan|
	ldr         w8,[sp,#0x34]
	add         w8,w8,#1
	str         w8,[sp,#0x34]
|$LN34@DecodeScan|
	ldr         x8,[sp,#0x20]
	add         x8,x8,#4
	ldr         w9,[x8]
	ldr         w8,[sp,#0x34]
	cmp         w8,w9
	bge         |$LN33@DecodeScan|

; 487  : 					_DecodeBlock(c, &c->pixels[((mby * c->ssy + sby) * c->stride + mbx * c->ssx + sbx) << 3]);

	ldr         x8,[sp,#0x20]
	add         x11,x8,#0x28
	ldr         x8,[sp,#0x20]
	add         x8,x8,#8
	ldr         w9,[sp,#0x28]
	ldr         w8,[x8]
	mul         w9,w9,w8
	ldr         w8,[sp,#0x2C]
	add         w9,w9,w8
	ldr         x8,[sp,#0x20]
	add         x8,x8,#0x14
	ldr         w8,[x8]
	mul         w10,w9,w8
	ldr         x8,[sp,#0x20]
	add         x8,x8,#4
	ldr         w9,[sp,#0x30]
	ldr         w8,[x8]
	mul         w8,w9,w8
	add         w9,w10,w8
	ldr         w8,[sp,#0x34]
	add         w8,w9,w8
	lsl         w8,w8,#3
	sxtw        x9,w8
	mov         x8,#1
	mul         x9,x9,x8
	ldr         x8,[x11]
	add         x2,x8,x9
	ldr         x1,[sp,#0x20]
	ldr         x0,[sp,#0x10]
	bl          |?_DecodeBlock@Decoder@Jpeg@@AEAAXPEAUComponent@12@PEAE@Z|

; 488  : 					if (ctx.error)

	ldr         x8,[sp,#0x10]
	ldr         w8,[x8]
	cmp         w8,#0
	beq         |$LN47@DecodeScan|

; 489  : 						return;

	b           |$LN1@DecodeScan|
|$LN47@DecodeScan|

; 490  : 				}

	b           |$LN32@DecodeScan|
|$LN33@DecodeScan|
	b           |$LN29@DecodeScan|
|$LN30@DecodeScan|
	b           |$LN26@DecodeScan|
|$LN27@DecodeScan|

; 491  : 				if (ctx.rstinterval && !(--rstcount)) {

	ldr         x8,[sp,#0x10]
	add         x8,x8,#0x80,lsl #0xC
	add         x8,x8,#0x2D4
	ldr         w8,[x8]
	cmp         w8,#0
	beq         |$LN48@DecodeScan|
	ldr         w8,[sp,#0x38]
	sub         w8,w8,#1
	str         w8,[sp,#0x38]
	ldr         w8,[sp,#0x38]
	cmp         w8,#0
	bne         |$LN48@DecodeScan|

; 492  : 					_ByteAlign();

	ldr         x0,[sp,#0x10]
	bl          |?_ByteAlign@Decoder@Jpeg@@AEAAXXZ|

; 493  : 					i = _GetBits(16);

	mov         w1,#0x10
	ldr         x0,[sp,#0x10]
	bl          |?_GetBits@Decoder@Jpeg@@AEAAHH@Z|
	mov         w0,w0
	str         w0,[sp,#0x18]

; 494  : 					if (((i & 0xFFF8) != 0xFFD0) || ((i & 7) != nextrst)) JPEG_DECODER_THROW(SyntaxError);

	ldr         w8,[sp,#0x18]
	and         w9,w8,#0xFFF8
	mov         w8,#0xFFD0
	cmp         w9,w8
	bne         |$LN50@DecodeScan|
	ldr         w8,[sp,#0x18]
	and         w9,w8,#7
	ldr         w8,[sp,#0x3C]
	cmp         w9,w8
	beq         |$LN49@DecodeScan|
|$LN50@DecodeScan|
|$LN37@DecodeScan|
	ldr         x9,[sp,#0x10]
	mov         w8,#5
	str         w8,[x9]
	b           |$LN1@DecodeScan|
	mov         w8,#0
	cmp         w8,#0
	bne         |$LN37@DecodeScan|
|$LN49@DecodeScan|

; 495  : 					nextrst = (nextrst + 1) & 7;

	ldr         w8,[sp,#0x3C]
	add         w8,w8,#1
	and         w8,w8,#7
	str         w8,[sp,#0x3C]

; 496  : 					rstcount = ctx.rstinterval;

	ldr         x8,[sp,#0x10]
	add         x8,x8,#0x80,lsl #0xC
	add         x8,x8,#0x2D4
	ldr         w8,[x8]
	str         w8,[sp,#0x38]

; 497  : 					for (i = 0; i < 3; ++i)

	mov         w8,#0
	str         w8,[sp,#0x18]
	b           |$LN40@DecodeScan|
|$LN38@DecodeScan|
	ldr         w8,[sp,#0x18]
	add         w8,w8,#1
	str         w8,[sp,#0x18]
|$LN40@DecodeScan|
	ldr         w8,[sp,#0x18]
	cmp         w8,#3
	bge         |$LN39@DecodeScan|

; 498  : 						ctx.comp[i].dcpred = 0;

	ldr         x8,[sp,#0x10]
	add         x10,x8,#0x34
	ldr         w8,[sp,#0x18]
	sxtw        x9,w8
	mov         x8,#0x30
	mul         x8,x9,x8
	add         x8,x10,x8
	add         x9,x8,#0x24
	mov         w8,#0
	str         w8,[x9]
	b           |$LN38@DecodeScan|
|$LN39@DecodeScan|
|$LN48@DecodeScan|

; 499  : 				}
; 500  : 			}

	b           |$LN23@DecodeScan|
|$LN24@DecodeScan|
	b           |$LN20@DecodeScan|
|$LN21@DecodeScan|

; 501  : 			ctx.error = Internal_Finished;

	ldr         x9,[sp,#0x10]
	mov         w8,#6
	str         w8,[x9]
|$LN1@DecodeScan|
	ldp         fp,lr,[sp],#0x40
	ret

	ENDP  ; |?_DecodeScan@Decoder@Jpeg@@AEAAXXZ|, Jpeg::Decoder::_DecodeScan

; Function compile flags: /Odtp
; File C:\Users\paras\source\repos\grep-name\XenevaOS\Libs\Chitralekha\nanojpg.h

	AREA	|.text$mn|, CODE, ARM64

|?_DecodeBlock@Decoder@Jpeg@@AEAAXPEAUComponent@12@PEAE@Z| PROC ; Jpeg::Decoder::_DecodeBlock

; 445  : 		inline void _DecodeBlock(Component* c, unsigned char* out) {

|$LN21|
	str         x19,[sp,#-0x10]!
	stp         fp,lr,[sp,#-0x40]!
	mov         fp,sp
	str         x0,[sp,#0x20]
	str         x1,[sp,#0x28]
	str         x2,[sp,#0x30]

; 446  : 			unsigned char code;
; 447  : 			int value, coef = 0;

	mov         w8,#0
	str         w8,[sp,#0x14]

; 448  : 			memset(ctx.block, 0, sizeof(ctx.block));

	ldr         x8,[sp,#0x20]
	add         x8,x8,#0x80,lsl #0xC
	add         x0,x8,#0x1D4
	mov         x2,#0x100
	mov         w1,#0
	bl          memset

; 449  : 			c->dcpred += _GetVLC(&ctx.vlctab[c->dctabsel][0], NULL);

	ldr         x8,[sp,#0x28]
	add         x19,x8,#0x24
	ldr         x8,[sp,#0x20]
	add         x10,x8,#0x1CC
	ldr         x8,[sp,#0x28]
	add         x8,x8,#0x20
	ldr         w8,[x8]
	sxtw        x9,w8
	mov         x8,#0x20000
	mul         x8,x9,x8
	add         x1,x10,x8
	mov         x2,#0
	ldr         x0,[sp,#0x20]
	bl          |?_GetVLC@Decoder@Jpeg@@AEAAHPEAUVlcCode@12@PEAE@Z|
	mov         w0,w0
	ldr         w8,[x19]
	add         w9,w8,w0
	ldr         x8,[sp,#0x28]
	add         x8,x8,#0x24
	str         w9,[x8]

; 450  : 			ctx.block[0] = (c->dcpred) * ctx.qtab[c->qtsel][0];

	ldr         x8,[sp,#0x28]
	add         x11,x8,#0x24
	ldr         x8,[sp,#0x20]
	add         x10,x8,#0xCC
	ldr         x8,[sp,#0x28]
	add         x8,x8,#0x18
	ldr         w8,[x8]
	sxtw        x9,w8
	mov         x8,#0x40
	mul         x8,x9,x8
	add         x8,x10,x8
	ldrb        w9,[x8]
	mov         w9,w9
	ldr         w8,[x11]
	mul         w9,w8,w9
	ldr         x8,[sp,#0x20]
	add         x8,x8,#0x80,lsl #0xC
	add         x8,x8,#0x1D4
	str         w9,[x8]
|$LN4@DecodeBloc|

; 451  : 			do {
; 452  : 				value = _GetVLC(&ctx.vlctab[c->actabsel][0], &code);

	ldr         x8,[sp,#0x20]
	add         x10,x8,#0x1CC
	ldr         x8,[sp,#0x28]
	add         x8,x8,#0x1C
	ldr         w8,[x8]
	sxtw        x9,w8
	mov         x8,#0x20000
	mul         x8,x9,x8
	add         x1,x10,x8
	add         x2,sp,#0x10
	ldr         x0,[sp,#0x20]
	bl          |?_GetVLC@Decoder@Jpeg@@AEAAHPEAUVlcCode@12@PEAE@Z|
	mov         w0,w0
	str         w0,[sp,#0x18]

; 453  : 				if (!code) break;  // EOB

	ldrb        w8,[sp,#0x10]
	mov         w8,w8
	cmp         w8,#0
	bne         |$LN17@DecodeBloc|
	b           |$LN3@DecodeBloc|
|$LN17@DecodeBloc|

; 454  : 				if (!(code & 0x0F) && (code != 0xF0)) JPEG_DECODER_THROW(SyntaxError);

	ldrb        w8,[sp,#0x10]
	mov         w8,w8
	and         w8,w8,#0xF
	cmp         w8,#0
	bne         |$LN18@DecodeBloc|
	ldrb        w8,[sp,#0x10]
	mov         w8,w8
	cmp         w8,#0xF0
	beq         |$LN18@DecodeBloc|
|$LN7@DecodeBloc|
	ldr         x9,[sp,#0x20]
	mov         w8,#5
	str         w8,[x9]
	b           |$LN1@DecodeBloc|
	mov         w8,#0
	cmp         w8,#0
	bne         |$LN7@DecodeBloc|
|$LN18@DecodeBloc|

; 455  : 				coef += (code >> 4) + 1;

	ldrb        w8,[sp,#0x10]
	mov         w8,w8
	asr         w8,w8,#4
	add         w9,w8,#1
	ldr         w8,[sp,#0x14]
	add         w8,w8,w9
	str         w8,[sp,#0x14]

; 456  : 				if (coef > 63) JPEG_DECODER_THROW(SyntaxError);

	ldr         w8,[sp,#0x14]
	cmp         w8,#0x3F
	ble         |$LN19@DecodeBloc|
|$LN10@DecodeBloc|
	ldr         x9,[sp,#0x20]
	mov         w8,#5
	str         w8,[x9]
	b           |$LN1@DecodeBloc|
	mov         w8,#0
	cmp         w8,#0
	bne         |$LN10@DecodeBloc|
|$LN19@DecodeBloc|

; 457  : 				ctx.block[(int)ZZ[coef]] = value * ctx.qtab[c->qtsel][coef];

	ldr         x8,[sp,#0x20]
	add         x10,x8,#0xCC
	ldr         x8,[sp,#0x28]
	add         x8,x8,#0x18
	ldr         w8,[x8]
	sxtw        x9,w8
	mov         x8,#0x40
	mul         x8,x9,x8
	add         x10,x10,x8
	ldr         w8,[sp,#0x14]
	sxtw        x9,w8
	mov         x8,#1
	mul         x8,x9,x8
	add         x8,x10,x8
	ldrb        w9,[x8]
	mov         w9,w9
	ldr         w8,[sp,#0x18]
	mul         w12,w8,w9
	ldr         x8,[sp,#0x20]
	add         x8,x8,#0x80,lsl #0xC
	add         x11,x8,#0x1D4
	ldr         x8,[sp,#0x20]
	add         x8,x8,#0x80,lsl #0xC
	add         x10,x8,#0x2E0
	ldr         w8,[sp,#0x14]
	sxtw        x9,w8
	mov         x8,#1
	mul         x8,x9,x8
	add         x8,x10,x8
	ldrsb       w8,[x8]
	sxtw        x9,w8
	mov         x8,#4
	mul         x8,x9,x8
	add         x8,x11,x8
	str         w12,[x8]

; 458  : 			} while (coef < 63);

	ldr         w8,[sp,#0x14]
	cmp         w8,#0x3F
	blt         |$LN4@DecodeBloc|
|$LN3@DecodeBloc|

; 459  : 			for (coef = 0; coef < 64; coef += 8)

	mov         w8,#0
	str         w8,[sp,#0x14]
	b           |$LN13@DecodeBloc|
|$LN11@DecodeBloc|
	ldr         w8,[sp,#0x14]
	add         w8,w8,#8
	str         w8,[sp,#0x14]
|$LN13@DecodeBloc|
	ldr         w8,[sp,#0x14]
	cmp         w8,#0x40
	bge         |$LN12@DecodeBloc|

; 460  : 				_RowIDCT(&ctx.block[coef]);

	ldr         x8,[sp,#0x20]
	add         x8,x8,#0x80,lsl #0xC
	add         x10,x8,#0x1D4
	ldr         w8,[sp,#0x14]
	sxtw        x9,w8
	mov         x8,#4
	mul         x8,x9,x8
	add         x1,x10,x8
	ldr         x0,[sp,#0x20]
	bl          |?_RowIDCT@Decoder@Jpeg@@AEAAXPEAH@Z|
	b           |$LN11@DecodeBloc|
|$LN12@DecodeBloc|

; 461  : 			for (coef = 0; coef < 8; ++coef)

	mov         w8,#0
	str         w8,[sp,#0x14]
	b           |$LN16@DecodeBloc|
|$LN14@DecodeBloc|
	ldr         w8,[sp,#0x14]
	add         w8,w8,#1
	str         w8,[sp,#0x14]
|$LN16@DecodeBloc|
	ldr         w8,[sp,#0x14]
	cmp         w8,#8
	bge         |$LN15@DecodeBloc|

; 462  : 				_ColIDCT(&ctx.block[coef], &out[coef], c->stride);

	ldr         x8,[sp,#0x28]
	add         x11,x8,#0x14
	ldr         w8,[sp,#0x14]
	sxtw        x9,w8
	mov         x8,#1
	mul         x9,x9,x8
	ldr         x8,[sp,#0x30]
	add         x2,x8,x9
	ldr         x8,[sp,#0x20]
	add         x8,x8,#0x80,lsl #0xC
	add         x10,x8,#0x1D4
	ldr         w8,[sp,#0x14]
	sxtw        x9,w8
	mov         x8,#4
	mul         x8,x9,x8
	add         x1,x10,x8
	ldr         w3,[x11]
	ldr         x0,[sp,#0x20]
	bl          |?_ColIDCT@Decoder@Jpeg@@AEAAXPEBHPEAEH@Z|
	b           |$LN14@DecodeBloc|
|$LN15@DecodeBloc|
|$LN1@DecodeBloc|
	ldp         fp,lr,[sp],#0x40
	ldr         x19,[sp],#0x10
	ret

	ENDP  ; |?_DecodeBlock@Decoder@Jpeg@@AEAAXPEAUComponent@12@PEAE@Z|, Jpeg::Decoder::_DecodeBlock

; Function compile flags: /Odtp
; File C:\Users\paras\source\repos\grep-name\XenevaOS\Libs\Chitralekha\nanojpg.h

	AREA	|.text$mn|, CODE, ARM64

|?_GetVLC@Decoder@Jpeg@@AEAAHPEAUVlcCode@12@PEAE@Z| PROC ; Jpeg::Decoder::_GetVLC

; 430  : 		inline int _GetVLC(VlcCode* vlc, unsigned char* code) {

|$LN7|
	stp         fp,lr,[sp,#-0x30]!
	mov         fp,sp
	str         x0,[sp,#0x18]
	str         x1,[sp,#0x20]
	str         x2,[sp,#0x28]

; 431  : 			int value = _ShowBits(16);

	mov         w1,#0x10
	ldr         x0,[sp,#0x18]
	bl          |?_ShowBits@Decoder@Jpeg@@AEAAHH@Z|
	mov         w0,w0
	str         w0,[sp,#0x10]

; 432  : 			int bits = vlc[value].bits;

	ldr         w8,[sp,#0x10]
	sxtw        x9,w8
	mov         x8,#2
	mul         x9,x9,x8
	ldr         x8,[sp,#0x20]
	add         x8,x8,x9
	ldrb        w8,[x8]
	mov         w8,w8
	str         w8,[sp,#0x14]

; 433  : 			if (!bits) { ctx.error = SyntaxError; return 0; }

	ldr         w8,[sp,#0x14]
	cmp         w8,#0
	bne         |$LN2@GetVLC|
	ldr         x9,[sp,#0x18]
	mov         w8,#5
	str         w8,[x9]
	mov         w0,#0
	b           |$LN1@GetVLC|
|$LN2@GetVLC|

; 434  : 			_SkipBits(bits);

	ldr         w1,[sp,#0x14]
	ldr         x0,[sp,#0x18]
	bl          |?_SkipBits@Decoder@Jpeg@@AEAAXH@Z|

; 435  : 			value = vlc[value].code;

	ldr         w8,[sp,#0x10]
	sxtw        x9,w8
	mov         x8,#2
	mul         x9,x9,x8
	ldr         x8,[sp,#0x20]
	add         x8,x8,x9
	add         x8,x8,#1
	ldrb        w8,[x8]
	mov         w8,w8
	str         w8,[sp,#0x10]

; 436  : 			if (code) *code = (unsigned char)value;

	ldr         x8,[sp,#0x28]
	cmp         x8,#0
	beq         |$LN3@GetVLC|
	ldr         w8,[sp,#0x10]
	uxtb        w9,w8
	ldr         x8,[sp,#0x28]
	strb        w9,[x8]
|$LN3@GetVLC|

; 437  : 			bits = value & 15;

	ldr         w8,[sp,#0x10]
	and         w8,w8,#0xF
	str         w8,[sp,#0x14]

; 438  : 			if (!bits) return 0;

	ldr         w8,[sp,#0x14]
	cmp         w8,#0
	bne         |$LN4@GetVLC|
	mov         w0,#0
	b           |$LN1@GetVLC|
|$LN4@GetVLC|

; 439  : 			value = _GetBits(bits);

	ldr         w1,[sp,#0x14]
	ldr         x0,[sp,#0x18]
	bl          |?_GetBits@Decoder@Jpeg@@AEAAHH@Z|
	mov         w0,w0
	str         w0,[sp,#0x10]

; 440  : 			if (value < (1 << (bits - 1)))

	ldr         w8,[sp,#0x14]
	sub         w9,w8,#1
	mov         w8,#1
	lsl         w9,w8,w9
	ldr         w8,[sp,#0x10]
	cmp         w8,w9
	bge         |$LN5@GetVLC|

; 441  : 				value += ((-1) << bits) + 1;

	mov         w9,#-1
	ldr         w8,[sp,#0x14]
	lsl         w8,w9,w8
	add         w9,w8,#1
	ldr         w8,[sp,#0x10]
	add         w8,w8,w9
	str         w8,[sp,#0x10]
|$LN5@GetVLC|

; 442  : 			return value;

	ldr         w0,[sp,#0x10]
|$LN1@GetVLC|
	ldp         fp,lr,[sp],#0x30
	ret

	ENDP  ; |?_GetVLC@Decoder@Jpeg@@AEAAHPEAUVlcCode@12@PEAE@Z|, Jpeg::Decoder::_GetVLC

; Function compile flags: /Odtp
; File C:\Users\paras\source\repos\grep-name\XenevaOS\Libs\Chitralekha\nanojpg.h

	AREA	|.text$mn|, CODE, ARM64

|?_DecodeDRI@Decoder@Jpeg@@AEAAXXZ| PROC		; Jpeg::Decoder::_DecodeDRI

; 423  : 		inline void _DecodeDRI(void) {

|$LN7|
	stp         fp,lr,[sp,#-0x20]!
	mov         fp,sp
	str         x0,[sp,#0x10]

; 424  : 			_DecodeLength();

	ldr         x0,[sp,#0x10]
	bl          |?_DecodeLength@Decoder@Jpeg@@AEAAXXZ|

; 425  : 			if (ctx.length < 2) JPEG_DECODER_THROW(SyntaxError);

	ldr         x8,[sp,#0x10]
	add         x8,x8,#0x14
	ldr         w8,[x8]
	cmp         w8,#2
	bge         |$LN5@DecodeDRI|
|$LN4@DecodeDRI|
	ldr         x9,[sp,#0x10]
	mov         w8,#5
	str         w8,[x9]
	b           |$LN1@DecodeDRI|
	mov         w8,#0
	cmp         w8,#0
	bne         |$LN4@DecodeDRI|
|$LN5@DecodeDRI|

; 426  : 			ctx.rstinterval = _Decode16(ctx.pos);

	ldr         x8,[sp,#0x10]
	add         x8,x8,#8
	ldr         x1,[x8]
	ldr         x0,[sp,#0x10]
	bl          |?_Decode16@Decoder@Jpeg@@AEAAGPEBE@Z|
	uxth        w9,w0
	mov         w9,w9
	ldr         x8,[sp,#0x10]
	add         x8,x8,#0x80,lsl #0xC
	add         x8,x8,#0x2D4
	str         w9,[x8]

; 427  : 			_Skip(ctx.length);

	ldr         x8,[sp,#0x10]
	add         x8,x8,#0x14
	ldr         w1,[x8]
	ldr         x0,[sp,#0x10]
	bl          |?_Skip@Decoder@Jpeg@@AEAAXH@Z|
|$LN1@DecodeDRI|
	ldp         fp,lr,[sp],#0x20
	ret

	ENDP  ; |?_DecodeDRI@Decoder@Jpeg@@AEAAXXZ|, Jpeg::Decoder::_DecodeDRI

; Function compile flags: /Odtp
; File C:\Users\paras\source\repos\grep-name\XenevaOS\Libs\Chitralekha\nanojpg.h

	AREA	|.text$mn|, CODE, ARM64

|?_DecodeDQT@Decoder@Jpeg@@AEAAXXZ| PROC		; Jpeg::Decoder::_DecodeDQT

; 407  : 		inline void _DecodeDQT(void) {

|$LN16|
	stp         fp,lr,[sp,#-0x30]!
	mov         fp,sp
	str         x0,[sp,#0x18]

; 408  : 			int i;
; 409  : 			unsigned char *t;
; 410  : 			_DecodeLength();

	ldr         x0,[sp,#0x18]
	bl          |?_DecodeLength@Decoder@Jpeg@@AEAAXXZ|
|$LN2@DecodeDQT|

; 411  : 			while (ctx.length >= 65) {

	ldr         x8,[sp,#0x18]
	add         x8,x8,#0x14
	ldr         w8,[x8]
	cmp         w8,#0x41
	blt         |$LN3@DecodeDQT|

; 412  : 				i = ctx.pos[0];

	ldr         x8,[sp,#0x18]
	add         x8,x8,#8
	ldr         x8,[x8]
	ldrb        w8,[x8]
	mov         w8,w8
	str         w8,[sp,#0x10]

; 413  : 				if (i & 0xFC) JPEG_DECODER_THROW(SyntaxError);

	ldr         w8,[sp,#0x10]
	and         w8,w8,#0xFC
	cmp         w8,#0
	beq         |$LN13@DecodeDQT|
|$LN6@DecodeDQT|
	ldr         x9,[sp,#0x18]
	mov         w8,#5
	str         w8,[x9]
	b           |$LN1@DecodeDQT|
	mov         w8,#0
	cmp         w8,#0
	bne         |$LN6@DecodeDQT|
|$LN13@DecodeDQT|

; 414  : 				ctx.qtavail |= 1 << i;

	ldr         x8,[sp,#0x18]
	add         x10,x8,#0xC8
	mov         w9,#1
	ldr         w8,[sp,#0x10]
	lsl         w9,w9,w8
	ldr         w8,[x10]
	orr         w9,w8,w9
	ldr         x8,[sp,#0x18]
	add         x8,x8,#0xC8
	str         w9,[x8]

; 415  : 				t = &ctx.qtab[i][0];

	ldr         x8,[sp,#0x18]
	add         x10,x8,#0xCC
	ldr         w8,[sp,#0x10]
	sxtw        x9,w8
	mov         x8,#0x40
	mul         x8,x9,x8
	add         x8,x10,x8
	str         x8,[sp,#0x20]

; 416  : 				for (i = 0; i < 64; ++i)

	mov         w8,#0
	str         w8,[sp,#0x10]
	b           |$LN9@DecodeDQT|
|$LN7@DecodeDQT|
	ldr         w8,[sp,#0x10]
	add         w8,w8,#1
	str         w8,[sp,#0x10]
|$LN9@DecodeDQT|
	ldr         w8,[sp,#0x10]
	cmp         w8,#0x40
	bge         |$LN8@DecodeDQT|

; 417  : 					t[i] = ctx.pos[i + 1];

	ldr         x8,[sp,#0x18]
	add         x10,x8,#8
	ldr         w8,[sp,#0x10]
	add         w8,w8,#1
	sxtw        x9,w8
	mov         x8,#1
	mul         x9,x9,x8
	ldr         x8,[x10]
	add         x10,x8,x9
	ldr         w8,[sp,#0x10]
	sxtw        x9,w8
	mov         x8,#1
	mul         x9,x9,x8
	ldr         x8,[sp,#0x20]
	add         x9,x8,x9
	ldrb        w8,[x10]
	strb        w8,[x9]
	b           |$LN7@DecodeDQT|
|$LN8@DecodeDQT|

; 418  : 				_Skip(65);

	mov         w1,#0x41
	ldr         x0,[sp,#0x18]
	bl          |?_Skip@Decoder@Jpeg@@AEAAXH@Z|

; 419  : 			}

	b           |$LN2@DecodeDQT|
|$LN3@DecodeDQT|

; 420  : 			if (ctx.length) JPEG_DECODER_THROW(SyntaxError);

	ldr         x8,[sp,#0x18]
	add         x8,x8,#0x14
	ldr         w8,[x8]
	cmp         w8,#0
	beq         |$LN14@DecodeDQT|
|$LN12@DecodeDQT|
	ldr         x9,[sp,#0x18]
	mov         w8,#5
	str         w8,[x9]
	b           |$LN1@DecodeDQT|
	mov         w8,#0
	cmp         w8,#0
	bne         |$LN12@DecodeDQT|
|$LN14@DecodeDQT|
|$LN1@DecodeDQT|
	ldp         fp,lr,[sp],#0x30
	ret

	ENDP  ; |?_DecodeDQT@Decoder@Jpeg@@AEAAXXZ|, Jpeg::Decoder::_DecodeDQT

; Function compile flags: /Odtp
; File C:\Users\paras\source\repos\grep-name\XenevaOS\Libs\Chitralekha\nanojpg.h

	AREA	|.text$mn|, CODE, ARM64

|?_DecodeDHT@Decoder@Jpeg@@AEAAXXZ| PROC		; Jpeg::Decoder::_DecodeDHT

; 367  : 		inline void _DecodeDHT(void) {

|$LN40|
	stp         fp,lr,[sp,#-0x60]!
	mov         fp,sp
	str         x0,[sp,#0x20]

; 368  : 			int codelen, currcnt, remain, spread, i, j;
; 369  : 			VlcCode *vlc;
; 370  : 			unsigned char counts[16];
; 371  : 			_DecodeLength();

	ldr         x0,[sp,#0x20]
	bl          |?_DecodeLength@Decoder@Jpeg@@AEAAXXZ|
|$LN2@DecodeDHT|

; 372  : 			while (ctx.length >= 17) {

	ldr         x8,[sp,#0x20]
	add         x8,x8,#0x14
	ldr         w8,[x8]
	cmp         w8,#0x11
	blt         |$LN3@DecodeDHT|

; 373  : 				i = ctx.pos[0];

	ldr         x8,[sp,#0x20]
	add         x8,x8,#8
	ldr         x8,[x8]
	ldrb        w8,[x8]
	mov         w8,w8
	str         w8,[sp,#0x14]

; 374  : 				if (i & 0xEC) JPEG_DECODER_THROW(SyntaxError);

	ldr         w9,[sp,#0x14]
	mov         w8,#0xEC
	and         w8,w9,w8
	cmp         w8,#0
	beq         |$LN33@DecodeDHT|
|$LN6@DecodeDHT|
	ldr         x9,[sp,#0x20]
	mov         w8,#5
	str         w8,[x9]
	b           |$LN1@DecodeDHT|
	mov         w8,#0
	cmp         w8,#0
	bne         |$LN6@DecodeDHT|
|$LN33@DecodeDHT|

; 375  : 				if (i & 0x02) JPEG_DECODER_THROW(Unsupported);

	ldr         w8,[sp,#0x14]
	tbz         x8,#1,|$LN34@DecodeDHT|
|$LN9@DecodeDHT|
	ldr         x9,[sp,#0x20]
	mov         w8,#2
	str         w8,[x9]
	b           |$LN1@DecodeDHT|
	mov         w8,#0
	cmp         w8,#0
	bne         |$LN9@DecodeDHT|
|$LN34@DecodeDHT|

; 376  : 				i = (i | (i >> 3)) & 3;  // combined DC/AC + tableid value

	ldr         w8,[sp,#0x14]
	asr         w9,w8,#3
	ldr         w8,[sp,#0x14]
	orr         w8,w8,w9
	and         w8,w8,#3
	str         w8,[sp,#0x14]

; 377  : 				for (codelen = 1; codelen <= 16; ++codelen)

	mov         w8,#1
	str         w8,[sp,#0x10]
	b           |$LN12@DecodeDHT|
|$LN10@DecodeDHT|
	ldr         w8,[sp,#0x10]
	add         w8,w8,#1
	str         w8,[sp,#0x10]
|$LN12@DecodeDHT|
	ldr         w8,[sp,#0x10]
	cmp         w8,#0x10
	bgt         |$LN11@DecodeDHT|

; 378  : 					counts[codelen - 1] = ctx.pos[codelen];

	ldr         x8,[sp,#0x20]
	add         x10,x8,#8
	ldr         w8,[sp,#0x10]
	sxtw        x9,w8
	mov         x8,#1
	mul         x9,x9,x8
	ldr         x8,[x10]
	add         x10,x8,x9
	ldr         w8,[sp,#0x10]
	sub         w8,w8,#1
	sxtw        x9,w8
	mov         x8,#1
	mul         x9,x9,x8
	add         x8,sp,#0x48
	add         x9,x8,x9
	ldrb        w8,[x10]
	strb        w8,[x9]
	b           |$LN10@DecodeDHT|
|$LN11@DecodeDHT|

; 379  : 				_Skip(17);

	mov         w1,#0x11
	ldr         x0,[sp,#0x20]
	bl          |?_Skip@Decoder@Jpeg@@AEAAXH@Z|

; 380  : 				vlc = &ctx.vlctab[i][0];

	ldr         x8,[sp,#0x20]
	add         x10,x8,#0x1CC
	ldr         w8,[sp,#0x14]
	sxtw        x9,w8
	mov         x8,#0x20000
	mul         x8,x9,x8
	add         x8,x10,x8
	str         x8,[sp,#0x38]

; 381  : 				remain = spread = 65536;

	mov         w8,#0x10000
	str         w8,[sp,#0x30]
	ldr         w8,[sp,#0x30]
	str         w8,[sp,#0x28]

; 382  : 				for (codelen = 1; codelen <= 16; ++codelen) {

	mov         w8,#1
	str         w8,[sp,#0x10]
	b           |$LN15@DecodeDHT|
|$LN13@DecodeDHT|
	ldr         w8,[sp,#0x10]
	add         w8,w8,#1
	str         w8,[sp,#0x10]
|$LN15@DecodeDHT|
	ldr         w8,[sp,#0x10]
	cmp         w8,#0x10
	bgt         |$LN14@DecodeDHT|

; 383  : 					spread >>= 1;

	ldr         w8,[sp,#0x30]
	asr         w8,w8,#1
	str         w8,[sp,#0x30]

; 384  : 					currcnt = counts[codelen - 1];

	ldr         w8,[sp,#0x10]
	sub         w8,w8,#1
	sxtw        x9,w8
	mov         x8,#1
	mul         x9,x9,x8
	add         x8,sp,#0x48
	add         x8,x8,x9
	ldrb        w8,[x8]
	mov         w8,w8
	str         w8,[sp,#0x2C]

; 385  : 					if (!currcnt) continue;

	ldr         w8,[sp,#0x2C]
	cmp         w8,#0
	bne         |$LN35@DecodeDHT|
	b           |$LN13@DecodeDHT|
|$LN35@DecodeDHT|

; 386  : 					if (ctx.length < currcnt) JPEG_DECODER_THROW(SyntaxError);

	ldr         x8,[sp,#0x20]
	add         x8,x8,#0x14
	ldr         w9,[sp,#0x2C]
	ldr         w8,[x8]
	cmp         w8,w9
	bge         |$LN36@DecodeDHT|
|$LN18@DecodeDHT|
	ldr         x9,[sp,#0x20]
	mov         w8,#5
	str         w8,[x9]
	b           |$LN1@DecodeDHT|
	mov         w8,#0
	cmp         w8,#0
	bne         |$LN18@DecodeDHT|
|$LN36@DecodeDHT|

; 387  : 					remain -= currcnt << (16 - codelen);

	mov         w9,#0x10
	ldr         w8,[sp,#0x10]
	sub         w9,w9,w8
	ldr         w8,[sp,#0x2C]
	lsl         w9,w8,w9
	ldr         w8,[sp,#0x28]
	sub         w8,w8,w9
	str         w8,[sp,#0x28]

; 388  : 					if (remain < 0) JPEG_DECODER_THROW(SyntaxError);

	ldr         w8,[sp,#0x28]
	cmp         w8,#0
	bge         |$LN37@DecodeDHT|
|$LN21@DecodeDHT|
	ldr         x9,[sp,#0x20]
	mov         w8,#5
	str         w8,[x9]
	b           |$LN1@DecodeDHT|
	mov         w8,#0
	cmp         w8,#0
	bne         |$LN21@DecodeDHT|
|$LN37@DecodeDHT|

; 389  : 					for (i = 0; i < currcnt; ++i) {

	mov         w8,#0
	str         w8,[sp,#0x14]
	b           |$LN24@DecodeDHT|
|$LN22@DecodeDHT|
	ldr         w8,[sp,#0x14]
	add         w8,w8,#1
	str         w8,[sp,#0x14]
|$LN24@DecodeDHT|
	ldr         w9,[sp,#0x2C]
	ldr         w8,[sp,#0x14]
	cmp         w8,w9
	bge         |$LN23@DecodeDHT|

; 390  : 						register unsigned char code = ctx.pos[i];

	ldr         x8,[sp,#0x20]
	add         x10,x8,#8
	ldr         w8,[sp,#0x14]
	sxtw        x9,w8
	mov         x8,#1
	mul         x9,x9,x8
	ldr         x8,[x10]
	add         x8,x8,x9
	ldrb        w8,[x8]
	strb        w8,[sp,#0x18]

; 391  : 						for (j = spread; j; --j) {

	ldr         w8,[sp,#0x30]
	str         w8,[sp,#0x34]
	b           |$LN27@DecodeDHT|
|$LN25@DecodeDHT|
	ldr         w8,[sp,#0x34]
	sub         w8,w8,#1
	str         w8,[sp,#0x34]
|$LN27@DecodeDHT|
	ldr         w8,[sp,#0x34]
	cmp         w8,#0
	beq         |$LN26@DecodeDHT|

; 392  : 							vlc->bits = (unsigned char)codelen;

	ldr         w8,[sp,#0x10]
	uxtb        w9,w8
	ldr         x8,[sp,#0x38]
	strb        w9,[x8]

; 393  : 							vlc->code = code;

	ldr         x8,[sp,#0x38]
	add         x9,x8,#1
	ldrb        w8,[sp,#0x18]
	strb        w8,[x9]

; 394  : 							++vlc;

	ldr         x8,[sp,#0x38]
	add         x8,x8,#2
	str         x8,[sp,#0x38]

; 395  : 						}

	b           |$LN25@DecodeDHT|
|$LN26@DecodeDHT|

; 396  : 					}

	b           |$LN22@DecodeDHT|
|$LN23@DecodeDHT|

; 397  : 					_Skip(currcnt);

	ldr         w1,[sp,#0x2C]
	ldr         x0,[sp,#0x20]
	bl          |?_Skip@Decoder@Jpeg@@AEAAXH@Z|

; 398  : 				}

	b           |$LN13@DecodeDHT|
|$LN14@DecodeDHT|
|$LN28@DecodeDHT|

; 399  : 				while (remain--) {

	ldr         w8,[sp,#0x28]
	str         w8,[sp,#0x40]
	ldr         w8,[sp,#0x28]
	sub         w8,w8,#1
	str         w8,[sp,#0x28]
	ldr         w8,[sp,#0x40]
	cmp         w8,#0
	beq         |$LN29@DecodeDHT|

; 400  : 					vlc->bits = 0;

	ldr         x9,[sp,#0x38]
	mov         w8,#0
	strb        w8,[x9]

; 401  : 					++vlc;

	ldr         x8,[sp,#0x38]
	add         x8,x8,#2
	str         x8,[sp,#0x38]

; 402  : 				}

	b           |$LN28@DecodeDHT|
|$LN29@DecodeDHT|

; 403  : 			}

	b           |$LN2@DecodeDHT|
|$LN3@DecodeDHT|

; 404  : 			if (ctx.length) JPEG_DECODER_THROW(SyntaxError);

	ldr         x8,[sp,#0x20]
	add         x8,x8,#0x14
	ldr         w8,[x8]
	cmp         w8,#0
	beq         |$LN38@DecodeDHT|
|$LN32@DecodeDHT|
	ldr         x9,[sp,#0x20]
	mov         w8,#5
	str         w8,[x9]
	b           |$LN1@DecodeDHT|
	mov         w8,#0
	cmp         w8,#0
	bne         |$LN32@DecodeDHT|
|$LN38@DecodeDHT|
|$LN1@DecodeDHT|
	ldp         fp,lr,[sp],#0x60
	ret

	ENDP  ; |?_DecodeDHT@Decoder@Jpeg@@AEAAXXZ|, Jpeg::Decoder::_DecodeDHT

; Function compile flags: /Odtp
; File C:\Users\paras\source\repos\grep-name\XenevaOS\Libs\Chitralekha\nanojpg.h

	AREA	|.text$mn|, CODE, ARM64

|?_DecodeSOF@Decoder@Jpeg@@AEAAXXZ| PROC		; Jpeg::Decoder::_DecodeSOF

; 313  : 		inline void _DecodeSOF(void) {

|$LN73|
	stp         fp,lr,[sp,#-0x60]!
	mov         fp,sp
	str         x0,[sp,#0x10]

; 314  : 			int i, ssxmax = 0, ssymax = 0;

	mov         w8,#0
	str         w8,[sp,#0x28]
	mov         w8,#0
	str         w8,[sp,#0x20]

; 315  : 			Component* c;
; 316  : 			_DecodeLength();

	ldr         x0,[sp,#0x10]
	bl          |?_DecodeLength@Decoder@Jpeg@@AEAAXXZ|

; 317  : 			if (ctx.length < 9) JPEG_DECODER_THROW(SyntaxError);

	ldr         x8,[sp,#0x10]
	add         x8,x8,#0x14
	ldr         w8,[x8]
	cmp         w8,#9
	bge         |$LN46@DecodeSOF|
|$LN4@DecodeSOF|
	ldr         x9,[sp,#0x10]
	mov         w8,#5
	str         w8,[x9]
	b           |$LN1@DecodeSOF|
	mov         w8,#0
	cmp         w8,#0
	bne         |$LN4@DecodeSOF|
|$LN46@DecodeSOF|

; 318  : 			if (ctx.pos[0] != 8) JPEG_DECODER_THROW(Unsupported);

	ldr         x8,[sp,#0x10]
	add         x8,x8,#8
	ldr         x8,[x8]
	ldrb        w8,[x8]
	mov         w8,w8
	cmp         w8,#8
	beq         |$LN47@DecodeSOF|
|$LN7@DecodeSOF|
	ldr         x9,[sp,#0x10]
	mov         w8,#2
	str         w8,[x9]
	b           |$LN1@DecodeSOF|
	mov         w8,#0
	cmp         w8,#0
	bne         |$LN7@DecodeSOF|
|$LN47@DecodeSOF|

; 319  : 			ctx.height = _Decode16(ctx.pos + 1);

	ldr         x8,[sp,#0x10]
	add         x8,x8,#8
	ldr         x8,[x8]
	add         x1,x8,#1
	ldr         x0,[sp,#0x10]
	bl          |?_Decode16@Decoder@Jpeg@@AEAAGPEBE@Z|
	uxth        w9,w0
	mov         w9,w9
	ldr         x8,[sp,#0x10]
	add         x8,x8,#0x1C
	str         w9,[x8]

; 320  : 			ctx.width = _Decode16(ctx.pos + 3);

	ldr         x8,[sp,#0x10]
	add         x8,x8,#8
	ldr         x8,[x8]
	add         x1,x8,#3
	ldr         x0,[sp,#0x10]
	bl          |?_Decode16@Decoder@Jpeg@@AEAAGPEBE@Z|
	uxth        w9,w0
	mov         w9,w9
	ldr         x8,[sp,#0x10]
	add         x8,x8,#0x18
	str         w9,[x8]

; 321  : 			ctx.ncomp = ctx.pos[5];

	ldr         x8,[sp,#0x10]
	add         x8,x8,#8
	ldr         x8,[x8]
	add         x8,x8,#5
	ldrb        w9,[x8]
	mov         w9,w9
	ldr         x8,[sp,#0x10]
	add         x8,x8,#0x30
	str         w9,[x8]

; 322  : 			_Skip(6);

	mov         w1,#6
	ldr         x0,[sp,#0x10]
	bl          |?_Skip@Decoder@Jpeg@@AEAAXH@Z|

; 323  : 			switch (ctx.ncomp) {

	ldr         x8,[sp,#0x10]
	add         x8,x8,#0x30
	ldr         w8,[x8]
	str         w8,[sp,#0x2C]
	ldr         w8,[sp,#0x2C]
	cmp         w8,#1
	beq         |$LN48@DecodeSOF|
	ldr         w8,[sp,#0x2C]
	cmp         w8,#3
	beq         |$LN49@DecodeSOF|
	b           |$LN50@DecodeSOF|
|$LN48@DecodeSOF|
|$LN49@DecodeSOF|

; 324  : 			case 1:
; 325  : 			case 3:
; 326  : 				break;

	b           |$LN8@DecodeSOF|
|$LN50@DecodeSOF|
|$LN12@DecodeSOF|

; 327  : 			default:
; 328  : 				JPEG_DECODER_THROW(Unsupported);

	ldr         x9,[sp,#0x10]
	mov         w8,#2
	str         w8,[x9]
	b           |$LN1@DecodeSOF|
	mov         w8,#0
	cmp         w8,#0
	bne         |$LN12@DecodeSOF|
|$LN8@DecodeSOF|

; 329  : 			}
; 330  : 			if (ctx.length < (ctx.ncomp * 3)) JPEG_DECODER_THROW(SyntaxError);

	ldr         x8,[sp,#0x10]
	add         x10,x8,#0x14
	ldr         x8,[sp,#0x10]
	add         x8,x8,#0x30
	ldr         w9,[x8]
	mov         w8,#3
	mul         w9,w9,w8
	ldr         w8,[x10]
	cmp         w8,w9
	bge         |$LN51@DecodeSOF|
|$LN15@DecodeSOF|
	ldr         x9,[sp,#0x10]
	mov         w8,#5
	str         w8,[x9]
	b           |$LN1@DecodeSOF|
	mov         w8,#0
	cmp         w8,#0
	bne         |$LN15@DecodeSOF|
|$LN51@DecodeSOF|

; 331  : 			for (i = 0, c = ctx.comp; i < ctx.ncomp; ++i, ++c) {

	mov         w8,#0
	str         w8,[sp,#0x24]
	ldr         x8,[sp,#0x10]
	add         x8,x8,#0x34
	str         x8,[sp,#0x18]
	b           |$LN18@DecodeSOF|
|$LN16@DecodeSOF|
	ldr         w8,[sp,#0x24]
	add         w8,w8,#1
	str         w8,[sp,#0x24]
	ldr         x8,[sp,#0x18]
	add         x8,x8,#0x30
	str         x8,[sp,#0x18]
|$LN18@DecodeSOF|
	ldr         x8,[sp,#0x10]
	add         x8,x8,#0x30
	ldr         w9,[x8]
	ldr         w8,[sp,#0x24]
	cmp         w8,w9
	bge         |$LN17@DecodeSOF|

; 332  : 				c->cid = ctx.pos[0];

	ldr         x8,[sp,#0x10]
	add         x8,x8,#8
	ldr         x8,[x8]
	ldrb        w9,[x8]
	mov         w9,w9
	ldr         x8,[sp,#0x18]
	str         w9,[x8]

; 333  : 				if (!(c->ssx = ctx.pos[1] >> 4)) JPEG_DECODER_THROW(SyntaxError);

	ldr         x8,[sp,#0x10]
	add         x8,x8,#8
	ldr         x8,[x8]
	add         x8,x8,#1
	ldrb        w8,[x8]
	mov         w8,w8
	asr         w8,w8,#4
	str         w8,[sp,#0x30]
	ldr         x8,[sp,#0x18]
	add         x9,x8,#4
	ldr         w8,[sp,#0x30]
	str         w8,[x9]
	ldr         w8,[sp,#0x30]
	cmp         w8,#0
	bne         |$LN52@DecodeSOF|
|$LN21@DecodeSOF|
	ldr         x9,[sp,#0x10]
	mov         w8,#5
	str         w8,[x9]
	b           |$LN1@DecodeSOF|
	mov         w8,#0
	cmp         w8,#0
	bne         |$LN21@DecodeSOF|
|$LN52@DecodeSOF|

; 334  : 				if (c->ssx & (c->ssx - 1)) JPEG_DECODER_THROW(Unsupported);  // non-power of two

	ldr         x8,[sp,#0x18]
	add         x10,x8,#4
	ldr         x8,[sp,#0x18]
	add         x8,x8,#4
	ldr         w8,[x8]
	sub         w9,w8,#1
	ldr         w8,[x10]
	and         w8,w8,w9
	cmp         w8,#0
	beq         |$LN53@DecodeSOF|
|$LN24@DecodeSOF|
	ldr         x9,[sp,#0x10]
	mov         w8,#2
	str         w8,[x9]
	b           |$LN1@DecodeSOF|
	mov         w8,#0
	cmp         w8,#0
	bne         |$LN24@DecodeSOF|
|$LN53@DecodeSOF|

; 335  : 				if (!(c->ssy = ctx.pos[1] & 15)) JPEG_DECODER_THROW(SyntaxError);

	ldr         x8,[sp,#0x10]
	add         x8,x8,#8
	ldr         x8,[x8]
	add         x8,x8,#1
	ldrb        w8,[x8]
	mov         w8,w8
	and         w8,w8,#0xF
	str         w8,[sp,#0x34]
	ldr         x8,[sp,#0x18]
	add         x9,x8,#8
	ldr         w8,[sp,#0x34]
	str         w8,[x9]
	ldr         w8,[sp,#0x34]
	cmp         w8,#0
	bne         |$LN54@DecodeSOF|
|$LN27@DecodeSOF|
	ldr         x9,[sp,#0x10]
	mov         w8,#5
	str         w8,[x9]
	b           |$LN1@DecodeSOF|
	mov         w8,#0
	cmp         w8,#0
	bne         |$LN27@DecodeSOF|
|$LN54@DecodeSOF|

; 336  : 				if (c->ssy & (c->ssy - 1)) JPEG_DECODER_THROW(Unsupported);  // non-power of two

	ldr         x8,[sp,#0x18]
	add         x10,x8,#8
	ldr         x8,[sp,#0x18]
	add         x8,x8,#8
	ldr         w8,[x8]
	sub         w9,w8,#1
	ldr         w8,[x10]
	and         w8,w8,w9
	cmp         w8,#0
	beq         |$LN55@DecodeSOF|
|$LN30@DecodeSOF|
	ldr         x9,[sp,#0x10]
	mov         w8,#2
	str         w8,[x9]
	b           |$LN1@DecodeSOF|
	mov         w8,#0
	cmp         w8,#0
	bne         |$LN30@DecodeSOF|
|$LN55@DecodeSOF|

; 337  : 				if ((c->qtsel = ctx.pos[2]) & 0xFC) JPEG_DECODER_THROW(SyntaxError);

	ldr         x8,[sp,#0x10]
	add         x8,x8,#8
	ldr         x8,[x8]
	add         x8,x8,#2
	ldrb        w8,[x8]
	mov         w8,w8
	str         w8,[sp,#0x38]
	ldr         x8,[sp,#0x18]
	add         x9,x8,#0x18
	ldr         w8,[sp,#0x38]
	str         w8,[x9]
	ldr         w8,[sp,#0x38]
	and         w8,w8,#0xFC
	cmp         w8,#0
	beq         |$LN56@DecodeSOF|
|$LN33@DecodeSOF|
	ldr         x9,[sp,#0x10]
	mov         w8,#5
	str         w8,[x9]
	b           |$LN1@DecodeSOF|
	mov         w8,#0
	cmp         w8,#0
	bne         |$LN33@DecodeSOF|
|$LN56@DecodeSOF|

; 338  : 				_Skip(3);

	mov         w1,#3
	ldr         x0,[sp,#0x10]
	bl          |?_Skip@Decoder@Jpeg@@AEAAXH@Z|

; 339  : 				ctx.qtused |= 1 << c->qtsel;

	ldr         x8,[sp,#0x10]
	add         x10,x8,#0xC4
	ldr         x8,[sp,#0x18]
	add         x8,x8,#0x18
	mov         w9,#1
	ldr         w8,[x8]
	lsl         w9,w9,w8
	ldr         w8,[x10]
	orr         w9,w8,w9
	ldr         x8,[sp,#0x10]
	add         x8,x8,#0xC4
	str         w9,[x8]

; 340  : 				if (c->ssx > ssxmax) ssxmax = c->ssx;

	ldr         x8,[sp,#0x18]
	add         x8,x8,#4
	ldr         w9,[sp,#0x28]
	ldr         w8,[x8]
	cmp         w8,w9
	ble         |$LN57@DecodeSOF|
	ldr         x8,[sp,#0x18]
	add         x8,x8,#4
	ldr         w8,[x8]
	str         w8,[sp,#0x28]
|$LN57@DecodeSOF|

; 341  : 				if (c->ssy > ssymax) ssymax = c->ssy;

	ldr         x8,[sp,#0x18]
	add         x8,x8,#8
	ldr         w9,[sp,#0x20]
	ldr         w8,[x8]
	cmp         w8,w9
	ble         |$LN58@DecodeSOF|
	ldr         x8,[sp,#0x18]
	add         x8,x8,#8
	ldr         w8,[x8]
	str         w8,[sp,#0x20]
|$LN58@DecodeSOF|

; 342  : 			}

	b           |$LN16@DecodeSOF|
|$LN17@DecodeSOF|

; 343  : 			ctx.mbsizex = ssxmax << 3;

	ldr         w8,[sp,#0x28]
	lsl         w9,w8,#3
	ldr         x8,[sp,#0x10]
	add         x8,x8,#0x28
	str         w9,[x8]

; 344  : 			ctx.mbsizey = ssymax << 3;

	ldr         w8,[sp,#0x20]
	lsl         w9,w8,#3
	ldr         x8,[sp,#0x10]
	add         x8,x8,#0x2C
	str         w9,[x8]

; 345  : 			ctx.mbwidth = (ctx.width + ctx.mbsizex - 1) / ctx.mbsizex;

	ldr         x8,[sp,#0x10]
	add         x9,x8,#0x18
	ldr         x8,[sp,#0x10]
	add         x8,x8,#0x28
	ldr         w9,[x9]
	ldr         w8,[x8]
	add         w8,w9,w8
	sub         w9,w8,#1
	ldr         x8,[sp,#0x10]
	add         x8,x8,#0x28
	ldr         w8,[x8]
	cbnz        w8,|$LN66@DecodeSOF|
	brk         #0xF004
|$LN66@DecodeSOF|
	sdiv        w9,w9,w8
	ldr         x8,[sp,#0x10]
	add         x8,x8,#0x20
	str         w9,[x8]

; 346  : 			ctx.mbheight = (ctx.height + ctx.mbsizey - 1) / ctx.mbsizey;

	ldr         x8,[sp,#0x10]
	add         x9,x8,#0x1C
	ldr         x8,[sp,#0x10]
	add         x8,x8,#0x2C
	ldr         w9,[x9]
	ldr         w8,[x8]
	add         w8,w9,w8
	sub         w9,w8,#1
	ldr         x8,[sp,#0x10]
	add         x8,x8,#0x2C
	ldr         w8,[x8]
	cbnz        w8,|$LN67@DecodeSOF|
	brk         #0xF004
|$LN67@DecodeSOF|
	sdiv        w9,w9,w8
	ldr         x8,[sp,#0x10]
	add         x8,x8,#0x24
	str         w9,[x8]

; 347  : 			for (i = 0, c = ctx.comp; i < ctx.ncomp; ++i, ++c) {

	mov         w8,#0
	str         w8,[sp,#0x24]
	ldr         x8,[sp,#0x10]
	add         x8,x8,#0x34
	str         x8,[sp,#0x18]
	b           |$LN36@DecodeSOF|
|$LN34@DecodeSOF|
	ldr         w8,[sp,#0x24]
	add         w8,w8,#1
	str         w8,[sp,#0x24]
	ldr         x8,[sp,#0x18]
	add         x8,x8,#0x30
	str         x8,[sp,#0x18]
|$LN36@DecodeSOF|
	ldr         x8,[sp,#0x10]
	add         x8,x8,#0x30
	ldr         w9,[x8]
	ldr         w8,[sp,#0x24]
	cmp         w8,w9
	bge         |$LN35@DecodeSOF|

; 348  : 				c->width = (ctx.width * c->ssx + ssxmax - 1) / ssxmax;

	ldr         x8,[sp,#0x10]
	add         x9,x8,#0x18
	ldr         x8,[sp,#0x18]
	add         x8,x8,#4
	ldr         w9,[x9]
	ldr         w8,[x8]
	mul         w9,w9,w8
	ldr         w8,[sp,#0x28]
	add         w8,w9,w8
	sub         w9,w8,#1
	ldr         w8,[sp,#0x28]
	cbnz        w8,|$LN68@DecodeSOF|
	brk         #0xF004
|$LN68@DecodeSOF|
	sdiv        w9,w9,w8
	ldr         x8,[sp,#0x18]
	add         x8,x8,#0xC
	str         w9,[x8]

; 349  : 				c->stride = (c->width + 7) & 0x7FFFFFF8;

	ldr         x8,[sp,#0x18]
	add         x8,x8,#0xC
	ldr         w8,[x8]
	add         w8,w8,#7
	and         w9,w8,#0x7FFFFFF8
	ldr         x8,[sp,#0x18]
	add         x8,x8,#0x14
	str         w9,[x8]

; 350  : 				c->height = (ctx.height * c->ssy + ssymax - 1) / ssymax;

	ldr         x8,[sp,#0x10]
	add         x9,x8,#0x1C
	ldr         x8,[sp,#0x18]
	add         x8,x8,#8
	ldr         w9,[x9]
	ldr         w8,[x8]
	mul         w9,w9,w8
	ldr         w8,[sp,#0x20]
	add         w8,w9,w8
	sub         w9,w8,#1
	ldr         w8,[sp,#0x20]
	cbnz        w8,|$LN69@DecodeSOF|
	brk         #0xF004
|$LN69@DecodeSOF|
	sdiv        w9,w9,w8
	ldr         x8,[sp,#0x18]
	add         x8,x8,#0x10
	str         w9,[x8]

; 351  : 				c->stride = ctx.mbwidth * ctx.mbsizex * c->ssx / ssxmax;

	ldr         x8,[sp,#0x10]
	add         x9,x8,#0x20
	ldr         x8,[sp,#0x10]
	add         x8,x8,#0x28
	ldr         w9,[x9]
	ldr         w8,[x8]
	mul         w9,w9,w8
	ldr         x8,[sp,#0x18]
	add         x8,x8,#4
	ldr         w8,[x8]
	mul         w9,w9,w8
	ldr         w8,[sp,#0x28]
	cbnz        w8,|$LN70@DecodeSOF|
	brk         #0xF004
|$LN70@DecodeSOF|
	sdiv        w9,w9,w8
	ldr         x8,[sp,#0x18]
	add         x8,x8,#0x14
	str         w9,[x8]

; 352  : 				if (((c->width < 3) && (c->ssx != ssxmax)) || ((c->height < 3) && (c->ssy != ssymax))) JPEG_DECODER_THROW(Unsupported);

	ldr         x8,[sp,#0x18]
	add         x8,x8,#0xC
	ldr         w8,[x8]
	cmp         w8,#3
	bge         |$LN61@DecodeSOF|
	ldr         x8,[sp,#0x18]
	add         x8,x8,#4
	ldr         w9,[sp,#0x28]
	ldr         w8,[x8]
	cmp         w8,w9
	bne         |$LN60@DecodeSOF|
|$LN61@DecodeSOF|
	ldr         x8,[sp,#0x18]
	add         x8,x8,#0x10
	ldr         w8,[x8]
	cmp         w8,#3
	bge         |$LN59@DecodeSOF|
	ldr         x8,[sp,#0x18]
	add         x8,x8,#8
	ldr         w9,[sp,#0x20]
	ldr         w8,[x8]
	cmp         w8,w9
	beq         |$LN59@DecodeSOF|
|$LN60@DecodeSOF|
|$LN39@DecodeSOF|
	ldr         x9,[sp,#0x10]
	mov         w8,#2
	str         w8,[x9]
	b           |$LN1@DecodeSOF|
	mov         w8,#0
	cmp         w8,#0
	bne         |$LN39@DecodeSOF|
|$LN59@DecodeSOF|

; 353  : 				uint32_t step1 = ctx.mbheight * ctx.mbsizey;

	ldr         x8,[sp,#0x10]
	add         x9,x8,#0x24
	ldr         x8,[sp,#0x10]
	add         x8,x8,#0x2C
	ldr         w9,[x9]
	ldr         w8,[x8]
	mul         w8,w9,w8
	str         w8,[sp,#0x3C]

; 354  : 				uint32_t step2 = step1 * c->ssy;

	ldr         x8,[sp,#0x18]
	add         x8,x8,#8
	ldr         w9,[sp,#0x3C]
	ldr         w8,[x8]
	mul         w8,w9,w8
	str         w8,[sp,#0x40]

; 355  : 				uint32_t step3 = step2 / ssymax;

	ldr         w9,[sp,#0x40]
	ldr         w8,[sp,#0x20]
	cbnz        w8,|$LN71@DecodeSOF|
	brk         #0xF004
|$LN71@DecodeSOF|
	udiv        w8,w9,w8
	str         w8,[sp,#0x44]

; 356  : 				uint32_t total = c->stride * step3;

	ldr         x8,[sp,#0x18]
	add         x8,x8,#0x14
	ldr         w9,[x8]
	ldr         w8,[sp,#0x44]
	mul         w8,w9,w8
	str         w8,[sp,#0x50]

; 357  : 
; 358  : 				if (!(c->pixels = (unsigned char*)AllocMem(c->stride * (ctx.mbheight * ctx.mbsizey * c->ssy / ssymax)))) JPEG_DECODER_THROW(OutOfMemory);

	ldr         x8,[sp,#0x18]
	add         x10,x8,#0x14
	ldr         x8,[sp,#0x10]
	add         x9,x8,#0x24
	ldr         x8,[sp,#0x10]
	add         x8,x8,#0x2C
	ldr         w9,[x9]
	ldr         w8,[x8]
	mul         w9,w9,w8
	ldr         x8,[sp,#0x18]
	add         x8,x8,#8
	ldr         w8,[x8]
	mul         w9,w9,w8
	ldr         w8,[sp,#0x20]
	cbnz        w8,|$LN72@DecodeSOF|
	brk         #0xF004
|$LN72@DecodeSOF|
	sdiv        w9,w9,w8
	ldr         w8,[x10]
	mul         w0,w8,w9
	ldr         x8,[sp,#0x10]
	add         x8,x8,#0x80,lsl #0xC
	add         x8,x8,#0x320
	mov         w0,w0
	ldr         x8,[x8]
	blr         x8
	str         x0,[sp,#0x48]
	ldr         x8,[sp,#0x18]
	add         x9,x8,#0x28
	ldr         x8,[sp,#0x48]
	str         x8,[x9]
	ldr         x8,[sp,#0x48]
	cmp         x8,#0
	bne         |$LN62@DecodeSOF|
|$LN42@DecodeSOF|
	ldr         x9,[sp,#0x10]
	mov         w8,#3
	str         w8,[x9]
	b           |$LN1@DecodeSOF|
	mov         w8,#0
	cmp         w8,#0
	bne         |$LN42@DecodeSOF|
|$LN62@DecodeSOF|

; 359  : 			}

	b           |$LN34@DecodeSOF|
|$LN35@DecodeSOF|

; 360  : 			if (ctx.ncomp == 3) {

	ldr         x8,[sp,#0x10]
	add         x8,x8,#0x30
	ldr         w8,[x8]
	cmp         w8,#3
	bne         |$LN63@DecodeSOF|

; 361  : 				ctx.rgb = (unsigned char*)AllocMem(ctx.width * ctx.height * ctx.ncomp);

	ldr         x8,[sp,#0x10]
	add         x9,x8,#0x18
	ldr         x8,[sp,#0x10]
	add         x8,x8,#0x1C
	ldr         w9,[x9]
	ldr         w8,[x8]
	mul         w9,w9,w8
	ldr         x8,[sp,#0x10]
	add         x8,x8,#0x30
	ldr         w8,[x8]
	mul         w0,w9,w8
	ldr         x8,[sp,#0x10]
	add         x8,x8,#0x80,lsl #0xC
	add         x8,x8,#0x320
	mov         w0,w0
	ldr         x8,[x8]
	blr         x8
	ldr         x8,[sp,#0x10]
	add         x8,x8,#0x80,lsl #0xC
	add         x8,x8,#0x2D8
	str         x0,[x8]

; 362  : 				if (!ctx.rgb) JPEG_DECODER_THROW(OutOfMemory);

	ldr         x8,[sp,#0x10]
	add         x8,x8,#0x80,lsl #0xC
	add         x8,x8,#0x2D8
	ldr         x8,[x8]
	cmp         x8,#0
	bne         |$LN64@DecodeSOF|
|$LN45@DecodeSOF|
	ldr         x9,[sp,#0x10]
	mov         w8,#3
	str         w8,[x9]
	b           |$LN1@DecodeSOF|
	mov         w8,#0
	cmp         w8,#0
	bne         |$LN45@DecodeSOF|
|$LN64@DecodeSOF|
|$LN63@DecodeSOF|

; 363  : 			}
; 364  : 			_Skip(ctx.length);

	ldr         x8,[sp,#0x10]
	add         x8,x8,#0x14
	ldr         w1,[x8]
	ldr         x0,[sp,#0x10]
	bl          |?_Skip@Decoder@Jpeg@@AEAAXH@Z|
|$LN1@DecodeSOF|
	ldp         fp,lr,[sp],#0x60
	ret

	ENDP  ; |?_DecodeSOF@Decoder@Jpeg@@AEAAXXZ|, Jpeg::Decoder::_DecodeSOF

; Function compile flags: /Odtp
; File C:\Users\paras\source\repos\grep-name\XenevaOS\Libs\Chitralekha\nanojpg.h

	AREA	|.text$mn|, CODE, ARM64

|?_SkipMarker@Decoder@Jpeg@@AEAAXXZ| PROC		; Jpeg::Decoder::_SkipMarker

; 308  : 		inline void _SkipMarker(void) {

|$LN3|
	stp         fp,lr,[sp,#-0x20]!
	mov         fp,sp
	str         x0,[sp,#0x10]

; 309  : 			_DecodeLength();

	ldr         x0,[sp,#0x10]
	bl          |?_DecodeLength@Decoder@Jpeg@@AEAAXXZ|

; 310  : 			_Skip(ctx.length);

	ldr         x8,[sp,#0x10]
	add         x8,x8,#0x14
	ldr         w1,[x8]
	ldr         x0,[sp,#0x10]
	bl          |?_Skip@Decoder@Jpeg@@AEAAXH@Z|
	ldp         fp,lr,[sp],#0x20
	ret

	ENDP  ; |?_SkipMarker@Decoder@Jpeg@@AEAAXXZ|, Jpeg::Decoder::_SkipMarker

; Function compile flags: /Odtp
; File C:\Users\paras\source\repos\grep-name\XenevaOS\Libs\Chitralekha\nanojpg.h

	AREA	|.text$mn|, CODE, ARM64

|?_DecodeLength@Decoder@Jpeg@@AEAAXXZ| PROC		; Jpeg::Decoder::_DecodeLength

; 301  : 		inline void _DecodeLength(void) {

|$LN11|
	stp         fp,lr,[sp,#-0x20]!
	mov         fp,sp
	str         x0,[sp,#0x10]

; 302  : 			if (ctx.size < 2) JPEG_DECODER_THROW(SyntaxError);

	ldr         x8,[sp,#0x10]
	add         x8,x8,#0x10
	ldr         w8,[x8]
	cmp         w8,#2
	bge         |$LN8@DecodeLeng|
|$LN4@DecodeLeng|
	ldr         x9,[sp,#0x10]
	mov         w8,#5
	str         w8,[x9]
	b           |$LN1@DecodeLeng|
	mov         w8,#0
	cmp         w8,#0
	bne         |$LN4@DecodeLeng|
|$LN8@DecodeLeng|

; 303  : 			ctx.length = _Decode16(ctx.pos);

	ldr         x8,[sp,#0x10]
	add         x8,x8,#8
	ldr         x1,[x8]
	ldr         x0,[sp,#0x10]
	bl          |?_Decode16@Decoder@Jpeg@@AEAAGPEBE@Z|
	uxth        w9,w0
	mov         w9,w9
	ldr         x8,[sp,#0x10]
	add         x8,x8,#0x14
	str         w9,[x8]

; 304  : 			if (ctx.length > ctx.size) JPEG_DECODER_THROW(SyntaxError);

	ldr         x8,[sp,#0x10]
	add         x10,x8,#0x14
	ldr         x8,[sp,#0x10]
	add         x8,x8,#0x10
	ldr         w9,[x8]
	ldr         w8,[x10]
	cmp         w8,w9
	ble         |$LN9@DecodeLeng|
|$LN7@DecodeLeng|
	ldr         x9,[sp,#0x10]
	mov         w8,#5
	str         w8,[x9]
	b           |$LN1@DecodeLeng|
	mov         w8,#0
	cmp         w8,#0
	bne         |$LN7@DecodeLeng|
|$LN9@DecodeLeng|

; 305  : 			_Skip(2);

	mov         w1,#2
	ldr         x0,[sp,#0x10]
	bl          |?_Skip@Decoder@Jpeg@@AEAAXH@Z|
|$LN1@DecodeLeng|
	ldp         fp,lr,[sp],#0x20
	ret

	ENDP  ; |?_DecodeLength@Decoder@Jpeg@@AEAAXXZ|, Jpeg::Decoder::_DecodeLength

; Function compile flags: /Odtp
; File C:\Users\paras\source\repos\grep-name\XenevaOS\Libs\Chitralekha\nanojpg.h

	AREA	|.text$mn|, CODE, ARM64

|?_Decode16@Decoder@Jpeg@@AEAAGPEBE@Z| PROC		; Jpeg::Decoder::_Decode16

; 297  : 		inline unsigned short _Decode16(const unsigned char *pos) {

|$LN3|
	sub         sp,sp,#0x10
	str         x0,[sp,#8]
	str         x1,[sp]

; 298  : 			return (pos[0] << 8) | pos[1];

	ldr         x8,[sp]
	ldrb        w8,[x8]
	mov         w8,w8
	lsl         w9,w8,#8
	ldr         x8,[sp]
	add         x8,x8,#1
	ldrb        w8,[x8]
	mov         w8,w8
	orr         w8,w9,w8
	uxth        w0,w8
	mov         w0,w0
	add         sp,sp,#0x10
	ret

	ENDP  ; |?_Decode16@Decoder@Jpeg@@AEAAGPEBE@Z|, Jpeg::Decoder::_Decode16

; Function compile flags: /Odtp
; File C:\Users\paras\source\repos\grep-name\XenevaOS\Libs\Chitralekha\nanojpg.h

	AREA	|.text$mn|, CODE, ARM64

|?_Skip@Decoder@Jpeg@@AEAAXH@Z| PROC			; Jpeg::Decoder::_Skip

; 290  : 		inline void _Skip(int count) {

|$LN4|
	sub         sp,sp,#0x10
	str         x0,[sp,#8]
	str         w1,[sp]

; 291  : 			ctx.pos += count;

	ldr         x8,[sp,#8]
	add         x10,x8,#8
	ldr         w8,[sp]
	sxtw        x9,w8
	ldr         x8,[x10]
	add         x9,x8,x9
	ldr         x8,[sp,#8]
	add         x8,x8,#8
	str         x9,[x8]

; 292  : 			ctx.size -= count;

	ldr         x8,[sp,#8]
	add         x8,x8,#0x10
	ldr         w9,[x8]
	ldr         w8,[sp]
	sub         w9,w9,w8
	ldr         x8,[sp,#8]
	add         x8,x8,#0x10
	str         w9,[x8]

; 293  : 			ctx.length -= count;

	ldr         x8,[sp,#8]
	add         x8,x8,#0x14
	ldr         w9,[x8]
	ldr         w8,[sp]
	sub         w9,w9,w8
	ldr         x8,[sp,#8]
	add         x8,x8,#0x14
	str         w9,[x8]

; 294  : 			if (ctx.size < 0) ctx.error = SyntaxError;

	ldr         x8,[sp,#8]
	add         x8,x8,#0x10
	ldr         w8,[x8]
	cmp         w8,#0
	bge         |$LN2@Skip|
	ldr         x9,[sp,#8]
	mov         w8,#5
	str         w8,[x9]
|$LN2@Skip|
	add         sp,sp,#0x10
	ret

	ENDP  ; |?_Skip@Decoder@Jpeg@@AEAAXH@Z|, Jpeg::Decoder::_Skip

; Function compile flags: /Odtp
; File C:\Users\paras\source\repos\grep-name\XenevaOS\Libs\Chitralekha\nanojpg.h

	AREA	|.text$mn|, CODE, ARM64

|?_ByteAlign@Decoder@Jpeg@@AEAAXXZ| PROC		; Jpeg::Decoder::_ByteAlign

; 286  : 		inline void _ByteAlign(void) {

|$LN3|
	sub         sp,sp,#0x10
	str         x0,[sp]

; 287  : 			ctx.bufbits &= 0xF8;

	ldr         x8,[sp]
	add         x8,x8,#0x80,lsl #0xC
	add         x8,x8,#0x1D0
	ldr         w8,[x8]
	and         w9,w8,#0xF8
	ldr         x8,[sp]
	add         x8,x8,#0x80,lsl #0xC
	add         x8,x8,#0x1D0
	str         w9,[x8]
	add         sp,sp,#0x10
	ret

	ENDP  ; |?_ByteAlign@Decoder@Jpeg@@AEAAXXZ|, Jpeg::Decoder::_ByteAlign

; Function compile flags: /Odtp
; File C:\Users\paras\source\repos\grep-name\XenevaOS\Libs\Chitralekha\nanojpg.h

	AREA	|.text$mn|, CODE, ARM64

|?_GetBits@Decoder@Jpeg@@AEAAHH@Z| PROC			; Jpeg::Decoder::_GetBits

; 280  : 		inline int _GetBits(int bits) {

|$LN3|
	stp         fp,lr,[sp,#-0x20]!
	mov         fp,sp
	str         x0,[sp,#0x18]
	str         w1,[sp,#0x10]

; 281  : 			int res = _ShowBits(bits);

	ldr         w1,[sp,#0x10]
	ldr         x0,[sp,#0x18]
	bl          |?_ShowBits@Decoder@Jpeg@@AEAAHH@Z|
	mov         w0,w0
	str         w0,[sp,#0x14]

; 282  : 			_SkipBits(bits);

	ldr         w1,[sp,#0x10]
	ldr         x0,[sp,#0x18]
	bl          |?_SkipBits@Decoder@Jpeg@@AEAAXH@Z|

; 283  : 			return res;

	ldr         w0,[sp,#0x14]
	ldp         fp,lr,[sp],#0x20
	ret

	ENDP  ; |?_GetBits@Decoder@Jpeg@@AEAAHH@Z|, Jpeg::Decoder::_GetBits

; Function compile flags: /Odtp
; File C:\Users\paras\source\repos\grep-name\XenevaOS\Libs\Chitralekha\nanojpg.h

	AREA	|.text$mn|, CODE, ARM64

|?_SkipBits@Decoder@Jpeg@@AEAAXH@Z| PROC		; Jpeg::Decoder::_SkipBits

; 274  : 		inline void _SkipBits(int bits) {

|$LN4|
	stp         fp,lr,[sp,#-0x20]!
	mov         fp,sp
	str         x0,[sp,#0x18]
	str         w1,[sp,#0x10]

; 275  : 			if (ctx.bufbits < bits)

	ldr         x8,[sp,#0x18]
	add         x8,x8,#0x80,lsl #0xC
	add         x8,x8,#0x1D0
	ldr         w9,[sp,#0x10]
	ldr         w8,[x8]
	cmp         w8,w9
	bge         |$LN2@SkipBits|

; 276  : 				(void)_ShowBits(bits);

	ldr         w1,[sp,#0x10]
	ldr         x0,[sp,#0x18]
	bl          |?_ShowBits@Decoder@Jpeg@@AEAAHH@Z|
|$LN2@SkipBits|

; 277  : 			ctx.bufbits -= bits;

	ldr         x8,[sp,#0x18]
	add         x8,x8,#0x80,lsl #0xC
	add         x8,x8,#0x1D0
	ldr         w9,[x8]
	ldr         w8,[sp,#0x10]
	sub         w9,w9,w8
	ldr         x8,[sp,#0x18]
	add         x8,x8,#0x80,lsl #0xC
	add         x8,x8,#0x1D0
	str         w9,[x8]
	ldp         fp,lr,[sp],#0x20
	ret

	ENDP  ; |?_SkipBits@Decoder@Jpeg@@AEAAXH@Z|, Jpeg::Decoder::_SkipBits

; Function compile flags: /Odtp
; File C:\Users\paras\source\repos\grep-name\XenevaOS\Libs\Chitralekha\nanojpg.h

	AREA	|.text$mn|, CODE, ARM64

|?_ShowBits@Decoder@Jpeg@@AEAAHH@Z| PROC		; Jpeg::Decoder::_ShowBits

; 238  : 		inline int _ShowBits(int bits) {

|$LN18|
	sub         sp,sp,#0x20
	str         x0,[sp,#0x10]
	str         w1,[sp,#4]

; 239  : 			unsigned char newbyte;
; 240  : 			if (!bits) return 0;

	ldr         w8,[sp,#4]
	cmp         w8,#0
	bne         |$LN6@ShowBits|
	mov         w0,#0
	b           |$LN1@ShowBits|
|$LN6@ShowBits|
|$LN17@ShowBits|
|$LN2@ShowBits|

; 241  : 			while (ctx.bufbits < bits) {

	ldr         x8,[sp,#0x10]
	add         x8,x8,#0x80,lsl #0xC
	add         x8,x8,#0x1D0
	ldr         w9,[sp,#4]
	ldr         w8,[x8]
	cmp         w8,w9
	bge         |$LN3@ShowBits|

; 242  : 				if (ctx.size <= 0) {

	ldr         x8,[sp,#0x10]
	add         x8,x8,#0x10
	ldr         w8,[x8]
	cmp         w8,#0
	bgt         |$LN7@ShowBits|

; 243  : 					ctx.buf = (ctx.buf << 8) | 0xFF;

	ldr         x8,[sp,#0x10]
	add         x8,x8,#0x80,lsl #0xC
	add         x8,x8,#0x1CC
	ldr         w8,[x8]
	lsl         w8,w8,#8
	orr         w9,w8,#0xFF
	ldr         x8,[sp,#0x10]
	add         x8,x8,#0x80,lsl #0xC
	add         x8,x8,#0x1CC
	str         w9,[x8]

; 244  : 					ctx.bufbits += 8;

	ldr         x8,[sp,#0x10]
	add         x8,x8,#0x80,lsl #0xC
	add         x8,x8,#0x1D0
	ldr         w8,[x8]
	add         w9,w8,#8
	ldr         x8,[sp,#0x10]
	add         x8,x8,#0x80,lsl #0xC
	add         x8,x8,#0x1D0
	str         w9,[x8]

; 245  : 					continue;

	b           |$LN2@ShowBits|
|$LN7@ShowBits|

; 246  : 				}
; 247  : 				newbyte = *ctx.pos++;

	ldr         x8,[sp,#0x10]
	add         x8,x8,#8
	ldr         x8,[x8]
	ldrb        w8,[x8]
	strb        w8,[sp,#1]
	ldr         x8,[sp,#0x10]
	add         x8,x8,#8
	ldr         x8,[x8]
	add         x9,x8,#1
	ldr         x8,[sp,#0x10]
	add         x8,x8,#8
	str         x9,[x8]

; 248  : 				ctx.size--;

	ldr         x8,[sp,#0x10]
	add         x8,x8,#0x10
	ldr         w8,[x8]
	sub         w9,w8,#1
	ldr         x8,[sp,#0x10]
	add         x8,x8,#0x10
	str         w9,[x8]

; 249  : 				ctx.bufbits += 8;

	ldr         x8,[sp,#0x10]
	add         x8,x8,#0x80,lsl #0xC
	add         x8,x8,#0x1D0
	ldr         w8,[x8]
	add         w9,w8,#8
	ldr         x8,[sp,#0x10]
	add         x8,x8,#0x80,lsl #0xC
	add         x8,x8,#0x1D0
	str         w9,[x8]

; 250  : 				ctx.buf = (ctx.buf << 8) | newbyte;

	ldr         x8,[sp,#0x10]
	add         x8,x8,#0x80,lsl #0xC
	add         x8,x8,#0x1CC
	ldr         w8,[x8]
	lsl         w9,w8,#8
	ldrb        w8,[sp,#1]
	mov         w8,w8
	orr         w9,w9,w8
	ldr         x8,[sp,#0x10]
	add         x8,x8,#0x80,lsl #0xC
	add         x8,x8,#0x1CC
	str         w9,[x8]

; 251  : 				if (newbyte == 0xFF) {

	ldrb        w8,[sp,#1]
	mov         w8,w8
	cmp         w8,#0xFF
	bne         |$LN8@ShowBits|

; 252  : 					if (ctx.size) {

	ldr         x8,[sp,#0x10]
	add         x8,x8,#0x10
	ldr         w8,[x8]
	cmp         w8,#0
	beq         |$LN9@ShowBits|

; 253  : 						unsigned char marker = *ctx.pos++;

	ldr         x8,[sp,#0x10]
	add         x8,x8,#8
	ldr         x8,[x8]
	ldrb        w8,[x8]
	strb        w8,[sp]
	ldr         x8,[sp,#0x10]
	add         x8,x8,#8
	ldr         x8,[x8]
	add         x9,x8,#1
	ldr         x8,[sp,#0x10]
	add         x8,x8,#8
	str         x9,[x8]

; 254  : 						ctx.size--;

	ldr         x8,[sp,#0x10]
	add         x8,x8,#0x10
	ldr         w8,[x8]
	sub         w9,w8,#1
	ldr         x8,[sp,#0x10]
	add         x8,x8,#0x10
	str         w9,[x8]

; 255  : 						switch (marker) {

	ldrb        w8,[sp]
	mov         w8,w8
	str         w8,[sp,#8]
	ldr         w8,[sp,#8]
	cmp         w8,#0
	beq         |$LN11@ShowBits|
	ldr         w8,[sp,#8]
	cmp         w8,#0xD9
	beq         |$LN12@ShowBits|
	b           |$LN13@ShowBits|
|$LN11@ShowBits|

; 256  : 						case 0:    break;

	b           |$LN4@ShowBits|
|$LN12@ShowBits|

; 257  : 						case 0xD9: ctx.size = 0; break;

	ldr         x8,[sp,#0x10]
	add         x9,x8,#0x10
	mov         w8,#0
	str         w8,[x9]
	b           |$LN4@ShowBits|
|$LN13@ShowBits|

; 258  : 						default:
; 259  : 							if ((marker & 0xF8) != 0xD0)

	ldrb        w8,[sp]
	mov         w8,w8
	and         w8,w8,#0xF8
	cmp         w8,#0xD0
	beq         |$LN14@ShowBits|

; 260  : 								ctx.error = SyntaxError;

	ldr         x9,[sp,#0x10]
	mov         w8,#5
	str         w8,[x9]
	b           |$LN15@ShowBits|
|$LN14@ShowBits|

; 261  : 							else {
; 262  : 								ctx.buf = (ctx.buf << 8) | marker;

	ldr         x8,[sp,#0x10]
	add         x8,x8,#0x80,lsl #0xC
	add         x8,x8,#0x1CC
	ldr         w8,[x8]
	lsl         w9,w8,#8
	ldrb        w8,[sp]
	mov         w8,w8
	orr         w9,w9,w8
	ldr         x8,[sp,#0x10]
	add         x8,x8,#0x80,lsl #0xC
	add         x8,x8,#0x1CC
	str         w9,[x8]

; 263  : 								ctx.bufbits += 8;

	ldr         x8,[sp,#0x10]
	add         x8,x8,#0x80,lsl #0xC
	add         x8,x8,#0x1D0
	ldr         w8,[x8]
	add         w9,w8,#8
	ldr         x8,[sp,#0x10]
	add         x8,x8,#0x80,lsl #0xC
	add         x8,x8,#0x1D0
	str         w9,[x8]
|$LN15@ShowBits|
|$LN4@ShowBits|

; 264  : 							}
; 265  : 						}
; 266  : 					}

	b           |$LN10@ShowBits|
|$LN9@ShowBits|

; 267  : 					else
; 268  : 						ctx.error = SyntaxError;

	ldr         x9,[sp,#0x10]
	mov         w8,#5
	str         w8,[x9]
|$LN10@ShowBits|
|$LN8@ShowBits|

; 269  : 				}
; 270  : 			}

	b           |$LN17@ShowBits|
|$LN3@ShowBits|

; 271  : 			return (ctx.buf >> (ctx.bufbits - bits)) & ((1 << bits) - 1);

	ldr         x8,[sp,#0x10]
	add         x8,x8,#0x80,lsl #0xC
	add         x10,x8,#0x1CC
	ldr         x8,[sp,#0x10]
	add         x8,x8,#0x80,lsl #0xC
	add         x8,x8,#0x1D0
	ldr         w9,[x8]
	ldr         w8,[sp,#4]
	sub         w9,w9,w8
	ldr         w8,[x10]
	asr         w10,w8,w9
	mov         w9,#1
	ldr         w8,[sp,#4]
	lsl         w8,w9,w8
	sub         w8,w8,#1
	and         w0,w10,w8
	mov         w0,w0
|$LN1@ShowBits|
	add         sp,sp,#0x20
	ret

	ENDP  ; |?_ShowBits@Decoder@Jpeg@@AEAAHH@Z|, Jpeg::Decoder::_ShowBits

; Function compile flags: /Odtp
; File C:\Users\paras\source\repos\grep-name\XenevaOS\Libs\Chitralekha\nanojpg.h

	AREA	|.text$mn|, CODE, ARM64

|?_ColIDCT@Decoder@Jpeg@@AEAAXPEBHPEAEH@Z| PROC		; Jpeg::Decoder::_ColIDCT

; 187  : 		inline void _ColIDCT(const int* blk, unsigned char *out, int stride) {

|$LN7|
	stp         fp,lr,[sp,#-0x50]!
	mov         fp,sp
	str         x0,[sp,#0x48]
	str         x1,[sp,#0x40]
	str         x2,[sp,#0x18]
	str         w3,[sp,#0x3C]

; 188  : 			int x0, x1, x2, x3, x4, x5, x6, x7, x8;
; 189  : 			if (!((x1 = blk[8 * 4] << 8)

	ldr         x8,[sp,#0x40]
	add         x8,x8,#0x80
	ldr         w8,[x8]
	lsl         w8,w8,#8
	str         w8,[sp,#0x24]
	ldr         x8,[sp,#0x40]
	add         x8,x8,#0xC0
	ldr         w8,[x8]
	str         w8,[sp,#0x34]
	ldr         x8,[sp,#0x40]
	add         x8,x8,#0x40
	ldr         w8,[x8]
	str         w8,[sp,#0x30]
	ldr         x8,[sp,#0x40]
	add         x8,x8,#0x20
	ldr         w8,[x8]
	str         w8,[sp,#0x14]
	ldr         x8,[sp,#0x40]
	add         x8,x8,#0xE0
	ldr         w8,[x8]
	str         w8,[sp,#0x28]
	ldr         x8,[sp,#0x40]
	add         x8,x8,#0xA0
	ldr         w8,[x8]
	str         w8,[sp,#0x2C]
	ldr         x8,[sp,#0x40]
	add         x8,x8,#0x60
	ldr         w8,[x8]
	str         w8,[sp,#0x38]
	ldr         w9,[sp,#0x24]
	ldr         w8,[sp,#0x34]
	orr         w9,w9,w8
	ldr         w8,[sp,#0x30]
	orr         w9,w9,w8
	ldr         w8,[sp,#0x14]
	orr         w9,w9,w8
	ldr         w8,[sp,#0x28]
	orr         w9,w9,w8
	ldr         w8,[sp,#0x2C]
	orr         w9,w9,w8
	ldr         w8,[sp,#0x38]
	orr         w8,w9,w8
	cmp         w8,#0
	bne         |$LN5@ColIDCT|

; 190  : 				| (x2 = blk[8 * 6])
; 191  : 				| (x3 = blk[8 * 2])
; 192  : 				| (x4 = blk[8 * 1])
; 193  : 				| (x5 = blk[8 * 7])
; 194  : 				| (x6 = blk[8 * 5])
; 195  : 				| (x7 = blk[8 * 3])))
; 196  : 			{
; 197  : 				x1 = _Clip(((blk[0] + 32) >> 6) + 128);

	ldr         x8,[sp,#0x40]
	ldr         w8,[x8]
	add         w8,w8,#0x20
	asr         w8,w8,#6
	add         w1,w8,#0x80
	mov         w1,w1
	ldr         x0,[sp,#0x48]
	bl          |?_Clip@Decoder@Jpeg@@AEAAEH@Z|
	uxtb        w8,w0
	mov         w8,w8
	str         w8,[sp,#0x24]

; 198  : 				for (x0 = 8; x0; --x0) {

	mov         w8,#8
	str         w8,[sp,#0x10]
	b           |$LN4@ColIDCT|
|$LN2@ColIDCT|
	ldr         w8,[sp,#0x10]
	sub         w8,w8,#1
	str         w8,[sp,#0x10]
|$LN4@ColIDCT|
	ldr         w8,[sp,#0x10]
	cmp         w8,#0
	beq         |$LN3@ColIDCT|

; 199  : 					*out = (unsigned char)x1;

	ldr         w8,[sp,#0x24]
	uxtb        w9,w8
	ldr         x8,[sp,#0x18]
	strb        w9,[x8]

; 200  : 					out += stride;

	ldr         w8,[sp,#0x3C]
	sxtw        x9,w8
	ldr         x8,[sp,#0x18]
	add         x8,x8,x9
	str         x8,[sp,#0x18]

; 201  : 				}

	b           |$LN2@ColIDCT|
|$LN3@ColIDCT|

; 202  : 				return;

	b           |$LN1@ColIDCT|
|$LN5@ColIDCT|

; 203  : 			}
; 204  : 			x0 = (blk[0] << 8) + 8192;

	ldr         x8,[sp,#0x40]
	ldr         w8,[x8]
	lsl         w8,w8,#8
	add         w8,w8,#2,lsl #0xC
	str         w8,[sp,#0x10]

; 205  : 			x8 = W7 * (x4 + x5) + 4;

	ldr         w9,[sp,#0x14]
	ldr         w8,[sp,#0x28]
	add         w9,w9,w8
	mov         w8,#0x235
	mul         w8,w9,w8
	add         w8,w8,#4
	str         w8,[sp,#0x20]

; 206  : 			x4 = (x8 + (W1 - W7) * x4) >> 3;

	ldr         w9,[sp,#0x14]
	mov         w8,#0x8E4
	mul         w9,w9,w8
	ldr         w8,[sp,#0x20]
	add         w8,w8,w9
	asr         w8,w8,#3
	str         w8,[sp,#0x14]

; 207  : 			x5 = (x8 - (W1 + W7) * x5) >> 3;

	ldr         w9,[sp,#0x28]
	mov         w8,#0xD4E
	mul         w9,w9,w8
	ldr         w8,[sp,#0x20]
	sub         w8,w8,w9
	asr         w8,w8,#3
	str         w8,[sp,#0x28]

; 208  : 			x8 = W3 * (x6 + x7) + 4;

	ldr         w9,[sp,#0x2C]
	ldr         w8,[sp,#0x38]
	add         w9,w9,w8
	mov         w8,#0x968
	mul         w8,w9,w8
	add         w8,w8,#4
	str         w8,[sp,#0x20]

; 209  : 			x6 = (x8 - (W3 - W5) * x6) >> 3;

	ldr         w9,[sp,#0x2C]
	mov         w8,#0x31F
	mul         w9,w9,w8
	ldr         w8,[sp,#0x20]
	sub         w8,w8,w9
	asr         w8,w8,#3
	str         w8,[sp,#0x2C]

; 210  : 			x7 = (x8 - (W3 + W5) * x7) >> 3;

	ldr         w9,[sp,#0x38]
	mov         w8,#0xFB1
	mul         w9,w9,w8
	ldr         w8,[sp,#0x20]
	sub         w8,w8,w9
	asr         w8,w8,#3
	str         w8,[sp,#0x38]

; 211  : 			x8 = x0 + x1;

	ldr         w9,[sp,#0x10]
	ldr         w8,[sp,#0x24]
	add         w8,w9,w8
	str         w8,[sp,#0x20]

; 212  : 			x0 -= x1;

	ldr         w9,[sp,#0x10]
	ldr         w8,[sp,#0x24]
	sub         w8,w9,w8
	str         w8,[sp,#0x10]

; 213  : 			x1 = W6 * (x3 + x2) + 4;

	ldr         w9,[sp,#0x30]
	ldr         w8,[sp,#0x34]
	add         w9,w9,w8
	mov         w8,#0x454
	mul         w8,w9,w8
	add         w8,w8,#4
	str         w8,[sp,#0x24]

; 214  : 			x2 = (x1 - (W2 + W6) * x2) >> 3;

	ldr         w9,[sp,#0x34]
	mov         w8,#0xEC8
	mul         w9,w9,w8
	ldr         w8,[sp,#0x24]
	sub         w8,w8,w9
	asr         w8,w8,#3
	str         w8,[sp,#0x34]

; 215  : 			x3 = (x1 + (W2 - W6) * x3) >> 3;

	ldr         w9,[sp,#0x30]
	mov         w8,#0x620
	mul         w9,w9,w8
	ldr         w8,[sp,#0x24]
	add         w8,w8,w9
	asr         w8,w8,#3
	str         w8,[sp,#0x30]

; 216  : 			x1 = x4 + x6;

	ldr         w9,[sp,#0x14]
	ldr         w8,[sp,#0x2C]
	add         w8,w9,w8
	str         w8,[sp,#0x24]

; 217  : 			x4 -= x6;

	ldr         w9,[sp,#0x14]
	ldr         w8,[sp,#0x2C]
	sub         w8,w9,w8
	str         w8,[sp,#0x14]

; 218  : 			x6 = x5 + x7;

	ldr         w9,[sp,#0x28]
	ldr         w8,[sp,#0x38]
	add         w8,w9,w8
	str         w8,[sp,#0x2C]

; 219  : 			x5 -= x7;

	ldr         w9,[sp,#0x28]
	ldr         w8,[sp,#0x38]
	sub         w8,w9,w8
	str         w8,[sp,#0x28]

; 220  : 			x7 = x8 + x3;

	ldr         w9,[sp,#0x20]
	ldr         w8,[sp,#0x30]
	add         w8,w9,w8
	str         w8,[sp,#0x38]

; 221  : 			x8 -= x3;

	ldr         w9,[sp,#0x20]
	ldr         w8,[sp,#0x30]
	sub         w8,w9,w8
	str         w8,[sp,#0x20]

; 222  : 			x3 = x0 + x2;

	ldr         w9,[sp,#0x10]
	ldr         w8,[sp,#0x34]
	add         w8,w9,w8
	str         w8,[sp,#0x30]

; 223  : 			x0 -= x2;

	ldr         w9,[sp,#0x10]
	ldr         w8,[sp,#0x34]
	sub         w8,w9,w8
	str         w8,[sp,#0x10]

; 224  : 			x2 = (181 * (x4 + x5) + 128) >> 8;

	ldr         w9,[sp,#0x14]
	ldr         w8,[sp,#0x28]
	add         w9,w9,w8
	mov         w8,#0xB5
	mul         w8,w9,w8
	add         w8,w8,#0x80
	asr         w8,w8,#8
	str         w8,[sp,#0x34]

; 225  : 			x4 = (181 * (x4 - x5) + 128) >> 8;

	ldr         w9,[sp,#0x14]
	ldr         w8,[sp,#0x28]
	sub         w9,w9,w8
	mov         w8,#0xB5
	mul         w8,w9,w8
	add         w8,w8,#0x80
	asr         w8,w8,#8
	str         w8,[sp,#0x14]

; 226  : 			*out = _Clip(((x7 + x1) >> 14) + 128);  out += stride;

	ldr         w9,[sp,#0x38]
	ldr         w8,[sp,#0x24]
	add         w8,w9,w8
	asr         w8,w8,#0xE
	add         w1,w8,#0x80
	mov         w1,w1
	ldr         x0,[sp,#0x48]
	bl          |?_Clip@Decoder@Jpeg@@AEAAEH@Z|
	uxtb        w9,w0
	ldr         x8,[sp,#0x18]
	strb        w9,[x8]
	ldr         w8,[sp,#0x3C]
	sxtw        x9,w8
	ldr         x8,[sp,#0x18]
	add         x8,x8,x9
	str         x8,[sp,#0x18]

; 227  : 			*out = _Clip(((x3 + x2) >> 14) + 128);  out += stride;

	ldr         w9,[sp,#0x30]
	ldr         w8,[sp,#0x34]
	add         w8,w9,w8
	asr         w8,w8,#0xE
	add         w1,w8,#0x80
	mov         w1,w1
	ldr         x0,[sp,#0x48]
	bl          |?_Clip@Decoder@Jpeg@@AEAAEH@Z|
	uxtb        w9,w0
	ldr         x8,[sp,#0x18]
	strb        w9,[x8]
	ldr         w8,[sp,#0x3C]
	sxtw        x9,w8
	ldr         x8,[sp,#0x18]
	add         x8,x8,x9
	str         x8,[sp,#0x18]

; 228  : 			*out = _Clip(((x0 + x4) >> 14) + 128);  out += stride;

	ldr         w9,[sp,#0x10]
	ldr         w8,[sp,#0x14]
	add         w8,w9,w8
	asr         w8,w8,#0xE
	add         w1,w8,#0x80
	mov         w1,w1
	ldr         x0,[sp,#0x48]
	bl          |?_Clip@Decoder@Jpeg@@AEAAEH@Z|
	uxtb        w9,w0
	ldr         x8,[sp,#0x18]
	strb        w9,[x8]
	ldr         w8,[sp,#0x3C]
	sxtw        x9,w8
	ldr         x8,[sp,#0x18]
	add         x8,x8,x9
	str         x8,[sp,#0x18]

; 229  : 			*out = _Clip(((x8 + x6) >> 14) + 128);  out += stride;

	ldr         w9,[sp,#0x20]
	ldr         w8,[sp,#0x2C]
	add         w8,w9,w8
	asr         w8,w8,#0xE
	add         w1,w8,#0x80
	mov         w1,w1
	ldr         x0,[sp,#0x48]
	bl          |?_Clip@Decoder@Jpeg@@AEAAEH@Z|
	uxtb        w9,w0
	ldr         x8,[sp,#0x18]
	strb        w9,[x8]
	ldr         w8,[sp,#0x3C]
	sxtw        x9,w8
	ldr         x8,[sp,#0x18]
	add         x8,x8,x9
	str         x8,[sp,#0x18]

; 230  : 			*out = _Clip(((x8 - x6) >> 14) + 128);  out += stride;

	ldr         w9,[sp,#0x20]
	ldr         w8,[sp,#0x2C]
	sub         w8,w9,w8
	asr         w8,w8,#0xE
	add         w1,w8,#0x80
	mov         w1,w1
	ldr         x0,[sp,#0x48]
	bl          |?_Clip@Decoder@Jpeg@@AEAAEH@Z|
	uxtb        w9,w0
	ldr         x8,[sp,#0x18]
	strb        w9,[x8]
	ldr         w8,[sp,#0x3C]
	sxtw        x9,w8
	ldr         x8,[sp,#0x18]
	add         x8,x8,x9
	str         x8,[sp,#0x18]

; 231  : 			*out = _Clip(((x0 - x4) >> 14) + 128);  out += stride;

	ldr         w9,[sp,#0x10]
	ldr         w8,[sp,#0x14]
	sub         w8,w9,w8
	asr         w8,w8,#0xE
	add         w1,w8,#0x80
	mov         w1,w1
	ldr         x0,[sp,#0x48]
	bl          |?_Clip@Decoder@Jpeg@@AEAAEH@Z|
	uxtb        w9,w0
	ldr         x8,[sp,#0x18]
	strb        w9,[x8]
	ldr         w8,[sp,#0x3C]
	sxtw        x9,w8
	ldr         x8,[sp,#0x18]
	add         x8,x8,x9
	str         x8,[sp,#0x18]

; 232  : 			*out = _Clip(((x3 - x2) >> 14) + 128);  out += stride;

	ldr         w9,[sp,#0x30]
	ldr         w8,[sp,#0x34]
	sub         w8,w9,w8
	asr         w8,w8,#0xE
	add         w1,w8,#0x80
	mov         w1,w1
	ldr         x0,[sp,#0x48]
	bl          |?_Clip@Decoder@Jpeg@@AEAAEH@Z|
	uxtb        w9,w0
	ldr         x8,[sp,#0x18]
	strb        w9,[x8]
	ldr         w8,[sp,#0x3C]
	sxtw        x9,w8
	ldr         x8,[sp,#0x18]
	add         x8,x8,x9
	str         x8,[sp,#0x18]

; 233  : 			*out = _Clip(((x7 - x1) >> 14) + 128);

	ldr         w9,[sp,#0x38]
	ldr         w8,[sp,#0x24]
	sub         w8,w9,w8
	asr         w8,w8,#0xE
	add         w1,w8,#0x80
	mov         w1,w1
	ldr         x0,[sp,#0x48]
	bl          |?_Clip@Decoder@Jpeg@@AEAAEH@Z|
	uxtb        w9,w0
	ldr         x8,[sp,#0x18]
	strb        w9,[x8]
|$LN1@ColIDCT|
	ldp         fp,lr,[sp],#0x50
	ret

	ENDP  ; |?_ColIDCT@Decoder@Jpeg@@AEAAXPEBHPEAEH@Z|, Jpeg::Decoder::_ColIDCT

; Function compile flags: /Odtp
; File C:\Users\paras\source\repos\grep-name\XenevaOS\Libs\Chitralekha\nanojpg.h

	AREA	|.text$mn|, CODE, ARM64

|?_RowIDCT@Decoder@Jpeg@@AEAAXPEAH@Z| PROC		; Jpeg::Decoder::_RowIDCT

; 142  : 		inline void _RowIDCT(int* blk) {

|$LN4|
	sub         sp,sp,#0x40
	str         x0,[sp,#0x38]
	str         x1,[sp,#8]

; 143  : 			int x0, x1, x2, x3, x4, x5, x6, x7, x8;
; 144  : 			if (!((x1 = blk[4] << 11)

	ldr         x8,[sp,#8]
	add         x8,x8,#0x10
	ldr         w8,[x8]
	lsl         w8,w8,#0xB
	str         w8,[sp,#0x28]
	ldr         x8,[sp,#8]
	add         x8,x8,#0x18
	ldr         w8,[x8]
	str         w8,[sp,#0x20]
	ldr         x8,[sp,#8]
	add         x8,x8,#8
	ldr         w8,[x8]
	str         w8,[sp,#0x1C]
	ldr         x8,[sp,#8]
	add         x8,x8,#4
	ldr         w8,[x8]
	str         w8,[sp]
	ldr         x8,[sp,#8]
	add         x8,x8,#0x1C
	ldr         w8,[x8]
	str         w8,[sp,#0x14]
	ldr         x8,[sp,#8]
	add         x8,x8,#0x14
	ldr         w8,[x8]
	str         w8,[sp,#0x18]
	ldr         x8,[sp,#8]
	add         x8,x8,#0xC
	ldr         w8,[x8]
	str         w8,[sp,#0x24]
	ldr         w9,[sp,#0x28]
	ldr         w8,[sp,#0x20]
	orr         w9,w9,w8
	ldr         w8,[sp,#0x1C]
	orr         w9,w9,w8
	ldr         w8,[sp]
	orr         w9,w9,w8
	ldr         w8,[sp,#0x14]
	orr         w9,w9,w8
	ldr         w8,[sp,#0x18]
	orr         w9,w9,w8
	ldr         w8,[sp,#0x24]
	orr         w8,w9,w8
	cmp         w8,#0
	bne         |$LN2@RowIDCT|

; 145  : 				| (x2 = blk[6])
; 146  : 				| (x3 = blk[2])
; 147  : 				| (x4 = blk[1])
; 148  : 				| (x5 = blk[7])
; 149  : 				| (x6 = blk[5])
; 150  : 				| (x7 = blk[3])))
; 151  : 			{
; 152  : 				blk[0] = blk[1] = blk[2] = blk[3] = blk[4] = blk[5] = blk[6] = blk[7] = blk[0] << 3;

	ldr         x8,[sp,#8]
	ldr         w8,[x8]
	lsl         w8,w8,#3
	str         w8,[sp,#0x2C]
	ldr         x8,[sp,#8]
	add         x9,x8,#0x1C
	ldr         w8,[sp,#0x2C]
	str         w8,[x9]
	ldr         x8,[sp,#8]
	add         x9,x8,#0x18
	ldr         w8,[sp,#0x2C]
	str         w8,[x9]
	ldr         x8,[sp,#8]
	add         x9,x8,#0x14
	ldr         w8,[sp,#0x2C]
	str         w8,[x9]
	ldr         x8,[sp,#8]
	add         x9,x8,#0x10
	ldr         w8,[sp,#0x2C]
	str         w8,[x9]
	ldr         x8,[sp,#8]
	add         x9,x8,#0xC
	ldr         w8,[sp,#0x2C]
	str         w8,[x9]
	ldr         x8,[sp,#8]
	add         x9,x8,#8
	ldr         w8,[sp,#0x2C]
	str         w8,[x9]
	ldr         x8,[sp,#8]
	add         x9,x8,#4
	ldr         w8,[sp,#0x2C]
	str         w8,[x9]
	ldr         x9,[sp,#8]
	ldr         w8,[sp,#0x2C]
	str         w8,[x9]

; 153  : 				return;

	b           |$LN1@RowIDCT|
|$LN2@RowIDCT|

; 154  : 			}
; 155  : 			x0 = (blk[0] << 11) + 128;

	ldr         x8,[sp,#8]
	ldr         w8,[x8]
	lsl         w8,w8,#0xB
	add         w8,w8,#0x80
	str         w8,[sp,#0x30]

; 156  : 			x8 = W7 * (x4 + x5);

	ldr         w9,[sp]
	ldr         w8,[sp,#0x14]
	add         w9,w9,w8
	mov         w8,#0x235
	mul         w8,w9,w8
	str         w8,[sp,#0x10]

; 157  : 			x4 = x8 + (W1 - W7) * x4;

	ldr         w9,[sp]
	mov         w8,#0x8E4
	mul         w9,w9,w8
	ldr         w8,[sp,#0x10]
	add         w8,w8,w9
	str         w8,[sp]

; 158  : 			x5 = x8 - (W1 + W7) * x5;

	ldr         w9,[sp,#0x14]
	mov         w8,#0xD4E
	mul         w9,w9,w8
	ldr         w8,[sp,#0x10]
	sub         w8,w8,w9
	str         w8,[sp,#0x14]

; 159  : 			x8 = W3 * (x6 + x7);

	ldr         w9,[sp,#0x18]
	ldr         w8,[sp,#0x24]
	add         w9,w9,w8
	mov         w8,#0x968
	mul         w8,w9,w8
	str         w8,[sp,#0x10]

; 160  : 			x6 = x8 - (W3 - W5) * x6;

	ldr         w9,[sp,#0x18]
	mov         w8,#0x31F
	mul         w9,w9,w8
	ldr         w8,[sp,#0x10]
	sub         w8,w8,w9
	str         w8,[sp,#0x18]

; 161  : 			x7 = x8 - (W3 + W5) * x7;

	ldr         w9,[sp,#0x24]
	mov         w8,#0xFB1
	mul         w9,w9,w8
	ldr         w8,[sp,#0x10]
	sub         w8,w8,w9
	str         w8,[sp,#0x24]

; 162  : 			x8 = x0 + x1;

	ldr         w9,[sp,#0x30]
	ldr         w8,[sp,#0x28]
	add         w8,w9,w8
	str         w8,[sp,#0x10]

; 163  : 			x0 -= x1;

	ldr         w9,[sp,#0x30]
	ldr         w8,[sp,#0x28]
	sub         w8,w9,w8
	str         w8,[sp,#0x30]

; 164  : 			x1 = W6 * (x3 + x2);

	ldr         w9,[sp,#0x1C]
	ldr         w8,[sp,#0x20]
	add         w9,w9,w8
	mov         w8,#0x454
	mul         w8,w9,w8
	str         w8,[sp,#0x28]

; 165  : 			x2 = x1 - (W2 + W6) * x2;

	ldr         w9,[sp,#0x20]
	mov         w8,#0xEC8
	mul         w9,w9,w8
	ldr         w8,[sp,#0x28]
	sub         w8,w8,w9
	str         w8,[sp,#0x20]

; 166  : 			x3 = x1 + (W2 - W6) * x3;

	ldr         w9,[sp,#0x1C]
	mov         w8,#0x620
	mul         w9,w9,w8
	ldr         w8,[sp,#0x28]
	add         w8,w8,w9
	str         w8,[sp,#0x1C]

; 167  : 			x1 = x4 + x6;

	ldr         w9,[sp]
	ldr         w8,[sp,#0x18]
	add         w8,w9,w8
	str         w8,[sp,#0x28]

; 168  : 			x4 -= x6;

	ldr         w9,[sp]
	ldr         w8,[sp,#0x18]
	sub         w8,w9,w8
	str         w8,[sp]

; 169  : 			x6 = x5 + x7;

	ldr         w9,[sp,#0x14]
	ldr         w8,[sp,#0x24]
	add         w8,w9,w8
	str         w8,[sp,#0x18]

; 170  : 			x5 -= x7;

	ldr         w9,[sp,#0x14]
	ldr         w8,[sp,#0x24]
	sub         w8,w9,w8
	str         w8,[sp,#0x14]

; 171  : 			x7 = x8 + x3;

	ldr         w9,[sp,#0x10]
	ldr         w8,[sp,#0x1C]
	add         w8,w9,w8
	str         w8,[sp,#0x24]

; 172  : 			x8 -= x3;

	ldr         w9,[sp,#0x10]
	ldr         w8,[sp,#0x1C]
	sub         w8,w9,w8
	str         w8,[sp,#0x10]

; 173  : 			x3 = x0 + x2;

	ldr         w9,[sp,#0x30]
	ldr         w8,[sp,#0x20]
	add         w8,w9,w8
	str         w8,[sp,#0x1C]

; 174  : 			x0 -= x2;

	ldr         w9,[sp,#0x30]
	ldr         w8,[sp,#0x20]
	sub         w8,w9,w8
	str         w8,[sp,#0x30]

; 175  : 			x2 = (181 * (x4 + x5) + 128) >> 8;

	ldr         w9,[sp]
	ldr         w8,[sp,#0x14]
	add         w9,w9,w8
	mov         w8,#0xB5
	mul         w8,w9,w8
	add         w8,w8,#0x80
	asr         w8,w8,#8
	str         w8,[sp,#0x20]

; 176  : 			x4 = (181 * (x4 - x5) + 128) >> 8;

	ldr         w9,[sp]
	ldr         w8,[sp,#0x14]
	sub         w9,w9,w8
	mov         w8,#0xB5
	mul         w8,w9,w8
	add         w8,w8,#0x80
	asr         w8,w8,#8
	str         w8,[sp]

; 177  : 			blk[0] = (x7 + x1) >> 8;

	ldr         w9,[sp,#0x24]
	ldr         w8,[sp,#0x28]
	add         w8,w9,w8
	asr         w9,w8,#8
	ldr         x8,[sp,#8]
	str         w9,[x8]

; 178  : 			blk[1] = (x3 + x2) >> 8;

	ldr         w9,[sp,#0x1C]
	ldr         w8,[sp,#0x20]
	add         w8,w9,w8
	asr         w9,w8,#8
	ldr         x8,[sp,#8]
	add         x8,x8,#4
	str         w9,[x8]

; 179  : 			blk[2] = (x0 + x4) >> 8;

	ldr         w9,[sp,#0x30]
	ldr         w8,[sp]
	add         w8,w9,w8
	asr         w9,w8,#8
	ldr         x8,[sp,#8]
	add         x8,x8,#8
	str         w9,[x8]

; 180  : 			blk[3] = (x8 + x6) >> 8;

	ldr         w9,[sp,#0x10]
	ldr         w8,[sp,#0x18]
	add         w8,w9,w8
	asr         w9,w8,#8
	ldr         x8,[sp,#8]
	add         x8,x8,#0xC
	str         w9,[x8]

; 181  : 			blk[4] = (x8 - x6) >> 8;

	ldr         w9,[sp,#0x10]
	ldr         w8,[sp,#0x18]
	sub         w8,w9,w8
	asr         w9,w8,#8
	ldr         x8,[sp,#8]
	add         x8,x8,#0x10
	str         w9,[x8]

; 182  : 			blk[5] = (x0 - x4) >> 8;

	ldr         w9,[sp,#0x30]
	ldr         w8,[sp]
	sub         w8,w9,w8
	asr         w9,w8,#8
	ldr         x8,[sp,#8]
	add         x8,x8,#0x14
	str         w9,[x8]

; 183  : 			blk[6] = (x3 - x2) >> 8;

	ldr         w9,[sp,#0x1C]
	ldr         w8,[sp,#0x20]
	sub         w8,w9,w8
	asr         w9,w8,#8
	ldr         x8,[sp,#8]
	add         x8,x8,#0x18
	str         w9,[x8]

; 184  : 			blk[7] = (x7 - x1) >> 8;

	ldr         w9,[sp,#0x24]
	ldr         w8,[sp,#0x28]
	sub         w8,w9,w8
	asr         w9,w8,#8
	ldr         x8,[sp,#8]
	add         x8,x8,#0x1C
	str         w9,[x8]
|$LN1@RowIDCT|
	add         sp,sp,#0x40
	ret

	ENDP  ; |?_RowIDCT@Decoder@Jpeg@@AEAAXPEAH@Z|, Jpeg::Decoder::_RowIDCT

; Function compile flags: /Odtp
; File C:\Users\paras\source\repos\grep-name\XenevaOS\Libs\Chitralekha\nanojpg.h

	AREA	|.text$mn|, CODE, ARM64

|?_Clip@Decoder@Jpeg@@AEAAEH@Z| PROC			; Jpeg::Decoder::_Clip

; 129  : 		inline unsigned char _Clip(const int x) {

|$LN7|
	sub         sp,sp,#0x20
	str         x0,[sp,#0x10]
	str         w1,[sp]

; 130  : 			return (x < 0) ? 0 : ((x > 0xFF) ? 0xFF : (unsigned char)x);

	ldr         w8,[sp]
	cmp         w8,#0
	bge         |$LN5@Clip|
	mov         w8,#0
	str         w8,[sp,#8]
	b           |$LN6@Clip|
|$LN5@Clip|
	ldr         w8,[sp]
	cmp         w8,#0xFF
	ble         |$LN3@Clip|
	mov         w8,#0xFF
	str         w8,[sp,#4]
	b           |$LN4@Clip|
|$LN3@Clip|
	ldr         w8,[sp]
	uxtb        w8,w8
	mov         w8,w8
	str         w8,[sp,#4]
|$LN4@Clip|
	ldr         w8,[sp,#4]
	str         w8,[sp,#8]
|$LN6@Clip|
	ldr         w8,[sp,#8]
	uxtb        w0,w8
	mov         w0,w0
	add         sp,sp,#0x20
	ret

	ENDP  ; |?_Clip@Decoder@Jpeg@@AEAAEH@Z|, Jpeg::Decoder::_Clip

; Function compile flags: /Odtp
; File C:\Users\paras\source\repos\grep-name\XenevaOS\Libs\Chitralekha\nanojpg.h

	AREA	|.text$mn|, CODE, ARM64

|?GetImage@Decoder@Jpeg@@QEBAPEAEXZ| PROC		; Jpeg::Decoder::GetImage

; 680  : 	inline unsigned char* Decoder::GetImage() const { return (ctx.ncomp == 1) ? ctx.comp[0].pixels : ctx.rgb; }

|$LN5|
	sub         sp,sp,#0x10
	str         x0,[sp]
	ldr         x8,[sp]
	add         x8,x8,#0x30
	ldr         w8,[x8]
	cmp         w8,#1
	bne         |$LN3@GetImage|
	ldr         x8,[sp]
	add         x8,x8,#0x34
	add         x8,x8,#0x28
	ldr         x8,[x8]
	str         x8,[sp,#8]
	b           |$LN4@GetImage|
|$LN3@GetImage|
	ldr         x8,[sp]
	add         x8,x8,#0x80,lsl #0xC
	add         x8,x8,#0x2D8
	ldr         x8,[x8]
	str         x8,[sp,#8]
|$LN4@GetImage|
	ldr         x0,[sp,#8]
	add         sp,sp,#0x10
	ret

	ENDP  ; |?GetImage@Decoder@Jpeg@@QEBAPEAEXZ|, Jpeg::Decoder::GetImage

; Function compile flags: /Odtp
; File C:\Users\paras\source\repos\grep-name\XenevaOS\Libs\Chitralekha\nanojpg.h

	AREA	|.text$mn|, CODE, ARM64

|?GetHeight@Decoder@Jpeg@@QEBAHXZ| PROC			; Jpeg::Decoder::GetHeight

; 678  : 	inline int Decoder::GetHeight() const { return ctx.height; }

|$LN3|
	sub         sp,sp,#0x10
	str         x0,[sp]
	ldr         x8,[sp]
	add         x8,x8,#0x1C
	ldr         w0,[x8]
	add         sp,sp,#0x10
	ret

	ENDP  ; |?GetHeight@Decoder@Jpeg@@QEBAHXZ|, Jpeg::Decoder::GetHeight

; Function compile flags: /Odtp
; File C:\Users\paras\source\repos\grep-name\XenevaOS\Libs\Chitralekha\nanojpg.h

	AREA	|.text$mn|, CODE, ARM64

|?GetWidth@Decoder@Jpeg@@QEBAHXZ| PROC			; Jpeg::Decoder::GetWidth

; 677  : 	inline int Decoder::GetWidth() const { return ctx.width; }

|$LN3|
	sub         sp,sp,#0x10
	str         x0,[sp]
	ldr         x8,[sp]
	add         x8,x8,#0x18
	ldr         w0,[x8]
	add         sp,sp,#0x10
	ret

	ENDP  ; |?GetWidth@Decoder@Jpeg@@QEBAHXZ|, Jpeg::Decoder::GetWidth

; Function compile flags: /Odtp
; File C:\Users\paras\source\repos\grep-name\XenevaOS\Libs\Chitralekha\nanojpg.h

	AREA	|.text$mn|, CODE, ARM64

|?GetResult@Decoder@Jpeg@@QEBA?AW4DecodeResult@12@XZ| PROC ; Jpeg::Decoder::GetResult

; 676  : 	inline Decoder::DecodeResult Decoder::GetResult() const { return ctx.error; }

|$LN3|
	sub         sp,sp,#0x10
	str         x0,[sp]
	ldr         x8,[sp]
	ldr         w0,[x8]
	add         sp,sp,#0x10
	ret

	ENDP  ; |?GetResult@Decoder@Jpeg@@QEBA?AW4DecodeResult@12@XZ|, Jpeg::Decoder::GetResult

; Function compile flags: /Odtp
; File C:\Users\paras\source\repos\grep-name\XenevaOS\Libs\Chitralekha\nanojpg.h

	AREA	|.text$mn|, CODE, ARM64

|??0Decoder@Jpeg@@QEAA@PEBEIP6APEAXI@ZP6AXPEAX@Z@Z| PROC ; Jpeg::Decoder::Decoder

; 663  : 	{

|$LN4|
	stp         fp,lr,[sp,#-0x80]!
	mov         fp,sp
	str         x0,[sp,#0x50]
	str         x1,[sp,#0x70]
	str         w2,[sp,#0x58]
	str         x3,[sp,#0x60]
	str         x4,[sp,#0x68]

; 661  : 		: AllocMem(allocFunc)

	ldr         x8,[sp,#0x50]
	add         x8,x8,#0x80,lsl #0xC
	add         x9,x8,#0x320
	ldr         x8,[sp,#0x60]
	str         x8,[x9]

; 662  : 		, FreeMem(freeFunc)

	ldr         x8,[sp,#0x50]
	add         x8,x8,#0x80,lsl #0xC
	add         x9,x8,#0x328
	ldr         x8,[sp,#0x68]
	str         x8,[x9]

; 664  : 		// should be static data, but this keeps us as a header
; 665  : 		char temp[64] = { 0, 1, 8, 16, 9, 2, 3, 10, 17, 24, 32, 25, 18,

	mov         w8,#0
	strb        w8,[sp,#0x10]
	mov         w8,#1
	strb        w8,[sp,#0x11]
	mov         w8,#8
	strb        w8,[sp,#0x12]
	mov         w8,#0x10
	strb        w8,[sp,#0x13]
	mov         w8,#9
	strb        w8,[sp,#0x14]
	mov         w8,#2
	strb        w8,[sp,#0x15]
	mov         w8,#3
	strb        w8,[sp,#0x16]
	mov         w8,#0xA
	strb        w8,[sp,#0x17]
	mov         w8,#0x11
	strb        w8,[sp,#0x18]
	mov         w8,#0x18
	strb        w8,[sp,#0x19]
	mov         w8,#0x20
	strb        w8,[sp,#0x1A]
	mov         w8,#0x19
	strb        w8,[sp,#0x1B]
	mov         w8,#0x12
	strb        w8,[sp,#0x1C]

; 666  : 			11, 4, 5, 12, 19, 26, 33, 40, 48, 41, 34, 27, 20, 13, 6, 7, 14, 21, 28, 35,

	mov         w8,#0xB
	strb        w8,[sp,#0x1D]
	mov         w8,#4
	strb        w8,[sp,#0x1E]
	mov         w8,#5
	strb        w8,[sp,#0x1F]
	mov         w8,#0xC
	strb        w8,[sp,#0x20]
	mov         w8,#0x13
	strb        w8,[sp,#0x21]
	mov         w8,#0x1A
	strb        w8,[sp,#0x22]
	mov         w8,#0x21
	strb        w8,[sp,#0x23]
	mov         w8,#0x28
	strb        w8,[sp,#0x24]
	mov         w8,#0x30
	strb        w8,[sp,#0x25]
	mov         w8,#0x29
	strb        w8,[sp,#0x26]
	mov         w8,#0x22
	strb        w8,[sp,#0x27]
	mov         w8,#0x1B
	strb        w8,[sp,#0x28]
	mov         w8,#0x14
	strb        w8,[sp,#0x29]
	mov         w8,#0xD
	strb        w8,[sp,#0x2A]
	mov         w8,#6
	strb        w8,[sp,#0x2B]
	mov         w8,#7
	strb        w8,[sp,#0x2C]
	mov         w8,#0xE
	strb        w8,[sp,#0x2D]
	mov         w8,#0x15
	strb        w8,[sp,#0x2E]
	mov         w8,#0x1C
	strb        w8,[sp,#0x2F]
	mov         w8,#0x23
	strb        w8,[sp,#0x30]

; 667  : 			42, 49, 56, 57, 50, 43, 36, 29, 22, 15, 23, 30, 37, 44, 51, 58, 59, 52, 45,

	mov         w8,#0x2A
	strb        w8,[sp,#0x31]
	mov         w8,#0x31
	strb        w8,[sp,#0x32]
	mov         w8,#0x38
	strb        w8,[sp,#0x33]
	mov         w8,#0x39
	strb        w8,[sp,#0x34]
	mov         w8,#0x32
	strb        w8,[sp,#0x35]
	mov         w8,#0x2B
	strb        w8,[sp,#0x36]
	mov         w8,#0x24
	strb        w8,[sp,#0x37]
	mov         w8,#0x1D
	strb        w8,[sp,#0x38]
	mov         w8,#0x16
	strb        w8,[sp,#0x39]
	mov         w8,#0xF
	strb        w8,[sp,#0x3A]
	mov         w8,#0x17
	strb        w8,[sp,#0x3B]
	mov         w8,#0x1E
	strb        w8,[sp,#0x3C]
	mov         w8,#0x25
	strb        w8,[sp,#0x3D]
	mov         w8,#0x2C
	strb        w8,[sp,#0x3E]
	mov         w8,#0x33
	strb        w8,[sp,#0x3F]
	mov         w8,#0x3A
	strb        w8,[sp,#0x40]
	mov         w8,#0x3B
	strb        w8,[sp,#0x41]
	mov         w8,#0x34
	strb        w8,[sp,#0x42]
	mov         w8,#0x2D
	strb        w8,[sp,#0x43]

; 668  : 			38, 31, 39, 46, 53, 60, 61, 54, 47, 55, 62, 63 };

	mov         w8,#0x26
	strb        w8,[sp,#0x44]
	mov         w8,#0x1F
	strb        w8,[sp,#0x45]
	mov         w8,#0x27
	strb        w8,[sp,#0x46]
	mov         w8,#0x2E
	strb        w8,[sp,#0x47]
	mov         w8,#0x35
	strb        w8,[sp,#0x48]
	mov         w8,#0x3C
	strb        w8,[sp,#0x49]
	mov         w8,#0x3D
	strb        w8,[sp,#0x4A]
	mov         w8,#0x36
	strb        w8,[sp,#0x4B]
	mov         w8,#0x2F
	strb        w8,[sp,#0x4C]
	mov         w8,#0x37
	strb        w8,[sp,#0x4D]
	mov         w8,#0x3E
	strb        w8,[sp,#0x4E]
	mov         w8,#0x3F
	strb        w8,[sp,#0x4F]

; 669  : 		memcpy(ZZ, temp, sizeof(ZZ));

	ldr         x8,[sp,#0x50]
	add         x8,x8,#0x80,lsl #0xC
	add         x0,x8,#0x2E0
	mov         x2,#0x40
	add         x1,sp,#0x10
	bl          memcpy

; 670  : 		memset(&ctx, 0, sizeof(Context));

	ldr         x0,[sp,#0x50]
	ldr         x2,|$LN3@Decoder|
	mov         w1,#0
	bl          memset

; 671  : 	/*	_KePrint("ctx -> %x calling decoder, %x\r\n", &ctx, data);
; 672  : 		_KePrint("size : %d _Decode %x\r\n", size, &Decoder::_Decode);*/
; 673  : 		_Decode(data, size);

	ldr         w2,[sp,#0x58]
	ldr         x1,[sp,#0x70]
	ldr         x0,[sp,#0x50]
	bl          |?_Decode@Decoder@Jpeg@@AEAA?AW4DecodeResult@12@PEBEH@Z|

; 674  : 	}

	ldr         x0,[sp,#0x50]
	ldp         fp,lr,[sp],#0x80
	ret
|$LN3@Decoder|
	DCQ         0x802e0

	ENDP  ; |??0Decoder@Jpeg@@QEAA@PEBEIP6APEAXI@ZP6AXPEAX@Z@Z|, Jpeg::Decoder::Decoder

	END
