; Listing generated by Microsoft (R) Optimizing Compiler Version 19.29.30159.0 

	TTL	C:\Users\paras\source\repos\grep-name\XenevaOS\Process\AudioPlayer\ARM64\Debug\main.obj
	ARM64

	AREA	|.drectve|, DRECTVE

	EXPORT	|?app@@3PEAU_ChApp_@@EA| [ DATA ]	; app
	EXPORT	|?mainWin@@3PEAU_chwin_@@EA| [ DATA ]	; mainWin
	EXPORT	|?mainCanvas@@3PEAU_ChCanvas_@@EA| [ DATA ] ; mainCanvas
	EXPORT	|?browserCanvas@@3PEAU_ChCanvas_@@EA| [ DATA ] ; browserCanvas
	EXPORT	|?mainWidgetList@@3PEAU_list_@@EA| [ DATA ] ; mainWidgetList
	EXPORT	|?browserWidgetList@@3PEAU_list_@@EA| [ DATA ] ; browserWidgetList
	EXPORT	|?browseList@@3PEAU_list_view_@@EA| [ DATA ] ; browseList
	EXPORT	|?musicIcon@@3PEAU_icon_@@EA| [ DATA ]	; musicIcon
	EXPORT	|?mainMenubar@@3PEAU_menubar_@@EA| [ DATA ] ; mainMenubar
	EXPORT	|?_music_library_drawn@@3DA| [ DATA ]	; _music_library_drawn
	EXPORT	|?selectedFile@@3PEADEA| [ DATA ]	; selectedFile
	EXPORT	|?snd@@3HA| [ DATA ]			; snd
	EXPORT	|?_file@@3HA| [ DATA ]			; _file
	EXPORT	|?_start_player@@3DA| [ DATA ]		; _start_player
	EXPORT	|?soundbuff@@3PEAXEA| [ DATA ]		; soundbuff
	EXPORT	|?filebuff@@3PEAXEA| [ DATA ]		; filebuff
	EXPORT	|?_auto_start@@3DA| [ DATA ]		; _auto_start

	AREA	|.bss|, NOINIT
|?app@@3PEAU_ChApp_@@EA| % 0x8				; app
|?mainWin@@3PEAU_chwin_@@EA| % 0x8			; mainWin
|?mainCanvas@@3PEAU_ChCanvas_@@EA| % 0x8		; mainCanvas
|?browserCanvas@@3PEAU_ChCanvas_@@EA| % 0x8		; browserCanvas
|?mainWidgetList@@3PEAU_list_@@EA| % 0x8		; mainWidgetList
|?browserWidgetList@@3PEAU_list_@@EA| % 0x8		; browserWidgetList
|?browseList@@3PEAU_list_view_@@EA| % 0x8		; browseList
|?musicIcon@@3PEAU_icon_@@EA| % 0x8			; musicIcon
|?mainMenubar@@3PEAU_menubar_@@EA| % 0x8		; mainMenubar
|?_music_library_drawn@@3DA| % 0x1			; _music_library_drawn
|?selectedFile@@3PEADEA| % 0x8				; selectedFile
|?snd@@3HA| %	0x4					; snd
|?_file@@3HA| %	0x4					; _file
|?_start_player@@3DA| % 0x1				; _start_player
|?soundbuff@@3PEAXEA| % 0x8				; soundbuff
|?filebuff@@3PEAXEA| % 0x8				; filebuff
|?mp3@@3PEAXEA| % 0x8					; mp3
|?info@@3U_mp3_info@@A| % 0xc				; info
|?_auto_start@@3DA| % 0x1				; _auto_start

	AREA	|.rdata|, DATA, READONLY
|$SG8543| DCB	"SoundHandler", 0x0
	%	3
|$SG8545| DCB	"VideoHandler", 0x0
	%	3
|$SG9456| DCB	"/dev/sound", 0x0
	%	5
|$SG9493| DCB	"Accent Player v1.0 for XenevaOS !!", 0x0
	%	5
|$SG9494| DCB	"Accent v1.0", 0x0
	%	4
|$SG9535| DCB	"Decoder error ", 0xa, 0x0
|$SG9546| DCB	"Your Music library.....", 0x0
|$SG9547| DCB	"Updating the browsing ", 0xd, 0xa, 0x0
	%	3
|$SG9566| DCB	"/music", 0x0
	%	5
|$SG9577| DCB	"/MUSIC/", 0x0
|$SG9578| DCB	"/MUSIC/", 0x0
|$SG9579| DCB	"Selected file -> %s ", 0xd, 0xa, 0x0
	%	1
|$SG9580| DCB	"_file -> %d ", 0xd, 0xa, 0x0
	%	1
|$SG9581| DCB	"selected File -> %s ", 0xd, 0xa, 0x0
	%	1
|$SG9586| DCB	"/icons/music.bmp", 0x0
	%	3
|$SG9587| DCB	"Select", 0x0
	%	1
|$SG9624| DCB	"Accent", 0x0
	%	1
|$SG9626| DCB	"File", 0x0
	%	3
|$SG9627| DCB	"Help", 0x0
	%	7
|$SG9628| DCB	"Select Song...", 0x0
	%	1
|$SG9629| DCB	"Exit", 0x0
	%	3
|$SG9630| DCB	"About", 0x0
	%	2
|$SG9631| DCB	"Previous", 0x0
	%	7
|$SG9632| DCB	"Play/Pause", 0x0
	%	1
|$SG9633| DCB	"Next", 0x0
	%	7
|$SG9634| DCB	"/musicbk.jpg", 0x0
	%	3
|$SG9635| DCB	"/icons/media.bmp", 0x0
	%	7
|?box_ftyp@@3QBEB| DCB 0x0				; box_ftyp
	DCB	0x0
	DCB	0x0
	DCB	0x18
	DCB	0x66
	DCB	0x74
	DCB	0x79
	DCB	0x70
	DCB	0x6d
	DCB	0x70
	DCB	0x34
	DCB	0x32
	DCB	0x0
	DCB	0x0
	DCB	0x0
	DCB	0x0
	DCB	0x6d
	DCB	0x70
	DCB	0x34
	DCB	0x32
	DCB	0x69
	DCB	0x73
	DCB	0x6f
	DCB	0x6d
	EXPORT	|??0Decoder@Jpeg@@QEAA@PEBEIP6APEAXI@ZP6AXPEAX@Z@Z| ; Jpeg::Decoder::Decoder
	EXPORT	|?GetResult@Decoder@Jpeg@@QEBA?AW4DecodeResult@12@XZ| ; Jpeg::Decoder::GetResult
	EXPORT	|?GetWidth@Decoder@Jpeg@@QEBAHXZ|	; Jpeg::Decoder::GetWidth
	EXPORT	|?GetHeight@Decoder@Jpeg@@QEBAHXZ|	; Jpeg::Decoder::GetHeight
	EXPORT	|?GetImage@Decoder@Jpeg@@QEBAPEAEXZ|	; Jpeg::Decoder::GetImage
	EXPORT	|?_Clip@Decoder@Jpeg@@AEAAEH@Z|		; Jpeg::Decoder::_Clip
	EXPORT	|?_RowIDCT@Decoder@Jpeg@@AEAAXPEAH@Z|	; Jpeg::Decoder::_RowIDCT
	EXPORT	|?_ColIDCT@Decoder@Jpeg@@AEAAXPEBHPEAEH@Z| ; Jpeg::Decoder::_ColIDCT
	EXPORT	|?_ShowBits@Decoder@Jpeg@@AEAAHH@Z|	; Jpeg::Decoder::_ShowBits
	EXPORT	|?_SkipBits@Decoder@Jpeg@@AEAAXH@Z|	; Jpeg::Decoder::_SkipBits
	EXPORT	|?_GetBits@Decoder@Jpeg@@AEAAHH@Z|	; Jpeg::Decoder::_GetBits
	EXPORT	|?_ByteAlign@Decoder@Jpeg@@AEAAXXZ|	; Jpeg::Decoder::_ByteAlign
	EXPORT	|?_Skip@Decoder@Jpeg@@AEAAXH@Z|		; Jpeg::Decoder::_Skip
	EXPORT	|?_Decode16@Decoder@Jpeg@@AEAAGPEBE@Z|	; Jpeg::Decoder::_Decode16
	EXPORT	|?_DecodeLength@Decoder@Jpeg@@AEAAXXZ|	; Jpeg::Decoder::_DecodeLength
	EXPORT	|?_SkipMarker@Decoder@Jpeg@@AEAAXXZ|	; Jpeg::Decoder::_SkipMarker
	EXPORT	|?_DecodeSOF@Decoder@Jpeg@@AEAAXXZ|	; Jpeg::Decoder::_DecodeSOF
	EXPORT	|?_DecodeDHT@Decoder@Jpeg@@AEAAXXZ|	; Jpeg::Decoder::_DecodeDHT
	EXPORT	|?_DecodeDQT@Decoder@Jpeg@@AEAAXXZ|	; Jpeg::Decoder::_DecodeDQT
	EXPORT	|?_DecodeDRI@Decoder@Jpeg@@AEAAXXZ|	; Jpeg::Decoder::_DecodeDRI
	EXPORT	|?_GetVLC@Decoder@Jpeg@@AEAAHPEAUVlcCode@12@PEAE@Z| ; Jpeg::Decoder::_GetVLC
	EXPORT	|?_DecodeBlock@Decoder@Jpeg@@AEAAXPEAUComponent@12@PEAE@Z| ; Jpeg::Decoder::_DecodeBlock
	EXPORT	|?_DecodeScan@Decoder@Jpeg@@AEAAXXZ|	; Jpeg::Decoder::_DecodeScan
	EXPORT	|?CF@Decoder@Jpeg@@AEAAEH@Z|		; Jpeg::Decoder::CF
	EXPORT	|?_UpsampleH@Decoder@Jpeg@@AEAAXPEAUComponent@12@@Z| ; Jpeg::Decoder::_UpsampleH
	EXPORT	|?_UpsampleV@Decoder@Jpeg@@AEAAXPEAUComponent@12@@Z| ; Jpeg::Decoder::_UpsampleV
	EXPORT	|?_Convert@Decoder@Jpeg@@AEAAXXZ|	; Jpeg::Decoder::_Convert
	EXPORT	|?_Decode@Decoder@Jpeg@@AEAA?AW4DecodeResult@12@PEBEH@Z| ; Jpeg::Decoder::_Decode
	EXPORT	|mp4_h26x_write_init|
	EXPORT	|mp4_h26x_write_close|
	EXPORT	|mp4_h26x_write_nal|
	EXPORT	|MP4D_open|
	EXPORT	|MP4D_frame_offset|
	EXPORT	|MP4D_close|
	EXPORT	|MP4D_read_sps|
	EXPORT	|MP4D_read_pps|
	EXPORT	|MP4E_open|
	EXPORT	|MP4E_add_track|
	EXPORT	|MP4E_put_sample|
	EXPORT	|MP4E_close|
	EXPORT	|MP4E_set_dsi|
	EXPORT	|MP4E_set_vps|
	EXPORT	|MP4E_set_sps|
	EXPORT	|MP4E_set_pps|
	EXPORT	|MP4E_set_text_comment|
	EXPORT	|?RegisterSound@@YAXXZ|			; RegisterSound
	EXPORT	|?PlayerThread@@YAXXZ|			; PlayerThread
	EXPORT	|?WindowHandleMessage@@YAXPEAU_post_event_@@@Z| ; WindowHandleMessage
	EXPORT	|?AboutClicked@@YAXPEAU_ChWidget_@@PEAU_chwin_@@@Z| ; AboutClicked
	EXPORT	|?ExitItemClicked@@YAXPEAU_ChWidget_@@PEAU_chwin_@@@Z| ; ExitItemClicked
	EXPORT	|?DrawWallpaper@@YAXPEAU_ChCanvas_@@PEADHH@Z| ; DrawWallpaper
	EXPORT	|?UpdateHomeUI@@YAXXZ|			; UpdateHomeUI
	EXPORT	|?UpdateBrowserUI@@YAXXZ|		; UpdateBrowserUI
	EXPORT	|?BrowseMenuActionHandler@@YAXPEAU_ChWidget_@@PEAU_chwin_@@@Z| ; BrowseMenuActionHandler
	EXPORT	|?SelectButtonActionHandler@@YAXPEAU_ChWidget_@@PEAU_chwin_@@@Z| ; SelectButtonActionHandler
	EXPORT	|?MusicPrepareLibrary@@YAXPEAU_list_view_@@@Z| ; MusicPrepareLibrary
	EXPORT	|?PlayPauseButtonAction@@YAXPEAU_ChWidget_@@PEAU_chwin_@@@Z| ; PlayPauseButtonAction
	EXPORT	|?PrepareBrowserUI@@YAXXZ|		; PrepareBrowserUI
	EXPORT	|?AudioPlayerClose@@YAXPEAU_chwin_@@@Z|	; AudioPlayerClose
	EXPORT	|main|
	IMPORT	|??2@YAPEAX_K@Z|			; operator new
	IMPORT	|_KePrint|
	IMPORT	|_KePauseThread|
	IMPORT	|_KeProcessSleep|
	IMPORT	|_KeOpenFile|
	IMPORT	|_KeReadFile|
	IMPORT	|_KeWriteFile|
	IMPORT	|_KeCloseFile|
	IMPORT	|_KeFileIoControl|
	IMPORT	|_KeFileStat|
	IMPORT	|_KeOpenDir|
	IMPORT	|_KeReadDir|
	IMPORT	|ChCreateCanvas|
	IMPORT	|ChAllocateBuffer|
	IMPORT	|ChDeAllocateBuffer|
	IMPORT	|ChDrawPixel|
	IMPORT	|strcpy|
	IMPORT	|strlen|
	IMPORT	|strdup|
	IMPORT	|memset|
	IMPORT	|memcpy|
	IMPORT	|memcmp|
	IMPORT	|memchr|
	IMPORT	|malloc|
	IMPORT	|free|
	IMPORT	|realloc|
	IMPORT	|abort|
	IMPORT	|setjmp|
	IMPORT	|ChFontSetSize|
	IMPORT	|ChFontDrawText|
	IMPORT	|ChitralekhaStartApp|
	IMPORT	|initialize_list|
	IMPORT	|list_add|
	IMPORT	|list_remove|
	IMPORT	|list_get_at|
	IMPORT	|list_clear_all|
	IMPORT	|ChCreateWindow|
	IMPORT	|ChWindowBroadcastIcon|
	IMPORT	|ChWindowPaint|
	IMPORT	|ChWindowUpdate|
	IMPORT	|ChWindowHandleMouse|
	IMPORT	|ChWindowHandleFocus|
	IMPORT	|ChWindowAddWidget|
	IMPORT	|ChGetWindowByHandle|
	IMPORT	|ChGetPopupWindowByHandle|
	IMPORT	|ChPopupWindowHandleMouse|
	IMPORT	|ChWindowCloseWindow|
	IMPORT	|ChCreateButton|
	IMPORT	|ChCreatePopupMenu|
	IMPORT	|ChCreateMenuItem|
	IMPORT	|ChCreateMenubar|
	IMPORT	|ChCreateMenubutton|
	IMPORT	|ChMenubarAddButton|
	IMPORT	|ChMenuButtonAddMenu|
	IMPORT	|ChCreateIcon|
	IMPORT	|ChIconOpen|
	IMPORT	|ChIconRead|
	IMPORT	|ChCreateMessageBox|
	IMPORT	|ChMessageBoxShow|
	IMPORT	|ChCreateScrollPane|
	IMPORT	|ChCreateListView|
	IMPORT	|ChListViewSetScrollpane|
	IMPORT	|ChListViewAddItem|
	IMPORT	|ChListViewSetListItemIcon|
	IMPORT	|ChListViewGetSelectedItem|
	IMPORT	|_KeMemMap|
	IMPORT	|_KeMemUnmap|

	AREA	|.pdata|, PDATA
|$pdata$??0Decoder@Jpeg@@QEAA@PEBEIP6APEAXI@ZP6AXPEAX@Z@Z| DCD imagerel |$LN4|
	DCD	0x4600289
	;Flags[SingleProEpi] functionLength[648] RegF[0] RegI[0] H[0] frameChainReturn[Chained] frameSize[128]

	AREA	|.pdata|, PDATA
|$pdata$?GetResult@Decoder@Jpeg@@QEBA?AW4DecodeResult@12@XZ| DCD imagerel |$LN3|
	DCD	0x800019
	;Flags[SingleProEpi] functionLength[24] RegF[0] RegI[0] H[0] frameChainReturn[UnChained] frameSize[16]

	AREA	|.pdata|, PDATA
|$pdata$?GetWidth@Decoder@Jpeg@@QEBAHXZ| DCD imagerel |$LN3|
	DCD	0x80001d
	;Flags[SingleProEpi] functionLength[28] RegF[0] RegI[0] H[0] frameChainReturn[UnChained] frameSize[16]

	AREA	|.pdata|, PDATA
|$pdata$?GetHeight@Decoder@Jpeg@@QEBAHXZ| DCD imagerel |$LN3|
	DCD	0x80001d
	;Flags[SingleProEpi] functionLength[28] RegF[0] RegI[0] H[0] frameChainReturn[UnChained] frameSize[16]

	AREA	|.pdata|, PDATA
|$pdata$?GetImage@Decoder@Jpeg@@QEBAPEAEXZ| DCD imagerel |$LN5|
	DCD	0x800055
	;Flags[SingleProEpi] functionLength[84] RegF[0] RegI[0] H[0] frameChainReturn[UnChained] frameSize[16]

	AREA	|.pdata|, PDATA
|$pdata$?_Clip@Decoder@Jpeg@@AEAAEH@Z| DCD imagerel |$LN7|
	DCD	0x1000069
	;Flags[SingleProEpi] functionLength[104] RegF[0] RegI[0] H[0] frameChainReturn[UnChained] frameSize[32]

	AREA	|.pdata|, PDATA
|$pdata$?_RowIDCT@Decoder@Jpeg@@AEAAXPEAH@Z| DCD imagerel |$LN4|
	DCD	0x20003fd
	;Flags[SingleProEpi] functionLength[1020] RegF[0] RegI[0] H[0] frameChainReturn[UnChained] frameSize[64]

	AREA	|.pdata|, PDATA
|$pdata$?_ColIDCT@Decoder@Jpeg@@AEAAXPEBHPEAEH@Z| DCD imagerel |$LN7|
	DCD	0x2e00529
	;Flags[SingleProEpi] functionLength[1320] RegF[0] RegI[0] H[0] frameChainReturn[Chained] frameSize[80]

	AREA	|.pdata|, PDATA
|$pdata$?_ShowBits@Decoder@Jpeg@@AEAAHH@Z| DCD imagerel |$LN18|
	DCD	0x10002c9
	;Flags[SingleProEpi] functionLength[712] RegF[0] RegI[0] H[0] frameChainReturn[UnChained] frameSize[32]

	AREA	|.pdata|, PDATA
|$pdata$?_SkipBits@Decoder@Jpeg@@AEAAXH@Z| DCD imagerel |$LN4|
	DCD	0x1600069
	;Flags[SingleProEpi] functionLength[104] RegF[0] RegI[0] H[0] frameChainReturn[Chained] frameSize[32]

	AREA	|.pdata|, PDATA
|$pdata$?_GetBits@Decoder@Jpeg@@AEAAHH@Z| DCD imagerel |$LN3|
	DCD	0x160003d
	;Flags[SingleProEpi] functionLength[60] RegF[0] RegI[0] H[0] frameChainReturn[Chained] frameSize[32]

	AREA	|.pdata|, PDATA
|$pdata$?_ByteAlign@Decoder@Jpeg@@AEAAXXZ| DCD imagerel |$LN3|
	DCD	0x800035
	;Flags[SingleProEpi] functionLength[52] RegF[0] RegI[0] H[0] frameChainReturn[UnChained] frameSize[16]

	AREA	|.pdata|, PDATA
|$pdata$?_Skip@Decoder@Jpeg@@AEAAXH@Z| DCD imagerel |$LN4|
	DCD	0x800099
	;Flags[SingleProEpi] functionLength[152] RegF[0] RegI[0] H[0] frameChainReturn[UnChained] frameSize[16]

	AREA	|.pdata|, PDATA
|$pdata$?_Decode16@Decoder@Jpeg@@AEAAGPEBE@Z| DCD imagerel |$LN3|
	DCD	0x800041
	;Flags[SingleProEpi] functionLength[64] RegF[0] RegI[0] H[0] frameChainReturn[UnChained] frameSize[16]

	AREA	|.pdata|, PDATA
|$pdata$?_DecodeLength@Decoder@Jpeg@@AEAAXXZ| DCD imagerel |$LN11|
	DCD	0x16000b5
	;Flags[SingleProEpi] functionLength[180] RegF[0] RegI[0] H[0] frameChainReturn[Chained] frameSize[32]

	AREA	|.pdata|, PDATA
|$pdata$?_SkipMarker@Decoder@Jpeg@@AEAAXXZ| DCD imagerel |$LN3|
	DCD	0x1600031
	;Flags[SingleProEpi] functionLength[48] RegF[0] RegI[0] H[0] frameChainReturn[Chained] frameSize[32]

	AREA	|.pdata|, PDATA
|$pdata$?_DecodeSOF@Decoder@Jpeg@@AEAAXXZ| DCD imagerel |$LN73|
	DCD	0x3600849
	;Flags[SingleProEpi] functionLength[2120] RegF[0] RegI[0] H[0] frameChainReturn[Chained] frameSize[96]

	AREA	|.pdata|, PDATA
|$pdata$?_DecodeDHT@Decoder@Jpeg@@AEAAXXZ| DCD imagerel |$LN40|
	DCD	0x3600369
	;Flags[SingleProEpi] functionLength[872] RegF[0] RegI[0] H[0] frameChainReturn[Chained] frameSize[96]

	AREA	|.pdata|, PDATA
|$pdata$?_DecodeDQT@Decoder@Jpeg@@AEAAXXZ| DCD imagerel |$LN16|
	DCD	0x1e00169
	;Flags[SingleProEpi] functionLength[360] RegF[0] RegI[0] H[0] frameChainReturn[Chained] frameSize[48]

	AREA	|.pdata|, PDATA
|$pdata$?_DecodeDRI@Decoder@Jpeg@@AEAAXXZ| DCD imagerel |$LN7|
	DCD	0x160008d
	;Flags[SingleProEpi] functionLength[140] RegF[0] RegI[0] H[0] frameChainReturn[Chained] frameSize[32]

	AREA	|.pdata|, PDATA
|$pdata$?_GetVLC@Decoder@Jpeg@@AEAAHPEAUVlcCode@12@PEAE@Z| DCD imagerel |$LN7|
	DCD	0x1e00135
	;Flags[SingleProEpi] functionLength[308] RegF[0] RegI[0] H[0] frameChainReturn[Chained] frameSize[48]

	AREA	|.pdata|, PDATA
|$pdata$?_DecodeBlock@Decoder@Jpeg@@AEAAXPEAUComponent@12@PEAE@Z| DCD imagerel |$LN21|
	DCD	0x2e1030d
	;Flags[SingleProEpi] functionLength[780] RegF[0] RegI[1] H[0] frameChainReturn[Chained] frameSize[80]

	AREA	|.pdata|, PDATA
|$pdata$?_DecodeScan@Decoder@Jpeg@@AEAAXXZ| DCD imagerel |$LN52|
	DCD	0x2600545
	;Flags[SingleProEpi] functionLength[1348] RegF[0] RegI[0] H[0] frameChainReturn[Chained] frameSize[64]

	AREA	|.pdata|, PDATA
|$pdata$?CF@Decoder@Jpeg@@AEAAEH@Z| DCD imagerel |$LN3|
	DCD	0x1600039
	;Flags[SingleProEpi] functionLength[56] RegF[0] RegI[0] H[0] frameChainReturn[Chained] frameSize[32]

	AREA	|.pdata|, PDATA
|$pdata$?_UpsampleH@Decoder@Jpeg@@AEAAXPEAUComponent@12@@Z| DCD imagerel |$LN13|
	DCD	0x2e005e9
	;Flags[SingleProEpi] functionLength[1512] RegF[0] RegI[0] H[0] frameChainReturn[Chained] frameSize[80]

	AREA	|.pdata|, PDATA
|$pdata$?_UpsampleV@Decoder@Jpeg@@AEAAXPEAUComponent@12@@Z| DCD imagerel |$LN13|
	DCD	0x36006b5
	;Flags[SingleProEpi] functionLength[1716] RegF[0] RegI[0] H[0] frameChainReturn[Chained] frameSize[96]

	AREA	|.pdata|, PDATA
|$pdata$?_Convert@Decoder@Jpeg@@AEAAXXZ| DCD imagerel |$LN30|
	DCD	0x3e0053d
	;Flags[SingleProEpi] functionLength[1340] RegF[0] RegI[0] H[0] frameChainReturn[Chained] frameSize[112]

	AREA	|.pdata|, PDATA
|$pdata$?_Decode@Decoder@Jpeg@@AEAA?AW4DecodeResult@12@PEBEH@Z| DCD imagerel |$LN22|
	DCD	0x1e00245
	;Flags[SingleProEpi] functionLength[580] RegF[0] RegI[0] H[0] frameChainReturn[Chained] frameSize[48]

	AREA	|.pdata|, PDATA
|$pdata$mp4_h26x_write_init| DCD imagerel |$LN6|
	DCD	0x2e00141
	;Flags[SingleProEpi] functionLength[320] RegF[0] RegI[0] H[0] frameChainReturn[Chained] frameSize[80]
|$pdata$mp4_h26x_write_close| DCD imagerel |$LN11|
	DCD	0x1e0010d
	;Flags[SingleProEpi] functionLength[268] RegF[0] RegI[0] H[0] frameChainReturn[Chained] frameSize[48]
|$pdata$mp4_h26x_write_nal| DCD imagerel |$LN27|
	DCD	0x4600475
	;Flags[SingleProEpi] functionLength[1140] RegF[0] RegI[0] H[0] frameChainReturn[Chained] frameSize[128]
|$pdata$MP4D_open| DCD imagerel |$LN273|
	DCD	imagerel |$unwind$MP4D_open|
|$pdata$MP4D_frame_offset| DCD imagerel |$LN9|
	DCD	0x36001a5
	;Flags[SingleProEpi] functionLength[420] RegF[0] RegI[0] H[0] frameChainReturn[Chained] frameSize[96]
|$pdata$MP4D_close| DCD imagerel |$LN18|
	DCD	0x1e00355
	;Flags[SingleProEpi] functionLength[852] RegF[0] RegI[0] H[0] frameChainReturn[Chained] frameSize[48]
|$pdata$MP4D_read_sps| DCD imagerel |$LN3|
	DCD	0x1e00039
	;Flags[SingleProEpi] functionLength[56] RegF[0] RegI[0] H[0] frameChainReturn[Chained] frameSize[48]
|$pdata$MP4D_read_pps| DCD imagerel |$LN3|
	DCD	0x1e00039
	;Flags[SingleProEpi] functionLength[56] RegF[0] RegI[0] H[0] frameChainReturn[Chained] frameSize[48]
|$pdata$MP4E_open| DCD imagerel |$LN9|
	DCD	0x260019d
	;Flags[SingleProEpi] functionLength[412] RegF[0] RegI[0] H[0] frameChainReturn[Chained] frameSize[64]
|$pdata$MP4E_add_track| DCD imagerel |$LN7|
	DCD	0x1e000f5
	;Flags[SingleProEpi] functionLength[244] RegF[0] RegI[0] H[0] frameChainReturn[Chained] frameSize[48]
|$pdata$MP4E_put_sample| DCD imagerel |$LN22|
	DCD	0x3600365
	;Flags[SingleProEpi] functionLength[868] RegF[0] RegI[0] H[0] frameChainReturn[Chained] frameSize[96]
|$pdata$MP4E_close| DCD imagerel |$LN9|
	DCD	0x1e00129
	;Flags[SingleProEpi] functionLength[296] RegF[0] RegI[0] H[0] frameChainReturn[Chained] frameSize[48]
|$pdata$MP4E_set_dsi| DCD imagerel |$LN10|
	DCD	0x26000e5
	;Flags[SingleProEpi] functionLength[228] RegF[0] RegI[0] H[0] frameChainReturn[Chained] frameSize[64]
|$pdata$MP4E_set_vps| DCD imagerel |$LN8|
	DCD	0x26000b1
	;Flags[SingleProEpi] functionLength[176] RegF[0] RegI[0] H[0] frameChainReturn[Chained] frameSize[64]
|$pdata$MP4E_set_sps| DCD imagerel |$LN8|
	DCD	0x26000b1
	;Flags[SingleProEpi] functionLength[176] RegF[0] RegI[0] H[0] frameChainReturn[Chained] frameSize[64]
|$pdata$MP4E_set_pps| DCD imagerel |$LN8|
	DCD	0x26000b1
	;Flags[SingleProEpi] functionLength[176] RegF[0] RegI[0] H[0] frameChainReturn[Chained] frameSize[64]
|$pdata$MP4E_set_text_comment| DCD imagerel |$LN7|
	DCD	0x1600091
	;Flags[SingleProEpi] functionLength[144] RegF[0] RegI[0] H[0] frameChainReturn[Chained] frameSize[32]
|$pdata$?minimp4_vector_init@@YAHPEAUminimp4_vector_t@@H@Z| DCD imagerel |?minimp4_vector_init@@YAHPEAUminimp4_vector_t@@H@Z|
	DCD	0x1e0009d
	;Flags[SingleProEpi] functionLength[156] RegF[0] RegI[0] H[0] frameChainReturn[Chained] frameSize[48]
|$pdata$?minimp4_vector_reset@@YAXPEAUminimp4_vector_t@@@Z| DCD imagerel |?minimp4_vector_reset@@YAXPEAUminimp4_vector_t@@@Z|
	DCD	0x1600041
	;Flags[SingleProEpi] functionLength[64] RegF[0] RegI[0] H[0] frameChainReturn[Chained] frameSize[32]
|$pdata$?minimp4_vector_grow@@YAHPEAUminimp4_vector_t@@H@Z| DCD imagerel |?minimp4_vector_grow@@YAHPEAUminimp4_vector_t@@H@Z|
	DCD	0x1e000b9
	;Flags[SingleProEpi] functionLength[184] RegF[0] RegI[0] H[0] frameChainReturn[Chained] frameSize[48]
|$pdata$?minimp4_vector_alloc_tail@@YAPEAEPEAUminimp4_vector_t@@H@Z| DCD imagerel |?minimp4_vector_alloc_tail@@YAPEAEPEAUminimp4_vector_t@@H@Z|
	DCD	0x1e00145
	;Flags[SingleProEpi] functionLength[324] RegF[0] RegI[0] H[0] frameChainReturn[Chained] frameSize[48]
|$pdata$?minimp4_vector_put@@YAPEAEPEAUminimp4_vector_t@@PEBXH@Z| DCD imagerel |?minimp4_vector_put@@YAPEAEPEAUminimp4_vector_t@@PEBXH@Z|
	DCD	0x1e00051
	;Flags[SingleProEpi] functionLength[80] RegF[0] RegI[0] H[0] frameChainReturn[Chained] frameSize[48]
|$pdata$?append_mem@@YAHPEAUminimp4_vector_t@@PEBXH@Z| DCD imagerel |?append_mem@@YAHPEAUminimp4_vector_t@@PEBXH@Z|
	DCD	0x2600165
	;Flags[SingleProEpi] functionLength[356] RegF[0] RegI[0] H[0] frameChainReturn[Chained] frameSize[64]
|$pdata$?items_count@@YAHPEAUminimp4_vector_t@@@Z| DCD imagerel |?items_count@@YAHPEAUminimp4_vector_t@@@Z|
	DCD	0x10000c5
	;Flags[SingleProEpi] functionLength[196] RegF[0] RegI[0] H[0] frameChainReturn[UnChained] frameSize[32]
|$pdata$?get_duration@@YAIPEBUtrack_t@@@Z| DCD imagerel |?get_duration@@YAIPEBUtrack_t@@@Z|
	DCD	0x10000a1
	;Flags[SingleProEpi] functionLength[160] RegF[0] RegI[0] H[0] frameChainReturn[UnChained] frameSize[32]
|$pdata$?write_pending_data@@YAHPEAUMP4E_mux_tag@@PEAUtrack_t@@@Z| DCD imagerel |?write_pending_data@@YAHPEAUMP4E_mux_tag@@PEAUtrack_t@@@Z|
	DCD	0x2600315
	;Flags[SingleProEpi] functionLength[788] RegF[0] RegI[0] H[0] frameChainReturn[Chained] frameSize[64]
|$pdata$?add_sample_descriptor@@YAHPEAUMP4E_mux_tag@@PEAUtrack_t@@HHH@Z| DCD imagerel |?add_sample_descriptor@@YAHPEAUMP4E_mux_tag@@PEAUtrack_t@@HHH@Z|
	DCD	0x2e000d1
	;Flags[SingleProEpi] functionLength[208] RegF[0] RegI[0] H[0] frameChainReturn[Chained] frameSize[80]
|$pdata$?mp4e_flush_index@@YAHPEAUMP4E_mux_tag@@@Z| DCD imagerel |?mp4e_flush_index@@YAHPEAUMP4E_mux_tag@@@Z|
	DCD	imagerel |$unwind$?mp4e_flush_index@@YAHPEAUMP4E_mux_tag@@@Z|
|$pdata$?mp4e_write_fragment_header@@YAHPEAUMP4E_mux_tag@@HHHH@Z| DCD imagerel |?mp4e_write_fragment_header@@YAHPEAUMP4E_mux_tag@@HHHH@Z|
	DCD	imagerel |$unwind$?mp4e_write_fragment_header@@YAHPEAUMP4E_mux_tag@@HHHH@Z|
|$pdata$?mp4e_write_mdat_box@@YAHPEAUMP4E_mux_tag@@I@Z| DCD imagerel |?mp4e_write_mdat_box@@YAHPEAUMP4E_mux_tag@@I@Z|
	DCD	0x1e0017d
	;Flags[SingleProEpi] functionLength[380] RegF[0] RegI[0] H[0] frameChainReturn[Chained] frameSize[48]
|$pdata$?od_size_of_size@@YAHH@Z| DCD imagerel |?od_size_of_size@@YAHH@Z|
	DCD	0x800051
	;Flags[SingleProEpi] functionLength[80] RegF[0] RegI[0] H[0] frameChainReturn[UnChained] frameSize[16]
|$pdata$?show_bits@@YAIPEAUbit_reader_t@@H@Z| DCD imagerel |?show_bits@@YAIPEAUbit_reader_t@@H@Z|
	DCD	0x1e00075
	;Flags[SingleProEpi] functionLength[116] RegF[0] RegI[0] H[0] frameChainReturn[Chained] frameSize[48]
|$pdata$?flush_bits@@YAXPEAUbit_reader_t@@H@Z| DCD imagerel |?flush_bits@@YAXPEAUbit_reader_t@@H@Z|
	DCD	0x1600139
	;Flags[SingleProEpi] functionLength[312] RegF[0] RegI[0] H[0] frameChainReturn[Chained] frameSize[32]
|$pdata$?get_bits@@YAIPEAUbit_reader_t@@H@Z| DCD imagerel |?get_bits@@YAIPEAUbit_reader_t@@H@Z|
	DCD	0x160003d
	;Flags[SingleProEpi] functionLength[60] RegF[0] RegI[0] H[0] frameChainReturn[Chained] frameSize[32]
|$pdata$?set_pos_bits@@YAXPEAUbit_reader_t@@I@Z| DCD imagerel |?set_pos_bits@@YAXPEAUbit_reader_t@@I@Z|
	DCD	0x16000b9
	;Flags[SingleProEpi] functionLength[184] RegF[0] RegI[0] H[0] frameChainReturn[Chained] frameSize[32]
|$pdata$?get_pos_bits@@YAIPEBUbit_reader_t@@@Z| DCD imagerel |?get_pos_bits@@YAIPEBUbit_reader_t@@@Z|
	DCD	0x1600099
	;Flags[SingleProEpi] functionLength[152] RegF[0] RegI[0] H[0] frameChainReturn[Chained] frameSize[32]
|$pdata$?remaining_bits@@YAHPEBUbit_reader_t@@@Z| DCD imagerel |?remaining_bits@@YAHPEBUbit_reader_t@@@Z|
	DCD	0x1e10045
	;Flags[SingleProEpi] functionLength[68] RegF[0] RegI[1] H[0] frameChainReturn[Chained] frameSize[48]
|$pdata$?init_bits@@YAXPEAUbit_reader_t@@PEBXI@Z| DCD imagerel |?init_bits@@YAXPEAUbit_reader_t@@PEBXI@Z|
	DCD	0x1e00049
	;Flags[SingleProEpi] functionLength[72] RegF[0] RegI[0] H[0] frameChainReturn[Chained] frameSize[48]
|$pdata$?ue_bits@@YAHPEAUbit_reader_t@@@Z| DCD imagerel |?ue_bits@@YAHPEAUbit_reader_t@@@Z|
	DCD	0x1e00095
	;Flags[SingleProEpi] functionLength[148] RegF[0] RegI[0] H[0] frameChainReturn[Chained] frameSize[48]
|$pdata$?h264e_bs_put_bits@@YAXPEAUbs_t@@II@Z| DCD imagerel |?h264e_bs_put_bits@@YAXPEAUbs_t@@II@Z|
	DCD	0x1e001c9
	;Flags[SingleProEpi] functionLength[456] RegF[0] RegI[0] H[0] frameChainReturn[Chained] frameSize[48]
|$pdata$?h264e_bs_flush@@YAXPEAUbs_t@@@Z| DCD imagerel |?h264e_bs_flush@@YAXPEAUbs_t@@@Z|
	DCD	0x800079
	;Flags[SingleProEpi] functionLength[120] RegF[0] RegI[0] H[0] frameChainReturn[UnChained] frameSize[16]
|$pdata$?h264e_bs_get_pos_bits@@YAIPEBUbs_t@@@Z| DCD imagerel |?h264e_bs_get_pos_bits@@YAIPEBUbs_t@@@Z|
	DCD	0x1600095
	;Flags[SingleProEpi] functionLength[148] RegF[0] RegI[0] H[0] frameChainReturn[Chained] frameSize[32]
|$pdata$?h264e_bs_byte_align@@YAIPEAUbs_t@@@Z| DCD imagerel |?h264e_bs_byte_align@@YAIPEAUbs_t@@@Z|
	DCD	0x1600059
	;Flags[SingleProEpi] functionLength[88] RegF[0] RegI[0] H[0] frameChainReturn[Chained] frameSize[32]
|$pdata$?h264e_bs_put_golomb@@YAXPEAUbs_t@@I@Z| DCD imagerel |?h264e_bs_put_golomb@@YAXPEAUbs_t@@I@Z|
	DCD	0x1e00079
	;Flags[SingleProEpi] functionLength[120] RegF[0] RegI[0] H[0] frameChainReturn[Chained] frameSize[48]
|$pdata$?h264e_bs_init_bits@@YAXPEAUbs_t@@PEAX@Z| DCD imagerel |?h264e_bs_init_bits@@YAXPEAUbs_t@@PEAX@Z|
	DCD	0x800059
	;Flags[SingleProEpi] functionLength[88] RegF[0] RegI[0] H[0] frameChainReturn[UnChained] frameSize[16]
|$pdata$?find_mem_cache@@YAHQEAPEAXQEAHHPEAXH@Z| DCD imagerel |?find_mem_cache@@YAHQEAPEAXQEAHHPEAXH@Z|
	DCD	0x26001bd
	;Flags[SingleProEpi] functionLength[444] RegF[0] RegI[0] H[0] frameChainReturn[Chained] frameSize[64]
|$pdata$?remove_nal_escapes@@YAHPEAEPEBEH@Z| DCD imagerel |?remove_nal_escapes@@YAHPEAEPEBEH@Z|
	DCD	0x10001a5
	;Flags[SingleProEpi] functionLength[420] RegF[0] RegI[0] H[0] frameChainReturn[UnChained] frameSize[32]
|$pdata$?nal_put_esc@@YAHPEAEPEBEH@Z| DCD imagerel |?nal_put_esc@@YAHPEAEPEBEH@Z|
	DCD	0x1800151
	;Flags[SingleProEpi] functionLength[336] RegF[0] RegI[0] H[0] frameChainReturn[UnChained] frameSize[48]
|$pdata$?copy_bits@@YAXPEAUbit_reader_t@@PEAUbs_t@@@Z| DCD imagerel |?copy_bits@@YAXPEAUbit_reader_t@@PEAUbs_t@@@Z|
	DCD	0x1e00101
	;Flags[SingleProEpi] functionLength[256] RegF[0] RegI[0] H[0] frameChainReturn[Chained] frameSize[48]
|$pdata$?change_sps_id@@YAHPEAUbit_reader_t@@PEAUbs_t@@HPEAH@Z| DCD imagerel |?change_sps_id@@YAHPEAUbit_reader_t@@PEAUbs_t@@HPEAH@Z|
	DCD	0x2e000fd
	;Flags[SingleProEpi] functionLength[252] RegF[0] RegI[0] H[0] frameChainReturn[Chained] frameSize[80]
|$pdata$?patch_pps@@YAHPEAUh264_sps_id_patcher_t@@PEAUbit_reader_t@@PEAUbs_t@@HPEAH@Z| DCD imagerel |?patch_pps@@YAHPEAUh264_sps_id_patcher_t@@PEAUbit_reader_t@@PEAUbs_t@@HPEAH@Z|
	DCD	0x2e00125
	;Flags[SingleProEpi] functionLength[292] RegF[0] RegI[0] H[0] frameChainReturn[Chained] frameSize[80]
|$pdata$?patch_slice_header@@YAXPEAUh264_sps_id_patcher_t@@PEAUbit_reader_t@@PEAUbs_t@@@Z| DCD imagerel |?patch_slice_header@@YAXPEAUh264_sps_id_patcher_t@@PEAUbit_reader_t@@PEAUbs_t@@@Z|
	DCD	0x26000d1
	;Flags[SingleProEpi] functionLength[208] RegF[0] RegI[0] H[0] frameChainReturn[Chained] frameSize[64]
|$pdata$?transcode_nalu@@YAHPEAUh264_sps_id_patcher_t@@PEBEHPEAE@Z| DCD imagerel |?transcode_nalu@@YAHPEAUh264_sps_id_patcher_t@@PEBEHPEAE@Z|
	DCD	0x660025d
	;Flags[SingleProEpi] functionLength[604] RegF[0] RegI[0] H[0] frameChainReturn[Chained] frameSize[192]
|$pdata$?find_start_code@@YAPEBEPEBEHPEAH@Z| DCD imagerel |?find_start_code@@YAPEBEPEBEHPEAH@Z|
	DCD	0x2e00169
	;Flags[SingleProEpi] functionLength[360] RegF[0] RegI[0] H[0] frameChainReturn[Chained] frameSize[80]
|$pdata$?find_nal_unit@@YAPEBEPEBEHPEAH@Z| DCD imagerel |?find_nal_unit@@YAPEBEPEBEHPEAH@Z|
	DCD	0x26000e1
	;Flags[SingleProEpi] functionLength[224] RegF[0] RegI[0] H[0] frameChainReturn[Chained] frameSize[64]
|$pdata$?mp4_h265_write_nal@@YAHPEAUmp4_h26x_writer_tag@@PEBEHI@Z| DCD imagerel |?mp4_h265_write_nal@@YAHPEAUmp4_h26x_writer_tag@@PEBEHI@Z|
	DCD	0x2e00345
	;Flags[SingleProEpi] functionLength[836] RegF[0] RegI[0] H[0] frameChainReturn[Chained] frameSize[80]
|$pdata$?minimp4_fgets@@YAHPEAUMP4D_demux_tag@@@Z| DCD imagerel |?minimp4_fgets@@YAHPEAUMP4D_demux_tag@@@Z|
	DCD	0x1600075
	;Flags[SingleProEpi] functionLength[116] RegF[0] RegI[0] H[0] frameChainReturn[Chained] frameSize[32]
|$pdata$?minimp4_read@@YAIPEAUMP4D_demux_tag@@HPEAH@Z| DCD imagerel |?minimp4_read@@YAIPEAUMP4D_demux_tag@@HPEAH@Z|
	DCD	0x26100f5
	;Flags[SingleProEpi] functionLength[244] RegF[0] RegI[1] H[0] frameChainReturn[Chained] frameSize[64]
|$pdata$?read_payload@@YAIPEAUMP4D_demux_tag@@IPEA_KPEAH@Z| DCD imagerel |?read_payload@@YAIPEAUMP4D_demux_tag@@IPEA_KPEAH@Z|
	DCD	0x1e00089
	;Flags[SingleProEpi] functionLength[136] RegF[0] RegI[0] H[0] frameChainReturn[Chained] frameSize[48]
|$pdata$?my_fseek@@YAXPEAUMP4D_demux_tag@@_KPEAH@Z| DCD imagerel |?my_fseek@@YAXPEAUMP4D_demux_tag@@_KPEAH@Z|
	DCD	0x1000059
	;Flags[SingleProEpi] functionLength[88] RegF[0] RegI[0] H[0] frameChainReturn[UnChained] frameSize[32]
|$pdata$?sample_to_chunk@@YAHPEAUMP4D_track_t@@IPEAI@Z| DCD imagerel |?sample_to_chunk@@YAHPEAUMP4D_track_t@@IPEAI@Z|
	DCD	0x1000141
	;Flags[SingleProEpi] functionLength[320] RegF[0] RegI[0] H[0] frameChainReturn[UnChained] frameSize[32]
|$pdata$?skip_spspps@@YAHPEBEHH@Z| DCD imagerel |?skip_spspps@@YAHPEBEHH@Z|
	DCD	0x10000d5
	;Flags[SingleProEpi] functionLength[212] RegF[0] RegI[0] H[0] frameChainReturn[UnChained] frameSize[32]
|$pdata$?MP4D_read_spspps@@YAPEBXPEBUMP4D_demux_tag@@IHHPEAH@Z| DCD imagerel |?MP4D_read_spspps@@YAPEBXPEBUMP4D_demux_tag@@IHHPEAH@Z|
	DCD	0x2e00291
	;Flags[SingleProEpi] functionLength[656] RegF[0] RegI[0] H[0] frameChainReturn[Chained] frameSize[80]
|$pdata$?RegisterSound@@YAXXZ| DCD imagerel |$LN4|
	DCD	0x2600061
	;Flags[SingleProEpi] functionLength[96] RegF[0] RegI[0] H[0] frameChainReturn[Chained] frameSize[64]
|$pdata$?PlayerThread@@YAXXZ| DCD imagerel |$LN9|
	DCD	0x26000d1
	;Flags[SingleProEpi] functionLength[208] RegF[0] RegI[0] H[0] frameChainReturn[Chained] frameSize[64]
|$pdata$?WindowHandleMessage@@YAXPEAU_post_event_@@@Z| DCD imagerel |$LN11|
	DCD	0x2e0019d
	;Flags[SingleProEpi] functionLength[412] RegF[0] RegI[0] H[0] frameChainReturn[Chained] frameSize[80]
|$pdata$?AboutClicked@@YAXPEAU_ChWidget_@@PEAU_chwin_@@@Z| DCD imagerel |$LN3|
	DCD	0x1e00049
	;Flags[SingleProEpi] functionLength[72] RegF[0] RegI[0] H[0] frameChainReturn[Chained] frameSize[48]
|$pdata$?ExitItemClicked@@YAXPEAU_ChWidget_@@PEAU_chwin_@@@Z| DCD imagerel |$LN3|
	DCD	0x1600025
	;Flags[SingleProEpi] functionLength[36] RegF[0] RegI[0] H[0] frameChainReturn[Chained] frameSize[32]
|$pdata$?DrawWallpaper@@YAXPEAU_ChCanvas_@@PEADHH@Z| DCD imagerel |$LN16|
	DCD	0x5e00305
	;Flags[SingleProEpi] functionLength[772] RegF[0] RegI[0] H[0] frameChainReturn[Chained] frameSize[176]
|$pdata$?UpdateHomeUI@@YAXXZ| DCD imagerel |$LN3|
	DCD	0xe00095
	;Flags[SingleProEpi] functionLength[148] RegF[0] RegI[0] H[0] frameChainReturn[Chained] frameSize[16]
|$pdata$?UpdateBrowserUI@@YAXXZ| DCD imagerel |$LN3|
	DCD	0xe00095
	;Flags[SingleProEpi] functionLength[148] RegF[0] RegI[0] H[0] frameChainReturn[Chained] frameSize[16]
|$pdata$?BrowseMenuActionHandler@@YAXPEAU_ChWidget_@@PEAU_chwin_@@@Z| DCD imagerel |$LN6|
	DCD	0x1600141
	;Flags[SingleProEpi] functionLength[320] RegF[0] RegI[0] H[0] frameChainReturn[Chained] frameSize[32]
|$pdata$?SelectButtonActionHandler@@YAXPEAU_ChWidget_@@PEAU_chwin_@@@Z| DCD imagerel |$LN4|
	DCD	0x1e0005d
	;Flags[SingleProEpi] functionLength[92] RegF[0] RegI[0] H[0] frameChainReturn[Chained] frameSize[48]
|$pdata$?MusicPrepareLibrary@@YAXPEAU_list_view_@@@Z| DCD imagerel |$LN8|
	DCD	0x1e000d9
	;Flags[SingleProEpi] functionLength[216] RegF[0] RegI[0] H[0] frameChainReturn[Chained] frameSize[48]
|$pdata$?PlayPauseButtonAction@@YAXPEAU_ChWidget_@@PEAU_chwin_@@@Z| DCD imagerel |$LN5|
	DCD	0x26000d9
	;Flags[SingleProEpi] functionLength[216] RegF[0] RegI[0] H[0] frameChainReturn[Chained] frameSize[64]
|$pdata$?PrepareBrowserUI@@YAXXZ| DCD imagerel |$LN3|
	DCD	0x160019d
	;Flags[SingleProEpi] functionLength[412] RegF[0] RegI[0] H[0] frameChainReturn[Chained] frameSize[32]
|$pdata$?AudioPlayerClose@@YAXPEAU_chwin_@@@Z| DCD imagerel |$LN9|
	DCD	0x1e000e1
	;Flags[SingleProEpi] functionLength[224] RegF[0] RegI[0] H[0] frameChainReturn[Chained] frameSize[48]
|$pdata$main| DCD imagerel |$LN7|
	DCD	0x9e004a5
	;Flags[SingleProEpi] functionLength[1188] RegF[0] RegI[0] H[0] frameChainReturn[Chained] frameSize[304]

	AREA	|.rdata|, DATA, READONLY
|?g_envelope_box@?6??MP4D_open@@9@4QBU<unnamed-type-g_envelope_box>@?6??1@YAHPEAUMP4D_demux_tag@@P6AH_JPEAX_K2@Z21@Z@B| DCD 0x65736473 ; `MP4D_open'::`7'::g_envelope_box
	DCD	0x1
	DCD	0x24242433
	DCD	0x1
	DCD	0x24242434
	DCD	0x1
	DCD	0x24242435
	DCD	0x1
	DCD	0x7472616b
	DCD	0x0
	DCD	0x6d6f6f76
	DCD	0x0
	DCD	0x6d646961
	DCD	0x0
	DCD	0x74726566
	DCD	0x0
	DCD	0x6d696e66
	DCD	0x0
	DCD	0x64696e66
	DCD	0x0
	DCD	0x7374626c
	DCD	0x0
	DCD	0x73747364
	DCD	0x0
	DCD	0x6d703461
	DCD	0x0
	DCD	0x6d703473
	DCD	0x0
	DCD	0x6d703476
	DCD	0x0
	DCD	0x61766331
	DCD	0x0
	DCD	0x68766331
	DCD	0x0
	DCD	0x75647461
	DCD	0x0
	DCD	0x6d657461
	DCD	0x0
	DCD	0x696c7374
	DCD	0x0

	AREA	|.rdata|, DATA, READONLY
|?g_fullbox@?6??MP4D_open@@9@4QBU<unnamed-type-g_fullbox>@?6??1@YAHPEAUMP4D_demux_tag@@P6AH_JPEAX_K2@Z21@Z@B| DCD 0x6d646864 ; `MP4D_open'::`7'::g_fullbox
	DCD	0x1
	DCD	0x1
	DCD	0x6d766864
	DCD	0x1
	DCD	0x0
	DCD	0x68646c72
	DCD	0x0
	DCD	0x0
	DCD	0x6d657461
	DCD	0x0
	DCD	0x0
	DCD	0x73747473
	DCD	0x0
	DCD	0x0
	DCD	0x63747473
	DCD	0x0
	DCD	0x0
	DCD	0x73747a32
	DCD	0x0
	DCD	0x1
	DCD	0x7374737a
	DCD	0x0
	DCD	0x1
	DCD	0x73747363
	DCD	0x0
	DCD	0x1
	DCD	0x7374636f
	DCD	0x0
	DCD	0x1
	DCD	0x636f3634
	DCD	0x0
	DCD	0x1
	DCD	0x73747364
	DCD	0x0
	DCD	0x0
	DCD	0x65736473
	DCD	0x0
	DCD	0x1

	AREA	|.xdata|, DATA
|$unwind$MP4D_open| DCD 0x104008d9
	DCD	0x4008b7
	DCD	0x64c040e1
	DCD	0xe3e401d4
	;Code Words[2], Epilog Count[1], E[0], X[0], Function Length[2265]=9060 bytes
	;Epilog Start Index[1], Epilog Start Offset[2231]=8924 bytes
	;set_fp
	;save_fplr
	;alloc_m
	;save_reg_x
	;end
	;nop
|$unwind$?mp4e_flush_index@@YAHPEAUMP4E_mux_tag@@@Z| DCD 0x8401e73
	DCD	0x401e6d
	DCD	0xe3e4b3e1
	;Code Words[1], Epilog Count[1], E[0], X[0], Function Length[7795]=31180 bytes
	;Epilog Start Index[1], Epilog Start Offset[7789]=31156 bytes
	;set_fp
	;save_fplr_x
	;end
	;nop
|$unwind$?mp4e_write_fragment_header@@YAHPEAUMP4E_mux_tag@@HHHH@Z| DCD 0x104004cc
	DCD	0x4004c6
	DCD	0x47c040e1
	DCD	0xe3e3e3e4
	;Code Words[2], Epilog Count[1], E[0], X[0], Function Length[1228]=4912 bytes
	;Epilog Start Index[1], Epilog Start Offset[1222]=4888 bytes
	;set_fp
	;save_fplr
	;alloc_m
	;end
	;nop
	;nop
	;nop
; Function compile flags: /Odtp
; File C:\Users\paras\source\repos\grep-name\XenevaOS\Process\AudioPlayer\main.cpp

	AREA	|.text$mn|, CODE, ARM64

|main|	PROC

; 351  : int main(int argc, char* argv[]){

|$LN7|
	stp         fp,lr,[sp,#-0x130]!
	mov         fp,sp
	str         w0,[sp,#0x10]
	str         x1,[sp,#0x30]

; 352  : 
; 353  : 	app = ChitralekhaStartApp(argc, argv);

	ldr         x1,[sp,#0x30]
	ldr         w0,[sp,#0x10]
	bl          ChitralekhaStartApp
	adrp        x8,|?app@@3PEAU_ChApp_@@EA|
	str         x0,[x8,PageOffset(|?app@@3PEAU_ChApp_@@EA|)]

; 354  : 	mainWin = ChCreateWindow(app, WINDOW_FLAG_MOVABLE, "Accent", 100, 100, CHITRALEKHA_DEFAULT_WIN_WIDTH, 

	mov         w6,#0x1F4
	mov         w5,#0x190
	mov         w4,#0x64
	mov         w3,#0x64
	adrp        x8,|$SG9624|
	add         x2,x8,PageOffset(|$SG9624|)
	mov         w1,#1
	adrp        x8,|?app@@3PEAU_ChApp_@@EA|
	ldr         x0,[x8,PageOffset(|?app@@3PEAU_ChApp_@@EA|)]
	bl          ChCreateWindow
	adrp        x8,|?mainWin@@3PEAU_chwin_@@EA|
	str         x0,[x8,PageOffset(|?mainWin@@3PEAU_chwin_@@EA|)]

; 355  : 		500);
; 356  : 
; 357  : 	_music_library_drawn = false;

	adrp        x9,|?_music_library_drawn@@3DA|
	mov         w8,#0
	strb        w8,[x9,PageOffset(|?_music_library_drawn@@3DA|)]

; 358  : 	_start_player = false;

	adrp        x9,|?_start_player@@3DA|
	mov         w8,#0
	strb        w8,[x9,PageOffset(|?_start_player@@3DA|)]

; 359  : 	selectedFile = NULL;

	adrp        x9,|?selectedFile@@3PEADEA|
	mov         x8,#0
	str         x8,[x9,PageOffset(|?selectedFile@@3PEADEA|)]

; 360  : 
; 361  : 	if (argc > 1) {

	ldr         w8,[sp,#0x10]
	cmp         w8,#1
	ble         |$LN4@main|

; 362  : 		selectedFile = argv[1];

	ldr         x8,[sp,#0x30]
	add         x8,x8,#8
	adrp        x9,|?selectedFile@@3PEADEA|
	ldr         x8,[x8]
	str         x8,[x9,PageOffset(|?selectedFile@@3PEADEA|)]

; 363  : 		_auto_start = true;

	adrp        x9,|?_auto_start@@3DA|
	mov         w8,#1
	strb        w8,[x9,PageOffset(|?_auto_start@@3DA|)]

; 364  : 		_file = _KeOpenFile(selectedFile, FILE_OPEN_READ_ONLY);

	mov         w1,#2
	adrp        x8,|?selectedFile@@3PEADEA|
	ldr         x0,[x8,PageOffset(|?selectedFile@@3PEADEA|)]
	bl          _KeOpenFile
	mov         w0,w0
	adrp        x8,|?_file@@3HA|
	str         w0,[x8,PageOffset(|?_file@@3HA|)]

; 365  : 		_start_player = true;

	adrp        x9,|?_start_player@@3DA|
	mov         w8,#1
	strb        w8,[x9,PageOffset(|?_start_player@@3DA|)]
|$LN4@main|

; 366  : 	}
; 367  : 	
; 368  : 	mainWin->ChCloseWin = AudioPlayerClose;

	adrp        x8,|?mainWin@@3PEAU_chwin_@@EA|
	ldr         x8,[x8,PageOffset(|?mainWin@@3PEAU_chwin_@@EA|)]
	add         x9,x8,#0xD8
	adrp        x8,|?AudioPlayerClose@@YAXPEAU_chwin_@@@Z|
	add         x8,x8,PageOffset(|?AudioPlayerClose@@YAXPEAU_chwin_@@@Z|)
	str         x8,[x9]

; 369  : 
; 370  : 	mainMenubar = ChCreateMenubar(mainWin);

	adrp        x8,|?mainWin@@3PEAU_chwin_@@EA|
	ldr         x0,[x8,PageOffset(|?mainWin@@3PEAU_chwin_@@EA|)]
	bl          ChCreateMenubar
	adrp        x8,|?mainMenubar@@3PEAU_menubar_@@EA|
	str         x0,[x8,PageOffset(|?mainMenubar@@3PEAU_menubar_@@EA|)]

; 371  : 
; 372  : 	ChMenuButton *file = ChCreateMenubutton(mainMenubar, "File");

	adrp        x8,|$SG9626|
	add         x1,x8,PageOffset(|$SG9626|)
	adrp        x8,|?mainMenubar@@3PEAU_menubar_@@EA|
	ldr         x0,[x8,PageOffset(|?mainMenubar@@3PEAU_menubar_@@EA|)]
	bl          ChCreateMenubutton
	str         x0,[sp,#0x38]

; 373  : 	ChMenubarAddButton(mainMenubar, file);

	ldr         x1,[sp,#0x38]
	adrp        x8,|?mainMenubar@@3PEAU_menubar_@@EA|
	ldr         x0,[x8,PageOffset(|?mainMenubar@@3PEAU_menubar_@@EA|)]
	bl          ChMenubarAddButton

; 374  : 	ChMenuButton *edit = ChCreateMenubutton(mainMenubar, "Help");

	adrp        x8,|$SG9627|
	add         x1,x8,PageOffset(|$SG9627|)
	adrp        x8,|?mainMenubar@@3PEAU_menubar_@@EA|
	ldr         x0,[x8,PageOffset(|?mainMenubar@@3PEAU_menubar_@@EA|)]
	bl          ChCreateMenubutton
	str         x0,[sp,#0x48]

; 375  : 	ChMenubarAddButton(mainMenubar, edit);

	ldr         x1,[sp,#0x48]
	adrp        x8,|?mainMenubar@@3PEAU_menubar_@@EA|
	ldr         x0,[x8,PageOffset(|?mainMenubar@@3PEAU_menubar_@@EA|)]
	bl          ChMenubarAddButton

; 376  : 
; 377  : 	ChPopupMenu* pm = ChCreatePopupMenu(mainWin,NULL);

	mov         x1,#0
	adrp        x8,|?mainWin@@3PEAU_chwin_@@EA|
	ldr         x0,[x8,PageOffset(|?mainWin@@3PEAU_chwin_@@EA|)]
	bl          ChCreatePopupMenu
	str         x0,[sp,#0x28]

; 378  : 	ChMenuItem* browse = ChCreateMenuItem("Select Song...", pm);

	ldr         x1,[sp,#0x28]
	adrp        x8,|$SG9628|
	add         x0,x8,PageOffset(|$SG9628|)
	bl          ChCreateMenuItem
	str         x0,[sp,#0x50]

; 379  : 	browse->wid.ChActionHandler = BrowseMenuActionHandler;

	ldr         x8,[sp,#0x50]
	add         x9,x8,#0x20
	adrp        x8,|?BrowseMenuActionHandler@@YAXPEAU_ChWidget_@@PEAU_chwin_@@@Z|
	add         x8,x8,PageOffset(|?BrowseMenuActionHandler@@YAXPEAU_ChWidget_@@PEAU_chwin_@@@Z|)
	str         x8,[x9]

; 380  : 	ChMenuItem* item = ChCreateMenuItem("Exit", pm);

	ldr         x1,[sp,#0x28]
	adrp        x8,|$SG9629|
	add         x0,x8,PageOffset(|$SG9629|)
	bl          ChCreateMenuItem
	str         x0,[sp,#0x58]

; 381  : 	item->wid.ChActionHandler = ExitItemClicked;

	ldr         x8,[sp,#0x58]
	add         x9,x8,#0x20
	adrp        x8,|?ExitItemClicked@@YAXPEAU_ChWidget_@@PEAU_chwin_@@@Z|
	add         x8,x8,PageOffset(|?ExitItemClicked@@YAXPEAU_ChWidget_@@PEAU_chwin_@@@Z|)
	str         x8,[x9]

; 382  : 	ChMenuButtonAddMenu(file, pm);

	ldr         x1,[sp,#0x28]
	ldr         x0,[sp,#0x38]
	bl          ChMenuButtonAddMenu

; 383  : 
; 384  : 	ChPopupMenu* help = ChCreatePopupMenu(mainWin, NULL);

	mov         x1,#0
	adrp        x8,|?mainWin@@3PEAU_chwin_@@EA|
	ldr         x0,[x8,PageOffset(|?mainWin@@3PEAU_chwin_@@EA|)]
	bl          ChCreatePopupMenu
	str         x0,[sp,#0x40]

; 385  : 	ChMenuItem* about = ChCreateMenuItem("About", help);

	ldr         x1,[sp,#0x40]
	adrp        x8,|$SG9630|
	add         x0,x8,PageOffset(|$SG9630|)
	bl          ChCreateMenuItem
	str         x0,[sp,#0x60]

; 386  : 	about->wid.ChActionHandler = AboutClicked;

	ldr         x8,[sp,#0x60]
	add         x9,x8,#0x20
	adrp        x8,|?AboutClicked@@YAXPEAU_ChWidget_@@PEAU_chwin_@@@Z|
	add         x8,x8,PageOffset(|?AboutClicked@@YAXPEAU_ChWidget_@@PEAU_chwin_@@@Z|)
	str         x8,[x9]

; 387  : 	ChMenuButtonAddMenu(edit, help);

	ldr         x1,[sp,#0x40]
	ldr         x0,[sp,#0x48]
	bl          ChMenuButtonAddMenu

; 388  : 
; 389  : 	ChWindowAddWidget(mainWin, (ChWidget*)mainMenubar);

	adrp        x8,|?mainMenubar@@3PEAU_menubar_@@EA|
	ldr         x1,[x8,PageOffset(|?mainMenubar@@3PEAU_menubar_@@EA|)]
	adrp        x8,|?mainWin@@3PEAU_chwin_@@EA|
	ldr         x0,[x8,PageOffset(|?mainWin@@3PEAU_chwin_@@EA|)]
	bl          ChWindowAddWidget

; 390  : 
; 391  : 	
; 392  : 	ChButton *prevbutt = ChCreateButton(10, mainWin->info->height - 100, 100,65, "Previous");

	adrp        x8,|?mainWin@@3PEAU_chwin_@@EA|
	ldr         x8,[x8,PageOffset(|?mainWin@@3PEAU_chwin_@@EA|)]
	add         x8,x8,#0x28
	ldr         x9,[x8]
	mov         x8,#0x1014
	add         x8,x9,x8
	ldr         w8,[x8]
	sub         w1,w8,#0x64
	adrp        x8,|$SG9631|
	add         x4,x8,PageOffset(|$SG9631|)
	mov         w3,#0x41
	mov         w2,#0x64
	mov         w1,w1
	mov         w0,#0xA
	bl          ChCreateButton
	str         x0,[sp,#0x68]

; 393  : 	ChWindowAddWidget(mainWin, (ChWidget*)prevbutt);

	ldr         x1,[sp,#0x68]
	adrp        x8,|?mainWin@@3PEAU_chwin_@@EA|
	ldr         x0,[x8,PageOffset(|?mainWin@@3PEAU_chwin_@@EA|)]
	bl          ChWindowAddWidget

; 394  : 
; 395  : 	ChButton *playbutt = ChCreateButton(mainWin->info->width / 2 - 140/2, mainWin->info->height - 100, 140, 65, "Play/Pause");

	adrp        x8,|?mainWin@@3PEAU_chwin_@@EA|
	ldr         x8,[x8,PageOffset(|?mainWin@@3PEAU_chwin_@@EA|)]
	add         x8,x8,#0x28
	ldr         x9,[x8]
	mov         x8,#0x1014
	add         x8,x9,x8
	ldr         w8,[x8]
	sub         w1,w8,#0x64
	adrp        x8,|?mainWin@@3PEAU_chwin_@@EA|
	ldr         x8,[x8,PageOffset(|?mainWin@@3PEAU_chwin_@@EA|)]
	add         x8,x8,#0x28
	ldr         x9,[x8]
	mov         x8,#0x1010
	add         x8,x9,x8
	ldr         w9,[x8]
	mov         w8,#2
	sdiv        w8,w9,w8
	sub         w0,w8,#0x46
	adrp        x8,|$SG9632|
	add         x4,x8,PageOffset(|$SG9632|)
	mov         w3,#0x41
	mov         w2,#0x8C
	mov         w1,w1
	mov         w0,w0
	bl          ChCreateButton
	str         x0,[sp,#0x18]

; 396  : 	playbutt->base.ChActionHandler = PlayPauseButtonAction;

	ldr         x8,[sp,#0x18]
	add         x9,x8,#0x20
	adrp        x8,|?PlayPauseButtonAction@@YAXPEAU_ChWidget_@@PEAU_chwin_@@@Z|
	add         x8,x8,PageOffset(|?PlayPauseButtonAction@@YAXPEAU_ChWidget_@@PEAU_chwin_@@@Z|)
	str         x8,[x9]

; 397  : 	ChWindowAddWidget(mainWin, (ChWidget*)playbutt);

	ldr         x1,[sp,#0x18]
	adrp        x8,|?mainWin@@3PEAU_chwin_@@EA|
	ldr         x0,[x8,PageOffset(|?mainWin@@3PEAU_chwin_@@EA|)]
	bl          ChWindowAddWidget

; 398  : 
; 399  : 	ChButton *nextbutt = ChCreateButton((playbutt->base.x + playbutt->base.w) + 18, mainWin->info->height - 100, 100, 65, "Next");

	adrp        x8,|?mainWin@@3PEAU_chwin_@@EA|
	ldr         x8,[x8,PageOffset(|?mainWin@@3PEAU_chwin_@@EA|)]
	add         x8,x8,#0x28
	ldr         x9,[x8]
	mov         x8,#0x1014
	add         x8,x9,x8
	ldr         w8,[x8]
	sub         w1,w8,#0x64
	ldr         x9,[sp,#0x18]
	ldr         x8,[sp,#0x18]
	add         x8,x8,#8
	ldr         w9,[x9]
	ldr         w8,[x8]
	add         w8,w9,w8
	add         w0,w8,#0x12
	adrp        x8,|$SG9633|
	add         x4,x8,PageOffset(|$SG9633|)
	mov         w3,#0x41
	mov         w2,#0x64
	mov         w1,w1
	mov         w0,w0
	bl          ChCreateButton
	str         x0,[sp,#0x70]

; 400  : 	ChWindowAddWidget(mainWin, (ChWidget*)nextbutt);

	ldr         x1,[sp,#0x70]
	adrp        x8,|?mainWin@@3PEAU_chwin_@@EA|
	ldr         x0,[x8,PageOffset(|?mainWin@@3PEAU_chwin_@@EA|)]
	bl          ChWindowAddWidget

; 401  : 
; 402  : 	ChWindowPaint(mainWin);

	adrp        x8,|?mainWin@@3PEAU_chwin_@@EA|
	ldr         x0,[x8,PageOffset(|?mainWin@@3PEAU_chwin_@@EA|)]
	bl          ChWindowPaint

; 403  : 
; 404  : 	DrawWallpaper(mainWin->canv, "/musicbk.jpg", 10, 64);

	adrp        x8,|?mainWin@@3PEAU_chwin_@@EA|
	ldr         x8,[x8,PageOffset(|?mainWin@@3PEAU_chwin_@@EA|)]
	add         x9,x8,#0x18
	mov         w3,#0x40
	mov         w2,#0xA
	adrp        x8,|$SG9634|
	add         x1,x8,PageOffset(|$SG9634|)
	ldr         x0,[x9]
	bl          |?DrawWallpaper@@YAXPEAU_ChCanvas_@@PEADHH@Z|

; 405  : 	ChWindowUpdate(mainWin, 0, 0, mainWin->info->width,

	adrp        x8,|?mainWin@@3PEAU_chwin_@@EA|
	ldr         x8,[x8,PageOffset(|?mainWin@@3PEAU_chwin_@@EA|)]
	add         x8,x8,#0x28
	ldr         x9,[x8]
	mov         x8,#0x1014
	add         x10,x9,x8
	adrp        x8,|?mainWin@@3PEAU_chwin_@@EA|
	ldr         x8,[x8,PageOffset(|?mainWin@@3PEAU_chwin_@@EA|)]
	add         x8,x8,#0x28
	ldr         x9,[x8]
	mov         x8,#0x1010
	add         x8,x9,x8
	mov         w6,#0
	mov         w5,#1
	ldr         w4,[x10]
	ldr         w3,[x8]
	mov         w2,#0
	mov         w1,#0
	adrp        x8,|?mainWin@@3PEAU_chwin_@@EA|
	ldr         x0,[x8,PageOffset(|?mainWin@@3PEAU_chwin_@@EA|)]
	bl          ChWindowUpdate

; 406  : 	mainWin->info->height, 1, 0);
; 407  : 	
; 408  : 	mainCanvas = mainWin->canv;

	adrp        x8,|?mainWin@@3PEAU_chwin_@@EA|
	ldr         x8,[x8,PageOffset(|?mainWin@@3PEAU_chwin_@@EA|)]
	add         x8,x8,#0x18
	adrp        x9,|?mainCanvas@@3PEAU_ChCanvas_@@EA|
	ldr         x8,[x8]
	str         x8,[x9,PageOffset(|?mainCanvas@@3PEAU_ChCanvas_@@EA|)]

; 409  : 
; 410  : 	soundbuff = malloc(4096);

	mov         w0,#0x1000
	bl          malloc
	adrp        x8,|?soundbuff@@3PEAXEA|
	str         x0,[x8,PageOffset(|?soundbuff@@3PEAXEA|)]

; 411  : 	memset(soundbuff, 0, 4096);

	mov         x2,#0x1000
	mov         w1,#0
	adrp        x8,|?soundbuff@@3PEAXEA|
	ldr         x0,[x8,PageOffset(|?soundbuff@@3PEAXEA|)]
	bl          memset

; 412  : 
; 413  : 
; 414  : 	/* prepare the browser UI*/
; 415  : 	PrepareBrowserUI();

	bl          |?PrepareBrowserUI@@YAXXZ|

; 416  : 
; 417  : 	//int threadIdx = _KeCreateThread(PlayerThread,"accent");
; 418  : 
; 419  : 	PostEvent e;
; 420  : 	memset(&e, 0, sizeof(PostEvent));

	mov         x2,#0xB0
	mov         w1,#0
	add         x0,sp,#0x78
	bl          memset

; 421  : 
; 422  : 	ChWindowBroadcastIcon(app, "/icons/media.bmp");

	adrp        x8,|$SG9635|
	add         x1,x8,PageOffset(|$SG9635|)
	adrp        x8,|?app@@3PEAU_ChApp_@@EA|
	ldr         x0,[x8,PageOffset(|?app@@3PEAU_ChApp_@@EA|)]
	bl          ChWindowBroadcastIcon

; 423  : 
; 424  : 	setjmp(mainWin->jump);

	adrp        x8,|?mainWin@@3PEAU_chwin_@@EA|
	ldr         x8,[x8,PageOffset(|?mainWin@@3PEAU_chwin_@@EA|)]
	add         x0,x8,#0x88
	bl          setjmp
|$LN2@main|

; 425  : 	while (1) {

	mov         w8,#1
	cmp         w8,#0
	beq         |$LN3@main|

; 426  : 		int err = _KeFileIoControl(app->postboxfd, POSTBOX_GET_EVENT, &e);

	adrp        x8,|?app@@3PEAU_ChApp_@@EA|
	ldr         x8,[x8,PageOffset(|?app@@3PEAU_ChApp_@@EA|)]
	add         x2,sp,#0x78
	mov         w1,#0x194
	ldr         w0,[x8]
	bl          _KeFileIoControl
	mov         w0,w0
	str         w0,[sp,#0x20]

; 427  : 		WindowHandleMessage(&e);

	add         x0,sp,#0x78
	bl          |?WindowHandleMessage@@YAXPEAU_post_event_@@@Z|

; 428  : 		if (err == POSTBOX_NO_EVENT)

	ldr         w8,[sp,#0x20]
	cmn         w8,#1
	bne         |$LN5@main|

; 429  : 			_KePauseThread();

	bl          _KePauseThread
|$LN5@main|

; 430  : 	}

	b           |$LN2@main|
|$LN3@main|
	ldp         fp,lr,[sp],#0x130
	ret

	ENDP  ; |main|

; Function compile flags: /Odtp
; File C:\Users\paras\source\repos\grep-name\XenevaOS\Process\AudioPlayer\main.cpp

	AREA	|.text$mn|, CODE, ARM64

|?AudioPlayerClose@@YAXPEAU_chwin_@@@Z| PROC		; AudioPlayerClose

; 331  : void AudioPlayerClose(ChWindow* win) {

|$LN9|
	stp         fp,lr,[sp,#-0x30]!
	mov         fp,sp
	str         x0,[sp,#0x20]

; 332  : 	for (int i = 0; i < browserWidgetList->pointer; i++) {

	mov         w8,#0
	str         w8,[sp,#0x10]
	b           |$LN4@AudioPlaye|
|$LN2@AudioPlaye|
	ldr         w8,[sp,#0x10]
	add         w8,w8,#1
	str         w8,[sp,#0x10]
|$LN4@AudioPlaye|
	adrp        x8,|?browserWidgetList@@3PEAU_list_@@EA|
	ldr         x8,[x8,PageOffset(|?browserWidgetList@@3PEAU_list_@@EA|)]
	ldr         w9,[x8]
	ldr         w8,[sp,#0x10]
	cmp         w8,w9
	bhs         |$LN3@AudioPlaye|

; 333  : 		ChWidget* wid = (ChWidget*)list_get_at(browserWidgetList, i);

	ldr         w1,[sp,#0x10]
	adrp        x8,|?browserWidgetList@@3PEAU_list_@@EA|
	ldr         x0,[x8,PageOffset(|?browserWidgetList@@3PEAU_list_@@EA|)]
	bl          list_get_at
	str         x0,[sp,#0x18]

; 334  : 		if (wid == (ChWidget*)mainMenubar){

	adrp        x8,|?mainMenubar@@3PEAU_menubar_@@EA|
	ldr         x9,[x8,PageOffset(|?mainMenubar@@3PEAU_menubar_@@EA|)]
	ldr         x8,[sp,#0x18]
	cmp         x8,x9
	bne         |$LN5@AudioPlaye|

; 335  : 			list_remove(browserWidgetList, i);

	ldr         w1,[sp,#0x10]
	adrp        x8,|?browserWidgetList@@3PEAU_list_@@EA|
	ldr         x0,[x8,PageOffset(|?browserWidgetList@@3PEAU_list_@@EA|)]
	bl          list_remove

; 336  : 		}

	b           |$LN6@AudioPlaye|
|$LN5@AudioPlaye|

; 337  : 		else {
; 338  : 			if (wid->ChDestroy)

	ldr         x8,[sp,#0x18]
	add         x8,x8,#0x48
	ldr         x8,[x8]
	cmp         x8,#0
	beq         |$LN7@AudioPlaye|

; 339  : 				wid->ChDestroy(wid, win);

	ldr         x8,[sp,#0x18]
	add         x8,x8,#0x48
	ldr         x1,[sp,#0x20]
	ldr         x0,[sp,#0x18]
	ldr         x8,[x8]
	blr         x8
|$LN7@AudioPlaye|
|$LN6@AudioPlaye|

; 340  : 		}
; 341  : 	}

	b           |$LN2@AudioPlaye|
|$LN3@AudioPlaye|

; 342  : 	list_clear_all(browserWidgetList);

	adrp        x8,|?browserWidgetList@@3PEAU_list_@@EA|
	ldr         x0,[x8,PageOffset(|?browserWidgetList@@3PEAU_list_@@EA|)]
	bl          list_clear_all

; 343  : 	free(browserWidgetList);

	adrp        x8,|?browserWidgetList@@3PEAU_list_@@EA|
	ldr         x0,[x8,PageOffset(|?browserWidgetList@@3PEAU_list_@@EA|)]
	bl          free

; 344  : 	ChDeAllocateBuffer(browserCanvas);

	adrp        x8,|?browserCanvas@@3PEAU_ChCanvas_@@EA|
	ldr         x0,[x8,PageOffset(|?browserCanvas@@3PEAU_ChCanvas_@@EA|)]
	bl          ChDeAllocateBuffer

; 345  : 	free(browserCanvas);

	adrp        x8,|?browserCanvas@@3PEAU_ChCanvas_@@EA|
	ldr         x0,[x8,PageOffset(|?browserCanvas@@3PEAU_ChCanvas_@@EA|)]
	bl          free
	ldp         fp,lr,[sp],#0x30
	ret

	ENDP  ; |?AudioPlayerClose@@YAXPEAU_chwin_@@@Z|, AudioPlayerClose

; Function compile flags: /Odtp
; File C:\Users\paras\source\repos\grep-name\XenevaOS\Process\AudioPlayer\main.cpp

	AREA	|.text$mn|, CODE, ARM64

|?PrepareBrowserUI@@YAXXZ| PROC				; PrepareBrowserUI

; 300  : void PrepareBrowserUI(){

|$LN3|
	stp         fp,lr,[sp,#-0x20]!
	mov         fp,sp

; 301  : 	/* allocate the browser canvas */
; 302  : 	browserCanvas = ChCreateCanvas(mainWin->canv->canvasWidth, mainWin->canv->canvasHeight);

	adrp        x8,|?mainWin@@3PEAU_chwin_@@EA|
	ldr         x8,[x8,PageOffset(|?mainWin@@3PEAU_chwin_@@EA|)]
	add         x8,x8,#0x18
	ldr         x8,[x8]
	add         x9,x8,#0x1C
	adrp        x8,|?mainWin@@3PEAU_chwin_@@EA|
	ldr         x8,[x8,PageOffset(|?mainWin@@3PEAU_chwin_@@EA|)]
	add         x8,x8,#0x18
	ldr         x8,[x8]
	add         x8,x8,#0x18
	ldr         w1,[x9]
	ldr         w0,[x8]
	bl          ChCreateCanvas
	adrp        x8,|?browserCanvas@@3PEAU_ChCanvas_@@EA|
	str         x0,[x8,PageOffset(|?browserCanvas@@3PEAU_ChCanvas_@@EA|)]

; 303  : 	ChAllocateBuffer(browserCanvas);

	adrp        x8,|?browserCanvas@@3PEAU_ChCanvas_@@EA|
	ldr         x0,[x8,PageOffset(|?browserCanvas@@3PEAU_ChCanvas_@@EA|)]
	bl          ChAllocateBuffer

; 304  : 	mainWidgetList = mainWin->widgets;

	adrp        x8,|?mainWin@@3PEAU_chwin_@@EA|
	ldr         x8,[x8,PageOffset(|?mainWin@@3PEAU_chwin_@@EA|)]
	add         x8,x8,#0x50
	adrp        x9,|?mainWidgetList@@3PEAU_list_@@EA|
	ldr         x8,[x8]
	str         x8,[x9,PageOffset(|?mainWidgetList@@3PEAU_list_@@EA|)]

; 305  : 	browserWidgetList = initialize_list();

	bl          initialize_list
	adrp        x8,|?browserWidgetList@@3PEAU_list_@@EA|
	str         x0,[x8,PageOffset(|?browserWidgetList@@3PEAU_list_@@EA|)]

; 306  : 
; 307  : 	musicIcon = ChCreateIcon();

	bl          ChCreateIcon
	adrp        x8,|?musicIcon@@3PEAU_icon_@@EA|
	str         x0,[x8,PageOffset(|?musicIcon@@3PEAU_icon_@@EA|)]

; 308  : 	ChIconOpen(musicIcon, "/icons/music.bmp");

	adrp        x8,|$SG9586|
	add         x1,x8,PageOffset(|$SG9586|)
	adrp        x8,|?musicIcon@@3PEAU_icon_@@EA|
	ldr         x0,[x8,PageOffset(|?musicIcon@@3PEAU_icon_@@EA|)]
	bl          ChIconOpen

; 309  : 	ChIconRead(musicIcon);

	adrp        x8,|?musicIcon@@3PEAU_icon_@@EA|
	ldr         x0,[x8,PageOffset(|?musicIcon@@3PEAU_icon_@@EA|)]
	bl          ChIconRead

; 310  : 
; 311  : 	ChScrollPane* sp = ChCreateScrollPane(mainWin, 10, 64, 100, 380);

	mov         w4,#0x17C
	mov         w3,#0x64
	mov         w2,#0x40
	mov         w1,#0xA
	adrp        x8,|?mainWin@@3PEAU_chwin_@@EA|
	ldr         x0,[x8,PageOffset(|?mainWin@@3PEAU_chwin_@@EA|)]
	bl          ChCreateScrollPane
	str         x0,[sp,#0x10]

; 312  : 	browseList = ChCreateListView(10, 100, 380, 380);

	mov         w3,#0x17C
	mov         w2,#0x17C
	mov         w1,#0x64
	mov         w0,#0xA
	bl          ChCreateListView
	adrp        x8,|?browseList@@3PEAU_list_view_@@EA|
	str         x0,[x8,PageOffset(|?browseList@@3PEAU_list_view_@@EA|)]

; 313  : 	ChListViewSetScrollpane(browseList, sp);

	ldr         x1,[sp,#0x10]
	adrp        x8,|?browseList@@3PEAU_list_view_@@EA|
	ldr         x0,[x8,PageOffset(|?browseList@@3PEAU_list_view_@@EA|)]
	bl          ChListViewSetScrollpane

; 314  : 
; 315  : 	MusicPrepareLibrary(browseList);

	adrp        x8,|?browseList@@3PEAU_list_view_@@EA|
	ldr         x0,[x8,PageOffset(|?browseList@@3PEAU_list_view_@@EA|)]
	bl          |?MusicPrepareLibrary@@YAXPEAU_list_view_@@@Z|

; 316  : 
; 317  : 	ChButton *selectButt = ChCreateButton(mainWin->info->width - 75, 36, 65, 35, "Select");

	adrp        x8,|?mainWin@@3PEAU_chwin_@@EA|
	ldr         x8,[x8,PageOffset(|?mainWin@@3PEAU_chwin_@@EA|)]
	add         x8,x8,#0x28
	ldr         x9,[x8]
	mov         x8,#0x1010
	add         x8,x9,x8
	ldr         w8,[x8]
	sub         w0,w8,#0x4B
	adrp        x8,|$SG9587|
	add         x4,x8,PageOffset(|$SG9587|)
	mov         w3,#0x23
	mov         w2,#0x41
	mov         w1,#0x24
	mov         w0,w0
	bl          ChCreateButton
	str         x0,[sp,#0x18]

; 318  : 	selectButt->base.ChActionHandler = SelectButtonActionHandler;

	ldr         x8,[sp,#0x18]
	add         x9,x8,#0x20
	adrp        x8,|?SelectButtonActionHandler@@YAXPEAU_ChWidget_@@PEAU_chwin_@@@Z|
	add         x8,x8,PageOffset(|?SelectButtonActionHandler@@YAXPEAU_ChWidget_@@PEAU_chwin_@@@Z|)
	str         x8,[x9]

; 319  : 	list_add(browserWidgetList, mainMenubar);

	adrp        x8,|?mainMenubar@@3PEAU_menubar_@@EA|
	ldr         x1,[x8,PageOffset(|?mainMenubar@@3PEAU_menubar_@@EA|)]
	adrp        x8,|?browserWidgetList@@3PEAU_list_@@EA|
	ldr         x0,[x8,PageOffset(|?browserWidgetList@@3PEAU_list_@@EA|)]
	bl          list_add

; 320  : 	list_add(browserWidgetList, browseList);

	adrp        x8,|?browseList@@3PEAU_list_view_@@EA|
	ldr         x1,[x8,PageOffset(|?browseList@@3PEAU_list_view_@@EA|)]
	adrp        x8,|?browserWidgetList@@3PEAU_list_@@EA|
	ldr         x0,[x8,PageOffset(|?browserWidgetList@@3PEAU_list_@@EA|)]
	bl          list_add

; 321  : 	list_add(browserWidgetList, sp);

	ldr         x1,[sp,#0x10]
	adrp        x8,|?browserWidgetList@@3PEAU_list_@@EA|
	ldr         x0,[x8,PageOffset(|?browserWidgetList@@3PEAU_list_@@EA|)]
	bl          list_add

; 322  : 	list_add(browserWidgetList, selectButt);

	ldr         x1,[sp,#0x18]
	adrp        x8,|?browserWidgetList@@3PEAU_list_@@EA|
	ldr         x0,[x8,PageOffset(|?browserWidgetList@@3PEAU_list_@@EA|)]
	bl          list_add
	ldp         fp,lr,[sp],#0x20
	ret

	ENDP  ; |?PrepareBrowserUI@@YAXXZ|, PrepareBrowserUI

; Function compile flags: /Odtp
; File C:\Users\paras\source\repos\grep-name\XenevaOS\Process\AudioPlayer\main.cpp

	AREA	|.text$mn|, CODE, ARM64

|?PlayPauseButtonAction@@YAXPEAU_ChWidget_@@PEAU_chwin_@@@Z| PROC ; PlayPauseButtonAction

; 283  : void PlayPauseButtonAction(ChWidget* wid, ChWindow* mainWin) {

|$LN5|
	stp         fp,lr,[sp,#-0x40]!
	mov         fp,sp
	str         x0,[sp,#0x10]
	str         x1,[sp,#0x18]

; 284  : 	if (selectedFile != NULL) {

	adrp        x8,|?selectedFile@@3PEADEA|
	ldr         x8,[x8,PageOffset(|?selectedFile@@3PEADEA|)]
	cmp         x8,#0
	beq         |$LN2@PlayPauseB|

; 285  : 		if (!_auto_start) {

	adrp        x8,|?_auto_start@@3DA|
	ldrsb       w8,[x8,PageOffset(|?_auto_start@@3DA|)]
	mov         w8,w8
	cmp         w8,#0
	bne         |$LN3@PlayPauseB|

; 286  : 			char path[32];
; 287  : 			memset(path, 0, 32);

	mov         x2,#0x20
	mov         w1,#0
	add         x0,sp,#0x20
	bl          memset

; 288  : 			strcpy(path, "/MUSIC/");

	adrp        x8,|$SG9577|
	add         x1,x8,PageOffset(|$SG9577|)
	add         x0,sp,#0x20
	bl          strcpy

; 289  : 			strcpy(path + strlen("/MUSIC/"), selectedFile);

	adrp        x8,|$SG9578|
	add         x0,x8,PageOffset(|$SG9578|)
	bl          strlen
	add         x8,sp,#0x20
	add         x0,x8,x0
	adrp        x8,|?selectedFile@@3PEADEA|
	ldr         x1,[x8,PageOffset(|?selectedFile@@3PEADEA|)]
	bl          strcpy

; 290  : 			_KePrint("Selected file -> %s \r\n", path);

	add         x1,sp,#0x20
	adrp        x8,|$SG9579|
	add         x0,x8,PageOffset(|$SG9579|)
	bl          _KePrint

; 291  : 			_file = _KeOpenFile(path, FILE_OPEN_READ_ONLY);

	mov         w1,#2
	add         x0,sp,#0x20
	bl          _KeOpenFile
	mov         w0,w0
	adrp        x8,|?_file@@3HA|
	str         w0,[x8,PageOffset(|?_file@@3HA|)]

; 292  : 			_KePrint("_file -> %d \r\n", _file);

	adrp        x8,|?_file@@3HA|
	ldr         w1,[x8,PageOffset(|?_file@@3HA|)]
	adrp        x8,|$SG9580|
	add         x0,x8,PageOffset(|$SG9580|)
	bl          _KePrint

; 293  : 			_start_player = 1;

	adrp        x9,|?_start_player@@3DA|
	mov         w8,#1
	strb        w8,[x9,PageOffset(|?_start_player@@3DA|)]
|$LN3@PlayPauseB|

; 294  : 		}
; 295  : 		_KePrint("selected File -> %s \r\n", selectedFile);

	adrp        x8,|?selectedFile@@3PEADEA|
	ldr         x1,[x8,PageOffset(|?selectedFile@@3PEADEA|)]
	adrp        x8,|$SG9581|
	add         x0,x8,PageOffset(|$SG9581|)
	bl          _KePrint
|$LN2@PlayPauseB|
	ldp         fp,lr,[sp],#0x40
	ret

	ENDP  ; |?PlayPauseButtonAction@@YAXPEAU_ChWidget_@@PEAU_chwin_@@@Z|, PlayPauseButtonAction

; Function compile flags: /Odtp
; File C:\Users\paras\source\repos\grep-name\XenevaOS\Process\AudioPlayer\main.cpp

	AREA	|.text$mn|, CODE, ARM64

|?MusicPrepareLibrary@@YAXPEAU_list_view_@@@Z| PROC	; MusicPrepareLibrary

; 264  : void MusicPrepareLibrary(ChListView *lv) {

|$LN8|
	stp         fp,lr,[sp,#-0x30]!
	mov         fp,sp
	str         x0,[sp,#0x20]

; 265  : 	int dirfd = _KeOpenDir("/music");

	adrp        x8,|$SG9566|
	add         x0,x8,PageOffset(|$SG9566|)
	bl          _KeOpenDir
	mov         w0,w0
	str         w0,[sp,#0x10]

; 266  : 	XEDirectoryEntry* dirent = (XEDirectoryEntry*)malloc(sizeof(XEDirectoryEntry));

	mov         w0,#0x34
	bl          malloc
	str         x0,[sp,#0x18]

; 267  : 	memset(dirent, 0, sizeof(XEDirectoryEntry));

	mov         x2,#0x34
	mov         w1,#0
	ldr         x0,[sp,#0x18]
	bl          memset
|$LN2@MusicPrepa|

; 268  : 	while (1) {

	mov         w8,#1
	cmp         w8,#0
	beq         |$LN3@MusicPrepa|

; 269  : 		if (dirent->index == -1)

	ldr         x8,[sp,#0x18]
	add         x8,x8,#0x20
	ldr         w8,[x8]
	cmn         w8,#1
	bne         |$LN4@MusicPrepa|

; 270  : 			break;

	b           |$LN3@MusicPrepa|
|$LN4@MusicPrepa|

; 271  : 		int code = _KeReadDir(dirfd, dirent);

	ldr         x1,[sp,#0x18]
	ldr         w0,[sp,#0x10]
	bl          _KeReadDir
	mov         w0,w0
	str         w0,[sp,#0x14]

; 272  : 		if (code != -1) {

	ldr         w8,[sp,#0x14]
	cmn         w8,#1
	beq         |$LN5@MusicPrepa|

; 273  : 			if (dirent->flags & FILE_GENERAL){

	ldr         x8,[sp,#0x18]
	add         x8,x8,#0x30
	ldrb        w8,[x8]
	mov         w8,w8
	tbz         x8,#2,|$LN6@MusicPrepa|

; 274  : 				ChListItem*li = ChListViewAddItem(mainWin, lv, dirent->filename);

	ldr         x2,[sp,#0x18]
	ldr         x1,[sp,#0x20]
	adrp        x8,|?mainWin@@3PEAU_chwin_@@EA|
	ldr         x0,[x8,PageOffset(|?mainWin@@3PEAU_chwin_@@EA|)]
	bl          ChListViewAddItem
	str         x0,[sp,#0x28]

; 275  : 				ChListViewSetListItemIcon(li, musicIcon);

	adrp        x8,|?musicIcon@@3PEAU_icon_@@EA|
	ldr         x1,[x8,PageOffset(|?musicIcon@@3PEAU_icon_@@EA|)]
	ldr         x0,[sp,#0x28]
	bl          ChListViewSetListItemIcon
|$LN6@MusicPrepa|
|$LN5@MusicPrepa|

; 276  : 			}
; 277  : 
; 278  : 		}
; 279  : 		memset(dirent->filename, 0, 32);

	ldr         x0,[sp,#0x18]
	mov         x2,#0x20
	mov         w1,#0
	bl          memset

; 280  : 	}

	b           |$LN2@MusicPrepa|
|$LN3@MusicPrepa|
	ldp         fp,lr,[sp],#0x30
	ret

	ENDP  ; |?MusicPrepareLibrary@@YAXPEAU_list_view_@@@Z|, MusicPrepareLibrary

; Function compile flags: /Odtp
; File C:\Users\paras\source\repos\grep-name\XenevaOS\Process\AudioPlayer\main.cpp

	AREA	|.text$mn|, CODE, ARM64

|?SelectButtonActionHandler@@YAXPEAU_ChWidget_@@PEAU_chwin_@@@Z| PROC ; SelectButtonActionHandler

; 253  : void SelectButtonActionHandler(ChWidget* wid, ChWindow* win) {

|$LN4|
	stp         fp,lr,[sp,#-0x30]!
	mov         fp,sp
	str         x0,[sp,#0x18]
	str         x1,[sp,#0x20]

; 254  : 	ChListItem* li = ChListViewGetSelectedItem(browseList);

	adrp        x8,|?browseList@@3PEAU_list_view_@@EA|
	ldr         x0,[x8,PageOffset(|?browseList@@3PEAU_list_view_@@EA|)]
	bl          ChListViewGetSelectedItem
	str         x0,[sp,#0x10]

; 255  : 	if (li) {

	ldr         x8,[sp,#0x10]
	cmp         x8,#0
	beq         |$LN2@SelectButt|

; 256  : 		selectedFile = li->itemText;

	ldr         x8,[sp,#0x10]
	add         x8,x8,#0x20
	adrp        x9,|?selectedFile@@3PEADEA|
	ldr         x8,[x8]
	str         x8,[x9,PageOffset(|?selectedFile@@3PEADEA|)]
|$LN2@SelectButt|

; 257  : 	}
; 258  : 	_KeProcessSleep(100);

	mov         x0,#0x64
	bl          _KeProcessSleep

; 259  : 	UpdateHomeUI();

	bl          |?UpdateHomeUI@@YAXXZ|

; 260  : 	_KeProcessSleep(100);

	mov         x0,#0x64
	bl          _KeProcessSleep
	ldp         fp,lr,[sp],#0x30
	ret

	ENDP  ; |?SelectButtonActionHandler@@YAXPEAU_ChWidget_@@PEAU_chwin_@@@Z|, SelectButtonActionHandler

; Function compile flags: /Odtp
; File C:\Users\paras\source\repos\grep-name\XenevaOS\Process\AudioPlayer\main.cpp

	AREA	|.text$mn|, CODE, ARM64

|?BrowseMenuActionHandler@@YAXPEAU_ChWidget_@@PEAU_chwin_@@@Z| PROC ; BrowseMenuActionHandler

; 233  : void BrowseMenuActionHandler(ChWidget* wid, ChWindow* win) {

|$LN6|
	stp         fp,lr,[sp,#-0x20]!
	mov         fp,sp
	str         x0,[sp,#0x10]
	str         x1,[sp,#0x18]

; 234  : 	if (_music_library_drawn == false){

	adrp        x8,|?_music_library_drawn@@3DA|
	ldrsb       w8,[x8,PageOffset(|?_music_library_drawn@@3DA|)]
	mov         w8,w8
	cmp         w8,#0
	bne         |$LN2@BrowseMenu|

; 235  : 		mainWin->widgets = browserWidgetList;

	adrp        x8,|?mainWin@@3PEAU_chwin_@@EA|
	ldr         x8,[x8,PageOffset(|?mainWin@@3PEAU_chwin_@@EA|)]
	add         x9,x8,#0x50
	adrp        x8,|?browserWidgetList@@3PEAU_list_@@EA|
	ldr         x8,[x8,PageOffset(|?browserWidgetList@@3PEAU_list_@@EA|)]
	str         x8,[x9]

; 236  : 		mainWin->canv = browserCanvas;

	adrp        x8,|?mainWin@@3PEAU_chwin_@@EA|
	ldr         x8,[x8,PageOffset(|?mainWin@@3PEAU_chwin_@@EA|)]
	add         x9,x8,#0x18
	adrp        x8,|?browserCanvas@@3PEAU_ChCanvas_@@EA|
	ldr         x8,[x8,PageOffset(|?browserCanvas@@3PEAU_ChCanvas_@@EA|)]
	str         x8,[x9]

; 237  : 		ChWindowPaint(mainWin);

	adrp        x8,|?mainWin@@3PEAU_chwin_@@EA|
	ldr         x0,[x8,PageOffset(|?mainWin@@3PEAU_chwin_@@EA|)]
	bl          ChWindowPaint

; 238  : 
; 239  : 		ChFontSetSize(mainWin->app->baseFont, 18);

	adrp        x8,|?mainWin@@3PEAU_chwin_@@EA|
	ldr         x8,[x8,PageOffset(|?mainWin@@3PEAU_chwin_@@EA|)]
	add         x8,x8,#0x30
	ldr         x8,[x8]
	add         x8,x8,#0x30
	mov         w1,#0x12
	ldr         x0,[x8]
	bl          ChFontSetSize

; 240  : 		ChFontDrawText(browserCanvas, mainWin->app->baseFont, "Your Music library.....", 10, 88, 18, LIGHTBLACK);

	adrp        x8,|?mainWin@@3PEAU_chwin_@@EA|
	ldr         x8,[x8,PageOffset(|?mainWin@@3PEAU_chwin_@@EA|)]
	add         x8,x8,#0x30
	ldr         x8,[x8]
	add         x9,x8,#0x30
	ldr         w6,|$LN5@BrowseMenu|
	mov         w5,#0x12
	mov         w4,#0x58
	mov         w3,#0xA
	adrp        x8,|$SG9546|
	add         x2,x8,PageOffset(|$SG9546|)
	ldr         x1,[x9]
	adrp        x8,|?browserCanvas@@3PEAU_ChCanvas_@@EA|
	ldr         x0,[x8,PageOffset(|?browserCanvas@@3PEAU_ChCanvas_@@EA|)]
	bl          ChFontDrawText

; 241  : 
; 242  : 		ChWindowUpdate(mainWin, 0, 0, mainWin->info->width, mainWin->info->height, 1, 0);

	adrp        x8,|?mainWin@@3PEAU_chwin_@@EA|
	ldr         x8,[x8,PageOffset(|?mainWin@@3PEAU_chwin_@@EA|)]
	add         x8,x8,#0x28
	ldr         x9,[x8]
	mov         x8,#0x1014
	add         x10,x9,x8
	adrp        x8,|?mainWin@@3PEAU_chwin_@@EA|
	ldr         x8,[x8,PageOffset(|?mainWin@@3PEAU_chwin_@@EA|)]
	add         x8,x8,#0x28
	ldr         x9,[x8]
	mov         x8,#0x1010
	add         x8,x9,x8
	mov         w6,#0
	mov         w5,#1
	ldr         w4,[x10]
	ldr         w3,[x8]
	mov         w2,#0
	mov         w1,#0
	adrp        x8,|?mainWin@@3PEAU_chwin_@@EA|
	ldr         x0,[x8,PageOffset(|?mainWin@@3PEAU_chwin_@@EA|)]
	bl          ChWindowUpdate

; 243  : 		_music_library_drawn = true;

	adrp        x9,|?_music_library_drawn@@3DA|
	mov         w8,#1
	strb        w8,[x9,PageOffset(|?_music_library_drawn@@3DA|)]

; 244  : 	}

	b           |$LN3@BrowseMenu|
|$LN2@BrowseMenu|

; 245  : 	else{
; 246  : 		_KePrint("Updating the browsing \r\n");

	adrp        x8,|$SG9547|
	add         x0,x8,PageOffset(|$SG9547|)
	bl          _KePrint

; 247  : 		UpdateBrowserUI();

	bl          |?UpdateBrowserUI@@YAXXZ|

; 248  : 		_KeProcessSleep(100);

	mov         x0,#0x64
	bl          _KeProcessSleep
|$LN3@BrowseMenu|
	ldp         fp,lr,[sp],#0x20
	ret
|$LN5@BrowseMenu|
	DCD         0xff3e3e3e

	ENDP  ; |?BrowseMenuActionHandler@@YAXPEAU_ChWidget_@@PEAU_chwin_@@@Z|, BrowseMenuActionHandler

; Function compile flags: /Odtp
; File C:\Users\paras\source\repos\grep-name\XenevaOS\Process\AudioPlayer\main.cpp

	AREA	|.text$mn|, CODE, ARM64

|?UpdateBrowserUI@@YAXXZ| PROC				; UpdateBrowserUI

; 226  : void UpdateBrowserUI() {

|$LN3|
	stp         fp,lr,[sp,#-0x10]!
	mov         fp,sp

; 227  : 	mainWin->canv = browserCanvas;

	adrp        x8,|?mainWin@@3PEAU_chwin_@@EA|
	ldr         x8,[x8,PageOffset(|?mainWin@@3PEAU_chwin_@@EA|)]
	add         x9,x8,#0x18
	adrp        x8,|?browserCanvas@@3PEAU_ChCanvas_@@EA|
	ldr         x8,[x8,PageOffset(|?browserCanvas@@3PEAU_ChCanvas_@@EA|)]
	str         x8,[x9]

; 228  : 	mainWin->widgets = browserWidgetList;

	adrp        x8,|?mainWin@@3PEAU_chwin_@@EA|
	ldr         x8,[x8,PageOffset(|?mainWin@@3PEAU_chwin_@@EA|)]
	add         x9,x8,#0x50
	adrp        x8,|?browserWidgetList@@3PEAU_list_@@EA|
	ldr         x8,[x8,PageOffset(|?browserWidgetList@@3PEAU_list_@@EA|)]
	str         x8,[x9]

; 229  : 	ChWindowUpdate(mainWin, 0, 0, mainWin->info->width, mainWin->info->height, 1, 0);

	adrp        x8,|?mainWin@@3PEAU_chwin_@@EA|
	ldr         x8,[x8,PageOffset(|?mainWin@@3PEAU_chwin_@@EA|)]
	add         x8,x8,#0x28
	ldr         x9,[x8]
	mov         x8,#0x1014
	add         x10,x9,x8
	adrp        x8,|?mainWin@@3PEAU_chwin_@@EA|
	ldr         x8,[x8,PageOffset(|?mainWin@@3PEAU_chwin_@@EA|)]
	add         x8,x8,#0x28
	ldr         x9,[x8]
	mov         x8,#0x1010
	add         x8,x9,x8
	mov         w6,#0
	mov         w5,#1
	ldr         w4,[x10]
	ldr         w3,[x8]
	mov         w2,#0
	mov         w1,#0
	adrp        x8,|?mainWin@@3PEAU_chwin_@@EA|
	ldr         x0,[x8,PageOffset(|?mainWin@@3PEAU_chwin_@@EA|)]
	bl          ChWindowUpdate
	ldp         fp,lr,[sp],#0x10
	ret

	ENDP  ; |?UpdateBrowserUI@@YAXXZ|, UpdateBrowserUI

; Function compile flags: /Odtp
; File C:\Users\paras\source\repos\grep-name\XenevaOS\Process\AudioPlayer\main.cpp

	AREA	|.text$mn|, CODE, ARM64

|?UpdateHomeUI@@YAXXZ| PROC				; UpdateHomeUI

; 220  : void UpdateHomeUI() {

|$LN3|
	stp         fp,lr,[sp,#-0x10]!
	mov         fp,sp

; 221  : 	mainWin->canv = mainCanvas;

	adrp        x8,|?mainWin@@3PEAU_chwin_@@EA|
	ldr         x8,[x8,PageOffset(|?mainWin@@3PEAU_chwin_@@EA|)]
	add         x9,x8,#0x18
	adrp        x8,|?mainCanvas@@3PEAU_ChCanvas_@@EA|
	ldr         x8,[x8,PageOffset(|?mainCanvas@@3PEAU_ChCanvas_@@EA|)]
	str         x8,[x9]

; 222  : 	mainWin->widgets = mainWidgetList;

	adrp        x8,|?mainWin@@3PEAU_chwin_@@EA|
	ldr         x8,[x8,PageOffset(|?mainWin@@3PEAU_chwin_@@EA|)]
	add         x9,x8,#0x50
	adrp        x8,|?mainWidgetList@@3PEAU_list_@@EA|
	ldr         x8,[x8,PageOffset(|?mainWidgetList@@3PEAU_list_@@EA|)]
	str         x8,[x9]

; 223  : 	ChWindowUpdate(mainWin, 0, 0, mainWin->info->width, mainWin->info->height, 1, 0);

	adrp        x8,|?mainWin@@3PEAU_chwin_@@EA|
	ldr         x8,[x8,PageOffset(|?mainWin@@3PEAU_chwin_@@EA|)]
	add         x8,x8,#0x28
	ldr         x9,[x8]
	mov         x8,#0x1014
	add         x10,x9,x8
	adrp        x8,|?mainWin@@3PEAU_chwin_@@EA|
	ldr         x8,[x8,PageOffset(|?mainWin@@3PEAU_chwin_@@EA|)]
	add         x8,x8,#0x28
	ldr         x9,[x8]
	mov         x8,#0x1010
	add         x8,x9,x8
	mov         w6,#0
	mov         w5,#1
	ldr         w4,[x10]
	ldr         w3,[x8]
	mov         w2,#0
	mov         w1,#0
	adrp        x8,|?mainWin@@3PEAU_chwin_@@EA|
	ldr         x0,[x8,PageOffset(|?mainWin@@3PEAU_chwin_@@EA|)]
	bl          ChWindowUpdate
	ldp         fp,lr,[sp],#0x10
	ret

	ENDP  ; |?UpdateHomeUI@@YAXXZ|, UpdateHomeUI

; Function compile flags: /Odtp
; File C:\Users\paras\source\repos\grep-name\XenevaOS\Process\AudioPlayer\main.cpp

	AREA	|.text$mn|, CODE, ARM64

|?DrawWallpaper@@YAXPEAU_ChCanvas_@@PEADHH@Z| PROC	; DrawWallpaper

; 183  : void DrawWallpaper(ChCanvas *canv, char* filename, int x, int y) {

|$LN16|
	stp         fp,lr,[sp,#-0xB0]!
	mov         fp,sp
	str         x0,[sp,#0x78]
	str         x1,[sp,#0x68]
	str         w2,[sp,#0x48]
	str         w3,[sp,#0x44]

; 184  : 	int image = _KeOpenFile(filename, FILE_OPEN_READ_ONLY);

	mov         w1,#2
	ldr         x0,[sp,#0x68]
	bl          _KeOpenFile
	mov         w0,w0
	str         w0,[sp,#0x24]

; 185  : 	XEFileStatus stat;
; 186  : 	memset(&stat, 0, sizeof(XEFileStatus));

	mov         x2,#0x28
	mov         w1,#0
	add         x0,sp,#0x80
	bl          memset

; 187  : 	_KeFileStat(image, &stat);

	add         x1,sp,#0x80
	ldr         w0,[sp,#0x24]
	bl          _KeFileStat

; 188  : 	void* data_ = _KeMemMap(NULL, stat.size, 0, 0, -1, 0);

	mov         x5,#0
	mov         w4,#-1
	mov         w3,#0
	mov         w2,#0
	ldr         x1,[sp,#0x88]
	mov         x0,#0
	bl          _KeMemMap
	str         x0,[sp,#0x38]

; 189  : 	memset(data_, 0, ALIGN_UP(stat.size, 4096));

	ldr         x8,[sp,#0x88]
	add         x8,x8,#1,lsl #0xC
	sub         x9,x8,#1
	mov         x8,#0x1000
	udiv        x9,x9,x8
	mov         x8,#0x1000
	mul         x2,x9,x8
	mov         w1,#0
	ldr         x0,[sp,#0x38]
	bl          memset

; 190  : 	_KeReadFile(image, data_, ALIGN_UP(stat.size, 4096));

	ldr         x8,[sp,#0x88]
	add         x8,x8,#1,lsl #0xC
	sub         x9,x8,#1
	mov         x8,#0x1000
	udiv        x9,x9,x8
	mov         x8,#0x1000
	mul         x2,x9,x8
	ldr         x1,[sp,#0x38]
	ldr         w0,[sp,#0x24]
	bl          _KeReadFile

; 191  : 
; 192  : 	uint8_t* data1 = (uint8_t*)data_;

	ldr         x8,[sp,#0x38]
	str         x8,[sp,#0x70]

; 193  : 
; 194  : 	Jpeg::Decoder *decor = new Jpeg::Decoder((uint8_t*)data1, ALIGN_UP(stat.size, 4096), malloc, free);

	ldr         x0,|$LN15@DrawWallpa|
	bl          |??2@YAPEAX_K@Z|
	str         x0,[sp,#0x58]
	ldr         x8,[sp,#0x58]
	cmp         x8,#0
	beq         |$LN13@DrawWallpa|
	ldr         x8,[sp,#0x88]
	add         x8,x8,#1,lsl #0xC
	sub         x9,x8,#1
	mov         x8,#0x1000
	udiv        x9,x9,x8
	mov         x8,#0x1000
	mul         x8,x9,x8
	mov         w2,w8
	adrp        x8,free
	add         x4,x8,PageOffset(free)
	adrp        x8,malloc
	add         x3,x8,PageOffset(malloc)
	mov         w2,w2
	ldr         x1,[sp,#0x70]
	ldr         x0,[sp,#0x58]
	bl          |??0Decoder@Jpeg@@QEAA@PEBEIP6APEAXI@ZP6AXPEAX@Z@Z|
	str         x0,[sp,#0x60]
	b           |$LN14@DrawWallpa|
|$LN13@DrawWallpa|
	mov         x8,#0
	str         x8,[sp,#0x60]
|$LN14@DrawWallpa|
	ldr         x8,[sp,#0x60]
	str         x8,[sp,#0x30]

; 195  : 	if (decor->GetResult() != Jpeg::Decoder::OK) {

	ldr         x0,[sp,#0x30]
	bl          |?GetResult@Decoder@Jpeg@@QEBA?AW4DecodeResult@12@XZ|
	mov         w0,w0
	cmp         w0,#0
	beq         |$LN11@DrawWallpa|

; 196  : 		_KePrint("Decoder error \n");

	adrp        x8,|$SG9535|
	add         x0,x8,PageOffset(|$SG9535|)
	bl          _KePrint
|$LN2@DrawWallpa|

; 197  : 		for (;;);

	b           |$LN2@DrawWallpa|

; 198  : 		return;

	b           |$LN1@DrawWallpa|
|$LN11@DrawWallpa|

; 199  : 	}
; 200  : 	int w = decor->GetWidth();

	ldr         x0,[sp,#0x30]
	bl          |?GetWidth@Decoder@Jpeg@@QEBAHXZ|
	mov         w0,w0
	str         w0,[sp,#0x28]

; 201  : 	int h = decor->GetHeight();

	ldr         x0,[sp,#0x30]
	bl          |?GetHeight@Decoder@Jpeg@@QEBAHXZ|
	mov         w0,w0
	str         w0,[sp,#0x40]

; 202  : 	uint8_t* data = decor->GetImage();

	ldr         x0,[sp,#0x30]
	bl          |?GetImage@Decoder@Jpeg@@QEBAPEAEXZ|
	str         x0,[sp,#0x50]

; 203  : 	for (int i = 0; i < h; i++) {

	mov         w8,#0
	str         w8,[sp,#0x14]
	b           |$LN7@DrawWallpa|
|$LN5@DrawWallpa|
	ldr         w8,[sp,#0x14]
	add         w8,w8,#1
	str         w8,[sp,#0x14]
|$LN7@DrawWallpa|
	ldr         w9,[sp,#0x40]
	ldr         w8,[sp,#0x14]
	cmp         w8,w9
	bge         |$LN6@DrawWallpa|

; 204  : 		for (int k = 0; k < w; k++) {

	mov         w8,#0
	str         w8,[sp,#0x18]
	b           |$LN10@DrawWallpa|
|$LN8@DrawWallpa|
	ldr         w8,[sp,#0x18]
	add         w8,w8,#1
	str         w8,[sp,#0x18]
|$LN10@DrawWallpa|
	ldr         w9,[sp,#0x28]
	ldr         w8,[sp,#0x18]
	cmp         w8,w9
	bge         |$LN9@DrawWallpa|

; 205  : 			int j = k + i * w;

	ldr         w9,[sp,#0x14]
	ldr         w8,[sp,#0x28]
	mul         w9,w9,w8
	ldr         w8,[sp,#0x18]
	add         w8,w8,w9
	str         w8,[sp,#0x1C]

; 206  : 			uint8_t r = data[j * 3];

	ldr         w9,[sp,#0x1C]
	mov         w8,#3
	mul         w8,w9,w8
	sxtw        x9,w8
	mov         x8,#1
	mul         x9,x9,x8
	ldr         x8,[sp,#0x50]
	add         x8,x8,x9
	ldrb        w8,[x8]
	strb        w8,[sp,#0x10]

; 207  : 			uint8_t g = data[j * 3 + 1];

	ldr         w9,[sp,#0x1C]
	mov         w8,#3
	mul         w8,w9,w8
	add         w8,w8,#1
	sxtw        x9,w8
	mov         x8,#1
	mul         x9,x9,x8
	ldr         x8,[sp,#0x50]
	add         x8,x8,x9
	ldrb        w8,[x8]
	strb        w8,[sp,#0x11]

; 208  : 			uint8_t b = data[j * 3 + 2];

	ldr         w9,[sp,#0x1C]
	mov         w8,#3
	mul         w8,w9,w8
	add         w8,w8,#2
	sxtw        x9,w8
	mov         x8,#1
	mul         x9,x9,x8
	ldr         x8,[sp,#0x50]
	add         x8,x8,x9
	ldrb        w8,[x8]
	strb        w8,[sp,#0x12]

; 209  : 			uint32_t rgba = ((r << 16) | (g << 8) | (b)) & 0x00ffffff;

	ldrb        w8,[sp,#0x10]
	mov         w8,w8
	lsl         w9,w8,#0x10
	ldrb        w8,[sp,#0x11]
	mov         w8,w8
	lsl         w8,w8,#8
	orr         w9,w9,w8
	ldrb        w8,[sp,#0x12]
	mov         w8,w8
	orr         w8,w9,w8
	and         w8,w8,#0xFFFFFF
	str         w8,[sp,#0x20]

; 210  : 			rgba = rgba | 0xff000000;

	ldr         w8,[sp,#0x20]
	orr         w8,w8,#0xFF000000
	str         w8,[sp,#0x20]

; 211  : 			ChDrawPixel(canv, x + k, y + i, rgba);

	ldr         w9,[sp,#0x44]
	ldr         w8,[sp,#0x14]
	add         w2,w9,w8
	ldr         w9,[sp,#0x48]
	ldr         w8,[sp,#0x18]
	add         w1,w9,w8
	ldr         w3,[sp,#0x20]
	mov         w2,w2
	mov         w1,w1
	ldr         x0,[sp,#0x78]
	bl          ChDrawPixel

; 212  : 			j++;

	ldr         w8,[sp,#0x1C]
	add         w8,w8,#1
	str         w8,[sp,#0x1C]

; 213  : 		}

	b           |$LN8@DrawWallpa|
|$LN9@DrawWallpa|

; 214  : 	}

	b           |$LN5@DrawWallpa|
|$LN6@DrawWallpa|

; 215  : 	
; 216  : 	_KeMemUnmap(data_, stat.size);

	ldr         x1,[sp,#0x88]
	ldr         x0,[sp,#0x38]
	bl          _KeMemUnmap

; 217  : 	_KeCloseFile(image);

	ldr         w0,[sp,#0x24]
	bl          _KeCloseFile
|$LN1@DrawWallpa|
	ldp         fp,lr,[sp],#0xB0
	ret
	nop
|$LN15@DrawWallpa|
	DCQ         0x80330

	ENDP  ; |?DrawWallpaper@@YAXPEAU_ChCanvas_@@PEADHH@Z|, DrawWallpaper

; Function compile flags: /Odtp
; File C:\Users\paras\source\repos\grep-name\XenevaOS\Process\AudioPlayer\main.cpp

	AREA	|.text$mn|, CODE, ARM64

|?ExitItemClicked@@YAXPEAU_ChWidget_@@PEAU_chwin_@@@Z| PROC ; ExitItemClicked

; 176  : void ExitItemClicked(ChWidget* wid, ChWindow* win) {

|$LN3|
	stp         fp,lr,[sp,#-0x20]!
	mov         fp,sp
	str         x0,[sp,#0x10]
	str         x1,[sp,#0x18]

; 177  : 	ChWindowCloseWindow(mainWin);

	adrp        x8,|?mainWin@@3PEAU_chwin_@@EA|
	ldr         x0,[x8,PageOffset(|?mainWin@@3PEAU_chwin_@@EA|)]
	bl          ChWindowCloseWindow
	ldp         fp,lr,[sp],#0x20
	ret

	ENDP  ; |?ExitItemClicked@@YAXPEAU_ChWidget_@@PEAU_chwin_@@@Z|, ExitItemClicked

; Function compile flags: /Odtp
; File C:\Users\paras\source\repos\grep-name\XenevaOS\Process\AudioPlayer\main.cpp

	AREA	|.text$mn|, CODE, ARM64

|?AboutClicked@@YAXPEAU_ChWidget_@@PEAU_chwin_@@@Z| PROC ; AboutClicked

; 166  : void AboutClicked(ChWidget* wid, ChWindow* win) {

|$LN3|
	stp         fp,lr,[sp,#-0x30]!
	mov         fp,sp
	str         x0,[sp,#0x18]
	str         x1,[sp,#0x20]

; 167  : 	ChMessageBox* mb = ChCreateMessageBox(mainWin, "Accent v1.0", "Accent Player v1.0 for XenevaOS !!", MSGBOX_TYPE_ONLYCLOSE, MSGBOX_ICON_SUCCESS);

	mov         w4,#0x65
	mov         w3,#4
	adrp        x8,|$SG9493|
	add         x2,x8,PageOffset(|$SG9493|)
	adrp        x8,|$SG9494|
	add         x1,x8,PageOffset(|$SG9494|)
	adrp        x8,|?mainWin@@3PEAU_chwin_@@EA|
	ldr         x0,[x8,PageOffset(|?mainWin@@3PEAU_chwin_@@EA|)]
	bl          ChCreateMessageBox
	str         x0,[sp,#0x10]

; 168  : 	ChMessageBoxShow(mb);

	ldr         x0,[sp,#0x10]
	bl          ChMessageBoxShow
	ldp         fp,lr,[sp],#0x30
	ret

	ENDP  ; |?AboutClicked@@YAXPEAU_ChWidget_@@PEAU_chwin_@@@Z|, AboutClicked

; Function compile flags: /Odtp
; File C:\Users\paras\source\repos\grep-name\XenevaOS\Process\AudioPlayer\main.cpp

	AREA	|.text$mn|, CODE, ARM64

|?WindowHandleMessage@@YAXPEAU_post_event_@@@Z| PROC	; WindowHandleMessage

; 133  : void WindowHandleMessage(PostEvent *e) {

|$LN11|
	stp         fp,lr,[sp,#-0x50]!
	mov         fp,sp
	str         x0,[sp,#0x10]

; 134  : 	switch (e->type) {

	ldr         x8,[sp,#0x10]
	ldrb        w8,[x8]
	mov         w8,w8
	str         w8,[sp,#0x18]
	ldr         w8,[sp,#0x18]
	cmp         w8,#0x97
	beq         |$LN4@WindowHand|
	ldr         w8,[sp,#0x18]
	cmp         w8,#0x98
	beq         |$LN8@WindowHand|
	ldr         w8,[sp,#0x18]
	cmp         w8,#0x9A
	beq         |$LN9@WindowHand|
	b           |$LN2@WindowHand|
|$LN4@WindowHand|

; 135  : 	/* handle mouse event from deodhai */
; 136  : 	case DEODHAI_REPLY_MOUSE_EVENT:{
; 137  : 									   int handle = e->dword4;

	ldr         x8,[sp,#0x10]
	add         x8,x8,#0x14
	ldr         w8,[x8]
	str         w8,[sp,#0x1C]

; 138  : 									   if (e->dword5 == WINDOW_HANDLE_TYPE_NORMAL){

	ldr         x8,[sp,#0x10]
	add         x8,x8,#0x18
	ldr         w8,[x8]
	cmp         w8,#1
	bne         |$LN5@WindowHand|

; 139  : 										   ChWindow* mouseWin = ChGetWindowByHandle(mainWin, handle);

	ldr         w1,[sp,#0x1C]
	adrp        x8,|?mainWin@@3PEAU_chwin_@@EA|
	ldr         x0,[x8,PageOffset(|?mainWin@@3PEAU_chwin_@@EA|)]
	bl          ChGetWindowByHandle
	str         x0,[sp,#0x30]

; 140  : 										   ChWindowHandleMouse(mouseWin, e->dword, e->dword2, e->dword3);

	ldr         x8,[sp,#0x10]
	add         x10,x8,#0x10
	ldr         x8,[sp,#0x10]
	add         x9,x8,#0xC
	ldr         x8,[sp,#0x10]
	add         x8,x8,#8
	ldr         w3,[x10]
	ldr         w2,[x9]
	ldr         w1,[x8]
	ldr         x0,[sp,#0x30]
	bl          ChWindowHandleMouse

; 141  : 									   }

	b           |$LN6@WindowHand|
|$LN5@WindowHand|

; 142  : 									   else if (e->dword5 == WINDOW_HANDLE_TYPE_POPUP) {

	ldr         x8,[sp,#0x10]
	add         x8,x8,#0x18
	ldr         w8,[x8]
	cmp         w8,#2
	bne         |$LN7@WindowHand|

; 143  : 										   ChWindow* pw = ChGetPopupWindowByHandle(mainWin, handle);

	ldr         w1,[sp,#0x1C]
	adrp        x8,|?mainWin@@3PEAU_chwin_@@EA|
	ldr         x0,[x8,PageOffset(|?mainWin@@3PEAU_chwin_@@EA|)]
	bl          ChGetPopupWindowByHandle
	str         x0,[sp,#0x38]

; 144  : 										   ChPopupWindowHandleMouse(pw, e->dword, e->dword2, e->dword3);

	ldr         x8,[sp,#0x10]
	add         x10,x8,#0x10
	ldr         x8,[sp,#0x10]
	add         x9,x8,#0xC
	ldr         x8,[sp,#0x10]
	add         x8,x8,#8
	ldr         w3,[x10]
	ldr         w2,[x9]
	ldr         w1,[x8]
	ldr         x0,[sp,#0x38]
	bl          ChPopupWindowHandleMouse
|$LN7@WindowHand|
|$LN6@WindowHand|

; 145  : 									   }
; 146  : 									   memset(e, 0, sizeof(PostEvent));

	mov         x2,#0xB0
	mov         w1,#0
	ldr         x0,[sp,#0x10]
	bl          memset

; 147  : 									   break;

	b           |$LN2@WindowHand|
|$LN8@WindowHand|

; 148  : 	}
; 149  : 		/* handle key events from deodhai */
; 150  : 	case DEODHAI_REPLY_KEY_EVENT:{
; 151  : 									 int code = e->dword;

	ldr         x8,[sp,#0x10]
	add         x8,x8,#8
	ldr         w8,[x8]
	str         w8,[sp,#0x28]

; 152  : 									 memset(e, 0, sizeof(PostEvent));

	mov         x2,#0xB0
	mov         w1,#0
	ldr         x0,[sp,#0x10]
	bl          memset

; 153  : 									 break;

	b           |$LN2@WindowHand|
|$LN9@WindowHand|

; 154  : 	}
; 155  : 	case DEODHAI_REPLY_FOCUS_CHANGED:{
; 156  : 										 int focus_val = e->dword;

	ldr         x8,[sp,#0x10]
	add         x8,x8,#8
	ldr         w8,[x8]
	str         w8,[sp,#0x24]

; 157  : 										 int handle = e->dword2;

	ldr         x8,[sp,#0x10]
	add         x8,x8,#0xC
	ldr         w8,[x8]
	str         w8,[sp,#0x20]

; 158  : 										 ChWindow* focWin = ChGetWindowByHandle(mainWin, handle);

	ldr         w1,[sp,#0x20]
	adrp        x8,|?mainWin@@3PEAU_chwin_@@EA|
	ldr         x0,[x8,PageOffset(|?mainWin@@3PEAU_chwin_@@EA|)]
	bl          ChGetWindowByHandle
	str         x0,[sp,#0x40]

; 159  : 										 ChWindowHandleFocus(focWin, focus_val, handle);

	ldr         w8,[sp,#0x24]
	sxtb        w1,w8
	ldr         w2,[sp,#0x20]
	mov         w1,w1
	ldr         x0,[sp,#0x40]
	bl          ChWindowHandleFocus

; 160  : 										 memset(e, 0, sizeof(PostEvent));

	mov         x2,#0xB0
	mov         w1,#0
	ldr         x0,[sp,#0x10]
	bl          memset
|$LN2@WindowHand|
	ldp         fp,lr,[sp],#0x50
	ret

	ENDP  ; |?WindowHandleMessage@@YAXPEAU_post_event_@@@Z|, WindowHandleMessage

; Function compile flags: /Odtp
; File C:\Users\paras\source\repos\grep-name\XenevaOS\Process\AudioPlayer\main.cpp

	AREA	|.text$mn|, CODE, ARM64

|?PlayerThread@@YAXXZ| PROC				; PlayerThread

; 101  : void PlayerThread() {

|$LN9|
	stp         fp,lr,[sp,#-0x40]!
	mov         fp,sp

; 102  : 	/* register the sound */
; 103  : 	RegisterSound();

	bl          |?RegisterSound@@YAXXZ|

; 104  : 	XEFileStatus stat;
; 105  : 	memset(&stat, 0, sizeof(XEFileStatus));

	mov         x2,#0x28
	mov         w1,#0
	add         x0,sp,#0x10
	bl          memset
|$LN2@PlayerThre|

; 106  : 	while (1) {

	mov         w8,#1
	cmp         w8,#0
	beq         |$LN3@PlayerThre|

; 107  : 		/*
; 108  : 		 * _start_player expects its sound file to be
; 109  : 		 * ready i.e its already opened 
; 110  : 		 */
; 111  : 		if (_start_player) {

	adrp        x8,|?_start_player@@3DA|
	ldrsb       w8,[x8,PageOffset(|?_start_player@@3DA|)]
	mov         w8,w8
	cmp         w8,#0
	beq         |$LN4@PlayerThre|

; 112  : 			_KeFileStat(_file, &stat);

	add         x1,sp,#0x10
	adrp        x8,|?_file@@3HA|
	ldr         w0,[x8,PageOffset(|?_file@@3HA|)]
	bl          _KeFileStat

; 113  : 			if (stat.eof) {

	ldrb        w8,[sp,#0x34]
	mov         w8,w8
	cmp         w8,#0
	beq         |$LN5@PlayerThre|

; 114  : 				_KeCloseFile(_file);

	adrp        x8,|?_file@@3HA|
	ldr         w0,[x8,PageOffset(|?_file@@3HA|)]
	bl          _KeCloseFile

; 115  : 				_start_player = false;

	adrp        x9,|?_start_player@@3DA|
	mov         w8,#0
	strb        w8,[x9,PageOffset(|?_start_player@@3DA|)]

; 116  : 			}

	b           |$LN6@PlayerThre|
|$LN5@PlayerThre|

; 117  : 			else{
; 118  : 				_KeReadFile(_file, soundbuff, 4096);

	mov         x2,#0x1000
	adrp        x8,|?soundbuff@@3PEAXEA|
	ldr         x1,[x8,PageOffset(|?soundbuff@@3PEAXEA|)]
	adrp        x8,|?_file@@3HA|
	ldr         w0,[x8,PageOffset(|?_file@@3HA|)]
	bl          _KeReadFile

; 119  : 				_KeWriteFile(snd, soundbuff, 4096);

	mov         x2,#0x1000
	adrp        x8,|?soundbuff@@3PEAXEA|
	ldr         x1,[x8,PageOffset(|?soundbuff@@3PEAXEA|)]
	adrp        x8,|?snd@@3HA|
	ldr         w0,[x8,PageOffset(|?snd@@3HA|)]
	bl          _KeWriteFile
|$LN6@PlayerThre|
|$LN4@PlayerThre|

; 120  : 			}
; 121  : 		}
; 122  : 
; 123  : 		if (!_start_player) 

	adrp        x8,|?_start_player@@3DA|
	ldrsb       w8,[x8,PageOffset(|?_start_player@@3DA|)]
	mov         w8,w8
	cmp         w8,#0
	bne         |$LN7@PlayerThre|

; 124  : 			_KeProcessSleep(1000);

	mov         x0,#0x3E8
	bl          _KeProcessSleep
|$LN7@PlayerThre|

; 125  : 	}

	b           |$LN2@PlayerThre|
|$LN3@PlayerThre|
	ldp         fp,lr,[sp],#0x40
	ret

	ENDP  ; |?PlayerThread@@YAXXZ|, PlayerThread

; Function compile flags: /Odtp
; File C:\Users\paras\source\repos\grep-name\XenevaOS\Process\AudioPlayer\main.cpp

	AREA	|.text$mn|, CODE, ARM64

|?RegisterSound@@YAXXZ| PROC				; RegisterSound

; 75   : void RegisterSound() {

|$LN4|
	stp         fp,lr,[sp,#-0x40]!
	mov         fp,sp

; 76   : 
; 77   : 	/* open the sound device-file, it is in /dev directory */
; 78   : 	snd = _KeOpenFile("/dev/sound", FILE_OPEN_WRITE);

	mov         w1,#4
	adrp        x8,|$SG9456|
	add         x0,x8,PageOffset(|$SG9456|)
	bl          _KeOpenFile
	mov         w0,w0
	adrp        x8,|?snd@@3HA|
	str         w0,[x8,PageOffset(|?snd@@3HA|)]

; 79   : 
; 80   : 	char test[2];
; 81   : 	/* allocate an ioctl structure where required information
; 82   : 	* will be putted */
; 83   : 	XEFileIOControl ioctl;
; 84   : 	
; 85   : 	memset(&ioctl, 0, sizeof(XEFileIOControl));

	mov         x2,#0x28
	mov         w1,#0
	add         x0,sp,#0x10
	bl          memset

; 86   : 
; 87   : 	/* uint_1 holds the millisecond to sleep after
; 88   : 	* one frame playback */
; 89   : 	ioctl.uint_1 = 0;

	mov         w8,#0
	str         w8,[sp,#0x1C]

; 90   : 
; 91   : 	/* most important aurora_syscall_magic number, without
; 92   : 	* this, iocontrol system call will not work */
; 93   : 	ioctl.syscall_magic = AURORA_SYSCALL_MAGIC;

	ldr         w8,|$LN3@RegisterSo|
	str         w8,[sp,#0x10]

; 94   : 
; 95   : 	/* register the app to sound layer, as it will create
; 96   : 	* a private dsp-box for this app */
; 97   : 	_KeFileIoControl(snd, SOUND_REGISTER_SNDPLR, &ioctl);

	add         x2,sp,#0x10
	mov         w1,#0x64
	adrp        x8,|?snd@@3HA|
	ldr         w0,[x8,PageOffset(|?snd@@3HA|)]
	bl          _KeFileIoControl
	ldp         fp,lr,[sp],#0x40
	ret
|$LN3@RegisterSo|
	DCD         0x15062023

	ENDP  ; |?RegisterSound@@YAXXZ|, RegisterSound

; Function compile flags: /Odtp
; File C:\Users\paras\source\repos\grep-name\XenevaOS\Process\AudioPlayer\minimp4.h

	AREA	|.text$mn|, CODE, ARM64

|?MP4D_read_spspps@@YAPEBXPEBUMP4D_demux_tag@@IHHPEAH@Z| PROC ; MP4D_read_spspps

; 3349 : {

	stp         fp,lr,[sp,#-0x50]!
	mov         fp,sp
	str         x0,[sp,#0x30]
	str         w1,[sp,#0x14]
	str         w2,[sp,#0x38]
	str         w3,[sp,#0x28]
	str         x4,[sp,#0x40]

; 3350 :     int sps_count, skip_bytes;
; 3351 :     int bytepos = 0;

	mov         w8,#0
	str         w8,[sp,#0x10]

; 3352 :     unsigned char* p = mp4->track[ntrack].dsi;

	ldr         x8,[sp,#0x30]
	add         x10,x8,#0x10
	ldr         w8,[sp,#0x14]
	uxtw        x9,w8
	mov         x8,#0x78
	mul         x9,x9,x8
	ldr         x8,[x10]
	add         x8,x8,x9
	add         x8,x8,#8
	ldr         x8,[x8]
	str         x8,[sp,#0x20]

; 3353 :     if (ntrack >= mp4->track_count)

	ldr         x8,[sp,#0x30]
	add         x8,x8,#0x28
	ldr         w9,[x8]
	ldr         w8,[sp,#0x14]
	cmp         w8,w9
	blo         |$LN2@MP4D_read_|

; 3354 :         return NULL;

	mov         x0,#0
	b           |$LN1@MP4D_read_|
|$LN2@MP4D_read_|

; 3355 :     if (mp4->track[ntrack].object_type_indication != MP4_OBJECT_TYPE_AVC)

	ldr         x8,[sp,#0x30]
	add         x10,x8,#0x10
	ldr         w8,[sp,#0x14]
	uxtw        x9,w8
	mov         x8,#0x78
	mul         x9,x9,x8
	ldr         x8,[x10]
	add         x8,x8,x9
	add         x8,x8,#0x14
	ldr         w8,[x8]
	cmp         w8,#0x21
	beq         |$LN3@MP4D_read_|

; 3356 :         return NULL;    // SPS/PPS are specific for AVC format only

	mov         x0,#0
	b           |$LN1@MP4D_read_|
|$LN3@MP4D_read_|

; 3357 : 
; 3358 :     if (pps_flag)

	ldr         w8,[sp,#0x38]
	cmp         w8,#0
	beq         |$LN4@MP4D_read_|

; 3359 :     {
; 3360 :         // Skip all SPS
; 3361 :         sps_count = p[bytepos++];

	ldr         w8,[sp,#0x10]
	sxtw        x9,w8
	mov         x8,#1
	mul         x9,x9,x8
	ldr         x8,[sp,#0x20]
	add         x8,x8,x9
	ldrb        w8,[x8]
	mov         w8,w8
	str         w8,[sp,#0x1C]
	ldr         w8,[sp,#0x10]
	add         w8,w8,#1
	str         w8,[sp,#0x10]

; 3362 :         skip_bytes = skip_spspps(p + bytepos, mp4->track[ntrack].dsi_bytes - bytepos, sps_count);

	ldr         x8,[sp,#0x30]
	add         x10,x8,#0x10
	ldr         w8,[sp,#0x14]
	uxtw        x9,w8
	mov         x8,#0x78
	mul         x9,x9,x8
	ldr         x8,[x10]
	add         x8,x8,x9
	add         x8,x8,#0x10
	ldr         w9,[x8]
	ldr         w8,[sp,#0x10]
	sub         w1,w9,w8
	ldr         w8,[sp,#0x10]
	sxtw        x9,w8
	ldr         x8,[sp,#0x20]
	add         x0,x8,x9
	ldr         w2,[sp,#0x1C]
	mov         w1,w1
	bl          |?skip_spspps@@YAHPEBEHH@Z|
	mov         w0,w0
	str         w0,[sp,#0x18]

; 3363 :         if (skip_bytes < 0)

	ldr         w8,[sp,#0x18]
	cmp         w8,#0
	bge         |$LN5@MP4D_read_|

; 3364 :             return NULL;

	mov         x0,#0
	b           |$LN1@MP4D_read_|
|$LN5@MP4D_read_|

; 3365 :         bytepos += skip_bytes;

	ldr         w9,[sp,#0x10]
	ldr         w8,[sp,#0x18]
	add         w8,w9,w8
	str         w8,[sp,#0x10]
|$LN4@MP4D_read_|

; 3366 :     }
; 3367 : 
; 3368 :     // Skip sps/pps before the given target
; 3369 :     sps_count = p[bytepos++];

	ldr         w8,[sp,#0x10]
	sxtw        x9,w8
	mov         x8,#1
	mul         x9,x9,x8
	ldr         x8,[sp,#0x20]
	add         x8,x8,x9
	ldrb        w8,[x8]
	mov         w8,w8
	str         w8,[sp,#0x1C]
	ldr         w8,[sp,#0x10]
	add         w8,w8,#1
	str         w8,[sp,#0x10]

; 3370 :     if (nsps >= sps_count)

	ldr         w9,[sp,#0x1C]
	ldr         w8,[sp,#0x28]
	cmp         w8,w9
	blt         |$LN6@MP4D_read_|

; 3371 :         return NULL;

	mov         x0,#0
	b           |$LN1@MP4D_read_|
|$LN6@MP4D_read_|

; 3372 :     skip_bytes = skip_spspps(p + bytepos, mp4->track[ntrack].dsi_bytes - bytepos, nsps);

	ldr         x8,[sp,#0x30]
	add         x10,x8,#0x10
	ldr         w8,[sp,#0x14]
	uxtw        x9,w8
	mov         x8,#0x78
	mul         x9,x9,x8
	ldr         x8,[x10]
	add         x8,x8,x9
	add         x8,x8,#0x10
	ldr         w9,[x8]
	ldr         w8,[sp,#0x10]
	sub         w1,w9,w8
	ldr         w8,[sp,#0x10]
	sxtw        x9,w8
	ldr         x8,[sp,#0x20]
	add         x0,x8,x9
	ldr         w2,[sp,#0x28]
	mov         w1,w1
	bl          |?skip_spspps@@YAHPEBEHH@Z|
	mov         w0,w0
	str         w0,[sp,#0x18]

; 3373 :     if (skip_bytes < 0)

	ldr         w8,[sp,#0x18]
	cmp         w8,#0
	bge         |$LN7@MP4D_read_|

; 3374 :         return NULL;

	mov         x0,#0
	b           |$LN1@MP4D_read_|
|$LN7@MP4D_read_|

; 3375 :     bytepos += skip_bytes;

	ldr         w9,[sp,#0x10]
	ldr         w8,[sp,#0x18]
	add         w8,w9,w8
	str         w8,[sp,#0x10]

; 3376 :     *sps_bytes = p[bytepos] * 256 + p[bytepos + 1];

	ldr         w8,[sp,#0x10]
	sxtw        x9,w8
	mov         x8,#1
	mul         x9,x9,x8
	ldr         x8,[sp,#0x20]
	add         x8,x8,x9
	ldrb        w9,[x8]
	mov         w9,w9
	mov         w8,#0x100
	mul         w10,w9,w8
	ldr         w8,[sp,#0x10]
	add         w8,w8,#1
	sxtw        x9,w8
	mov         x8,#1
	mul         x9,x9,x8
	ldr         x8,[sp,#0x20]
	add         x8,x8,x9
	ldrb        w8,[x8]
	mov         w8,w8
	add         w9,w10,w8
	ldr         x8,[sp,#0x40]
	str         w9,[x8]

; 3377 :     return p + bytepos + 2;

	ldr         w8,[sp,#0x10]
	sxtw        x9,w8
	ldr         x8,[sp,#0x20]
	add         x8,x8,x9
	add         x0,x8,#2
|$LN1@MP4D_read_|
	ldp         fp,lr,[sp],#0x50
	ret

	ENDP  ; |?MP4D_read_spspps@@YAPEBXPEBUMP4D_demux_tag@@IHHPEAH@Z|, MP4D_read_spspps

; Function compile flags: /Odtp
; File C:\Users\paras\source\repos\grep-name\XenevaOS\Process\AudioPlayer\minimp4.h

	AREA	|.text$mn|, CODE, ARM64

|?skip_spspps@@YAHPEBEHH@Z| PROC			; skip_spspps

; 3335 : {

	sub         sp,sp,#0x20
	str         x0,[sp,#0x18]
	str         w1,[sp,#0xC]
	str         w2,[sp,#8]

; 3336 :     int i, k = 0;

	mov         w8,#0
	str         w8,[sp]

; 3337 :     for (i = 0; i < nskip; i++)

	mov         w8,#0
	str         w8,[sp,#4]
	b           |$LN4@skip_spspp|
|$LN2@skip_spspp|
	ldr         w8,[sp,#4]
	add         w8,w8,#1
	str         w8,[sp,#4]
|$LN4@skip_spspp|
	ldr         w9,[sp,#8]
	ldr         w8,[sp,#4]
	cmp         w8,w9
	bge         |$LN3@skip_spspp|

; 3338 :     {
; 3339 :         unsigned segmbytes;
; 3340 :         if (k > nbytes - 2)

	ldr         w8,[sp,#0xC]
	sub         w9,w8,#2
	ldr         w8,[sp]
	cmp         w8,w9
	ble         |$LN5@skip_spspp|

; 3341 :             return -1;

	mov         w0,#-1
	b           |$LN1@skip_spspp|
|$LN5@skip_spspp|

; 3342 :         segmbytes = p[k] * 256 + p[k + 1];

	ldr         w8,[sp]
	sxtw        x9,w8
	mov         x8,#1
	mul         x9,x9,x8
	ldr         x8,[sp,#0x18]
	add         x8,x8,x9
	ldrb        w9,[x8]
	mov         w9,w9
	mov         w8,#0x100
	mul         w10,w9,w8
	ldr         w8,[sp]
	add         w8,w8,#1
	sxtw        x9,w8
	mov         x8,#1
	mul         x9,x9,x8
	ldr         x8,[sp,#0x18]
	add         x8,x8,x9
	ldrb        w8,[x8]
	mov         w8,w8
	add         w8,w10,w8
	str         w8,[sp,#0x10]

; 3343 :         k += 2 + segmbytes;

	ldr         w8,[sp,#0x10]
	add         w9,w8,#2
	ldr         w8,[sp]
	add         w8,w8,w9
	str         w8,[sp]

; 3344 :     }

	b           |$LN2@skip_spspp|
|$LN3@skip_spspp|

; 3345 :     return k;

	ldr         w0,[sp]
|$LN1@skip_spspp|
	add         sp,sp,#0x20
	ret

	ENDP  ; |?skip_spspps@@YAHPEBEHH@Z|, skip_spspps

; Function compile flags: /Odtp
; File C:\Users\paras\source\repos\grep-name\XenevaOS\Process\AudioPlayer\minimp4.h

	AREA	|.text$mn|, CODE, ARM64

|?sample_to_chunk@@YAHPEAUMP4D_track_t@@IPEAI@Z| PROC	; sample_to_chunk

; 3237 : {

	sub         sp,sp,#0x20
	str         x0,[sp,#0x10]
	str         w1,[sp,#0xC]
	str         x2,[sp,#0x18]

; 3238 :     unsigned chunk_group = 0, nc;

	mov         w8,#0
	str         w8,[sp]

; 3239 :     unsigned sum = 0;

	mov         w8,#0
	str         w8,[sp,#8]

; 3240 :     *nfirst_sample_in_chunk = 0;

	ldr         x9,[sp,#0x18]
	mov         w8,#0
	str         w8,[x9]

; 3241 :     if (tr->chunk_count <= 1)

	ldr         x8,[sp,#0x10]
	add         x8,x8,#0x58
	ldr         w8,[x8]
	cmp         w8,#1
	bhi         |$LN5@sample_to_|

; 3242 :     {
; 3243 :         return 0;

	mov         w0,#0
	b           |$LN1@sample_to_|
|$LN5@sample_to_|

; 3244 :     }
; 3245 :     for (nc = 0; nc < tr->chunk_count; nc++)

	mov         w8,#0
	str         w8,[sp,#4]
	b           |$LN4@sample_to_|
|$LN2@sample_to_|
	ldr         w8,[sp,#4]
	add         w8,w8,#1
	str         w8,[sp,#4]
|$LN4@sample_to_|
	ldr         x8,[sp,#0x10]
	add         x8,x8,#0x58
	ldr         w9,[x8]
	ldr         w8,[sp,#4]
	cmp         w8,w9
	bhs         |$LN3@sample_to_|

; 3246 :     {
; 3247 :         if (chunk_group + 1 < tr->sample_to_chunk_count     // stuck at last entry till EOF
; 3248 :             && nc + 1 ==    // Chunks counted starting with '1'

	ldr         w8,[sp]
	add         w9,w8,#1
	ldr         x8,[sp,#0x10]
	add         x8,x8,#0x48
	ldr         w8,[x8]
	cmp         w9,w8
	bhs         |$LN6@sample_to_|
	ldr         w8,[sp,#4]
	add         w11,w8,#1
	ldr         x8,[sp,#0x10]
	add         x10,x8,#0x50
	ldr         w8,[sp]
	add         w8,w8,#1
	uxtw        x9,w8
	mov         x8,#8
	mul         x9,x9,x8
	ldr         x8,[x10]
	add         x8,x8,x9
	ldr         w8,[x8]
	cmp         w11,w8
	bne         |$LN6@sample_to_|

; 3249 :             tr->sample_to_chunk[chunk_group + 1].first_chunk)    // next group?
; 3250 :         {
; 3251 :             chunk_group++;

	ldr         w8,[sp]
	add         w8,w8,#1
	str         w8,[sp]
|$LN6@sample_to_|

; 3252 :         }
; 3253 : 
; 3254 :         sum += tr->sample_to_chunk[chunk_group].samples_per_chunk;

	ldr         x8,[sp,#0x10]
	add         x10,x8,#0x50
	ldr         w8,[sp]
	uxtw        x9,w8
	mov         x8,#8
	mul         x9,x9,x8
	ldr         x8,[x10]
	add         x8,x8,x9
	add         x8,x8,#4
	ldr         w9,[sp,#8]
	ldr         w8,[x8]
	add         w8,w9,w8
	str         w8,[sp,#8]

; 3255 :         if (nsample < sum)

	ldr         w9,[sp,#8]
	ldr         w8,[sp,#0xC]
	cmp         w8,w9
	bhs         |$LN7@sample_to_|

; 3256 :             return nc;

	ldr         w0,[sp,#4]
	b           |$LN1@sample_to_|
|$LN7@sample_to_|

; 3257 : 
; 3258 :         // TODO: this can be calculated once per file
; 3259 :         *nfirst_sample_in_chunk = sum;

	ldr         x9,[sp,#0x18]
	ldr         w8,[sp,#8]
	str         w8,[x9]

; 3260 :     }

	b           |$LN2@sample_to_|
|$LN3@sample_to_|

; 3261 :     return -1;

	mov         w0,#-1
|$LN1@sample_to_|
	add         sp,sp,#0x20
	ret

	ENDP  ; |?sample_to_chunk@@YAHPEAUMP4D_track_t@@IPEAI@Z|, sample_to_chunk

; Function compile flags: /Odtp
; File C:\Users\paras\source\repos\grep-name\XenevaOS\Process\AudioPlayer\minimp4.h

	AREA	|.text$mn|, CODE, ARM64

|?my_fseek@@YAXPEAUMP4D_demux_tag@@_KPEAH@Z| PROC	; my_fseek

; 2538 : {

	sub         sp,sp,#0x20
	str         x0,[sp]
	str         x1,[sp,#8]
	str         x2,[sp,#0x10]

; 2539 :     mp4->read_pos += pos;

	ldr         x8,[sp]
	ldr         x9,[x8]
	ldr         x8,[sp,#8]
	add         x9,x9,x8
	ldr         x8,[sp]
	str         x9,[x8]

; 2540 :     if (mp4->read_pos >= mp4->read_size)

	ldr         x10,[sp]
	ldr         x8,[sp]
	add         x8,x8,#8
	ldr         x9,[x8]
	ldr         x8,[x10]
	cmp         x8,x9
	blt         |$LN2@my_fseek|

; 2541 :         *eof_flag = 1;

	ldr         x9,[sp,#0x10]
	mov         w8,#1
	str         w8,[x9]
|$LN2@my_fseek|
	add         sp,sp,#0x20
	ret

	ENDP  ; |?my_fseek@@YAXPEAUMP4D_demux_tag@@_KPEAH@Z|, my_fseek

; Function compile flags: /Odtp
; File C:\Users\paras\source\repos\grep-name\XenevaOS\Process\AudioPlayer\minimp4.h

	AREA	|.text$mn|, CODE, ARM64

|?read_payload@@YAIPEAUMP4D_demux_tag@@IPEA_KPEAH@Z| PROC ; read_payload

; 2522 : {

	stp         fp,lr,[sp,#-0x30]!
	mov         fp,sp
	str         x0,[sp,#0x28]
	str         w1,[sp,#0x10]
	str         x2,[sp,#0x18]
	str         x3,[sp,#0x20]

; 2523 :     if (*payload_bytes < nb)

	ldr         w8,[sp,#0x10]
	uxtw        x9,w8
	ldr         x8,[sp,#0x18]
	ldr         x8,[x8]
	cmp         x8,x9
	bhs         |$LN2@read_paylo|

; 2524 :     {
; 2525 :         *eof_flag = 1;

	ldr         x9,[sp,#0x20]
	mov         w8,#1
	str         w8,[x9]

; 2526 :         nb = (int)*payload_bytes;

	ldr         x8,[sp,#0x18]
	ldr         x8,[x8]
	mov         w8,w8
	str         w8,[sp,#0x10]
|$LN2@read_paylo|

; 2527 :     }
; 2528 :     *payload_bytes -= nb;

	ldr         w8,[sp,#0x10]
	uxtw        x9,w8
	ldr         x8,[sp,#0x18]
	ldr         x8,[x8]
	sub         x9,x8,x9
	ldr         x8,[sp,#0x18]
	str         x9,[x8]

; 2529 : 
; 2530 :     return minimp4_read(mp4, nb, eof_flag);

	ldr         x2,[sp,#0x20]
	ldr         w1,[sp,#0x10]
	ldr         x0,[sp,#0x28]
	bl          |?minimp4_read@@YAIPEAUMP4D_demux_tag@@HPEAH@Z|
	mov         w0,w0
	mov         w0,w0
	ldp         fp,lr,[sp],#0x30
	ret

	ENDP  ; |?read_payload@@YAIPEAUMP4D_demux_tag@@IPEA_KPEAH@Z|, read_payload

; Function compile flags: /Odtp
; File C:\Users\paras\source\repos\grep-name\XenevaOS\Process\AudioPlayer\minimp4.h

	AREA	|.text$mn|, CODE, ARM64

|?minimp4_read@@YAIPEAUMP4D_demux_tag@@HPEAH@Z| PROC	; minimp4_read

; 2500 : {

	str         x19,[sp,#-0x10]!
	stp         fp,lr,[sp,#-0x30]!
	mov         fp,sp
	str         x0,[sp,#0x20]
	str         w1,[sp,#0x1C]
	str         x2,[sp,#0x28]

; 2501 :     uint32_t v = 0; int last_byte;

	mov         w8,#0
	str         w8,[sp,#0x10]

; 2502 :     switch (nb)

	ldr         w8,[sp,#0x1C]
	str         w8,[sp,#0x14]
	ldr         w8,[sp,#0x14]
	sub         w8,w8,#1
	str         w8,[sp,#0x14]
	ldr         w8,[sp,#0x14]
	cmp         w8,#3
	bhi         |$LN7@minimp4_re|
	ldr         w10,[sp,#0x14]
	adr         x9,__swt
	ldrsb       x8,[x9,w10 uxtw #0]
	add         x8,x9,x8,lsl #2
	br          x8
|$LN4@minimp4_re|

; 2503 :     {
; 2504 :     case 4: v = (v << 8) | minimp4_fgets(mp4);

	ldr         w8,[sp,#0x10]
	lsl         w19,w8,#8
	ldr         x0,[sp,#0x20]
	bl          |?minimp4_fgets@@YAHPEAUMP4D_demux_tag@@@Z|
	mov         w0,w0
	orr         w8,w19,w0
	str         w8,[sp,#0x10]
|$LN5@minimp4_re|

; 2505 :     case 3: v = (v << 8) | minimp4_fgets(mp4);

	ldr         w8,[sp,#0x10]
	lsl         w19,w8,#8
	ldr         x0,[sp,#0x20]
	bl          |?minimp4_fgets@@YAHPEAUMP4D_demux_tag@@@Z|
	mov         w0,w0
	orr         w8,w19,w0
	str         w8,[sp,#0x10]
|$LN6@minimp4_re|

; 2506 :     case 2: v = (v << 8) | minimp4_fgets(mp4);

	ldr         w8,[sp,#0x10]
	lsl         w19,w8,#8
	ldr         x0,[sp,#0x20]
	bl          |?minimp4_fgets@@YAHPEAUMP4D_demux_tag@@@Z|
	mov         w0,w0
	orr         w8,w19,w0
	str         w8,[sp,#0x10]
|$LN7@minimp4_re|
|$LN8@minimp4_re|

; 2507 :     default:
; 2508 :     case 1: v = (v << 8) | (last_byte = minimp4_fgets(mp4));

	ldr         x0,[sp,#0x20]
	bl          |?minimp4_fgets@@YAHPEAUMP4D_demux_tag@@@Z|
	mov         w0,w0
	str         w0,[sp,#0x18]
	ldr         w8,[sp,#0x10]
	lsl         w9,w8,#8
	ldr         w8,[sp,#0x18]
	orr         w8,w9,w8
	str         w8,[sp,#0x10]

; 2509 :     }
; 2510 :     if (last_byte < 0)

	ldr         w8,[sp,#0x18]
	cmp         w8,#0
	bge         |$LN9@minimp4_re|

; 2511 :     {
; 2512 :         *eof_flag = 1;

	ldr         x9,[sp,#0x28]
	mov         w8,#1
	str         w8,[x9]
|$LN9@minimp4_re|

; 2513 :     }
; 2514 :     return v;

	ldr         w0,[sp,#0x10]
	ldp         fp,lr,[sp],#0x30
	ldr         x19,[sp],#0x10
	ret
|__swt|
|$LN12@minimp4_re|

; 2502 :     switch (nb)

	DCB         0xed
|$LN13@minimp4_re|
	DCB         0xe6
|$LN14@minimp4_re|
	DCB         0xdf
|$LN15@minimp4_re|
	DCB         0xd8

	ENDP  ; |?minimp4_read@@YAIPEAUMP4D_demux_tag@@HPEAH@Z|, minimp4_read

; Function compile flags: /Odtp
; File C:\Users\paras\source\repos\grep-name\XenevaOS\Process\AudioPlayer\minimp4.h

	AREA	|.text$mn|, CODE, ARM64

|?minimp4_fgets@@YAHPEAUMP4D_demux_tag@@@Z| PROC	; minimp4_fgets

; 2487 : {

	stp         fp,lr,[sp,#-0x20]!
	mov         fp,sp
	str         x0,[sp,#0x18]

; 2488 :     uint8_t c;
; 2489 :     if (mp4->read_callback(mp4->read_pos, &c, 1, mp4->token))

	ldr         x8,[sp,#0x18]
	add         x10,x8,#0x20
	ldr         x9,[sp,#0x18]
	ldr         x8,[sp,#0x18]
	add         x8,x8,#0x18
	ldr         x3,[x10]
	mov         x2,#1
	add         x1,sp,#0x10
	ldr         x0,[x9]
	ldr         x8,[x8]
	blr         x8
	mov         w0,w0
	cmp         w0,#0
	beq         |$LN2@minimp4_fg|

; 2490 :         return -1;

	mov         w0,#-1
	b           |$LN1@minimp4_fg|
|$LN2@minimp4_fg|

; 2491 :     mp4->read_pos++;

	ldr         x8,[sp,#0x18]
	ldr         x8,[x8]
	add         x9,x8,#1
	ldr         x8,[sp,#0x18]
	str         x9,[x8]

; 2492 :     return c;

	ldrb        w0,[sp,#0x10]
	mov         w0,w0
	mov         w0,w0
|$LN1@minimp4_fg|
	ldp         fp,lr,[sp],#0x20
	ret

	ENDP  ; |?minimp4_fgets@@YAHPEAUMP4D_demux_tag@@@Z|, minimp4_fgets

; Function compile flags: /Odtp
; File C:\Users\paras\source\repos\grep-name\XenevaOS\Process\AudioPlayer\minimp4.h

	AREA	|.text$mn|, CODE, ARM64

|?mp4_h265_write_nal@@YAHPEAUmp4_h26x_writer_tag@@PEBEHI@Z| PROC ; mp4_h265_write_nal

; 2297 : {

	stp         fp,lr,[sp,#-0x50]!
	mov         fp,sp
	str         x0,[sp,#0x18]
	str         x1,[sp,#0x40]
	str         w2,[sp,#0x10]
	str         w3,[sp,#0x48]

; 2298 :     int payload_type = (nal[0] >> 1) & 0x3f;

	ldr         x8,[sp,#0x40]
	ldrb        w8,[x8]
	mov         w8,w8
	asr         w8,w8,#1
	and         w8,w8,#0x3F
	str         w8,[sp,#0x28]

; 2299 :     int is_intra = payload_type >= HEVC_NAL_BLA_W_LP && payload_type <= HEVC_NAL_CRA_NUT;

	ldr         w8,[sp,#0x28]
	cmp         w8,#0x10
	blt         |$LN14@mp4_h265_w|
	ldr         w8,[sp,#0x28]
	cmp         w8,#0x15
	bgt         |$LN14@mp4_h265_w|
	mov         w8,#1
	str         w8,[sp,#0x30]
	b           |$LN15@mp4_h265_w|
|$LN14@mp4_h265_w|
	mov         w8,#0
	str         w8,[sp,#0x30]
|$LN15@mp4_h265_w|
	ldr         w8,[sp,#0x30]
	str         w8,[sp,#0x34]

; 2300 :     int err = MP4E_STATUS_OK;

	mov         w8,#0
	str         w8,[sp,#0x3C]

; 2301 :     //printf("payload_type=%d, intra=%d\n", payload_type, is_intra);
; 2302 : 
; 2303 :     if (is_intra && !h->need_sps && !h->need_pps && !h->need_vps)

	ldr         w8,[sp,#0x34]
	cmp         w8,#0
	beq         |$LN4@mp4_h265_w|
	ldr         x9,[sp,#0x18]
	mov         x8,#0x1214
	add         x8,x9,x8
	ldr         w8,[x8]
	cmp         w8,#0
	bne         |$LN4@mp4_h265_w|
	ldr         x9,[sp,#0x18]
	mov         x8,#0x1218
	add         x8,x9,x8
	ldr         w8,[x8]
	cmp         w8,#0
	bne         |$LN4@mp4_h265_w|
	ldr         x9,[sp,#0x18]
	mov         x8,#0x1210
	add         x8,x9,x8
	ldr         w8,[x8]
	cmp         w8,#0
	bne         |$LN4@mp4_h265_w|

; 2304 :         h->need_idr = 0;

	ldr         x9,[sp,#0x18]
	mov         x8,#0x121C
	add         x9,x9,x8
	mov         w8,#0
	str         w8,[x9]
|$LN4@mp4_h265_w|

; 2305 :     switch (payload_type)

	ldr         w8,[sp,#0x28]
	str         w8,[sp,#0x2C]
	ldr         w8,[sp,#0x2C]
	cmp         w8,#0x20
	beq         |$LN5@mp4_h265_w|
	ldr         w8,[sp,#0x2C]
	cmp         w8,#0x21
	beq         |$LN6@mp4_h265_w|
	ldr         w8,[sp,#0x2C]
	cmp         w8,#0x22
	beq         |$LN7@mp4_h265_w|
	b           |$LN8@mp4_h265_w|
|$LN5@mp4_h265_w|

; 2306 :     {
; 2307 :     case HEVC_NAL_VPS:
; 2308 :         MP4E_set_vps(h->mux, h->mux_track_id, nal, sizeof_nal);

	ldr         x9,[sp,#0x18]
	mov         x8,#0x1208
	add         x10,x9,x8
	ldr         x9,[sp,#0x18]
	mov         x8,#0x1200
	add         x8,x9,x8
	ldr         w3,[sp,#0x10]
	ldr         x2,[sp,#0x40]
	ldr         w1,[x10]
	ldr         x0,[x8]
	bl          MP4E_set_vps

; 2309 :         h->need_vps = 0;

	ldr         x9,[sp,#0x18]
	mov         x8,#0x1210
	add         x9,x9,x8
	mov         w8,#0
	str         w8,[x9]

; 2310 :         break;

	b           |$LN2@mp4_h265_w|
|$LN6@mp4_h265_w|

; 2311 :     case HEVC_NAL_SPS:
; 2312 :         MP4E_set_sps(h->mux, h->mux_track_id, nal, sizeof_nal);

	ldr         x9,[sp,#0x18]
	mov         x8,#0x1208
	add         x10,x9,x8
	ldr         x9,[sp,#0x18]
	mov         x8,#0x1200
	add         x8,x9,x8
	ldr         w3,[sp,#0x10]
	ldr         x2,[sp,#0x40]
	ldr         w1,[x10]
	ldr         x0,[x8]
	bl          MP4E_set_sps

; 2313 :         h->need_sps = 0;

	ldr         x9,[sp,#0x18]
	mov         x8,#0x1214
	add         x9,x9,x8
	mov         w8,#0
	str         w8,[x9]

; 2314 :         break;

	b           |$LN2@mp4_h265_w|
|$LN7@mp4_h265_w|

; 2315 :     case HEVC_NAL_PPS:
; 2316 :         MP4E_set_pps(h->mux, h->mux_track_id, nal, sizeof_nal);

	ldr         x9,[sp,#0x18]
	mov         x8,#0x1208
	add         x10,x9,x8
	ldr         x9,[sp,#0x18]
	mov         x8,#0x1200
	add         x8,x9,x8
	ldr         w3,[sp,#0x10]
	ldr         x2,[sp,#0x40]
	ldr         w1,[x10]
	ldr         x0,[x8]
	bl          MP4E_set_pps

; 2317 :         h->need_pps = 0;

	ldr         x9,[sp,#0x18]
	mov         x8,#0x1218
	add         x9,x9,x8
	mov         w8,#0
	str         w8,[x9]

; 2318 :         break;

	b           |$LN2@mp4_h265_w|
|$LN8@mp4_h265_w|

; 2319 :     default:
; 2320 :         if (h->need_vps || h->need_sps || h->need_pps || h->need_idr)

	ldr         x9,[sp,#0x18]
	mov         x8,#0x1210
	add         x8,x9,x8
	ldr         w8,[x8]
	cmp         w8,#0
	bne         |$LN10@mp4_h265_w|
	ldr         x9,[sp,#0x18]
	mov         x8,#0x1214
	add         x8,x9,x8
	ldr         w8,[x8]
	cmp         w8,#0
	bne         |$LN10@mp4_h265_w|
	ldr         x9,[sp,#0x18]
	mov         x8,#0x1218
	add         x8,x9,x8
	ldr         w8,[x8]
	cmp         w8,#0
	bne         |$LN10@mp4_h265_w|
	ldr         x9,[sp,#0x18]
	mov         x8,#0x121C
	add         x8,x9,x8
	ldr         w8,[x8]
	cmp         w8,#0
	beq         |$LN9@mp4_h265_w|
|$LN10@mp4_h265_w|

; 2321 :             return MP4E_STATUS_BAD_ARGUMENTS;

	mov         w0,#-1
	b           |$LN1@mp4_h265_w|
|$LN9@mp4_h265_w|

; 2322 :         {
; 2323 :             unsigned char* tmp = (unsigned char*)malloc(4 + sizeof_nal);

	ldr         w8,[sp,#0x10]
	add         w0,w8,#4
	mov         w0,w0
	bl          malloc
	str         x0,[sp,#0x20]

; 2324 :             if (!tmp)

	ldr         x8,[sp,#0x20]
	cmp         x8,#0
	bne         |$LN11@mp4_h265_w|

; 2325 :                 return MP4E_STATUS_NO_MEMORY;

	mov         w0,#-2
	b           |$LN1@mp4_h265_w|
|$LN11@mp4_h265_w|

; 2326 :             int sample_kind = MP4E_SAMPLE_DEFAULT;

	mov         w8,#0
	str         w8,[sp,#0x38]

; 2327 :             tmp[0] = (unsigned char)(sizeof_nal >> 24);

	ldr         w8,[sp,#0x10]
	asr         w8,w8,#0x18
	uxtb        w9,w8
	ldr         x8,[sp,#0x20]
	strb        w9,[x8]

; 2328 :             tmp[1] = (unsigned char)(sizeof_nal >> 16);

	ldr         w8,[sp,#0x10]
	asr         w8,w8,#0x10
	uxtb        w9,w8
	ldr         x8,[sp,#0x20]
	add         x8,x8,#1
	strb        w9,[x8]

; 2329 :             tmp[2] = (unsigned char)(sizeof_nal >> 8);

	ldr         w8,[sp,#0x10]
	asr         w8,w8,#8
	uxtb        w9,w8
	ldr         x8,[sp,#0x20]
	add         x8,x8,#2
	strb        w9,[x8]

; 2330 :             tmp[3] = (unsigned char)(sizeof_nal);

	ldr         w8,[sp,#0x10]
	uxtb        w9,w8
	ldr         x8,[sp,#0x20]
	add         x8,x8,#3
	strb        w9,[x8]

; 2331 :             memcpy(tmp + 4,(void*) nal, sizeof_nal);

	ldr         w8,[sp,#0x10]
	sxtw        x2,w8
	ldr         x8,[sp,#0x20]
	add         x0,x8,#4
	ldr         x1,[sp,#0x40]
	bl          memcpy

; 2332 :             if (is_intra)

	ldr         w8,[sp,#0x34]
	cmp         w8,#0
	beq         |$LN12@mp4_h265_w|

; 2333 :                 sample_kind = MP4E_SAMPLE_RANDOM_ACCESS;

	mov         w8,#1
	str         w8,[sp,#0x38]
|$LN12@mp4_h265_w|

; 2334 :             err = MP4E_put_sample(h->mux, h->mux_track_id, tmp, 4 + sizeof_nal, timeStamp90kHz_next, sample_kind);

	ldr         w8,[sp,#0x10]
	add         w3,w8,#4
	ldr         x9,[sp,#0x18]
	mov         x8,#0x1208
	add         x10,x9,x8
	ldr         x9,[sp,#0x18]
	mov         x8,#0x1200
	add         x8,x9,x8
	ldr         w5,[sp,#0x38]
	ldr         w4,[sp,#0x48]
	mov         w3,w3
	ldr         x2,[sp,#0x20]
	ldr         w1,[x10]
	ldr         x0,[x8]
	bl          MP4E_put_sample
	mov         w0,w0
	str         w0,[sp,#0x3C]

; 2335 :             free(tmp);

	ldr         x0,[sp,#0x20]
	bl          free
|$LN2@mp4_h265_w|

; 2336 :         }
; 2337 :         break;
; 2338 :     }
; 2339 :     return err;

	ldr         w0,[sp,#0x3C]
|$LN1@mp4_h265_w|
	ldp         fp,lr,[sp],#0x50
	ret

	ENDP  ; |?mp4_h265_write_nal@@YAHPEAUmp4_h26x_writer_tag@@PEBEHI@Z|, mp4_h265_write_nal

; Function compile flags: /Odtp
; File C:\Users\paras\source\repos\grep-name\XenevaOS\Process\AudioPlayer\minimp4.h

	AREA	|.text$mn|, CODE, ARM64

|?find_nal_unit@@YAPEBEPEBEHPEAH@Z| PROC		; find_nal_unit

; 2232 : {

	stp         fp,lr,[sp,#-0x40]!
	mov         fp,sp
	str         x0,[sp,#0x28]
	str         w1,[sp,#0x10]
	str         x2,[sp,#0x38]

; 2233 :     const uint8_t* eof = h264_data + h264_data_bytes;

	ldr         w8,[sp,#0x10]
	sxtw        x9,w8
	ldr         x8,[sp,#0x28]
	add         x8,x8,x9
	str         x8,[sp,#0x30]

; 2234 :     int zcount;
; 2235 :     const uint8_t* start = find_start_code(h264_data, h264_data_bytes, &zcount);

	add         x2,sp,#0x14
	ldr         w1,[sp,#0x10]
	ldr         x0,[sp,#0x28]
	bl          |?find_start_code@@YAPEBEPEBEHPEAH@Z|
	str         x0,[sp,#0x18]

; 2236 :     const uint8_t* stop = start;

	ldr         x8,[sp,#0x18]
	str         x8,[sp,#0x20]

; 2237 :     if (start)

	ldr         x8,[sp,#0x18]
	cmp         x8,#0
	beq         |$LN4@find_nal_u|

; 2238 :     {
; 2239 :         stop = find_start_code(start, (int)(eof - start), &zcount);

	ldr         x9,[sp,#0x30]
	ldr         x8,[sp,#0x18]
	sub         x8,x9,x8
	mov         w1,w8
	add         x2,sp,#0x14
	mov         w1,w1
	ldr         x0,[sp,#0x18]
	bl          |?find_start_code@@YAPEBEPEBEHPEAH@Z|
	str         x0,[sp,#0x20]
|$LN2@find_nal_u|

; 2240 :         while (stop > start && !stop[-1])

	ldr         x9,[sp,#0x18]
	ldr         x8,[sp,#0x20]
	cmp         x8,x9
	bls         |$LN3@find_nal_u|
	ldr         x9,[sp,#0x20]
	mov         x8,#-1
	add         x8,x9,x8
	ldrb        w8,[x8]
	mov         w8,w8
	cmp         w8,#0
	bne         |$LN3@find_nal_u|

; 2241 :         {
; 2242 :             stop--;

	ldr         x8,[sp,#0x20]
	sub         x8,x8,#1
	str         x8,[sp,#0x20]

; 2243 :         }

	b           |$LN2@find_nal_u|
|$LN3@find_nal_u|
|$LN4@find_nal_u|

; 2244 :     }
; 2245 : 
; 2246 :     *pnal_unit_bytes = (int)(stop - start - zcount);

	ldr         x9,[sp,#0x20]
	ldr         x8,[sp,#0x18]
	sub         x9,x9,x8
	ldr         w8,[sp,#0x14]
	sxtw        x8,w8
	sub         x8,x9,x8
	mov         w9,w8
	ldr         x8,[sp,#0x38]
	str         w9,[x8]

; 2247 :     return start;

	ldr         x0,[sp,#0x18]
	ldp         fp,lr,[sp],#0x40
	ret

	ENDP  ; |?find_nal_unit@@YAPEBEPEBEHPEAH@Z|, find_nal_unit

; Function compile flags: /Odtp
; File C:\Users\paras\source\repos\grep-name\XenevaOS\Process\AudioPlayer\minimp4.h

	AREA	|.text$mn|, CODE, ARM64

|?find_start_code@@YAPEBEPEBEHPEAH@Z| PROC		; find_start_code

; 2208 : {

	stp         fp,lr,[sp,#-0x50]!
	mov         fp,sp
	str         x0,[sp,#0x28]
	str         w1,[sp,#0x14]
	str         x2,[sp,#0x40]

; 2209 :     const uint8_t* eof = h264_data + h264_data_bytes;

	ldr         w8,[sp,#0x14]
	sxtw        x9,w8
	ldr         x8,[sp,#0x28]
	add         x8,x8,x9
	str         x8,[sp,#0x20]

; 2210 :     const uint8_t* p = h264_data;

	ldr         x8,[sp,#0x28]
	str         x8,[sp,#0x18]
|$LN4@find_start|

; 2211 :     do
; 2212 :     {
; 2213 :         int zero_cnt = 1;

	mov         w8,#1
	str         w8,[sp,#0x10]

; 2214 :         const uint8_t* found = (uint8_t*)memchr(p, 0, eof - p);

	ldr         x9,[sp,#0x20]
	ldr         x8,[sp,#0x18]
	sub         x2,x9,x8
	mov         w1,#0
	ldr         x0,[sp,#0x18]
	bl          memchr
	str         x0,[sp,#0x30]

; 2215 :         p = found ? found : eof;

	ldr         x8,[sp,#0x30]
	cmp         x8,#0
	beq         |$LN9@find_start|
	ldr         x8,[sp,#0x30]
	str         x8,[sp,#0x38]
	b           |$LN10@find_start|
|$LN9@find_start|
	ldr         x8,[sp,#0x20]
	str         x8,[sp,#0x38]
|$LN10@find_start|
	ldr         x8,[sp,#0x38]
	str         x8,[sp,#0x18]
|$LN5@find_start|

; 2216 :         while (p + zero_cnt < eof && !p[zero_cnt]) zero_cnt++;

	ldr         w8,[sp,#0x10]
	sxtw        x9,w8
	ldr         x8,[sp,#0x18]
	add         x9,x8,x9
	ldr         x8,[sp,#0x20]
	cmp         x9,x8
	bhs         |$LN6@find_start|
	ldr         w8,[sp,#0x10]
	sxtw        x9,w8
	mov         x8,#1
	mul         x9,x9,x8
	ldr         x8,[sp,#0x18]
	add         x8,x8,x9
	ldrb        w8,[x8]
	mov         w8,w8
	cmp         w8,#0
	bne         |$LN6@find_start|
	ldr         w8,[sp,#0x10]
	add         w8,w8,#1
	str         w8,[sp,#0x10]
	b           |$LN5@find_start|
|$LN6@find_start|

; 2217 :         if (zero_cnt >= 2 && p[zero_cnt] == 1)

	ldr         w8,[sp,#0x10]
	cmp         w8,#2
	blt         |$LN7@find_start|
	ldr         w8,[sp,#0x10]
	sxtw        x9,w8
	mov         x8,#1
	mul         x9,x9,x8
	ldr         x8,[sp,#0x18]
	add         x8,x8,x9
	ldrb        w8,[x8]
	mov         w8,w8
	cmp         w8,#1
	bne         |$LN7@find_start|

; 2218 :         {
; 2219 :             *zcount = zero_cnt + 1;

	ldr         w8,[sp,#0x10]
	add         w9,w8,#1
	ldr         x8,[sp,#0x40]
	str         w9,[x8]

; 2220 :             return p + zero_cnt + 1;

	ldr         w8,[sp,#0x10]
	sxtw        x9,w8
	ldr         x8,[sp,#0x18]
	add         x8,x8,x9
	add         x0,x8,#1
	b           |$LN1@find_start|
|$LN7@find_start|

; 2221 :         }
; 2222 :         p += zero_cnt;

	ldr         w8,[sp,#0x10]
	sxtw        x9,w8
	ldr         x8,[sp,#0x18]
	add         x8,x8,x9
	str         x8,[sp,#0x18]

; 2223 :     } while (p < eof);

	ldr         x9,[sp,#0x20]
	ldr         x8,[sp,#0x18]
	cmp         x8,x9
	blo         |$LN4@find_start|

; 2224 :     *zcount = 0;

	ldr         x9,[sp,#0x40]
	mov         w8,#0
	str         w8,[x9]

; 2225 :     return eof;

	ldr         x0,[sp,#0x20]
|$LN1@find_start|
	ldp         fp,lr,[sp],#0x50
	ret

	ENDP  ; |?find_start_code@@YAPEBEPEBEHPEAH@Z|, find_start_code

; Function compile flags: /Odtp
; File C:\Users\paras\source\repos\grep-name\XenevaOS\Process\AudioPlayer\minimp4.h

	AREA	|.text$mn|, CODE, ARM64

|?transcode_nalu@@YAHPEAUh264_sps_id_patcher_t@@PEBEHPEAE@Z| PROC ; transcode_nalu

; 2143 : {

	stp         fp,lr,[sp,#-0xC0]!
	mov         fp,sp
	str         x0,[sp,#0x20]
	str         x1,[sp,#0x38]
	str         w2,[sp,#0x10]
	str         x3,[sp,#0x30]

; 2144 :     int old_id;
; 2145 : 
; 2146 :     bit_reader_t bst[1];
; 2147 :     bs_t bdt[1];
; 2148 : 
; 2149 :     bit_reader_t bs[1];
; 2150 :     bs_t bd[1];
; 2151 :     int payload_type = src[0] & 31;

	ldr         x8,[sp,#0x38]
	ldrb        w8,[x8]
	mov         w8,w8
	and         w8,w8,#0x1F
	str         w8,[sp,#0x40]

; 2152 : 
; 2153 :     *dst = *src;

	ldr         x9,[sp,#0x30]
	ldr         x8,[sp,#0x38]
	ldrb        w8,[x8]
	strb        w8,[x9]

; 2154 :     h264e_bs_init_bits(bd, dst + 1);

	ldr         x8,[sp,#0x30]
	add         x1,x8,#1
	add         x0,sp,#0x50
	bl          |?h264e_bs_init_bits@@YAXPEAUbs_t@@PEAX@Z|

; 2155 :     init_bits(bs, src + 1, nalu_bytes - 1);

	ldr         w8,[sp,#0x10]
	sub         w2,w8,#1
	ldr         x8,[sp,#0x38]
	add         x1,x8,#1
	mov         w2,w2
	add         x0,sp,#0x80
	bl          |?init_bits@@YAXPEAUbit_reader_t@@PEBXI@Z|

; 2156 :     h264e_bs_init_bits(bdt, dst + 1);

	ldr         x8,[sp,#0x30]
	add         x1,x8,#1
	add         x0,sp,#0x68
	bl          |?h264e_bs_init_bits@@YAXPEAUbs_t@@PEAX@Z|

; 2157 :     init_bits(bst, src + 1, nalu_bytes - 1);

	ldr         w8,[sp,#0x10]
	sub         w2,w8,#1
	ldr         x8,[sp,#0x38]
	add         x1,x8,#1
	mov         w2,w2
	add         x0,sp,#0xA0
	bl          |?init_bits@@YAXPEAUbit_reader_t@@PEBXI@Z|

; 2158 : 
; 2159 :     switch (payload_type)

	ldr         w8,[sp,#0x40]
	str         w8,[sp,#0x18]
	ldr         w8,[sp,#0x18]
	sub         w8,w8,#1
	str         w8,[sp,#0x18]
	ldr         w8,[sp,#0x18]
	cmp         w8,#7
	bhi         |$LN11@transcode_|
	ldr         w10,[sp,#0x18]
	adr         x9,__swt
	ldrsb       x8,[x9,w10 uxtw #0]
	add         x8,x9,x8,lsl #2
	br          x8
|$LN4@transcode_|

; 2160 :     {
; 2161 :     case 7:
; 2162 :     {
; 2163 :         int cb = change_sps_id(bst, bdt, 0, &old_id);

	add         x3,sp,#0x14
	mov         w2,#0
	add         x1,sp,#0x68
	add         x0,sp,#0xA0
	bl          |?change_sps_id@@YAHPEAUbit_reader_t@@PEAUbs_t@@HPEAH@Z|
	mov         w0,w0
	str         w0,[sp,#0x44]

; 2164 :         int id = find_mem_cache(h->sps_cache, h->sps_bytes, MINIMP4_MAX_SPS, dst + 1, cb);

	ldr         x8,[sp,#0x30]
	add         x3,x8,#1
	ldr         x8,[sp,#0x20]
	add         x1,x8,#0x900
	ldr         x0,[sp,#0x20]
	ldr         w4,[sp,#0x44]
	mov         w2,#0x20
	bl          |?find_mem_cache@@YAHQEAPEAXQEAHHPEAXH@Z|
	mov         w0,w0
	str         w0,[sp,#0x28]

; 2165 :         if (id == -1)

	ldr         w8,[sp,#0x28]
	cmn         w8,#1
	bne         |$LN5@transcode_|

; 2166 :             return 0;

	mov         w0,#0
	b           |$LN1@transcode_|
|$LN5@transcode_|

; 2167 :         h->map_sps[old_id] = id;

	ldr         x8,[sp,#0x20]
	add         x10,x8,#0xD80
	ldr         w8,[sp,#0x14]
	sxtw        x9,w8
	mov         x8,#4
	mul         x8,x9,x8
	add         x9,x10,x8
	ldr         w8,[sp,#0x28]
	str         w8,[x9]

; 2168 :         change_sps_id(bs, bd, id, &old_id);

	add         x3,sp,#0x14
	ldr         w2,[sp,#0x28]
	add         x1,sp,#0x50
	add         x0,sp,#0x80
	bl          |?change_sps_id@@YAHPEAUbit_reader_t@@PEAUbs_t@@HPEAH@Z|

; 2169 :     }
; 2170 :     break;

	b           |$LN2@transcode_|
|$LN6@transcode_|

; 2171 :     case 8:
; 2172 :     {
; 2173 :         int cb = patch_pps(h, bst, bdt, 0, &old_id);

	add         x4,sp,#0x14
	mov         w3,#0
	add         x2,sp,#0x68
	add         x1,sp,#0xA0
	ldr         x0,[sp,#0x20]
	bl          |?patch_pps@@YAHPEAUh264_sps_id_patcher_t@@PEAUbit_reader_t@@PEAUbs_t@@HPEAH@Z|
	mov         w0,w0
	str         w0,[sp,#0x48]

; 2174 :         int id = find_mem_cache(h->pps_cache, h->pps_bytes, MINIMP4_MAX_PPS, dst + 1, cb);

	ldr         x8,[sp,#0x30]
	add         x3,x8,#1
	ldr         x8,[sp,#0x20]
	add         x1,x8,#0x980
	ldr         x8,[sp,#0x20]
	add         x0,x8,#0x100
	ldr         w4,[sp,#0x48]
	mov         w2,#0x100
	bl          |?find_mem_cache@@YAHQEAPEAXQEAHHPEAXH@Z|
	mov         w0,w0
	str         w0,[sp,#0x2C]

; 2175 :         if (id == -1)

	ldr         w8,[sp,#0x2C]
	cmn         w8,#1
	bne         |$LN7@transcode_|

; 2176 :             return 0;

	mov         w0,#0
	b           |$LN1@transcode_|
|$LN7@transcode_|

; 2177 :         h->map_pps[old_id] = id;

	ldr         x8,[sp,#0x20]
	add         x10,x8,#0xE00
	ldr         w8,[sp,#0x14]
	sxtw        x9,w8
	mov         x8,#4
	mul         x8,x9,x8
	add         x9,x10,x8
	ldr         w8,[sp,#0x2C]
	str         w8,[x9]

; 2178 :         patch_pps(h, bs, bd, id, &old_id);

	add         x4,sp,#0x14
	ldr         w3,[sp,#0x2C]
	add         x2,sp,#0x50
	add         x1,sp,#0x80
	ldr         x0,[sp,#0x20]
	bl          |?patch_pps@@YAHPEAUh264_sps_id_patcher_t@@PEAUbit_reader_t@@PEAUbs_t@@HPEAH@Z|

; 2179 :     }
; 2180 :     break;

	b           |$LN2@transcode_|
|$LN8@transcode_|
|$LN9@transcode_|
|$LN10@transcode_|

; 2181 :     case 1:
; 2182 :     case 2:
; 2183 :     case 5:
; 2184 :         patch_slice_header(h, bs, bd);

	add         x2,sp,#0x50
	add         x1,sp,#0x80
	ldr         x0,[sp,#0x20]
	bl          |?patch_slice_header@@YAXPEAUh264_sps_id_patcher_t@@PEAUbit_reader_t@@PEAUbs_t@@@Z|

; 2185 :         break;

	b           |$LN2@transcode_|
|$LN11@transcode_|

; 2186 :     default:
; 2187 :         memcpy(dst, (void*)src, nalu_bytes);

	ldr         w8,[sp,#0x10]
	sxtw        x2,w8
	ldr         x1,[sp,#0x38]
	ldr         x0,[sp,#0x30]
	bl          memcpy

; 2188 :         return nalu_bytes;

	ldr         w0,[sp,#0x10]
	b           |$LN1@transcode_|
|$LN2@transcode_|

; 2189 :     }
; 2190 : 
; 2191 :     nalu_bytes = 1 + h264e_bs_byte_align(bd) / 8;

	add         x0,sp,#0x50
	bl          |?h264e_bs_byte_align@@YAIPEAUbs_t@@@Z|
	mov         w0,w0
	mov         w8,#8
	udiv        w8,w0,w8
	add         w8,w8,#1
	str         w8,[sp,#0x10]

; 2192 :     h264e_bs_flush(bd);

	add         x0,sp,#0x50
	bl          |?h264e_bs_flush@@YAXPEAUbs_t@@@Z|

; 2193 : 
; 2194 :     return nalu_bytes;

	ldr         w0,[sp,#0x10]
|$LN1@transcode_|
	ldp         fp,lr,[sp],#0xC0
	ret
|__swt|
|$LN14@transcode_|

; 2158 : 
; 2159 :     switch (payload_type)

	DCB         0xe8
|$LN15@transcode_|
	DCB         0xe8
|$LN16@transcode_|
	DCB         0xed
|$LN17@transcode_|
	DCB         0xed
|$LN18@transcode_|
	DCB         0xe8
|$LN19@transcode_|
	DCB         0xed
|$LN20@transcode_|
	DCB         0x9b
|$LN21@transcode_|
	DCB         0xc0

	ENDP  ; |?transcode_nalu@@YAHPEAUh264_sps_id_patcher_t@@PEBEHPEAE@Z|, transcode_nalu

; Function compile flags: /Odtp
; File C:\Users\paras\source\repos\grep-name\XenevaOS\Process\AudioPlayer\minimp4.h

	AREA	|.text$mn|, CODE, ARM64

|?patch_slice_header@@YAXPEAUh264_sps_id_patcher_t@@PEAUbit_reader_t@@PEAUbs_t@@@Z| PROC ; patch_slice_header

; 2127 : {

	stp         fp,lr,[sp,#-0x40]!
	mov         fp,sp
	str         x0,[sp,#0x30]
	str         x1,[sp,#0x28]
	str         x2,[sp,#0x20]

; 2128 :     unsigned first_mb_in_slice = ue_bits(bs);

	ldr         x0,[sp,#0x28]
	bl          |?ue_bits@@YAHPEAUbit_reader_t@@@Z|
	mov         w0,w0
	str         w0,[sp,#0x18]

; 2129 :     unsigned slice_type = ue_bits(bs);

	ldr         x0,[sp,#0x28]
	bl          |?ue_bits@@YAHPEAUbit_reader_t@@@Z|
	mov         w0,w0
	str         w0,[sp,#0x1C]

; 2130 :     unsigned pps_id = ue_bits(bs);

	ldr         x0,[sp,#0x28]
	bl          |?ue_bits@@YAHPEAUbit_reader_t@@@Z|
	mov         w0,w0
	str         w0,[sp,#0x10]

; 2131 : 
; 2132 :     pps_id = h->map_pps[pps_id];

	ldr         x8,[sp,#0x30]
	add         x10,x8,#0xE00
	ldr         w8,[sp,#0x10]
	uxtw        x9,w8
	mov         x8,#4
	mul         x8,x9,x8
	add         x8,x10,x8
	ldr         w8,[x8]
	str         w8,[sp,#0x10]

; 2133 : 
; 2134 :     assert(pps_id <= 255);

	ldr         w8,[sp,#0x10]
	cmp         w8,#0
	bne         |$LN4@patch_slic|
	mov         w8,#1
	str         w8,[sp,#0x14]
	b           |$LN5@patch_slic|
|$LN4@patch_slic|
	mov         w8,#0
	str         w8,[sp,#0x14]
|$LN5@patch_slic|
	ldr         w8,[sp,#0x14]
	cmp         w8,#0xFF
	bgt         |$LN2@patch_slic|
	bl          abort
|$LN2@patch_slic|

; 2135 : 
; 2136 :     h264e_bs_put_golomb(bd, first_mb_in_slice);

	ldr         w1,[sp,#0x18]
	ldr         x0,[sp,#0x20]
	bl          |?h264e_bs_put_golomb@@YAXPEAUbs_t@@I@Z|

; 2137 :     h264e_bs_put_golomb(bd, slice_type);

	ldr         w1,[sp,#0x1C]
	ldr         x0,[sp,#0x20]
	bl          |?h264e_bs_put_golomb@@YAXPEAUbs_t@@I@Z|

; 2138 :     h264e_bs_put_golomb(bd, pps_id);

	ldr         w1,[sp,#0x10]
	ldr         x0,[sp,#0x20]
	bl          |?h264e_bs_put_golomb@@YAXPEAUbs_t@@I@Z|

; 2139 :     copy_bits(bs, bd);

	ldr         x1,[sp,#0x20]
	ldr         x0,[sp,#0x28]
	bl          |?copy_bits@@YAXPEAUbit_reader_t@@PEAUbs_t@@@Z|
	ldp         fp,lr,[sp],#0x40
	ret

	ENDP  ; |?patch_slice_header@@YAXPEAUh264_sps_id_patcher_t@@PEAUbit_reader_t@@PEAUbs_t@@@Z|, patch_slice_header

; Function compile flags: /Odtp
; File C:\Users\paras\source\repos\grep-name\XenevaOS\Process\AudioPlayer\minimp4.h

	AREA	|.text$mn|, CODE, ARM64

|?patch_pps@@YAHPEAUh264_sps_id_patcher_t@@PEAUbit_reader_t@@PEAUbs_t@@HPEAH@Z| PROC ; patch_pps

; 2105 : {

	stp         fp,lr,[sp,#-0x50]!
	mov         fp,sp
	str         x0,[sp,#0x40]
	str         x1,[sp,#0x30]
	str         x2,[sp,#0x20]
	str         w3,[sp,#0x28]
	str         x4,[sp,#0x38]

; 2106 :     int bytes;
; 2107 :     unsigned pps_id = ue_bits(bs);  // max = 255

	ldr         x0,[sp,#0x30]
	bl          |?ue_bits@@YAHPEAUbit_reader_t@@@Z|
	mov         w0,w0
	str         w0,[sp,#0x10]

; 2108 :     unsigned sps_id = ue_bits(bs);  // max = 31

	ldr         x0,[sp,#0x30]
	bl          |?ue_bits@@YAHPEAUbit_reader_t@@@Z|
	mov         w0,w0
	str         w0,[sp,#0x14]

; 2109 : 
; 2110 :     *old_id = pps_id;

	ldr         x9,[sp,#0x38]
	ldr         w8,[sp,#0x10]
	str         w8,[x9]

; 2111 :     sps_id = h->map_sps[sps_id];

	ldr         x8,[sp,#0x40]
	add         x10,x8,#0xD80
	ldr         w8,[sp,#0x14]
	uxtw        x9,w8
	mov         x8,#4
	mul         x8,x9,x8
	add         x8,x10,x8
	ldr         w8,[x8]
	str         w8,[sp,#0x14]

; 2112 :     pps_id = new_pps_id;

	ldr         w8,[sp,#0x28]
	str         w8,[sp,#0x10]

; 2113 : 
; 2114 :     assert(sps_id <= 31);

	ldr         w8,[sp,#0x14]
	cmp         w8,#0
	bne         |$LN5@patch_pps|
	mov         w8,#1
	str         w8,[sp,#0x18]
	b           |$LN6@patch_pps|
|$LN5@patch_pps|
	mov         w8,#0
	str         w8,[sp,#0x18]
|$LN6@patch_pps|
	ldr         w8,[sp,#0x18]
	cmp         w8,#0x1F
	bgt         |$LN2@patch_pps|
	bl          abort
|$LN2@patch_pps|

; 2115 :     assert(pps_id <= 255);

	ldr         w8,[sp,#0x10]
	cmp         w8,#0
	bne         |$LN7@patch_pps|
	mov         w8,#1
	str         w8,[sp,#0x1C]
	b           |$LN8@patch_pps|
|$LN7@patch_pps|
	mov         w8,#0
	str         w8,[sp,#0x1C]
|$LN8@patch_pps|
	ldr         w8,[sp,#0x1C]
	cmp         w8,#0xFF
	bgt         |$LN3@patch_pps|
	bl          abort
|$LN3@patch_pps|

; 2116 : 
; 2117 :     h264e_bs_put_golomb(bd, pps_id);

	ldr         w1,[sp,#0x10]
	ldr         x0,[sp,#0x20]
	bl          |?h264e_bs_put_golomb@@YAXPEAUbs_t@@I@Z|

; 2118 :     h264e_bs_put_golomb(bd, sps_id);

	ldr         w1,[sp,#0x14]
	ldr         x0,[sp,#0x20]
	bl          |?h264e_bs_put_golomb@@YAXPEAUbs_t@@I@Z|

; 2119 :     copy_bits(bs, bd);

	ldr         x1,[sp,#0x20]
	ldr         x0,[sp,#0x30]
	bl          |?copy_bits@@YAXPEAUbit_reader_t@@PEAUbs_t@@@Z|

; 2120 : 
; 2121 :     bytes = h264e_bs_byte_align(bd) / 8;

	ldr         x0,[sp,#0x20]
	bl          |?h264e_bs_byte_align@@YAIPEAUbs_t@@@Z|
	mov         w0,w0
	mov         w8,#8
	udiv        w8,w0,w8
	str         w8,[sp,#0x2C]

; 2122 :     h264e_bs_flush(bd);

	ldr         x0,[sp,#0x20]
	bl          |?h264e_bs_flush@@YAXPEAUbs_t@@@Z|

; 2123 :     return bytes;

	ldr         w0,[sp,#0x2C]
	ldp         fp,lr,[sp],#0x50
	ret

	ENDP  ; |?patch_pps@@YAHPEAUh264_sps_id_patcher_t@@PEAUbit_reader_t@@PEAUbs_t@@HPEAH@Z|, patch_pps

; Function compile flags: /Odtp
; File C:\Users\paras\source\repos\grep-name\XenevaOS\Process\AudioPlayer\minimp4.h

	AREA	|.text$mn|, CODE, ARM64

|?change_sps_id@@YAHPEAUbit_reader_t@@PEAUbs_t@@HPEAH@Z| PROC ; change_sps_id

; 2083 : {

	stp         fp,lr,[sp,#-0x50]!
	mov         fp,sp
	str         x0,[sp,#0x38]
	str         x1,[sp,#0x20]
	str         w2,[sp,#0x2C]
	str         x3,[sp,#0x40]

; 2084 :     unsigned bits, sps_id, i, bytes;
; 2085 :     for (i = 0; i < 3; i++)

	mov         w8,#0
	str         w8,[sp,#0x14]
	b           |$LN4@change_sps|
|$LN2@change_sps|
	ldr         w8,[sp,#0x14]
	add         w8,w8,#1
	str         w8,[sp,#0x14]
|$LN4@change_sps|
	ldr         w8,[sp,#0x14]
	cmp         w8,#3
	bhs         |$LN3@change_sps|

; 2086 :     {
; 2087 :         bits = GetBits(8);

	mov         w1,#8
	ldr         x0,[sp,#0x38]
	bl          |?get_bits@@YAIPEAUbit_reader_t@@H@Z|
	mov         w0,w0
	str         w0,[sp,#0x28]

; 2088 :         h264e_bs_put_bits(bd, 8, bits);

	ldr         w2,[sp,#0x28]
	mov         w1,#8
	ldr         x0,[sp,#0x20]
	bl          |?h264e_bs_put_bits@@YAXPEAUbs_t@@II@Z|

; 2089 :     }

	b           |$LN2@change_sps|
|$LN3@change_sps|

; 2090 :     sps_id = ue_bits(bs);               // max = 31

	ldr         x0,[sp,#0x38]
	bl          |?ue_bits@@YAHPEAUbit_reader_t@@@Z|
	mov         w0,w0
	str         w0,[sp,#0x10]

; 2091 : 
; 2092 :     *old_id = sps_id;

	ldr         x9,[sp,#0x40]
	ldr         w8,[sp,#0x10]
	str         w8,[x9]

; 2093 :     sps_id = new_id;

	ldr         w8,[sp,#0x2C]
	str         w8,[sp,#0x10]

; 2094 :     assert(sps_id <= 31);

	ldr         w8,[sp,#0x10]
	cmp         w8,#0
	bne         |$LN7@change_sps|
	mov         w8,#1
	str         w8,[sp,#0x18]
	b           |$LN8@change_sps|
|$LN7@change_sps|
	mov         w8,#0
	str         w8,[sp,#0x18]
|$LN8@change_sps|
	ldr         w8,[sp,#0x18]
	cmp         w8,#0x1F
	bgt         |$LN5@change_sps|
	bl          abort
|$LN5@change_sps|

; 2095 : 
; 2096 :     h264e_bs_put_golomb(bd, sps_id);

	ldr         w1,[sp,#0x10]
	ldr         x0,[sp,#0x20]
	bl          |?h264e_bs_put_golomb@@YAXPEAUbs_t@@I@Z|

; 2097 :     copy_bits(bs, bd);

	ldr         x1,[sp,#0x20]
	ldr         x0,[sp,#0x38]
	bl          |?copy_bits@@YAXPEAUbit_reader_t@@PEAUbs_t@@@Z|

; 2098 : 
; 2099 :     bytes = h264e_bs_byte_align(bd) / 8;

	ldr         x0,[sp,#0x20]
	bl          |?h264e_bs_byte_align@@YAIPEAUbs_t@@@Z|
	mov         w0,w0
	mov         w8,#8
	udiv        w8,w0,w8
	str         w8,[sp,#0x30]

; 2100 :     h264e_bs_flush(bd);

	ldr         x0,[sp,#0x20]
	bl          |?h264e_bs_flush@@YAXPEAUbs_t@@@Z|

; 2101 :     return bytes;

	ldr         w0,[sp,#0x30]
	ldp         fp,lr,[sp],#0x50
	ret

	ENDP  ; |?change_sps_id@@YAHPEAUbit_reader_t@@PEAUbs_t@@HPEAH@Z|, change_sps_id

; Function compile flags: /Odtp
; File C:\Users\paras\source\repos\grep-name\XenevaOS\Process\AudioPlayer\minimp4.h

	AREA	|.text$mn|, CODE, ARM64

|?copy_bits@@YAXPEAUbit_reader_t@@PEAUbs_t@@@Z| PROC	; copy_bits

; 2059 : {

	stp         fp,lr,[sp,#-0x30]!
	mov         fp,sp
	str         x0,[sp,#0x20]
	str         x1,[sp,#0x28]

; 2060 :     unsigned cb, bits;
; 2061 :     int bit_count = remaining_bits(bs);

	ldr         x0,[sp,#0x20]
	bl          |?remaining_bits@@YAHPEBUbit_reader_t@@@Z|
	mov         w0,w0
	str         w0,[sp,#0x10]
|$LN2@copy_bits|

; 2062 :     while (bit_count > 7)

	ldr         w8,[sp,#0x10]
	cmp         w8,#7
	ble         |$LN3@copy_bits|

; 2063 :     {
; 2064 :         cb = MINIMP4_MIN(bit_count - 7, 8);

	ldr         w8,[sp,#0x10]
	sub         w8,w8,#7
	cmp         w8,#8
	bge         |$LN9@copy_bits|
	ldr         w8,[sp,#0x10]
	sub         w8,w8,#7
	str         w8,[sp,#0x1C]
	b           |$LN10@copy_bits|
|$LN9@copy_bits|
	mov         w8,#8
	str         w8,[sp,#0x1C]
|$LN10@copy_bits|
	ldr         w8,[sp,#0x1C]
	str         w8,[sp,#0x18]

; 2065 :         bits = GetBits(cb);

	ldr         w1,[sp,#0x18]
	ldr         x0,[sp,#0x20]
	bl          |?get_bits@@YAIPEAUbit_reader_t@@H@Z|
	mov         w0,w0
	str         w0,[sp,#0x14]

; 2066 :         h264e_bs_put_bits(bd, cb, bits);

	ldr         w2,[sp,#0x14]
	ldr         w1,[sp,#0x18]
	ldr         x0,[sp,#0x28]
	bl          |?h264e_bs_put_bits@@YAXPEAUbs_t@@II@Z|

; 2067 :         bit_count -= cb;

	ldr         w9,[sp,#0x10]
	ldr         w8,[sp,#0x18]
	sub         w8,w9,w8
	str         w8,[sp,#0x10]

; 2068 :     }

	b           |$LN2@copy_bits|
|$LN3@copy_bits|

; 2069 : 
; 2070 :     // cut extra zeros after stop-bit
; 2071 :     bits = GetBits(bit_count);

	ldr         w1,[sp,#0x10]
	ldr         x0,[sp,#0x20]
	bl          |?get_bits@@YAIPEAUbit_reader_t@@H@Z|
	mov         w0,w0
	str         w0,[sp,#0x14]

; 2072 :     for (; bit_count && ~bits & 1; bit_count--)

	b           |$LN6@copy_bits|
|$LN4@copy_bits|
	ldr         w8,[sp,#0x10]
	sub         w8,w8,#1
	str         w8,[sp,#0x10]
|$LN6@copy_bits|
	ldr         w8,[sp,#0x10]
	cmp         w8,#0
	beq         |$LN5@copy_bits|
	ldr         w8,[sp,#0x14]
	tbnz        x8,#0,|$LN5@copy_bits|

; 2073 :     {
; 2074 :         bits >>= 1;

	ldr         w8,[sp,#0x14]
	lsr         w8,w8,#1
	str         w8,[sp,#0x14]

; 2075 :     }

	b           |$LN4@copy_bits|
|$LN5@copy_bits|

; 2076 :     if (bit_count)

	ldr         w8,[sp,#0x10]
	cmp         w8,#0
	beq         |$LN7@copy_bits|

; 2077 :     {
; 2078 :         h264e_bs_put_bits(bd, bit_count, bits);

	ldr         w2,[sp,#0x14]
	ldr         w1,[sp,#0x10]
	ldr         x0,[sp,#0x28]
	bl          |?h264e_bs_put_bits@@YAXPEAUbs_t@@II@Z|
|$LN7@copy_bits|
	ldp         fp,lr,[sp],#0x30
	ret

	ENDP  ; |?copy_bits@@YAXPEAUbit_reader_t@@PEAUbs_t@@@Z|, copy_bits

; Function compile flags: /Odtp
; File C:\Users\paras\source\repos\grep-name\XenevaOS\Process\AudioPlayer\minimp4.h

	AREA	|.text$mn|, CODE, ARM64

|?nal_put_esc@@YAHPEAEPEBEH@Z| PROC			; nal_put_esc

; 2038 : {

	sub         sp,sp,#0x30
	str         x0,[sp,#0x18]
	str         x1,[sp,#0x20]
	str         w2,[sp,#0x10]

; 2039 :     int i, j = 4, cntz = 0;

	mov         w8,#4
	str         w8,[sp,#4]
	mov         w8,#0
	str         w8,[sp,#8]

; 2040 :     d[0] = d[1] = d[2] = 0; d[3] = 1; // start code

	ldr         x8,[sp,#0x18]
	add         x9,x8,#2
	mov         w8,#0
	strb        w8,[x9]
	ldr         x8,[sp,#0x18]
	add         x9,x8,#1
	mov         w8,#0
	strb        w8,[x9]
	ldr         x9,[sp,#0x18]
	mov         w8,#0
	strb        w8,[x9]
	ldr         x8,[sp,#0x18]
	add         x9,x8,#3
	mov         w8,#1
	strb        w8,[x9]

; 2041 :     for (i = 0; i < n; i++)

	mov         w8,#0
	str         w8,[sp,#0xC]
	b           |$LN4@nal_put_es|
|$LN2@nal_put_es|
	ldr         w8,[sp,#0xC]
	add         w8,w8,#1
	str         w8,[sp,#0xC]
|$LN4@nal_put_es|
	ldr         w9,[sp,#0x10]
	ldr         w8,[sp,#0xC]
	cmp         w8,w9
	bge         |$LN3@nal_put_es|

; 2042 :     {
; 2043 :         uint8_t byte = *s++;

	ldr         x8,[sp,#0x20]
	ldrb        w8,[x8]
	strb        w8,[sp]
	ldr         x8,[sp,#0x20]
	add         x8,x8,#1
	str         x8,[sp,#0x20]

; 2044 :         if (cntz == 2 && byte <= 3)

	ldr         w8,[sp,#8]
	cmp         w8,#2
	bne         |$LN5@nal_put_es|
	ldrb        w8,[sp]
	mov         w8,w8
	cmp         w8,#3
	bgt         |$LN5@nal_put_es|

; 2045 :         {
; 2046 :             d[j++] = 3;

	ldr         w8,[sp,#4]
	sxtw        x9,w8
	mov         x8,#1
	mul         x9,x9,x8
	ldr         x8,[sp,#0x18]
	add         x9,x8,x9
	mov         w8,#3
	strb        w8,[x9]
	ldr         w8,[sp,#4]
	add         w8,w8,#1
	str         w8,[sp,#4]

; 2047 :             cntz = 0;

	mov         w8,#0
	str         w8,[sp,#8]
|$LN5@nal_put_es|

; 2048 :         }
; 2049 :         if (byte)

	ldrb        w8,[sp]
	mov         w8,w8
	cmp         w8,#0
	beq         |$LN6@nal_put_es|

; 2050 :             cntz = 0;

	mov         w8,#0
	str         w8,[sp,#8]
	b           |$LN7@nal_put_es|
|$LN6@nal_put_es|

; 2051 :         else
; 2052 :             cntz++;

	ldr         w8,[sp,#8]
	add         w8,w8,#1
	str         w8,[sp,#8]
|$LN7@nal_put_es|

; 2053 :         d[j++] = byte;

	ldr         w8,[sp,#4]
	sxtw        x9,w8
	mov         x8,#1
	mul         x9,x9,x8
	ldr         x8,[sp,#0x18]
	add         x9,x8,x9
	ldrb        w8,[sp]
	strb        w8,[x9]
	ldr         w8,[sp,#4]
	add         w8,w8,#1
	str         w8,[sp,#4]

; 2054 :     }

	b           |$LN2@nal_put_es|
|$LN3@nal_put_es|

; 2055 :     return j;

	ldr         w0,[sp,#4]
	add         sp,sp,#0x30
	ret

	ENDP  ; |?nal_put_esc@@YAHPEAEPEBEH@Z|, nal_put_esc

; Function compile flags: /Odtp
; File C:\Users\paras\source\repos\grep-name\XenevaOS\Process\AudioPlayer\minimp4.h

	AREA	|.text$mn|, CODE, ARM64

|?remove_nal_escapes@@YAHPEAEPEBEH@Z| PROC		; remove_nal_escapes

; 1998 : {

	sub         sp,sp,#0x20
	str         x0,[sp,#0x18]
	str         x1,[sp,#0x10]
	str         w2,[sp,#0xC]

; 1999 :     int i = 0, j = 0, zero_cnt = 0;

	mov         w8,#0
	str         w8,[sp,#8]
	mov         w8,#0
	str         w8,[sp]
	mov         w8,#0
	str         w8,[sp,#4]

; 2000 :     for (j = 0; j < h264_data_bytes; j++)

	mov         w8,#0
	str         w8,[sp]
	b           |$LN4@remove_nal|
|$LN2@remove_nal|
	ldr         w8,[sp]
	add         w8,w8,#1
	str         w8,[sp]
|$LN4@remove_nal|
	ldr         w9,[sp,#0xC]
	ldr         w8,[sp]
	cmp         w8,w9
	bge         |$LN3@remove_nal|

; 2001 :     {
; 2002 :         if (zero_cnt == 2 && src[j] <= 3)

	ldr         w8,[sp,#4]
	cmp         w8,#2
	bne         |$LN5@remove_nal|
	ldr         w8,[sp]
	sxtw        x9,w8
	mov         x8,#1
	mul         x9,x9,x8
	ldr         x8,[sp,#0x10]
	add         x8,x8,x9
	ldrb        w8,[x8]
	mov         w8,w8
	cmp         w8,#3
	bgt         |$LN5@remove_nal|

; 2003 :         {
; 2004 :             if (src[j] == 3)

	ldr         w8,[sp]
	sxtw        x9,w8
	mov         x8,#1
	mul         x9,x9,x8
	ldr         x8,[sp,#0x10]
	add         x8,x8,x9
	ldrb        w8,[x8]
	mov         w8,w8
	cmp         w8,#3
	bne         |$LN6@remove_nal|

; 2005 :             {
; 2006 :                 if (j == h264_data_bytes - 1)

	ldr         w8,[sp,#0xC]
	sub         w9,w8,#1
	ldr         w8,[sp]
	cmp         w8,w9
	bne         |$LN8@remove_nal|

; 2007 :                 {
; 2008 :                     // cabac_zero_word: no action
; 2009 :                 }

	b           |$LN9@remove_nal|
|$LN8@remove_nal|

; 2010 :                 else if (src[j + 1] <= 3)

	ldr         w8,[sp]
	add         w8,w8,#1
	sxtw        x9,w8
	mov         x8,#1
	mul         x9,x9,x8
	ldr         x8,[sp,#0x10]
	add         x8,x8,x9
	ldrb        w8,[x8]
	mov         w8,w8
	cmp         w8,#3
	bgt         |$LN10@remove_nal|

; 2011 :                 {
; 2012 :                     j++;

	ldr         w8,[sp]
	add         w8,w8,#1
	str         w8,[sp]

; 2013 :                     zero_cnt = 0;

	mov         w8,#0
	str         w8,[sp,#4]
|$LN10@remove_nal|
|$LN9@remove_nal|

; 2014 :                 }
; 2015 :                 else
; 2016 :                 {
; 2017 :                     // TODO: assume end-of-nal
; 2018 :                     //return 0;
; 2019 :                 }
; 2020 :             }

	b           |$LN7@remove_nal|
|$LN6@remove_nal|

; 2021 :             else
; 2022 :                 return 0;

	mov         w0,#0
	b           |$LN1@remove_nal|
|$LN7@remove_nal|
|$LN5@remove_nal|

; 2023 :         }
; 2024 :         dst[i++] = src[j];

	ldr         w8,[sp]
	sxtw        x9,w8
	mov         x8,#1
	mul         x9,x9,x8
	ldr         x8,[sp,#0x10]
	add         x10,x8,x9
	ldr         w8,[sp,#8]
	sxtw        x9,w8
	mov         x8,#1
	mul         x9,x9,x8
	ldr         x8,[sp,#0x18]
	add         x9,x8,x9
	ldrb        w8,[x10]
	strb        w8,[x9]
	ldr         w8,[sp,#8]
	add         w8,w8,#1
	str         w8,[sp,#8]

; 2025 :         if (src[j])

	ldr         w8,[sp]
	sxtw        x9,w8
	mov         x8,#1
	mul         x9,x9,x8
	ldr         x8,[sp,#0x10]
	add         x8,x8,x9
	ldrb        w8,[x8]
	mov         w8,w8
	cmp         w8,#0
	beq         |$LN12@remove_nal|

; 2026 :             zero_cnt = 0;

	mov         w8,#0
	str         w8,[sp,#4]
	b           |$LN13@remove_nal|
|$LN12@remove_nal|

; 2027 :         else
; 2028 :             zero_cnt++;

	ldr         w8,[sp,#4]
	add         w8,w8,#1
	str         w8,[sp,#4]
|$LN13@remove_nal|

; 2029 :     }

	b           |$LN2@remove_nal|
|$LN3@remove_nal|

; 2030 :     //while (--j > i) src[j] = 0;
; 2031 :     return i;

	ldr         w0,[sp,#8]
|$LN1@remove_nal|
	add         sp,sp,#0x20
	ret

	ENDP  ; |?remove_nal_escapes@@YAHPEAEPEBEH@Z|, remove_nal_escapes

; Function compile flags: /Odtp
; File C:\Users\paras\source\repos\grep-name\XenevaOS\Process\AudioPlayer\minimp4.h

	AREA	|.text$mn|, CODE, ARM64

|?find_mem_cache@@YAHQEAPEAXQEAHHPEAXH@Z| PROC		; find_mem_cache

; 1969 : {

	stp         fp,lr,[sp,#-0x40]!
	mov         fp,sp
	str         x0,[sp,#0x20]
	str         x1,[sp,#0x28]
	str         w2,[sp,#0x18]
	str         x3,[sp,#0x30]
	str         w4,[sp,#0x14]

; 1970 :     int i;
; 1971 :     if (!bytes)

	ldr         w8,[sp,#0x14]
	cmp         w8,#0
	bne         |$LN8@find_mem_c|

; 1972 :         return -1;

	mov         w0,#-1
	b           |$LN1@find_mem_c|
|$LN8@find_mem_c|

; 1973 :     for (i = 0; i < cache_size; i++)

	mov         w8,#0
	str         w8,[sp,#0x10]
	b           |$LN4@find_mem_c|
|$LN2@find_mem_c|
	ldr         w8,[sp,#0x10]
	add         w8,w8,#1
	str         w8,[sp,#0x10]
|$LN4@find_mem_c|
	ldr         w9,[sp,#0x18]
	ldr         w8,[sp,#0x10]
	cmp         w8,w9
	bge         |$LN3@find_mem_c|

; 1974 :     {
; 1975 :         if (cache_bytes[i] == bytes && !memcmp(mem, cache[i], bytes))

	ldr         w8,[sp,#0x10]
	sxtw        x9,w8
	mov         x8,#4
	mul         x9,x9,x8
	ldr         x8,[sp,#0x28]
	add         x8,x8,x9
	ldr         w9,[sp,#0x14]
	ldr         w8,[x8]
	cmp         w8,w9
	bne         |$LN9@find_mem_c|
	ldr         w8,[sp,#0x14]
	sxtw        x2,w8
	ldr         w8,[sp,#0x10]
	sxtw        x9,w8
	mov         x8,#8
	mul         x9,x9,x8
	ldr         x8,[sp,#0x20]
	add         x8,x8,x9
	ldr         x1,[x8]
	ldr         x0,[sp,#0x30]
	bl          memcmp
	mov         w0,w0
	cmp         w0,#0
	bne         |$LN9@find_mem_c|

; 1976 :             return i;   // found

	ldr         w0,[sp,#0x10]
	b           |$LN1@find_mem_c|
|$LN9@find_mem_c|

; 1977 :     }

	b           |$LN2@find_mem_c|
|$LN3@find_mem_c|

; 1978 :     for (i = 0; i < cache_size; i++)

	mov         w8,#0
	str         w8,[sp,#0x10]
	b           |$LN7@find_mem_c|
|$LN5@find_mem_c|
	ldr         w8,[sp,#0x10]
	add         w8,w8,#1
	str         w8,[sp,#0x10]
|$LN7@find_mem_c|
	ldr         w9,[sp,#0x18]
	ldr         w8,[sp,#0x10]
	cmp         w8,w9
	bge         |$LN6@find_mem_c|

; 1979 :     {
; 1980 :         if (!cache_bytes[i])

	ldr         w8,[sp,#0x10]
	sxtw        x9,w8
	mov         x8,#4
	mul         x9,x9,x8
	ldr         x8,[sp,#0x28]
	add         x8,x8,x9
	ldr         w8,[x8]
	cmp         w8,#0
	bne         |$LN10@find_mem_c|

; 1981 :         {
; 1982 :             cache[i] = malloc(bytes);

	ldr         w0,[sp,#0x14]
	bl          malloc
	ldr         w8,[sp,#0x10]
	sxtw        x9,w8
	mov         x8,#8
	mul         x9,x9,x8
	ldr         x8,[sp,#0x20]
	add         x8,x8,x9
	str         x0,[x8]

; 1983 :             if (cache[i])

	ldr         w8,[sp,#0x10]
	sxtw        x9,w8
	mov         x8,#8
	mul         x9,x9,x8
	ldr         x8,[sp,#0x20]
	add         x8,x8,x9
	ldr         x8,[x8]
	cmp         x8,#0
	beq         |$LN11@find_mem_c|

; 1984 :             {
; 1985 :                 memcpy(cache[i], mem, bytes);

	ldr         w8,[sp,#0x14]
	sxtw        x2,w8
	ldr         w8,[sp,#0x10]
	sxtw        x9,w8
	mov         x8,#8
	mul         x9,x9,x8
	ldr         x8,[sp,#0x20]
	add         x8,x8,x9
	ldr         x1,[sp,#0x30]
	ldr         x0,[x8]
	bl          memcpy

; 1986 :                 cache_bytes[i] = bytes;

	ldr         w8,[sp,#0x10]
	sxtw        x9,w8
	mov         x8,#4
	mul         x9,x9,x8
	ldr         x8,[sp,#0x28]
	add         x9,x8,x9
	ldr         w8,[sp,#0x14]
	str         w8,[x9]
|$LN11@find_mem_c|

; 1987 :             }
; 1988 :             return i;   // put in

	ldr         w0,[sp,#0x10]
	b           |$LN1@find_mem_c|
|$LN10@find_mem_c|

; 1989 :         }
; 1990 :     }

	b           |$LN5@find_mem_c|
|$LN6@find_mem_c|

; 1991 :     return -1;  // no room

	mov         w0,#-1
|$LN1@find_mem_c|
	ldp         fp,lr,[sp],#0x40
	ret

	ENDP  ; |?find_mem_cache@@YAHQEAPEAXQEAHHPEAXH@Z|, find_mem_cache

; Function compile flags: /Odtp
; File C:\Users\paras\source\repos\grep-name\XenevaOS\Process\AudioPlayer\minimp4.h

	AREA	|.text$mn|, CODE, ARM64

|?h264e_bs_init_bits@@YAXPEAUbs_t@@PEAX@Z| PROC		; h264e_bs_init_bits

; 1961 : {

	sub         sp,sp,#0x10
	str         x0,[sp]
	str         x1,[sp,#8]

; 1962 :     bs->origin = (bs_item_t*)data;

	ldr         x8,[sp]
	add         x9,x8,#0x10
	ldr         x8,[sp,#8]
	str         x8,[x9]

; 1963 :     bs->buf = bs->origin;

	ldr         x8,[sp]
	add         x10,x8,#0x10
	ldr         x8,[sp]
	add         x9,x8,#8
	ldr         x8,[x10]
	str         x8,[x9]

; 1964 :     bs->shift = BS_BITS;

	ldr         x9,[sp]
	mov         w8,#0x20
	str         w8,[x9]

; 1965 :     bs->cache = 0;

	ldr         x8,[sp]
	add         x9,x8,#4
	mov         w8,#0
	str         w8,[x9]
	add         sp,sp,#0x10
	ret

	ENDP  ; |?h264e_bs_init_bits@@YAXPEAUbs_t@@PEAX@Z|, h264e_bs_init_bits

; Function compile flags: /Odtp
; File C:\Users\paras\source\repos\grep-name\XenevaOS\Process\AudioPlayer\minimp4.h

	AREA	|.text$mn|, CODE, ARM64

|?h264e_bs_put_golomb@@YAXPEAUbs_t@@I@Z| PROC		; h264e_bs_put_golomb

; 1949 : {

	stp         fp,lr,[sp,#-0x30]!
	mov         fp,sp
	str         x0,[sp,#0x20]
	str         w1,[sp,#0x18]

; 1950 :     int size = 0;

	mov         w8,#0
	str         w8,[sp,#0x14]

; 1951 :     unsigned t = val + 1;

	ldr         w8,[sp,#0x18]
	add         w8,w8,#1
	str         w8,[sp,#0x10]
|$LN4@h264e_bs_p|

; 1952 :     do
; 1953 :     {
; 1954 :         size++;

	ldr         w8,[sp,#0x14]
	add         w8,w8,#1
	str         w8,[sp,#0x14]

; 1955 :     } while (t >>= 1);

	ldr         w8,[sp,#0x10]
	lsr         w8,w8,#1
	str         w8,[sp,#0x10]
	ldr         w8,[sp,#0x10]
	cmp         w8,#0
	bne         |$LN4@h264e_bs_p|

; 1956 : 
; 1957 :     h264e_bs_put_bits(bs, 2 * size - 1, val + 1);

	ldr         w8,[sp,#0x18]
	add         w2,w8,#1
	ldr         w9,[sp,#0x14]
	mov         w8,#2
	mul         w8,w9,w8
	sub         w1,w8,#1
	mov         w2,w2
	mov         w1,w1
	ldr         x0,[sp,#0x20]
	bl          |?h264e_bs_put_bits@@YAXPEAUbs_t@@II@Z|
	ldp         fp,lr,[sp],#0x30
	ret

	ENDP  ; |?h264e_bs_put_golomb@@YAXPEAUbs_t@@I@Z|, h264e_bs_put_golomb

; Function compile flags: /Odtp
; File C:\Users\paras\source\repos\grep-name\XenevaOS\Process\AudioPlayer\minimp4.h

	AREA	|.text$mn|, CODE, ARM64

|?h264e_bs_byte_align@@YAIPEAUbs_t@@@Z| PROC		; h264e_bs_byte_align

; 1928 : {

	stp         fp,lr,[sp,#-0x20]!
	mov         fp,sp
	str         x0,[sp,#0x18]

; 1929 :     int pos = h264e_bs_get_pos_bits(bs);

	ldr         x0,[sp,#0x18]
	bl          |?h264e_bs_get_pos_bits@@YAIPEBUbs_t@@@Z|
	mov         w0,w0
	str         w0,[sp,#0x10]

; 1930 :     h264e_bs_put_bits(bs, -pos & 7, 0);

	ldr         w8,[sp,#0x10]
	neg         w8,w8
	and         w1,w8,#7
	mov         w2,#0
	mov         w1,w1
	ldr         x0,[sp,#0x18]
	bl          |?h264e_bs_put_bits@@YAXPEAUbs_t@@II@Z|

; 1931 :     return pos + (-pos & 7);

	ldr         w8,[sp,#0x10]
	neg         w8,w8
	and         w9,w8,#7
	ldr         w8,[sp,#0x10]
	add         w0,w8,w9
	mov         w0,w0
	ldp         fp,lr,[sp],#0x20
	ret

	ENDP  ; |?h264e_bs_byte_align@@YAIPEAUbs_t@@@Z|, h264e_bs_byte_align

; Function compile flags: /Odtp
; File C:\Users\paras\source\repos\grep-name\XenevaOS\Process\AudioPlayer\minimp4.h

	AREA	|.text$mn|, CODE, ARM64

|?h264e_bs_get_pos_bits@@YAIPEBUbs_t@@@Z| PROC		; h264e_bs_get_pos_bits

; 1920 : {

	stp         fp,lr,[sp,#-0x20]!
	mov         fp,sp
	str         x0,[sp,#0x18]

; 1921 :     unsigned pos_bits = (unsigned)((bs->buf - bs->origin) * BS_BITS);

	ldr         x8,[sp,#0x18]
	add         x9,x8,#8
	ldr         x8,[sp,#0x18]
	add         x8,x8,#0x10
	ldr         x9,[x9]
	ldr         x8,[x8]
	sub         x8,x9,x8
	asr         x9,x8,#2
	mov         x8,#0x20
	mul         x8,x9,x8
	mov         w8,w8
	str         w8,[sp,#0x10]

; 1922 :     pos_bits += BS_BITS - bs->shift;

	ldr         x8,[sp,#0x18]
	mov         w9,#0x20
	ldr         w8,[x8]
	sub         w9,w9,w8
	ldr         w8,[sp,#0x10]
	add         w8,w8,w9
	str         w8,[sp,#0x10]

; 1923 :     assert((int)pos_bits >= 0);

	ldr         w8,[sp,#0x10]
	cmp         w8,#0
	bne         |$LN4@h264e_bs_g|
	mov         w8,#1
	str         w8,[sp,#0x14]
	b           |$LN5@h264e_bs_g|
|$LN4@h264e_bs_g|
	mov         w8,#0
	str         w8,[sp,#0x14]
|$LN5@h264e_bs_g|
	ldr         w8,[sp,#0x14]
	cmp         w8,#0
	blt         |$LN2@h264e_bs_g|
	bl          abort
|$LN2@h264e_bs_g|

; 1924 :     return pos_bits;

	ldr         w0,[sp,#0x10]
	ldp         fp,lr,[sp],#0x20
	ret

	ENDP  ; |?h264e_bs_get_pos_bits@@YAIPEBUbs_t@@@Z|, h264e_bs_get_pos_bits

; Function compile flags: /Odtp
; File C:\Users\paras\source\repos\grep-name\XenevaOS\Process\AudioPlayer\minimp4.h

	AREA	|.text$mn|, CODE, ARM64

|?h264e_bs_flush@@YAXPEAUbs_t@@@Z| PROC			; h264e_bs_flush

; 1915 : {

	sub         sp,sp,#0x10
	str         x0,[sp]

; 1916 :     *bs->buf = SWAP32(bs->cache);

	ldr         x8,[sp]
	add         x8,x8,#4
	ldr         w8,[x8]
	lsr         w9,w8,#0x18
	ldr         x8,[sp]
	add         x8,x8,#4
	ldr         w8,[x8]
	lsr         w8,w8,#8
	and         w8,w8,#0xFF00
	orr         w9,w9,w8
	ldr         x8,[sp]
	add         x8,x8,#4
	ldr         w8,[x8]
	lsl         w8,w8,#8
	and         w8,w8,#0xFF0000
	orr         w9,w9,w8
	ldr         x8,[sp]
	add         x8,x8,#4
	ldr         w8,[x8]
	and         w8,w8,#0xFF
	lsl         w8,w8,#0x18
	orr         w9,w9,w8
	ldr         x8,[sp]
	add         x8,x8,#8
	ldr         x8,[x8]
	str         w9,[x8]
	add         sp,sp,#0x10
	ret

	ENDP  ; |?h264e_bs_flush@@YAXPEAUbs_t@@@Z|, h264e_bs_flush

; Function compile flags: /Odtp
; File C:\Users\paras\source\repos\grep-name\XenevaOS\Process\AudioPlayer\minimp4.h

	AREA	|.text$mn|, CODE, ARM64

|?h264e_bs_put_bits@@YAXPEAUbs_t@@II@Z| PROC		; h264e_bs_put_bits

; 1899 : {

	stp         fp,lr,[sp,#-0x30]!
	mov         fp,sp
	str         x0,[sp,#0x20]
	str         w1,[sp,#0x10]
	str         w2,[sp,#0x14]

; 1900 :     assert(!(val >> n));

	ldr         w9,[sp,#0x14]
	ldr         w8,[sp,#0x10]
	lsr         w8,w9,w8
	cmp         w8,#0
	beq         |$LN2@h264e_bs_p|
	bl          abort
|$LN2@h264e_bs_p|

; 1901 :     bs->shift -= n;

	ldr         x8,[sp,#0x20]
	ldr         w9,[x8]
	ldr         w8,[sp,#0x10]
	sub         w9,w9,w8
	ldr         x8,[sp,#0x20]
	str         w9,[x8]

; 1902 :     assert((unsigned)n <= 32);

	ldr         w8,[sp,#0x10]
	cmp         w8,#0
	bne         |$LN7@h264e_bs_p|
	mov         w8,#1
	str         w8,[sp,#0x18]
	b           |$LN8@h264e_bs_p|
|$LN7@h264e_bs_p|
	mov         w8,#0
	str         w8,[sp,#0x18]
|$LN8@h264e_bs_p|
	ldr         w8,[sp,#0x18]
	cmp         w8,#0x20
	bgt         |$LN3@h264e_bs_p|
	bl          abort
|$LN3@h264e_bs_p|

; 1903 :     if (bs->shift < 0)

	ldr         x8,[sp,#0x20]
	ldr         w8,[x8]
	cmp         w8,#0
	bge         |$LN4@h264e_bs_p|

; 1904 :     {
; 1905 :         assert(-bs->shift < 32);

	ldr         x8,[sp,#0x20]
	ldr         w8,[x8]
	neg         w8,w8
	cmp         w8,#0
	bne         |$LN9@h264e_bs_p|
	mov         w8,#1
	str         w8,[sp,#0x1C]
	b           |$LN10@h264e_bs_p|
|$LN9@h264e_bs_p|
	mov         w8,#0
	str         w8,[sp,#0x1C]
|$LN10@h264e_bs_p|
	ldr         w8,[sp,#0x1C]
	cmp         w8,#0x20
	bge         |$LN5@h264e_bs_p|
	bl          abort
|$LN5@h264e_bs_p|

; 1906 :         bs->cache |= val >> -bs->shift;

	ldr         x8,[sp,#0x20]
	add         x10,x8,#4
	ldr         x8,[sp,#0x20]
	ldr         w8,[x8]
	neg         w9,w8
	ldr         w8,[sp,#0x14]
	lsr         w9,w8,w9
	ldr         w8,[x10]
	orr         w9,w8,w9
	ldr         x8,[sp,#0x20]
	add         x8,x8,#4
	str         w9,[x8]

; 1907 :         *bs->buf++ = SWAP32(bs->cache);

	ldr         x8,[sp,#0x20]
	add         x8,x8,#4
	ldr         w8,[x8]
	lsr         w9,w8,#0x18
	ldr         x8,[sp,#0x20]
	add         x8,x8,#4
	ldr         w8,[x8]
	lsr         w8,w8,#8
	and         w8,w8,#0xFF00
	orr         w9,w9,w8
	ldr         x8,[sp,#0x20]
	add         x8,x8,#4
	ldr         w8,[x8]
	lsl         w8,w8,#8
	and         w8,w8,#0xFF0000
	orr         w9,w9,w8
	ldr         x8,[sp,#0x20]
	add         x8,x8,#4
	ldr         w8,[x8]
	and         w8,w8,#0xFF
	lsl         w8,w8,#0x18
	orr         w9,w9,w8
	ldr         x8,[sp,#0x20]
	add         x8,x8,#8
	ldr         x8,[x8]
	str         w9,[x8]
	ldr         x8,[sp,#0x20]
	add         x8,x8,#8
	ldr         x8,[x8]
	add         x9,x8,#4
	ldr         x8,[sp,#0x20]
	add         x8,x8,#8
	str         x9,[x8]

; 1908 :         bs->shift = 32 + bs->shift;

	ldr         x8,[sp,#0x20]
	ldr         w8,[x8]
	add         w9,w8,#0x20
	ldr         x8,[sp,#0x20]
	str         w9,[x8]

; 1909 :         bs->cache = 0;

	ldr         x8,[sp,#0x20]
	add         x9,x8,#4
	mov         w8,#0
	str         w8,[x9]
|$LN4@h264e_bs_p|

; 1910 :     }
; 1911 :     bs->cache |= val << bs->shift;

	ldr         x8,[sp,#0x20]
	add         x10,x8,#4
	ldr         x8,[sp,#0x20]
	ldr         w9,[sp,#0x14]
	ldr         w8,[x8]
	lsl         w9,w9,w8
	ldr         w8,[x10]
	orr         w9,w8,w9
	ldr         x8,[sp,#0x20]
	add         x8,x8,#4
	str         w9,[x8]
	ldp         fp,lr,[sp],#0x30
	ret

	ENDP  ; |?h264e_bs_put_bits@@YAXPEAUbs_t@@II@Z|, h264e_bs_put_bits

; Function compile flags: /Odtp
; File C:\Users\paras\source\repos\grep-name\XenevaOS\Process\AudioPlayer\minimp4.h

	AREA	|.text$mn|, CODE, ARM64

|?ue_bits@@YAHPEAUbit_reader_t@@@Z| PROC		; ue_bits

; 1874 : {

	stp         fp,lr,[sp,#-0x30]!
	mov         fp,sp
	str         x0,[sp,#0x20]

; 1875 :     int clz;
; 1876 :     int val;
; 1877 :     for (clz = 0; !get_bits(bs, 1); clz++) {}

	mov         w8,#0
	str         w8,[sp,#0x10]
	b           |$LN4@ue_bits|
|$LN2@ue_bits|
	ldr         w8,[sp,#0x10]
	add         w8,w8,#1
	str         w8,[sp,#0x10]
|$LN4@ue_bits|
	mov         w1,#1
	ldr         x0,[sp,#0x20]
	bl          |?get_bits@@YAIPEAUbit_reader_t@@H@Z|
	mov         w0,w0
	cmp         w0,#0
	bne         |$LN3@ue_bits|
	b           |$LN2@ue_bits|
|$LN3@ue_bits|

; 1878 :     //get_bits(bs, clz + 1);
; 1879 :     val = (1 << clz) - 1 + (clz ? get_bits(bs, clz) : 0);

	ldr         w8,[sp,#0x10]
	cmp         w8,#0
	beq         |$LN6@ue_bits|
	ldr         w1,[sp,#0x10]
	ldr         x0,[sp,#0x20]
	bl          |?get_bits@@YAIPEAUbit_reader_t@@H@Z|
	mov         w0,w0
	str         w0,[sp,#0x14]
	b           |$LN7@ue_bits|
|$LN6@ue_bits|
	mov         w8,#0
	str         w8,[sp,#0x14]
|$LN7@ue_bits|
	mov         w9,#1
	ldr         w8,[sp,#0x10]
	lsl         w8,w9,w8
	sub         w9,w8,#1
	ldr         w8,[sp,#0x14]
	add         w8,w9,w8
	str         w8,[sp,#0x18]

; 1880 :     return val;

	ldr         w0,[sp,#0x18]
	ldp         fp,lr,[sp],#0x30
	ret

	ENDP  ; |?ue_bits@@YAHPEAUbit_reader_t@@@Z|, ue_bits

; Function compile flags: /Odtp
; File C:\Users\paras\source\repos\grep-name\XenevaOS\Process\AudioPlayer\minimp4.h

	AREA	|.text$mn|, CODE, ARM64

|?init_bits@@YAXPEAUbit_reader_t@@PEBXI@Z| PROC		; init_bits

; 1862 : {

	stp         fp,lr,[sp,#-0x30]!
	mov         fp,sp
	str         x0,[sp,#0x18]
	str         x1,[sp,#0x20]
	str         w2,[sp,#0x10]

; 1863 :     bs->origin = (const uint16_t*)data;

	ldr         x8,[sp,#0x18]
	add         x9,x8,#0x10
	ldr         x8,[sp,#0x20]
	str         x8,[x9]

; 1864 :     bs->origin_bytes = data_bytes;

	ldr         x8,[sp,#0x18]
	add         x9,x8,#0x18
	ldr         w8,[sp,#0x10]
	str         w8,[x9]

; 1865 :     set_pos_bits(bs, 0);

	mov         w1,#0
	ldr         x0,[sp,#0x18]
	bl          |?set_pos_bits@@YAXPEAUbit_reader_t@@I@Z|
	ldp         fp,lr,[sp],#0x30
	ret

	ENDP  ; |?init_bits@@YAXPEAUbit_reader_t@@PEBXI@Z|, init_bits

; Function compile flags: /Odtp
; File C:\Users\paras\source\repos\grep-name\XenevaOS\Process\AudioPlayer\minimp4.h

	AREA	|.text$mn|, CODE, ARM64

|?remaining_bits@@YAHPEBUbit_reader_t@@@Z| PROC		; remaining_bits

; 1857 : {

	str         x19,[sp,#-0x10]!
	stp         fp,lr,[sp,#-0x20]!
	mov         fp,sp
	str         x0,[sp,#0x10]

; 1858 :     return bs->origin_bytes * 8 - get_pos_bits(bs);

	ldr         x8,[sp,#0x10]
	add         x8,x8,#0x18
	ldr         w9,[x8]
	mov         w8,#8
	mul         w19,w9,w8
	ldr         x0,[sp,#0x10]
	bl          |?get_pos_bits@@YAIPEBUbit_reader_t@@@Z|
	mov         w0,w0
	sub         w0,w19,w0
	mov         w0,w0
	ldp         fp,lr,[sp],#0x20
	ldr         x19,[sp],#0x10
	ret

	ENDP  ; |?remaining_bits@@YAHPEBUbit_reader_t@@@Z|, remaining_bits

; Function compile flags: /Odtp
; File C:\Users\paras\source\repos\grep-name\XenevaOS\Process\AudioPlayer\minimp4.h

	AREA	|.text$mn|, CODE, ARM64

|?get_pos_bits@@YAIPEBUbit_reader_t@@@Z| PROC		; get_pos_bits

; 1846 : {

	stp         fp,lr,[sp,#-0x20]!
	mov         fp,sp
	str         x0,[sp,#0x18]

; 1847 :     // Current bitbuffer position =
; 1848 :     // position of next wobits in the internal buffer
; 1849 :     // minus bs, available in bit cache wobits
; 1850 :     unsigned pos_bits = (unsigned)(bs->buf - bs->origin) * 16;

	ldr         x8,[sp,#0x18]
	add         x9,x8,#8
	ldr         x8,[sp,#0x18]
	add         x8,x8,#0x10
	ldr         x9,[x9]
	ldr         x8,[x8]
	sub         x8,x9,x8
	asr         x8,x8,#1
	mov         w9,w8
	mov         w8,#0x10
	mul         w8,w9,w8
	str         w8,[sp,#0x10]

; 1851 :     pos_bits -= 16 - bs->cache_free_bits;

	ldr         x8,[sp,#0x18]
	add         x8,x8,#4
	mov         w9,#0x10
	ldr         w8,[x8]
	sub         w9,w9,w8
	ldr         w8,[sp,#0x10]
	sub         w8,w8,w9
	str         w8,[sp,#0x10]

; 1852 :     assert((int)pos_bits >= 0);

	ldr         w8,[sp,#0x10]
	cmp         w8,#0
	bne         |$LN4@get_pos_bi|
	mov         w8,#1
	str         w8,[sp,#0x14]
	b           |$LN5@get_pos_bi|
|$LN4@get_pos_bi|
	mov         w8,#0
	str         w8,[sp,#0x14]
|$LN5@get_pos_bi|
	ldr         w8,[sp,#0x14]
	cmp         w8,#0
	blt         |$LN2@get_pos_bi|
	bl          abort
|$LN2@get_pos_bi|

; 1853 :     return pos_bits;

	ldr         w0,[sp,#0x10]
	ldp         fp,lr,[sp],#0x20
	ret

	ENDP  ; |?get_pos_bits@@YAIPEBUbit_reader_t@@@Z|, get_pos_bits

; Function compile flags: /Odtp
; File C:\Users\paras\source\repos\grep-name\XenevaOS\Process\AudioPlayer\minimp4.h

	AREA	|.text$mn|, CODE, ARM64

|?set_pos_bits@@YAXPEAUbit_reader_t@@I@Z| PROC		; set_pos_bits

; 1835 : {

	stp         fp,lr,[sp,#-0x20]!
	mov         fp,sp
	str         x0,[sp,#0x18]
	str         w1,[sp,#0x10]

; 1836 :     assert((int)pos_bits >= 0);

	ldr         w8,[sp,#0x10]
	cmp         w8,#0
	bne         |$LN4@set_pos_bi|
	mov         w8,#1
	str         w8,[sp,#0x14]
	b           |$LN5@set_pos_bi|
|$LN4@set_pos_bi|
	mov         w8,#0
	str         w8,[sp,#0x14]
|$LN5@set_pos_bi|
	ldr         w8,[sp,#0x14]
	cmp         w8,#0
	blt         |$LN2@set_pos_bi|
	bl          abort
|$LN2@set_pos_bi|

; 1837 : 
; 1838 :     bs->buf = bs->origin + pos_bits / 16;

	ldr         x8,[sp,#0x18]
	add         x10,x8,#0x10
	ldr         w9,[sp,#0x10]
	mov         w8,#0x10
	udiv        w8,w9,w8
	uxtw        x9,w8
	mov         x8,#2
	mul         x9,x9,x8
	ldr         x8,[x10]
	add         x9,x8,x9
	ldr         x8,[sp,#0x18]
	add         x8,x8,#8
	str         x9,[x8]

; 1839 :     bs->cache = 0;

	ldr         x9,[sp,#0x18]
	mov         w8,#0
	str         w8,[x9]

; 1840 :     bs->cache_free_bits = 16;

	ldr         x8,[sp,#0x18]
	add         x9,x8,#4
	mov         w8,#0x10
	str         w8,[x9]

; 1841 :     flush_bits(bs, 0);

	mov         w1,#0
	ldr         x0,[sp,#0x18]
	bl          |?flush_bits@@YAXPEAUbit_reader_t@@H@Z|

; 1842 :     flush_bits(bs, pos_bits & 15);

	ldr         w8,[sp,#0x10]
	and         w1,w8,#0xF
	mov         w1,w1
	ldr         x0,[sp,#0x18]
	bl          |?flush_bits@@YAXPEAUbit_reader_t@@H@Z|
	ldp         fp,lr,[sp],#0x20
	ret

	ENDP  ; |?set_pos_bits@@YAXPEAUbit_reader_t@@I@Z|, set_pos_bits

; Function compile flags: /Odtp
; File C:\Users\paras\source\repos\grep-name\XenevaOS\Process\AudioPlayer\minimp4.h

	AREA	|.text$mn|, CODE, ARM64

|?get_bits@@YAIPEAUbit_reader_t@@H@Z| PROC		; get_bits

; 1828 : {

	stp         fp,lr,[sp,#-0x20]!
	mov         fp,sp
	str         x0,[sp,#0x18]
	str         w1,[sp,#0x10]

; 1829 :     unsigned int retval = show_bits(bs, n);

	ldr         w1,[sp,#0x10]
	ldr         x0,[sp,#0x18]
	bl          |?show_bits@@YAIPEAUbit_reader_t@@H@Z|
	mov         w0,w0
	str         w0,[sp,#0x14]

; 1830 :     flush_bits(bs, n);

	ldr         w1,[sp,#0x10]
	ldr         x0,[sp,#0x18]
	bl          |?flush_bits@@YAXPEAUbit_reader_t@@H@Z|

; 1831 :     return retval;

	ldr         w0,[sp,#0x14]
	ldp         fp,lr,[sp],#0x20
	ret

	ENDP  ; |?get_bits@@YAIPEAUbit_reader_t@@H@Z|, get_bits

; Function compile flags: /Odtp
; File C:\Users\paras\source\repos\grep-name\XenevaOS\Process\AudioPlayer\minimp4.h

	AREA	|.text$mn|, CODE, ARM64

|?flush_bits@@YAXPEAUbit_reader_t@@H@Z| PROC		; flush_bits

; 1815 : {

	stp         fp,lr,[sp,#-0x20]!
	mov         fp,sp
	str         x0,[sp,#0x18]
	str         w1,[sp,#0x10]

; 1816 :     assert(n >= 0 && n <= 16);

	ldr         w8,[sp,#0x10]
	cmp         w8,#0
	bne         |$LN5@flush_bits|
	mov         w8,#1
	str         w8,[sp,#0x14]
	b           |$LN6@flush_bits|
|$LN5@flush_bits|
	mov         w8,#0
	str         w8,[sp,#0x14]
|$LN6@flush_bits|
	ldr         w8,[sp,#0x14]
	cmp         w8,#0
	blt         |$LN2@flush_bits|
	ldr         w8,[sp,#0x10]
	cmp         w8,#0x10
	bgt         |$LN2@flush_bits|
	bl          abort
|$LN2@flush_bits|

; 1817 :     bs->cache <<= n;

	ldr         x8,[sp,#0x18]
	ldr         w9,[x8]
	ldr         w8,[sp,#0x10]
	lsl         w9,w9,w8
	ldr         x8,[sp,#0x18]
	str         w9,[x8]

; 1818 :     bs->cache_free_bits += n;

	ldr         x8,[sp,#0x18]
	add         x8,x8,#4
	ldr         w9,[x8]
	ldr         w8,[sp,#0x10]
	add         w9,w9,w8
	ldr         x8,[sp,#0x18]
	add         x8,x8,#4
	str         w9,[x8]

; 1819 :     if (bs->cache_free_bits >= 0)

	ldr         x8,[sp,#0x18]
	add         x8,x8,#4
	ldr         w8,[x8]
	cmp         w8,#0
	blt         |$LN3@flush_bits|

; 1820 :     {
; 1821 :         bs->cache |= ((uint32_t)LOAD_SHORT(*bs->buf)) << bs->cache_free_bits;

	ldr         x10,[sp,#0x18]
	ldr         x8,[sp,#0x18]
	add         x8,x8,#8
	ldr         x8,[x8]
	ldrh        w8,[x8]
	mov         w8,w8
	lsl         w8,w8,#8
	uxth        w9,w8
	mov         w9,w9
	ldr         x8,[sp,#0x18]
	add         x8,x8,#8
	ldr         x8,[x8]
	ldrh        w8,[x8]
	mov         w8,w8
	asr         w8,w8,#8
	orr         w9,w9,w8
	ldr         x8,[sp,#0x18]
	add         x8,x8,#4
	ldr         w8,[x8]
	lsl         w9,w9,w8
	ldr         w8,[x10]
	orr         w9,w8,w9
	ldr         x8,[sp,#0x18]
	str         w9,[x8]

; 1822 :         bs->buf++;

	ldr         x8,[sp,#0x18]
	add         x8,x8,#8
	ldr         x8,[x8]
	add         x9,x8,#2
	ldr         x8,[sp,#0x18]
	add         x8,x8,#8
	str         x9,[x8]

; 1823 :         bs->cache_free_bits -= 16;

	ldr         x8,[sp,#0x18]
	add         x8,x8,#4
	ldr         w8,[x8]
	sub         w9,w8,#0x10
	ldr         x8,[sp,#0x18]
	add         x8,x8,#4
	str         w9,[x8]
|$LN3@flush_bits|
	ldp         fp,lr,[sp],#0x20
	ret

	ENDP  ; |?flush_bits@@YAXPEAUbit_reader_t@@H@Z|, flush_bits

; Function compile flags: /Odtp
; File C:\Users\paras\source\repos\grep-name\XenevaOS\Process\AudioPlayer\minimp4.h

	AREA	|.text$mn|, CODE, ARM64

|?show_bits@@YAIPEAUbit_reader_t@@H@Z| PROC		; show_bits

; 1807 : {

	stp         fp,lr,[sp,#-0x30]!
	mov         fp,sp
	str         x0,[sp,#0x20]
	str         w1,[sp,#0x10]

; 1808 :     unsigned int retval;
; 1809 :     assert(n > 0 && n <= 16);

	ldr         w8,[sp,#0x10]
	cmp         w8,#0
	bne         |$LN4@show_bits|
	mov         w8,#1
	str         w8,[sp,#0x14]
	b           |$LN5@show_bits|
|$LN4@show_bits|
	mov         w8,#0
	str         w8,[sp,#0x14]
|$LN5@show_bits|
	ldr         w8,[sp,#0x14]
	cmp         w8,#0
	ble         |$LN2@show_bits|
	ldr         w8,[sp,#0x10]
	cmp         w8,#0x10
	bgt         |$LN2@show_bits|
	bl          abort
|$LN2@show_bits|

; 1810 :     retval = (unsigned int)(bs->cache >> (32 - n));

	ldr         x10,[sp,#0x20]
	mov         w9,#0x20
	ldr         w8,[sp,#0x10]
	sub         w9,w9,w8
	ldr         w8,[x10]
	lsr         w8,w8,w9
	str         w8,[sp,#0x18]

; 1811 :     return retval;

	ldr         w0,[sp,#0x18]
	ldp         fp,lr,[sp],#0x30
	ret

	ENDP  ; |?show_bits@@YAIPEAUbit_reader_t@@H@Z|, show_bits

; Function compile flags: /Odtp
; File C:\Users\paras\source\repos\grep-name\XenevaOS\Process\AudioPlayer\minimp4.h

	AREA	|.text$mn|, CODE, ARM64

|?od_size_of_size@@YAHH@Z| PROC				; od_size_of_size

; 1167 : {

	sub         sp,sp,#0x10
	str         w0,[sp,#8]

; 1168 :     int i, size_of_size = 1;

	mov         w8,#1
	str         w8,[sp,#4]

; 1169 :     for (i = size; i > 0x7F; i -= 0x7F)

	ldr         w8,[sp,#8]
	str         w8,[sp]
	b           |$LN4@od_size_of|
|$LN2@od_size_of|
	ldr         w8,[sp]
	sub         w8,w8,#0x7F
	str         w8,[sp]
|$LN4@od_size_of|
	ldr         w8,[sp]
	cmp         w8,#0x7F
	ble         |$LN3@od_size_of|

; 1170 :         size_of_size++;

	ldr         w8,[sp,#4]
	add         w8,w8,#1
	str         w8,[sp,#4]
	b           |$LN2@od_size_of|
|$LN3@od_size_of|

; 1171 :     return size_of_size;

	ldr         w0,[sp,#4]
	add         sp,sp,#0x10
	ret

	ENDP  ; |?od_size_of_size@@YAHH@Z|, od_size_of_size

; Function compile flags: /Odtp
; File C:\Users\paras\source\repos\grep-name\XenevaOS\Process\AudioPlayer\minimp4.h

	AREA	|.text$mn|, CODE, ARM64

|?mp4e_write_mdat_box@@YAHPEAUMP4E_mux_tag@@I@Z| PROC	; mp4e_write_mdat_box

; 1090 : {

	stp         fp,lr,[sp,#-0x30]!
	mov         fp,sp
	str         x0,[sp,#0x20]
	str         w1,[sp,#0x10]

; 1091 :     unsigned char base[8], * p = base;

	add         x8,sp,#0x28
	str         x8,[sp,#0x18]

; 1092 :     WRITE_4(size);

	ldr         w8,[sp,#0x10]
	lsr         w8,w8,#0x18
	uxtb        w9,w8
	ldr         x8,[sp,#0x18]
	strb        w9,[x8]
	ldr         x8,[sp,#0x18]
	add         x8,x8,#1
	str         x8,[sp,#0x18]
	ldr         w8,[sp,#0x10]
	lsr         w8,w8,#0x10
	uxtb        w9,w8
	ldr         x8,[sp,#0x18]
	strb        w9,[x8]
	ldr         x8,[sp,#0x18]
	add         x8,x8,#1
	str         x8,[sp,#0x18]
	ldr         w8,[sp,#0x10]
	lsr         w8,w8,#8
	uxtb        w9,w8
	ldr         x8,[sp,#0x18]
	strb        w9,[x8]
	ldr         x8,[sp,#0x18]
	add         x8,x8,#1
	str         x8,[sp,#0x18]
	ldr         w8,[sp,#0x10]
	uxtb        w9,w8
	ldr         x8,[sp,#0x18]
	strb        w9,[x8]
	ldr         x8,[sp,#0x18]
	add         x8,x8,#1
	str         x8,[sp,#0x18]

; 1093 :     WRITE_4(BOX_mdat);

	ldr         x9,[sp,#0x18]
	mov         w8,#0x6D
	strb        w8,[x9]
	ldr         x8,[sp,#0x18]
	add         x8,x8,#1
	str         x8,[sp,#0x18]
	ldr         x9,[sp,#0x18]
	mov         w8,#0x64
	strb        w8,[x9]
	ldr         x8,[sp,#0x18]
	add         x8,x8,#1
	str         x8,[sp,#0x18]
	ldr         x9,[sp,#0x18]
	mov         w8,#0x61
	strb        w8,[x9]
	ldr         x8,[sp,#0x18]
	add         x8,x8,#1
	str         x8,[sp,#0x18]
	ldr         x9,[sp,#0x18]
	mov         w8,#0x74
	strb        w8,[x9]
	ldr         x8,[sp,#0x18]
	add         x8,x8,#1
	str         x8,[sp,#0x18]

; 1094 :     ERR(mux->write_callback(mux->write_pos, base, p - base, mux->token));

	ldr         x8,[sp,#0x20]
	add         x10,x8,#0x20
	ldr         x9,[sp,#0x18]
	add         x8,sp,#0x28
	sub         x2,x9,x8
	ldr         x8,[sp,#0x20]
	add         x9,x8,#0x10
	ldr         x8,[sp,#0x20]
	add         x8,x8,#0x18
	ldr         x3,[x10]
	add         x1,sp,#0x28
	ldr         x0,[x9]
	ldr         x8,[x8]
	blr         x8
	mov         w0,w0
	str         w0,[sp,#0x14]
	ldr         w8,[sp,#0x14]
	cmp         w8,#0
	beq         |$LN2@mp4e_write|
	ldr         w0,[sp,#0x14]
	b           |$LN1@mp4e_write|
|$LN2@mp4e_write|

; 1095 :     mux->write_pos += p - base;

	ldr         x8,[sp,#0x20]
	add         x10,x8,#0x10
	ldr         x9,[sp,#0x18]
	add         x8,sp,#0x28
	sub         x9,x9,x8
	ldr         x8,[x10]
	add         x9,x8,x9
	ldr         x8,[sp,#0x20]
	add         x8,x8,#0x10
	str         x9,[x8]

; 1096 :     return MP4E_STATUS_OK;

	mov         w0,#0
|$LN1@mp4e_write|
	ldp         fp,lr,[sp],#0x30
	ret

	ENDP  ; |?mp4e_write_mdat_box@@YAHPEAUMP4E_mux_tag@@I@Z|, mp4e_write_mdat_box

; Function compile flags: /Odtp
; File C:\Users\paras\source\repos\grep-name\XenevaOS\Process\AudioPlayer\minimp4.h

	AREA	|.text$mn|, CODE, ARM64

|?mp4e_write_fragment_header@@YAHPEAUMP4E_mux_tag@@HHHH@Z| PROC ; mp4e_write_fragment_header

; 998  : {

	sub         sp,sp,#0x470
	stp         fp,lr,[sp]
	mov         fp,sp
	str         x0,[sp,#0x30]
	str         w1,[sp,#0x2C]
	str         w2,[sp,#0x28]
	str         w3,[sp,#0x24]
	str         w4,[sp,#0x50]

; 999  :     unsigned char base[888], * p = base;

	add         x8,sp,#0x58
	str         x8,[sp,#0x10]

; 1000 :     unsigned char* stack_base[20]; // atoms nesting stack
; 1001 :     unsigned char** stack = stack_base;

	add         x8,sp,#0x3D0
	str         x8,[sp,#0x18]

; 1002 :     unsigned char* pdata_offset;
; 1003 :     unsigned flags;
; 1004 :     enum
; 1005 :     {
; 1006 :         default_sample_duration_present = 0x000008,
; 1007 :         default_sample_flags_present = 0x000020,
; 1008 :     } e;
; 1009 : 
; 1010 :     track_t* tr = ((track_t*)mux->tracks.data) + track_num;

	ldr         x10,[sp,#0x30]
	ldr         w8,[sp,#0x2C]
	sxtw        x9,w8
	mov         x8,#0x70
	mul         x9,x9,x8
	ldr         x8,[x10]
	add         x8,x8,x9
	str         x8,[sp,#0x48]

; 1011 : 
; 1012 :     ATOM(BOX_moof)

	ldr         x9,[sp,#0x18]
	ldr         x8,[sp,#0x10]
	str         x8,[x9]
	ldr         x8,[sp,#0x18]
	add         x8,x8,#8
	str         x8,[sp,#0x18]
	ldr         x8,[sp,#0x10]
	add         x8,x8,#4
	str         x8,[sp,#0x10]
	ldr         x9,[sp,#0x10]
	mov         w8,#0x6D
	strb        w8,[x9]
	ldr         x8,[sp,#0x10]
	add         x8,x8,#1
	str         x8,[sp,#0x10]
	ldr         x9,[sp,#0x10]
	mov         w8,#0x6F
	strb        w8,[x9]
	ldr         x8,[sp,#0x10]
	add         x8,x8,#1
	str         x8,[sp,#0x10]
	ldr         x9,[sp,#0x10]
	mov         w8,#0x6F
	strb        w8,[x9]
	ldr         x8,[sp,#0x10]
	add         x8,x8,#1
	str         x8,[sp,#0x10]
	ldr         x9,[sp,#0x10]
	mov         w8,#0x66
	strb        w8,[x9]
	ldr         x8,[sp,#0x10]
	add         x8,x8,#1
	str         x8,[sp,#0x10]

; 1013 :         ATOM_FULL(BOX_mfhd, 0)

	ldr         x9,[sp,#0x18]
	ldr         x8,[sp,#0x10]
	str         x8,[x9]
	ldr         x8,[sp,#0x18]
	add         x8,x8,#8
	str         x8,[sp,#0x18]
	ldr         x8,[sp,#0x10]
	add         x8,x8,#4
	str         x8,[sp,#0x10]
	ldr         x9,[sp,#0x10]
	mov         w8,#0x6D
	strb        w8,[x9]
	ldr         x8,[sp,#0x10]
	add         x8,x8,#1
	str         x8,[sp,#0x10]
	ldr         x9,[sp,#0x10]
	mov         w8,#0x66
	strb        w8,[x9]
	ldr         x8,[sp,#0x10]
	add         x8,x8,#1
	str         x8,[sp,#0x10]
	ldr         x9,[sp,#0x10]
	mov         w8,#0x68
	strb        w8,[x9]
	ldr         x8,[sp,#0x10]
	add         x8,x8,#1
	str         x8,[sp,#0x10]
	ldr         x9,[sp,#0x10]
	mov         w8,#0x64
	strb        w8,[x9]
	ldr         x8,[sp,#0x10]
	add         x8,x8,#1
	str         x8,[sp,#0x10]
	ldr         x9,[sp,#0x10]
	mov         w8,#0
	strb        w8,[x9]
	ldr         x8,[sp,#0x10]
	add         x8,x8,#1
	str         x8,[sp,#0x10]
	ldr         x9,[sp,#0x10]
	mov         w8,#0
	strb        w8,[x9]
	ldr         x8,[sp,#0x10]
	add         x8,x8,#1
	str         x8,[sp,#0x10]
	ldr         x9,[sp,#0x10]
	mov         w8,#0
	strb        w8,[x9]
	ldr         x8,[sp,#0x10]
	add         x8,x8,#1
	str         x8,[sp,#0x10]
	ldr         x9,[sp,#0x10]
	mov         w8,#0
	strb        w8,[x9]
	ldr         x8,[sp,#0x10]
	add         x8,x8,#1
	str         x8,[sp,#0x10]

; 1014 :         WRITE_4(mux->fragments_count);  // start from 1

	ldr         x8,[sp,#0x30]
	add         x8,x8,#0x38
	ldr         w8,[x8]
	asr         w8,w8,#0x18
	uxtb        w9,w8
	ldr         x8,[sp,#0x10]
	strb        w9,[x8]
	ldr         x8,[sp,#0x10]
	add         x8,x8,#1
	str         x8,[sp,#0x10]
	ldr         x8,[sp,#0x30]
	add         x8,x8,#0x38
	ldr         w8,[x8]
	asr         w8,w8,#0x10
	uxtb        w9,w8
	ldr         x8,[sp,#0x10]
	strb        w9,[x8]
	ldr         x8,[sp,#0x10]
	add         x8,x8,#1
	str         x8,[sp,#0x10]
	ldr         x8,[sp,#0x30]
	add         x8,x8,#0x38
	ldr         w8,[x8]
	asr         w8,w8,#8
	uxtb        w9,w8
	ldr         x8,[sp,#0x10]
	strb        w9,[x8]
	ldr         x8,[sp,#0x10]
	add         x8,x8,#1
	str         x8,[sp,#0x10]
	ldr         x8,[sp,#0x30]
	add         x8,x8,#0x38
	ldr         w8,[x8]
	uxtb        w9,w8
	ldr         x8,[sp,#0x10]
	strb        w9,[x8]
	ldr         x8,[sp,#0x10]
	add         x8,x8,#1
	str         x8,[sp,#0x10]

; 1015 :     END_ATOM

	ldr         x8,[sp,#0x18]
	sub         x8,x8,#8
	str         x8,[sp,#0x18]
	ldr         x9,[sp,#0x10]
	ldr         x8,[sp,#0x18]
	ldr         x8,[x8]
	sub         x8,x9,x8
	asr         x8,x8,#0x18
	uxtb        w9,w8
	ldr         x8,[sp,#0x18]
	ldr         x8,[x8]
	strb        w9,[x8]
	ldr         x9,[sp,#0x10]
	ldr         x8,[sp,#0x18]
	ldr         x8,[x8]
	sub         x8,x9,x8
	asr         x8,x8,#0x10
	uxtb        w9,w8
	ldr         x8,[sp,#0x18]
	ldr         x8,[x8]
	add         x8,x8,#1
	strb        w9,[x8]
	ldr         x9,[sp,#0x10]
	ldr         x8,[sp,#0x18]
	ldr         x8,[x8]
	sub         x8,x9,x8
	asr         x8,x8,#8
	uxtb        w9,w8
	ldr         x8,[sp,#0x18]
	ldr         x8,[x8]
	add         x8,x8,#2
	strb        w9,[x8]
	ldr         x9,[sp,#0x10]
	ldr         x8,[sp,#0x18]
	ldr         x8,[x8]
	sub         x8,x9,x8
	uxtb        w9,w8
	ldr         x8,[sp,#0x18]
	ldr         x8,[x8]
	add         x8,x8,#3
	strb        w9,[x8]

; 1016 :         ATOM(BOX_traf)

	ldr         x9,[sp,#0x18]
	ldr         x8,[sp,#0x10]
	str         x8,[x9]
	ldr         x8,[sp,#0x18]
	add         x8,x8,#8
	str         x8,[sp,#0x18]
	ldr         x8,[sp,#0x10]
	add         x8,x8,#4
	str         x8,[sp,#0x10]
	ldr         x9,[sp,#0x10]
	mov         w8,#0x74
	strb        w8,[x9]
	ldr         x8,[sp,#0x10]
	add         x8,x8,#1
	str         x8,[sp,#0x10]
	ldr         x9,[sp,#0x10]
	mov         w8,#0x72
	strb        w8,[x9]
	ldr         x8,[sp,#0x10]
	add         x8,x8,#1
	str         x8,[sp,#0x10]
	ldr         x9,[sp,#0x10]
	mov         w8,#0x61
	strb        w8,[x9]
	ldr         x8,[sp,#0x10]
	add         x8,x8,#1
	str         x8,[sp,#0x10]
	ldr         x9,[sp,#0x10]
	mov         w8,#0x66
	strb        w8,[x9]
	ldr         x8,[sp,#0x10]
	add         x8,x8,#1
	str         x8,[sp,#0x10]

; 1017 :         flags = 0;

	mov         w8,#0
	str         w8,[sp,#0x20]

; 1018 :     if (tr->info.track_media_kind == e_video)

	ldr         x8,[sp,#0x48]
	add         x8,x8,#8
	ldr         w8,[x8]
	cmp         w8,#1
	bne         |$LN2@mp4e_write|

; 1019 :         flags |= 0x20;          // default-sample-flags-present

	ldr         w8,[sp,#0x20]
	orr         w8,w8,#0x20
	str         w8,[sp,#0x20]
	b           |$LN3@mp4e_write|
|$LN2@mp4e_write|

; 1020 :     else
; 1021 :         flags |= 0x08;          // default-sample-duration-present

	ldr         w8,[sp,#0x20]
	orr         w8,w8,#8
	str         w8,[sp,#0x20]
|$LN3@mp4e_write|

; 1022 :     flags = (tr->info.track_media_kind == e_video) ? 0x20020 : 0x20008;

	ldr         x8,[sp,#0x48]
	add         x8,x8,#8
	ldr         w8,[x8]
	cmp         w8,#1
	bne         |$LN12@mp4e_write|
	ldr         w8,|$LN14@mp4e_write|
	str         w8,[sp,#0x40]
	b           |$LN13@mp4e_write|
|$LN12@mp4e_write|
	ldr         w8,|$LN15@mp4e_write|
	str         w8,[sp,#0x40]
|$LN13@mp4e_write|
	ldr         w8,[sp,#0x40]
	str         w8,[sp,#0x20]

; 1023 : 
; 1024 :     ATOM_FULL(BOX_tfhd, flags)

	ldr         x9,[sp,#0x18]
	ldr         x8,[sp,#0x10]
	str         x8,[x9]
	ldr         x8,[sp,#0x18]
	add         x8,x8,#8
	str         x8,[sp,#0x18]
	ldr         x8,[sp,#0x10]
	add         x8,x8,#4
	str         x8,[sp,#0x10]
	ldr         x9,[sp,#0x10]
	mov         w8,#0x74
	strb        w8,[x9]
	ldr         x8,[sp,#0x10]
	add         x8,x8,#1
	str         x8,[sp,#0x10]
	ldr         x9,[sp,#0x10]
	mov         w8,#0x66
	strb        w8,[x9]
	ldr         x8,[sp,#0x10]
	add         x8,x8,#1
	str         x8,[sp,#0x10]
	ldr         x9,[sp,#0x10]
	mov         w8,#0x68
	strb        w8,[x9]
	ldr         x8,[sp,#0x10]
	add         x8,x8,#1
	str         x8,[sp,#0x10]
	ldr         x9,[sp,#0x10]
	mov         w8,#0x64
	strb        w8,[x9]
	ldr         x8,[sp,#0x10]
	add         x8,x8,#1
	str         x8,[sp,#0x10]
	ldr         w8,[sp,#0x20]
	lsr         w8,w8,#0x18
	uxtb        w9,w8
	ldr         x8,[sp,#0x10]
	strb        w9,[x8]
	ldr         x8,[sp,#0x10]
	add         x8,x8,#1
	str         x8,[sp,#0x10]
	ldr         w8,[sp,#0x20]
	lsr         w8,w8,#0x10
	uxtb        w9,w8
	ldr         x8,[sp,#0x10]
	strb        w9,[x8]
	ldr         x8,[sp,#0x10]
	add         x8,x8,#1
	str         x8,[sp,#0x10]
	ldr         w8,[sp,#0x20]
	lsr         w8,w8,#8
	uxtb        w9,w8
	ldr         x8,[sp,#0x10]
	strb        w9,[x8]
	ldr         x8,[sp,#0x10]
	add         x8,x8,#1
	str         x8,[sp,#0x10]
	ldr         w8,[sp,#0x20]
	uxtb        w9,w8
	ldr         x8,[sp,#0x10]
	strb        w9,[x8]
	ldr         x8,[sp,#0x10]
	add         x8,x8,#1
	str         x8,[sp,#0x10]

; 1025 :         WRITE_4(track_num + 1); // track_ID

	ldr         w8,[sp,#0x2C]
	add         w8,w8,#1
	asr         w8,w8,#0x18
	uxtb        w9,w8
	ldr         x8,[sp,#0x10]
	strb        w9,[x8]
	ldr         x8,[sp,#0x10]
	add         x8,x8,#1
	str         x8,[sp,#0x10]
	ldr         w8,[sp,#0x2C]
	add         w8,w8,#1
	asr         w8,w8,#0x10
	uxtb        w9,w8
	ldr         x8,[sp,#0x10]
	strb        w9,[x8]
	ldr         x8,[sp,#0x10]
	add         x8,x8,#1
	str         x8,[sp,#0x10]
	ldr         w8,[sp,#0x2C]
	add         w8,w8,#1
	asr         w8,w8,#8
	uxtb        w9,w8
	ldr         x8,[sp,#0x10]
	strb        w9,[x8]
	ldr         x8,[sp,#0x10]
	add         x8,x8,#1
	str         x8,[sp,#0x10]
	ldr         w8,[sp,#0x2C]
	add         w8,w8,#1
	uxtb        w9,w8
	ldr         x8,[sp,#0x10]
	strb        w9,[x8]
	ldr         x8,[sp,#0x10]
	add         x8,x8,#1
	str         x8,[sp,#0x10]

; 1026 :     if (tr->info.track_media_kind == e_video)

	ldr         x8,[sp,#0x48]
	add         x8,x8,#8
	ldr         w8,[x8]
	cmp         w8,#1
	bne         |$LN4@mp4e_write|

; 1027 :     {
; 1028 :         WRITE_4(0x1010000); // default_sample_flags

	ldr         x9,[sp,#0x10]
	mov         w8,#1
	strb        w8,[x9]
	ldr         x8,[sp,#0x10]
	add         x8,x8,#1
	str         x8,[sp,#0x10]
	ldr         x9,[sp,#0x10]
	mov         w8,#1
	strb        w8,[x9]
	ldr         x8,[sp,#0x10]
	add         x8,x8,#1
	str         x8,[sp,#0x10]
	ldr         x9,[sp,#0x10]
	mov         w8,#0
	strb        w8,[x9]
	ldr         x8,[sp,#0x10]
	add         x8,x8,#1
	str         x8,[sp,#0x10]
	ldr         x9,[sp,#0x10]
	mov         w8,#0
	strb        w8,[x9]
	ldr         x8,[sp,#0x10]
	add         x8,x8,#1
	str         x8,[sp,#0x10]

; 1029 :     }

	b           |$LN5@mp4e_write|
|$LN4@mp4e_write|

; 1030 :     else
; 1031 :     {
; 1032 :         WRITE_4(duration);

	ldr         w8,[sp,#0x24]
	asr         w8,w8,#0x18
	uxtb        w9,w8
	ldr         x8,[sp,#0x10]
	strb        w9,[x8]
	ldr         x8,[sp,#0x10]
	add         x8,x8,#1
	str         x8,[sp,#0x10]
	ldr         w8,[sp,#0x24]
	asr         w8,w8,#0x10
	uxtb        w9,w8
	ldr         x8,[sp,#0x10]
	strb        w9,[x8]
	ldr         x8,[sp,#0x10]
	add         x8,x8,#1
	str         x8,[sp,#0x10]
	ldr         w8,[sp,#0x24]
	asr         w8,w8,#8
	uxtb        w9,w8
	ldr         x8,[sp,#0x10]
	strb        w9,[x8]
	ldr         x8,[sp,#0x10]
	add         x8,x8,#1
	str         x8,[sp,#0x10]
	ldr         w8,[sp,#0x24]
	uxtb        w9,w8
	ldr         x8,[sp,#0x10]
	strb        w9,[x8]
	ldr         x8,[sp,#0x10]
	add         x8,x8,#1
	str         x8,[sp,#0x10]
|$LN5@mp4e_write|

; 1033 :     }
; 1034 :     END_ATOM

	ldr         x8,[sp,#0x18]
	sub         x8,x8,#8
	str         x8,[sp,#0x18]
	ldr         x9,[sp,#0x10]
	ldr         x8,[sp,#0x18]
	ldr         x8,[x8]
	sub         x8,x9,x8
	asr         x8,x8,#0x18
	uxtb        w9,w8
	ldr         x8,[sp,#0x18]
	ldr         x8,[x8]
	strb        w9,[x8]
	ldr         x9,[sp,#0x10]
	ldr         x8,[sp,#0x18]
	ldr         x8,[x8]
	sub         x8,x9,x8
	asr         x8,x8,#0x10
	uxtb        w9,w8
	ldr         x8,[sp,#0x18]
	ldr         x8,[x8]
	add         x8,x8,#1
	strb        w9,[x8]
	ldr         x9,[sp,#0x10]
	ldr         x8,[sp,#0x18]
	ldr         x8,[x8]
	sub         x8,x9,x8
	asr         x8,x8,#8
	uxtb        w9,w8
	ldr         x8,[sp,#0x18]
	ldr         x8,[x8]
	add         x8,x8,#2
	strb        w9,[x8]
	ldr         x9,[sp,#0x10]
	ldr         x8,[sp,#0x18]
	ldr         x8,[x8]
	sub         x8,x9,x8
	uxtb        w9,w8
	ldr         x8,[sp,#0x18]
	ldr         x8,[x8]
	add         x8,x8,#3
	strb        w9,[x8]

; 1035 : #if MP4D_TFDT_SUPPORT
; 1036 :         ATOM_FULL(BOX_tfdt, 0x01000000) // version 1
; 1037 :         WRITE_4(timestamp >> 32); // upper timestamp
; 1038 :     WRITE_4(timestamp & 0xffffffff); // lower timestamp
; 1039 :     END_ATOM
; 1040 : #endif
; 1041 :         if (tr->info.track_media_kind == e_audio)

	ldr         x8,[sp,#0x48]
	add         x8,x8,#8
	ldr         w8,[x8]
	cmp         w8,#0
	bne         |$LN6@mp4e_write|

; 1042 :         {
; 1043 :             flags = 0;

	mov         w8,#0
	str         w8,[sp,#0x20]

; 1044 :             flags |= 0x001;         // data-offset-present

	ldr         w8,[sp,#0x20]
	orr         w8,w8,#1
	str         w8,[sp,#0x20]

; 1045 :             flags |= 0x200;         // sample-size-present

	ldr         w8,[sp,#0x20]
	orr         w8,w8,#0x200
	str         w8,[sp,#0x20]

; 1046 :             ATOM_FULL(BOX_trun, flags)

	ldr         x9,[sp,#0x18]
	ldr         x8,[sp,#0x10]
	str         x8,[x9]
	ldr         x8,[sp,#0x18]
	add         x8,x8,#8
	str         x8,[sp,#0x18]
	ldr         x8,[sp,#0x10]
	add         x8,x8,#4
	str         x8,[sp,#0x10]
	ldr         x9,[sp,#0x10]
	mov         w8,#0x74
	strb        w8,[x9]
	ldr         x8,[sp,#0x10]
	add         x8,x8,#1
	str         x8,[sp,#0x10]
	ldr         x9,[sp,#0x10]
	mov         w8,#0x72
	strb        w8,[x9]
	ldr         x8,[sp,#0x10]
	add         x8,x8,#1
	str         x8,[sp,#0x10]
	ldr         x9,[sp,#0x10]
	mov         w8,#0x75
	strb        w8,[x9]
	ldr         x8,[sp,#0x10]
	add         x8,x8,#1
	str         x8,[sp,#0x10]
	ldr         x9,[sp,#0x10]
	mov         w8,#0x6E
	strb        w8,[x9]
	ldr         x8,[sp,#0x10]
	add         x8,x8,#1
	str         x8,[sp,#0x10]
	ldr         w8,[sp,#0x20]
	lsr         w8,w8,#0x18
	uxtb        w9,w8
	ldr         x8,[sp,#0x10]
	strb        w9,[x8]
	ldr         x8,[sp,#0x10]
	add         x8,x8,#1
	str         x8,[sp,#0x10]
	ldr         w8,[sp,#0x20]
	lsr         w8,w8,#0x10
	uxtb        w9,w8
	ldr         x8,[sp,#0x10]
	strb        w9,[x8]
	ldr         x8,[sp,#0x10]
	add         x8,x8,#1
	str         x8,[sp,#0x10]
	ldr         w8,[sp,#0x20]
	lsr         w8,w8,#8
	uxtb        w9,w8
	ldr         x8,[sp,#0x10]
	strb        w9,[x8]
	ldr         x8,[sp,#0x10]
	add         x8,x8,#1
	str         x8,[sp,#0x10]
	ldr         w8,[sp,#0x20]
	uxtb        w9,w8
	ldr         x8,[sp,#0x10]
	strb        w9,[x8]
	ldr         x8,[sp,#0x10]
	add         x8,x8,#1
	str         x8,[sp,#0x10]

; 1047 :                 WRITE_4(1);         // sample_count

	ldr         x9,[sp,#0x10]
	mov         w8,#0
	strb        w8,[x9]
	ldr         x8,[sp,#0x10]
	add         x8,x8,#1
	str         x8,[sp,#0x10]
	ldr         x9,[sp,#0x10]
	mov         w8,#0
	strb        w8,[x9]
	ldr         x8,[sp,#0x10]
	add         x8,x8,#1
	str         x8,[sp,#0x10]
	ldr         x9,[sp,#0x10]
	mov         w8,#0
	strb        w8,[x9]
	ldr         x8,[sp,#0x10]
	add         x8,x8,#1
	str         x8,[sp,#0x10]
	ldr         x9,[sp,#0x10]
	mov         w8,#1
	strb        w8,[x9]
	ldr         x8,[sp,#0x10]
	add         x8,x8,#1
	str         x8,[sp,#0x10]

; 1048 :             pdata_offset = p; p += 4;  // save ptr to data_offset

	ldr         x8,[sp,#0x10]
	str         x8,[sp,#0x38]
	ldr         x8,[sp,#0x10]
	add         x8,x8,#4
	str         x8,[sp,#0x10]

; 1049 :             WRITE_4(data_bytes);// sample_size

	ldr         w8,[sp,#0x28]
	asr         w8,w8,#0x18
	uxtb        w9,w8
	ldr         x8,[sp,#0x10]
	strb        w9,[x8]
	ldr         x8,[sp,#0x10]
	add         x8,x8,#1
	str         x8,[sp,#0x10]
	ldr         w8,[sp,#0x28]
	asr         w8,w8,#0x10
	uxtb        w9,w8
	ldr         x8,[sp,#0x10]
	strb        w9,[x8]
	ldr         x8,[sp,#0x10]
	add         x8,x8,#1
	str         x8,[sp,#0x10]
	ldr         w8,[sp,#0x28]
	asr         w8,w8,#8
	uxtb        w9,w8
	ldr         x8,[sp,#0x10]
	strb        w9,[x8]
	ldr         x8,[sp,#0x10]
	add         x8,x8,#1
	str         x8,[sp,#0x10]
	ldr         w8,[sp,#0x28]
	uxtb        w9,w8
	ldr         x8,[sp,#0x10]
	strb        w9,[x8]
	ldr         x8,[sp,#0x10]
	add         x8,x8,#1
	str         x8,[sp,#0x10]

; 1050 :             END_ATOM

	ldr         x8,[sp,#0x18]
	sub         x8,x8,#8
	str         x8,[sp,#0x18]
	ldr         x9,[sp,#0x10]
	ldr         x8,[sp,#0x18]
	ldr         x8,[x8]
	sub         x8,x9,x8
	asr         x8,x8,#0x18
	uxtb        w9,w8
	ldr         x8,[sp,#0x18]
	ldr         x8,[x8]
	strb        w9,[x8]
	ldr         x9,[sp,#0x10]
	ldr         x8,[sp,#0x18]
	ldr         x8,[x8]
	sub         x8,x9,x8
	asr         x8,x8,#0x10
	uxtb        w9,w8
	ldr         x8,[sp,#0x18]
	ldr         x8,[x8]
	add         x8,x8,#1
	strb        w9,[x8]
	ldr         x9,[sp,#0x10]
	ldr         x8,[sp,#0x18]
	ldr         x8,[x8]
	sub         x8,x9,x8
	asr         x8,x8,#8
	uxtb        w9,w8
	ldr         x8,[sp,#0x18]
	ldr         x8,[x8]
	add         x8,x8,#2
	strb        w9,[x8]
	ldr         x9,[sp,#0x10]
	ldr         x8,[sp,#0x18]
	ldr         x8,[x8]
	sub         x8,x9,x8
	uxtb        w9,w8
	ldr         x8,[sp,#0x18]
	ldr         x8,[x8]
	add         x8,x8,#3
	strb        w9,[x8]

; 1051 :         }

	b           |$LN7@mp4e_write|
|$LN6@mp4e_write|

; 1052 :         else if (kind == MP4E_SAMPLE_RANDOM_ACCESS)

	ldr         w8,[sp,#0x50]
	cmp         w8,#1
	bne         |$LN8@mp4e_write|

; 1053 :         {
; 1054 :             flags = 0;

	mov         w8,#0
	str         w8,[sp,#0x20]

; 1055 :             flags |= 0x001;         // data-offset-present

	ldr         w8,[sp,#0x20]
	orr         w8,w8,#1
	str         w8,[sp,#0x20]

; 1056 :             flags |= 0x004;         // first-sample-flags-present

	ldr         w8,[sp,#0x20]
	orr         w8,w8,#4
	str         w8,[sp,#0x20]

; 1057 :             flags |= 0x100;         // sample-duration-present

	ldr         w8,[sp,#0x20]
	orr         w8,w8,#0x100
	str         w8,[sp,#0x20]

; 1058 :             flags |= 0x200;         // sample-size-present

	ldr         w8,[sp,#0x20]
	orr         w8,w8,#0x200
	str         w8,[sp,#0x20]

; 1059 :             ATOM_FULL(BOX_trun, flags)

	ldr         x9,[sp,#0x18]
	ldr         x8,[sp,#0x10]
	str         x8,[x9]
	ldr         x8,[sp,#0x18]
	add         x8,x8,#8
	str         x8,[sp,#0x18]
	ldr         x8,[sp,#0x10]
	add         x8,x8,#4
	str         x8,[sp,#0x10]
	ldr         x9,[sp,#0x10]
	mov         w8,#0x74
	strb        w8,[x9]
	ldr         x8,[sp,#0x10]
	add         x8,x8,#1
	str         x8,[sp,#0x10]
	ldr         x9,[sp,#0x10]
	mov         w8,#0x72
	strb        w8,[x9]
	ldr         x8,[sp,#0x10]
	add         x8,x8,#1
	str         x8,[sp,#0x10]
	ldr         x9,[sp,#0x10]
	mov         w8,#0x75
	strb        w8,[x9]
	ldr         x8,[sp,#0x10]
	add         x8,x8,#1
	str         x8,[sp,#0x10]
	ldr         x9,[sp,#0x10]
	mov         w8,#0x6E
	strb        w8,[x9]
	ldr         x8,[sp,#0x10]
	add         x8,x8,#1
	str         x8,[sp,#0x10]
	ldr         w8,[sp,#0x20]
	lsr         w8,w8,#0x18
	uxtb        w9,w8
	ldr         x8,[sp,#0x10]
	strb        w9,[x8]
	ldr         x8,[sp,#0x10]
	add         x8,x8,#1
	str         x8,[sp,#0x10]
	ldr         w8,[sp,#0x20]
	lsr         w8,w8,#0x10
	uxtb        w9,w8
	ldr         x8,[sp,#0x10]
	strb        w9,[x8]
	ldr         x8,[sp,#0x10]
	add         x8,x8,#1
	str         x8,[sp,#0x10]
	ldr         w8,[sp,#0x20]
	lsr         w8,w8,#8
	uxtb        w9,w8
	ldr         x8,[sp,#0x10]
	strb        w9,[x8]
	ldr         x8,[sp,#0x10]
	add         x8,x8,#1
	str         x8,[sp,#0x10]
	ldr         w8,[sp,#0x20]
	uxtb        w9,w8
	ldr         x8,[sp,#0x10]
	strb        w9,[x8]
	ldr         x8,[sp,#0x10]
	add         x8,x8,#1
	str         x8,[sp,#0x10]

; 1060 :                 WRITE_4(1);         // sample_count

	ldr         x9,[sp,#0x10]
	mov         w8,#0
	strb        w8,[x9]
	ldr         x8,[sp,#0x10]
	add         x8,x8,#1
	str         x8,[sp,#0x10]
	ldr         x9,[sp,#0x10]
	mov         w8,#0
	strb        w8,[x9]
	ldr         x8,[sp,#0x10]
	add         x8,x8,#1
	str         x8,[sp,#0x10]
	ldr         x9,[sp,#0x10]
	mov         w8,#0
	strb        w8,[x9]
	ldr         x8,[sp,#0x10]
	add         x8,x8,#1
	str         x8,[sp,#0x10]
	ldr         x9,[sp,#0x10]
	mov         w8,#1
	strb        w8,[x9]
	ldr         x8,[sp,#0x10]
	add         x8,x8,#1
	str         x8,[sp,#0x10]

; 1061 :             pdata_offset = p; p += 4;   // save ptr to data_offset

	ldr         x8,[sp,#0x10]
	str         x8,[sp,#0x38]
	ldr         x8,[sp,#0x10]
	add         x8,x8,#4
	str         x8,[sp,#0x10]

; 1062 :             WRITE_4(0x2000000); // first_sample_flags

	ldr         x9,[sp,#0x10]
	mov         w8,#2
	strb        w8,[x9]
	ldr         x8,[sp,#0x10]
	add         x8,x8,#1
	str         x8,[sp,#0x10]
	ldr         x9,[sp,#0x10]
	mov         w8,#0
	strb        w8,[x9]
	ldr         x8,[sp,#0x10]
	add         x8,x8,#1
	str         x8,[sp,#0x10]
	ldr         x9,[sp,#0x10]
	mov         w8,#0
	strb        w8,[x9]
	ldr         x8,[sp,#0x10]
	add         x8,x8,#1
	str         x8,[sp,#0x10]
	ldr         x9,[sp,#0x10]
	mov         w8,#0
	strb        w8,[x9]
	ldr         x8,[sp,#0x10]
	add         x8,x8,#1
	str         x8,[sp,#0x10]

; 1063 :             WRITE_4(duration);  // sample_duration

	ldr         w8,[sp,#0x24]
	asr         w8,w8,#0x18
	uxtb        w9,w8
	ldr         x8,[sp,#0x10]
	strb        w9,[x8]
	ldr         x8,[sp,#0x10]
	add         x8,x8,#1
	str         x8,[sp,#0x10]
	ldr         w8,[sp,#0x24]
	asr         w8,w8,#0x10
	uxtb        w9,w8
	ldr         x8,[sp,#0x10]
	strb        w9,[x8]
	ldr         x8,[sp,#0x10]
	add         x8,x8,#1
	str         x8,[sp,#0x10]
	ldr         w8,[sp,#0x24]
	asr         w8,w8,#8
	uxtb        w9,w8
	ldr         x8,[sp,#0x10]
	strb        w9,[x8]
	ldr         x8,[sp,#0x10]
	add         x8,x8,#1
	str         x8,[sp,#0x10]
	ldr         w8,[sp,#0x24]
	uxtb        w9,w8
	ldr         x8,[sp,#0x10]
	strb        w9,[x8]
	ldr         x8,[sp,#0x10]
	add         x8,x8,#1
	str         x8,[sp,#0x10]

; 1064 :             WRITE_4(data_bytes);// sample_size

	ldr         w8,[sp,#0x28]
	asr         w8,w8,#0x18
	uxtb        w9,w8
	ldr         x8,[sp,#0x10]
	strb        w9,[x8]
	ldr         x8,[sp,#0x10]
	add         x8,x8,#1
	str         x8,[sp,#0x10]
	ldr         w8,[sp,#0x28]
	asr         w8,w8,#0x10
	uxtb        w9,w8
	ldr         x8,[sp,#0x10]
	strb        w9,[x8]
	ldr         x8,[sp,#0x10]
	add         x8,x8,#1
	str         x8,[sp,#0x10]
	ldr         w8,[sp,#0x28]
	asr         w8,w8,#8
	uxtb        w9,w8
	ldr         x8,[sp,#0x10]
	strb        w9,[x8]
	ldr         x8,[sp,#0x10]
	add         x8,x8,#1
	str         x8,[sp,#0x10]
	ldr         w8,[sp,#0x28]
	uxtb        w9,w8
	ldr         x8,[sp,#0x10]
	strb        w9,[x8]
	ldr         x8,[sp,#0x10]
	add         x8,x8,#1
	str         x8,[sp,#0x10]

; 1065 :             END_ATOM

	ldr         x8,[sp,#0x18]
	sub         x8,x8,#8
	str         x8,[sp,#0x18]
	ldr         x9,[sp,#0x10]
	ldr         x8,[sp,#0x18]
	ldr         x8,[x8]
	sub         x8,x9,x8
	asr         x8,x8,#0x18
	uxtb        w9,w8
	ldr         x8,[sp,#0x18]
	ldr         x8,[x8]
	strb        w9,[x8]
	ldr         x9,[sp,#0x10]
	ldr         x8,[sp,#0x18]
	ldr         x8,[x8]
	sub         x8,x9,x8
	asr         x8,x8,#0x10
	uxtb        w9,w8
	ldr         x8,[sp,#0x18]
	ldr         x8,[x8]
	add         x8,x8,#1
	strb        w9,[x8]
	ldr         x9,[sp,#0x10]
	ldr         x8,[sp,#0x18]
	ldr         x8,[x8]
	sub         x8,x9,x8
	asr         x8,x8,#8
	uxtb        w9,w8
	ldr         x8,[sp,#0x18]
	ldr         x8,[x8]
	add         x8,x8,#2
	strb        w9,[x8]
	ldr         x9,[sp,#0x10]
	ldr         x8,[sp,#0x18]
	ldr         x8,[x8]
	sub         x8,x9,x8
	uxtb        w9,w8
	ldr         x8,[sp,#0x18]
	ldr         x8,[x8]
	add         x8,x8,#3
	strb        w9,[x8]

; 1066 :         }

	b           |$LN9@mp4e_write|
|$LN8@mp4e_write|

; 1067 :         else
; 1068 :         {
; 1069 :             flags = 0;

	mov         w8,#0
	str         w8,[sp,#0x20]

; 1070 :             flags |= 0x001;         // data-offset-present

	ldr         w8,[sp,#0x20]
	orr         w8,w8,#1
	str         w8,[sp,#0x20]

; 1071 :             flags |= 0x100;         // sample-duration-present

	ldr         w8,[sp,#0x20]
	orr         w8,w8,#0x100
	str         w8,[sp,#0x20]

; 1072 :             flags |= 0x200;         // sample-size-present

	ldr         w8,[sp,#0x20]
	orr         w8,w8,#0x200
	str         w8,[sp,#0x20]

; 1073 :             ATOM_FULL(BOX_trun, flags)

	ldr         x9,[sp,#0x18]
	ldr         x8,[sp,#0x10]
	str         x8,[x9]
	ldr         x8,[sp,#0x18]
	add         x8,x8,#8
	str         x8,[sp,#0x18]
	ldr         x8,[sp,#0x10]
	add         x8,x8,#4
	str         x8,[sp,#0x10]
	ldr         x9,[sp,#0x10]
	mov         w8,#0x74
	strb        w8,[x9]
	ldr         x8,[sp,#0x10]
	add         x8,x8,#1
	str         x8,[sp,#0x10]
	ldr         x9,[sp,#0x10]
	mov         w8,#0x72
	strb        w8,[x9]
	ldr         x8,[sp,#0x10]
	add         x8,x8,#1
	str         x8,[sp,#0x10]
	ldr         x9,[sp,#0x10]
	mov         w8,#0x75
	strb        w8,[x9]
	ldr         x8,[sp,#0x10]
	add         x8,x8,#1
	str         x8,[sp,#0x10]
	ldr         x9,[sp,#0x10]
	mov         w8,#0x6E
	strb        w8,[x9]
	ldr         x8,[sp,#0x10]
	add         x8,x8,#1
	str         x8,[sp,#0x10]
	ldr         w8,[sp,#0x20]
	lsr         w8,w8,#0x18
	uxtb        w9,w8
	ldr         x8,[sp,#0x10]
	strb        w9,[x8]
	ldr         x8,[sp,#0x10]
	add         x8,x8,#1
	str         x8,[sp,#0x10]
	ldr         w8,[sp,#0x20]
	lsr         w8,w8,#0x10
	uxtb        w9,w8
	ldr         x8,[sp,#0x10]
	strb        w9,[x8]
	ldr         x8,[sp,#0x10]
	add         x8,x8,#1
	str         x8,[sp,#0x10]
	ldr         w8,[sp,#0x20]
	lsr         w8,w8,#8
	uxtb        w9,w8
	ldr         x8,[sp,#0x10]
	strb        w9,[x8]
	ldr         x8,[sp,#0x10]
	add         x8,x8,#1
	str         x8,[sp,#0x10]
	ldr         w8,[sp,#0x20]
	uxtb        w9,w8
	ldr         x8,[sp,#0x10]
	strb        w9,[x8]
	ldr         x8,[sp,#0x10]
	add         x8,x8,#1
	str         x8,[sp,#0x10]

; 1074 :                 WRITE_4(1);         // sample_count

	ldr         x9,[sp,#0x10]
	mov         w8,#0
	strb        w8,[x9]
	ldr         x8,[sp,#0x10]
	add         x8,x8,#1
	str         x8,[sp,#0x10]
	ldr         x9,[sp,#0x10]
	mov         w8,#0
	strb        w8,[x9]
	ldr         x8,[sp,#0x10]
	add         x8,x8,#1
	str         x8,[sp,#0x10]
	ldr         x9,[sp,#0x10]
	mov         w8,#0
	strb        w8,[x9]
	ldr         x8,[sp,#0x10]
	add         x8,x8,#1
	str         x8,[sp,#0x10]
	ldr         x9,[sp,#0x10]
	mov         w8,#1
	strb        w8,[x9]
	ldr         x8,[sp,#0x10]
	add         x8,x8,#1
	str         x8,[sp,#0x10]

; 1075 :             pdata_offset = p; p += 4;   // save ptr to data_offset

	ldr         x8,[sp,#0x10]
	str         x8,[sp,#0x38]
	ldr         x8,[sp,#0x10]
	add         x8,x8,#4
	str         x8,[sp,#0x10]

; 1076 :             WRITE_4(duration);  // sample_duration

	ldr         w8,[sp,#0x24]
	asr         w8,w8,#0x18
	uxtb        w9,w8
	ldr         x8,[sp,#0x10]
	strb        w9,[x8]
	ldr         x8,[sp,#0x10]
	add         x8,x8,#1
	str         x8,[sp,#0x10]
	ldr         w8,[sp,#0x24]
	asr         w8,w8,#0x10
	uxtb        w9,w8
	ldr         x8,[sp,#0x10]
	strb        w9,[x8]
	ldr         x8,[sp,#0x10]
	add         x8,x8,#1
	str         x8,[sp,#0x10]
	ldr         w8,[sp,#0x24]
	asr         w8,w8,#8
	uxtb        w9,w8
	ldr         x8,[sp,#0x10]
	strb        w9,[x8]
	ldr         x8,[sp,#0x10]
	add         x8,x8,#1
	str         x8,[sp,#0x10]
	ldr         w8,[sp,#0x24]
	uxtb        w9,w8
	ldr         x8,[sp,#0x10]
	strb        w9,[x8]
	ldr         x8,[sp,#0x10]
	add         x8,x8,#1
	str         x8,[sp,#0x10]

; 1077 :             WRITE_4(data_bytes);// sample_size

	ldr         w8,[sp,#0x28]
	asr         w8,w8,#0x18
	uxtb        w9,w8
	ldr         x8,[sp,#0x10]
	strb        w9,[x8]
	ldr         x8,[sp,#0x10]
	add         x8,x8,#1
	str         x8,[sp,#0x10]
	ldr         w8,[sp,#0x28]
	asr         w8,w8,#0x10
	uxtb        w9,w8
	ldr         x8,[sp,#0x10]
	strb        w9,[x8]
	ldr         x8,[sp,#0x10]
	add         x8,x8,#1
	str         x8,[sp,#0x10]
	ldr         w8,[sp,#0x28]
	asr         w8,w8,#8
	uxtb        w9,w8
	ldr         x8,[sp,#0x10]
	strb        w9,[x8]
	ldr         x8,[sp,#0x10]
	add         x8,x8,#1
	str         x8,[sp,#0x10]
	ldr         w8,[sp,#0x28]
	uxtb        w9,w8
	ldr         x8,[sp,#0x10]
	strb        w9,[x8]
	ldr         x8,[sp,#0x10]
	add         x8,x8,#1
	str         x8,[sp,#0x10]

; 1078 :             END_ATOM

	ldr         x8,[sp,#0x18]
	sub         x8,x8,#8
	str         x8,[sp,#0x18]
	ldr         x9,[sp,#0x10]
	ldr         x8,[sp,#0x18]
	ldr         x8,[x8]
	sub         x8,x9,x8
	asr         x8,x8,#0x18
	uxtb        w9,w8
	ldr         x8,[sp,#0x18]
	ldr         x8,[x8]
	strb        w9,[x8]
	ldr         x9,[sp,#0x10]
	ldr         x8,[sp,#0x18]
	ldr         x8,[x8]
	sub         x8,x9,x8
	asr         x8,x8,#0x10
	uxtb        w9,w8
	ldr         x8,[sp,#0x18]
	ldr         x8,[x8]
	add         x8,x8,#1
	strb        w9,[x8]
	ldr         x9,[sp,#0x10]
	ldr         x8,[sp,#0x18]
	ldr         x8,[x8]
	sub         x8,x9,x8
	asr         x8,x8,#8
	uxtb        w9,w8
	ldr         x8,[sp,#0x18]
	ldr         x8,[x8]
	add         x8,x8,#2
	strb        w9,[x8]
	ldr         x9,[sp,#0x10]
	ldr         x8,[sp,#0x18]
	ldr         x8,[x8]
	sub         x8,x9,x8
	uxtb        w9,w8
	ldr         x8,[sp,#0x18]
	ldr         x8,[x8]
	add         x8,x8,#3
	strb        w9,[x8]
|$LN9@mp4e_write|
|$LN7@mp4e_write|

; 1079 :         }
; 1080 :     END_ATOM

	ldr         x8,[sp,#0x18]
	sub         x8,x8,#8
	str         x8,[sp,#0x18]
	ldr         x9,[sp,#0x10]
	ldr         x8,[sp,#0x18]
	ldr         x8,[x8]
	sub         x8,x9,x8
	asr         x8,x8,#0x18
	uxtb        w9,w8
	ldr         x8,[sp,#0x18]
	ldr         x8,[x8]
	strb        w9,[x8]
	ldr         x9,[sp,#0x10]
	ldr         x8,[sp,#0x18]
	ldr         x8,[x8]
	sub         x8,x9,x8
	asr         x8,x8,#0x10
	uxtb        w9,w8
	ldr         x8,[sp,#0x18]
	ldr         x8,[x8]
	add         x8,x8,#1
	strb        w9,[x8]
	ldr         x9,[sp,#0x10]
	ldr         x8,[sp,#0x18]
	ldr         x8,[x8]
	sub         x8,x9,x8
	asr         x8,x8,#8
	uxtb        w9,w8
	ldr         x8,[sp,#0x18]
	ldr         x8,[x8]
	add         x8,x8,#2
	strb        w9,[x8]
	ldr         x9,[sp,#0x10]
	ldr         x8,[sp,#0x18]
	ldr         x8,[x8]
	sub         x8,x9,x8
	uxtb        w9,w8
	ldr         x8,[sp,#0x18]
	ldr         x8,[x8]
	add         x8,x8,#3
	strb        w9,[x8]

; 1081 :         END_ATOM

	ldr         x8,[sp,#0x18]
	sub         x8,x8,#8
	str         x8,[sp,#0x18]
	ldr         x9,[sp,#0x10]
	ldr         x8,[sp,#0x18]
	ldr         x8,[x8]
	sub         x8,x9,x8
	asr         x8,x8,#0x18
	uxtb        w9,w8
	ldr         x8,[sp,#0x18]
	ldr         x8,[x8]
	strb        w9,[x8]
	ldr         x9,[sp,#0x10]
	ldr         x8,[sp,#0x18]
	ldr         x8,[x8]
	sub         x8,x9,x8
	asr         x8,x8,#0x10
	uxtb        w9,w8
	ldr         x8,[sp,#0x18]
	ldr         x8,[x8]
	add         x8,x8,#1
	strb        w9,[x8]
	ldr         x9,[sp,#0x10]
	ldr         x8,[sp,#0x18]
	ldr         x8,[x8]
	sub         x8,x9,x8
	asr         x8,x8,#8
	uxtb        w9,w8
	ldr         x8,[sp,#0x18]
	ldr         x8,[x8]
	add         x8,x8,#2
	strb        w9,[x8]
	ldr         x9,[sp,#0x10]
	ldr         x8,[sp,#0x18]
	ldr         x8,[x8]
	sub         x8,x9,x8
	uxtb        w9,w8
	ldr         x8,[sp,#0x18]
	ldr         x8,[x8]
	add         x8,x8,#3
	strb        w9,[x8]

; 1082 :         WR4(pdata_offset, (p - base) + 8);

	ldr         x9,[sp,#0x10]
	add         x8,sp,#0x58
	sub         x8,x9,x8
	add         x8,x8,#8
	asr         x8,x8,#0x18
	uxtb        w9,w8
	ldr         x8,[sp,#0x38]
	strb        w9,[x8]
	ldr         x9,[sp,#0x10]
	add         x8,sp,#0x58
	sub         x8,x9,x8
	add         x8,x8,#8
	asr         x8,x8,#0x10
	uxtb        w9,w8
	ldr         x8,[sp,#0x38]
	add         x8,x8,#1
	strb        w9,[x8]
	ldr         x9,[sp,#0x10]
	add         x8,sp,#0x58
	sub         x8,x9,x8
	add         x8,x8,#8
	asr         x8,x8,#8
	uxtb        w9,w8
	ldr         x8,[sp,#0x38]
	add         x8,x8,#2
	strb        w9,[x8]
	ldr         x9,[sp,#0x10]
	add         x8,sp,#0x58
	sub         x8,x9,x8
	add         x8,x8,#8
	uxtb        w9,w8
	ldr         x8,[sp,#0x38]
	add         x8,x8,#3
	strb        w9,[x8]

; 1083 : 
; 1084 :     ERR(mux->write_callback(mux->write_pos, base, p - base, mux->token));

	ldr         x8,[sp,#0x30]
	add         x10,x8,#0x20
	ldr         x9,[sp,#0x10]
	add         x8,sp,#0x58
	sub         x2,x9,x8
	ldr         x8,[sp,#0x30]
	add         x9,x8,#0x10
	ldr         x8,[sp,#0x30]
	add         x8,x8,#0x18
	ldr         x3,[x10]
	add         x1,sp,#0x58
	ldr         x0,[x9]
	ldr         x8,[x8]
	blr         x8
	mov         w0,w0
	str         w0,[sp,#0x44]
	ldr         w8,[sp,#0x44]
	cmp         w8,#0
	beq         |$LN10@mp4e_write|
	ldr         w0,[sp,#0x44]
	b           |$LN1@mp4e_write|
|$LN10@mp4e_write|

; 1085 :     mux->write_pos += p - base;

	ldr         x8,[sp,#0x30]
	add         x10,x8,#0x10
	ldr         x9,[sp,#0x10]
	add         x8,sp,#0x58
	sub         x9,x9,x8
	ldr         x8,[x10]
	add         x9,x8,x9
	ldr         x8,[sp,#0x30]
	add         x8,x8,#0x10
	str         x9,[x8]

; 1086 :     return MP4E_STATUS_OK;

	mov         w0,#0
|$LN1@mp4e_write|
	ldp         fp,lr,[sp]
	add         sp,sp,#0x470
	ret
	nop
|$LN14@mp4e_write|
	DCD         0x20020
|$LN15@mp4e_write|
	DCD         0x20008

	ENDP  ; |?mp4e_write_fragment_header@@YAHPEAUMP4E_mux_tag@@HHHH@Z|, mp4e_write_fragment_header

; Function compile flags: /Odtp
; File C:\Users\paras\source\repos\grep-name\XenevaOS\Process\AudioPlayer\minimp4.h

	AREA	|.text$mn|, CODE, ARM64

|?mp4e_flush_index@@YAHPEAUMP4E_mux_tag@@@Z| PROC	; mp4e_flush_index

; 1196 : {

	stp         fp,lr,[sp,#-0x1A0]!
	mov         fp,sp
	str         x0,[sp,#0x48]

; 1197 :     unsigned char* stack_base[20]; // atoms nesting stack
; 1198 :     unsigned char** stack = stack_base;

	add         x8,sp,#0x100
	str         x8,[sp,#0x18]

; 1199 :     unsigned char* base, * p;
; 1200 :     unsigned int ntr, index_bytes, ntracks = mux->tracks.bytes / sizeof(track_t);

	ldr         x8,[sp,#0x48]
	add         x8,x8,#8
	ldr         w8,[x8]
	sxtw        x9,w8
	mov         x8,#0x70
	udiv        x8,x9,x8
	mov         w8,w8
	str         w8,[sp,#0x58]

; 1201 :     int i, err;
; 1202 : 
; 1203 :     // How much memory needed for indexes
; 1204 :     // Experimental data:
; 1205 :     // file with 1 track = 560 bytes
; 1206 :     // file with 2 tracks = 972 bytes
; 1207 :     // track size = 412 bytes;
; 1208 :     // file header size = 148 bytes
; 1209 : #define FILE_HEADER_BYTES 256
; 1210 : #define TRACK_HEADER_BYTES 512
; 1211 :     index_bytes = FILE_HEADER_BYTES;

	mov         w8,#0x100
	str         w8,[sp,#0x38]

; 1212 :     if (mux->text_comment)

	ldr         x8,[sp,#0x48]
	add         x8,x8,#0x28
	ldr         x8,[x8]
	cmp         x8,#0
	beq         |$LN67@mp4e_flush|

; 1213 :         index_bytes += 128 + strlen(mux->text_comment);

	ldr         x8,[sp,#0x48]
	add         x8,x8,#0x28
	ldr         x0,[x8]
	bl          strlen
	add         x9,x0,#0x80
	ldr         w8,[sp,#0x38]
	uxtw        x8,w8
	add         x8,x8,x9
	mov         w8,w8
	str         w8,[sp,#0x38]
|$LN67@mp4e_flush|

; 1214 :     for (ntr = 0; ntr < ntracks; ntr++)

	mov         w8,#0
	str         w8,[sp,#0x34]
	b           |$LN4@mp4e_flush|
|$LN2@mp4e_flush|
	ldr         w8,[sp,#0x34]
	add         w8,w8,#1
	str         w8,[sp,#0x34]
|$LN4@mp4e_flush|
	ldr         w9,[sp,#0x58]
	ldr         w8,[sp,#0x34]
	cmp         w8,w9
	bhs         |$LN3@mp4e_flush|

; 1215 :     {
; 1216 :         track_t* tr = ((track_t*)mux->tracks.data) + ntr;

	ldr         x10,[sp,#0x48]
	ldr         w8,[sp,#0x34]
	uxtw        x9,w8
	mov         x8,#0x70
	mul         x9,x9,x8
	ldr         x8,[x10]
	add         x8,x8,x9
	str         x8,[sp,#0xC8]

; 1217 :         index_bytes += TRACK_HEADER_BYTES;          // fixed amount (implementation-dependent)

	ldr         w8,[sp,#0x38]
	add         w8,w8,#0x200
	str         w8,[sp,#0x38]

; 1218 :         // may need extra 4 bytes for duration field + 4 bytes for worst-case random access box
; 1219 :         index_bytes += tr->smpl.bytes * (sizeof(sample_t) + 4 + 4) / sizeof(sample_t);

	ldr         x8,[sp,#0xC8]
	add         x8,x8,#0x20
	add         x8,x8,#8
	ldr         w8,[x8]
	sxtw        x9,w8
	mov         x8,#0x20
	mul         x9,x9,x8
	mov         x8,#0x18
	udiv        x9,x9,x8
	ldr         w8,[sp,#0x38]
	uxtw        x8,w8
	add         x8,x8,x9
	mov         w8,w8
	str         w8,[sp,#0x38]

; 1220 :         index_bytes += tr->vsps.bytes;

	ldr         x8,[sp,#0xC8]
	add         x8,x8,#0x40
	add         x8,x8,#8
	ldr         w9,[sp,#0x38]
	ldr         w8,[x8]
	add         w8,w9,w8
	str         w8,[sp,#0x38]

; 1221 :         index_bytes += tr->vpps.bytes;

	ldr         x8,[sp,#0xC8]
	add         x8,x8,#0x50
	add         x8,x8,#8
	ldr         w9,[sp,#0x38]
	ldr         w8,[x8]
	add         w8,w9,w8
	str         w8,[sp,#0x38]

; 1222 : 
; 1223 :         ERR(write_pending_data(mux, tr));

	ldr         x1,[sp,#0xC8]
	ldr         x0,[sp,#0x48]
	bl          |?write_pending_data@@YAHPEAUMP4E_mux_tag@@PEAUtrack_t@@@Z|
	mov         w0,w0
	str         w0,[sp,#0xA0]
	ldr         w8,[sp,#0xA0]
	cmp         w8,#0
	beq         |$LN68@mp4e_flush|
	ldr         w0,[sp,#0xA0]
	b           |$LN1@mp4e_flush|
|$LN68@mp4e_flush|

; 1224 :     }

	b           |$LN2@mp4e_flush|
|$LN3@mp4e_flush|

; 1225 : 
; 1226 :     base = (unsigned char*)malloc(index_bytes);

	ldr         w0,[sp,#0x38]
	bl          malloc
	str         x0,[sp,#0x88]

; 1227 :     if (!base)

	ldr         x8,[sp,#0x88]
	cmp         x8,#0
	bne         |$LN69@mp4e_flush|

; 1228 :         return MP4E_STATUS_NO_MEMORY;

	mov         w0,#-2
	b           |$LN1@mp4e_flush|
|$LN69@mp4e_flush|

; 1229 :     p = base;

	ldr         x8,[sp,#0x88]
	str         x8,[sp,#0x10]

; 1230 : 
; 1231 :     if (!mux->sequential_mode_flag)

	ldr         x8,[sp,#0x48]
	add         x8,x8,#0x30
	ldr         w8,[x8]
	cmp         w8,#0
	bne         |$LN70@mp4e_flush|

; 1232 :     {
; 1233 :         // update size of mdat box.
; 1234 :         // One of 2 points, which requires random file access.
; 1235 :         // Second is optional duration update at beginning of file in fragmentation mode.
; 1236 :         // This can be avoided using "till eof" size code, but in this case indexes must be
; 1237 :         // written before the mdat....
; 1238 :         int64_t size = mux->write_pos - sizeof(box_ftyp);

	ldr         x8,[sp,#0x48]
	add         x8,x8,#0x10
	ldr         x8,[x8]
	sub         x8,x8,#0x18
	str         x8,[sp,#0x78]

; 1239 :         const int64_t size_limit = (int64_t)(uint64_t)0xfffffffe;

	mov         x8,#0xFFFFFFFE
	str         x8,[sp,#0xF8]

; 1240 :         if (size > size_limit)

	mov         x9,#0xFFFFFFFE
	ldr         x8,[sp,#0x78]
	cmp         x8,x9
	ble         |$LN71@mp4e_flush|

; 1241 :         {
; 1242 :             WRITE_4(1);

	ldr         x9,[sp,#0x10]
	mov         w8,#0
	strb        w8,[x9]
	ldr         x8,[sp,#0x10]
	add         x8,x8,#1
	str         x8,[sp,#0x10]
	ldr         x9,[sp,#0x10]
	mov         w8,#0
	strb        w8,[x9]
	ldr         x8,[sp,#0x10]
	add         x8,x8,#1
	str         x8,[sp,#0x10]
	ldr         x9,[sp,#0x10]
	mov         w8,#0
	strb        w8,[x9]
	ldr         x8,[sp,#0x10]
	add         x8,x8,#1
	str         x8,[sp,#0x10]
	ldr         x9,[sp,#0x10]
	mov         w8,#1
	strb        w8,[x9]
	ldr         x8,[sp,#0x10]
	add         x8,x8,#1
	str         x8,[sp,#0x10]

; 1243 :             WRITE_4(BOX_mdat);

	ldr         x9,[sp,#0x10]
	mov         w8,#0x6D
	strb        w8,[x9]
	ldr         x8,[sp,#0x10]
	add         x8,x8,#1
	str         x8,[sp,#0x10]
	ldr         x9,[sp,#0x10]
	mov         w8,#0x64
	strb        w8,[x9]
	ldr         x8,[sp,#0x10]
	add         x8,x8,#1
	str         x8,[sp,#0x10]
	ldr         x9,[sp,#0x10]
	mov         w8,#0x61
	strb        w8,[x9]
	ldr         x8,[sp,#0x10]
	add         x8,x8,#1
	str         x8,[sp,#0x10]
	ldr         x9,[sp,#0x10]
	mov         w8,#0x74
	strb        w8,[x9]
	ldr         x8,[sp,#0x10]
	add         x8,x8,#1
	str         x8,[sp,#0x10]

; 1244 :             WRITE_4((size >> 32) & 0xffffffff);

	ldr         x8,[sp,#0x78]
	asr         x8,x8,#0x20
	and         x8,x8,#0xFFFFFFFF
	asr         x8,x8,#0x18
	uxtb        w9,w8
	ldr         x8,[sp,#0x10]
	strb        w9,[x8]
	ldr         x8,[sp,#0x10]
	add         x8,x8,#1
	str         x8,[sp,#0x10]
	ldr         x8,[sp,#0x78]
	asr         x8,x8,#0x20
	and         x8,x8,#0xFFFFFFFF
	asr         x8,x8,#0x10
	uxtb        w9,w8
	ldr         x8,[sp,#0x10]
	strb        w9,[x8]
	ldr         x8,[sp,#0x10]
	add         x8,x8,#1
	str         x8,[sp,#0x10]
	ldr         x8,[sp,#0x78]
	asr         x8,x8,#0x20
	and         x8,x8,#0xFFFFFFFF
	asr         x8,x8,#8
	uxtb        w9,w8
	ldr         x8,[sp,#0x10]
	strb        w9,[x8]
	ldr         x8,[sp,#0x10]
	add         x8,x8,#1
	str         x8,[sp,#0x10]
	ldr         x8,[sp,#0x78]
	asr         x8,x8,#0x20
	and         x8,x8,#0xFFFFFFFF
	uxtb        w9,w8
	ldr         x8,[sp,#0x10]
	strb        w9,[x8]
	ldr         x8,[sp,#0x10]
	add         x8,x8,#1
	str         x8,[sp,#0x10]

; 1245 :             WRITE_4(size & 0xffffffff);

	ldr         x8,[sp,#0x78]
	and         x8,x8,#0xFFFFFFFF
	asr         x8,x8,#0x18
	uxtb        w9,w8
	ldr         x8,[sp,#0x10]
	strb        w9,[x8]
	ldr         x8,[sp,#0x10]
	add         x8,x8,#1
	str         x8,[sp,#0x10]
	ldr         x8,[sp,#0x78]
	and         x8,x8,#0xFFFFFFFF
	asr         x8,x8,#0x10
	uxtb        w9,w8
	ldr         x8,[sp,#0x10]
	strb        w9,[x8]
	ldr         x8,[sp,#0x10]
	add         x8,x8,#1
	str         x8,[sp,#0x10]
	ldr         x8,[sp,#0x78]
	and         x8,x8,#0xFFFFFFFF
	asr         x8,x8,#8
	uxtb        w9,w8
	ldr         x8,[sp,#0x10]
	strb        w9,[x8]
	ldr         x8,[sp,#0x10]
	add         x8,x8,#1
	str         x8,[sp,#0x10]
	ldr         x8,[sp,#0x78]
	and         x8,x8,#0xFFFFFFFF
	uxtb        w9,w8
	ldr         x8,[sp,#0x10]
	strb        w9,[x8]
	ldr         x8,[sp,#0x10]
	add         x8,x8,#1
	str         x8,[sp,#0x10]

; 1246 :         }

	b           |$LN72@mp4e_flush|
|$LN71@mp4e_flush|

; 1247 :         else
; 1248 :         {
; 1249 :             WRITE_4(8);

	ldr         x9,[sp,#0x10]
	mov         w8,#0
	strb        w8,[x9]
	ldr         x8,[sp,#0x10]
	add         x8,x8,#1
	str         x8,[sp,#0x10]
	ldr         x9,[sp,#0x10]
	mov         w8,#0
	strb        w8,[x9]
	ldr         x8,[sp,#0x10]
	add         x8,x8,#1
	str         x8,[sp,#0x10]
	ldr         x9,[sp,#0x10]
	mov         w8,#0
	strb        w8,[x9]
	ldr         x8,[sp,#0x10]
	add         x8,x8,#1
	str         x8,[sp,#0x10]
	ldr         x9,[sp,#0x10]
	mov         w8,#8
	strb        w8,[x9]
	ldr         x8,[sp,#0x10]
	add         x8,x8,#1
	str         x8,[sp,#0x10]

; 1250 :             WRITE_4(BOX_free);

	ldr         x9,[sp,#0x10]
	mov         w8,#0x66
	strb        w8,[x9]
	ldr         x8,[sp,#0x10]
	add         x8,x8,#1
	str         x8,[sp,#0x10]
	ldr         x9,[sp,#0x10]
	mov         w8,#0x72
	strb        w8,[x9]
	ldr         x8,[sp,#0x10]
	add         x8,x8,#1
	str         x8,[sp,#0x10]
	ldr         x9,[sp,#0x10]
	mov         w8,#0x65
	strb        w8,[x9]
	ldr         x8,[sp,#0x10]
	add         x8,x8,#1
	str         x8,[sp,#0x10]
	ldr         x9,[sp,#0x10]
	mov         w8,#0x65
	strb        w8,[x9]
	ldr         x8,[sp,#0x10]
	add         x8,x8,#1
	str         x8,[sp,#0x10]

; 1251 :             WRITE_4(size - 8);

	ldr         x8,[sp,#0x78]
	sub         x8,x8,#8
	asr         x8,x8,#0x18
	uxtb        w9,w8
	ldr         x8,[sp,#0x10]
	strb        w9,[x8]
	ldr         x8,[sp,#0x10]
	add         x8,x8,#1
	str         x8,[sp,#0x10]
	ldr         x8,[sp,#0x78]
	sub         x8,x8,#8
	asr         x8,x8,#0x10
	uxtb        w9,w8
	ldr         x8,[sp,#0x10]
	strb        w9,[x8]
	ldr         x8,[sp,#0x10]
	add         x8,x8,#1
	str         x8,[sp,#0x10]
	ldr         x8,[sp,#0x78]
	sub         x8,x8,#8
	asr         x8,x8,#8
	uxtb        w9,w8
	ldr         x8,[sp,#0x10]
	strb        w9,[x8]
	ldr         x8,[sp,#0x10]
	add         x8,x8,#1
	str         x8,[sp,#0x10]
	ldr         x8,[sp,#0x78]
	sub         x8,x8,#8
	uxtb        w9,w8
	ldr         x8,[sp,#0x10]
	strb        w9,[x8]
	ldr         x8,[sp,#0x10]
	add         x8,x8,#1
	str         x8,[sp,#0x10]

; 1252 :             WRITE_4(BOX_mdat);

	ldr         x9,[sp,#0x10]
	mov         w8,#0x6D
	strb        w8,[x9]
	ldr         x8,[sp,#0x10]
	add         x8,x8,#1
	str         x8,[sp,#0x10]
	ldr         x9,[sp,#0x10]
	mov         w8,#0x64
	strb        w8,[x9]
	ldr         x8,[sp,#0x10]
	add         x8,x8,#1
	str         x8,[sp,#0x10]
	ldr         x9,[sp,#0x10]
	mov         w8,#0x61
	strb        w8,[x9]
	ldr         x8,[sp,#0x10]
	add         x8,x8,#1
	str         x8,[sp,#0x10]
	ldr         x9,[sp,#0x10]
	mov         w8,#0x74
	strb        w8,[x9]
	ldr         x8,[sp,#0x10]
	add         x8,x8,#1
	str         x8,[sp,#0x10]
|$LN72@mp4e_flush|

; 1253 :         }
; 1254 :         ERR(mux->write_callback(sizeof(box_ftyp), base, p - base, mux->token));

	ldr         x8,[sp,#0x48]
	add         x10,x8,#0x20
	ldr         x9,[sp,#0x10]
	ldr         x8,[sp,#0x88]
	sub         x2,x9,x8
	ldr         x8,[sp,#0x48]
	add         x8,x8,#0x18
	ldr         x3,[x10]
	ldr         x1,[sp,#0x88]
	mov         x0,#0x18
	ldr         x8,[x8]
	blr         x8
	mov         w0,w0
	str         w0,[sp,#0xA4]
	ldr         w8,[sp,#0xA4]
	cmp         w8,#0
	beq         |$LN73@mp4e_flush|
	ldr         w0,[sp,#0xA4]
	b           |$LN1@mp4e_flush|
|$LN73@mp4e_flush|

; 1255 :         p = base;

	ldr         x8,[sp,#0x88]
	str         x8,[sp,#0x10]
|$LN70@mp4e_flush|

; 1256 :     }
; 1257 : 
; 1258 :     // Write index atoms; order taken from Table 1 of [1]
; 1259 : #define MOOV_TIMESCALE 1000
; 1260 :     ATOM(BOX_moov);

	ldr         x9,[sp,#0x18]
	ldr         x8,[sp,#0x10]
	str         x8,[x9]
	ldr         x8,[sp,#0x18]
	add         x8,x8,#8
	str         x8,[sp,#0x18]
	ldr         x8,[sp,#0x10]
	add         x8,x8,#4
	str         x8,[sp,#0x10]
	ldr         x9,[sp,#0x10]
	mov         w8,#0x6D
	strb        w8,[x9]
	ldr         x8,[sp,#0x10]
	add         x8,x8,#1
	str         x8,[sp,#0x10]
	ldr         x9,[sp,#0x10]
	mov         w8,#0x6F
	strb        w8,[x9]
	ldr         x8,[sp,#0x10]
	add         x8,x8,#1
	str         x8,[sp,#0x10]
	ldr         x9,[sp,#0x10]
	mov         w8,#0x6F
	strb        w8,[x9]
	ldr         x8,[sp,#0x10]
	add         x8,x8,#1
	str         x8,[sp,#0x10]
	ldr         x9,[sp,#0x10]
	mov         w8,#0x76
	strb        w8,[x9]
	ldr         x8,[sp,#0x10]
	add         x8,x8,#1
	str         x8,[sp,#0x10]

; 1261 :     ATOM_FULL(BOX_mvhd, 0);

	ldr         x9,[sp,#0x18]
	ldr         x8,[sp,#0x10]
	str         x8,[x9]
	ldr         x8,[sp,#0x18]
	add         x8,x8,#8
	str         x8,[sp,#0x18]
	ldr         x8,[sp,#0x10]
	add         x8,x8,#4
	str         x8,[sp,#0x10]
	ldr         x9,[sp,#0x10]
	mov         w8,#0x6D
	strb        w8,[x9]
	ldr         x8,[sp,#0x10]
	add         x8,x8,#1
	str         x8,[sp,#0x10]
	ldr         x9,[sp,#0x10]
	mov         w8,#0x76
	strb        w8,[x9]
	ldr         x8,[sp,#0x10]
	add         x8,x8,#1
	str         x8,[sp,#0x10]
	ldr         x9,[sp,#0x10]
	mov         w8,#0x68
	strb        w8,[x9]
	ldr         x8,[sp,#0x10]
	add         x8,x8,#1
	str         x8,[sp,#0x10]
	ldr         x9,[sp,#0x10]
	mov         w8,#0x64
	strb        w8,[x9]
	ldr         x8,[sp,#0x10]
	add         x8,x8,#1
	str         x8,[sp,#0x10]
	ldr         x9,[sp,#0x10]
	mov         w8,#0
	strb        w8,[x9]
	ldr         x8,[sp,#0x10]
	add         x8,x8,#1
	str         x8,[sp,#0x10]
	ldr         x9,[sp,#0x10]
	mov         w8,#0
	strb        w8,[x9]
	ldr         x8,[sp,#0x10]
	add         x8,x8,#1
	str         x8,[sp,#0x10]
	ldr         x9,[sp,#0x10]
	mov         w8,#0
	strb        w8,[x9]
	ldr         x8,[sp,#0x10]
	add         x8,x8,#1
	str         x8,[sp,#0x10]
	ldr         x9,[sp,#0x10]
	mov         w8,#0
	strb        w8,[x9]
	ldr         x8,[sp,#0x10]
	add         x8,x8,#1
	str         x8,[sp,#0x10]

; 1262 :     WRITE_4(0); // creation_time

	ldr         x9,[sp,#0x10]
	mov         w8,#0
	strb        w8,[x9]
	ldr         x8,[sp,#0x10]
	add         x8,x8,#1
	str         x8,[sp,#0x10]
	ldr         x9,[sp,#0x10]
	mov         w8,#0
	strb        w8,[x9]
	ldr         x8,[sp,#0x10]
	add         x8,x8,#1
	str         x8,[sp,#0x10]
	ldr         x9,[sp,#0x10]
	mov         w8,#0
	strb        w8,[x9]
	ldr         x8,[sp,#0x10]
	add         x8,x8,#1
	str         x8,[sp,#0x10]
	ldr         x9,[sp,#0x10]
	mov         w8,#0
	strb        w8,[x9]
	ldr         x8,[sp,#0x10]
	add         x8,x8,#1
	str         x8,[sp,#0x10]

; 1263 :     WRITE_4(0); // modification_time

	ldr         x9,[sp,#0x10]
	mov         w8,#0
	strb        w8,[x9]
	ldr         x8,[sp,#0x10]
	add         x8,x8,#1
	str         x8,[sp,#0x10]
	ldr         x9,[sp,#0x10]
	mov         w8,#0
	strb        w8,[x9]
	ldr         x8,[sp,#0x10]
	add         x8,x8,#1
	str         x8,[sp,#0x10]
	ldr         x9,[sp,#0x10]
	mov         w8,#0
	strb        w8,[x9]
	ldr         x8,[sp,#0x10]
	add         x8,x8,#1
	str         x8,[sp,#0x10]
	ldr         x9,[sp,#0x10]
	mov         w8,#0
	strb        w8,[x9]
	ldr         x8,[sp,#0x10]
	add         x8,x8,#1
	str         x8,[sp,#0x10]

; 1264 : 
; 1265 :     if (ntracks)

	ldr         w8,[sp,#0x58]
	cmp         w8,#0
	beq         |$LN74@mp4e_flush|

; 1266 :     {
; 1267 :         track_t* tr = ((track_t*)mux->tracks.data) + 0;    // take 1st track

	ldr         x8,[sp,#0x48]
	ldr         x8,[x8]
	str         x8,[sp,#0xE8]

; 1268 :         unsigned duration = get_duration(tr);

	ldr         x0,[sp,#0xE8]
	bl          |?get_duration@@YAIPEBUtrack_t@@@Z|
	mov         w0,w0
	str         w0,[sp,#0x68]

; 1269 :         duration = (unsigned)(duration * 1LL * MOOV_TIMESCALE / tr->info.time_scale);

	ldr         w8,[sp,#0x68]
	uxtw        x9,w8
	mov         x8,#0x3E8
	mul         x9,x9,x8
	ldr         x8,[sp,#0xE8]
	add         x8,x8,#0xC
	ldr         w8,[x8]
	uxtw        x8,w8
	cbnz        x8,|$LN123@mp4e_flush|
	brk         #0xF004
|$LN123@mp4e_flush|
	sdiv        x8,x9,x8
	mov         w8,w8
	str         w8,[sp,#0x68]

; 1270 :         WRITE_4(MOOV_TIMESCALE); // duration

	ldr         x9,[sp,#0x10]
	mov         w8,#0
	strb        w8,[x9]
	ldr         x8,[sp,#0x10]
	add         x8,x8,#1
	str         x8,[sp,#0x10]
	ldr         x9,[sp,#0x10]
	mov         w8,#0
	strb        w8,[x9]
	ldr         x8,[sp,#0x10]
	add         x8,x8,#1
	str         x8,[sp,#0x10]
	ldr         x9,[sp,#0x10]
	mov         w8,#3
	strb        w8,[x9]
	ldr         x8,[sp,#0x10]
	add         x8,x8,#1
	str         x8,[sp,#0x10]
	ldr         x9,[sp,#0x10]
	mov         w8,#0xE8
	strb        w8,[x9]
	ldr         x8,[sp,#0x10]
	add         x8,x8,#1
	str         x8,[sp,#0x10]

; 1271 :         WRITE_4(duration); // duration

	ldr         w8,[sp,#0x68]
	lsr         w8,w8,#0x18
	uxtb        w9,w8
	ldr         x8,[sp,#0x10]
	strb        w9,[x8]
	ldr         x8,[sp,#0x10]
	add         x8,x8,#1
	str         x8,[sp,#0x10]
	ldr         w8,[sp,#0x68]
	lsr         w8,w8,#0x10
	uxtb        w9,w8
	ldr         x8,[sp,#0x10]
	strb        w9,[x8]
	ldr         x8,[sp,#0x10]
	add         x8,x8,#1
	str         x8,[sp,#0x10]
	ldr         w8,[sp,#0x68]
	lsr         w8,w8,#8
	uxtb        w9,w8
	ldr         x8,[sp,#0x10]
	strb        w9,[x8]
	ldr         x8,[sp,#0x10]
	add         x8,x8,#1
	str         x8,[sp,#0x10]
	ldr         w8,[sp,#0x68]
	uxtb        w9,w8
	ldr         x8,[sp,#0x10]
	strb        w9,[x8]
	ldr         x8,[sp,#0x10]
	add         x8,x8,#1
	str         x8,[sp,#0x10]
|$LN74@mp4e_flush|

; 1272 :     }
; 1273 : 
; 1274 :     WRITE_4(0x00010000); // rate

	ldr         x9,[sp,#0x10]
	mov         w8,#0
	strb        w8,[x9]
	ldr         x8,[sp,#0x10]
	add         x8,x8,#1
	str         x8,[sp,#0x10]
	ldr         x9,[sp,#0x10]
	mov         w8,#1
	strb        w8,[x9]
	ldr         x8,[sp,#0x10]
	add         x8,x8,#1
	str         x8,[sp,#0x10]
	ldr         x9,[sp,#0x10]
	mov         w8,#0
	strb        w8,[x9]
	ldr         x8,[sp,#0x10]
	add         x8,x8,#1
	str         x8,[sp,#0x10]
	ldr         x9,[sp,#0x10]
	mov         w8,#0
	strb        w8,[x9]
	ldr         x8,[sp,#0x10]
	add         x8,x8,#1
	str         x8,[sp,#0x10]

; 1275 :     WRITE_2(0x0100); // volume

	ldr         x9,[sp,#0x10]
	mov         w8,#1
	strb        w8,[x9]
	ldr         x8,[sp,#0x10]
	add         x8,x8,#1
	str         x8,[sp,#0x10]
	ldr         x9,[sp,#0x10]
	mov         w8,#0
	strb        w8,[x9]
	ldr         x8,[sp,#0x10]
	add         x8,x8,#1
	str         x8,[sp,#0x10]

; 1276 :     WRITE_2(0); // reserved

	ldr         x9,[sp,#0x10]
	mov         w8,#0
	strb        w8,[x9]
	ldr         x8,[sp,#0x10]
	add         x8,x8,#1
	str         x8,[sp,#0x10]
	ldr         x9,[sp,#0x10]
	mov         w8,#0
	strb        w8,[x9]
	ldr         x8,[sp,#0x10]
	add         x8,x8,#1
	str         x8,[sp,#0x10]

; 1277 :     WRITE_4(0); // reserved

	ldr         x9,[sp,#0x10]
	mov         w8,#0
	strb        w8,[x9]
	ldr         x8,[sp,#0x10]
	add         x8,x8,#1
	str         x8,[sp,#0x10]
	ldr         x9,[sp,#0x10]
	mov         w8,#0
	strb        w8,[x9]
	ldr         x8,[sp,#0x10]
	add         x8,x8,#1
	str         x8,[sp,#0x10]
	ldr         x9,[sp,#0x10]
	mov         w8,#0
	strb        w8,[x9]
	ldr         x8,[sp,#0x10]
	add         x8,x8,#1
	str         x8,[sp,#0x10]
	ldr         x9,[sp,#0x10]
	mov         w8,#0
	strb        w8,[x9]
	ldr         x8,[sp,#0x10]
	add         x8,x8,#1
	str         x8,[sp,#0x10]

; 1278 :     WRITE_4(0); // reserved

	ldr         x9,[sp,#0x10]
	mov         w8,#0
	strb        w8,[x9]
	ldr         x8,[sp,#0x10]
	add         x8,x8,#1
	str         x8,[sp,#0x10]
	ldr         x9,[sp,#0x10]
	mov         w8,#0
	strb        w8,[x9]
	ldr         x8,[sp,#0x10]
	add         x8,x8,#1
	str         x8,[sp,#0x10]
	ldr         x9,[sp,#0x10]
	mov         w8,#0
	strb        w8,[x9]
	ldr         x8,[sp,#0x10]
	add         x8,x8,#1
	str         x8,[sp,#0x10]
	ldr         x9,[sp,#0x10]
	mov         w8,#0
	strb        w8,[x9]
	ldr         x8,[sp,#0x10]
	add         x8,x8,#1
	str         x8,[sp,#0x10]

; 1279 : 
; 1280 :     // matrix[9]
; 1281 :     WRITE_4(0x00010000); WRITE_4(0); WRITE_4(0);

	ldr         x9,[sp,#0x10]
	mov         w8,#0
	strb        w8,[x9]
	ldr         x8,[sp,#0x10]
	add         x8,x8,#1
	str         x8,[sp,#0x10]
	ldr         x9,[sp,#0x10]
	mov         w8,#1
	strb        w8,[x9]
	ldr         x8,[sp,#0x10]
	add         x8,x8,#1
	str         x8,[sp,#0x10]
	ldr         x9,[sp,#0x10]
	mov         w8,#0
	strb        w8,[x9]
	ldr         x8,[sp,#0x10]
	add         x8,x8,#1
	str         x8,[sp,#0x10]
	ldr         x9,[sp,#0x10]
	mov         w8,#0
	strb        w8,[x9]
	ldr         x8,[sp,#0x10]
	add         x8,x8,#1
	str         x8,[sp,#0x10]
	ldr         x9,[sp,#0x10]
	mov         w8,#0
	strb        w8,[x9]
	ldr         x8,[sp,#0x10]
	add         x8,x8,#1
	str         x8,[sp,#0x10]
	ldr         x9,[sp,#0x10]
	mov         w8,#0
	strb        w8,[x9]
	ldr         x8,[sp,#0x10]
	add         x8,x8,#1
	str         x8,[sp,#0x10]
	ldr         x9,[sp,#0x10]
	mov         w8,#0
	strb        w8,[x9]
	ldr         x8,[sp,#0x10]
	add         x8,x8,#1
	str         x8,[sp,#0x10]
	ldr         x9,[sp,#0x10]
	mov         w8,#0
	strb        w8,[x9]
	ldr         x8,[sp,#0x10]
	add         x8,x8,#1
	str         x8,[sp,#0x10]
	ldr         x9,[sp,#0x10]
	mov         w8,#0
	strb        w8,[x9]
	ldr         x8,[sp,#0x10]
	add         x8,x8,#1
	str         x8,[sp,#0x10]
	ldr         x9,[sp,#0x10]
	mov         w8,#0
	strb        w8,[x9]
	ldr         x8,[sp,#0x10]
	add         x8,x8,#1
	str         x8,[sp,#0x10]
	ldr         x9,[sp,#0x10]
	mov         w8,#0
	strb        w8,[x9]
	ldr         x8,[sp,#0x10]
	add         x8,x8,#1
	str         x8,[sp,#0x10]
	ldr         x9,[sp,#0x10]
	mov         w8,#0
	strb        w8,[x9]
	ldr         x8,[sp,#0x10]
	add         x8,x8,#1
	str         x8,[sp,#0x10]

; 1282 :     WRITE_4(0); WRITE_4(0x00010000); WRITE_4(0);

	ldr         x9,[sp,#0x10]
	mov         w8,#0
	strb        w8,[x9]
	ldr         x8,[sp,#0x10]
	add         x8,x8,#1
	str         x8,[sp,#0x10]
	ldr         x9,[sp,#0x10]
	mov         w8,#0
	strb        w8,[x9]
	ldr         x8,[sp,#0x10]
	add         x8,x8,#1
	str         x8,[sp,#0x10]
	ldr         x9,[sp,#0x10]
	mov         w8,#0
	strb        w8,[x9]
	ldr         x8,[sp,#0x10]
	add         x8,x8,#1
	str         x8,[sp,#0x10]
	ldr         x9,[sp,#0x10]
	mov         w8,#0
	strb        w8,[x9]
	ldr         x8,[sp,#0x10]
	add         x8,x8,#1
	str         x8,[sp,#0x10]
	ldr         x9,[sp,#0x10]
	mov         w8,#0
	strb        w8,[x9]
	ldr         x8,[sp,#0x10]
	add         x8,x8,#1
	str         x8,[sp,#0x10]
	ldr         x9,[sp,#0x10]
	mov         w8,#1
	strb        w8,[x9]
	ldr         x8,[sp,#0x10]
	add         x8,x8,#1
	str         x8,[sp,#0x10]
	ldr         x9,[sp,#0x10]
	mov         w8,#0
	strb        w8,[x9]
	ldr         x8,[sp,#0x10]
	add         x8,x8,#1
	str         x8,[sp,#0x10]
	ldr         x9,[sp,#0x10]
	mov         w8,#0
	strb        w8,[x9]
	ldr         x8,[sp,#0x10]
	add         x8,x8,#1
	str         x8,[sp,#0x10]
	ldr         x9,[sp,#0x10]
	mov         w8,#0
	strb        w8,[x9]
	ldr         x8,[sp,#0x10]
	add         x8,x8,#1
	str         x8,[sp,#0x10]
	ldr         x9,[sp,#0x10]
	mov         w8,#0
	strb        w8,[x9]
	ldr         x8,[sp,#0x10]
	add         x8,x8,#1
	str         x8,[sp,#0x10]
	ldr         x9,[sp,#0x10]
	mov         w8,#0
	strb        w8,[x9]
	ldr         x8,[sp,#0x10]
	add         x8,x8,#1
	str         x8,[sp,#0x10]
	ldr         x9,[sp,#0x10]
	mov         w8,#0
	strb        w8,[x9]
	ldr         x8,[sp,#0x10]
	add         x8,x8,#1
	str         x8,[sp,#0x10]

; 1283 :     WRITE_4(0); WRITE_4(0); WRITE_4(0x40000000);

	ldr         x9,[sp,#0x10]
	mov         w8,#0
	strb        w8,[x9]
	ldr         x8,[sp,#0x10]
	add         x8,x8,#1
	str         x8,[sp,#0x10]
	ldr         x9,[sp,#0x10]
	mov         w8,#0
	strb        w8,[x9]
	ldr         x8,[sp,#0x10]
	add         x8,x8,#1
	str         x8,[sp,#0x10]
	ldr         x9,[sp,#0x10]
	mov         w8,#0
	strb        w8,[x9]
	ldr         x8,[sp,#0x10]
	add         x8,x8,#1
	str         x8,[sp,#0x10]
	ldr         x9,[sp,#0x10]
	mov         w8,#0
	strb        w8,[x9]
	ldr         x8,[sp,#0x10]
	add         x8,x8,#1
	str         x8,[sp,#0x10]
	ldr         x9,[sp,#0x10]
	mov         w8,#0
	strb        w8,[x9]
	ldr         x8,[sp,#0x10]
	add         x8,x8,#1
	str         x8,[sp,#0x10]
	ldr         x9,[sp,#0x10]
	mov         w8,#0
	strb        w8,[x9]
	ldr         x8,[sp,#0x10]
	add         x8,x8,#1
	str         x8,[sp,#0x10]
	ldr         x9,[sp,#0x10]
	mov         w8,#0
	strb        w8,[x9]
	ldr         x8,[sp,#0x10]
	add         x8,x8,#1
	str         x8,[sp,#0x10]
	ldr         x9,[sp,#0x10]
	mov         w8,#0
	strb        w8,[x9]
	ldr         x8,[sp,#0x10]
	add         x8,x8,#1
	str         x8,[sp,#0x10]
	ldr         x9,[sp,#0x10]
	mov         w8,#0x40
	strb        w8,[x9]
	ldr         x8,[sp,#0x10]
	add         x8,x8,#1
	str         x8,[sp,#0x10]
	ldr         x9,[sp,#0x10]
	mov         w8,#0
	strb        w8,[x9]
	ldr         x8,[sp,#0x10]
	add         x8,x8,#1
	str         x8,[sp,#0x10]
	ldr         x9,[sp,#0x10]
	mov         w8,#0
	strb        w8,[x9]
	ldr         x8,[sp,#0x10]
	add         x8,x8,#1
	str         x8,[sp,#0x10]
	ldr         x9,[sp,#0x10]
	mov         w8,#0
	strb        w8,[x9]
	ldr         x8,[sp,#0x10]
	add         x8,x8,#1
	str         x8,[sp,#0x10]

; 1284 : 
; 1285 :     // pre_defined[6]
; 1286 :     WRITE_4(0); WRITE_4(0); WRITE_4(0);

	ldr         x9,[sp,#0x10]
	mov         w8,#0
	strb        w8,[x9]
	ldr         x8,[sp,#0x10]
	add         x8,x8,#1
	str         x8,[sp,#0x10]
	ldr         x9,[sp,#0x10]
	mov         w8,#0
	strb        w8,[x9]
	ldr         x8,[sp,#0x10]
	add         x8,x8,#1
	str         x8,[sp,#0x10]
	ldr         x9,[sp,#0x10]
	mov         w8,#0
	strb        w8,[x9]
	ldr         x8,[sp,#0x10]
	add         x8,x8,#1
	str         x8,[sp,#0x10]
	ldr         x9,[sp,#0x10]
	mov         w8,#0
	strb        w8,[x9]
	ldr         x8,[sp,#0x10]
	add         x8,x8,#1
	str         x8,[sp,#0x10]
	ldr         x9,[sp,#0x10]
	mov         w8,#0
	strb        w8,[x9]
	ldr         x8,[sp,#0x10]
	add         x8,x8,#1
	str         x8,[sp,#0x10]
	ldr         x9,[sp,#0x10]
	mov         w8,#0
	strb        w8,[x9]
	ldr         x8,[sp,#0x10]
	add         x8,x8,#1
	str         x8,[sp,#0x10]
	ldr         x9,[sp,#0x10]
	mov         w8,#0
	strb        w8,[x9]
	ldr         x8,[sp,#0x10]
	add         x8,x8,#1
	str         x8,[sp,#0x10]
	ldr         x9,[sp,#0x10]
	mov         w8,#0
	strb        w8,[x9]
	ldr         x8,[sp,#0x10]
	add         x8,x8,#1
	str         x8,[sp,#0x10]
	ldr         x9,[sp,#0x10]
	mov         w8,#0
	strb        w8,[x9]
	ldr         x8,[sp,#0x10]
	add         x8,x8,#1
	str         x8,[sp,#0x10]
	ldr         x9,[sp,#0x10]
	mov         w8,#0
	strb        w8,[x9]
	ldr         x8,[sp,#0x10]
	add         x8,x8,#1
	str         x8,[sp,#0x10]
	ldr         x9,[sp,#0x10]
	mov         w8,#0
	strb        w8,[x9]
	ldr         x8,[sp,#0x10]
	add         x8,x8,#1
	str         x8,[sp,#0x10]
	ldr         x9,[sp,#0x10]
	mov         w8,#0
	strb        w8,[x9]
	ldr         x8,[sp,#0x10]
	add         x8,x8,#1
	str         x8,[sp,#0x10]

; 1287 :     WRITE_4(0); WRITE_4(0); WRITE_4(0);

	ldr         x9,[sp,#0x10]
	mov         w8,#0
	strb        w8,[x9]
	ldr         x8,[sp,#0x10]
	add         x8,x8,#1
	str         x8,[sp,#0x10]
	ldr         x9,[sp,#0x10]
	mov         w8,#0
	strb        w8,[x9]
	ldr         x8,[sp,#0x10]
	add         x8,x8,#1
	str         x8,[sp,#0x10]
	ldr         x9,[sp,#0x10]
	mov         w8,#0
	strb        w8,[x9]
	ldr         x8,[sp,#0x10]
	add         x8,x8,#1
	str         x8,[sp,#0x10]
	ldr         x9,[sp,#0x10]
	mov         w8,#0
	strb        w8,[x9]
	ldr         x8,[sp,#0x10]
	add         x8,x8,#1
	str         x8,[sp,#0x10]
	ldr         x9,[sp,#0x10]
	mov         w8,#0
	strb        w8,[x9]
	ldr         x8,[sp,#0x10]
	add         x8,x8,#1
	str         x8,[sp,#0x10]
	ldr         x9,[sp,#0x10]
	mov         w8,#0
	strb        w8,[x9]
	ldr         x8,[sp,#0x10]
	add         x8,x8,#1
	str         x8,[sp,#0x10]
	ldr         x9,[sp,#0x10]
	mov         w8,#0
	strb        w8,[x9]
	ldr         x8,[sp,#0x10]
	add         x8,x8,#1
	str         x8,[sp,#0x10]
	ldr         x9,[sp,#0x10]
	mov         w8,#0
	strb        w8,[x9]
	ldr         x8,[sp,#0x10]
	add         x8,x8,#1
	str         x8,[sp,#0x10]
	ldr         x9,[sp,#0x10]
	mov         w8,#0
	strb        w8,[x9]
	ldr         x8,[sp,#0x10]
	add         x8,x8,#1
	str         x8,[sp,#0x10]
	ldr         x9,[sp,#0x10]
	mov         w8,#0
	strb        w8,[x9]
	ldr         x8,[sp,#0x10]
	add         x8,x8,#1
	str         x8,[sp,#0x10]
	ldr         x9,[sp,#0x10]
	mov         w8,#0
	strb        w8,[x9]
	ldr         x8,[sp,#0x10]
	add         x8,x8,#1
	str         x8,[sp,#0x10]
	ldr         x9,[sp,#0x10]
	mov         w8,#0
	strb        w8,[x9]
	ldr         x8,[sp,#0x10]
	add         x8,x8,#1
	str         x8,[sp,#0x10]

; 1288 : 
; 1289 :     //next_track_ID is a non-zero integer that indicates a value to use for the track ID of the next track to be
; 1290 :     //added to this presentation. Zero is not a valid track ID value. The value of next_track_ID shall be
; 1291 :     //larger than the largest track-ID in use.
; 1292 :     WRITE_4(ntracks + 1);

	ldr         w8,[sp,#0x58]
	add         w8,w8,#1
	lsr         w8,w8,#0x18
	uxtb        w9,w8
	ldr         x8,[sp,#0x10]
	strb        w9,[x8]
	ldr         x8,[sp,#0x10]
	add         x8,x8,#1
	str         x8,[sp,#0x10]
	ldr         w8,[sp,#0x58]
	add         w8,w8,#1
	lsr         w8,w8,#0x10
	uxtb        w9,w8
	ldr         x8,[sp,#0x10]
	strb        w9,[x8]
	ldr         x8,[sp,#0x10]
	add         x8,x8,#1
	str         x8,[sp,#0x10]
	ldr         w8,[sp,#0x58]
	add         w8,w8,#1
	lsr         w8,w8,#8
	uxtb        w9,w8
	ldr         x8,[sp,#0x10]
	strb        w9,[x8]
	ldr         x8,[sp,#0x10]
	add         x8,x8,#1
	str         x8,[sp,#0x10]
	ldr         w8,[sp,#0x58]
	add         w8,w8,#1
	uxtb        w9,w8
	ldr         x8,[sp,#0x10]
	strb        w9,[x8]
	ldr         x8,[sp,#0x10]
	add         x8,x8,#1
	str         x8,[sp,#0x10]

; 1293 :     END_ATOM;

	ldr         x8,[sp,#0x18]
	sub         x8,x8,#8
	str         x8,[sp,#0x18]
	ldr         x9,[sp,#0x10]
	ldr         x8,[sp,#0x18]
	ldr         x8,[x8]
	sub         x8,x9,x8
	asr         x8,x8,#0x18
	uxtb        w9,w8
	ldr         x8,[sp,#0x18]
	ldr         x8,[x8]
	strb        w9,[x8]
	ldr         x9,[sp,#0x10]
	ldr         x8,[sp,#0x18]
	ldr         x8,[x8]
	sub         x8,x9,x8
	asr         x8,x8,#0x10
	uxtb        w9,w8
	ldr         x8,[sp,#0x18]
	ldr         x8,[x8]
	add         x8,x8,#1
	strb        w9,[x8]
	ldr         x9,[sp,#0x10]
	ldr         x8,[sp,#0x18]
	ldr         x8,[x8]
	sub         x8,x9,x8
	asr         x8,x8,#8
	uxtb        w9,w8
	ldr         x8,[sp,#0x18]
	ldr         x8,[x8]
	add         x8,x8,#2
	strb        w9,[x8]
	ldr         x9,[sp,#0x10]
	ldr         x8,[sp,#0x18]
	ldr         x8,[x8]
	sub         x8,x9,x8
	uxtb        w9,w8
	ldr         x8,[sp,#0x18]
	ldr         x8,[x8]
	add         x8,x8,#3
	strb        w9,[x8]

; 1294 : 
; 1295 :     for (ntr = 0; ntr < ntracks; ntr++)

	mov         w8,#0
	str         w8,[sp,#0x34]
	b           |$LN7@mp4e_flush|
|$LN5@mp4e_flush|
	ldr         w8,[sp,#0x34]
	add         w8,w8,#1
	str         w8,[sp,#0x34]
|$LN7@mp4e_flush|
	ldr         w9,[sp,#0x58]
	ldr         w8,[sp,#0x34]
	cmp         w8,w9
	bhs         |$LN6@mp4e_flush|

; 1296 :     {
; 1297 :         track_t* tr = ((track_t*)mux->tracks.data) + ntr;

	ldr         x10,[sp,#0x48]
	ldr         w8,[sp,#0x34]
	uxtw        x9,w8
	mov         x8,#0x70
	mul         x9,x9,x8
	ldr         x8,[x10]
	add         x8,x8,x9
	str         x8,[sp,#0x28]

; 1298 :         unsigned duration = get_duration(tr);

	ldr         x0,[sp,#0x28]
	bl          |?get_duration@@YAIPEBUtrack_t@@@Z|
	mov         w0,w0
	str         w0,[sp,#0x50]

; 1299 :         int samples_count = tr->smpl.bytes / sizeof(sample_t);

	ldr         x8,[sp,#0x28]
	add         x8,x8,#0x20
	add         x8,x8,#8
	ldr         w8,[x8]
	sxtw        x9,w8
	mov         x8,#0x18
	udiv        x8,x9,x8
	mov         w8,w8
	str         w8,[sp,#0x30]

; 1300 :         const sample_t* sample = (const sample_t*)tr->smpl.data;

	ldr         x8,[sp,#0x28]
	add         x8,x8,#0x20
	ldr         x8,[x8]
	str         x8,[sp,#0x40]

; 1301 :         unsigned handler_type;
; 1302 :         const char* handler_ascii = NULL;

	mov         x8,#0
	str         x8,[sp,#0xC0]

; 1303 : 
; 1304 :         if (mux->enable_fragmentation)

	ldr         x8,[sp,#0x48]
	add         x8,x8,#0x34
	ldr         w8,[x8]
	cmp         w8,#0
	beq         |$LN75@mp4e_flush|

; 1305 :             samples_count = 0;

	mov         w8,#0
	str         w8,[sp,#0x30]
	b           |$LN76@mp4e_flush|
|$LN75@mp4e_flush|

; 1306 :         else if (samples_count <= 0)

	ldr         w8,[sp,#0x30]
	cmp         w8,#0
	bgt         |$LN77@mp4e_flush|

; 1307 :             continue;   // skip empty track

	b           |$LN5@mp4e_flush|
|$LN77@mp4e_flush|
|$LN76@mp4e_flush|

; 1308 : 
; 1309 :         switch (tr->info.track_media_kind)

	ldr         x8,[sp,#0x28]
	add         x8,x8,#8
	ldr         w8,[x8]
	str         w8,[sp,#0x94]
	ldr         w8,[sp,#0x94]
	cmp         w8,#0
	beq         |$LN78@mp4e_flush|
	ldr         w8,[sp,#0x94]
	cmp         w8,#1
	beq         |$LN79@mp4e_flush|
	ldr         w8,[sp,#0x94]
	cmp         w8,#2
	beq         |$LN80@mp4e_flush|
	b           |$LN81@mp4e_flush|
|$LN78@mp4e_flush|

; 1310 :         {
; 1311 :         case e_audio:
; 1312 :             handler_type = MP4E_HANDLER_TYPE_SOUN;

	ldr         w8,|$LN128@mp4e_flush|
	str         w8,[sp,#0x6C]

; 1313 :             handler_ascii = "SoundHandler";

	adrp        x8,|$SG8543|
	add         x8,x8,PageOffset(|$SG8543|)
	str         x8,[sp,#0xC0]

; 1314 :             break;

	b           |$LN8@mp4e_flush|
|$LN79@mp4e_flush|

; 1315 :         case e_video:
; 1316 :             handler_type = MP4E_HANDLER_TYPE_VIDE;

	ldr         w8,|$LN129@mp4e_flush|
	str         w8,[sp,#0x6C]

; 1317 :             handler_ascii = "VideoHandler";

	adrp        x8,|$SG8545|
	add         x8,x8,PageOffset(|$SG8545|)
	str         x8,[sp,#0xC0]

; 1318 :             break;

	b           |$LN8@mp4e_flush|
|$LN80@mp4e_flush|

; 1319 :         case e_private:
; 1320 :             handler_type = MP4E_HANDLER_TYPE_GESM;

	ldr         w8,|$LN130@mp4e_flush|
	str         w8,[sp,#0x6C]

; 1321 :             break;

	b           |$LN8@mp4e_flush|
|$LN81@mp4e_flush|

; 1322 :         default:
; 1323 :             return MP4E_STATUS_BAD_ARGUMENTS;

	mov         w0,#-1
	b           |$LN1@mp4e_flush|
|$LN8@mp4e_flush|

; 1324 :         }
; 1325 : 
; 1326 :         ATOM(BOX_trak);

	ldr         x9,[sp,#0x18]
	ldr         x8,[sp,#0x10]
	str         x8,[x9]
	ldr         x8,[sp,#0x18]
	add         x8,x8,#8
	str         x8,[sp,#0x18]
	ldr         x8,[sp,#0x10]
	add         x8,x8,#4
	str         x8,[sp,#0x10]
	ldr         x9,[sp,#0x10]
	mov         w8,#0x74
	strb        w8,[x9]
	ldr         x8,[sp,#0x10]
	add         x8,x8,#1
	str         x8,[sp,#0x10]
	ldr         x9,[sp,#0x10]
	mov         w8,#0x72
	strb        w8,[x9]
	ldr         x8,[sp,#0x10]
	add         x8,x8,#1
	str         x8,[sp,#0x10]
	ldr         x9,[sp,#0x10]
	mov         w8,#0x61
	strb        w8,[x9]
	ldr         x8,[sp,#0x10]
	add         x8,x8,#1
	str         x8,[sp,#0x10]
	ldr         x9,[sp,#0x10]
	mov         w8,#0x6B
	strb        w8,[x9]
	ldr         x8,[sp,#0x10]
	add         x8,x8,#1
	str         x8,[sp,#0x10]

; 1327 :         ATOM_FULL(BOX_tkhd, 7); // flag: 1=trak enabled; 2=track in movie; 4=track in preview

	ldr         x9,[sp,#0x18]
	ldr         x8,[sp,#0x10]
	str         x8,[x9]
	ldr         x8,[sp,#0x18]
	add         x8,x8,#8
	str         x8,[sp,#0x18]
	ldr         x8,[sp,#0x10]
	add         x8,x8,#4
	str         x8,[sp,#0x10]
	ldr         x9,[sp,#0x10]
	mov         w8,#0x74
	strb        w8,[x9]
	ldr         x8,[sp,#0x10]
	add         x8,x8,#1
	str         x8,[sp,#0x10]
	ldr         x9,[sp,#0x10]
	mov         w8,#0x6B
	strb        w8,[x9]
	ldr         x8,[sp,#0x10]
	add         x8,x8,#1
	str         x8,[sp,#0x10]
	ldr         x9,[sp,#0x10]
	mov         w8,#0x68
	strb        w8,[x9]
	ldr         x8,[sp,#0x10]
	add         x8,x8,#1
	str         x8,[sp,#0x10]
	ldr         x9,[sp,#0x10]
	mov         w8,#0x64
	strb        w8,[x9]
	ldr         x8,[sp,#0x10]
	add         x8,x8,#1
	str         x8,[sp,#0x10]
	ldr         x9,[sp,#0x10]
	mov         w8,#0
	strb        w8,[x9]
	ldr         x8,[sp,#0x10]
	add         x8,x8,#1
	str         x8,[sp,#0x10]
	ldr         x9,[sp,#0x10]
	mov         w8,#0
	strb        w8,[x9]
	ldr         x8,[sp,#0x10]
	add         x8,x8,#1
	str         x8,[sp,#0x10]
	ldr         x9,[sp,#0x10]
	mov         w8,#0
	strb        w8,[x9]
	ldr         x8,[sp,#0x10]
	add         x8,x8,#1
	str         x8,[sp,#0x10]
	ldr         x9,[sp,#0x10]
	mov         w8,#7
	strb        w8,[x9]
	ldr         x8,[sp,#0x10]
	add         x8,x8,#1
	str         x8,[sp,#0x10]

; 1328 :         WRITE_4(0);             // creation_time

	ldr         x9,[sp,#0x10]
	mov         w8,#0
	strb        w8,[x9]
	ldr         x8,[sp,#0x10]
	add         x8,x8,#1
	str         x8,[sp,#0x10]
	ldr         x9,[sp,#0x10]
	mov         w8,#0
	strb        w8,[x9]
	ldr         x8,[sp,#0x10]
	add         x8,x8,#1
	str         x8,[sp,#0x10]
	ldr         x9,[sp,#0x10]
	mov         w8,#0
	strb        w8,[x9]
	ldr         x8,[sp,#0x10]
	add         x8,x8,#1
	str         x8,[sp,#0x10]
	ldr         x9,[sp,#0x10]
	mov         w8,#0
	strb        w8,[x9]
	ldr         x8,[sp,#0x10]
	add         x8,x8,#1
	str         x8,[sp,#0x10]

; 1329 :         WRITE_4(0);             // modification_time

	ldr         x9,[sp,#0x10]
	mov         w8,#0
	strb        w8,[x9]
	ldr         x8,[sp,#0x10]
	add         x8,x8,#1
	str         x8,[sp,#0x10]
	ldr         x9,[sp,#0x10]
	mov         w8,#0
	strb        w8,[x9]
	ldr         x8,[sp,#0x10]
	add         x8,x8,#1
	str         x8,[sp,#0x10]
	ldr         x9,[sp,#0x10]
	mov         w8,#0
	strb        w8,[x9]
	ldr         x8,[sp,#0x10]
	add         x8,x8,#1
	str         x8,[sp,#0x10]
	ldr         x9,[sp,#0x10]
	mov         w8,#0
	strb        w8,[x9]
	ldr         x8,[sp,#0x10]
	add         x8,x8,#1
	str         x8,[sp,#0x10]

; 1330 :         WRITE_4(ntr + 1);       // track_ID

	ldr         w8,[sp,#0x34]
	add         w8,w8,#1
	lsr         w8,w8,#0x18
	uxtb        w9,w8
	ldr         x8,[sp,#0x10]
	strb        w9,[x8]
	ldr         x8,[sp,#0x10]
	add         x8,x8,#1
	str         x8,[sp,#0x10]
	ldr         w8,[sp,#0x34]
	add         w8,w8,#1
	lsr         w8,w8,#0x10
	uxtb        w9,w8
	ldr         x8,[sp,#0x10]
	strb        w9,[x8]
	ldr         x8,[sp,#0x10]
	add         x8,x8,#1
	str         x8,[sp,#0x10]
	ldr         w8,[sp,#0x34]
	add         w8,w8,#1
	lsr         w8,w8,#8
	uxtb        w9,w8
	ldr         x8,[sp,#0x10]
	strb        w9,[x8]
	ldr         x8,[sp,#0x10]
	add         x8,x8,#1
	str         x8,[sp,#0x10]
	ldr         w8,[sp,#0x34]
	add         w8,w8,#1
	uxtb        w9,w8
	ldr         x8,[sp,#0x10]
	strb        w9,[x8]
	ldr         x8,[sp,#0x10]
	add         x8,x8,#1
	str         x8,[sp,#0x10]

; 1331 :         WRITE_4(0);             // reserved

	ldr         x9,[sp,#0x10]
	mov         w8,#0
	strb        w8,[x9]
	ldr         x8,[sp,#0x10]
	add         x8,x8,#1
	str         x8,[sp,#0x10]
	ldr         x9,[sp,#0x10]
	mov         w8,#0
	strb        w8,[x9]
	ldr         x8,[sp,#0x10]
	add         x8,x8,#1
	str         x8,[sp,#0x10]
	ldr         x9,[sp,#0x10]
	mov         w8,#0
	strb        w8,[x9]
	ldr         x8,[sp,#0x10]
	add         x8,x8,#1
	str         x8,[sp,#0x10]
	ldr         x9,[sp,#0x10]
	mov         w8,#0
	strb        w8,[x9]
	ldr         x8,[sp,#0x10]
	add         x8,x8,#1
	str         x8,[sp,#0x10]

; 1332 :         WRITE_4((unsigned)(duration * 1LL * MOOV_TIMESCALE / tr->info.time_scale));

	ldr         w8,[sp,#0x50]
	uxtw        x9,w8
	mov         x8,#0x3E8
	mul         x9,x9,x8
	ldr         x8,[sp,#0x28]
	add         x8,x8,#0xC
	ldr         w8,[x8]
	uxtw        x8,w8
	cbnz        x8,|$LN124@mp4e_flush|
	brk         #0xF004
|$LN124@mp4e_flush|
	sdiv        x8,x9,x8
	mov         w8,w8
	lsr         w8,w8,#0x18
	uxtb        w9,w8
	ldr         x8,[sp,#0x10]
	strb        w9,[x8]
	ldr         x8,[sp,#0x10]
	add         x8,x8,#1
	str         x8,[sp,#0x10]
	ldr         w8,[sp,#0x50]
	uxtw        x9,w8
	mov         x8,#0x3E8
	mul         x9,x9,x8
	ldr         x8,[sp,#0x28]
	add         x8,x8,#0xC
	ldr         w8,[x8]
	uxtw        x8,w8
	cbnz        x8,|$LN125@mp4e_flush|
	brk         #0xF004
|$LN125@mp4e_flush|
	sdiv        x8,x9,x8
	mov         w8,w8
	lsr         w8,w8,#0x10
	uxtb        w9,w8
	ldr         x8,[sp,#0x10]
	strb        w9,[x8]
	ldr         x8,[sp,#0x10]
	add         x8,x8,#1
	str         x8,[sp,#0x10]
	ldr         w8,[sp,#0x50]
	uxtw        x9,w8
	mov         x8,#0x3E8
	mul         x9,x9,x8
	ldr         x8,[sp,#0x28]
	add         x8,x8,#0xC
	ldr         w8,[x8]
	uxtw        x8,w8
	cbnz        x8,|$LN126@mp4e_flush|
	brk         #0xF004
|$LN126@mp4e_flush|
	sdiv        x8,x9,x8
	mov         w8,w8
	lsr         w8,w8,#8
	uxtb        w9,w8
	ldr         x8,[sp,#0x10]
	strb        w9,[x8]
	ldr         x8,[sp,#0x10]
	add         x8,x8,#1
	str         x8,[sp,#0x10]
	ldr         w8,[sp,#0x50]
	uxtw        x9,w8
	mov         x8,#0x3E8
	mul         x9,x9,x8
	ldr         x8,[sp,#0x28]
	add         x8,x8,#0xC
	ldr         w8,[x8]
	uxtw        x8,w8
	cbnz        x8,|$LN127@mp4e_flush|
	brk         #0xF004
|$LN127@mp4e_flush|
	sdiv        x8,x9,x8
	uxtb        w9,w8
	ldr         x8,[sp,#0x10]
	strb        w9,[x8]
	ldr         x8,[sp,#0x10]
	add         x8,x8,#1
	str         x8,[sp,#0x10]

; 1333 :         WRITE_4(0); WRITE_4(0); // reserved[2]

	ldr         x9,[sp,#0x10]
	mov         w8,#0
	strb        w8,[x9]
	ldr         x8,[sp,#0x10]
	add         x8,x8,#1
	str         x8,[sp,#0x10]
	ldr         x9,[sp,#0x10]
	mov         w8,#0
	strb        w8,[x9]
	ldr         x8,[sp,#0x10]
	add         x8,x8,#1
	str         x8,[sp,#0x10]
	ldr         x9,[sp,#0x10]
	mov         w8,#0
	strb        w8,[x9]
	ldr         x8,[sp,#0x10]
	add         x8,x8,#1
	str         x8,[sp,#0x10]
	ldr         x9,[sp,#0x10]
	mov         w8,#0
	strb        w8,[x9]
	ldr         x8,[sp,#0x10]
	add         x8,x8,#1
	str         x8,[sp,#0x10]
	ldr         x9,[sp,#0x10]
	mov         w8,#0
	strb        w8,[x9]
	ldr         x8,[sp,#0x10]
	add         x8,x8,#1
	str         x8,[sp,#0x10]
	ldr         x9,[sp,#0x10]
	mov         w8,#0
	strb        w8,[x9]
	ldr         x8,[sp,#0x10]
	add         x8,x8,#1
	str         x8,[sp,#0x10]
	ldr         x9,[sp,#0x10]
	mov         w8,#0
	strb        w8,[x9]
	ldr         x8,[sp,#0x10]
	add         x8,x8,#1
	str         x8,[sp,#0x10]
	ldr         x9,[sp,#0x10]
	mov         w8,#0
	strb        w8,[x9]
	ldr         x8,[sp,#0x10]
	add         x8,x8,#1
	str         x8,[sp,#0x10]

; 1334 :         WRITE_2(0);             // layer

	ldr         x9,[sp,#0x10]
	mov         w8,#0
	strb        w8,[x9]
	ldr         x8,[sp,#0x10]
	add         x8,x8,#1
	str         x8,[sp,#0x10]
	ldr         x9,[sp,#0x10]
	mov         w8,#0
	strb        w8,[x9]
	ldr         x8,[sp,#0x10]
	add         x8,x8,#1
	str         x8,[sp,#0x10]

; 1335 :         WRITE_2(0);             // alternate_group

	ldr         x9,[sp,#0x10]
	mov         w8,#0
	strb        w8,[x9]
	ldr         x8,[sp,#0x10]
	add         x8,x8,#1
	str         x8,[sp,#0x10]
	ldr         x9,[sp,#0x10]
	mov         w8,#0
	strb        w8,[x9]
	ldr         x8,[sp,#0x10]
	add         x8,x8,#1
	str         x8,[sp,#0x10]

; 1336 :         WRITE_2(0x0100);        // volume {if track_is_audio 0x0100 else 0};

	ldr         x9,[sp,#0x10]
	mov         w8,#1
	strb        w8,[x9]
	ldr         x8,[sp,#0x10]
	add         x8,x8,#1
	str         x8,[sp,#0x10]
	ldr         x9,[sp,#0x10]
	mov         w8,#0
	strb        w8,[x9]
	ldr         x8,[sp,#0x10]
	add         x8,x8,#1
	str         x8,[sp,#0x10]

; 1337 :         WRITE_2(0);             // reserved

	ldr         x9,[sp,#0x10]
	mov         w8,#0
	strb        w8,[x9]
	ldr         x8,[sp,#0x10]
	add         x8,x8,#1
	str         x8,[sp,#0x10]
	ldr         x9,[sp,#0x10]
	mov         w8,#0
	strb        w8,[x9]
	ldr         x8,[sp,#0x10]
	add         x8,x8,#1
	str         x8,[sp,#0x10]

; 1338 : 
; 1339 :         // matrix[9]
; 1340 :         WRITE_4(0x00010000); WRITE_4(0); WRITE_4(0);

	ldr         x9,[sp,#0x10]
