; Listing generated by Microsoft (R) Optimizing Compiler Version 19.29.30159.0 

	TTL	C:\Users\paras\source\repos\grep-name\XenevaOS\Process\AudioPlayer\ARM64\Debug\minimp3.obj
	ARM64

	AREA	|.drectve|, DRECTVE


	AREA	|.bss|, NOINIT
|?huff_vlc@@3PAU_vlc@@A| % 0x180			; huff_vlc
|?huff_quad_vlc@@3PAU_vlc@@A| % 0x30			; huff_quad_vlc
|?band_index_long@@3PAY0BH@GA| % 0x19e			; band_index_long
|?table_4_3_exp@@3PEACEA| % 0x8				; table_4_3_exp
|?table_4_3_value@@3PEAIEA| % 0x8			; table_4_3_value
|?exp_table@@3PAIA| % 0x800				; exp_table
|?expval_table@@3PAY0BA@IA| % 0x8000			; expval_table
|?is_table@@3PAY0BA@HA| % 0x80				; is_table
|?is_table_lsf@@3PAY11BA@HA| % 0x100			; is_table_lsf
|?csa_table@@3PAY03HA| % 0x80				; csa_table
|?csa_table_float@@3PAY03MA| % 0x80			; csa_table_float
|?mdct_win@@3PAY0CE@HA| % 0x480				; mdct_win
|?window@@3PAFA| % 0x400				; window

	AREA	|.rdata|, DATA, READONLY
|?mp3_bitrate_tab@@3QAY0P@$$CBGA| DCW 0x0		; mp3_bitrate_tab
	DCW	0x20
	DCW	0x28
	DCW	0x30
	DCW	0x38
	DCW	0x40
	DCW	0x50
	DCW	0x60
	DCW	0x70
	DCW	0x80
	DCW	0xa0
	DCW	0xc0
	DCW	0xe0
	DCW	0x100
	DCW	0x140
	DCW	0x0
	DCW	0x8
	DCW	0x10
	DCW	0x18
	DCW	0x20
	DCW	0x28
	DCW	0x30
	DCW	0x38
	DCW	0x40
	DCW	0x50
	DCW	0x60
	DCW	0x70
	DCW	0x80
	DCW	0x90
	DCW	0xa0
|?mp3_freq_tab@@3QBGB| DCW 0xac44			; mp3_freq_tab
	DCW	0xbb80
	DCW	0x7d00
	%	14
|?mp3_enwindow@@3QBHB| DCD 0x0				; mp3_enwindow
	DCD	0xffffffff
	DCD	0xffffffff
	DCD	0xffffffff
	DCD	0xffffffff
	DCD	0xffffffff
	DCD	0xffffffff
	DCD	0xfffffffe
	DCD	0xfffffffe
	DCD	0xfffffffe
	DCD	0xfffffffe
	DCD	0xfffffffd
	DCD	0xfffffffd
	DCD	0xfffffffc
	DCD	0xfffffffc
	DCD	0xfffffffb
	DCD	0xfffffffb
	DCD	0xfffffffa
	DCD	0xfffffff9
	DCD	0xfffffff9
	DCD	0xfffffff8
	DCD	0xfffffff7
	DCD	0xfffffff6
	DCD	0xfffffff5
	DCD	0xfffffff3
	DCD	0xfffffff2
	DCD	0xfffffff0
	DCD	0xffffffef
	DCD	0xffffffed
	DCD	0xffffffeb
	DCD	0xffffffe8
	DCD	0xffffffe6
	DCD	0xffffffe3
	DCD	0xffffffe1
	DCD	0xffffffdd
	DCD	0xffffffda
	DCD	0xffffffd7
	DCD	0xffffffd3
	DCD	0xffffffcf
	DCD	0xffffffcb
	DCD	0xffffffc6
	DCD	0xffffffc1
	DCD	0xffffffbc
	DCD	0xffffffb7
	DCD	0xffffffb1
	DCD	0xffffffab
	DCD	0xffffffa5
	DCD	0xffffff9f
	DCD	0xffffff98
	DCD	0xffffff91
	DCD	0xffffff8b
	DCD	0xffffff83
	DCD	0xffffff7c
	DCD	0xffffff75
	DCD	0xffffff6d
	DCD	0xffffff66
	DCD	0xffffff5f
	DCD	0xffffff57
	DCD	0xffffff50
	DCD	0xffffff49
	DCD	0xffffff42
	DCD	0xffffff3c
	DCD	0xffffff36
	DCD	0xffffff30
	DCD	0xd5
	DCD	0xda
	DCD	0xde
	DCD	0xe1
	DCD	0xe3
	DCD	0xe4
	DCD	0xe4
	DCD	0xe3
	DCD	0xe0
	DCD	0xdd
	DCD	0xd7
	DCD	0xd0
	DCD	0xc8
	DCD	0xbd
	DCD	0xb1
	DCD	0xa3
	DCD	0x92
	DCD	0x7f
	DCD	0x6a
	DCD	0x53
	DCD	0x39
	DCD	0x1d
	DCD	0xfffffffe
	DCD	0xffffffdc
	DCD	0xffffffb8
	DCD	0xffffff91
	DCD	0xffffff67
	DCD	0xffffff3b
	DCD	0xffffff0c
	DCD	0xfffffeda
	DCD	0xfffffea5
	DCD	0xfffffe6f
	DCD	0xfffffe35
	DCD	0xfffffdf9
	DCD	0xfffffdbb
	DCD	0xfffffd7b
	DCD	0xfffffd39
	DCD	0xfffffcf5
	DCD	0xfffffcb0
	DCD	0xfffffc69
	DCD	0xfffffc21
	DCD	0xfffffbd8
	DCD	0xfffffb8f
	DCD	0xfffffb46
	DCD	0xfffffafd
	DCD	0xfffffab4
	DCD	0xfffffa6c
	DCD	0xfffffa26
	DCD	0xfffff9e1
	DCD	0xfffff99e
	DCD	0xfffff95e
	DCD	0xfffff921
	DCD	0xfffff8e7
	DCD	0xfffff8b2
	DCD	0xfffff881
	DCD	0xfffff856
	DCD	0xfffff82f
	DCD	0xfffff810
	DCD	0xfffff7f7
	DCD	0xfffff7e5
	DCD	0xfffff7db
	DCD	0xfffff7d9
	DCD	0xfffff7e0
	DCD	0xfffff7f1
	DCD	0x7f5
	DCD	0x7d0
	DCD	0x7a0
	DCD	0x765
	DCD	0x71e
	DCD	0x6cb
	DCD	0x66c
	DCD	0x5ff
	DCD	0x586
	DCD	0x500
	DCD	0x46b
	DCD	0x3ca
	DCD	0x31a
	DCD	0x25d
	DCD	0x192
	DCD	0xb9
	DCD	0xffffffd3
	DCD	0xfffffee0
	DCD	0xfffffddf
	DCD	0xfffffcd2
	DCD	0xfffffbb9
	DCD	0xfffffa94
	DCD	0xfffff964
	DCD	0xfffff82a
	DCD	0xfffff6e6
	DCD	0xfffff599
	DCD	0xfffff444
	DCD	0xfffff2e9
	DCD	0xfffff187
	DCD	0xfffff021
	DCD	0xffffeeb7
	DCD	0xffffed4c
	DCD	0xffffebdf
	DCD	0xffffea73
	DCD	0xffffe909
	DCD	0xffffe7a3
	DCD	0xffffe643
	DCD	0xffffe4e9
	DCD	0xffffe399
	DCD	0xffffe253
	DCD	0xffffe11a
	DCD	0xffffdfef
	DCD	0xffffded5
	DCD	0xffffddcd
	DCD	0xffffdcda
	DCD	0xffffdbfd
	DCD	0xffffdb38
	DCD	0xffffda8f
	DCD	0xffffda01
	DCD	0xffffd992
	DCD	0xffffd944
	DCD	0xffffd919
	DCD	0xffffd912
	DCD	0xffffd931
	DCD	0xffffd979
	DCD	0xffffd9ea
	DCD	0xffffda88
	DCD	0xffffdb53
	DCD	0xffffdc4d
	DCD	0xffffdd78
	DCD	0xffffded4
	DCD	0xffffe064
	DCD	0xffffe228
	DCD	0xffffe422
	DCD	0x19ae
	DCD	0x1747
	DCD	0x14a8
	DCD	0x11d1
	DCD	0xec0
	DCD	0xb77
	DCD	0x7f5
	DCD	0x43a
	DCD	0x46
	DCD	0xfffffc1a
	DCD	0xfffff7b6
	DCD	0xfffff31c
	DCD	0xffffee4b
	DCD	0xffffe946
	DCD	0xffffe40e
	DCD	0xffffdea4
	DCD	0xffffd909
	DCD	0xffffd341
	DCD	0xffffcd4c
	DCD	0xffffc72c
	DCD	0xffffc0e5
	DCD	0xffffba79
	DCD	0xffffb3ea
	DCD	0xffffad3b
	DCD	0xffffa66f
	DCD	0xffff9f8a
	DCD	0xffff988e
	DCD	0xffff917f
	DCD	0xffff8a60
	DCD	0xffff8335
	DCD	0xffff7c01
	DCD	0xffff74c8
	DCD	0xffff6d8f
	DCD	0xffff6658
	DCD	0xffff5f28
	DCD	0xffff5802
	DCD	0xffff50eb
	DCD	0xffff49e7
	DCD	0xffff42fa
	DCD	0xffff3c27
	DCD	0xffff3573
	DCD	0xffff2ee2
	DCD	0xffff2876
	DCD	0xffff2236
	DCD	0xffff1c23
	DCD	0xffff1642
	DCD	0xffff1097
	DCD	0xffff0b24
	DCD	0xffff05ed
	DCD	0xffff00f6
	DCD	0xfffefc42
	DCD	0xfffef7d3
	DCD	0xfffef3ac
	DCD	0xfffeefd1
	DCD	0xfffeec42
	DCD	0xfffee904
	DCD	0xfffee617
	DCD	0xfffee37d
	DCD	0xfffee139
	DCD	0xfffedf4c
	DCD	0xfffeddb7
	DCD	0xfffedc7a
	DCD	0xfffedb98
	DCD	0xfffedb10
	DCD	0x1251e
|?mp3_huffbits_1@@3QBEB| DCB 0x1			; mp3_huffbits_1
	DCB	0x3
	DCB	0x2
	DCB	0x3
|?slen_table@@3QAY0BA@$$CBEA| DCB 0x0			; slen_table
	DCB	0x0
	DCB	0x0
	DCB	0x0
	DCB	0x3
	DCB	0x1
	DCB	0x1
	DCB	0x1
	DCB	0x2
	DCB	0x2
	DCB	0x2
	DCB	0x3
	DCB	0x3
	DCB	0x3
	DCB	0x4
	DCB	0x4
	DCB	0x0
	DCB	0x1
	DCB	0x2
	DCB	0x3
	DCB	0x0
	DCB	0x1
	DCB	0x2
	DCB	0x3
	DCB	0x1
	DCB	0x2
	DCB	0x3
	DCB	0x1
	DCB	0x2
	DCB	0x3
	DCB	0x2
	DCB	0x3
|?mp3_huffcodes_1@@3QBGB| DCW 0x1			; mp3_huffcodes_1
	DCW	0x1
	DCW	0x1
	DCW	0x0
|?lsf_nsf_table@@3QAY123$$CBEA| DCB 0x6			; lsf_nsf_table
	DCB	0x5
	DCB	0x5
	DCB	0x5
	DCB	0x9
	DCB	0x9
	DCB	0x9
	DCB	0x9
	DCB	0x6
	DCB	0x9
	DCB	0x9
	DCB	0x9
	DCB	0x6
	DCB	0x5
	DCB	0x7
	DCB	0x3
	DCB	0x9
	DCB	0x9
	DCB	0xc
	DCB	0x6
	DCB	0x6
	DCB	0x9
	DCB	0xc
	DCB	0x6
	DCB	0xb
	DCB	0xa
	DCB	0x0
	DCB	0x0
	DCB	0x12
	DCB	0x12
	DCB	0x0
	DCB	0x0
	DCB	0xf
	DCB	0x12
	DCB	0x0
	DCB	0x0
	DCB	0x7
	DCB	0x7
	DCB	0x7
	DCB	0x0
	DCB	0xc
	DCB	0xc
	DCB	0xc
	DCB	0x0
	DCB	0x6
	DCB	0xf
	DCB	0xc
	DCB	0x0
	DCB	0x6
	DCB	0x6
	DCB	0x6
	DCB	0x3
	DCB	0xc
	DCB	0x9
	DCB	0x9
	DCB	0x6
	DCB	0x6
	DCB	0xc
	DCB	0x9
	DCB	0x6
	DCB	0x8
	DCB	0x8
	DCB	0x5
	DCB	0x0
	DCB	0xf
	DCB	0xc
	DCB	0x9
	DCB	0x0
	DCB	0x6
	DCB	0x12
	DCB	0x9
	DCB	0x0
|?mp3_huffcodes_2@@3QBGB| DCW 0x1			; mp3_huffcodes_2
	DCW	0x2
	DCW	0x1
	DCW	0x3
	DCW	0x1
	DCW	0x1
	DCW	0x3
	DCW	0x2
	DCW	0x0
	%	6
|?mp3_huffbits_2@@3QBEB| DCB 0x1			; mp3_huffbits_2
	DCB	0x3
	DCB	0x6
	DCB	0x3
	DCB	0x3
	DCB	0x5
	DCB	0x5
	DCB	0x5
	DCB	0x6
	%	7
|?mp3_huffcodes_3@@3QBGB| DCW 0x3			; mp3_huffcodes_3
	DCW	0x2
	DCW	0x1
	DCW	0x1
	DCW	0x1
	DCW	0x1
	DCW	0x3
	DCW	0x2
	DCW	0x0
	%	6
|?mp3_huffbits_3@@3QBEB| DCB 0x2			; mp3_huffbits_3
	DCB	0x2
	DCB	0x6
	DCB	0x3
	DCB	0x2
	DCB	0x5
	DCB	0x5
	DCB	0x5
	DCB	0x6
	%	7
|?mp3_huffcodes_5@@3QBGB| DCW 0x1			; mp3_huffcodes_5
	DCW	0x2
	DCW	0x6
	DCW	0x5
	DCW	0x3
	DCW	0x1
	DCW	0x4
	DCW	0x4
	DCW	0x7
	DCW	0x5
	DCW	0x7
	DCW	0x1
	DCW	0x6
	DCW	0x1
	DCW	0x1
	DCW	0x0
|?mp3_huffbits_5@@3QBEB| DCB 0x1			; mp3_huffbits_5
	DCB	0x3
	DCB	0x6
	DCB	0x7
	DCB	0x3
	DCB	0x3
	DCB	0x6
	DCB	0x7
	DCB	0x6
	DCB	0x6
	DCB	0x7
	DCB	0x8
	DCB	0x7
	DCB	0x6
	DCB	0x7
	DCB	0x8
|?mp3_huffcodes_6@@3QBGB| DCW 0x7			; mp3_huffcodes_6
	DCW	0x3
	DCW	0x5
	DCW	0x1
	DCW	0x6
	DCW	0x2
	DCW	0x3
	DCW	0x2
	DCW	0x5
	DCW	0x4
	DCW	0x4
	DCW	0x1
	DCW	0x3
	DCW	0x3
	DCW	0x2
	DCW	0x0
|?mp3_huffbits_6@@3QBEB| DCB 0x3			; mp3_huffbits_6
	DCB	0x3
	DCB	0x5
	DCB	0x7
	DCB	0x3
	DCB	0x2
	DCB	0x4
	DCB	0x5
	DCB	0x4
	DCB	0x4
	DCB	0x5
	DCB	0x6
	DCB	0x6
	DCB	0x5
	DCB	0x6
	DCB	0x7
	%	8
|?mp3_huffcodes_7@@3QBGB| DCW 0x1			; mp3_huffcodes_7
	DCW	0x2
	DCW	0xa
	DCW	0x13
	DCW	0x10
	DCW	0xa
	DCW	0x3
	DCW	0x3
	DCW	0x7
	DCW	0xa
	DCW	0x5
	DCW	0x3
	DCW	0xb
	DCW	0x4
	DCW	0xd
	DCW	0x11
	DCW	0x8
	DCW	0x4
	DCW	0xc
	DCW	0xb
	DCW	0x12
	DCW	0xf
	DCW	0xb
	DCW	0x2
	DCW	0x7
	DCW	0x6
	DCW	0x9
	DCW	0xe
	DCW	0x3
	DCW	0x1
	DCW	0x6
	DCW	0x4
	DCW	0x5
	DCW	0x3
	DCW	0x2
	DCW	0x0
|?mp3_huffbits_7@@3QBEB| DCB 0x1			; mp3_huffbits_7
	DCB	0x3
	DCB	0x6
	DCB	0x8
	DCB	0x8
	DCB	0x9
	DCB	0x3
	DCB	0x4
	DCB	0x6
	DCB	0x7
	DCB	0x7
	DCB	0x8
	DCB	0x6
	DCB	0x5
	DCB	0x7
	DCB	0x8
	DCB	0x8
	DCB	0x9
	DCB	0x7
	DCB	0x7
	DCB	0x8
	DCB	0x9
	DCB	0x9
	DCB	0x9
	DCB	0x7
	DCB	0x7
	DCB	0x8
	DCB	0x9
	DCB	0x9
	DCB	0xa
	DCB	0x8
	DCB	0x8
	DCB	0x9
	DCB	0xa
	DCB	0xa
	DCB	0xa
	%	4
|?mp3_huffcodes_8@@3QBGB| DCW 0x3			; mp3_huffcodes_8
	DCW	0x4
	DCW	0x6
	DCW	0x12
	DCW	0xc
	DCW	0x5
	DCW	0x5
	DCW	0x1
	DCW	0x2
	DCW	0x10
	DCW	0x9
	DCW	0x3
	DCW	0x7
	DCW	0x3
	DCW	0x5
	DCW	0xe
	DCW	0x7
	DCW	0x3
	DCW	0x13
	DCW	0x11
	DCW	0xf
	DCW	0xd
	DCW	0xa
	DCW	0x4
	DCW	0xd
	DCW	0x5
	DCW	0x8
	DCW	0xb
	DCW	0x5
	DCW	0x1
	DCW	0xc
	DCW	0x4
	DCW	0x4
	DCW	0x1
	DCW	0x1
	DCW	0x0
|?mp3_huffbits_8@@3QBEB| DCB 0x2			; mp3_huffbits_8
	DCB	0x3
	DCB	0x6
	DCB	0x8
	DCB	0x8
	DCB	0x9
	DCB	0x3
	DCB	0x2
	DCB	0x4
	DCB	0x8
	DCB	0x8
	DCB	0x8
	DCB	0x6
	DCB	0x4
	DCB	0x6
	DCB	0x8
	DCB	0x8
	DCB	0x9
	DCB	0x8
	DCB	0x8
	DCB	0x8
	DCB	0x9
	DCB	0x9
	DCB	0xa
	DCB	0x8
	DCB	0x7
	DCB	0x8
	DCB	0x9
	DCB	0xa
	DCB	0xa
	DCB	0x9
	DCB	0x8
	DCB	0x9
	DCB	0x9
	DCB	0xb
	DCB	0xb
	%	4
|?mp3_huffcodes_9@@3QBGB| DCW 0x7			; mp3_huffcodes_9
	DCW	0x5
	DCW	0x9
	DCW	0xe
	DCW	0xf
	DCW	0x7
	DCW	0x6
	DCW	0x4
	DCW	0x5
	DCW	0x5
	DCW	0x6
	DCW	0x7
	DCW	0x7
	DCW	0x6
	DCW	0x8
	DCW	0x8
	DCW	0x8
	DCW	0x5
	DCW	0xf
	DCW	0x6
	DCW	0x9
	DCW	0xa
	DCW	0x5
	DCW	0x1
	DCW	0xb
	DCW	0x7
	DCW	0x9
	DCW	0x6
	DCW	0x4
	DCW	0x1
	DCW	0xe
	DCW	0x4
	DCW	0x6
	DCW	0x2
	DCW	0x6
	DCW	0x0
|?mp3_huffbits_9@@3QBEB| DCB 0x3			; mp3_huffbits_9
	DCB	0x3
	DCB	0x5
	DCB	0x6
	DCB	0x8
	DCB	0x9
	DCB	0x3
	DCB	0x3
	DCB	0x4
	DCB	0x5
	DCB	0x6
	DCB	0x8
	DCB	0x4
	DCB	0x4
	DCB	0x5
	DCB	0x6
	DCB	0x7
	DCB	0x8
	DCB	0x6
	DCB	0x5
	DCB	0x6
	DCB	0x7
	DCB	0x7
	DCB	0x8
	DCB	0x7
	DCB	0x6
	DCB	0x7
	DCB	0x7
	DCB	0x8
	DCB	0x9
	DCB	0x8
	DCB	0x7
	DCB	0x8
	DCB	0x8
	DCB	0x9
	DCB	0x9
	%	4
|?mp3_huffcodes_10@@3QBGB| DCW 0x1			; mp3_huffcodes_10
	DCW	0x2
	DCW	0xa
	DCW	0x17
	DCW	0x23
	DCW	0x1e
	DCW	0xc
	DCW	0x11
	DCW	0x3
	DCW	0x3
	DCW	0x8
	DCW	0xc
	DCW	0x12
	DCW	0x15
	DCW	0xc
	DCW	0x7
	DCW	0xb
	DCW	0x9
	DCW	0xf
	DCW	0x15
	DCW	0x20
	DCW	0x28
	DCW	0x13
	DCW	0x6
	DCW	0xe
	DCW	0xd
	DCW	0x16
	DCW	0x22
	DCW	0x2e
	DCW	0x17
	DCW	0x12
	DCW	0x7
	DCW	0x14
	DCW	0x13
	DCW	0x21
	DCW	0x2f
	DCW	0x1b
	DCW	0x16
	DCW	0x9
	DCW	0x3
	DCW	0x1f
	DCW	0x16
	DCW	0x29
	DCW	0x1a
	DCW	0x15
	DCW	0x14
	DCW	0x5
	DCW	0x3
	DCW	0xe
	DCW	0xd
	DCW	0xa
	DCW	0xb
	DCW	0x10
	DCW	0x6
	DCW	0x5
	DCW	0x1
	DCW	0x9
	DCW	0x8
	DCW	0x7
	DCW	0x8
	DCW	0x4
	DCW	0x4
	DCW	0x2
	DCW	0x0
|?mp3_huffbits_10@@3QBEB| DCB 0x1			; mp3_huffbits_10
	DCB	0x3
	DCB	0x6
	DCB	0x8
	DCB	0x9
	DCB	0x9
	DCB	0x9
	DCB	0xa
	DCB	0x3
	DCB	0x4
	DCB	0x6
	DCB	0x7
	DCB	0x8
	DCB	0x9
	DCB	0x8
	DCB	0x8
	DCB	0x6
	DCB	0x6
	DCB	0x7
	DCB	0x8
	DCB	0x9
	DCB	0xa
	DCB	0x9
	DCB	0x9
	DCB	0x7
	DCB	0x7
	DCB	0x8
	DCB	0x9
	DCB	0xa
	DCB	0xa
	DCB	0x9
	DCB	0xa
	DCB	0x8
	DCB	0x8
	DCB	0x9
	DCB	0xa
	DCB	0xa
	DCB	0xa
	DCB	0xa
	DCB	0xa
	DCB	0x9
	DCB	0x9
	DCB	0xa
	DCB	0xa
	DCB	0xb
	DCB	0xb
	DCB	0xa
	DCB	0xb
	DCB	0x8
	DCB	0x8
	DCB	0x9
	DCB	0xa
	DCB	0xa
	DCB	0xa
	DCB	0xb
	DCB	0xb
	DCB	0x9
	DCB	0x8
	DCB	0x9
	DCB	0xa
	DCB	0xa
	DCB	0xb
	DCB	0xb
	DCB	0xb
|?mp3_huffcodes_11@@3QBGB| DCW 0x3			; mp3_huffcodes_11
	DCW	0x4
	DCW	0xa
	DCW	0x18
	DCW	0x22
	DCW	0x21
	DCW	0x15
	DCW	0xf
	DCW	0x5
	DCW	0x3
	DCW	0x4
	DCW	0xa
	DCW	0x20
	DCW	0x11
	DCW	0xb
	DCW	0xa
	DCW	0xb
	DCW	0x7
	DCW	0xd
	DCW	0x12
	DCW	0x1e
	DCW	0x1f
	DCW	0x14
	DCW	0x5
	DCW	0x19
	DCW	0xb
	DCW	0x13
	DCW	0x3b
	DCW	0x1b
	DCW	0x12
	DCW	0xc
	DCW	0x5
	DCW	0x23
	DCW	0x21
	DCW	0x1f
	DCW	0x3a
	DCW	0x1e
	DCW	0x10
	DCW	0x7
	DCW	0x5
	DCW	0x1c
	DCW	0x1a
	DCW	0x20
	DCW	0x13
	DCW	0x11
	DCW	0xf
	DCW	0x8
	DCW	0xe
	DCW	0xe
	DCW	0xc
	DCW	0x9
	DCW	0xd
	DCW	0xe
	DCW	0x9
	DCW	0x4
	DCW	0x1
	DCW	0xb
	DCW	0x4
	DCW	0x6
	DCW	0x6
	DCW	0x6
	DCW	0x3
	DCW	0x2
	DCW	0x0
|?mp3_huffbits_11@@3QBEB| DCB 0x2			; mp3_huffbits_11
	DCB	0x3
	DCB	0x5
	DCB	0x7
	DCB	0x8
	DCB	0x9
	DCB	0x8
	DCB	0x9
	DCB	0x3
	DCB	0x3
	DCB	0x4
	DCB	0x6
	DCB	0x8
	DCB	0x8
	DCB	0x7
	DCB	0x8
	DCB	0x5
	DCB	0x5
	DCB	0x6
	DCB	0x7
	DCB	0x8
	DCB	0x9
	DCB	0x8
	DCB	0x8
	DCB	0x7
	DCB	0x6
	DCB	0x7
	DCB	0x9
	DCB	0x8
	DCB	0xa
	DCB	0x8
	DCB	0x9
	DCB	0x8
	DCB	0x8
	DCB	0x8
	DCB	0x9
	DCB	0x9
	DCB	0xa
	DCB	0x9
	DCB	0xa
	DCB	0x8
	DCB	0x8
	DCB	0x9
	DCB	0xa
	DCB	0xa
	DCB	0xb
	DCB	0xa
	DCB	0xb
	DCB	0x8
	DCB	0x7
	DCB	0x7
	DCB	0x8
	DCB	0x9
	DCB	0xa
	DCB	0xa
	DCB	0xa
	DCB	0x8
	DCB	0x7
	DCB	0x8
	DCB	0x9
	DCB	0xa
	DCB	0xa
	DCB	0xa
	DCB	0xa
|?mp3_huffcodes_12@@3QBGB| DCW 0x9			; mp3_huffcodes_12
	DCW	0x6
	DCW	0x10
	DCW	0x21
	DCW	0x29
	DCW	0x27
	DCW	0x26
	DCW	0x1a
	DCW	0x7
	DCW	0x5
	DCW	0x6
	DCW	0x9
	DCW	0x17
	DCW	0x10
	DCW	0x1a
	DCW	0xb
	DCW	0x11
	DCW	0x7
	DCW	0xb
	DCW	0xe
	DCW	0x15
	DCW	0x1e
	DCW	0xa
	DCW	0x7
	DCW	0x11
	DCW	0xa
	DCW	0xf
	DCW	0xc
	DCW	0x12
	DCW	0x1c
	DCW	0xe
	DCW	0x5
	DCW	0x20
	DCW	0xd
	DCW	0x16
	DCW	0x13
	DCW	0x12
	DCW	0x10
	DCW	0x9
	DCW	0x5
	DCW	0x28
	DCW	0x11
	DCW	0x1f
	DCW	0x1d
	DCW	0x11
	DCW	0xd
	DCW	0x4
	DCW	0x2
	DCW	0x1b
	DCW	0xc
	DCW	0xb
	DCW	0xf
	DCW	0xa
	DCW	0x7
	DCW	0x4
	DCW	0x1
	DCW	0x1b
	DCW	0xc
	DCW	0x8
	DCW	0xc
	DCW	0x6
	DCW	0x3
	DCW	0x1
	DCW	0x0
|?mp3_huffbits_12@@3QBEB| DCB 0x4			; mp3_huffbits_12
	DCB	0x3
	DCB	0x5
	DCB	0x7
	DCB	0x8
	DCB	0x9
	DCB	0x9
	DCB	0x9
	DCB	0x3
	DCB	0x3
	DCB	0x4
	DCB	0x5
	DCB	0x7
	DCB	0x7
	DCB	0x8
	DCB	0x8
	DCB	0x5
	DCB	0x4
	DCB	0x5
	DCB	0x6
	DCB	0x7
	DCB	0x8
	DCB	0x7
	DCB	0x8
	DCB	0x6
	DCB	0x5
	DCB	0x6
	DCB	0x6
	DCB	0x7
	DCB	0x8
	DCB	0x8
	DCB	0x8
	DCB	0x7
	DCB	0x6
	DCB	0x7
	DCB	0x7
	DCB	0x8
	DCB	0x8
	DCB	0x8
	DCB	0x9
	DCB	0x8
	DCB	0x7
	DCB	0x8
	DCB	0x8
	DCB	0x8
	DCB	0x9
	DCB	0x8
	DCB	0x9
	DCB	0x8
	DCB	0x7
	DCB	0x7
	DCB	0x8
	DCB	0x8
	DCB	0x9
	DCB	0x9
	DCB	0xa
	DCB	0x9
	DCB	0x8
	DCB	0x8
	DCB	0x9
	DCB	0x9
	DCB	0x9
	DCB	0x9
	DCB	0xa
|?mp3_huffcodes_13@@3QBGB| DCW 0x1			; mp3_huffcodes_13
	DCW	0x5
	DCW	0xe
	DCW	0x15
	DCW	0x22
	DCW	0x33
	DCW	0x2e
	DCW	0x47
	DCW	0x2a
	DCW	0x34
	DCW	0x44
	DCW	0x34
	DCW	0x43
	DCW	0x2c
	DCW	0x2b
	DCW	0x13
	DCW	0x3
	DCW	0x4
	DCW	0xc
	DCW	0x13
	DCW	0x1f
	DCW	0x1a
	DCW	0x2c
	DCW	0x21
	DCW	0x1f
	DCW	0x18
	DCW	0x20
	DCW	0x18
	DCW	0x1f
	DCW	0x23
	DCW	0x16
	DCW	0xe
	DCW	0xf
	DCW	0xd
	DCW	0x17
	DCW	0x24
	DCW	0x3b
	DCW	0x31
	DCW	0x4d
	DCW	0x41
	DCW	0x1d
	DCW	0x28
	DCW	0x1e
	DCW	0x28
	DCW	0x1b
	DCW	0x21
	DCW	0x2a
	DCW	0x10
	DCW	0x16
	DCW	0x14
	DCW	0x25
	DCW	0x3d
	DCW	0x38
	DCW	0x4f
	DCW	0x49
	DCW	0x40
	DCW	0x2b
	DCW	0x4c
	DCW	0x38
	DCW	0x25
	DCW	0x1a
	DCW	0x1f
	DCW	0x19
	DCW	0xe
	DCW	0x23
	DCW	0x10
	DCW	0x3c
	DCW	0x39
	DCW	0x61
	DCW	0x4b
	DCW	0x72
	DCW	0x5b
	DCW	0x36
	DCW	0x49
	DCW	0x37
	DCW	0x29
	DCW	0x30
	DCW	0x35
	DCW	0x17
	DCW	0x18
	DCW	0x3a
	DCW	0x1b
	DCW	0x32
	DCW	0x60
	DCW	0x4c
	DCW	0x46
	DCW	0x5d
	DCW	0x54
	DCW	0x4d
	DCW	0x3a
	DCW	0x4f
	DCW	0x1d
	DCW	0x4a
	DCW	0x31
	DCW	0x29
	DCW	0x11
	DCW	0x2f
	DCW	0x2d
	DCW	0x4e
	DCW	0x4a
	DCW	0x73
	DCW	0x5e
	DCW	0x5a
	DCW	0x4f
	DCW	0x45
	DCW	0x53
	DCW	0x47
	DCW	0x32
	DCW	0x3b
	DCW	0x26
	DCW	0x24
	DCW	0xf
	DCW	0x48
	DCW	0x22
	DCW	0x38
	DCW	0x5f
	DCW	0x5c
	DCW	0x55
	DCW	0x5b
	DCW	0x5a
	DCW	0x56
	DCW	0x49
	DCW	0x4d
	DCW	0x41
	DCW	0x33
	DCW	0x2c
	DCW	0x2b
	DCW	0x2a
	DCW	0x2b
	DCW	0x14
	DCW	0x1e
	DCW	0x2c
	DCW	0x37
	DCW	0x4e
	DCW	0x48
	DCW	0x57
	DCW	0x4e
	DCW	0x3d
	DCW	0x2e
	DCW	0x36
	DCW	0x25
	DCW	0x1e
	DCW	0x14
	DCW	0x10
	DCW	0x35
	DCW	0x19
	DCW	0x29
	DCW	0x25
	DCW	0x2c
	DCW	0x3b
	DCW	0x36
	DCW	0x51
	DCW	0x42
	DCW	0x4c
	DCW	0x39
	DCW	0x36
	DCW	0x25
	DCW	0x12
	DCW	0x27
	DCW	0xb
	DCW	0x23
	DCW	0x21
	DCW	0x1f
	DCW	0x39
	DCW	0x2a
	DCW	0x52
	DCW	0x48
	DCW	0x50
	DCW	0x2f
	DCW	0x3a
	DCW	0x37
	DCW	0x15
	DCW	0x16
	DCW	0x1a
	DCW	0x26
	DCW	0x16
	DCW	0x35
	DCW	0x19
	DCW	0x17
	DCW	0x26
	DCW	0x46
	DCW	0x3c
	DCW	0x33
	DCW	0x24
	DCW	0x37
	DCW	0x1a
	DCW	0x22
	DCW	0x17
	DCW	0x1b
	DCW	0xe
	DCW	0x9
	DCW	0x7
	DCW	0x22
	DCW	0x20
	DCW	0x1c
	DCW	0x27
	DCW	0x31
	DCW	0x4b
	DCW	0x1e
	DCW	0x34
	DCW	0x30
	DCW	0x28
	DCW	0x34
	DCW	0x1c
	DCW	0x12
	DCW	0x11
	DCW	0x9
	DCW	0x5
	DCW	0x2d
	DCW	0x15
	DCW	0x22
	DCW	0x40
	DCW	0x38
	DCW	0x32
	DCW	0x31
	DCW	0x2d
	DCW	0x1f
	DCW	0x13
	DCW	0xc
	DCW	0xf
	DCW	0xa
	DCW	0x7
	DCW	0x6
	DCW	0x3
	DCW	0x30
	DCW	0x17
	DCW	0x14
	DCW	0x27
	DCW	0x24
	DCW	0x23
	DCW	0x35
	DCW	0x15
	DCW	0x10
	DCW	0x17
	DCW	0xd
	DCW	0xa
	DCW	0x6
	DCW	0x1
	DCW	0x4
	DCW	0x2
	DCW	0x10
	DCW	0xf
	DCW	0x11
	DCW	0x1b
	DCW	0x19
	DCW	0x14
	DCW	0x1d
	DCW	0xb
	DCW	0x11
	DCW	0xc
	DCW	0x10
	DCW	0x8
	DCW	0x1
	DCW	0x1
	DCW	0x0
	DCW	0x1
|?mp3_huffbits_13@@3QBEB| DCB 0x1			; mp3_huffbits_13
	DCB	0x4
	DCB	0x6
	DCB	0x7
	DCB	0x8
	DCB	0x9
	DCB	0x9
	DCB	0xa
	DCB	0x9
	DCB	0xa
	DCB	0xb
	DCB	0xb
	DCB	0xc
	DCB	0xc
	DCB	0xd
	DCB	0xd
	DCB	0x3
	DCB	0x4
	DCB	0x6
	DCB	0x7
	DCB	0x8
	DCB	0x8
	DCB	0x9
	DCB	0x9
	DCB	0x9
	DCB	0x9
	DCB	0xa
	DCB	0xa
	DCB	0xb
	DCB	0xc
	DCB	0xc
	DCB	0xc
	DCB	0x6
	DCB	0x6
	DCB	0x7
	DCB	0x8
	DCB	0x9
	DCB	0x9
	DCB	0xa
	DCB	0xa
	DCB	0x9
	DCB	0xa
	DCB	0xa
	DCB	0xb
	DCB	0xb
	DCB	0xc
	DCB	0xd
	DCB	0xd
	DCB	0x7
	DCB	0x7
	DCB	0x8
	DCB	0x9
	DCB	0x9
	DCB	0xa
	DCB	0xa
	DCB	0xa
	DCB	0xa
	DCB	0xb
	DCB	0xb
	DCB	0xb
	DCB	0xb
	DCB	0xc
	DCB	0xd
	DCB	0xd
	DCB	0x8
	DCB	0x7
	DCB	0x9
	DCB	0x9
	DCB	0xa
	DCB	0xa
	DCB	0xb
	DCB	0xb
	DCB	0xa
	DCB	0xb
	DCB	0xb
	DCB	0xc
	DCB	0xc
	DCB	0xd
	DCB	0xd
	DCB	0xe
	DCB	0x9
	DCB	0x8
	DCB	0x9
	DCB	0xa
	DCB	0xa
	DCB	0xa
	DCB	0xb
	DCB	0xb
	DCB	0xb
	DCB	0xb
	DCB	0xc
	DCB	0xb
	DCB	0xd
	DCB	0xd
	DCB	0xe
	DCB	0xe
	DCB	0x9
	DCB	0x9
	DCB	0xa
	DCB	0xa
	DCB	0xb
	DCB	0xb
	DCB	0xb
	DCB	0xb
	DCB	0xb
	DCB	0xc
	DCB	0xc
	DCB	0xc
	DCB	0xd
	DCB	0xd
	DCB	0xe
	DCB	0xe
	DCB	0xa
	DCB	0x9
	DCB	0xa
	DCB	0xb
	DCB	0xb
	DCB	0xb
	DCB	0xc
	DCB	0xc
	DCB	0xc
	DCB	0xc
	DCB	0xd
	DCB	0xd
	DCB	0xd
	DCB	0xe
	DCB	0x10
	DCB	0x10
	DCB	0x9
	DCB	0x8
	DCB	0x9
	DCB	0xa
	DCB	0xa
	DCB	0xb
	DCB	0xb
	DCB	0xc
	DCB	0xc
	DCB	0xc
	DCB	0xc
	DCB	0xd
	DCB	0xd
	DCB	0xe
	DCB	0xf
	DCB	0xf
	DCB	0xa
	DCB	0x9
	DCB	0xa
	DCB	0xa
	DCB	0xb
	DCB	0xb
	DCB	0xb
	DCB	0xd
	DCB	0xc
	DCB	0xd
	DCB	0xd
	DCB	0xe
	DCB	0xe
	DCB	0xe
	DCB	0x10
	DCB	0xf
	DCB	0xa
	DCB	0xa
	DCB	0xa
	DCB	0xb
	DCB	0xb
	DCB	0xc
	DCB	0xc
	DCB	0xd
	DCB	0xc
	DCB	0xd
	DCB	0xe
	DCB	0xd
	DCB	0xe
	DCB	0xf
	DCB	0x10
	DCB	0x11
	DCB	0xb
	DCB	0xa
	DCB	0xa
	DCB	0xb
	DCB	0xc
	DCB	0xc
	DCB	0xc
	DCB	0xc
	DCB	0xd
	DCB	0xd
	DCB	0xd
	DCB	0xe
	DCB	0xf
	DCB	0xf
	DCB	0xf
	DCB	0x10
	DCB	0xb
	DCB	0xb
	DCB	0xb
	DCB	0xc
	DCB	0xc
	DCB	0xd
	DCB	0xc
	DCB	0xd
	DCB	0xe
	DCB	0xe
	DCB	0xf
	DCB	0xf
	DCB	0xf
	DCB	0x10
	DCB	0x10
	DCB	0x10
	DCB	0xc
	DCB	0xb
	DCB	0xc
	DCB	0xd
	DCB	0xd
	DCB	0xd
	DCB	0xe
	DCB	0xe
	DCB	0xe
	DCB	0xe
	DCB	0xe
	DCB	0xf
	DCB	0x10
	DCB	0xf
	DCB	0x10
	DCB	0x10
	DCB	0xd
	DCB	0xc
	DCB	0xc
	DCB	0xd
	DCB	0xd
	DCB	0xd
	DCB	0xf
	DCB	0xe
	DCB	0xe
	DCB	0x11
	DCB	0xf
	DCB	0xf
	DCB	0xf
	DCB	0x11
	DCB	0x10
	DCB	0x10
	DCB	0xc
	DCB	0xc
	DCB	0xd
	DCB	0xe
	DCB	0xe
	DCB	0xe
	DCB	0xf
	DCB	0xe
	DCB	0xf
	DCB	0xf
	DCB	0x10
	DCB	0x10
	DCB	0x13
	DCB	0x12
	DCB	0x13
	DCB	0x10
|?mp3_huffcodes_15@@3QBGB| DCW 0x7			; mp3_huffcodes_15
	DCW	0xc
	DCW	0x12
	DCW	0x35
	DCW	0x2f
	DCW	0x4c
	DCW	0x7c
	DCW	0x6c
	DCW	0x59
	DCW	0x7b
	DCW	0x6c
	DCW	0x77
	DCW	0x6b
	DCW	0x51
	DCW	0x7a
	DCW	0x3f
	DCW	0xd
	DCW	0x5
	DCW	0x10
	DCW	0x1b
	DCW	0x2e
	DCW	0x24
	DCW	0x3d
	DCW	0x33
	DCW	0x2a
	DCW	0x46
	DCW	0x34
	DCW	0x53
	DCW	0x41
	DCW	0x29
	DCW	0x3b
	DCW	0x24
	DCW	0x13
	DCW	0x11
	DCW	0xf
	DCW	0x18
	DCW	0x29
	DCW	0x22
	DCW	0x3b
	DCW	0x30
	DCW	0x28
	DCW	0x40
	DCW	0x32
	DCW	0x4e
	DCW	0x3e
	DCW	0x50
	DCW	0x38
	DCW	0x21
	DCW	0x1d
	DCW	0x1c
	DCW	0x19
	DCW	0x2b
	DCW	0x27
	DCW	0x3f
	DCW	0x37
	DCW	0x5d
	DCW	0x4c
	DCW	0x3b
	DCW	0x5d
	DCW	0x48
	DCW	0x36
	DCW	0x4b
	DCW	0x32
	DCW	0x1d
	DCW	0x34
	DCW	0x16
	DCW	0x2a
	DCW	0x28
	DCW	0x43
	DCW	0x39
	DCW	0x5f
	DCW	0x4f
	DCW	0x48
	DCW	0x39
	DCW	0x59
	DCW	0x45
	DCW	0x31
	DCW	0x42
	DCW	0x2e
	DCW	0x1b
	DCW	0x4d
	DCW	0x25
	DCW	0x23
	DCW	0x42
	DCW	0x3a
	DCW	0x34
	DCW	0x5b
	DCW	0x4a
	DCW	0x3e
	DCW	0x30
	DCW	0x4f
	DCW	0x3f
	DCW	0x5a
	DCW	0x3e
	DCW	0x28
	DCW	0x26
	DCW	0x7d
	DCW	0x20
	DCW	0x3c
	DCW	0x38
	DCW	0x32
	DCW	0x5c
	DCW	0x4e
	DCW	0x41
	DCW	0x37
	DCW	0x57
	DCW	0x47
	DCW	0x33
	DCW	0x49
	DCW	0x33
	DCW	0x46
	DCW	0x1e
	DCW	0x6d
	DCW	0x35
	DCW	0x31
	DCW	0x5e
	DCW	0x58
	DCW	0x4b
	DCW	0x42
	DCW	0x7a
	DCW	0x5b
	DCW	0x49
	DCW	0x38
	DCW	0x2a
	DCW	0x40
	DCW	0x2c
	DCW	0x15
	DCW	0x19
	DCW	0x5a
	DCW	0x2b
	DCW	0x29
	DCW	0x4d
	DCW	0x49
	DCW	0x3f
	DCW	0x38
	DCW	0x5c
	DCW	0x4d
	DCW	0x42
	DCW	0x2f
	DCW	0x43
	DCW	0x30
	DCW	0x35
	DCW	0x24
	DCW	0x14
	DCW	0x47
	DCW	0x22
	DCW	0x43
	DCW	0x3c
	DCW	0x3a
	DCW	0x31
	DCW	0x58
	DCW	0x4c
	DCW	0x43
	DCW	0x6a
	DCW	0x47
	DCW	0x36
	DCW	0x26
	DCW	0x27
	DCW	0x17
	DCW	0xf
	DCW	0x6d
	DCW	0x35
	DCW	0x33
	DCW	0x2f
	DCW	0x5a
	DCW	0x52
	DCW	0x3a
	DCW	0x39
	DCW	0x30
	DCW	0x48
	DCW	0x39
	DCW	0x29
	DCW	0x17
	DCW	0x1b
	DCW	0x3e
	DCW	0x9
	DCW	0x56
	DCW	0x2a
	DCW	0x28
	DCW	0x25
	DCW	0x46
	DCW	0x40
	DCW	0x34
	DCW	0x2b
	DCW	0x46
	DCW	0x37
	DCW	0x2a
	DCW	0x19
	DCW	0x1d
	DCW	0x12
	DCW	0xb
	DCW	0xb
	DCW	0x76
	DCW	0x44
	DCW	0x1e
	DCW	0x37
	DCW	0x32
	DCW	0x2e
	DCW	0x4a
	DCW	0x41
	DCW	0x31
	DCW	0x27
	DCW	0x18
	DCW	0x10
	DCW	0x16
	DCW	0xd
	DCW	0xe
	DCW	0x7
	DCW	0x5b
	DCW	0x2c
	DCW	0x27
	DCW	0x26
	DCW	0x22
	DCW	0x3f
	DCW	0x34
	DCW	0x2d
	DCW	0x1f
	DCW	0x34
	DCW	0x1c
	DCW	0x13
	DCW	0xe
	DCW	0x8
	DCW	0x9
	DCW	0x3
	DCW	0x7b
	DCW	0x3c
	DCW	0x3a
	DCW	0x35
	DCW	0x2f
	DCW	0x2b
	DCW	0x20
	DCW	0x16
	DCW	0x25
	DCW	0x18
	DCW	0x11
	DCW	0xc
	DCW	0xf
	DCW	0xa
	DCW	0x2
	DCW	0x1
	DCW	0x47
	DCW	0x25
	DCW	0x22
	DCW	0x1e
	DCW	0x1c
	DCW	0x14
	DCW	0x11
	DCW	0x1a
	DCW	0x15
	DCW	0x10
	DCW	0xa
	DCW	0x6
	DCW	0x8
	DCW	0x6
	DCW	0x2
	DCW	0x0
|?mp3_huffbits_15@@3QBEB| DCB 0x3			; mp3_huffbits_15
	DCB	0x4
	DCB	0x5
	DCB	0x7
	DCB	0x7
	DCB	0x8
	DCB	0x9
	DCB	0x9
	DCB	0x9
	DCB	0xa
	DCB	0xa
	DCB	0xb
	DCB	0xb
	DCB	0xb
	DCB	0xc
	DCB	0xd
	DCB	0x4
	DCB	0x3
	DCB	0x5
	DCB	0x6
	DCB	0x7
	DCB	0x7
	DCB	0x8
	DCB	0x8
	DCB	0x8
	DCB	0x9
	DCB	0x9
	DCB	0xa
	DCB	0xa
	DCB	0xa
	DCB	0xb
	DCB	0xb
	DCB	0x5
	DCB	0x5
	DCB	0x5
	DCB	0x6
	DCB	0x7
	DCB	0x7
	DCB	0x8
	DCB	0x8
	DCB	0x8
	DCB	0x9
	DCB	0x9
	DCB	0xa
	DCB	0xa
	DCB	0xb
	DCB	0xb
	DCB	0xb
	DCB	0x6
	DCB	0x6
	DCB	0x6
	DCB	0x7
	DCB	0x7
	DCB	0x8
	DCB	0x8
	DCB	0x9
	DCB	0x9
	DCB	0x9
	DCB	0xa
	DCB	0xa
	DCB	0xa
	DCB	0xb
	DCB	0xb
	DCB	0xb
	DCB	0x7
	DCB	0x6
	DCB	0x7
	DCB	0x7
	DCB	0x8
	DCB	0x8
	DCB	0x9
	DCB	0x9
	DCB	0x9
	DCB	0x9
	DCB	0xa
	DCB	0xa
	DCB	0xa
	DCB	0xb
	DCB	0xb
	DCB	0xb
	DCB	0x8
	DCB	0x7
	DCB	0x7
	DCB	0x8
	DCB	0x8
	DCB	0x8
	DCB	0x9
	DCB	0x9
	DCB	0x9
	DCB	0x9
	DCB	0xa
	DCB	0xa
	DCB	0xb
	DCB	0xb
	DCB	0xb
	DCB	0xc
	DCB	0x9
	DCB	0x7
	DCB	0x8
	DCB	0x8
	DCB	0x8
	DCB	0x9
	DCB	0x9
	DCB	0x9
	DCB	0x9
	DCB	0xa
	DCB	0xa
	DCB	0xa
	DCB	0xb
	DCB	0xb
	DCB	0xc
	DCB	0xc
	DCB	0x9
	DCB	0x8
	DCB	0x8
	DCB	0x9
	DCB	0x9
	DCB	0x9
	DCB	0x9
	DCB	0xa
	DCB	0xa
	DCB	0xa
	DCB	0xa
	DCB	0xa
	DCB	0xb
	DCB	0xb
	DCB	0xb
	DCB	0xc
	DCB	0x9
	DCB	0x8
	DCB	0x8
	DCB	0x9
	DCB	0x9
	DCB	0x9
	DCB	0x9
	DCB	0xa
	DCB	0xa
	DCB	0xa
	DCB	0xa
	DCB	0xb
	DCB	0xb
	DCB	0xc
	DCB	0xc
	DCB	0xc
	DCB	0x9
	DCB	0x8
	DCB	0x9
	DCB	0x9
	DCB	0x9
	DCB	0x9
	DCB	0xa
	DCB	0xa
	DCB	0xa
	DCB	0xb
	DCB	0xb
	DCB	0xb
	DCB	0xb
	DCB	0xc
	DCB	0xc
	DCB	0xc
	DCB	0xa
	DCB	0x9
	DCB	0x9
	DCB	0x9
	DCB	0xa
	DCB	0xa
	DCB	0xa
	DCB	0xa
	DCB	0xa
	DCB	0xb
	DCB	0xb
	DCB	0xb
	DCB	0xb
	DCB	0xc
	DCB	0xd
	DCB	0xc
	DCB	0xa
	DCB	0x9
	DCB	0x9
	DCB	0x9
	DCB	0xa
	DCB	0xa
	DCB	0xa
	DCB	0xa
	DCB	0xb
	DCB	0xb
	DCB	0xb
	DCB	0xb
	DCB	0xc
	DCB	0xc
	DCB	0xc
	DCB	0xd
	DCB	0xb
	DCB	0xa
	DCB	0x9
	DCB	0xa
	DCB	0xa
	DCB	0xa
	DCB	0xb
	DCB	0xb
	DCB	0xb
	DCB	0xb
	DCB	0xb
	DCB	0xb
	DCB	0xc
	DCB	0xc
	DCB	0xd
	DCB	0xd
	DCB	0xb
	DCB	0xa
	DCB	0xa
	DCB	0xa
	DCB	0xa
	DCB	0xb
	DCB	0xb
	DCB	0xb
	DCB	0xb
	DCB	0xc
	DCB	0xc
	DCB	0xc
	DCB	0xc
	DCB	0xc
	DCB	0xd
	DCB	0xd
	DCB	0xc
	DCB	0xb
	DCB	0xb
	DCB	0xb
	DCB	0xb
	DCB	0xb
	DCB	0xb
	DCB	0xb
	DCB	0xc
	DCB	0xc
	DCB	0xc
	DCB	0xc
	DCB	0xd
	DCB	0xd
	DCB	0xc
	DCB	0xd
	DCB	0xc
	DCB	0xb
	DCB	0xb
	DCB	0xb
	DCB	0xb
	DCB	0xb
	DCB	0xb
	DCB	0xc
	DCB	0xc
	DCB	0xc
	DCB	0xc
	DCB	0xc
	DCB	0xd
	DCB	0xd
	DCB	0xd
	DCB	0xd
|?mp3_huffcodes_16@@3QBGB| DCW 0x1			; mp3_huffcodes_16
	DCW	0x5
	DCW	0xe
	DCW	0x2c
	DCW	0x4a
	DCW	0x3f
	DCW	0x6e
	DCW	0x5d
	DCW	0xac
	DCW	0x95
	DCW	0x8a
	DCW	0xf2
	DCW	0xe1
	DCW	0xc3
	DCW	0x178
	DCW	0x11
	DCW	0x3
	DCW	0x4
	DCW	0xc
	DCW	0x14
	DCW	0x23
	DCW	0x3e
	DCW	0x35
	DCW	0x2f
	DCW	0x53
	DCW	0x4b
	DCW	0x44
	DCW	0x77
	DCW	0xc9
	DCW	0x6b
	DCW	0xcf
	DCW	0x9
	DCW	0xf
	DCW	0xd
	DCW	0x17
	DCW	0x26
	DCW	0x43
	DCW	0x3a
	DCW	0x67
	DCW	0x5a
	DCW	0xa1
	DCW	0x48
	DCW	0x7f
	DCW	0x75
	DCW	0x6e
	DCW	0xd1
	DCW	0xce
	DCW	0x10
	DCW	0x2d
	DCW	0x15
	DCW	0x27
	DCW	0x45
	DCW	0x40
	DCW	0x72
	DCW	0x63
	DCW	0x57
	DCW	0x9e
	DCW	0x8c
	DCW	0xfc
	DCW	0xd4
	DCW	0xc7
	DCW	0x183
	DCW	0x16d
	DCW	0x1a
	DCW	0x4b
	DCW	0x24
	DCW	0x44
	DCW	0x41
	DCW	0x73
	DCW	0x65
	DCW	0xb3
	DCW	0xa4
	DCW	0x9b
	DCW	0x108
	DCW	0xf6
	DCW	0xe2
	DCW	0x18b
	DCW	0x17e
	DCW	0x16a
	DCW	0x9
	DCW	0x42
	DCW	0x1e
	DCW	0x3b
	DCW	0x38
	DCW	0x66
	DCW	0xb9
	DCW	0xad
	DCW	0x109
	DCW	0x8e
	DCW	0xfd
	DCW	0xe8
	DCW	0x190
	DCW	0x184
	DCW	0x17a
	DCW	0x1bd
	DCW	0x10
	DCW	0x6f
	DCW	0x36
	DCW	0x34
	DCW	0x64
	DCW	0xb8
	DCW	0xb2
	DCW	0xa0
	DCW	0x85
	DCW	0x101
	DCW	0xf4
	DCW	0xe4
	DCW	0xd9
	DCW	0x181
	DCW	0x16e
	DCW	0x2cb
	DCW	0xa
	DCW	0x62
	DCW	0x30
	DCW	0x5b
	DCW	0x58
	DCW	0xa5
	DCW	0x9d
	DCW	0x94
	DCW	0x105
	DCW	0xf8
	DCW	0x197
	DCW	0x18d
	DCW	0x174
	DCW	0x17c
	DCW	0x379
	DCW	0x374
	DCW	0x8
	DCW	0x55
	DCW	0x54
	DCW	0x51
	DCW	0x9f
	DCW	0x9c
	DCW	0x8f
	DCW	0x104
	DCW	0xf9
	DCW	0x1ab
	DCW	0x191
	DCW	0x188
	DCW	0x17f
	DCW	0x2d7
	DCW	0x2c9
	DCW	0x2c4
	DCW	0x7
	DCW	0x9a
	DCW	0x4c
	DCW	0x49
	DCW	0x8d
	DCW	0x83
	DCW	0x100
	DCW	0xf5
	DCW	0x1aa
	DCW	0x196
	DCW	0x18a
	DCW	0x180
	DCW	0x2df
	DCW	0x167
	DCW	0x2c6
	DCW	0x160
	DCW	0xb
	DCW	0x8b
	DCW	0x81
	DCW	0x43
	DCW	0x7d
	DCW	0xf7
	DCW	0xe9
	DCW	0xe5
	DCW	0xdb
	DCW	0x189
	DCW	0x2e7
	DCW	0x2e1
	DCW	0x2d0
	DCW	0x375
	DCW	0x372
	DCW	0x1b7
	DCW	0x4
	DCW	0xf3
	DCW	0x78
	DCW	0x76
	DCW	0x73
	DCW	0xe3
	DCW	0xdf
	DCW	0x18c
	DCW	0x2ea
	DCW	0x2e6
	DCW	0x2e0
	DCW	0x2d1
	DCW	0x2c8
	DCW	0x2c2
	DCW	0xdf
	DCW	0x1b4
	DCW	0x6
	DCW	0xca
	DCW	0xe0
	DCW	0xde
	DCW	0xda
	DCW	0xd8
	DCW	0x185
	DCW	0x182
	DCW	0x17d
	DCW	0x16c
	DCW	0x378
	DCW	0x1bb
	DCW	0x2c3
	DCW	0x1b8
	DCW	0x1b5
	DCW	0x6c0
	DCW	0x4
	DCW	0x2eb
	DCW	0xd3
	DCW	0xd2
	DCW	0xd0
	DCW	0x172
	DCW	0x17b
	DCW	0x2de
	DCW	0x2d3
	DCW	0x2ca
	DCW	0x6c7
	DCW	0x373
	DCW	0x36d
	DCW	0x36c
	DCW	0xd83
	DCW	0x361
	DCW	0x2
	DCW	0x179
	DCW	0x171
	DCW	0x66
	DCW	0xbb
	DCW	0x2d6
	DCW	0x2d2
	DCW	0x166
	DCW	0x2c7
	DCW	0x2c5
	DCW	0x362
	DCW	0x6c6
	DCW	0x367
	DCW	0xd82
	DCW	0x366
	DCW	0x1b2
	DCW	0x0
	DCW	0xc
	DCW	0xa
	DCW	0x7
	DCW	0xb
	DCW	0xa
	DCW	0x11
	DCW	0xb
	DCW	0x9
	DCW	0xd
	DCW	0xc
	DCW	0xa
	DCW	0x7
	DCW	0x5
	DCW	0x3
	DCW	0x1
	DCW	0x3
|?mp3_huffbits_16@@3QBEB| DCB 0x1			; mp3_huffbits_16
	DCB	0x4
	DCB	0x6
	DCB	0x8
	DCB	0x9
	DCB	0x9
	DCB	0xa
	DCB	0xa
	DCB	0xb
	DCB	0xb
	DCB	0xb
	DCB	0xc
	DCB	0xc
	DCB	0xc
	DCB	0xd
	DCB	0x9
	DCB	0x3
	DCB	0x4
	DCB	0x6
	DCB	0x7
	DCB	0x8
	DCB	0x9
	DCB	0x9
	DCB	0x9
	DCB	0xa
	DCB	0xa
	DCB	0xa
	DCB	0xb
	DCB	0xc
	DCB	0xb
	DCB	0xc
	DCB	0x8
	DCB	0x6
	DCB	0x6
	DCB	0x7
	DCB	0x8
	DCB	0x9
	DCB	0x9
	DCB	0xa
	DCB	0xa
	DCB	0xb
	DCB	0xa
	DCB	0xb
	DCB	0xb
	DCB	0xb
	DCB	0xc
	DCB	0xc
	DCB	0x9
	DCB	0x8
	DCB	0x7
	DCB	0x8
	DCB	0x9
	DCB	0x9
	DCB	0xa
	DCB	0xa
	DCB	0xa
	DCB	0xb
	DCB	0xb
	DCB	0xc
	DCB	0xc
	DCB	0xc
	DCB	0xd
	DCB	0xd
	DCB	0xa
	DCB	0x9
	DCB	0x8
	DCB	0x9
	DCB	0x9
	DCB	0xa
	DCB	0xa
	DCB	0xb
	DCB	0xb
	DCB	0xb
	DCB	0xc
	DCB	0xc
	DCB	0xc
	DCB	0xd
	DCB	0xd
	DCB	0xd
	DCB	0x9
	DCB	0x9
	DCB	0x8
	DCB	0x9
	DCB	0x9
	DCB	0xa
	DCB	0xb
	DCB	0xb
	DCB	0xc
	DCB	0xb
	DCB	0xc
	DCB	0xc
	DCB	0xd
	DCB	0xd
	DCB	0xd
	DCB	0xe
	DCB	0xa
	DCB	0xa
	DCB	0x9
	DCB	0x9
	DCB	0xa
	DCB	0xb
	DCB	0xb
	DCB	0xb
	DCB	0xb
	DCB	0xc
	DCB	0xc
	DCB	0xc
	DCB	0xc
	DCB	0xd
	DCB	0xd
	DCB	0xe
	DCB	0xa
	DCB	0xa
	DCB	0x9
	DCB	0xa
	DCB	0xa
	DCB	0xb
	DCB	0xb
	DCB	0xb
	DCB	0xc
	DCB	0xc
	DCB	0xd
	DCB	0xd
	DCB	0xd
	DCB	0xd
	DCB	0xf
	DCB	0xf
	DCB	0xa
	DCB	0xa
	DCB	0xa
	DCB	0xa
	DCB	0xb
	DCB	0xb
	DCB	0xb
	DCB	0xc
	DCB	0xc
	DCB	0xd
	DCB	0xd
	DCB	0xd
	DCB	0xd
	DCB	0xe
	DCB	0xe
	DCB	0xe
	DCB	0xa
	DCB	0xb
	DCB	0xa
	DCB	0xa
	DCB	0xb
	DCB	0xb
	DCB	0xc
	DCB	0xc
	DCB	0xd
	DCB	0xd
	DCB	0xd
	DCB	0xd
	DCB	0xe
	DCB	0xd
	DCB	0xe
	DCB	0xd
	DCB	0xb
	DCB	0xb
	DCB	0xb
	DCB	0xa
	DCB	0xb
	DCB	0xc
	DCB	0xc
	DCB	0xc
	DCB	0xc
	DCB	0xd
	DCB	0xe
	DCB	0xe
	DCB	0xe
	DCB	0xf
	DCB	0xf
	DCB	0xe
	DCB	0xa
	DCB	0xc
	DCB	0xb
	DCB	0xb
	DCB	0xb
	DCB	0xc
	DCB	0xc
	DCB	0xd
	DCB	0xe
	DCB	0xe
	DCB	0xe
	DCB	0xe
	DCB	0xe
	DCB	0xe
	DCB	0xd
	DCB	0xe
	DCB	0xb
	DCB	0xc
	DCB	0xc
	DCB	0xc
	DCB	0xc
	DCB	0xc
	DCB	0xd
	DCB	0xd
	DCB	0xd
	DCB	0xd
	DCB	0xf
	DCB	0xe
	DCB	0xe
	DCB	0xe
	DCB	0xe
	DCB	0x10
	DCB	0xb
	DCB	0xe
	DCB	0xc
	DCB	0xc
	DCB	0xc
	DCB	0xd
	DCB	0xd
	DCB	0xe
	DCB	0xe
	DCB	0xe
	DCB	0x10
	DCB	0xf
	DCB	0xf
	DCB	0xf
	DCB	0x11
	DCB	0xf
	DCB	0xb
	DCB	0xd
	DCB	0xd
	DCB	0xb
	DCB	0xc
	DCB	0xe
	DCB	0xe
	DCB	0xd
	DCB	0xe
	DCB	0xe
	DCB	0xf
	DCB	0x10
	DCB	0xf
	DCB	0x11
	DCB	0xf
	DCB	0xe
	DCB	0xb
	DCB	0x9
	DCB	0x8
	DCB	0x8
	DCB	0x9
	DCB	0x9
	DCB	0xa
	DCB	0xa
	DCB	0xa
	DCB	0xb
	DCB	0xb
	DCB	0xb
	DCB	0xb
	DCB	0xb
	DCB	0xb
	DCB	0xb
	DCB	0x8
|?mp3_huffcodes_24@@3QBGB| DCW 0xf			; mp3_huffcodes_24
	DCW	0xd
	DCW	0x2e
	DCW	0x50
	DCW	0x92
	DCW	0x106
	DCW	0xf8
	DCW	0x1b2
	DCW	0x1aa
	DCW	0x29d
	DCW	0x28d
	DCW	0x289
	DCW	0x26d
	DCW	0x205
	DCW	0x408
	DCW	0x58
	DCW	0xe
	DCW	0xc
	DCW	0x15
	DCW	0x26
	DCW	0x47
	DCW	0x82
	DCW	0x7a
	DCW	0xd8
	DCW	0xd1
	DCW	0xc6
	DCW	0x147
	DCW	0x159
	DCW	0x13f
	DCW	0x129
	DCW	0x117
	DCW	0x2a
	DCW	0x2f
	DCW	0x16
	DCW	0x29
	DCW	0x4a
	DCW	0x44
	DCW	0x80
	DCW	0x78
	DCW	0xdd
	DCW	0xcf
	DCW	0xc2
	DCW	0xb6
	DCW	0x154
	DCW	0x13b
	DCW	0x127
	DCW	0x21d
	DCW	0x12
	DCW	0x51
	DCW	0x27
	DCW	0x4b
	DCW	0x46
	DCW	0x86
	DCW	0x7d
	DCW	0x74
	DCW	0xdc
	DCW	0xcc
	DCW	0xbe
	DCW	0xb2
	DCW	0x145
	DCW	0x137
	DCW	0x125
	DCW	0x10f
	DCW	0x10
	DCW	0x93
	DCW	0x48
	DCW	0x45
	DCW	0x87
	DCW	0x7f
	DCW	0x76
	DCW	0x70
	DCW	0xd2
	DCW	0xc8
	DCW	0xbc
	DCW	0x160
	DCW	0x143
	DCW	0x132
	DCW	0x11d
	DCW	0x21c
	DCW	0xe
	DCW	0x107
	DCW	0x42
	DCW	0x81
	DCW	0x7e
	DCW	0x77
	DCW	0x72
	DCW	0xd6
	DCW	0xca
	DCW	0xc0
	DCW	0xb4
	DCW	0x155
	DCW	0x13d
	DCW	0x12d
	DCW	0x119
	DCW	0x106
	DCW	0xc
	DCW	0xf9
	DCW	0x7b
	DCW	0x79
	DCW	0x75
	DCW	0x71
	DCW	0xd7
	DCW	0xce
	DCW	0xc3
	DCW	0xb9
	DCW	0x15b
	DCW	0x14a
	DCW	0x134
	DCW	0x123
	DCW	0x110
	DCW	0x208
	DCW	0xa
	DCW	0x1b3
	DCW	0x73
	DCW	0x6f
	DCW	0x6d
	DCW	0xd3
	DCW	0xcb
	DCW	0xc4
	DCW	0xbb
	DCW	0x161
	DCW	0x14c
	DCW	0x139
	DCW	0x12a
	DCW	0x11b
	DCW	0x213
	DCW	0x17d
	DCW	0x11
	DCW	0x1ab
	DCW	0xd4
	DCW	0xd0
	DCW	0xcd
	DCW	0xc9
	DCW	0xc1
	DCW	0xba
	DCW	0xb1
	DCW	0xa9
	DCW	0x140
	DCW	0x12f
	DCW	0x11e
	DCW	0x10c
	DCW	0x202
	DCW	0x179
	DCW	0x10
	DCW	0x14f
	DCW	0xc7
	DCW	0xc5
	DCW	0xbf
	DCW	0xbd
	DCW	0xb5
	DCW	0xae
	DCW	0x14d
	DCW	0x141
	DCW	0x131
	DCW	0x121
	DCW	0x113
	DCW	0x209
	DCW	0x17b
	DCW	0x173
	DCW	0xb
	DCW	0x29c
	DCW	0xb8
	DCW	0xb7
	DCW	0xb3
	DCW	0xaf
	DCW	0x158
	DCW	0x14b
	DCW	0x13a
	DCW	0x130
	DCW	0x122
	DCW	0x115
	DCW	0x212
	DCW	0x17f
	DCW	0x175
	DCW	0x16e
	DCW	0xa
	DCW	0x28c
	DCW	0x15a
	DCW	0xab
	DCW	0xa8
	DCW	0xa4
	DCW	0x13e
	DCW	0x135
	DCW	0x12b
	DCW	0x11f
	DCW	0x114
	DCW	0x107
	DCW	0x201
	DCW	0x177
	DCW	0x170
	DCW	0x16a
	DCW	0x6
	DCW	0x288
	DCW	0x142
	DCW	0x13c
	DCW	0x138
	DCW	0x133
	DCW	0x12e
	DCW	0x124
	DCW	0x11c
	DCW	0x10d
	DCW	0x105
	DCW	0x200
	DCW	0x178
	DCW	0x172
	DCW	0x16c
	DCW	0x167
	DCW	0x4
	DCW	0x26c
	DCW	0x12c
	DCW	0x128
	DCW	0x126
	DCW	0x120
	DCW	0x11a
	DCW	0x111
	DCW	0x10a
	DCW	0x203
	DCW	0x17c
	DCW	0x176
	DCW	0x171
	DCW	0x16d
	DCW	0x169
	DCW	0x165
	DCW	0x2
	DCW	0x409
	DCW	0x118
	DCW	0x116
	DCW	0x112
	DCW	0x10b
	DCW	0x108
	DCW	0x103
	DCW	0x17e
	DCW	0x17a
	DCW	0x174
	DCW	0x16f
	DCW	0x16b
	DCW	0x168
	DCW	0x166
	DCW	0x164
	DCW	0x0
	DCW	0x2b
	DCW	0x14
	DCW	0x13
	DCW	0x11
	DCW	0xf
	DCW	0xd
	DCW	0xb
	DCW	0x9
	DCW	0x7
	DCW	0x6
	DCW	0x4
	DCW	0x7
	DCW	0x5
	DCW	0x3
	DCW	0x1
	DCW	0x3
|?mp3_huffbits_24@@3QBEB| DCB 0x4			; mp3_huffbits_24
	DCB	0x4
	DCB	0x6
	DCB	0x7
	DCB	0x8
	DCB	0x9
	DCB	0x9
	DCB	0xa
	DCB	0xa
	DCB	0xb
	DCB	0xb
	DCB	0xb
	DCB	0xb
	DCB	0xb
	DCB	0xc
	DCB	0x9
	DCB	0x4
	DCB	0x4
	DCB	0x5
	DCB	0x6
	DCB	0x7
	DCB	0x8
	DCB	0x8
	DCB	0x9
	DCB	0x9
	DCB	0x9
	DCB	0xa
	DCB	0xa
	DCB	0xa
	DCB	0xa
	DCB	0xa
	DCB	0x8
	DCB	0x6
	DCB	0x5
	DCB	0x6
	DCB	0x7
	DCB	0x7
	DCB	0x8
	DCB	0x8
	DCB	0x9
	DCB	0x9
	DCB	0x9
	DCB	0x9
	DCB	0xa
	DCB	0xa
	DCB	0xa
	DCB	0xb
	DCB	0x7
	DCB	0x7
	DCB	0x6
	DCB	0x7
	DCB	0x7
	DCB	0x8
	DCB	0x8
	DCB	0x8
	DCB	0x9
	DCB	0x9
	DCB	0x9
	DCB	0x9
	DCB	0xa
	DCB	0xa
	DCB	0xa
	DCB	0xa
	DCB	0x7
	DCB	0x8
	DCB	0x7
	DCB	0x7
	DCB	0x8
	DCB	0x8
	DCB	0x8
	DCB	0x8
	DCB	0x9
	DCB	0x9
	DCB	0x9
	DCB	0xa
	DCB	0xa
	DCB	0xa
	DCB	0xa
	DCB	0xb
	DCB	0x7
	DCB	0x9
	DCB	0x7
	DCB	0x8
	DCB	0x8
	DCB	0x8
	DCB	0x8
	DCB	0x9
	DCB	0x9
	DCB	0x9
	DCB	0x9
	DCB	0xa
	DCB	0xa
	DCB	0xa
	DCB	0xa
	DCB	0xa
	DCB	0x7
	DCB	0x9
	DCB	0x8
	DCB	0x8
	DCB	0x8
	DCB	0x8
	DCB	0x9
	DCB	0x9
	DCB	0x9
	DCB	0x9
	DCB	0xa
	DCB	0xa
	DCB	0xa
	DCB	0xa
	DCB	0xa
	DCB	0xb
	DCB	0x7
	DCB	0xa
	DCB	0x8
	DCB	0x8
	DCB	0x8
	DCB	0x9
	DCB	0x9
	DCB	0x9
	DCB	0x9
	DCB	0xa
	DCB	0xa
	DCB	0xa
	DCB	0xa
	DCB	0xa
	DCB	0xb
	DCB	0xb
	DCB	0x8
	DCB	0xa
	DCB	0x9
	DCB	0x9
	DCB	0x9
	DCB	0x9
	DCB	0x9
	DCB	0x9
	DCB	0x9
	DCB	0x9
	DCB	0xa
	DCB	0xa
	DCB	0xa
	DCB	0xa
	DCB	0xb
	DCB	0xb
	DCB	0x8
	DCB	0xa
	DCB	0x9
	DCB	0x9
	DCB	0x9
	DCB	0x9
	DCB	0x9
	DCB	0x9
	DCB	0xa
	DCB	0xa
	DCB	0xa
	DCB	0xa
	DCB	0xa
	DCB	0xb
	DCB	0xb
	DCB	0xb
	DCB	0x8
	DCB	0xb
	DCB	0x9
	DCB	0x9
	DCB	0x9
	DCB	0x9
	DCB	0xa
	DCB	0xa
	DCB	0xa
	DCB	0xa
	DCB	0xa
	DCB	0xa
	DCB	0xb
	DCB	0xb
	DCB	0xb
	DCB	0xb
	DCB	0x8
	DCB	0xb
	DCB	0xa
	DCB	0x9
	DCB	0x9
	DCB	0x9
	DCB	0xa
	DCB	0xa
	DCB	0xa
	DCB	0xa
	DCB	0xa
	DCB	0xa
	DCB	0xb
	DCB	0xb
	DCB	0xb
	DCB	0xb
	DCB	0x8
	DCB	0xb
	DCB	0xa
	DCB	0xa
	DCB	0xa
	DCB	0xa
	DCB	0xa
	DCB	0xa
	DCB	0xa
	DCB	0xa
	DCB	0xa
	DCB	0xb
	DCB	0xb
	DCB	0xb
	DCB	0xb
	DCB	0xb
	DCB	0x8
	DCB	0xb
	DCB	0xa
	DCB	0xa
	DCB	0xa
	DCB	0xa
	DCB	0xa
	DCB	0xa
	DCB	0xa
	DCB	0xb
	DCB	0xb
	DCB	0xb
	DCB	0xb
	DCB	0xb
	DCB	0xb
	DCB	0xb
	DCB	0x8
	DCB	0xc
	DCB	0xa
	DCB	0xa
	DCB	0xa
	DCB	0xa
	DCB	0xa
	DCB	0xa
	DCB	0xb
	DCB	0xb
	DCB	0xb
	DCB	0xb
	DCB	0xb
	DCB	0xb
	DCB	0xb
	DCB	0xb
	DCB	0x8
	DCB	0x8
	DCB	0x7
	DCB	0x7
	DCB	0x7
	DCB	0x7
	DCB	0x7
	DCB	0x7
	DCB	0x7
	DCB	0x7
	DCB	0x7
	DCB	0x7
	DCB	0x8
	DCB	0x8
	DCB	0x8
	DCB	0x8
	DCB	0x4
|?mp3_huff_tables@@3QBU_huff_table@@B| DCD 0x1		; mp3_huff_tables
	%	4
	DCQ	0x0, 0x0				;  = 0x0000000000000000
	DCQ	0x0, 0x0				;  = 0x0000000000000000
	DCD	0x2
	%	4
	DCQ	|?mp3_huffbits_1@@3QBEB|, 0
	DCQ	|?mp3_huffcodes_1@@3QBGB|, 0
	DCD	0x3
	%	4
	DCQ	|?mp3_huffbits_2@@3QBEB|, 0
	DCQ	|?mp3_huffcodes_2@@3QBGB|, 0
	DCD	0x3
	%	4
	DCQ	|?mp3_huffbits_3@@3QBEB|, 0
	DCQ	|?mp3_huffcodes_3@@3QBGB|, 0
	DCD	0x4
	%	4
	DCQ	|?mp3_huffbits_5@@3QBEB|, 0
	DCQ	|?mp3_huffcodes_5@@3QBGB|, 0
	DCD	0x4
	%	4
	DCQ	|?mp3_huffbits_6@@3QBEB|, 0
	DCQ	|?mp3_huffcodes_6@@3QBGB|, 0
	DCD	0x6
	%	4
	DCQ	|?mp3_huffbits_7@@3QBEB|, 0
	DCQ	|?mp3_huffcodes_7@@3QBGB|, 0
	DCD	0x6
	%	4
	DCQ	|?mp3_huffbits_8@@3QBEB|, 0
	DCQ	|?mp3_huffcodes_8@@3QBGB|, 0
	DCD	0x6
	%	4
	DCQ	|?mp3_huffbits_9@@3QBEB|, 0
	DCQ	|?mp3_huffcodes_9@@3QBGB|, 0
	DCD	0x8
	%	4
	DCQ	|?mp3_huffbits_10@@3QBEB|, 0
	DCQ	|?mp3_huffcodes_10@@3QBGB|, 0
	DCD	0x8
	%	4
	DCQ	|?mp3_huffbits_11@@3QBEB|, 0
	DCQ	|?mp3_huffcodes_11@@3QBGB|, 0
	DCD	0x8
	%	4
	DCQ	|?mp3_huffbits_12@@3QBEB|, 0
	DCQ	|?mp3_huffcodes_12@@3QBGB|, 0
	DCD	0x10
	%	4
	DCQ	|?mp3_huffbits_13@@3QBEB|, 0
	DCQ	|?mp3_huffcodes_13@@3QBGB|, 0
	DCD	0x10
	%	4
	DCQ	|?mp3_huffbits_15@@3QBEB|, 0
	DCQ	|?mp3_huffcodes_15@@3QBGB|, 0
	DCD	0x10
	%	4
	DCQ	|?mp3_huffbits_16@@3QBEB|, 0
	DCQ	|?mp3_huffcodes_16@@3QBGB|, 0
	DCD	0x10
	%	4
	DCQ	|?mp3_huffbits_24@@3QBEB|, 0
	DCQ	|?mp3_huffcodes_24@@3QBGB|, 0
|?mp3_huff_data@@3QAY01$$CBEA| DCB 0x0			; mp3_huff_data
	DCB	0x0
	DCB	0x1
	DCB	0x0
	DCB	0x2
	DCB	0x0
	DCB	0x3
	DCB	0x0
	DCB	0x0
	DCB	0x0
	DCB	0x4
	DCB	0x0
	DCB	0x5
	DCB	0x0
	DCB	0x6
	DCB	0x0
	DCB	0x7
	DCB	0x0
	DCB	0x8
	DCB	0x0
	DCB	0x9
	DCB	0x0
	DCB	0xa
	DCB	0x0
	DCB	0xb
	DCB	0x0
	DCB	0xc
	DCB	0x0
	DCB	0x0
	DCB	0x0
	DCB	0xd
	DCB	0x0
	DCB	0xe
	DCB	0x1
	DCB	0xe
	DCB	0x2
	DCB	0xe
	DCB	0x3
	DCB	0xe
	DCB	0x4
	DCB	0xe
	DCB	0x6
	DCB	0xe
	DCB	0x8
	DCB	0xe
	DCB	0xa
	DCB	0xe
	DCB	0xd
	DCB	0xf
	DCB	0x4
	DCB	0xf
	DCB	0x5
	DCB	0xf
	DCB	0x6
	DCB	0xf
	DCB	0x7
	DCB	0xf
	DCB	0x8
	DCB	0xf
	DCB	0x9
	DCB	0xf
	DCB	0xb
	DCB	0xf
	DCB	0xd
|?mp3_quad_codes@@3QAY0BA@$$CBEA| DCB 0x1		; mp3_quad_codes
	DCB	0x5
	DCB	0x4
	DCB	0x5
	DCB	0x6
	DCB	0x5
	DCB	0x4
	DCB	0x4
	DCB	0x7
	DCB	0x3
	DCB	0x6
	DCB	0x0
	DCB	0x7
	DCB	0x2
	DCB	0x3
	DCB	0x1
	DCB	0xf
	DCB	0xe
	DCB	0xd
	DCB	0xc
	DCB	0xb
	DCB	0xa
	DCB	0x9
	DCB	0x8
	DCB	0x7
	DCB	0x6
	DCB	0x5
	DCB	0x4
	DCB	0x3
	DCB	0x2
	DCB	0x1
	DCB	0x0
|?mp3_quad_bits@@3QAY0BA@$$CBEA| DCB 0x1		; mp3_quad_bits
	DCB	0x4
	DCB	0x4
	DCB	0x5
	DCB	0x4
	DCB	0x6
	DCB	0x5
	DCB	0x6
	DCB	0x4
	DCB	0x5
	DCB	0x5
	DCB	0x6
	DCB	0x5
	DCB	0x6
	DCB	0x6
	DCB	0x6
	DCB	0x4
	DCB	0x4
	DCB	0x4
	DCB	0x4
	DCB	0x4
	DCB	0x4
	DCB	0x4
	DCB	0x4
	DCB	0x4
	DCB	0x4
	DCB	0x4
	DCB	0x4
	DCB	0x4
	DCB	0x4
	DCB	0x4
	DCB	0x4
|?band_size_long@@3QAY0BG@$$CBEA| DCB 0x4		; band_size_long
	DCB	0x4
	DCB	0x4
	DCB	0x4
	DCB	0x4
	DCB	0x4
	DCB	0x6
	DCB	0x6
	DCB	0x8
	DCB	0x8
	DCB	0xa
	DCB	0xc
	DCB	0x10
	DCB	0x14
	DCB	0x18
	DCB	0x1c
	DCB	0x22
	DCB	0x2a
	DCB	0x32
	DCB	0x36
	DCB	0x4c
	DCB	0x9e
	DCB	0x4
	DCB	0x4
	DCB	0x4
	DCB	0x4
	DCB	0x4
	DCB	0x4
	DCB	0x6
	DCB	0x6
	DCB	0x6
	DCB	0x8
	DCB	0xa
	DCB	0xc
	DCB	0x10
	DCB	0x12
	DCB	0x16
	DCB	0x1c
	DCB	0x22
	DCB	0x28
	DCB	0x2e
	DCB	0x36
	DCB	0x36
	DCB	0xc0
	DCB	0x4
	DCB	0x4
	DCB	0x4
	DCB	0x4
	DCB	0x4
	DCB	0x4
	DCB	0x6
	DCB	0x6
	DCB	0x8
	DCB	0xa
	DCB	0xc
	DCB	0x10
	DCB	0x14
	DCB	0x18
	DCB	0x1e
	DCB	0x26
	DCB	0x2e
	DCB	0x38
	DCB	0x44
	DCB	0x54
	DCB	0x66
	DCB	0x1a
	DCB	0x6
	DCB	0x6
	DCB	0x6
	DCB	0x6
	DCB	0x6
	DCB	0x6
	DCB	0x8
	DCB	0xa
	DCB	0xc
	DCB	0xe
	DCB	0x10
	DCB	0x14
	DCB	0x18
	DCB	0x1c
	DCB	0x20
	DCB	0x26
	DCB	0x2e
	DCB	0x34
	DCB	0x3c
	DCB	0x44
	DCB	0x3a
	DCB	0x36
	DCB	0x6
	DCB	0x6
	DCB	0x6
	DCB	0x6
	DCB	0x6
	DCB	0x6
	DCB	0x8
	DCB	0xa
	DCB	0xc
	DCB	0xe
	DCB	0x10
	DCB	0x12
	DCB	0x16
	DCB	0x1a
	DCB	0x20
	DCB	0x26
	DCB	0x2e
	DCB	0x34
	DCB	0x40
	DCB	0x46
	DCB	0x4c
	DCB	0x24
	DCB	0x6
	DCB	0x6
	DCB	0x6
	DCB	0x6
	DCB	0x6
	DCB	0x6
	DCB	0x8
	DCB	0xa
	DCB	0xc
	DCB	0xe
	DCB	0x10
	DCB	0x14
	DCB	0x18
	DCB	0x1c
	DCB	0x20
	DCB	0x26
	DCB	0x2e
	DCB	0x34
	DCB	0x3c
	DCB	0x44
	DCB	0x3a
	DCB	0x36
	DCB	0x6
	DCB	0x6
	DCB	0x6
	DCB	0x6
	DCB	0x6
	DCB	0x6
	DCB	0x8
	DCB	0xa
	DCB	0xc
	DCB	0xe
	DCB	0x10
	DCB	0x14
	DCB	0x18
	DCB	0x1c
	DCB	0x20
	DCB	0x26
	DCB	0x2e
	DCB	0x34
	DCB	0x3c
	DCB	0x44
	DCB	0x3a
	DCB	0x36
	DCB	0x6
	DCB	0x6
	DCB	0x6
	DCB	0x6
	DCB	0x6
	DCB	0x6
	DCB	0x8
	DCB	0xa
	DCB	0xc
	DCB	0xe
	DCB	0x10
	DCB	0x14
	DCB	0x18
	DCB	0x1c
	DCB	0x20
	DCB	0x26
	DCB	0x2e
	DCB	0x34
	DCB	0x3c
	DCB	0x44
	DCB	0x3a
	DCB	0x36
	DCB	0xc
	DCB	0xc
	DCB	0xc
	DCB	0xc
	DCB	0xc
	DCB	0xc
	DCB	0x10
	DCB	0x14
	DCB	0x18
	DCB	0x1c
	DCB	0x20
	DCB	0x28
	DCB	0x30
	DCB	0x38
	DCB	0x40
	DCB	0x4c
	DCB	0x5a
	DCB	0x2
	DCB	0x2
	DCB	0x2
	DCB	0x2
	DCB	0x2
	%	10
|?band_size_short@@3QAY0N@$$CBEA| DCB 0x4		; band_size_short
	DCB	0x4
	DCB	0x4
	DCB	0x4
	DCB	0x6
	DCB	0x8
	DCB	0xa
	DCB	0xc
	DCB	0xe
	DCB	0x12
	DCB	0x16
	DCB	0x1e
	DCB	0x38
	DCB	0x4
	DCB	0x4
	DCB	0x4
	DCB	0x4
	DCB	0x6
	DCB	0x6
	DCB	0xa
	DCB	0xc
	DCB	0xe
	DCB	0x10
	DCB	0x14
	DCB	0x1a
	DCB	0x42
	DCB	0x4
	DCB	0x4
	DCB	0x4
	DCB	0x4
	DCB	0x6
	DCB	0x8
	DCB	0xc
	DCB	0x10
	DCB	0x14
	DCB	0x1a
	DCB	0x22
	DCB	0x2a
	DCB	0xc
	DCB	0x4
	DCB	0x4
	DCB	0x4
	DCB	0x6
	DCB	0x6
	DCB	0x8
	DCB	0xa
	DCB	0xe
	DCB	0x12
	DCB	0x1a
	DCB	0x20
	DCB	0x2a
	DCB	0x12
	DCB	0x4
	DCB	0x4
	DCB	0x4
	DCB	0x6
	DCB	0x8
	DCB	0xa
	DCB	0xc
	DCB	0xe
	DCB	0x12
	DCB	0x18
	DCB	0x20
	DCB	0x2c
	DCB	0xc
	DCB	0x4
	DCB	0x4
	DCB	0x4
	DCB	0x6
	DCB	0x8
	DCB	0xa
	DCB	0xc
	DCB	0xe
	DCB	0x12
	DCB	0x18
	DCB	0x1e
	DCB	0x28
	DCB	0x12
	DCB	0x4
	DCB	0x4
	DCB	0x4
	DCB	0x6
	DCB	0x8
	DCB	0xa
	DCB	0xc
	DCB	0xe
	DCB	0x12
	DCB	0x18
	DCB	0x1e
	DCB	0x28
	DCB	0x12
	DCB	0x4
	DCB	0x4
	DCB	0x4
	DCB	0x6
	DCB	0x8
	DCB	0xa
	DCB	0xc
	DCB	0xe
	DCB	0x12
	DCB	0x18
	DCB	0x1e
	DCB	0x28
	DCB	0x12
	DCB	0x8
	DCB	0x8
	DCB	0x8
	DCB	0xc
	DCB	0x10
	DCB	0x14
	DCB	0x18
	DCB	0x1c
	DCB	0x24
	DCB	0x2
	DCB	0x2
	DCB	0x2
	DCB	0x1a
	%	3
|?mp3_pretab@@3QAY0BG@$$CBEA| DCB 0x0			; mp3_pretab
	DCB	0x0
	DCB	0x0
	DCB	0x0
	DCB	0x0
	DCB	0x0
	DCB	0x0
	DCB	0x0
	DCB	0x0
	DCB	0x0
	DCB	0x0
	DCB	0x0
	DCB	0x0
	DCB	0x0
	DCB	0x0
	DCB	0x0
	DCB	0x0
	DCB	0x0
	DCB	0x0
	DCB	0x0
	DCB	0x0
	DCB	0x0
	DCB	0x0
	DCB	0x0
	DCB	0x0
	DCB	0x0
	DCB	0x0
	DCB	0x0
	DCB	0x0
	DCB	0x0
	DCB	0x0
	DCB	0x0
	DCB	0x0
	DCB	0x1
	DCB	0x1
	DCB	0x1
	DCB	0x1
	DCB	0x2
	DCB	0x2
	DCB	0x3
	DCB	0x3
	DCB	0x3
	DCB	0x2
	DCB	0x0
	%	4
|?ci_table@@3QBMB| DCD 0xbf19999a			; -0.6 ; ci_table
	DCD	0xbf08f5c3				; -0.535
	DCD	0xbea8f5c3				; -0.33
	DCD	0xbe3d70a4				; -0.185
	DCD	0xbdc28f5c				; -0.095
	DCD	0xbd27ef9e				; -0.041
	DCD	0xbc68a71e				; -0.0142
	DCD	0xbb727bb3				; -0.0037
|?icos36@@3QBHB| DCD 0x403f				; icos36
	DCD	0x4242
	DCD	0x469e
	DCD	0x4e21
	DCD	0x5a82
	DCD	0x6f95
	DCD	0x9770
	DCD	0xf747
	DCD	0x2de51
	%	4
|?icos36h@@3QBHB| DCD 0x403e958f			; icos36h
	DCD	0x4241f706
	DCD	0x469dbe6b
	DCD	0x4e212bbe
	DCD	0x5a82799a
	DCD	0x6f94a1de
	DCD	0x4bb7ec62
	DCD	0x7ba3751d
	%	4
	EXPORT	|?mp3_create@@YAPEAXXZ|			; mp3_create
	EXPORT	|?mp3_decode@@YAHPEAX0HPEAFPEAU_mp3_info@@@Z| ; mp3_decode
	EXPORT	|?mp3_done@@YAXPEAPEAX@Z|		; mp3_done
	IMPORT	|malloc|
	IMPORT	|free|
	IMPORT	|realloc|
	IMPORT	|calloc|
	IMPORT	|memset|
	IMPORT	|memcpy|
	IMPORT	|memmove|
	IMPORT	|cos|
	IMPORT	|pow|
	IMPORT	|sin|
	IMPORT	|sqrt|
	IMPORT	|tan|
	IMPORT	|frexp|
	IMPORT	|_fltused|

	AREA	|.bss|, NOINIT
|?granules@?1??mp_decode_layer3@@YAHPEAU_mp3_context@@@Z@4PAY01U_granule@@A| % 0x25d0 ; `mp_decode_layer3'::`2'::granules

	AREA	|.bss|, NOINIT
|?exponents@?1??mp_decode_layer3@@YAHPEAU_mp3_context@@@Z@4PAFA| % 0x480 ; `mp_decode_layer3'::`2'::exponents

	AREA	|.bss|, NOINIT
|?init@?1??mp3_decode_init@@YAHPEAU_mp3_context@@@Z@4HA| % 0x4 ; `mp3_decode_init'::`2'::init

	AREA	|.pdata|, PDATA
|$pdata$?mp3_create@@YAPEAXXZ| DCD imagerel |$LN4|
	DCD	0x1600039
	;Flags[SingleProEpi] functionLength[56] RegF[0] RegI[0] H[0] frameChainReturn[Chained] frameSize[32]
|$pdata$?mp3_decode@@YAHPEAX0HPEAFPEAU_mp3_info@@@Z| DCD imagerel |$LN6|
	DCD	0x2e000d1
	;Flags[SingleProEpi] functionLength[208] RegF[0] RegI[0] H[0] frameChainReturn[Chained] frameSize[80]
|$pdata$?mp3_done@@YAXPEAPEAX@Z| DCD imagerel |$LN4|
	DCD	0x1600029
	;Flags[SingleProEpi] functionLength[40] RegF[0] RegI[0] H[0] frameChainReturn[Chained] frameSize[32]

	AREA	|.pdata|, PDATA
|$pdata$?unaligned32_be@@YAHPEBE@Z| DCD imagerel |?unaligned32_be@@YAHPEBE@Z|
	DCD	0x800069
	;Flags[SingleProEpi] functionLength[104] RegF[0] RegI[0] H[0] frameChainReturn[UnChained] frameSize[16]

	AREA	|.pdata|, PDATA
|$pdata$?get_bits_count@@YAHPEAU_bitstream@@@Z| DCD imagerel |?get_bits_count@@YAHPEAU_bitstream@@@Z|
	DCD	0x80001d
	;Flags[SingleProEpi] functionLength[28] RegF[0] RegI[0] H[0] frameChainReturn[UnChained] frameSize[16]
|$pdata$?skip_bits_long@@YAXPEAU_bitstream@@H@Z| DCD imagerel |?skip_bits_long@@YAXPEAU_bitstream@@H@Z|
	DCD	0x800035
	;Flags[SingleProEpi] functionLength[52] RegF[0] RegI[0] H[0] frameChainReturn[UnChained] frameSize[16]
|$pdata$?init_get_bits@@YAXPEAU_bitstream@@PEBEH@Z| DCD imagerel |?init_get_bits@@YAXPEAU_bitstream@@PEBEH@Z|
	DCD	0x10000a1
	;Flags[SingleProEpi] functionLength[160] RegF[0] RegI[0] H[0] frameChainReturn[UnChained] frameSize[32]
|$pdata$?get_bits@@YAIPEAU_bitstream@@H@Z| DCD imagerel |?get_bits@@YAIPEAU_bitstream@@H@Z|
	DCD	0x1e000a5
	;Flags[SingleProEpi] functionLength[164] RegF[0] RegI[0] H[0] frameChainReturn[Chained] frameSize[48]
|$pdata$?get_bitsz@@YAHPEAU_bitstream@@H@Z| DCD imagerel |?get_bitsz@@YAHPEAU_bitstream@@H@Z|
	DCD	0x1600045
	;Flags[SingleProEpi] functionLength[68] RegF[0] RegI[0] H[0] frameChainReturn[Chained] frameSize[32]
|$pdata$?get_bits1@@YAIPEAU_bitstream@@@Z| DCD imagerel |?get_bits1@@YAIPEAU_bitstream@@@Z|
	DCD	0x80009d
	;Flags[SingleProEpi] functionLength[156] RegF[0] RegI[0] H[0] frameChainReturn[UnChained] frameSize[16]
|$pdata$?align_get_bits@@YAXPEAU_bitstream@@@Z| DCD imagerel |?align_get_bits@@YAXPEAU_bitstream@@@Z|
	DCD	0x1600045
	;Flags[SingleProEpi] functionLength[68] RegF[0] RegI[0] H[0] frameChainReturn[Chained] frameSize[32]
|$pdata$?alloc_table@@YAHPEAU_vlc@@H@Z| DCD imagerel |?alloc_table@@YAHPEAU_vlc@@H@Z|
	DCD	0x16000f1
	;Flags[SingleProEpi] functionLength[240] RegF[0] RegI[0] H[0] frameChainReturn[Chained] frameSize[32]
|$pdata$?build_table@@YAHPEAU_vlc@@HHPEBXHH1HHIH@Z| DCD imagerel |?build_table@@YAHPEAU_vlc@@HHPEBXHH1HHIH@Z|
	DCD	0x4e0057d
	;Flags[SingleProEpi] functionLength[1404] RegF[0] RegI[0] H[0] frameChainReturn[Chained] frameSize[144]
|$pdata$?init_vlc@@YAHPEAU_vlc@@HHPEBXHH1HH@Z| DCD imagerel |?init_vlc@@YAHPEAU_vlc@@HHPEBXHH1HH@Z|
	DCD	0x26000a9
	;Flags[SingleProEpi] functionLength[168] RegF[0] RegI[0] H[0] frameChainReturn[Chained] frameSize[64]
|$pdata$?get_vlc2@@YAHPEAU_bitstream@@PEAY01FHH@Z| DCD imagerel |?get_vlc2@@YAHPEAU_bitstream@@PEAY01FHH@Z|
	DCD	0x26002b9
	;Flags[SingleProEpi] functionLength[696] RegF[0] RegI[0] H[0] frameChainReturn[Chained] frameSize[64]
|$pdata$?switch_buffer@@YAXPEAU_mp3_context@@PEAH11@Z| DCD imagerel |?switch_buffer@@YAXPEAU_mp3_context@@PEAH11@Z|
	DCD	0x2e00119
	;Flags[SingleProEpi] functionLength[280] RegF[0] RegI[0] H[0] frameChainReturn[Chained] frameSize[80]
|$pdata$?mp3_check_header@@YAHI@Z| DCD imagerel |?mp3_check_header@@YAHI@Z|
	DCD	0x800079
	;Flags[SingleProEpi] functionLength[120] RegF[0] RegI[0] H[0] frameChainReturn[UnChained] frameSize[16]
|$pdata$?lsf_sf_expand@@YAXPEAHHHHH@Z| DCD imagerel |?lsf_sf_expand@@YAXPEAHHHHH@Z|
	DCD	0x100012d
	;Flags[SingleProEpi] functionLength[300] RegF[0] RegI[0] H[0] frameChainReturn[UnChained] frameSize[32]
|$pdata$?l3_unscale@@YAHHH@Z| DCD imagerel |?l3_unscale@@YAHHH@Z|
	DCD	0x8000d9
	;Flags[SingleProEpi] functionLength[216] RegF[0] RegI[0] H[0] frameChainReturn[UnChained] frameSize[16]
|$pdata$?round_sample@@YAHPEAH@Z| DCD imagerel |?round_sample@@YAHPEAH@Z|
	DCD	0x80006d
	;Flags[SingleProEpi] functionLength[108] RegF[0] RegI[0] H[0] frameChainReturn[UnChained] frameSize[16]
|$pdata$?exponents_from_scale_factors@@YAXPEAU_mp3_context@@PEAU_granule@@PEAF@Z| DCD imagerel |?exponents_from_scale_factors@@YAXPEAU_mp3_context@@PEAU_granule@@PEAF@Z|
	DCD	0x3800359
	;Flags[SingleProEpi] functionLength[856] RegF[0] RegI[0] H[0] frameChainReturn[UnChained] frameSize[112]
|$pdata$?reorder_block@@YAXPEAU_mp3_context@@PEAU_granule@@@Z| DCD imagerel |?reorder_block@@YAXPEAU_mp3_context@@PEAU_granule@@@Z|
	DCD	imagerel |$unwind$?reorder_block@@YAXPEAU_mp3_context@@PEAU_granule@@@Z|
|$pdata$?compute_antialias@@YAXPEAU_mp3_context@@PEAU_granule@@@Z| DCD imagerel |?compute_antialias@@YAXPEAU_mp3_context@@PEAU_granule@@@Z|
	DCD	0x200079d
	;Flags[SingleProEpi] functionLength[1948] RegF[0] RegI[0] H[0] frameChainReturn[UnChained] frameSize[64]
|$pdata$?compute_stereo@@YAXPEAU_mp3_context@@PEAU_granule@@1@Z| DCD imagerel |?compute_stereo@@YAXPEAU_mp3_context@@PEAU_granule@@1@Z|
	DCD	0x4000931
	;Flags[SingleProEpi] functionLength[2352] RegF[0] RegI[0] H[0] frameChainReturn[UnChained] frameSize[128]
|$pdata$?huffman_decode@@YAHPEAU_mp3_context@@PEAU_granule@@PEAFH@Z| DCD imagerel |?huffman_decode@@YAHPEAU_mp3_context@@PEAU_granule@@PEAFH@Z|
	DCD	0x4e00931
	;Flags[SingleProEpi] functionLength[2352] RegF[0] RegI[0] H[0] frameChainReturn[Chained] frameSize[144]
|$pdata$?imdct12@@YAXPEAH0@Z| DCD imagerel |?imdct12@@YAXPEAH0@Z|
	DCD	0x2800331
	;Flags[SingleProEpi] functionLength[816] RegF[0] RegI[0] H[0] frameChainReturn[UnChained] frameSize[80]
|$pdata$?imdct36@@YAXPEAH000@Z| DCD imagerel |?imdct36@@YAXPEAH000@Z|
	DCD	0x5800b4d
	;Flags[SingleProEpi] functionLength[2892] RegF[0] RegI[0] H[0] frameChainReturn[UnChained] frameSize[176]
|$pdata$?compute_imdct@@YAXPEAU_mp3_context@@PEAU_granule@@PEAH2@Z| DCD imagerel |?compute_imdct@@YAXPEAU_mp3_context@@PEAU_granule@@PEAH2@Z|
	DCD	0x5e007d5
	;Flags[SingleProEpi] functionLength[2004] RegF[0] RegI[0] H[0] frameChainReturn[Chained] frameSize[176]
|$pdata$?dct32@@YAXPEAH0@Z| DCD imagerel |?dct32@@YAXPEAH0@Z|
	DCD	imagerel |$unwind$?dct32@@YAXPEAH0@Z|
|$pdata$?mp3_synth_filter@@YAXPEAFPEAH010HQEAH@Z| DCD imagerel |?mp3_synth_filter@@YAXPEAFPEAH010HQEAH@Z|
	DCD	0x8e00d1d
	;Flags[SingleProEpi] functionLength[3356] RegF[0] RegI[0] H[0] frameChainReturn[Chained] frameSize[272]
|$pdata$?decode_header@@YAHPEAU_mp3_context@@I@Z| DCD imagerel |?decode_header@@YAHPEAU_mp3_context@@I@Z|
	DCD	0x1800249
	;Flags[SingleProEpi] functionLength[584] RegF[0] RegI[0] H[0] frameChainReturn[UnChained] frameSize[48]
|$pdata$?mp_decode_layer3@@YAHPEAU_mp3_context@@@Z| DCD imagerel |?mp_decode_layer3@@YAHPEAU_mp3_context@@@Z|
	DCD	0x6e11429
	;Flags[SingleProEpi] functionLength[5160] RegF[0] RegI[1] H[0] frameChainReturn[Chained] frameSize[208]
|$pdata$?mp3_decode_main@@YAHPEAU_mp3_context@@PEAFPEBEH@Z| DCD imagerel |?mp3_decode_main@@YAHPEAU_mp3_context@@PEAFPEBEH@Z|
	DCD	0x3e203dd
	;Flags[SingleProEpi] functionLength[988] RegF[0] RegI[2] H[0] frameChainReturn[Chained] frameSize[112]
|$pdata$?mp3_decode_init@@YAHPEAU_mp3_context@@@Z| DCD imagerel |?mp3_decode_init@@YAHPEAU_mp3_context@@@Z|
	DCD	imagerel |$unwind$?mp3_decode_init@@YAHPEAU_mp3_context@@@Z|
|$pdata$?mp3_decode_frame@@YAHPEAU_mp3_context@@PEAFPEAHPEAEH@Z| DCD imagerel |?mp3_decode_frame@@YAHPEAU_mp3_context@@PEAFPEAHPEAEH@Z|
	DCD	0x26001b9
	;Flags[SingleProEpi] functionLength[440] RegF[0] RegI[0] H[0] frameChainReturn[Chained] frameSize[64]

	AREA	|.rdata|, DATA, READONLY
|?idxtab@?DL@??huffman_decode@@YAHPEAU_mp3_context@@PEAU_granule@@PEAFH@Z@4QBHB| DCD 0x3 ; `huffman_decode'::`59'::idxtab
	DCD	0x3
	DCD	0x2
	DCD	0x2
	DCD	0x1
	DCD	0x1
	DCD	0x1
	DCD	0x1
	DCD	0x0
	DCD	0x0
	DCD	0x0
	DCD	0x0
	DCD	0x0
	DCD	0x0
	DCD	0x0
	DCD	0x0

	AREA	|.xdata|, DATA
|$unwind$?reorder_block@@YAXPEAU_mp3_context@@PEAU_granule@@@Z| DCD 0x1060008f
	DCD	0x95c040e1
	DCD	0xe3e3e3e4
	;Code Words[2], Epilog Start Index[1], E[1], X[0], Function Length[143]=572 bytes
	;set_fp
	;save_fplr
	;alloc_m
	;end
	;nop
	;nop
	;nop
|$unwind$?dct32@@YAXPEAH0@Z| DCD 0x8400c00
	DCD	0xba2
	DCD	0xe3e3e402
	;Code Words[1], Epilog Count[1], E[0], X[0], Function Length[3072]=12288 bytes
	;Epilog Start Index[0], Epilog Start Offset[2978]=11912 bytes
	;alloc_s
	;end
	;nop
	;nop
|$unwind$?mp3_decode_init@@YAHPEAU_mp3_context@@@Z| DCD 0x1040042c
	DCD	0x800415
	DCD	0xc04202e2
	DCD	0xe401de6c
	;Code Words[2], Epilog Count[1], E[0], X[0], Function Length[1068]=4272 bytes
	;Epilog Start Index[2], Epilog Start Offset[1045]=4180 bytes
	;add_fp
	;save_fplr
	;alloc_m
	;save_freg_x
	;end
; Function compile flags: /Odtp
; File C:\Users\paras\source\repos\grep-name\XenevaOS\Process\AudioPlayer\minimp3.cpp

	AREA	|.text$mn|, CODE, ARM64

|?mp3_decode_frame@@YAHPEAU_mp3_context@@PEAFPEAHPEAEH@Z| PROC ; mp3_decode_frame

; 2632 : 		uint8_t *buf, int buf_size

	stp         fp,lr,[sp,#-0x40]!
	mov         fp,sp
	str         x0,[sp,#0x20]
	str         x1,[sp,#0x30]
	str         x2,[sp,#0x38]
	str         x3,[sp,#0x28]
	str         w4,[sp,#0x10]

; 2633 : 		) {
; 2634 : 		uint32_t header;
; 2635 : 		int out_size;
; 2636 : 		int extra_bytes = 0;

	mov         w8,#0
	str         w8,[sp,#0x14]
|$retry$10|

; 2637 : 
; 2638 : 	retry:
; 2639 : 		if (buf_size < HEADER_SIZE)

	ldr         w8,[sp,#0x10]
	cmp         w8,#4
	bge         |$LN2@mp3_decode|

; 2640 : 			return -1;

	mov         w0,#-1
	b           |$LN1@mp3_decode|
|$LN2@mp3_decode|

; 2641 : 
; 2642 : 		header = (buf[0] << 24) | (buf[1] << 16) | (buf[2] << 8) | buf[3];

	ldr         x8,[sp,#0x28]
	ldrb        w8,[x8]
	mov         w8,w8
	lsl         w9,w8,#0x18
	ldr         x8,[sp,#0x28]
	add         x8,x8,#1
	ldrb        w8,[x8]
	mov         w8,w8
	lsl         w8,w8,#0x10
	orr         w9,w9,w8
	ldr         x8,[sp,#0x28]
	add         x8,x8,#2
	ldrb        w8,[x8]
	mov         w8,w8
	lsl         w8,w8,#8
	orr         w9,w9,w8
	ldr         x8,[sp,#0x28]
	add         x8,x8,#3
	ldrb        w8,[x8]
	mov         w8,w8
	orr         w8,w9,w8
	str         w8,[sp,#0x18]

; 2643 : 		if (mp3_check_header(header) < 0){

	ldr         w0,[sp,#0x18]
	bl          |?mp3_check_header@@YAHI@Z|
	mov         w0,w0
	cmp         w0,#0
	bge         |$LN3@mp3_decode|

; 2644 : 			buf++;

	ldr         x8,[sp,#0x28]
	add         x8,x8,#1
	str         x8,[sp,#0x28]

; 2645 : 			buf_size--;

	ldr         w8,[sp,#0x10]
	sub         w8,w8,#1
	str         w8,[sp,#0x10]

; 2646 : 			extra_bytes++;

	ldr         w8,[sp,#0x14]
	add         w8,w8,#1
	str         w8,[sp,#0x14]

; 2647 : 			goto retry;

	b           |$retry$10|
|$LN3@mp3_decode|

; 2648 : 		}
; 2649 : 
; 2650 : 		if (decode_header(s, header) == 1) {

	ldr         w1,[sp,#0x18]
	ldr         x0,[sp,#0x20]
	bl          |?decode_header@@YAHPEAU_mp3_context@@I@Z|
	mov         w0,w0
	cmp         w0,#1
	bne         |$LN4@mp3_decode|

; 2651 : 			s->frame_size = -1;

	ldr         x8,[sp,#0x20]
	add         x9,x8,#0x41C
	mov         w8,#-1
	str         w8,[x9]

; 2652 : 			return -1;

	mov         w0,#-1
	b           |$LN1@mp3_decode|
|$LN4@mp3_decode|

; 2653 : 		}
; 2654 : 
; 2655 : 		if (s->frame_size <= 0 || s->frame_size > buf_size){

	ldr         x8,[sp,#0x20]
	add         x8,x8,#0x41C
	ldr         w8,[x8]
	cmp         w8,#0
	ble         |$LN6@mp3_decode|
	ldr         x8,[sp,#0x20]
	add         x8,x8,#0x41C
	ldr         w9,[sp,#0x10]
	ldr         w8,[x8]
	cmp         w8,w9
	ble         |$LN5@mp3_decode|
|$LN6@mp3_decode|

; 2656 : 			return -1;  // incomplete frame

	mov         w0,#-1
	b           |$LN1@mp3_decode|
|$LN5@mp3_decode|

; 2657 : 		}
; 2658 : 		if (s->frame_size < buf_size) {

	ldr         x8,[sp,#0x20]
	add         x8,x8,#0x41C
	ldr         w9,[sp,#0x10]
	ldr         w8,[x8]
	cmp         w8,w9
	bge         |$LN7@mp3_decode|

; 2659 : 			buf_size = s->frame_size;

	ldr         x8,[sp,#0x20]
	add         x8,x8,#0x41C
	ldr         w8,[x8]
	str         w8,[sp,#0x10]
|$LN7@mp3_decode|

; 2660 : 		}
; 2661 : 
; 2662 : 		out_size = mp3_decode_main(s, out_samples, buf, buf_size);

	ldr         w3,[sp,#0x10]
	ldr         x2,[sp,#0x28]
	ldr         x1,[sp,#0x30]
	ldr         x0,[sp,#0x20]
	bl          |?mp3_decode_main@@YAHPEAU_mp3_context@@PEAFPEBEH@Z|
	mov         w0,w0
	str         w0,[sp,#0x1C]

; 2663 : 		if (out_size >= 0)

	ldr         w8,[sp,#0x1C]
	cmp         w8,#0
	blt         |$LN8@mp3_decode|

; 2664 : 			*data_size = out_size;

	ldr         x9,[sp,#0x38]
	ldr         w8,[sp,#0x1C]
	str         w8,[x9]
|$LN8@mp3_decode|

; 2665 : 		// else: Error while decoding MPEG audio frame.
; 2666 : 		s->frame_size += extra_bytes;

	ldr         x8,[sp,#0x20]
	add         x8,x8,#0x41C
	ldr         w9,[x8]
	ldr         w8,[sp,#0x14]
	add         w9,w9,w8
	ldr         x8,[sp,#0x20]
	add         x8,x8,#0x41C
	str         w9,[x8]

; 2667 : 		return buf_size;

	ldr         w0,[sp,#0x10]
|$LN1@mp3_decode|
	ldp         fp,lr,[sp],#0x40
	ret

	ENDP  ; |?mp3_decode_frame@@YAHPEAU_mp3_context@@PEAFPEAHPEAEH@Z|, mp3_decode_frame

; Function compile flags: /Odtp
; File C:\Users\paras\source\repos\grep-name\XenevaOS\Process\AudioPlayer\minimp3.cpp

	AREA	|.text$mn|, CODE, ARM64

|?mp3_decode_init@@YAHPEAU_mp3_context@@@Z| PROC	; mp3_decode_init

; 2464 : 	static int mp3_decode_init(mp3_context_t *s) {

	str         d8,[sp,#-0x10]!
	sub         sp,sp,#0x6C0
	stp         fp,lr,[sp,#0x10]
	add         fp,sp,#0x10
	str         x0,[sp,#0xB0]

; 2465 : 		static int init = 0;
; 2466 : 		int i, j, k;
; 2467 : 
; 2468 : 		if (!init) {

	adrp        x8,|?init@?1??mp3_decode_init@@YAHPEAU_mp3_context@@@Z@4HA|
	ldr         w8,[x8,PageOffset(|?init@?1??mp3_decode_init@@YAHPEAU_mp3_context@@@Z@4HA|)]
	cmp         w8,#0
	bne         |$LN56@mp3_decode|

; 2469 : 			/* synth init */
; 2470 : 			for (i = 0; i<257; i++) {

	mov         w8,#0
	str         w8,[sp,#0x20]
	b           |$LN4@mp3_decode|
|$LN2@mp3_decode|
	ldr         w8,[sp,#0x20]
	add         w8,w8,#1
	str         w8,[sp,#0x20]
|$LN4@mp3_decode|
	ldr         w8,[sp,#0x20]
	cmp         w8,#0x101
	bge         |$LN3@mp3_decode|

; 2471 : 				int v;
; 2472 : 				v = mp3_enwindow[i];

	ldr         w8,[sp,#0x20]
	sxtw        x9,w8
	mov         x8,#4
	mul         x9,x9,x8
	adrp        x8,|?mp3_enwindow@@3QBHB|
	add         x8,x8,PageOffset(|?mp3_enwindow@@3QBHB|)
	add         x8,x8,x9
	ldr         w8,[x8]
	str         w8,[sp,#0x34]

; 2473 : #if WFRAC_BITS < 16
; 2474 : 				v = (v + (1 << (16 - WFRAC_BITS - 1))) >> (16 - WFRAC_BITS);

	ldr         w8,[sp,#0x34]
	add         w8,w8,#2
	asr         w8,w8,#2
	str         w8,[sp,#0x34]

; 2475 : #endif
; 2476 : 				window[i] = v;

	ldr         w8,[sp,#0x34]
	sxth        w10,w8
	ldr         w8,[sp,#0x20]
	sxtw        x9,w8
	mov         x8,#2
	mul         x9,x9,x8
	adrp        x8,|?window@@3PAFA|
	add         x8,x8,PageOffset(|?window@@3PAFA|)
	add         x8,x8,x9
	strh        w10,[x8]

; 2477 : 				if ((i & 63) != 0)

	ldr         w8,[sp,#0x20]
	and         w8,w8,#0x3F
	cmp         w8,#0
	beq         |$LN57@mp3_decode|

; 2478 : 					v = -v;

	ldr         w8,[sp,#0x34]
	neg         w8,w8
	str         w8,[sp,#0x34]
|$LN57@mp3_decode|

; 2479 : 				if (i != 0)

	ldr         w8,[sp,#0x20]
	cmp         w8,#0
	beq         |$LN58@mp3_decode|

; 2480 : 					window[512 - i] = v;

	ldr         w8,[sp,#0x34]
	sxth        w10,w8
	mov         w9,#0x200
	ldr         w8,[sp,#0x20]
	sub         w8,w9,w8
	sxtw        x9,w8
	mov         x8,#2
	mul         x9,x9,x8
	adrp        x8,|?window@@3PAFA|
	add         x8,x8,PageOffset(|?window@@3PAFA|)
	add         x8,x8,x9
	strh        w10,[x8]
|$LN58@mp3_decode|

; 2481 : 			}

	b           |$LN2@mp3_decode|
|$LN3@mp3_decode|

; 2482 : 
; 2483 : 			/* huffman decode tables */
; 2484 : 			for (i = 1; i<16; i++) {

	mov         w8,#1
	str         w8,[sp,#0x20]
	b           |$LN7@mp3_decode|
|$LN5@mp3_decode|
	ldr         w8,[sp,#0x20]
	add         w8,w8,#1
	str         w8,[sp,#0x20]
|$LN7@mp3_decode|
	ldr         w8,[sp,#0x20]
	cmp         w8,#0x10
	bge         |$LN6@mp3_decode|

; 2485 : 				const huff_table_t *h = &mp3_huff_tables[i];

	ldr         w8,[sp,#0x20]
	sxtw        x9,w8
	mov         x8,#0x18
	mul         x9,x9,x8
	adrp        x8,|?mp3_huff_tables@@3QBU_huff_table@@B|
	add         x8,x8,PageOffset(|?mp3_huff_tables@@3QBU_huff_table@@B|)
	add         x8,x8,x9
	str         x8,[sp,#0x80]

; 2486 : 				int xsize, x, y;
; 2487 : 				unsigned int n;
; 2488 : 				uint8_t  tmp_bits[512];
; 2489 : 				uint16_t tmp_codes[512];
; 2490 : 
; 2491 : 				libc_memset(tmp_bits, 0, sizeof(tmp_bits));

	mov         x2,#0x200
	mov         w1,#0
	add         x0,sp,#0xB8
	bl          memset

; 2492 : 				libc_memset(tmp_codes, 0, sizeof(tmp_codes));

	mov         x2,#0x400
	mov         w1,#0
	add         x0,sp,#0x2B8
	bl          memset

; 2493 : 
; 2494 : 				xsize = h->xsize;

	ldr         x8,[sp,#0x80]
	ldr         w8,[x8]
	str         w8,[sp,#0x48]

; 2495 : 				n = xsize * xsize;

	ldr         w9,[sp,#0x48]
	ldr         w8,[sp,#0x48]
	mul         w8,w9,w8
	str         w8,[sp,#0x90]

; 2496 : 
; 2497 : 				j = 0;

	mov         w8,#0
	str         w8,[sp,#0x24]

; 2498 : 				for (x = 0; x<xsize; x++) {

	mov         w8,#0
	str         w8,[sp,#0x28]
	b           |$LN10@mp3_decode|
|$LN8@mp3_decode|
	ldr         w8,[sp,#0x28]
	add         w8,w8,#1
	str         w8,[sp,#0x28]
|$LN10@mp3_decode|
	ldr         w9,[sp,#0x48]
	ldr         w8,[sp,#0x28]
	cmp         w8,w9
	bge         |$LN9@mp3_decode|

; 2499 : 					for (y = 0; y<xsize; y++){

	mov         w8,#0
	str         w8,[sp,#0x2C]
	b           |$LN13@mp3_decode|
|$LN11@mp3_decode|
	ldr         w8,[sp,#0x2C]
	add         w8,w8,#1
	str         w8,[sp,#0x2C]
|$LN13@mp3_decode|
	ldr         w9,[sp,#0x48]
	ldr         w8,[sp,#0x2C]
	cmp         w8,w9
	bge         |$LN12@mp3_decode|

; 2500 : 						tmp_bits[(x << 5) | y | ((x&&y) << 4)] = h->bits[j];

	ldr         w8,[sp,#0x28]
	cmp         w8,#0
	beq         |$LN81@mp3_decode|
	ldr         w8,[sp,#0x2C]
	cmp         w8,#0
	beq         |$LN81@mp3_decode|
	mov         w8,#1
	str         w8,[sp,#0x60]
	b           |$LN82@mp3_decode|
|$LN81@mp3_decode|
	mov         w8,#0
	str         w8,[sp,#0x60]
|$LN82@mp3_decode|
	ldr         x8,[sp,#0x80]
	add         x10,x8,#8
	ldr         w8,[sp,#0x24]
	sxtw        x9,w8
	mov         x8,#1
	mul         x9,x9,x8
	ldr         x8,[x10]
	add         x10,x8,x9
	ldr         w8,[sp,#0x28]
	lsl         w9,w8,#5
	ldr         w8,[sp,#0x2C]
	orr         w9,w9,w8
	ldr         w8,[sp,#0x60]
	lsl         w8,w8,#4
	orr         w8,w9,w8
	sxtw        x9,w8
	mov         x8,#1
	mul         x9,x9,x8
	add         x8,sp,#0xB8
	add         x9,x8,x9
	ldrb        w8,[x10]
	strb        w8,[x9]

; 2501 : 						tmp_codes[(x << 5) | y | ((x&&y) << 4)] = h->codes[j++];

	ldr         w8,[sp,#0x28]
	cmp         w8,#0
	beq         |$LN83@mp3_decode|
	ldr         w8,[sp,#0x2C]
	cmp         w8,#0
	beq         |$LN83@mp3_decode|
	mov         w8,#1
	str         w8,[sp,#0x64]
	b           |$LN84@mp3_decode|
|$LN83@mp3_decode|
	mov         w8,#0
	str         w8,[sp,#0x64]
|$LN84@mp3_decode|
	ldr         x8,[sp,#0x80]
	add         x10,x8,#0x10
	ldr         w8,[sp,#0x24]
	sxtw        x9,w8
	mov         x8,#2
	mul         x9,x9,x8
	ldr         x8,[x10]
	add         x10,x8,x9
	ldr         w8,[sp,#0x28]
	lsl         w9,w8,#5
	ldr         w8,[sp,#0x2C]
	orr         w9,w9,w8
	ldr         w8,[sp,#0x64]
	lsl         w8,w8,#4
	orr         w8,w9,w8
	sxtw        x9,w8
	mov         x8,#2
	mul         x9,x9,x8
	add         x8,sp,#0x2B8
	add         x9,x8,x9
	ldrh        w8,[x10]
	strh        w8,[x9]
	ldr         w8,[sp,#0x24]
	add         w8,w8,#1
	str         w8,[sp,#0x24]

; 2502 : 					}

	b           |$LN11@mp3_decode|
|$LN12@mp3_decode|

; 2503 : 				}

	b           |$LN8@mp3_decode|
|$LN9@mp3_decode|

; 2504 : 
; 2505 : 				init_vlc(&huff_vlc[i], 7, 512,

	ldr         w8,[sp,#0x20]
	sxtw        x9,w8
	mov         x8,#0x18
	mul         x9,x9,x8
	adrp        x8,|?huff_vlc@@3PAU_vlc@@A|
	add         x8,x8,PageOffset(|?huff_vlc@@3PAU_vlc@@A|)
	add         x0,x8,x9
	mov         w8,#2
	str         w8,[sp]
	mov         w7,#2
	add         x6,sp,#0x2B8
	mov         w5,#1
	mov         w4,#1
	add         x3,sp,#0xB8
	mov         w2,#0x200
	mov         w1,#7
	bl          |?init_vlc@@YAHPEAU_vlc@@HHPEBXHH1HH@Z|

; 2506 : 					tmp_bits, 1, 1, tmp_codes, 2, 2);
; 2507 : 			}

	b           |$LN5@mp3_decode|
|$LN6@mp3_decode|

; 2508 : 			for (i = 0; i<2; i++) {

	mov         w8,#0
	str         w8,[sp,#0x20]
	b           |$LN16@mp3_decode|
|$LN14@mp3_decode|
	ldr         w8,[sp,#0x20]
	add         w8,w8,#1
	str         w8,[sp,#0x20]
|$LN16@mp3_decode|
	ldr         w8,[sp,#0x20]
	cmp         w8,#2
	bge         |$LN15@mp3_decode|

; 2509 : 				init_vlc(&huff_quad_vlc[i], i == 0 ? 7 : 4, 16,

	ldr         w8,[sp,#0x20]
	cmp         w8,#0
	bne         |$LN85@mp3_decode|
	mov         w8,#7
	str         w8,[sp,#0x68]
	b           |$LN86@mp3_decode|
|$LN85@mp3_decode|
	mov         w8,#4
	str         w8,[sp,#0x68]
|$LN86@mp3_decode|
	ldr         w8,[sp,#0x20]
	sxtw        x9,w8
	mov         x8,#0x10
	mul         x9,x9,x8
	adrp        x8,|?mp3_quad_codes@@3QAY0BA@$$CBEA|
	add         x8,x8,PageOffset(|?mp3_quad_codes@@3QAY0BA@$$CBEA|)
	add         x6,x8,x9
	ldr         w8,[sp,#0x20]
	sxtw        x9,w8
	mov         x8,#0x10
	mul         x9,x9,x8
	adrp        x8,|?mp3_quad_bits@@3QAY0BA@$$CBEA|
	add         x8,x8,PageOffset(|?mp3_quad_bits@@3QAY0BA@$$CBEA|)
	add         x3,x8,x9
	ldr         w8,[sp,#0x20]
	sxtw        x9,w8
	mov         x8,#0x18
	mul         x9,x9,x8
	adrp        x8,|?huff_quad_vlc@@3PAU_vlc@@A|
	add         x8,x8,PageOffset(|?huff_quad_vlc@@3PAU_vlc@@A|)
	add         x0,x8,x9
	mov         w8,#1
	str         w8,[sp]
	mov         w7,#1
	mov         w5,#1
	mov         w4,#1
	mov         w2,#0x10
	ldr         w1,[sp,#0x68]
	bl          |?init_vlc@@YAHPEAU_vlc@@HHPEBXHH1HH@Z|

; 2510 : 					mp3_quad_bits[i], 1, 1, mp3_quad_codes[i], 1, 1);
; 2511 : 			}

	b           |$LN14@mp3_decode|
|$LN15@mp3_decode|

; 2512 : 
; 2513 : 			for (i = 0; i<9; i++) {

	mov         w8,#0
	str         w8,[sp,#0x20]
	b           |$LN19@mp3_decode|
|$LN17@mp3_decode|
	ldr         w8,[sp,#0x20]
	add         w8,w8,#1
	str         w8,[sp,#0x20]
|$LN19@mp3_decode|
	ldr         w8,[sp,#0x20]
	cmp         w8,#9
	bge         |$LN18@mp3_decode|

; 2514 : 				k = 0;

	mov         w8,#0
	str         w8,[sp,#0x4C]

; 2515 : 				for (j = 0; j<22; j++) {

	mov         w8,#0
	str         w8,[sp,#0x24]
	b           |$LN22@mp3_decode|
|$LN20@mp3_decode|
	ldr         w8,[sp,#0x24]
	add         w8,w8,#1
	str         w8,[sp,#0x24]
|$LN22@mp3_decode|
	ldr         w8,[sp,#0x24]
	cmp         w8,#0x16
	bge         |$LN21@mp3_decode|

; 2516 : 					band_index_long[i][j] = k;

	ldr         w8,[sp,#0x4C]
	uxth        w11,w8
	ldr         w8,[sp,#0x20]
	sxtw        x9,w8
	mov         x8,#0x2E
	mul         x9,x9,x8
	adrp        x8,|?band_index_long@@3PAY0BH@GA|
	add         x8,x8,PageOffset(|?band_index_long@@3PAY0BH@GA|)
	add         x10,x8,x9
	ldr         w8,[sp,#0x24]
	sxtw        x9,w8
	mov         x8,#2
	mul         x8,x9,x8
	add         x8,x10,x8
	strh        w11,[x8]

; 2517 : 					k += band_size_long[i][j];

	ldr         w8,[sp,#0x20]
	sxtw        x9,w8
	mov         x8,#0x16
	mul         x9,x9,x8
	adrp        x8,|?band_size_long@@3QAY0BG@$$CBEA|
	add         x8,x8,PageOffset(|?band_size_long@@3QAY0BG@$$CBEA|)
	add         x10,x8,x9
	ldr         w8,[sp,#0x24]
	sxtw        x9,w8
	mov         x8,#1
	mul         x8,x9,x8
	add         x8,x10,x8
	ldrb        w9,[x8]
	mov         w9,w9
	ldr         w8,[sp,#0x4C]
	add         w8,w8,w9
	str         w8,[sp,#0x4C]

; 2518 : 				}

	b           |$LN20@mp3_decode|
|$LN21@mp3_decode|

; 2519 : 				band_index_long[i][22] = k;

	ldr         w8,[sp,#0x4C]
	uxth        w10,w8
	ldr         w8,[sp,#0x20]
	sxtw        x9,w8
	mov         x8,#0x2E
	mul         x9,x9,x8
	adrp        x8,|?band_index_long@@3PAY0BH@GA|
	add         x8,x8,PageOffset(|?band_index_long@@3PAY0BH@GA|)
	add         x8,x8,x9
	add         x8,x8,#0x2C
	strh        w10,[x8]

; 2520 : 			}

	b           |$LN17@mp3_decode|
|$LN18@mp3_decode|

; 2521 : 
; 2522 : 			/* compute n ^ (4/3) and store it in mantissa/exp format */
; 2523 : 			table_4_3_exp = (int8_t*)libc_malloc(TABLE_4_3_SIZE * sizeof(table_4_3_exp[0]));

	mov         w0,#0x803C
	bl          malloc
	adrp        x8,|?table_4_3_exp@@3PEACEA|
	str         x0,[x8,PageOffset(|?table_4_3_exp@@3PEACEA|)]

; 2524 : 			if (!table_4_3_exp)

	adrp        x8,|?table_4_3_exp@@3PEACEA|
	ldr         x8,[x8,PageOffset(|?table_4_3_exp@@3PEACEA|)]
	cmp         x8,#0
	bne         |$LN59@mp3_decode|

; 2525 : 				return -1;

	mov         w0,#-1
	b           |$LN1@mp3_decode|
|$LN59@mp3_decode|

; 2526 : 			table_4_3_value = (uint32_t*)libc_malloc(TABLE_4_3_SIZE * sizeof(table_4_3_value[0]));

	ldr         w0,|$LN87@mp3_decode|
	bl          malloc
	adrp        x8,|?table_4_3_value@@3PEAIEA|
	str         x0,[x8,PageOffset(|?table_4_3_value@@3PEAIEA|)]

; 2527 : 			if (!table_4_3_value)

	adrp        x8,|?table_4_3_value@@3PEAIEA|
	ldr         x8,[x8,PageOffset(|?table_4_3_value@@3PEAIEA|)]
	cmp         x8,#0
	bne         |$LN60@mp3_decode|

; 2528 : 				return -1;

	mov         w0,#-1
	b           |$LN1@mp3_decode|
|$LN60@mp3_decode|

; 2529 : 
; 2530 : 			for (i = 1; i<TABLE_4_3_SIZE; i++) {

	mov         w8,#1
	str         w8,[sp,#0x20]
	b           |$LN25@mp3_decode|
|$LN23@mp3_decode|
	ldr         w8,[sp,#0x20]
	add         w8,w8,#1
	str         w8,[sp,#0x20]
|$LN25@mp3_decode|
	mov         w9,#0x803C
	ldr         w8,[sp,#0x20]
	cmp         w8,w9
	bge         |$LN24@mp3_decode|

; 2531 : 				double f, fm;
; 2532 : 				int e, m;
; 2533 : 				f = libc_pow((double)(i / 4), 4.0 / 3.0) * libc_pow(2, (i & 3)*0.25);

	ldr         w9,[sp,#0x20]
	mov         w8,#4
	sdiv        w8,w9,w8
	scvtf       d0,w8
	ldr         d1,|$LN88@mp3_decode|
	bl          pow
	fmov        d8,d0
	ldr         w8,[sp,#0x20]
	and         w8,w8,#3
	scvtf       d17,w8
	fmov        d16,#0.25
	fmul        d1,d17,d16
	fmov        d0,#2
	bl          pow
	fmul        d16,d8,d0
	str         d16,[sp,#0x98]

; 2534 : 				fm = libc_frexp(f, &e);

	add         x0,sp,#0x50
	ldr         d0,[sp,#0x98]
	bl          frexp
	str         d0,[sp,#0xA0]

; 2535 : 				m = (uint32_t)(fm*(1LL << 31) + 0.5);

	ldr         d17,[sp,#0xA0]
	ldr         d16,|$LN89@mp3_decode|
	fmul        d17,d17,d16
	fmov        d16,#0.5
	fadd        d16,d17,d16
	fcvtzu      w8,d16
	str         w8,[sp,#0x74]

; 2536 : 				e += FRAC_BITS - 31 + 5 - 100;

	ldr         w9,[sp,#0x50]
	mov         w8,#-0x6F
	add         w8,w9,w8
	str         w8,[sp,#0x50]

; 2537 : 				table_4_3_value[i] = m;

	ldr         w8,[sp,#0x20]
	sxtw        x9,w8
	mov         x8,#4
	mul         x9,x9,x8
	adrp        x8,|?table_4_3_value@@3PEAIEA|
	ldr         x8,[x8,PageOffset(|?table_4_3_value@@3PEAIEA|)]
	add         x9,x8,x9
	ldr         w8,[sp,#0x74]
	str         w8,[x9]

; 2538 : 				table_4_3_exp[i] = -e;

	ldr         w8,[sp,#0x50]
	neg         w8,w8
	sxtb        w10,w8
	ldr         w8,[sp,#0x20]
	sxtw        x9,w8
	mov         x8,#1
	mul         x9,x9,x8
	adrp        x8,|?table_4_3_exp@@3PEACEA|
	ldr         x8,[x8,PageOffset(|?table_4_3_exp@@3PEACEA|)]
	add         x8,x8,x9
	strb        w10,[x8]

; 2539 : 			}

	b           |$LN23@mp3_decode|
|$LN24@mp3_decode|

; 2540 : 			for (i = 0; i<512 * 16; i++){

	mov         w8,#0
	str         w8,[sp,#0x20]
	b           |$LN28@mp3_decode|
|$LN26@mp3_decode|
	ldr         w8,[sp,#0x20]
	add         w8,w8,#1
	str         w8,[sp,#0x20]
|$LN28@mp3_decode|
	ldr         w8,[sp,#0x20]
	cmp         w8,#2,lsl #0xC
	bge         |$LN27@mp3_decode|

; 2541 : 				int exponent = (i >> 4);

	ldr         w8,[sp,#0x20]
	asr         w8,w8,#4
	str         w8,[sp,#0x54]

; 2542 : 				double f = libc_pow(i & 15, 4.0 / 3.0) * libc_pow(2, (exponent - 400)*0.25 + FRAC_BITS + 5);

	ldr         w8,[sp,#0x20]
	and         w8,w8,#0xF
	scvtf       d0,w8
	ldr         d1,|$LN88@mp3_decode|
	bl          pow
	fmov        d8,d0
	ldr         w8,[sp,#0x54]
	sub         w8,w8,#0x190
	scvtf       d17,w8
	fmov        d16,#0.25
	fmul        d17,d17,d16
	fmov        d16,#15
	fadd        d17,d17,d16
	fmov        d16,#5
	fadd        d1,d17,d16
	fmov        d0,#2
	bl          pow
	fmul        d16,d8,d0
	str         d16,[sp,#0x88]

; 2543 : 				expval_table[exponent][i & 15] = f;

	ldr         d16,[sp,#0x88]
	fcvtzu      w11,d16
	ldr         w8,[sp,#0x54]
	sxtw        x9,w8
	mov         x8,#0x40
	mul         x9,x9,x8
	adrp        x8,|?expval_table@@3PAY0BA@IA|
	add         x8,x8,PageOffset(|?expval_table@@3PAY0BA@IA|)
	add         x10,x8,x9
	ldr         w8,[sp,#0x20]
	and         w8,w8,#0xF
	sxtw        x9,w8
	mov         x8,#4
	mul         x8,x9,x8
	add         x8,x10,x8
	str         w11,[x8]

; 2544 : 				if ((i & 15) == 1)

	ldr         w8,[sp,#0x20]
	and         w8,w8,#0xF
	cmp         w8,#1
	bne         |$LN61@mp3_decode|

; 2545 : 					exp_table[exponent] = f;

	ldr         d16,[sp,#0x88]
	fcvtzu      w10,d16
	ldr         w8,[sp,#0x54]
	sxtw        x9,w8
	mov         x8,#4
	mul         x9,x9,x8
	adrp        x8,|?exp_table@@3PAIA|
	add         x8,x8,PageOffset(|?exp_table@@3PAIA|)
	add         x8,x8,x9
	str         w10,[x8]
|$LN61@mp3_decode|

; 2546 : 			}

	b           |$LN26@mp3_decode|
|$LN27@mp3_decode|

; 2547 : 
; 2548 : 			for (i = 0; i<7; i++) {

	mov         w8,#0
	str         w8,[sp,#0x20]
	b           |$LN31@mp3_decode|
|$LN29@mp3_decode|
	ldr         w8,[sp,#0x20]
	add         w8,w8,#1
	str         w8,[sp,#0x20]
|$LN31@mp3_decode|
	ldr         w8,[sp,#0x20]
	cmp         w8,#7
	bge         |$LN30@mp3_decode|

; 2549 : 				float f;
; 2550 : 				int v;
; 2551 : 				if (i != 6) {

	ldr         w8,[sp,#0x20]
	cmp         w8,#6
	beq         |$LN62@mp3_decode|

; 2552 : 					f = tan((double)i * M_PI / 12.0);

	ldr         w8,[sp,#0x20]
	scvtf       d17,w8
	ldr         d16,|$LN90@mp3_decode|
	fmul        d17,d17,d16
	fmov        d16,#12
	fdiv        d0,d17,d16
	bl          tan
	fcvt        s16,d0
	str         s16,[sp,#0x6C]

; 2553 : 					v = FIXR(f / (1.0 + f));

	ldr         s16,[sp,#0x6C]
	fcvt        d18,s16
	ldr         s16,[sp,#0x6C]
	fcvt        d17,s16
	fmov        d16,#1
	fadd        d16,d16,d17
	fdiv        d17,d18,d16
	ldr         d16,|$LN91@mp3_decode|
	fmul        d17,d17,d16
	fmov        d16,#0.5
	fadd        d16,d17,d16
	fcvtzs      w8,d16
	str         w8,[sp,#0x58]

; 2554 : 				}

	b           |$LN63@mp3_decode|
|$LN62@mp3_decode|

; 2555 : 				else {
; 2556 : 					v = FIXR(1.0);

	mov         w8,#0x8000
	str         w8,[sp,#0x58]
|$LN63@mp3_decode|

; 2557 : 				}
; 2558 : 				is_table[0][i] = v;

	ldr         w8,[sp,#0x20]
	sxtw        x9,w8
	mov         x8,#4
	mul         x9,x9,x8
	adrp        x8,|?is_table@@3PAY0BA@HA|
	add         x8,x8,PageOffset(|?is_table@@3PAY0BA@HA|)
	add         x9,x8,x9
	ldr         w8,[sp,#0x58]
	str         w8,[x9]

; 2559 : 				is_table[1][6 - i] = v;

	adrp        x8,|?is_table@@3PAY0BA@HA|
	add         x8,x8,PageOffset(|?is_table@@3PAY0BA@HA|)
	add         x10,x8,#0x40
	mov         w9,#6
	ldr         w8,[sp,#0x20]
	sub         w8,w9,w8
	sxtw        x9,w8
	mov         x8,#4
	mul         x8,x9,x8
	add         x9,x10,x8
	ldr         w8,[sp,#0x58]
	str         w8,[x9]

; 2560 : 			}

	b           |$LN29@mp3_decode|
|$LN30@mp3_decode|

; 2561 : 			for (i = 7; i<16; i++)

	mov         w8,#7
	str         w8,[sp,#0x20]
	b           |$LN34@mp3_decode|
|$LN32@mp3_decode|
	ldr         w8,[sp,#0x20]
	add         w8,w8,#1
	str         w8,[sp,#0x20]
|$LN34@mp3_decode|
	ldr         w8,[sp,#0x20]
	cmp         w8,#0x10
	bge         |$LN33@mp3_decode|

; 2562 : 				is_table[0][i] = is_table[1][i] = 0.0;

	adrp        x8,|?is_table@@3PAY0BA@HA|
	add         x8,x8,PageOffset(|?is_table@@3PAY0BA@HA|)
	add         x10,x8,#0x40
	ldr         w8,[sp,#0x20]
	sxtw        x9,w8
	mov         x8,#4
	mul         x8,x9,x8
	add         x9,x10,x8
	mov         w8,#0
	str         w8,[x9]
	ldr         w8,[sp,#0x20]
	sxtw        x9,w8
	mov         x8,#4
	mul         x9,x9,x8
	adrp        x8,|?is_table@@3PAY0BA@HA|
	add         x8,x8,PageOffset(|?is_table@@3PAY0BA@HA|)
	add         x9,x8,x9
	mov         w8,#0
	str         w8,[x9]
	b           |$LN32@mp3_decode|
|$LN33@mp3_decode|

; 2563 : 
; 2564 : 			for (i = 0; i<16; i++) {

	mov         w8,#0
	str         w8,[sp,#0x20]
	b           |$LN37@mp3_decode|
|$LN35@mp3_decode|
	ldr         w8,[sp,#0x20]
	add         w8,w8,#1
	str         w8,[sp,#0x20]
|$LN37@mp3_decode|
	ldr         w8,[sp,#0x20]
	cmp         w8,#0x10
	bge         |$LN36@mp3_decode|

; 2565 : 				double f;
; 2566 : 				int e, k;
; 2567 : 
; 2568 : 				for (j = 0; j<2; j++) {

	mov         w8,#0
	str         w8,[sp,#0x24]
	b           |$LN40@mp3_decode|
|$LN38@mp3_decode|
	ldr         w8,[sp,#0x24]
	add         w8,w8,#1
	str         w8,[sp,#0x24]
|$LN40@mp3_decode|
	ldr         w8,[sp,#0x24]
	cmp         w8,#2
	bge         |$LN39@mp3_decode|

; 2569 : 					e = -(j + 1) * ((i + 1) >> 1);

	ldr         w8,[sp,#0x24]
	add         w8,w8,#1
	neg         w9,w8
	ldr         w8,[sp,#0x20]
	add         w8,w8,#1
	asr         w8,w8,#1
	mul         w8,w9,w8
	str         w8,[sp,#0x78]

; 2570 : 					f = libc_pow(2.0, e / 4.0);

	ldr         w8,[sp,#0x78]
	scvtf       d17,w8
	fmov        d16,#4
	fdiv        d1,d17,d16
	fmov        d0,#2
	bl          pow
	str         d0,[sp,#0xA8]

; 2571 : 					k = i & 1;

	ldr         w8,[sp,#0x20]
	and         w8,w8,#1
	str         w8,[sp,#0x70]

; 2572 : 					is_table_lsf[j][k ^ 1][i] = FIXR(f);

	ldr         d17,[sp,#0xA8]
	ldr         d16,|$LN91@mp3_decode|
	fmul        d17,d17,d16
	fmov        d16,#0.5
	fadd        d16,d17,d16
	fcvtzs      w11,d16
	ldr         w8,[sp,#0x24]
	sxtw        x9,w8
	mov         x8,#0x80
	mul         x9,x9,x8
	adrp        x8,|?is_table_lsf@@3PAY11BA@HA|
	add         x8,x8,PageOffset(|?is_table_lsf@@3PAY11BA@HA|)
	add         x10,x8,x9
	ldr         w8,[sp,#0x70]
	eor         w8,w8,#1
	sxtw        x9,w8
	mov         x8,#0x40
	mul         x8,x9,x8
	add         x10,x10,x8
	ldr         w8,[sp,#0x20]
	sxtw        x9,w8
	mov         x8,#4
	mul         x8,x9,x8
	add         x8,x10,x8
	str         w11,[x8]

; 2573 : 					is_table_lsf[j][k][i] = FIXR(1.0);

	ldr         w8,[sp,#0x24]
	sxtw        x9,w8
	mov         x8,#0x80
	mul         x9,x9,x8
	adrp        x8,|?is_table_lsf@@3PAY11BA@HA|
	add         x8,x8,PageOffset(|?is_table_lsf@@3PAY11BA@HA|)
	add         x10,x8,x9
	ldr         w8,[sp,#0x70]
	sxtw        x9,w8
	mov         x8,#0x40
	mul         x8,x9,x8
	add         x10,x10,x8
	ldr         w8,[sp,#0x20]
	sxtw        x9,w8
	mov         x8,#4
	mul         x8,x9,x8
	add         x9,x10,x8
	mov         w8,#0x8000
	str         w8,[x9]

; 2574 : 				}

	b           |$LN38@mp3_decode|
|$LN39@mp3_decode|

; 2575 : 			}

	b           |$LN35@mp3_decode|
|$LN36@mp3_decode|

; 2576 : 
; 2577 : 			for (i = 0; i<8; i++) {

	mov         w8,#0
	str         w8,[sp,#0x20]
	b           |$LN43@mp3_decode|
|$LN41@mp3_decode|
	ldr         w8,[sp,#0x20]
	add         w8,w8,#1
	str         w8,[sp,#0x20]
|$LN43@mp3_decode|
	ldr         w8,[sp,#0x20]
	cmp         w8,#8
	bge         |$LN42@mp3_decode|

; 2578 : 				float ci, cs, ca;
; 2579 : 				ci = ci_table[i];

	ldr         w8,[sp,#0x20]
	sxtw        x9,w8
	mov         x8,#4
	mul         x9,x9,x8
	adrp        x8,|?ci_table@@3QBMB|
	add         x8,x8,PageOffset(|?ci_table@@3QBMB|)
	add         x8,x8,x9
	ldr         s16,[x8]
	str         s16,[sp,#0x5C]

; 2580 : 				cs = 1.0 / sqrt(1.0 + ci * ci);

	ldr         s17,[sp,#0x5C]
	ldr         s16,[sp,#0x5C]
	fmul        s16,s17,s16
	fcvt        d17,s16
	fmov        d16,#1
	fadd        d0,d16,d17
	bl          sqrt
	fmov        d16,#1
	fdiv        d16,d16,d0
	fcvt        s16,d16
	str         s16,[sp,#0x30]

; 2581 : 				ca = cs * ci;

	ldr         s17,[sp,#0x30]
	ldr         s16,[sp,#0x5C]
	fmul        s16,s17,s16
	str         s16,[sp,#0x38]

; 2582 : 				csa_table[i][0] = FIXHR(cs / 4);

	ldr         s17,[sp,#0x30]
	fmov        s16,#4
	fdiv        s17,s17,s16
	ldr         s16,|$LN92@mp3_decode|
	fmul        s16,s17,s16
	fcvt        d17,s16
	fmov        d16,#0.5
	fadd        d16,d17,d16
	fcvtzs      w10,d16
	ldr         w8,[sp,#0x20]
	sxtw        x9,w8
	mov         x8,#0x10
	mul         x9,x9,x8
	adrp        x8,|?csa_table@@3PAY03HA|
	add         x8,x8,PageOffset(|?csa_table@@3PAY03HA|)
	add         x8,x8,x9
	str         w10,[x8]

; 2583 : 				csa_table[i][1] = FIXHR(ca / 4);

	ldr         s17,[sp,#0x38]
	fmov        s16,#4
	fdiv        s17,s17,s16
	ldr         s16,|$LN92@mp3_decode|
	fmul        s16,s17,s16
	fcvt        d17,s16
	fmov        d16,#0.5
	fadd        d16,d17,d16
	fcvtzs      w10,d16
	ldr         w8,[sp,#0x20]
	sxtw        x9,w8
	mov         x8,#0x10
	mul         x9,x9,x8
	adrp        x8,|?csa_table@@3PAY03HA|
	add         x8,x8,PageOffset(|?csa_table@@3PAY03HA|)
	add         x8,x8,x9
	add         x8,x8,#4
	str         w10,[x8]

; 2584 : 				csa_table[i][2] = FIXHR(ca / 4) + FIXHR(cs / 4);

	ldr         s17,[sp,#0x38]
	fmov        s16,#4
	fdiv        s17,s17,s16
	ldr         s16,|$LN92@mp3_decode|
	fmul        s16,s17,s16
	fcvt        d17,s16
	fmov        d16,#0.5
	fadd        d16,d17,d16
	fcvtzs      w9,d16
	ldr         s17,[sp,#0x30]
	fmov        s16,#4
	fdiv        s17,s17,s16
	ldr         s16,|$LN92@mp3_decode|
	fmul        s16,s17,s16
	fcvt        d17,s16
	fmov        d16,#0.5
	fadd        d16,d17,d16
	fcvtzs      w8,d16
	add         w10,w9,w8
	ldr         w8,[sp,#0x20]
	sxtw        x9,w8
	mov         x8,#0x10
	mul         x9,x9,x8
	adrp        x8,|?csa_table@@3PAY03HA|
	add         x8,x8,PageOffset(|?csa_table@@3PAY03HA|)
	add         x8,x8,x9
	add         x8,x8,#8
	str         w10,[x8]

; 2585 : 				csa_table[i][3] = FIXHR(ca / 4) - FIXHR(cs / 4);

	ldr         s17,[sp,#0x38]
	fmov        s16,#4
	fdiv        s17,s17,s16
	ldr         s16,|$LN92@mp3_decode|
	fmul        s16,s17,s16
	fcvt        d17,s16
	fmov        d16,#0.5
	fadd        d16,d17,d16
	fcvtzs      w9,d16
	ldr         s17,[sp,#0x30]
	fmov        s16,#4
	fdiv        s17,s17,s16
	ldr         s16,|$LN92@mp3_decode|
	fmul        s16,s17,s16
	fcvt        d17,s16
	fmov        d16,#0.5
	fadd        d16,d17,d16
	fcvtzs      w8,d16
	sub         w10,w9,w8
	ldr         w8,[sp,#0x20]
	sxtw        x9,w8
	mov         x8,#0x10
	mul         x9,x9,x8
	adrp        x8,|?csa_table@@3PAY03HA|
	add         x8,x8,PageOffset(|?csa_table@@3PAY03HA|)
	add         x8,x8,x9
	add         x8,x8,#0xC
	str         w10,[x8]

; 2586 : 				csa_table_float[i][0] = cs;

	ldr         w8,[sp,#0x20]
	sxtw        x9,w8
	mov         x8,#0x10
	mul         x9,x9,x8
	adrp        x8,|?csa_table_float@@3PAY03MA|
	add         x8,x8,PageOffset(|?csa_table_float@@3PAY03MA|)
	add         x8,x8,x9
	ldr         s16,[sp,#0x30]
	str         s16,[x8]

; 2587 : 				csa_table_float[i][1] = ca;

	ldr         w8,[sp,#0x20]
	sxtw        x9,w8
	mov         x8,#0x10
	mul         x9,x9,x8
	adrp        x8,|?csa_table_float@@3PAY03MA|
	add         x8,x8,PageOffset(|?csa_table_float@@3PAY03MA|)
	add         x8,x8,x9
	add         x8,x8,#4
	ldr         s16,[sp,#0x38]
	str         s16,[x8]

; 2588 : 				csa_table_float[i][2] = ca + cs;

	ldr         s17,[sp,#0x38]
	ldr         s16,[sp,#0x30]
	fadd        s16,s17,s16
	ldr         w8,[sp,#0x20]
	sxtw        x9,w8
	mov         x8,#0x10
	mul         x9,x9,x8
	adrp        x8,|?csa_table_float@@3PAY03MA|
	add         x8,x8,PageOffset(|?csa_table_float@@3PAY03MA|)
	add         x8,x8,x9
	add         x8,x8,#8
	str         s16,[x8]

; 2589 : 				csa_table_float[i][3] = ca - cs;

	ldr         s17,[sp,#0x38]
	ldr         s16,[sp,#0x30]
	fsub        s16,s17,s16
	ldr         w8,[sp,#0x20]
	sxtw        x9,w8
	mov         x8,#0x10
	mul         x9,x9,x8
	adrp        x8,|?csa_table_float@@3PAY03MA|
	add         x8,x8,PageOffset(|?csa_table_float@@3PAY03MA|)
	add         x8,x8,x9
	add         x8,x8,#0xC
	str         s16,[x8]

; 2590 : 			}

	b           |$LN41@mp3_decode|
|$LN42@mp3_decode|

; 2591 : 
; 2592 : 			/* compute mdct windows */
; 2593 : 			for (i = 0; i<36; i++) {

	mov         w8,#0
	str         w8,[sp,#0x20]
	b           |$LN46@mp3_decode|
|$LN44@mp3_decode|
	ldr         w8,[sp,#0x20]
	add         w8,w8,#1
	str         w8,[sp,#0x20]
|$LN46@mp3_decode|
	ldr         w8,[sp,#0x20]
	cmp         w8,#0x24
	bge         |$LN45@mp3_decode|

; 2594 : 				for (j = 0; j<4; j++){

	mov         w8,#0
	str         w8,[sp,#0x24]
	b           |$LN49@mp3_decode|
|$LN47@mp3_decode|
	ldr         w8,[sp,#0x24]
	add         w8,w8,#1
	str         w8,[sp,#0x24]
|$LN49@mp3_decode|
	ldr         w8,[sp,#0x24]
	cmp         w8,#4
	bge         |$LN48@mp3_decode|

; 2595 : 					double d;
; 2596 : 
; 2597 : 					if (j == 2 && i % 3 != 1)

	ldr         w8,[sp,#0x24]
	cmp         w8,#2
	bne         |$LN64@mp3_decode|
	ldr         w10,[sp,#0x20]
	mov         w9,#3
	sdiv        w8,w10,w9
	mul         w8,w8,w9
	sub         w8,w10,w8
	cmp         w8,#1
	beq         |$LN64@mp3_decode|

; 2598 : 						continue;

	b           |$LN47@mp3_decode|
|$LN64@mp3_decode|

; 2599 : 
; 2600 : 					d = sin(M_PI * (i + 0.5) / 36.0);

	ldr         w8,[sp,#0x20]
	scvtf       d17,w8
	fmov        d16,#0.5
	fadd        d17,d17,d16
	ldr         d16,|$LN90@mp3_decode|
	fmul        d17,d16,d17
	ldr         d16,|$LN93@mp3_decode|
	fdiv        d0,d17,d16
	bl          sin
	str         d0,[sp,#0x40]

; 2601 : 					if (j == 1){

	ldr         w8,[sp,#0x24]
	cmp         w8,#1
	bne         |$LN65@mp3_decode|

; 2602 : 						if (i >= 30) d = 0;

	ldr         w8,[sp,#0x20]
	cmp         w8,#0x1E
	blt         |$LN67@mp3_decode|
	movi        d16,#0
	str         d16,[sp,#0x40]
	b           |$LN68@mp3_decode|
|$LN67@mp3_decode|

; 2603 : 						else if (i >= 24) d = sin(M_PI * (i - 18 + 0.5) / 12.0);

	ldr         w8,[sp,#0x20]
	cmp         w8,#0x18
	blt         |$LN69@mp3_decode|
	ldr         w8,[sp,#0x20]
	sub         w8,w8,#0x12
	scvtf       d17,w8
	fmov        d16,#0.5
	fadd        d17,d17,d16
	ldr         d16,|$LN90@mp3_decode|
	fmul        d17,d16,d17
	fmov        d16,#12
	fdiv        d0,d17,d16
	bl          sin
	str         d0,[sp,#0x40]
	b           |$LN70@mp3_decode|
|$LN69@mp3_decode|

; 2604 : 						else if (i >= 18) d = 1;

	ldr         w8,[sp,#0x20]
	cmp         w8,#0x12
	blt         |$LN71@mp3_decode|
	fmov        d16,#1
	str         d16,[sp,#0x40]
|$LN71@mp3_decode|
|$LN70@mp3_decode|
|$LN68@mp3_decode|

; 2605 : 					}

	b           |$LN66@mp3_decode|
|$LN65@mp3_decode|

; 2606 : 					else if (j == 3){

	ldr         w8,[sp,#0x24]
	cmp         w8,#3
	bne         |$LN72@mp3_decode|

; 2607 : 						if (i<  6) d = 0;

	ldr         w8,[sp,#0x20]
	cmp         w8,#6
	bge         |$LN73@mp3_decode|
	movi        d16,#0
	str         d16,[sp,#0x40]
	b           |$LN74@mp3_decode|
|$LN73@mp3_decode|

; 2608 : 						else if (i< 12) d = sin(M_PI * (i - 6 + 0.5) / 12.0);

	ldr         w8,[sp,#0x20]
	cmp         w8,#0xC
	bge         |$LN75@mp3_decode|
	ldr         w8,[sp,#0x20]
	sub         w8,w8,#6
	scvtf       d17,w8
	fmov        d16,#0.5
	fadd        d17,d17,d16
	ldr         d16,|$LN90@mp3_decode|
	fmul        d17,d16,d17
	fmov        d16,#12
	fdiv        d0,d17,d16
	bl          sin
	str         d0,[sp,#0x40]
	b           |$LN76@mp3_decode|
|$LN75@mp3_decode|

; 2609 : 						else if (i< 18) d = 1;

	ldr         w8,[sp,#0x20]
	cmp         w8,#0x12
	bge         |$LN77@mp3_decode|
	fmov        d16,#1
	str         d16,[sp,#0x40]
|$LN77@mp3_decode|
|$LN76@mp3_decode|
|$LN74@mp3_decode|
|$LN72@mp3_decode|
|$LN66@mp3_decode|

; 2610 : 					}
; 2611 : 					d *= 0.5 / cos(M_PI*(2 * i + 19) / 72);

	ldr         w9,[sp,#0x20]
	mov         w8,#2
	mul         w8,w9,w8
	add         w8,w8,#0x13
	scvtf       d17,w8
	ldr         d16,|$LN90@mp3_decode|
	fmul        d17,d16,d17
	ldr         d16,|$LN94@mp3_decode|
	fdiv        d0,d17,d16
	bl          cos
	fmov        d16,#0.5
	fdiv        d17,d16,d0
	ldr         d16,[sp,#0x40]
	fmul        d16,d16,d17
	str         d16,[sp,#0x40]

; 2612 : 					if (j == 2)

	ldr         w8,[sp,#0x24]
	cmp         w8,#2
	bne         |$LN78@mp3_decode|

; 2613 : 						mdct_win[j][i / 3] = FIXHR((d / (1 << 5)));

	ldr         d17,[sp,#0x40]
	ldr         d16,|$LN95@mp3_decode|
	fdiv        d17,d17,d16
	ldr         d16,|$LN96@mp3_decode|
	fmul        d17,d17,d16
	fmov        d16,#0.5
	fadd        d16,d17,d16
	fcvtzs      w11,d16
	ldr         w8,[sp,#0x24]
	sxtw        x9,w8
	mov         x8,#0x90
	mul         x9,x9,x8
	adrp        x8,|?mdct_win@@3PAY0CE@HA|
	add         x8,x8,PageOffset(|?mdct_win@@3PAY0CE@HA|)
	add         x10,x8,x9
	ldr         w9,[sp,#0x20]
	mov         w8,#3
	sdiv        w8,w9,w8
	sxtw        x9,w8
	mov         x8,#4
	mul         x8,x9,x8
	add         x8,x10,x8
	str         w11,[x8]
	b           |$LN79@mp3_decode|
|$LN78@mp3_decode|

; 2614 : 					else
; 2615 : 						mdct_win[j][i] = FIXHR((d / (1 << 5)));

	ldr         d17,[sp,#0x40]
	ldr         d16,|$LN95@mp3_decode|
	fdiv        d17,d17,d16
	ldr         d16,|$LN96@mp3_decode|
	fmul        d17,d17,d16
	fmov        d16,#0.5
	fadd        d16,d17,d16
	fcvtzs      w11,d16
	ldr         w8,[sp,#0x24]
	sxtw        x9,w8
	mov         x8,#0x90
	mul         x9,x9,x8
	adrp        x8,|?mdct_win@@3PAY0CE@HA|
	add         x8,x8,PageOffset(|?mdct_win@@3PAY0CE@HA|)
	add         x10,x8,x9
	ldr         w8,[sp,#0x20]
	sxtw        x9,w8
	mov         x8,#4
	mul         x8,x9,x8
	add         x8,x10,x8
	str         w11,[x8]
|$LN79@mp3_decode|

; 2616 : 				}

	b           |$LN47@mp3_decode|
|$LN48@mp3_decode|

; 2617 : 			}

	b           |$LN44@mp3_decode|
|$LN45@mp3_decode|

; 2618 : 			for (j = 0; j<4; j++) {

	mov         w8,#0
	str         w8,[sp,#0x24]
	b           |$LN52@mp3_decode|
|$LN50@mp3_decode|
	ldr         w8,[sp,#0x24]
	add         w8,w8,#1
	str         w8,[sp,#0x24]
|$LN52@mp3_decode|
	ldr         w8,[sp,#0x24]
	cmp         w8,#4
	bge         |$LN51@mp3_decode|

; 2619 : 				for (i = 0; i<36; i += 2) {

	mov         w8,#0
	str         w8,[sp,#0x20]
	b           |$LN55@mp3_decode|
|$LN53@mp3_decode|
	ldr         w8,[sp,#0x20]
	add         w8,w8,#2
	str         w8,[sp,#0x20]
|$LN55@mp3_decode|
	ldr         w8,[sp,#0x20]
	cmp         w8,#0x24
	bge         |$LN54@mp3_decode|

; 2620 : 					mdct_win[j + 4][i] = mdct_win[j][i];

	ldr         w8,[sp,#0x24]
	sxtw        x9,w8
	mov         x8,#0x90
	mul         x9,x9,x8
	adrp        x8,|?mdct_win@@3PAY0CE@HA|
	add         x8,x8,PageOffset(|?mdct_win@@3PAY0CE@HA|)
	add         x10,x8,x9
	ldr         w8,[sp,#0x20]
	sxtw        x9,w8
	mov         x8,#4
	mul         x8,x9,x8
	add         x11,x10,x8
	ldr         w8,[sp,#0x24]
	add         w8,w8,#4
	sxtw        x9,w8
	mov         x8,#0x90
	mul         x9,x9,x8
	adrp        x8,|?mdct_win@@3PAY0CE@HA|
	add         x8,x8,PageOffset(|?mdct_win@@3PAY0CE@HA|)
	add         x10,x8,x9
	ldr         w8,[sp,#0x20]
	sxtw        x9,w8
	mov         x8,#4
	mul         x8,x9,x8
	add         x9,x10,x8
	ldr         w8,[x11]
	str         w8,[x9]

; 2621 : 					mdct_win[j + 4][i + 1] = -mdct_win[j][i + 1];

	ldr         w8,[sp,#0x24]
	sxtw        x9,w8
	mov         x8,#0x90
	mul         x9,x9,x8
	adrp        x8,|?mdct_win@@3PAY0CE@HA|
	add         x8,x8,PageOffset(|?mdct_win@@3PAY0CE@HA|)
	add         x10,x8,x9
	ldr         w8,[sp,#0x20]
	add         w8,w8,#1
	sxtw        x9,w8
	mov         x8,#4
	mul         x8,x9,x8
	add         x8,x10,x8
	ldr         w8,[x8]
	neg         w11,w8
	ldr         w8,[sp,#0x24]
	add         w8,w8,#4
	sxtw        x9,w8
	mov         x8,#0x90
	mul         x9,x9,x8
	adrp        x8,|?mdct_win@@3PAY0CE@HA|
	add         x8,x8,PageOffset(|?mdct_win@@3PAY0CE@HA|)
	add         x10,x8,x9
	ldr         w8,[sp,#0x20]
	add         w8,w8,#1
	sxtw        x9,w8
	mov         x8,#4
	mul         x8,x9,x8
	add         x8,x10,x8
	str         w11,[x8]

; 2622 : 				}

	b           |$LN53@mp3_decode|
|$LN54@mp3_decode|

; 2623 : 			}

	b           |$LN50@mp3_decode|
|$LN51@mp3_decode|

; 2624 : 			init = 1;

	adrp        x9,|?init@?1??mp3_decode_init@@YAHPEAU_mp3_context@@@Z@4HA|
	mov         w8,#1
	str         w8,[x9,PageOffset(|?init@?1??mp3_decode_init@@YAHPEAU_mp3_context@@@Z@4HA|)]
|$LN56@mp3_decode|

; 2625 : 		}
; 2626 : 		return 0;

	mov         w0,#0
|$LN1@mp3_decode|
	ldp         fp,lr,[sp,#0x10]
	add         sp,sp,#0x6C0
	ldr         d8,[sp],#0x10
	ret
	nop
|$LN88@mp3_decode|
	DCFD         1.33333
|$LN89@mp3_decode|
	DCFD         2.14748e+09
|$LN90@mp3_decode|
	DCFD         3.14159
|$LN91@mp3_decode|
	DCFD         32768
|$LN93@mp3_decode|
	DCFD         36
|$LN94@mp3_decode|
	DCFD         72
|$LN95@mp3_decode|
	DCFD         32
|$LN96@mp3_decode|
	DCFD         4.29497e+09
|$LN87@mp3_decode|
	DCD         0x200f0
|$LN92@mp3_decode|
	DCFS         4.29497e+09

	ENDP  ; |?mp3_decode_init@@YAHPEAU_mp3_context@@@Z|, mp3_decode_init

; Function compile flags: /Odtp
; File C:\Users\paras\source\repos\grep-name\XenevaOS\Process\AudioPlayer\minimp3.cpp

	AREA	|.text$mn|, CODE, ARM64

|?mp3_decode_main@@YAHPEAU_mp3_context@@PEAFPEBEH@Z| PROC ; mp3_decode_main

; 2413 : 		int16_t *samples, const uint8_t *buf, int buf_size

	stp         x19,x20,[sp,#-0x10]!
	stp         fp,lr,[sp,#-0x60]!
	mov         fp,sp
	str         x0,[sp,#0x18]
	str         x1,[sp,#0x40]
	str         x2,[sp,#0x38]
	str         w3,[sp,#0x24]

; 2414 : 		) {
; 2415 : 		int i, nb_frames, ch;
; 2416 : 		int16_t *samples_ptr;
; 2417 : 
; 2418 : 		init_get_bits(&s->gb, buf + HEADER_SIZE, (buf_size - HEADER_SIZE) * 8);

	ldr         w8,[sp,#0x24]
	sub         w9,w8,#4
	mov         w8,#8
	mul         w2,w9,w8
	ldr         x8,[sp,#0x38]
	add         x1,x8,#4
	ldr         x8,[sp,#0x18]
	add         x0,x8,#0x438
	mov         w2,w2
	bl          |?init_get_bits@@YAXPEAU_bitstream@@PEBEH@Z|

; 2419 : 
; 2420 : 		if (s->error_protection)

	ldr         x8,[sp,#0x18]
	add         x8,x8,#0x424
	ldr         w8,[x8]
	cmp         w8,#0
	beq         |$LN8@mp3_decode|

; 2421 : 			get_bits(&s->gb, 16);

	ldr         x8,[sp,#0x18]
	add         x0,x8,#0x438
	mov         w1,#0x10
	bl          |?get_bits@@YAIPEAU_bitstream@@H@Z|
|$LN8@mp3_decode|

; 2422 : 
; 2423 : 		nb_frames = mp_decode_layer3(s);

	ldr         x0,[sp,#0x18]
	bl          |?mp_decode_layer3@@YAHPEAU_mp3_context@@@Z|
	mov         w0,w0
	str         w0,[sp,#0x28]

; 2424 : 
; 2425 : 		s->last_buf_size = 0;

	ldr         x8,[sp,#0x18]
	add         x9,x8,#0x418
	mov         w8,#0
	str         w8,[x9]

; 2426 : 		if (s->in_gb.buffer){

	ldr         x8,[sp,#0x18]
	add         x8,x8,#0x450
	ldr         x8,[x8]
	cmp         x8,#0
	beq         |$LN9@mp3_decode|

; 2427 : 			align_get_bits(&s->gb);

	ldr         x8,[sp,#0x18]
	add         x0,x8,#0x438
	bl          |?align_get_bits@@YAXPEAU_bitstream@@@Z|

; 2428 : 			i = (s->gb.size_in_bits - get_bits_count(&s->gb)) >> 3;

	ldr         x8,[sp,#0x18]
	add         x8,x8,#0x438
	add         x19,x8,#0x14
	ldr         x8,[sp,#0x18]
	add         x0,x8,#0x438
	bl          |?get_bits_count@@YAHPEAU_bitstream@@@Z|
	mov         w0,w0
	ldr         w8,[x19]
	sub         w8,w8,w0
	asr         w8,w8,#3
	str         w8,[sp,#0x10]

; 2429 : 			if (i >= 0 && i <= BACKSTEP_SIZE){

	ldr         w8,[sp,#0x10]
	cmp         w8,#0
	blt         |$LN10@mp3_decode|
	ldr         w8,[sp,#0x10]
	cmp         w8,#0x200
	bgt         |$LN10@mp3_decode|

; 2430 : 				libc_memmove(s->last_buf, s->gb.buffer + (get_bits_count(&s->gb) >> 3), i);

	ldr         w8,[sp,#0x10]
	sxtw        x20,w8
	ldr         x8,[sp,#0x18]
	add         x19,x8,#0x438
	ldr         x8,[sp,#0x18]
	add         x0,x8,#0x438
	bl          |?get_bits_count@@YAHPEAU_bitstream@@@Z|
	mov         w0,w0
	asr         w8,w0,#3
	sxtw        x9,w8
	ldr         x8,[x19]
	add         x1,x8,x9
	ldr         x0,[sp,#0x18]
	mov         x2,x20
	bl          memmove

; 2431 : 				s->last_buf_size = i;

	ldr         x8,[sp,#0x18]
	add         x9,x8,#0x418
	ldr         w8,[sp,#0x10]
	str         w8,[x9]
|$LN10@mp3_decode|

; 2432 : 			}
; 2433 : 			s->gb = s->in_gb;

	ldr         x8,[sp,#0x18]
	add         x10,x8,#0x450
	add         x11,sp,#0x48
	ldp         x9,x8,[x10]
	stp         x9,x8,[x11]
	ldr         x8,[x10,#0x10]
	str         x8,[x11,#0x10]
	ldr         x8,[sp,#0x18]
	add         x11,x8,#0x438
	add         x10,sp,#0x48
	ldp         x9,x8,[x10]
	stp         x9,x8,[x11]
	ldr         x8,[x10,#0x10]
	str         x8,[x11,#0x10]
|$LN9@mp3_decode|

; 2434 : 		}
; 2435 : 
; 2436 : 		align_get_bits(&s->gb);

	ldr         x8,[sp,#0x18]
	add         x0,x8,#0x438
	bl          |?align_get_bits@@YAXPEAU_bitstream@@@Z|

; 2437 : 		i = (s->gb.size_in_bits - get_bits_count(&s->gb)) >> 3;

	ldr         x8,[sp,#0x18]
	add         x8,x8,#0x438
	add         x19,x8,#0x14
	ldr         x8,[sp,#0x18]
	add         x0,x8,#0x438
	bl          |?get_bits_count@@YAHPEAU_bitstream@@@Z|
	mov         w0,w0
	ldr         w8,[x19]
	sub         w8,w8,w0
	asr         w8,w8,#3
	str         w8,[sp,#0x10]

; 2438 : 
; 2439 : 		if (i<0 || i > BACKSTEP_SIZE || nb_frames<0){

	ldr         w8,[sp,#0x10]
	cmp         w8,#0
	blt         |$LN12@mp3_decode|
	ldr         w8,[sp,#0x10]
	cmp         w8,#0x200
	bgt         |$LN12@mp3_decode|
	ldr         w8,[sp,#0x28]
	cmp         w8,#0
	bge         |$LN11@mp3_decode|
|$LN12@mp3_decode|

; 2440 : 			i = buf_size - HEADER_SIZE;

	ldr         w8,[sp,#0x24]
	sub         w8,w8,#4
	str         w8,[sp,#0x10]

; 2441 : 			if (BACKSTEP_SIZE < i) i = BACKSTEP_SIZE;

	ldr         w9,[sp,#0x10]
	mov         w8,#0x200
	cmp         w8,w9
	bge         |$LN13@mp3_decode|
	mov         w8,#0x200
	str         w8,[sp,#0x10]
|$LN13@mp3_decode|
|$LN11@mp3_decode|

; 2442 : 		}
; 2443 : 		libc_memcpy(s->last_buf + s->last_buf_size,(void*)(s->gb.buffer + buf_size - HEADER_SIZE - i), i);

	ldr         w8,[sp,#0x10]
	sxtw        x2,w8
	ldr         x8,[sp,#0x18]
	add         x10,x8,#0x438
	ldr         w8,[sp,#0x24]
	sxtw        x9,w8
	ldr         x8,[x10]
	add         x8,x8,x9
	sub         x9,x8,#4
	ldr         w8,[sp,#0x10]
	sxtw        x8,w8
	sub         x1,x9,x8
	ldr         x9,[sp,#0x18]
	ldr         x8,[sp,#0x18]
	add         x8,x8,#0x418
	ldr         w8,[x8]
	sxtw        x8,w8
	add         x0,x9,x8
	bl          memcpy

; 2444 : 		s->last_buf_size += i;

	ldr         x8,[sp,#0x18]
	add         x8,x8,#0x418
	ldr         w9,[x8]
	ldr         w8,[sp,#0x10]
	add         w9,w9,w8
	ldr         x8,[sp,#0x18]
	add         x8,x8,#0x418
	str         w9,[x8]

; 2445 : 
; 2446 : 		/* apply the synthesis filter */
; 2447 : 		for (ch = 0; ch<s->nb_channels; ch++) {

	mov         w8,#0
	str         w8,[sp,#0x20]
	b           |$LN4@mp3_decode|
|$LN2@mp3_decode|
	ldr         w8,[sp,#0x20]
	add         w8,w8,#1
	str         w8,[sp,#0x20]
|$LN4@mp3_decode|
	ldr         x8,[sp,#0x18]
	add         x8,x8,#0x468
	ldr         w9,[x8]
	ldr         w8,[sp,#0x20]
	cmp         w8,w9
	bge         |$LN3@mp3_decode|

; 2448 : 			samples_ptr = samples + ch;

	ldr         w8,[sp,#0x20]
	sxtw        x9,w8
	mov         x8,#2
	mul         x9,x9,x8
	ldr         x8,[sp,#0x40]
	add         x8,x8,x9
	str         x8,[sp,#0x30]

; 2449 : 			for (i = 0; i<nb_frames; i++) {

	mov         w8,#0
	str         w8,[sp,#0x10]
	b           |$LN7@mp3_decode|
|$LN5@mp3_decode|
	ldr         w8,[sp,#0x10]
	add         w8,w8,#1
	str         w8,[sp,#0x10]
|$LN7@mp3_decode|
	ldr         w9,[sp,#0x28]
	ldr         w8,[sp,#0x10]
	cmp         w8,w9
	bge         |$LN6@mp3_decode|

; 2450 : 				mp3_synth_filter(

	ldr         x9,[sp,#0x18]
	mov         x8,#0x1480
	add         x10,x9,x8
	ldr         w8,[sp,#0x20]
	sxtw        x9,w8
	mov         x8,#0x1200
	mul         x8,x9,x8
	add         x10,x10,x8
	ldr         w8,[sp,#0x10]
	sxtw        x9,w8
	mov         x8,#0x80
	mul         x8,x9,x8
	add         x6,x10,x8
	ldr         x8,[sp,#0x18]
	add         x11,x8,#0x468
	ldr         x9,[sp,#0x18]
	mov         x8,#0x4A80
	add         x3,x9,x8
	ldr         x9,[sp,#0x18]
	mov         x8,#0x1478
	add         x10,x9,x8
	ldr         w8,[sp,#0x20]
	sxtw        x9,w8
	mov         x8,#4
	mul         x8,x9,x8
	add         x1,x10,x8
	ldr         x8,[sp,#0x18]
	add         x10,x8,#0x478
	ldr         w8,[sp,#0x20]
	sxtw        x9,w8
	mov         x8,#0x800
	mul         x8,x9,x8
	add         x0,x10,x8
	ldr         w5,[x11]
	ldr         x4,[sp,#0x30]
	adrp        x8,|?window@@3PAFA|
	add         x2,x8,PageOffset(|?window@@3PAFA|)
	bl          |?mp3_synth_filter@@YAXPEAFPEAH010HQEAH@Z|

; 2451 : 					s->synth_buf[ch], &(s->synth_buf_offset[ch]),
; 2452 : 					window, &s->dither_state,
; 2453 : 					samples_ptr, s->nb_channels,
; 2454 : 					s->sb_samples[ch][i]
; 2455 : 					);
; 2456 : 				samples_ptr += 32 * s->nb_channels;

	ldr         x8,[sp,#0x18]
	add         x8,x8,#0x468
	ldr         w9,[x8]
	mov         w8,#0x20
	mul         w8,w9,w8
	sxtw        x9,w8
	mov         x8,#2
	mul         x9,x9,x8
	ldr         x8,[sp,#0x30]
	add         x8,x8,x9
	str         x8,[sp,#0x30]

; 2457 : 			}

	b           |$LN5@mp3_decode|
|$LN6@mp3_decode|

; 2458 : 		}

	b           |$LN2@mp3_decode|
|$LN3@mp3_decode|

; 2459 : 		return nb_frames * 32 * sizeof(uint16_t)* s->nb_channels;

	ldr         w9,[sp,#0x28]
	mov         w8,#0x20
	mul         w8,w9,w8
	sxtw        x9,w8
	mov         x8,#2
	mul         x9,x9,x8
	ldr         x8,[sp,#0x18]
	add         x8,x8,#0x468
	ldr         w8,[x8]
	sxtw        x8,w8
	mul         x8,x9,x8
	mov         w0,w8
	mov         w0,w0
	ldp         fp,lr,[sp],#0x60
	ldp         x19,x20,[sp],#0x10
	ret

	ENDP  ; |?mp3_decode_main@@YAHPEAU_mp3_context@@PEAFPEBEH@Z|, mp3_decode_main

; Function compile flags: /Odtp
; File C:\Users\paras\source\repos\grep-name\XenevaOS\Process\AudioPlayer\minimp3.cpp

	AREA	|.text$mn|, CODE, ARM64

|?mp_decode_layer3@@YAHPEAU_mp3_context@@@Z| PROC	; mp_decode_layer3

; 2123 : 	static int mp_decode_layer3(mp3_context_t *s) {

	str         x19,[sp,#-0x10]!
	stp         fp,lr,[sp,#-0xC0]!
	mov         fp,sp
	str         x0,[sp,#0x20]

; 2124 : 		int nb_granules, main_data_begin, private_bits;
; 2125 : 		int gr, ch, blocksplit_flag, i, j, k, n, bits_pos;
; 2126 : 		granule_t *g;
; 2127 : 		static granule_t granules[2][2];
; 2128 : 		static int16_t exponents[576];
; 2129 : 		const uint8_t *ptr;
; 2130 : 
; 2131 : 		if (s->lsf) {

	ldr         x8,[sp,#0x20]
	add         x8,x8,#0x474
	ldr         w8,[x8]
	cmp         w8,#0
	beq         |$LN59@mp_decode_|

; 2132 : 			main_data_begin = get_bits(&s->gb, 8);

	ldr         x8,[sp,#0x20]
	add         x0,x8,#0x438
	mov         w1,#8
	bl          |?get_bits@@YAIPEAU_bitstream@@H@Z|
	mov         w0,w0
	str         w0,[sp,#0x40]

; 2133 : 			private_bits = get_bits(&s->gb, s->nb_channels);

	ldr         x8,[sp,#0x20]
	add         x9,x8,#0x468
	ldr         x8,[sp,#0x20]
	add         x0,x8,#0x438
	ldr         w1,[x9]
	bl          |?get_bits@@YAIPEAU_bitstream@@H@Z|
	mov         w0,w0
	str         w0,[sp,#0x54]

; 2134 : 			nb_granules = 1;

	mov         w8,#1
	str         w8,[sp,#0x44]

; 2135 : 		}

	b           |$LN60@mp_decode_|
|$LN59@mp_decode_|

; 2136 : 		else {
; 2137 : 			main_data_begin = get_bits(&s->gb, 9);

	ldr         x8,[sp,#0x20]
	add         x0,x8,#0x438
	mov         w1,#9
	bl          |?get_bits@@YAIPEAU_bitstream@@H@Z|
	mov         w0,w0
	str         w0,[sp,#0x40]

; 2138 : 			if (s->nb_channels == 2)

	ldr         x8,[sp,#0x20]
	add         x8,x8,#0x468
	ldr         w8,[x8]
	cmp         w8,#2
	bne         |$LN61@mp_decode_|

; 2139 : 				private_bits = get_bits(&s->gb, 3);

	ldr         x8,[sp,#0x20]
	add         x0,x8,#0x438
	mov         w1,#3
	bl          |?get_bits@@YAIPEAU_bitstream@@H@Z|
	mov         w0,w0
	str         w0,[sp,#0x54]
	b           |$LN62@mp_decode_|
|$LN61@mp_decode_|

; 2140 : 			else
; 2141 : 				private_bits = get_bits(&s->gb, 5);

	ldr         x8,[sp,#0x20]
	add         x0,x8,#0x438
	mov         w1,#5
	bl          |?get_bits@@YAIPEAU_bitstream@@H@Z|
	mov         w0,w0
	str         w0,[sp,#0x54]
|$LN62@mp_decode_|

; 2142 : 			nb_granules = 2;

	mov         w8,#2
	str         w8,[sp,#0x44]

; 2143 : 			for (ch = 0; ch<s->nb_channels; ch++) {

	mov         w8,#0
	str         w8,[sp,#0x28]
	b           |$LN4@mp_decode_|
|$LN2@mp_decode_|
	ldr         w8,[sp,#0x28]
	add         w8,w8,#1
	str         w8,[sp,#0x28]
|$LN4@mp_decode_|
	ldr         x8,[sp,#0x20]
	add         x8,x8,#0x468
	ldr         w9,[x8]
	ldr         w8,[sp,#0x28]
	cmp         w8,w9
	bge         |$LN3@mp_decode_|

; 2144 : 				granules[ch][0].scfsi = 0; /* all scale factors are transmitted */

	ldr         w8,[sp,#0x28]
	sxtw        x9,w8
	mov         x8,#0x12E8
	mul         x9,x9,x8
	adrp        x8,|?granules@?1??mp_decode_layer3@@YAHPEAU_mp3_context@@@Z@4PAY01U_granule@@A|
	add         x8,x8,PageOffset(|?granules@?1??mp_decode_layer3@@YAHPEAU_mp3_context@@@Z@4PAY01U_granule@@A|)
	add         x9,x8,x9
	mov         w8,#0
	strb        w8,[x9]

; 2145 : 				granules[ch][1].scfsi = get_bits(&s->gb, 4);

	ldr         x8,[sp,#0x20]
	add         x0,x8,#0x438
	mov         w1,#4
	bl          |?get_bits@@YAIPEAU_bitstream@@H@Z|
	mov         w0,w0
	uxtb        w10,w0
	ldr         w8,[sp,#0x28]
	sxtw        x9,w8
	mov         x8,#0x12E8
	mul         x9,x9,x8
	adrp        x8,|?granules@?1??mp_decode_layer3@@YAHPEAU_mp3_context@@@Z@4PAY01U_granule@@A|
	add         x8,x8,PageOffset(|?granules@?1??mp_decode_layer3@@YAHPEAU_mp3_context@@@Z@4PAY01U_granule@@A|)
	add         x8,x8,x9
	add         x8,x8,#0x974
	strb        w10,[x8]

; 2146 : 			}

	b           |$LN2@mp_decode_|
|$LN3@mp_decode_|
|$LN60@mp_decode_|

; 2147 : 		}
; 2148 : 
; 2149 : 		for (gr = 0; gr<nb_granules; gr++) {

	mov         w8,#0
	str         w8,[sp,#0x30]
	b           |$LN7@mp_decode_|
|$LN5@mp_decode_|
	ldr         w8,[sp,#0x30]
	add         w8,w8,#1
	str         w8,[sp,#0x30]
|$LN7@mp_decode_|
	ldr         w9,[sp,#0x44]
	ldr         w8,[sp,#0x30]
	cmp         w8,w9
	bge         |$LN6@mp_decode_|

; 2150 : 			for (ch = 0; ch<s->nb_channels; ch++) {

	mov         w8,#0
	str         w8,[sp,#0x28]
	b           |$LN10@mp_decode_|
|$LN8@mp_decode_|
	ldr         w8,[sp,#0x28]
	add         w8,w8,#1
	str         w8,[sp,#0x28]
|$LN10@mp_decode_|
	ldr         x8,[sp,#0x20]
	add         x8,x8,#0x468
	ldr         w9,[x8]
	ldr         w8,[sp,#0x28]
	cmp         w8,w9
	bge         |$LN9@mp_decode_|

; 2151 : 				g = &granules[ch][gr];

	ldr         w8,[sp,#0x28]
	sxtw        x9,w8
	mov         x8,#0x12E8
	mul         x9,x9,x8
	adrp        x8,|?granules@?1??mp_decode_layer3@@YAHPEAU_mp3_context@@@Z@4PAY01U_granule@@A|
	add         x8,x8,PageOffset(|?granules@?1??mp_decode_layer3@@YAHPEAU_mp3_context@@@Z@4PAY01U_granule@@A|)
	add         x10,x8,x9
	ldr         w8,[sp,#0x30]
	sxtw        x9,w8
	mov         x8,#0x974
	mul         x8,x9,x8
	add         x8,x10,x8
	str         x8,[sp,#0x18]

; 2152 : 				g->part2_3_length = get_bits(&s->gb, 12);

	ldr         x8,[sp,#0x20]
	add         x0,x8,#0x438
	mov         w1,#0xC
	bl          |?get_bits@@YAIPEAU_bitstream@@H@Z|
	mov         w0,w0
	ldr         x8,[sp,#0x18]
	add         x8,x8,#4
	str         w0,[x8]

; 2153 : 				g->big_values = get_bits(&s->gb, 9);

	ldr         x8,[sp,#0x20]
	add         x0,x8,#0x438
	mov         w1,#9
	bl          |?get_bits@@YAIPEAU_bitstream@@H@Z|
	mov         w0,w0
	ldr         x8,[sp,#0x18]
	add         x8,x8,#8
	str         w0,[x8]

; 2154 : 				g->global_gain = get_bits(&s->gb, 8);

	ldr         x8,[sp,#0x20]
	add         x0,x8,#0x438
	mov         w1,#8
	bl          |?get_bits@@YAIPEAU_bitstream@@H@Z|
	mov         w0,w0
	ldr         x8,[sp,#0x18]
	add         x8,x8,#0xC
	str         w0,[x8]

; 2155 : 				/* if MS stereo only is selected, we precompute the
; 2156 : 				1/sqrt(2) renormalization factor */
; 2157 : 				if ((s->mode_ext & (MODE_EXT_MS_STEREO | MODE_EXT_I_STEREO)) ==

	ldr         x8,[sp,#0x20]
	add         x8,x8,#0x470
	ldr         w8,[x8]
	and         w8,w8,#3
	cmp         w8,#2
	bne         |$LN63@mp_decode_|

; 2158 : 					MODE_EXT_MS_STEREO)
; 2159 : 					g->global_gain -= 2;

	ldr         x8,[sp,#0x18]
	add         x8,x8,#0xC
	ldr         w8,[x8]
	sub         w9,w8,#2
	ldr         x8,[sp,#0x18]
	add         x8,x8,#0xC
	str         w9,[x8]
|$LN63@mp_decode_|

; 2160 : 				if (s->lsf)

	ldr         x8,[sp,#0x20]
	add         x8,x8,#0x474
	ldr         w8,[x8]
	cmp         w8,#0
	beq         |$LN64@mp_decode_|

; 2161 : 					g->scalefac_compress = get_bits(&s->gb, 9);

	ldr         x8,[sp,#0x20]
	add         x0,x8,#0x438
	mov         w1,#9
	bl          |?get_bits@@YAIPEAU_bitstream@@H@Z|
	mov         w0,w0
	ldr         x8,[sp,#0x18]
	add         x8,x8,#0x10
	str         w0,[x8]
	b           |$LN65@mp_decode_|
|$LN64@mp_decode_|

; 2162 : 				else
; 2163 : 					g->scalefac_compress = get_bits(&s->gb, 4);

	ldr         x8,[sp,#0x20]
	add         x0,x8,#0x438
	mov         w1,#4
	bl          |?get_bits@@YAIPEAU_bitstream@@H@Z|
	mov         w0,w0
	ldr         x8,[sp,#0x18]
	add         x8,x8,#0x10
	str         w0,[x8]
|$LN65@mp_decode_|

; 2164 : 				blocksplit_flag = get_bits(&s->gb, 1);

	ldr         x8,[sp,#0x20]
	add         x0,x8,#0x438
	mov         w1,#1
	bl          |?get_bits@@YAIPEAU_bitstream@@H@Z|
	mov         w0,w0
	str         w0,[sp,#0x7C]

; 2165 : 				if (blocksplit_flag) {

	ldr         w8,[sp,#0x7C]
	cmp         w8,#0
	beq         |$LN66@mp_decode_|

; 2166 : 					g->block_type = get_bits(&s->gb, 2);

	ldr         x8,[sp,#0x20]
	add         x0,x8,#0x438
	mov         w1,#2
	bl          |?get_bits@@YAIPEAU_bitstream@@H@Z|
	mov         w0,w0
	uxtb        w9,w0
	ldr         x8,[sp,#0x18]
	add         x8,x8,#0x14
	strb        w9,[x8]

; 2167 : 					if (g->block_type == 0)

	ldr         x8,[sp,#0x18]
	add         x8,x8,#0x14
	ldrb        w8,[x8]
	mov         w8,w8
	cmp         w8,#0
	bne         |$LN68@mp_decode_|

; 2168 : 						return -1;

	mov         w0,#-1
	b           |$LN1@mp_decode_|
|$LN68@mp_decode_|

; 2169 : 					g->switch_point = get_bits(&s->gb, 1);

	ldr         x8,[sp,#0x20]
	add         x0,x8,#0x438
	mov         w1,#1
	bl          |?get_bits@@YAIPEAU_bitstream@@H@Z|
	mov         w0,w0
	uxtb        w9,w0
	ldr         x8,[sp,#0x18]
	add         x8,x8,#0x15
	strb        w9,[x8]

; 2170 : 					for (i = 0; i<2; i++)

	mov         w8,#0
	str         w8,[sp,#0x10]
	b           |$LN13@mp_decode_|
|$LN11@mp_decode_|
	ldr         w8,[sp,#0x10]
	add         w8,w8,#1
	str         w8,[sp,#0x10]
|$LN13@mp_decode_|
	ldr         w8,[sp,#0x10]
	cmp         w8,#2
	bge         |$LN12@mp_decode_|

; 2171 : 						g->table_select[i] = get_bits(&s->gb, 5);

	ldr         x8,[sp,#0x20]
	add         x0,x8,#0x438
	mov         w1,#5
	bl          |?get_bits@@YAIPEAU_bitstream@@H@Z|
	mov         w0,w0
	ldr         x8,[sp,#0x18]
	add         x10,x8,#0x18
	ldr         w8,[sp,#0x10]
	sxtw        x9,w8
	mov         x8,#4
	mul         x8,x9,x8
	add         x8,x10,x8
	str         w0,[x8]
	b           |$LN11@mp_decode_|
|$LN12@mp_decode_|

; 2172 : 					for (i = 0; i<3; i++)

	mov         w8,#0
	str         w8,[sp,#0x10]
	b           |$LN16@mp_decode_|
|$LN14@mp_decode_|
	ldr         w8,[sp,#0x10]
	add         w8,w8,#1
	str         w8,[sp,#0x10]
|$LN16@mp_decode_|
	ldr         w8,[sp,#0x10]
	cmp         w8,#3
	bge         |$LN15@mp_decode_|

; 2173 : 						g->subblock_gain[i] = get_bits(&s->gb, 3);

	ldr         x8,[sp,#0x20]
	add         x0,x8,#0x438
	mov         w1,#3
	bl          |?get_bits@@YAIPEAU_bitstream@@H@Z|
	mov         w0,w0
	ldr         x8,[sp,#0x18]
	add         x10,x8,#0x24
	ldr         w8,[sp,#0x10]
	sxtw        x9,w8
	mov         x8,#4
	mul         x8,x9,x8
	add         x8,x10,x8
	str         w0,[x8]
	b           |$LN14@mp_decode_|
|$LN15@mp_decode_|

; 2174 : 					/* compute huffman coded region sizes */
; 2175 : 					if (g->block_type == 2)

	ldr         x8,[sp,#0x18]
	add         x8,x8,#0x14
	ldrb        w8,[x8]
	mov         w8,w8
	cmp         w8,#2
	bne         |$LN69@mp_decode_|

; 2176 : 						g->region_size[0] = (36 / 2);

	ldr         x8,[sp,#0x18]
	add         x9,x8,#0x34
	mov         w8,#0x12
	str         w8,[x9]
	b           |$LN70@mp_decode_|
|$LN69@mp_decode_|

; 2177 : 					else {
; 2178 : 						if (s->sample_rate_index <= 2)

	ldr         x8,[sp,#0x20]
	add         x8,x8,#0x42C
	ldr         w8,[x8]
	cmp         w8,#2
	bgt         |$LN71@mp_decode_|

; 2179 : 							g->region_size[0] = (36 / 2);

	ldr         x8,[sp,#0x18]
	add         x9,x8,#0x34
	mov         w8,#0x12
	str         w8,[x9]
	b           |$LN72@mp_decode_|
|$LN71@mp_decode_|

; 2180 : 						else if (s->sample_rate_index != 8)

	ldr         x8,[sp,#0x20]
	add         x8,x8,#0x42C
	ldr         w8,[x8]
	cmp         w8,#8
	beq         |$LN73@mp_decode_|

; 2181 : 							g->region_size[0] = (54 / 2);

	ldr         x8,[sp,#0x18]
	add         x9,x8,#0x34
	mov         w8,#0x1B
	str         w8,[x9]
	b           |$LN74@mp_decode_|
|$LN73@mp_decode_|

; 2182 : 						else
; 2183 : 							g->region_size[0] = (108 / 2);

	ldr         x8,[sp,#0x18]
	add         x9,x8,#0x34
	mov         w8,#0x36
	str         w8,[x9]
|$LN74@mp_decode_|
|$LN72@mp_decode_|
|$LN70@mp_decode_|

; 2184 : 					}
; 2185 : 					g->region_size[1] = (576 / 2);

	ldr         x8,[sp,#0x18]
	add         x9,x8,#0x38
	mov         w8,#0x120
	str         w8,[x9]

; 2186 : 				}

	b           |$LN67@mp_decode_|
|$LN66@mp_decode_|

; 2187 : 				else {
; 2188 : 					int region_address1, region_address2, l;
; 2189 : 					g->block_type = 0;

	ldr         x8,[sp,#0x18]
	add         x9,x8,#0x14
	mov         w8,#0
	strb        w8,[x9]

; 2190 : 					g->switch_point = 0;

	ldr         x8,[sp,#0x18]
	add         x9,x8,#0x15
	mov         w8,#0
	strb        w8,[x9]

; 2191 : 					for (i = 0; i<3; i++)

	mov         w8,#0
	str         w8,[sp,#0x10]
	b           |$LN19@mp_decode_|
|$LN17@mp_decode_|
	ldr         w8,[sp,#0x10]
	add         w8,w8,#1
	str         w8,[sp,#0x10]
|$LN19@mp_decode_|
	ldr         w8,[sp,#0x10]
	cmp         w8,#3
	bge         |$LN18@mp_decode_|

; 2192 : 						g->table_select[i] = get_bits(&s->gb, 5);

	ldr         x8,[sp,#0x20]
	add         x0,x8,#0x438
	mov         w1,#5
	bl          |?get_bits@@YAIPEAU_bitstream@@H@Z|
	mov         w0,w0
	ldr         x8,[sp,#0x18]
	add         x10,x8,#0x18
	ldr         w8,[sp,#0x10]
	sxtw        x9,w8
	mov         x8,#4
	mul         x8,x9,x8
	add         x8,x10,x8
	str         w0,[x8]
	b           |$LN17@mp_decode_|
|$LN18@mp_decode_|

; 2193 : 					/* compute huffman coded region sizes */
; 2194 : 					region_address1 = get_bits(&s->gb, 4);

	ldr         x8,[sp,#0x20]
	add         x0,x8,#0x438
	mov         w1,#4
	bl          |?get_bits@@YAIPEAU_bitstream@@H@Z|
	mov         w0,w0
	str         w0,[sp,#0x58]

; 2195 : 					region_address2 = get_bits(&s->gb, 3);

	ldr         x8,[sp,#0x20]
	add         x0,x8,#0x438
	mov         w1,#3
	bl          |?get_bits@@YAIPEAU_bitstream@@H@Z|
	mov         w0,w0
	str         w0,[sp,#0x80]

; 2196 : 					g->region_size[0] =

	ldr         x8,[sp,#0x20]
	add         x8,x8,#0x42C
	ldr         w8,[x8]
	sxtw        x9,w8
	mov         x8,#0x2E
	mul         x9,x9,x8
	adrp        x8,|?band_index_long@@3PAY0BH@GA|
	add         x8,x8,PageOffset(|?band_index_long@@3PAY0BH@GA|)
	add         x10,x8,x9
	ldr         w8,[sp,#0x58]
	add         w8,w8,#1
	sxtw        x9,w8
	mov         x8,#2
	mul         x8,x9,x8
	add         x8,x10,x8
	ldrh        w8,[x8]
	mov         w8,w8
	asr         w9,w8,#1
	ldr         x8,[sp,#0x18]
	add         x8,x8,#0x34
	str         w9,[x8]

; 2197 : 						band_index_long[s->sample_rate_index][region_address1 + 1] >> 1;
; 2198 : 					l = region_address1 + region_address2 + 2;

	ldr         w9,[sp,#0x58]
	ldr         w8,[sp,#0x80]
	add         w8,w9,w8
	add         w8,w8,#2
	str         w8,[sp,#0x48]

; 2199 : 					/* should not overflow */
; 2200 : 					if (l > 22)

	ldr         w8,[sp,#0x48]
	cmp         w8,#0x16
	ble         |$LN75@mp_decode_|

; 2201 : 						l = 22;

	mov         w8,#0x16
	str         w8,[sp,#0x48]
|$LN75@mp_decode_|

; 2202 : 					g->region_size[1] =

	ldr         x8,[sp,#0x20]
	add         x8,x8,#0x42C
	ldr         w8,[x8]
	sxtw        x9,w8
	mov         x8,#0x2E
	mul         x9,x9,x8
	adrp        x8,|?band_index_long@@3PAY0BH@GA|
	add         x8,x8,PageOffset(|?band_index_long@@3PAY0BH@GA|)
	add         x10,x8,x9
	ldr         w8,[sp,#0x48]
	sxtw        x9,w8
	mov         x8,#2
	mul         x8,x9,x8
	add         x8,x10,x8
	ldrh        w8,[x8]
	mov         w8,w8
	asr         w9,w8,#1
	ldr         x8,[sp,#0x18]
	add         x8,x8,#0x38
	str         w9,[x8]
|$LN67@mp_decode_|

; 2203 : 						band_index_long[s->sample_rate_index][l] >> 1;
; 2204 : 				}
; 2205 : 				/* convert region offsets to region sizes and truncate
; 2206 : 				size to big_values */
; 2207 : 				g->region_size[2] = (576 / 2);

	ldr         x8,[sp,#0x18]
	add         x9,x8,#0x3C
	mov         w8,#0x120
	str         w8,[x9]

; 2208 : 				j = 0;

	mov         w8,#0
	str         w8,[sp,#0x14]

; 2209 : 				for (i = 0; i<3; i++) {

	mov         w8,#0
	str         w8,[sp,#0x10]
	b           |$LN22@mp_decode_|
|$LN20@mp_decode_|
	ldr         w8,[sp,#0x10]
	add         w8,w8,#1
	str         w8,[sp,#0x10]
|$LN22@mp_decode_|
	ldr         w8,[sp,#0x10]
	cmp         w8,#3
	bge         |$LN21@mp_decode_|

; 2210 : 					k = g->region_size[i];

	ldr         x8,[sp,#0x18]
	add         x10,x8,#0x34
	ldr         w8,[sp,#0x10]
	sxtw        x9,w8
	mov         x8,#4
	mul         x8,x9,x8
	add         x8,x10,x8
	ldr         w8,[x8]
	str         w8,[sp,#0x2C]

; 2211 : 					if (g->big_values < k) k = g->big_values;

	ldr         x8,[sp,#0x18]
	add         x8,x8,#8
	ldr         w9,[sp,#0x2C]
	ldr         w8,[x8]
	cmp         w8,w9
	bge         |$LN76@mp_decode_|
	ldr         x8,[sp,#0x18]
	add         x8,x8,#8
	ldr         w8,[x8]
	str         w8,[sp,#0x2C]
|$LN76@mp_decode_|

; 2212 : 					g->region_size[i] = k - j;

	ldr         w9,[sp,#0x2C]
	ldr         w8,[sp,#0x14]
	sub         w11,w9,w8
	ldr         x8,[sp,#0x18]
	add         x10,x8,#0x34
	ldr         w8,[sp,#0x10]
	sxtw        x9,w8
	mov         x8,#4
	mul         x8,x9,x8
	add         x8,x10,x8
	str         w11,[x8]

; 2213 : 					j = k;

	ldr         w8,[sp,#0x2C]
	str         w8,[sp,#0x14]

; 2214 : 				}

	b           |$LN20@mp_decode_|
|$LN21@mp_decode_|

; 2215 : 
; 2216 : 				/* compute band indexes */
; 2217 : 				if (g->block_type == 2) {

	ldr         x8,[sp,#0x18]
	add         x8,x8,#0x14
	ldrb        w8,[x8]
	mov         w8,w8
	cmp         w8,#2
	bne         |$LN77@mp_decode_|

; 2218 : 					if (g->switch_point) {

	ldr         x8,[sp,#0x18]
	add         x8,x8,#0x15
	ldrb        w8,[x8]
	mov         w8,w8
	cmp         w8,#0
	beq         |$LN79@mp_decode_|

; 2219 : 						/* if switched mode, we handle the 36 first samples as
; 2220 : 						long blocks.  For 8000Hz, we handle the 48 first
; 2221 : 						exponents as long blocks (XXX: check this!) */
; 2222 : 						if (s->sample_rate_index <= 2)

	ldr         x8,[sp,#0x20]
	add         x8,x8,#0x42C
	ldr         w8,[x8]
	cmp         w8,#2
	bgt         |$LN81@mp_decode_|

; 2223 : 							g->long_end = 8;

	ldr         x8,[sp,#0x18]
	add         x9,x8,#0x48
	mov         w8,#8
	str         w8,[x9]
	b           |$LN82@mp_decode_|
|$LN81@mp_decode_|

; 2224 : 						else if (s->sample_rate_index != 8)

	ldr         x8,[sp,#0x20]
	add         x8,x8,#0x42C
	ldr         w8,[x8]
	cmp         w8,#8
	beq         |$LN83@mp_decode_|

; 2225 : 							g->long_end = 6;

	ldr         x8,[sp,#0x18]
	add         x9,x8,#0x48
	mov         w8,#6
	str         w8,[x9]
	b           |$LN84@mp_decode_|
|$LN83@mp_decode_|

; 2226 : 						else
; 2227 : 							g->long_end = 4; /* 8000 Hz */

	ldr         x8,[sp,#0x18]
	add         x9,x8,#0x48
	mov         w8,#4
	str         w8,[x9]
|$LN84@mp_decode_|
|$LN82@mp_decode_|

; 2228 : 
; 2229 : 						g->short_start = 2 + (s->sample_rate_index != 8);

	ldr         x8,[sp,#0x20]
	add         x8,x8,#0x42C
	ldr         w8,[x8]
	cmp         w8,#8
	beq         |$LN116@mp_decode_|
	mov         w8,#1
	str         w8,[sp,#0x5C]
	b           |$LN117@mp_decode_|
|$LN116@mp_decode_|
	mov         w8,#0
	str         w8,[sp,#0x5C]
|$LN117@mp_decode_|
	ldr         w8,[sp,#0x5C]
	add         w9,w8,#2
	ldr         x8,[sp,#0x18]
	add         x8,x8,#0x44
	str         w9,[x8]

; 2230 : 					}

	b           |$LN80@mp_decode_|
|$LN79@mp_decode_|

; 2231 : 					else {
; 2232 : 						g->long_end = 0;

	ldr         x8,[sp,#0x18]
	add         x9,x8,#0x48
	mov         w8,#0
	str         w8,[x9]

; 2233 : 						g->short_start = 0;

	ldr         x8,[sp,#0x18]
	add         x9,x8,#0x44
	mov         w8,#0
	str         w8,[x9]
|$LN80@mp_decode_|

; 2234 : 					}
; 2235 : 				}

	b           |$LN78@mp_decode_|
|$LN77@mp_decode_|

; 2236 : 				else {
; 2237 : 					g->short_start = 13;

	ldr         x8,[sp,#0x18]
	add         x9,x8,#0x44
	mov         w8,#0xD
	str         w8,[x9]

; 2238 : 					g->long_end = 22;

	ldr         x8,[sp,#0x18]
	add         x9,x8,#0x48
	mov         w8,#0x16
	str         w8,[x9]
|$LN78@mp_decode_|

; 2239 : 				}
; 2240 : 
; 2241 : 				g->preflag = 0;

	ldr         x8,[sp,#0x18]
	add         x9,x8,#0x40
	mov         w8,#0
	str         w8,[x9]

; 2242 : 				if (!s->lsf)

	ldr         x8,[sp,#0x20]
	add         x8,x8,#0x474
	ldr         w8,[x8]
	cmp         w8,#0
	bne         |$LN85@mp_decode_|

; 2243 : 					g->preflag = get_bits(&s->gb, 1);

	ldr         x8,[sp,#0x20]
	add         x0,x8,#0x438
	mov         w1,#1
	bl          |?get_bits@@YAIPEAU_bitstream@@H@Z|
	mov         w0,w0
	ldr         x8,[sp,#0x18]
	add         x8,x8,#0x40
	str         w0,[x8]
|$LN85@mp_decode_|

; 2244 : 				g->scalefac_scale = get_bits(&s->gb, 1);

	ldr         x8,[sp,#0x20]
	add         x0,x8,#0x438
	mov         w1,#1
	bl          |?get_bits@@YAIPEAU_bitstream@@H@Z|
	mov         w0,w0
	uxtb        w9,w0
	ldr         x8,[sp,#0x18]
	add         x8,x8,#0x30
	strb        w9,[x8]

; 2245 : 				g->count1table_select = get_bits(&s->gb, 1);

	ldr         x8,[sp,#0x20]
	add         x0,x8,#0x438
	mov         w1,#1
	bl          |?get_bits@@YAIPEAU_bitstream@@H@Z|
	mov         w0,w0
	uxtb        w9,w0
	ldr         x8,[sp,#0x18]
	add         x8,x8,#0x31
	strb        w9,[x8]

; 2246 : 			}

	b           |$LN8@mp_decode_|
|$LN9@mp_decode_|

; 2247 : 		}

	b           |$LN5@mp_decode_|
|$LN6@mp_decode_|

; 2248 : 
; 2249 : 		ptr = s->gb.buffer + (get_bits_count(&s->gb) >> 3);

	ldr         x8,[sp,#0x20]
	add         x19,x8,#0x438
	ldr         x8,[sp,#0x20]
	add         x0,x8,#0x438
	bl          |?get_bits_count@@YAHPEAU_bitstream@@@Z|
	mov         w0,w0
	asr         w8,w0,#3
	sxtw        x9,w8
	ldr         x8,[x19]
	add         x8,x8,x9
	str         x8,[sp,#0x98]

; 2250 : 		/* now we get bits from the main_data_begin offset */
; 2251 : 		if (main_data_begin > s->last_buf_size){

	ldr         x8,[sp,#0x20]
	add         x8,x8,#0x418
	ldr         w9,[x8]
	ldr         w8,[sp,#0x40]
	cmp         w8,w9
	ble         |$LN86@mp_decode_|

; 2252 : 			s->last_buf_size = main_data_begin;

	ldr         x8,[sp,#0x20]
	add         x9,x8,#0x418
	ldr         w8,[sp,#0x40]
	str         w8,[x9]
|$LN86@mp_decode_|

; 2253 : 		}
; 2254 : 
; 2255 : 		memcpy(s->last_buf + s->last_buf_size, (void*)ptr, EXTRABYTES);

	ldr         x9,[sp,#0x20]
	ldr         x8,[sp,#0x20]
	add         x8,x8,#0x418
	ldr         w8,[x8]
	sxtw        x8,w8
	add         x0,x9,x8
	mov         x2,#0x18
	ldr         x1,[sp,#0x98]
	bl          memcpy

; 2256 : 		s->in_gb = s->gb;

	ldr         x8,[sp,#0x20]
	add         x10,x8,#0x438
	add         x11,sp,#0xA8
	ldp         x9,x8,[x10]
	stp         x9,x8,[x11]
	ldr         x8,[x10,#0x10]
	str         x8,[x11,#0x10]
	ldr         x8,[sp,#0x20]
	add         x11,x8,#0x450
	add         x10,sp,#0xA8
	ldp         x9,x8,[x10]
	stp         x9,x8,[x11]
	ldr         x8,[x10,#0x10]
	str         x8,[x11,#0x10]

; 2257 : 		init_get_bits(&s->gb, s->last_buf + s->last_buf_size - main_data_begin, main_data_begin * 8);

	ldr         w9,[sp,#0x40]
	mov         w8,#8
	mul         w2,w9,w8
	ldr         x9,[sp,#0x20]
	ldr         x8,[sp,#0x20]
	add         x8,x8,#0x418
	ldr         w8,[x8]
	sxtw        x8,w8
	add         x9,x9,x8
	ldr         w8,[sp,#0x40]
	sxtw        x8,w8
	sub         x1,x9,x8
	ldr         x8,[sp,#0x20]
	add         x0,x8,#0x438
	mov         w2,w2
	bl          |?init_get_bits@@YAXPEAU_bitstream@@PEBEH@Z|

; 2258 : 
; 2259 : 		for (gr = 0; gr<nb_granules; gr++) {

	mov         w8,#0
	str         w8,[sp,#0x30]
	b           |$LN25@mp_decode_|
|$LN23@mp_decode_|
	ldr         w8,[sp,#0x30]
	add         w8,w8,#1
	str         w8,[sp,#0x30]
|$LN25@mp_decode_|
	ldr         w9,[sp,#0x44]
	ldr         w8,[sp,#0x30]
	cmp         w8,w9
	bge         |$LN24@mp_decode_|

; 2260 : 			for (ch = 0; ch<s->nb_channels; ch++) {

	mov         w8,#0
	str         w8,[sp,#0x28]
	b           |$LN28@mp_decode_|
|$LN26@mp_decode_|
	ldr         w8,[sp,#0x28]
	add         w8,w8,#1
	str         w8,[sp,#0x28]
|$LN28@mp_decode_|
	ldr         x8,[sp,#0x20]
	add         x8,x8,#0x468
	ldr         w9,[x8]
	ldr         w8,[sp,#0x28]
	cmp         w8,w9
	bge         |$LN27@mp_decode_|

; 2261 : 				g = &granules[ch][gr];

	ldr         w8,[sp,#0x28]
	sxtw        x9,w8
	mov         x8,#0x12E8
	mul         x9,x9,x8
	adrp        x8,|?granules@?1??mp_decode_layer3@@YAHPEAU_mp3_context@@@Z@4PAY01U_granule@@A|
	add         x8,x8,PageOffset(|?granules@?1??mp_decode_layer3@@YAHPEAU_mp3_context@@@Z@4PAY01U_granule@@A|)
	add         x10,x8,x9
	ldr         w8,[sp,#0x30]
	sxtw        x9,w8
	mov         x8,#0x974
	mul         x8,x9,x8
	add         x8,x10,x8
	str         x8,[sp,#0x18]

; 2262 : 
; 2263 : 				bits_pos = get_bits_count(&s->gb);

	ldr         x8,[sp,#0x20]
	add         x0,x8,#0x438
	bl          |?get_bits_count@@YAHPEAU_bitstream@@@Z|
	mov         w0,w0
	str         w0,[sp,#0x84]

; 2264 : 
; 2265 : 				if (!s->lsf) {

	ldr         x8,[sp,#0x20]
	add         x8,x8,#0x474
	ldr         w8,[x8]
	cmp         w8,#0
	bne         |$LN87@mp_decode_|

; 2266 : 					uint8_t *sc;
; 2267 : 					int slen, slen1, slen2;
; 2268 : 
; 2269 : 					/* MPEG1 scale factors */
; 2270 : 					slen1 = slen_table[0][g->scalefac_compress];

	ldr         x8,[sp,#0x18]
	add         x8,x8,#0x10
	ldr         w8,[x8]
	sxtw        x9,w8
	mov         x8,#1
	mul         x9,x9,x8
	adrp        x8,|?slen_table@@3QAY0BA@$$CBEA|
	add         x8,x8,PageOffset(|?slen_table@@3QAY0BA@$$CBEA|)
	add         x8,x8,x9
	ldrb        w8,[x8]
	mov         w8,w8
	str         w8,[sp,#0x4C]

; 2271 : 					slen2 = slen_table[1][g->scalefac_compress];

	adrp        x8,|?slen_table@@3QAY0BA@$$CBEA|
	add         x8,x8,PageOffset(|?slen_table@@3QAY0BA@$$CBEA|)
	add         x10,x8,#0x10
	ldr         x8,[sp,#0x18]
	add         x8,x8,#0x10
	ldr         w8,[x8]
	sxtw        x9,w8
	mov         x8,#1
	mul         x8,x9,x8
	add         x8,x10,x8
	ldrb        w8,[x8]
	mov         w8,w8
	str         w8,[sp,#0x50]

; 2272 : 					if (g->block_type == 2) {

	ldr         x8,[sp,#0x18]
	add         x8,x8,#0x14
	ldrb        w8,[x8]
	mov         w8,w8
	cmp         w8,#2
	bne         |$LN89@mp_decode_|

; 2273 : 						n = g->switch_point ? 17 : 18;

	ldr         x8,[sp,#0x18]
	add         x8,x8,#0x15
	ldrb        w8,[x8]
	mov         w8,w8
	cmp         w8,#0
	beq         |$LN118@mp_decode_|
	mov         w8,#0x11
	str         w8,[sp,#0x60]
	b           |$LN119@mp_decode_|
|$LN118@mp_decode_|
	mov         w8,#0x12
	str         w8,[sp,#0x60]
|$LN119@mp_decode_|
	ldr         w8,[sp,#0x60]
	str         w8,[sp,#0x38]

; 2274 : 						j = 0;

	mov         w8,#0
	str         w8,[sp,#0x14]

; 2275 : 						if (slen1){

	ldr         w8,[sp,#0x4C]
	cmp         w8,#0
	beq         |$LN91@mp_decode_|

; 2276 : 							for (i = 0; i<n; i++)

	mov         w8,#0
	str         w8,[sp,#0x10]
	b           |$LN31@mp_decode_|
|$LN29@mp_decode_|
	ldr         w8,[sp,#0x10]
	add         w8,w8,#1
	str         w8,[sp,#0x10]
|$LN31@mp_decode_|
	ldr         w9,[sp,#0x38]
	ldr         w8,[sp,#0x10]
	cmp         w8,w9
	bge         |$LN30@mp_decode_|

; 2277 : 								g->scale_factors[j++] = get_bits(&s->gb, slen1);

	ldr         x8,[sp,#0x20]
	add         x0,x8,#0x438
	ldr         w1,[sp,#0x4C]
	bl          |?get_bits@@YAIPEAU_bitstream@@H@Z|
	mov         w0,w0
	uxtb        w11,w0
	ldr         x8,[sp,#0x18]
	add         x10,x8,#0x4C
	ldr         w8,[sp,#0x14]
	sxtw        x9,w8
	mov         x8,#1
	mul         x8,x9,x8
	add         x8,x10,x8
	strb        w11,[x8]
	ldr         w8,[sp,#0x14]
	add         w8,w8,#1
	str         w8,[sp,#0x14]
	b           |$LN29@mp_decode_|
|$LN30@mp_decode_|

; 2278 : 						}

	b           |$LN92@mp_decode_|
|$LN91@mp_decode_|

; 2279 : 						else{
; 2280 : 							libc_memset((void*)&g->scale_factors[j], 0, n);

	ldr         w8,[sp,#0x38]
	sxtw        x2,w8
	ldr         x8,[sp,#0x18]
	add         x10,x8,#0x4C
	ldr         w8,[sp,#0x14]
	sxtw        x9,w8
	mov         x8,#1
	mul         x8,x9,x8
	add         x0,x10,x8
	mov         w1,#0
	bl          memset

; 2281 : 							j += n;

	ldr         w9,[sp,#0x14]
	ldr         w8,[sp,#0x38]
	add         w8,w9,w8
	str         w8,[sp,#0x14]
|$LN92@mp_decode_|

; 2282 : 							//                        for(i=0;i<n;i++)
; 2283 : 							//                            g->scale_factors[j++] = 0;
; 2284 : 						}
; 2285 : 						if (slen2){

	ldr         w8,[sp,#0x50]
	cmp         w8,#0
	beq         |$LN93@mp_decode_|

; 2286 : 							for (i = 0; i<18; i++)

	mov         w8,#0
	str         w8,[sp,#0x10]
	b           |$LN34@mp_decode_|
|$LN32@mp_decode_|
	ldr         w8,[sp,#0x10]
	add         w8,w8,#1
	str         w8,[sp,#0x10]
|$LN34@mp_decode_|
	ldr         w8,[sp,#0x10]
	cmp         w8,#0x12
	bge         |$LN33@mp_decode_|

; 2287 : 								g->scale_factors[j++] = get_bits(&s->gb, slen2);

	ldr         x8,[sp,#0x20]
	add         x0,x8,#0x438
	ldr         w1,[sp,#0x50]
	bl          |?get_bits@@YAIPEAU_bitstream@@H@Z|
	mov         w0,w0
	uxtb        w11,w0
	ldr         x8,[sp,#0x18]
	add         x10,x8,#0x4C
	ldr         w8,[sp,#0x14]
	sxtw        x9,w8
	mov         x8,#1
	mul         x8,x9,x8
	add         x8,x10,x8
	strb        w11,[x8]
	ldr         w8,[sp,#0x14]
	add         w8,w8,#1
	str         w8,[sp,#0x14]
	b           |$LN32@mp_decode_|
|$LN33@mp_decode_|

; 2288 : 							for (i = 0; i<3; i++)

	mov         w8,#0
	str         w8,[sp,#0x10]
	b           |$LN37@mp_decode_|
|$LN35@mp_decode_|
	ldr         w8,[sp,#0x10]
	add         w8,w8,#1
	str         w8,[sp,#0x10]
|$LN37@mp_decode_|
	ldr         w8,[sp,#0x10]
	cmp         w8,#3
	bge         |$LN36@mp_decode_|

; 2289 : 								g->scale_factors[j++] = 0;

	ldr         x8,[sp,#0x18]
	add         x10,x8,#0x4C
	ldr         w8,[sp,#0x14]
	sxtw        x9,w8
	mov         x8,#1
	mul         x8,x9,x8
	add         x9,x10,x8
	mov         w8,#0
	strb        w8,[x9]
	ldr         w8,[sp,#0x14]
	add         w8,w8,#1
	str         w8,[sp,#0x14]
	b           |$LN35@mp_decode_|
|$LN36@mp_decode_|

; 2290 : 						}

	b           |$LN94@mp_decode_|
|$LN93@mp_decode_|

; 2291 : 						else{
; 2292 : 							for (i = 0; i<21; i++)

	mov         w8,#0
	str         w8,[sp,#0x10]
	b           |$LN40@mp_decode_|
|$LN38@mp_decode_|
	ldr         w8,[sp,#0x10]
	add         w8,w8,#1
	str         w8,[sp,#0x10]
|$LN40@mp_decode_|
	ldr         w8,[sp,#0x10]
	cmp         w8,#0x15
	bge         |$LN39@mp_decode_|

; 2293 : 								g->scale_factors[j++] = 0;

	ldr         x8,[sp,#0x18]
	add         x10,x8,#0x4C
	ldr         w8,[sp,#0x14]
	sxtw        x9,w8
	mov         x8,#1
	mul         x8,x9,x8
	add         x9,x10,x8
	mov         w8,#0
	strb        w8,[x9]
	ldr         w8,[sp,#0x14]
	add         w8,w8,#1
	str         w8,[sp,#0x14]
	b           |$LN38@mp_decode_|
|$LN39@mp_decode_|
|$LN94@mp_decode_|

; 2294 : 						}
; 2295 : 					}

	b           |$LN90@mp_decode_|
|$LN89@mp_decode_|

; 2296 : 					else {
; 2297 : 						sc = granules[ch][0].scale_factors;

	ldr         w8,[sp,#0x28]
	sxtw        x9,w8
	mov         x8,#0x12E8
	mul         x9,x9,x8
	adrp        x8,|?granules@?1??mp_decode_layer3@@YAHPEAU_mp3_context@@@Z@4PAY01U_granule@@A|
	add         x8,x8,PageOffset(|?granules@?1??mp_decode_layer3@@YAHPEAU_mp3_context@@@Z@4PAY01U_granule@@A|)
	add         x8,x8,x9
	add         x8,x8,#0x4C
	str         x8,[sp,#0xA0]

; 2298 : 						j = 0;

	mov         w8,#0
	str         w8,[sp,#0x14]

; 2299 : 						for (k = 0; k<4; k++) {

	mov         w8,#0
	str         w8,[sp,#0x2C]
	b           |$LN43@mp_decode_|
|$LN41@mp_decode_|
	ldr         w8,[sp,#0x2C]
	add         w8,w8,#1
	str         w8,[sp,#0x2C]
|$LN43@mp_decode_|
	ldr         w8,[sp,#0x2C]
	cmp         w8,#4
	bge         |$LN42@mp_decode_|

; 2300 : 							n = (k == 0 ? 6 : 5);

	ldr         w8,[sp,#0x2C]
	cmp         w8,#0
	bne         |$LN120@mp_decode_|
	mov         w8,#6
	str         w8,[sp,#0x64]
	b           |$LN121@mp_decode_|
|$LN120@mp_decode_|
	mov         w8,#5
	str         w8,[sp,#0x64]
|$LN121@mp_decode_|
	ldr         w8,[sp,#0x64]
	str         w8,[sp,#0x38]

; 2301 : 							if ((g->scfsi & (0x8 >> k)) == 0) {

	ldr         x8,[sp,#0x18]
	ldrb        w10,[x8]
	mov         w10,w10
	mov         w9,#8
	ldr         w8,[sp,#0x2C]
	asr         w8,w9,w8
	and         w8,w10,w8
	cmp         w8,#0
	bne         |$LN95@mp_decode_|

; 2302 : 								slen = (k < 2) ? slen1 : slen2;

	ldr         w8,[sp,#0x2C]
	cmp         w8,#2
	bge         |$LN122@mp_decode_|
	ldr         w8,[sp,#0x4C]
	str         w8,[sp,#0x68]
	b           |$LN123@mp_decode_|
|$LN122@mp_decode_|
	ldr         w8,[sp,#0x50]
	str         w8,[sp,#0x68]
|$LN123@mp_decode_|
	ldr         w8,[sp,#0x68]
	str         w8,[sp,#0x6C]

; 2303 : 								if (slen){

	ldr         w8,[sp,#0x6C]
	cmp         w8,#0
	beq         |$LN97@mp_decode_|

; 2304 : 									for (i = 0; i<n; i++)

	mov         w8,#0
	str         w8,[sp,#0x10]
	b           |$LN46@mp_decode_|
|$LN44@mp_decode_|
	ldr         w8,[sp,#0x10]
	add         w8,w8,#1
	str         w8,[sp,#0x10]
|$LN46@mp_decode_|
	ldr         w9,[sp,#0x38]
	ldr         w8,[sp,#0x10]
	cmp         w8,w9
	bge         |$LN45@mp_decode_|

; 2305 : 										g->scale_factors[j++] = get_bits(&s->gb, slen);

	ldr         x8,[sp,#0x20]
	add         x0,x8,#0x438
	ldr         w1,[sp,#0x6C]
	bl          |?get_bits@@YAIPEAU_bitstream@@H@Z|
	mov         w0,w0
	uxtb        w11,w0
	ldr         x8,[sp,#0x18]
	add         x10,x8,#0x4C
	ldr         w8,[sp,#0x14]
	sxtw        x9,w8
	mov         x8,#1
	mul         x8,x9,x8
	add         x8,x10,x8
	strb        w11,[x8]
	ldr         w8,[sp,#0x14]
	add         w8,w8,#1
	str         w8,[sp,#0x14]
	b           |$LN44@mp_decode_|
|$LN45@mp_decode_|

; 2306 : 								}

	b           |$LN98@mp_decode_|
|$LN97@mp_decode_|

; 2307 : 								else{
; 2308 : 									libc_memset((void*)&g->scale_factors[j], 0, n);

	ldr         w8,[sp,#0x38]
	sxtw        x2,w8
	ldr         x8,[sp,#0x18]
	add         x10,x8,#0x4C
	ldr         w8,[sp,#0x14]
	sxtw        x9,w8
	mov         x8,#1
	mul         x8,x9,x8
	add         x0,x10,x8
	mov         w1,#0
	bl          memset

; 2309 : 									j += n;

	ldr         w9,[sp,#0x14]
	ldr         w8,[sp,#0x38]
	add         w8,w9,w8
	str         w8,[sp,#0x14]
|$LN98@mp_decode_|

; 2310 : 									//                                for(i=0;i<n;i++)
; 2311 : 									//                                    g->scale_factors[j++] = 0;
; 2312 : 								}
; 2313 : 							}

	b           |$LN96@mp_decode_|
|$LN95@mp_decode_|

; 2314 : 							else {
; 2315 : 								/* simply copy from last granule */
; 2316 : 								for (i = 0; i<n; i++) {

	mov         w8,#0
	str         w8,[sp,#0x10]
	b           |$LN49@mp_decode_|
|$LN47@mp_decode_|
	ldr         w8,[sp,#0x10]
	add         w8,w8,#1
	str         w8,[sp,#0x10]
|$LN49@mp_decode_|
	ldr         w9,[sp,#0x38]
	ldr         w8,[sp,#0x10]
	cmp         w8,w9
	bge         |$LN48@mp_decode_|

; 2317 : 									g->scale_factors[j] = sc[j];

	ldr         w8,[sp,#0x14]
	sxtw        x9,w8
	mov         x8,#1
	mul         x9,x9,x8
	ldr         x8,[sp,#0xA0]
	add         x11,x8,x9
	ldr         x8,[sp,#0x18]
	add         x10,x8,#0x4C
	ldr         w8,[sp,#0x14]
	sxtw        x9,w8
	mov         x8,#1
	mul         x8,x9,x8
	add         x9,x10,x8
	ldrb        w8,[x11]
	strb        w8,[x9]

; 2318 : 									j++;

	ldr         w8,[sp,#0x14]
	add         w8,w8,#1
	str         w8,[sp,#0x14]

; 2319 : 								}

	b           |$LN47@mp_decode_|
|$LN48@mp_decode_|
|$LN96@mp_decode_|

; 2320 : 							}
; 2321 : 						}

	b           |$LN41@mp_decode_|
|$LN42@mp_decode_|

; 2322 : 						g->scale_factors[j++] = 0;

	ldr         x8,[sp,#0x18]
	add         x10,x8,#0x4C
	ldr         w8,[sp,#0x14]
	sxtw        x9,w8
	mov         x8,#1
	mul         x8,x9,x8
	add         x9,x10,x8
	mov         w8,#0
	strb        w8,[x9]
	ldr         w8,[sp,#0x14]
	add         w8,w8,#1
	str         w8,[sp,#0x14]
|$LN90@mp_decode_|

; 2323 : 					}
; 2324 : 				}

	b           |$LN88@mp_decode_|
|$LN87@mp_decode_|

; 2325 : 				else {
; 2326 : 					int tindex, tindex2, slen[4], sl, sf;
; 2327 : 
; 2328 : 					/* LSF scale factors */
; 2329 : 					if (g->block_type == 2) {

	ldr         x8,[sp,#0x18]
	add         x8,x8,#0x14
	ldrb        w8,[x8]
	mov         w8,w8
	cmp         w8,#2
	bne         |$LN99@mp_decode_|

; 2330 : 						tindex = g->switch_point ? 2 : 1;

	ldr         x8,[sp,#0x18]
	add         x8,x8,#0x15
	ldrb        w8,[x8]
	mov         w8,w8
	cmp         w8,#0
	beq         |$LN124@mp_decode_|
	mov         w8,#2
	str         w8,[sp,#0x70]
	b           |$LN125@mp_decode_|
|$LN124@mp_decode_|
	mov         w8,#1
	str         w8,[sp,#0x70]
|$LN125@mp_decode_|
	ldr         w8,[sp,#0x70]
	str         w8,[sp,#0x74]

; 2331 : 					}

	b           |$LN100@mp_decode_|
|$LN99@mp_decode_|

; 2332 : 					else {
; 2333 : 						tindex = 0;

	mov         w8,#0
	str         w8,[sp,#0x74]
|$LN100@mp_decode_|

; 2334 : 					}
; 2335 : 					sf = g->scalefac_compress;

	ldr         x8,[sp,#0x18]
	add         x8,x8,#0x10
	ldr         w8,[x8]
	str         w8,[sp,#0x34]

; 2336 : 					if ((s->mode_ext & MODE_EXT_I_STEREO) && ch == 1) {

	ldr         x8,[sp,#0x20]
	add         x8,x8,#0x470
	ldr         w8,[x8]
	tbz         x8,#0,|$LN101@mp_decode_|
	ldr         w8,[sp,#0x28]
	cmp         w8,#1
	bne         |$LN101@mp_decode_|

; 2337 : 						/* intensity stereo case */
; 2338 : 						sf >>= 1;

	ldr         w8,[sp,#0x34]
	asr         w8,w8,#1
	str         w8,[sp,#0x34]

; 2339 : 						if (sf < 180) {

	ldr         w8,[sp,#0x34]
	cmp         w8,#0xB4
	bge         |$LN103@mp_decode_|

; 2340 : 							lsf_sf_expand(slen, sf, 6, 6, 0);

	mov         w4,#0
	mov         w3,#6
	mov         w2,#6
	ldr         w1,[sp,#0x34]
	add         x0,sp,#0x88
	bl          |?lsf_sf_expand@@YAXPEAHHHHH@Z|

; 2341 : 							tindex2 = 3;

	mov         w8,#3
	str         w8,[sp,#0x3C]

; 2342 : 						}

	b           |$LN104@mp_decode_|
|$LN103@mp_decode_|

; 2343 : 						else if (sf < 244) {

	ldr         w8,[sp,#0x34]
	cmp         w8,#0xF4
	bge         |$LN105@mp_decode_|

; 2344 : 							lsf_sf_expand(slen, sf - 180, 4, 4, 0);

	ldr         w8,[sp,#0x34]
	sub         w1,w8,#0xB4
	mov         w4,#0
	mov         w3,#4
	mov         w2,#4
	mov         w1,w1
	add         x0,sp,#0x88
	bl          |?lsf_sf_expand@@YAXPEAHHHHH@Z|

; 2345 : 							tindex2 = 4;

	mov         w8,#4
	str         w8,[sp,#0x3C]

; 2346 : 						}

	b           |$LN106@mp_decode_|
|$LN105@mp_decode_|

; 2347 : 						else {
; 2348 : 							lsf_sf_expand(slen, sf - 244, 3, 0, 0);

	ldr         w8,[sp,#0x34]
	sub         w1,w8,#0xF4
	mov         w4,#0
	mov         w3,#0
	mov         w2,#3
	mov         w1,w1
	add         x0,sp,#0x88
	bl          |?lsf_sf_expand@@YAXPEAHHHHH@Z|

; 2349 : 							tindex2 = 5;

	mov         w8,#5
	str         w8,[sp,#0x3C]
|$LN106@mp_decode_|
|$LN104@mp_decode_|

; 2350 : 						}
; 2351 : 					}

	b           |$LN102@mp_decode_|
|$LN101@mp_decode_|

; 2352 : 					else {
; 2353 : 						/* normal case */
; 2354 : 						if (sf < 400) {

	ldr         w8,[sp,#0x34]
	cmp         w8,#0x190
	bge         |$LN107@mp_decode_|

; 2355 : 							lsf_sf_expand(slen, sf, 5, 4, 4);

	mov         w4,#4
	mov         w3,#4
	mov         w2,#5
	ldr         w1,[sp,#0x34]
	add         x0,sp,#0x88
	bl          |?lsf_sf_expand@@YAXPEAHHHHH@Z|

; 2356 : 							tindex2 = 0;

	mov         w8,#0
	str         w8,[sp,#0x3C]

; 2357 : 						}

	b           |$LN108@mp_decode_|
|$LN107@mp_decode_|

; 2358 : 						else if (sf < 500) {

	ldr         w8,[sp,#0x34]
	cmp         w8,#0x1F4
	bge         |$LN109@mp_decode_|

; 2359 : 							lsf_sf_expand(slen, sf - 400, 5, 4, 0);

	ldr         w8,[sp,#0x34]
	sub         w1,w8,#0x190
	mov         w4,#0
	mov         w3,#4
	mov         w2,#5
	mov         w1,w1
	add         x0,sp,#0x88
	bl          |?lsf_sf_expand@@YAXPEAHHHHH@Z|

; 2360 : 							tindex2 = 1;

	mov         w8,#1
	str         w8,[sp,#0x3C]

; 2361 : 						}

	b           |$LN110@mp_decode_|
|$LN109@mp_decode_|

; 2362 : 						else {
; 2363 : 							lsf_sf_expand(slen, sf - 500, 3, 0, 0);

	ldr         w8,[sp,#0x34]
	sub         w1,w8,#0x1F4
	mov         w4,#0
	mov         w3,#0
	mov         w2,#3
	mov         w1,w1
	add         x0,sp,#0x88
	bl          |?lsf_sf_expand@@YAXPEAHHHHH@Z|

; 2364 : 							tindex2 = 2;

	mov         w8,#2
	str         w8,[sp,#0x3C]

; 2365 : 							g->preflag = 1;

	ldr         x8,[sp,#0x18]
	add         x9,x8,#0x40
	mov         w8,#1
	str         w8,[x9]
|$LN110@mp_decode_|
|$LN108@mp_decode_|
|$LN102@mp_decode_|

; 2366 : 						}
; 2367 : 					}
; 2368 : 
; 2369 : 					j = 0;

	mov         w8,#0
	str         w8,[sp,#0x14]

; 2370 : 					for (k = 0; k<4; k++) {

	mov         w8,#0
	str         w8,[sp,#0x2C]
	b           |$LN52@mp_decode_|
|$LN50@mp_decode_|
	ldr         w8,[sp,#0x2C]
	add         w8,w8,#1
	str         w8,[sp,#0x2C]
|$LN52@mp_decode_|
	ldr         w8,[sp,#0x2C]
	cmp         w8,#4
	bge         |$LN51@mp_decode_|

; 2371 : 						n = lsf_nsf_table[tindex2][tindex][k];

	ldr         w8,[sp,#0x3C]
	sxtw        x9,w8
	mov         x8,#0xC
	mul         x9,x9,x8
	adrp        x8,|?lsf_nsf_table@@3QAY123$$CBEA|
	add         x8,x8,PageOffset(|?lsf_nsf_table@@3QAY123$$CBEA|)
	add         x10,x8,x9
	ldr         w8,[sp,#0x74]
	sxtw        x9,w8
	mov         x8,#4
	mul         x8,x9,x8
	add         x10,x10,x8
	ldr         w8,[sp,#0x2C]
	sxtw        x9,w8
	mov         x8,#1
	mul         x8,x9,x8
	add         x8,x10,x8
	ldrb        w8,[x8]
	mov         w8,w8
	str         w8,[sp,#0x38]

; 2372 : 						sl = slen[k];

	ldr         w8,[sp,#0x2C]
	sxtw        x9,w8
	mov         x8,#4
	mul         x9,x9,x8
	add         x8,sp,#0x88
	add         x8,x8,x9
	ldr         w8,[x8]
	str         w8,[sp,#0x78]

; 2373 : 						if (sl){

	ldr         w8,[sp,#0x78]
	cmp         w8,#0
	beq         |$LN111@mp_decode_|

; 2374 : 							for (i = 0; i<n; i++)

	mov         w8,#0
	str         w8,[sp,#0x10]
	b           |$LN55@mp_decode_|
|$LN53@mp_decode_|
	ldr         w8,[sp,#0x10]
	add         w8,w8,#1
	str         w8,[sp,#0x10]
|$LN55@mp_decode_|
	ldr         w9,[sp,#0x38]
	ldr         w8,[sp,#0x10]
	cmp         w8,w9
	bge         |$LN54@mp_decode_|

; 2375 : 								g->scale_factors[j++] = get_bits(&s->gb, sl);

	ldr         x8,[sp,#0x20]
	add         x0,x8,#0x438
	ldr         w1,[sp,#0x78]
	bl          |?get_bits@@YAIPEAU_bitstream@@H@Z|
	mov         w0,w0
	uxtb        w11,w0
	ldr         x8,[sp,#0x18]
	add         x10,x8,#0x4C
	ldr         w8,[sp,#0x14]
	sxtw        x9,w8
	mov         x8,#1
	mul         x8,x9,x8
	add         x8,x10,x8
	strb        w11,[x8]
	ldr         w8,[sp,#0x14]
	add         w8,w8,#1
	str         w8,[sp,#0x14]
	b           |$LN53@mp_decode_|
|$LN54@mp_decode_|

; 2376 : 						}

	b           |$LN112@mp_decode_|
|$LN111@mp_decode_|

; 2377 : 						else{
; 2378 : 							libc_memset((void*)&g->scale_factors[j], 0, n);

	ldr         w8,[sp,#0x38]
	sxtw        x2,w8
	ldr         x8,[sp,#0x18]
	add         x10,x8,#0x4C
	ldr         w8,[sp,#0x14]
	sxtw        x9,w8
	mov         x8,#1
	mul         x8,x9,x8
	add         x0,x10,x8
	mov         w1,#0
	bl          memset

; 2379 : 							j += n;

	ldr         w9,[sp,#0x14]
	ldr         w8,[sp,#0x38]
	add         w8,w9,w8
	str         w8,[sp,#0x14]
|$LN112@mp_decode_|

; 2380 : 							//                        for(i=0;i<n;i++)
; 2381 : 							//                            g->scale_factors[j++] = 0;
; 2382 : 						}
; 2383 : 					}

	b           |$LN50@mp_decode_|
|$LN51@mp_decode_|

; 2384 : 					/* XXX: should compute exact size */
; 2385 : 					libc_memset((void*)&g->scale_factors[j], 0, 40 - j);

	mov         w9,#0x28
	ldr         w8,[sp,#0x14]
	sub         w8,w9,w8
	sxtw        x2,w8
	ldr         x8,[sp,#0x18]
	add         x10,x8,#0x4C
	ldr         w8,[sp,#0x14]
	sxtw        x9,w8
	mov         x8,#1
	mul         x8,x9,x8
	add         x0,x10,x8
	mov         w1,#0
	bl          memset
|$LN88@mp_decode_|

; 2386 : 					//                for(;j<40;j++)
; 2387 : 					//                    g->scale_factors[j] = 0;
; 2388 : 				}
; 2389 : 
; 2390 : 				exponents_from_scale_factors(s, g, exponents);

	adrp        x8,|?exponents@?1??mp_decode_layer3@@YAHPEAU_mp3_context@@@Z@4PAFA|
	add         x2,x8,PageOffset(|?exponents@?1??mp_decode_layer3@@YAHPEAU_mp3_context@@@Z@4PAFA|)
	ldr         x1,[sp,#0x18]
	ldr         x0,[sp,#0x20]
	bl          |?exponents_from_scale_factors@@YAXPEAU_mp3_context@@PEAU_granule@@PEAF@Z|

; 2391 : 
; 2392 : 				/* read Huffman coded residue */
; 2393 : 				if (huffman_decode(s, g, exponents,
; 2394 : 					bits_pos + g->part2_3_length) < 0)

	ldr         x8,[sp,#0x18]
	add         x8,x8,#4
	ldr         w9,[sp,#0x84]
	ldr         w8,[x8]
	add         w3,w9,w8
	mov         w3,w3
	adrp        x8,|?exponents@?1??mp_decode_layer3@@YAHPEAU_mp3_context@@@Z@4PAFA|
	add         x2,x8,PageOffset(|?exponents@?1??mp_decode_layer3@@YAHPEAU_mp3_context@@@Z@4PAFA|)
	ldr         x1,[sp,#0x18]
	ldr         x0,[sp,#0x20]
	bl          |?huffman_decode@@YAHPEAU_mp3_context@@PEAU_granule@@PEAFH@Z|
	mov         w0,w0
	cmp         w0,#0
	bge         |$LN113@mp_decode_|

; 2395 : 					return -1;

	mov         w0,#-1
	b           |$LN1@mp_decode_|
|$LN113@mp_decode_|

; 2396 : 			} /* ch */

	b           |$LN26@mp_decode_|
|$LN27@mp_decode_|

; 2397 : 
; 2398 : 			if (s->nb_channels == 2)

	ldr         x8,[sp,#0x20]
	add         x8,x8,#0x468
	ldr         w8,[x8]
	cmp         w8,#2
	bne         |$LN114@mp_decode_|

; 2399 : 				compute_stereo(s, &granules[0][gr], &granules[1][gr]);

	adrp        x8,|?granules@?1??mp_decode_layer3@@YAHPEAU_mp3_context@@@Z@4PAY01U_granule@@A|
	add         x9,x8,PageOffset(|?granules@?1??mp_decode_layer3@@YAHPEAU_mp3_context@@@Z@4PAY01U_granule@@A|)
	mov         x8,#0x12E8
	add         x10,x9,x8
	ldr         w8,[sp,#0x30]
	sxtw        x9,w8
	mov         x8,#0x974
	mul         x8,x9,x8
	add         x2,x10,x8
	ldr         w8,[sp,#0x30]
	sxtw        x9,w8
	mov         x8,#0x974
	mul         x9,x9,x8
	adrp        x8,|?granules@?1??mp_decode_layer3@@YAHPEAU_mp3_context@@@Z@4PAY01U_granule@@A|
	add         x8,x8,PageOffset(|?granules@?1??mp_decode_layer3@@YAHPEAU_mp3_context@@@Z@4PAY01U_granule@@A|)
	add         x1,x8,x9
	ldr         x0,[sp,#0x20]
	bl          |?compute_stereo@@YAXPEAU_mp3_context@@PEAU_granule@@1@Z|
|$LN114@mp_decode_|

; 2400 : 
; 2401 : 			for (ch = 0; ch<s->nb_channels; ch++) {

	mov         w8,#0
	str         w8,[sp,#0x28]
	b           |$LN58@mp_decode_|
|$LN56@mp_decode_|
	ldr         w8,[sp,#0x28]
	add         w8,w8,#1
	str         w8,[sp,#0x28]
|$LN58@mp_decode_|
	ldr         x8,[sp,#0x20]
	add         x8,x8,#0x468
	ldr         w9,[x8]
	ldr         w8,[sp,#0x28]
	cmp         w8,w9
	bge         |$LN57@mp_decode_|

; 2402 : 				g = &granules[ch][gr];

	ldr         w8,[sp,#0x28]
	sxtw        x9,w8
	mov         x8,#0x12E8
	mul         x9,x9,x8
	adrp        x8,|?granules@?1??mp_decode_layer3@@YAHPEAU_mp3_context@@@Z@4PAY01U_granule@@A|
	add         x8,x8,PageOffset(|?granules@?1??mp_decode_layer3@@YAHPEAU_mp3_context@@@Z@4PAY01U_granule@@A|)
	add         x10,x8,x9
	ldr         w8,[sp,#0x30]
	sxtw        x9,w8
	mov         x8,#0x974
	mul         x8,x9,x8
	add         x8,x10,x8
	str         x8,[sp,#0x18]

; 2403 : 				reorder_block(s, g);

	ldr         x1,[sp,#0x18]
	ldr         x0,[sp,#0x20]
	bl          |?reorder_block@@YAXPEAU_mp3_context@@PEAU_granule@@@Z|

; 2404 : 				compute_antialias(s, g);

	ldr         x1,[sp,#0x18]
	ldr         x0,[sp,#0x20]
	bl          |?compute_antialias@@YAXPEAU_mp3_context@@PEAU_granule@@@Z|

; 2405 : 				compute_imdct(s, g, &s->sb_samples[ch][18 * gr][0], s->mdct_buf[ch]);

	ldr         x9,[sp,#0x20]
	mov         x8,#0x3880
	add         x10,x9,x8
	ldr         w8,[sp,#0x28]
	sxtw        x9,w8
	mov         x8,#0x900
	mul         x8,x9,x8
	add         x3,x10,x8
	ldr         x9,[sp,#0x20]
	mov         x8,#0x1480
	add         x10,x9,x8
	ldr         w8,[sp,#0x28]
	sxtw        x9,w8
	mov         x8,#0x1200
	mul         x8,x9,x8
	add         x10,x10,x8
	ldr         w9,[sp,#0x30]
	mov         w8,#0x12
	mul         w8,w9,w8
	sxtw        x9,w8
	mov         x8,#0x80
	mul         x8,x9,x8
	add         x2,x10,x8
	ldr         x1,[sp,#0x18]
	ldr         x0,[sp,#0x20]
	bl          |?compute_imdct@@YAXPEAU_mp3_context@@PEAU_granule@@PEAH2@Z|

; 2406 : 			}

	b           |$LN56@mp_decode_|
|$LN57@mp_decode_|

; 2407 : 		} /* gr */

	b           |$LN23@mp_decode_|
|$LN24@mp_decode_|

; 2408 : 		return nb_granules * 18;

	ldr         w9,[sp,#0x44]
	mov         w8,#0x12
	mul         w0,w9,w8
	mov         w0,w0
|$LN1@mp_decode_|
	ldp         fp,lr,[sp],#0xC0
	ldr         x19,[sp],#0x10
	ret

	ENDP  ; |?mp_decode_layer3@@YAHPEAU_mp3_context@@@Z|, mp_decode_layer3

; Function compile flags: /Odtp
; File C:\Users\paras\source\repos\grep-name\XenevaOS\Process\AudioPlayer\minimp3.cpp

	AREA	|.text$mn|, CODE, ARM64

|?decode_header@@YAHPEAU_mp3_context@@I@Z| PROC		; decode_header

; 2086 : 	static int decode_header(mp3_context_t *s, uint32_t header) {

	sub         sp,sp,#0x30
	str         x0,[sp,#8]
	str         w1,[sp]

; 2087 : 		int sample_rate, frame_size, mpeg25, padding;
; 2088 : 		int sample_rate_index, bitrate_index;
; 2089 : 		if (header & (1 << 20)) {

	ldr         w8,[sp]
	tbz         x8,#0x14,|$LN2@decode_hea|

; 2090 : 			s->lsf = (header & (1 << 19)) ? 0 : 1;

	ldr         w8,[sp]
	tbz         x8,#0x13,|$LN7@decode_hea|
	mov         w8,#0
	str         w8,[sp,#0x18]
	b           |$LN8@decode_hea|
|$LN7@decode_hea|
	mov         w8,#1
	str         w8,[sp,#0x18]
|$LN8@decode_hea|
	ldr         x8,[sp,#8]
	add         x9,x8,#0x474
	ldr         w8,[sp,#0x18]
	str         w8,[x9]

; 2091 : 			mpeg25 = 0;

	mov         w8,#0
	str         w8,[sp,#0x14]

; 2092 : 		}

	b           |$LN3@decode_hea|
|$LN2@decode_hea|

; 2093 : 		else {
; 2094 : 			s->lsf = 1;

	ldr         x8,[sp,#8]
	add         x9,x8,#0x474
	mov         w8,#1
	str         w8,[x9]

; 2095 : 			mpeg25 = 1;

	mov         w8,#1
	str         w8,[sp,#0x14]
|$LN3@decode_hea|

; 2096 : 		}
; 2097 : 
; 2098 : 		sample_rate_index = (header >> 10) & 3;

	ldr         w8,[sp]
	ubfx        w8,w8,#0xA,#2
	str         w8,[sp,#0x10]

; 2099 : 		sample_rate = mp3_freq_tab[sample_rate_index] >> (s->lsf + mpeg25);

	ldr         w8,[sp,#0x10]
	sxtw        x9,w8
	mov         x8,#2
	mul         x9,x9,x8
	adrp        x8,|?mp3_freq_tab@@3QBGB|
	add         x8,x8,PageOffset(|?mp3_freq_tab@@3QBGB|)
	add         x8,x8,x9
	ldrh        w10,[x8]
	mov         w10,w10
	ldr         x8,[sp,#8]
	add         x8,x8,#0x474
	ldr         w9,[x8]
	ldr         w8,[sp,#0x14]
	add         w8,w9,w8
	asr         w8,w10,w8
	str         w8,[sp,#0x28]

; 2100 : 		sample_rate_index += 3 * (s->lsf + mpeg25);

	ldr         x8,[sp,#8]
	add         x8,x8,#0x474
	ldr         w9,[x8]
	ldr         w8,[sp,#0x14]
	add         w9,w9,w8
	mov         w8,#3
	mul         w9,w9,w8
	ldr         w8,[sp,#0x10]
	add         w8,w8,w9
	str         w8,[sp,#0x10]

; 2101 : 		s->sample_rate_index = sample_rate_index;

	ldr         x8,[sp,#8]
	add         x9,x8,#0x42C
	ldr         w8,[sp,#0x10]
	str         w8,[x9]

; 2102 : 		s->error_protection = ((header >> 16) & 1) ^ 1;

	ldr         w8,[sp]
	ubfx        w8,w8,#0x10,#1
	eor         w9,w8,#1
	ldr         x8,[sp,#8]
	add         x8,x8,#0x424
	str         w9,[x8]

; 2103 : 		s->sample_rate = sample_rate;

	ldr         x8,[sp,#8]
	add         x9,x8,#0x428
	ldr         w8,[sp,#0x28]
	str         w8,[x9]

; 2104 : 
; 2105 : 		bitrate_index = (header >> 12) & 0xf;

	ldr         w8,[sp]
	ubfx        w8,w8,#0xC,#4
	str         w8,[sp,#0x20]

; 2106 : 		padding = (header >> 9) & 1;

	ldr         w8,[sp]
	ubfx        w8,w8,#9,#1
	str         w8,[sp,#0x2C]

; 2107 : 		s->mode = (header >> 6) & 3;

	ldr         w8,[sp]
	ubfx        w9,w8,#6,#2
	ldr         x8,[sp,#8]
	add         x8,x8,#0x46C
	str         w9,[x8]

; 2108 : 		s->mode_ext = (header >> 4) & 3;

	ldr         w8,[sp]
	ubfx        w9,w8,#4,#2
	ldr         x8,[sp,#8]
	add         x8,x8,#0x470
	str         w9,[x8]

; 2109 : 		s->nb_channels = (s->mode == MP3_MONO) ? 1 : 2;

	ldr         x8,[sp,#8]
	add         x8,x8,#0x46C
	ldr         w8,[x8]
	cmp         w8,#3
	bne         |$LN9@decode_hea|
	mov         w8,#1
	str         w8,[sp,#0x1C]
	b           |$LN10@decode_hea|
|$LN9@decode_hea|
	mov         w8,#2
	str         w8,[sp,#0x1C]
|$LN10@decode_hea|
	ldr         x8,[sp,#8]
	add         x9,x8,#0x468
	ldr         w8,[sp,#0x1C]
	str         w8,[x9]

; 2110 : 
; 2111 : 		if (bitrate_index != 0) {

	ldr         w8,[sp,#0x20]
	cmp         w8,#0
	beq         |$LN4@decode_hea|

; 2112 : 			frame_size = mp3_bitrate_tab[s->lsf][bitrate_index];

	ldr         x8,[sp,#8]
	add         x8,x8,#0x474
	ldr         w8,[x8]
	sxtw        x9,w8
	mov         x8,#0x1E
	mul         x9,x9,x8
	adrp        x8,|?mp3_bitrate_tab@@3QAY0P@$$CBGA|
	add         x8,x8,PageOffset(|?mp3_bitrate_tab@@3QAY0P@$$CBGA|)
	add         x10,x8,x9
	ldr         w8,[sp,#0x20]
	sxtw        x9,w8
	mov         x8,#2
	mul         x8,x9,x8
	add         x8,x10,x8
	ldrh        w8,[x8]
	mov         w8,w8
	str         w8,[sp,#0x24]

; 2113 : 			s->bit_rate = frame_size * 1000;

	ldr         w9,[sp,#0x24]
	mov         w8,#0x3E8
	mul         w9,w9,w8
	ldr         x8,[sp,#8]
	add         x8,x8,#0x430
	str         w9,[x8]

; 2114 : 			s->frame_size = (frame_size * 144000) / (sample_rate << s->lsf) + padding;

	ldr         w9,[sp,#0x24]
	ldr         w8,|$LN12@decode_hea|
	mul         w10,w9,w8
	ldr         x8,[sp,#8]
	add         x8,x8,#0x474
	ldr         w9,[sp,#0x28]
	ldr         w8,[x8]
	lsl         w8,w9,w8
	cbnz        w8,|$LN11@decode_hea|
	brk         #0xF004
|$LN11@decode_hea|
	sdiv        w9,w10,w8
	ldr         w8,[sp,#0x2C]
	add         w9,w9,w8
	ldr         x8,[sp,#8]
	add         x8,x8,#0x41C
	str         w9,[x8]

; 2115 : 		}

	b           |$LN5@decode_hea|
|$LN4@decode_hea|

; 2116 : 		else {
; 2117 : 			/* if no frame size computed, signal it */
; 2118 : 			return 1;

	mov         w0,#1
	b           |$LN1@decode_hea|
|$LN5@decode_hea|

; 2119 : 		}
; 2120 : 		return 0;

	mov         w0,#0
|$LN1@decode_hea|
	add         sp,sp,#0x30
	ret
|$LN12@decode_hea|
	DCD         0x23280

	ENDP  ; |?decode_header@@YAHPEAU_mp3_context@@I@Z|, decode_header

; Function compile flags: /Odtp
; File C:\Users\paras\source\repos\grep-name\XenevaOS\Process\AudioPlayer\minimp3.cpp

	AREA	|.text$mn|, CODE, ARM64

|?mp3_synth_filter@@YAXPEAFPEAH010HQEAH@Z| PROC		; mp3_synth_filter

; 2018 : 		) {

	stp         fp,lr,[sp,#-0x110]!
	mov         fp,sp
	str         x0,[sp,#0x88]
	str         x1,[sp,#0x78]
	str         x2,[sp,#0x68]
	str         x3,[sp,#0x70]
	str         x4,[sp,#0x58]
	str         w5,[sp,#0x44]
	str         x6,[sp,#0x80]

; 2019 : 		int32_t tmp[32];
; 2020 : 		register int16_t *synth_buf;
; 2021 : 		register const int16_t *w, *w2, *p;
; 2022 : 		int j, offset, v;
; 2023 : 		int16_t *samples2;
; 2024 : 		int sum, sum2;
; 2025 : 
; 2026 : 		dct32(tmp, sb_samples);

	ldr         x1,[sp,#0x80]
	add         x0,sp,#0x90
	bl          |?dct32@@YAXPEAH0@Z|

; 2027 : 
; 2028 : 		offset = *synth_buf_offset;

	ldr         x8,[sp,#0x78]
	ldr         w8,[x8]
	str         w8,[sp,#0x48]

; 2029 : 		synth_buf = synth_buf_ptr + offset;

	ldr         w8,[sp,#0x48]
	sxtw        x9,w8
	mov         x8,#2
	mul         x9,x9,x8
	ldr         x8,[sp,#0x88]
	add         x8,x8,x9
	str         x8,[sp,#0x50]

; 2030 : 
; 2031 : 		for (j = 0; j<32; j++) {

	mov         w8,#0
	str         w8,[sp,#0x30]
	b           |$LN4@mp3_synth_|
|$LN2@mp3_synth_|
	ldr         w8,[sp,#0x30]
	add         w8,w8,#1
	str         w8,[sp,#0x30]
|$LN4@mp3_synth_|
	ldr         w8,[sp,#0x30]
	cmp         w8,#0x20
	bge         |$LN3@mp3_synth_|

; 2032 : 			v = tmp[j];

	ldr         w8,[sp,#0x30]
	sxtw        x9,w8
	mov         x8,#4
	mul         x9,x9,x8
	add         x8,sp,#0x90
	add         x8,x8,x9
	ldr         w8,[x8]
	str         w8,[sp,#0x40]

; 2033 : 			/* NOTE: can cause a loss in precision if very high amplitude
; 2034 : 			sound */
; 2035 : 			if (v > 32767)

	mov         w9,#0x7FFF
	ldr         w8,[sp,#0x40]
	cmp         w8,w9
	ble         |$LN8@mp3_synth_|

; 2036 : 				v = 32767;

	mov         w8,#0x7FFF
	str         w8,[sp,#0x40]
	b           |$LN9@mp3_synth_|
|$LN8@mp3_synth_|

; 2037 : 			else if (v < -32768)

	mov         w9,#-0x8000
	ldr         w8,[sp,#0x40]
	cmp         w8,w9
	bge         |$LN10@mp3_synth_|

; 2038 : 				v = -32768;

	mov         w8,#-0x8000
	str         w8,[sp,#0x40]
|$LN10@mp3_synth_|
|$LN9@mp3_synth_|

; 2039 : 			synth_buf[j] = v;

	ldr         w8,[sp,#0x40]
	sxth        w10,w8
	ldr         w8,[sp,#0x30]
	sxtw        x9,w8
	mov         x8,#2
	mul         x9,x9,x8
	ldr         x8,[sp,#0x50]
	add         x8,x8,x9
	strh        w10,[x8]

; 2040 : 		}

	b           |$LN2@mp3_synth_|
|$LN3@mp3_synth_|

; 2041 : 		/* copy to avoid wrap */
; 2042 : 		libc_memcpy(synth_buf + 512, synth_buf, 32 * sizeof(int16_t));

	ldr         x8,[sp,#0x50]
	add         x0,x8,#0x400
	mov         x2,#0x40
	ldr         x1,[sp,#0x50]
	bl          memcpy

; 2043 : 
; 2044 : 		samples2 = samples + 31 * incr;

	ldr         w9,[sp,#0x44]
	mov         w8,#0x1F
	mul         w8,w9,w8
	sxtw        x9,w8
	mov         x8,#2
	mul         x9,x9,x8
	ldr         x8,[sp,#0x58]
	add         x8,x8,x9
	str         x8,[sp,#0x60]

; 2045 : 		w = window;

	ldr         x8,[sp,#0x68]
	str         x8,[sp,#0x20]

; 2046 : 		w2 = window + 31;

	ldr         x8,[sp,#0x68]
	add         x8,x8,#0x3E
	str         x8,[sp,#0x38]

; 2047 : 
; 2048 : 		sum = *dither_state;

	ldr         x8,[sp,#0x70]
	ldr         w8,[x8]
	str         w8,[sp,#0x10]

; 2049 : 		p = synth_buf + 16;

	ldr         x8,[sp,#0x50]
	add         x8,x8,#0x20
	str         x8,[sp,#0x28]

; 2050 : 		SUM8(sum, += , w, p);

	ldr         x8,[sp,#0x20]
	ldrsh       w9,[x8]
	mov         w9,w9
	ldr         x8,[sp,#0x28]
	ldrsh       w8,[x8]
	mov         w8,w8
	mul         w9,w9,w8
	ldr         w8,[sp,#0x10]
	add         w8,w8,w9
	str         w8,[sp,#0x10]
	ldr         x8,[sp,#0x20]
	add         x8,x8,#0x80
	ldrsh       w9,[x8]
	mov         w9,w9
	ldr         x8,[sp,#0x28]
	add         x8,x8,#0x80
	ldrsh       w8,[x8]
	mov         w8,w8
	mul         w9,w9,w8
	ldr         w8,[sp,#0x10]
	add         w8,w8,w9
	str         w8,[sp,#0x10]
	ldr         x8,[sp,#0x20]
	add         x8,x8,#0x100
	ldrsh       w9,[x8]
	mov         w9,w9
	ldr         x8,[sp,#0x28]
	add         x8,x8,#0x100
	ldrsh       w8,[x8]
	mov         w8,w8
	mul         w9,w9,w8
	ldr         w8,[sp,#0x10]
	add         w8,w8,w9
	str         w8,[sp,#0x10]
	ldr         x8,[sp,#0x20]
	add         x8,x8,#0x180
	ldrsh       w9,[x8]
	mov         w9,w9
	ldr         x8,[sp,#0x28]
	add         x8,x8,#0x180
	ldrsh       w8,[x8]
	mov         w8,w8
	mul         w9,w9,w8
	ldr         w8,[sp,#0x10]
	add         w8,w8,w9
	str         w8,[sp,#0x10]
	ldr         x8,[sp,#0x20]
	add         x8,x8,#0x200
	ldrsh       w9,[x8]
	mov         w9,w9
	ldr         x8,[sp,#0x28]
	add         x8,x8,#0x200
	ldrsh       w8,[x8]
	mov         w8,w8
	mul         w9,w9,w8
	ldr         w8,[sp,#0x10]
	add         w8,w8,w9
	str         w8,[sp,#0x10]
	ldr         x8,[sp,#0x20]
	add         x8,x8,#0x280
	ldrsh       w9,[x8]
	mov         w9,w9
	ldr         x8,[sp,#0x28]
	add         x8,x8,#0x280
	ldrsh       w8,[x8]
	mov         w8,w8
	mul         w9,w9,w8
	ldr         w8,[sp,#0x10]
	add         w8,w8,w9
	str         w8,[sp,#0x10]
	ldr         x8,[sp,#0x20]
	add         x8,x8,#0x300
	ldrsh       w9,[x8]
	mov         w9,w9
	ldr         x8,[sp,#0x28]
	add         x8,x8,#0x300
	ldrsh       w8,[x8]
	mov         w8,w8
	mul         w9,w9,w8
	ldr         w8,[sp,#0x10]
	add         w8,w8,w9
	str         w8,[sp,#0x10]
	ldr         x8,[sp,#0x20]
	add         x8,x8,#0x380
	ldrsh       w9,[x8]
	mov         w9,w9
	ldr         x8,[sp,#0x28]
	add         x8,x8,#0x380
	ldrsh       w8,[x8]
	mov         w8,w8
	mul         w9,w9,w8
	ldr         w8,[sp,#0x10]
	add         w8,w8,w9
	str         w8,[sp,#0x10]

; 2051 : 		p = synth_buf + 48;

	ldr         x8,[sp,#0x50]
	add         x8,x8,#0x60
	str         x8,[sp,#0x28]

; 2052 : 		SUM8(sum, -= , w + 32, p);

	ldr         x8,[sp,#0x20]
	add         x8,x8,#0x40
	ldrsh       w9,[x8]
	mov         w9,w9
	ldr         x8,[sp,#0x28]
	ldrsh       w8,[x8]
	mov         w8,w8
	mul         w9,w9,w8
	ldr         w8,[sp,#0x10]
	sub         w8,w8,w9
	str         w8,[sp,#0x10]
	ldr         x8,[sp,#0x20]
	add         x8,x8,#0xC0
	ldrsh       w9,[x8]
	mov         w9,w9
	ldr         x8,[sp,#0x28]
	add         x8,x8,#0x80
	ldrsh       w8,[x8]
	mov         w8,w8
	mul         w9,w9,w8
	ldr         w8,[sp,#0x10]
	sub         w8,w8,w9
	str         w8,[sp,#0x10]
	ldr         x8,[sp,#0x20]
	add         x8,x8,#0x140
	ldrsh       w9,[x8]
	mov         w9,w9
	ldr         x8,[sp,#0x28]
	add         x8,x8,#0x100
	ldrsh       w8,[x8]
	mov         w8,w8
	mul         w9,w9,w8
	ldr         w8,[sp,#0x10]
	sub         w8,w8,w9
	str         w8,[sp,#0x10]
	ldr         x8,[sp,#0x20]
	add         x8,x8,#0x1C0
	ldrsh       w9,[x8]
	mov         w9,w9
	ldr         x8,[sp,#0x28]
	add         x8,x8,#0x180
	ldrsh       w8,[x8]
	mov         w8,w8
	mul         w9,w9,w8
	ldr         w8,[sp,#0x10]
	sub         w8,w8,w9
	str         w8,[sp,#0x10]
	ldr         x8,[sp,#0x20]
	add         x8,x8,#0x240
	ldrsh       w9,[x8]
	mov         w9,w9
	ldr         x8,[sp,#0x28]
	add         x8,x8,#0x200
	ldrsh       w8,[x8]
	mov         w8,w8
	mul         w9,w9,w8
	ldr         w8,[sp,#0x10]
	sub         w8,w8,w9
	str         w8,[sp,#0x10]
	ldr         x8,[sp,#0x20]
	add         x8,x8,#0x2C0
	ldrsh       w9,[x8]
	mov         w9,w9
	ldr         x8,[sp,#0x28]
	add         x8,x8,#0x280
	ldrsh       w8,[x8]
	mov         w8,w8
	mul         w9,w9,w8
	ldr         w8,[sp,#0x10]
	sub         w8,w8,w9
	str         w8,[sp,#0x10]
	ldr         x8,[sp,#0x20]
	add         x8,x8,#0x340
	ldrsh       w9,[x8]
	mov         w9,w9
	ldr         x8,[sp,#0x28]
	add         x8,x8,#0x300
	ldrsh       w8,[x8]
	mov         w8,w8
	mul         w9,w9,w8
	ldr         w8,[sp,#0x10]
	sub         w8,w8,w9
	str         w8,[sp,#0x10]
	ldr         x8,[sp,#0x20]
	add         x8,x8,#0x3C0
	ldrsh       w9,[x8]
	mov         w9,w9
	ldr         x8,[sp,#0x28]
	add         x8,x8,#0x380
	ldrsh       w8,[x8]
	mov         w8,w8
	mul         w9,w9,w8
	ldr         w8,[sp,#0x10]
	sub         w8,w8,w9
	str         w8,[sp,#0x10]

; 2053 : 		*samples = round_sample(&sum);

	add         x0,sp,#0x10
	bl          |?round_sample@@YAHPEAH@Z|
	mov         w0,w0
	sxth        w9,w0
	ldr         x8,[sp,#0x58]
	strh        w9,[x8]

; 2054 : 		samples += incr;

	ldr         w8,[sp,#0x44]
	sxtw        x9,w8
	mov         x8,#2
	mul         x9,x9,x8
	ldr         x8,[sp,#0x58]
	add         x8,x8,x9
	str         x8,[sp,#0x58]

; 2055 : 		w++;

	ldr         x8,[sp,#0x20]
	add         x8,x8,#2
	str         x8,[sp,#0x20]

; 2056 : 
; 2057 : 		/* we calculate two samples at the same time to avoid one memory
; 2058 : 		access per two sample */
; 2059 : 		for (j = 1; j<16; j++) {

	mov         w8,#1
	str         w8,[sp,#0x30]
	b           |$LN7@mp3_synth_|
|$LN5@mp3_synth_|
	ldr         w8,[sp,#0x30]
	add         w8,w8,#1
	str         w8,[sp,#0x30]
|$LN7@mp3_synth_|
	ldr         w8,[sp,#0x30]
	cmp         w8,#0x10
	bge         |$LN6@mp3_synth_|

; 2060 : 			sum2 = 0;

	mov         w8,#0
	str         w8,[sp,#0x14]

; 2061 : 			p = synth_buf + 16 + j;

	ldr         x8,[sp,#0x50]
	add         x10,x8,#0x20
	ldr         w8,[sp,#0x30]
	sxtw        x9,w8
	mov         x8,#2
	mul         x8,x9,x8
	add         x8,x10,x8
	str         x8,[sp,#0x28]

; 2062 : 			SUM8P2(sum, += , sum2, -= , w, w2, p);

	ldr         x8,[sp,#0x28]
	ldrsh       w8,[x8]
	mov         w8,w8
	str         w8,[sp,#0x18]
	ldr         x8,[sp,#0x20]
	ldrsh       w9,[x8]
	mov         w9,w9
	ldr         w8,[sp,#0x18]
	mul         w9,w9,w8
	ldr         w8,[sp,#0x10]
	add         w8,w8,w9
	str         w8,[sp,#0x10]
	ldr         x8,[sp,#0x38]
	ldrsh       w9,[x8]
	mov         w9,w9
	ldr         w8,[sp,#0x18]
	mul         w9,w9,w8
	ldr         w8,[sp,#0x14]
	sub         w8,w8,w9
	str         w8,[sp,#0x14]
	ldr         x8,[sp,#0x28]
	add         x8,x8,#0x80
	ldrsh       w8,[x8]
	mov         w8,w8
	str         w8,[sp,#0x18]
	ldr         x8,[sp,#0x20]
	add         x8,x8,#0x80
	ldrsh       w9,[x8]
	mov         w9,w9
	ldr         w8,[sp,#0x18]
	mul         w9,w9,w8
	ldr         w8,[sp,#0x10]
	add         w8,w8,w9
	str         w8,[sp,#0x10]
	ldr         x8,[sp,#0x38]
	add         x8,x8,#0x80
	ldrsh       w9,[x8]
	mov         w9,w9
	ldr         w8,[sp,#0x18]
	mul         w9,w9,w8
	ldr         w8,[sp,#0x14]
	sub         w8,w8,w9
	str         w8,[sp,#0x14]
	ldr         x8,[sp,#0x28]
	add         x8,x8,#0x100
	ldrsh       w8,[x8]
	mov         w8,w8
	str         w8,[sp,#0x18]
	ldr         x8,[sp,#0x20]
	add         x8,x8,#0x100
	ldrsh       w9,[x8]
	mov         w9,w9
	ldr         w8,[sp,#0x18]
	mul         w9,w9,w8
	ldr         w8,[sp,#0x10]
	add         w8,w8,w9
	str         w8,[sp,#0x10]
	ldr         x8,[sp,#0x38]
	add         x8,x8,#0x100
	ldrsh       w9,[x8]
	mov         w9,w9
	ldr         w8,[sp,#0x18]
	mul         w9,w9,w8
	ldr         w8,[sp,#0x14]
	sub         w8,w8,w9
	str         w8,[sp,#0x14]
	ldr         x8,[sp,#0x28]
	add         x8,x8,#0x180
	ldrsh       w8,[x8]
	mov         w8,w8
	str         w8,[sp,#0x18]
	ldr         x8,[sp,#0x20]
	add         x8,x8,#0x180
	ldrsh       w9,[x8]
	mov         w9,w9
	ldr         w8,[sp,#0x18]
	mul         w9,w9,w8
	ldr         w8,[sp,#0x10]
	add         w8,w8,w9
	str         w8,[sp,#0x10]
	ldr         x8,[sp,#0x38]
	add         x8,x8,#0x180
	ldrsh       w9,[x8]
	mov         w9,w9
	ldr         w8,[sp,#0x18]
	mul         w9,w9,w8
	ldr         w8,[sp,#0x14]
	sub         w8,w8,w9
	str         w8,[sp,#0x14]
	ldr         x8,[sp,#0x28]
	add         x8,x8,#0x200
	ldrsh       w8,[x8]
	mov         w8,w8
	str         w8,[sp,#0x18]
	ldr         x8,[sp,#0x20]
	add         x8,x8,#0x200
	ldrsh       w9,[x8]
	mov         w9,w9
	ldr         w8,[sp,#0x18]
	mul         w9,w9,w8
	ldr         w8,[sp,#0x10]
	add         w8,w8,w9
	str         w8,[sp,#0x10]
	ldr         x8,[sp,#0x38]
	add         x8,x8,#0x200
	ldrsh       w9,[x8]
	mov         w9,w9
	ldr         w8,[sp,#0x18]
	mul         w9,w9,w8
	ldr         w8,[sp,#0x14]
	sub         w8,w8,w9
	str         w8,[sp,#0x14]
	ldr         x8,[sp,#0x28]
	add         x8,x8,#0x280
	ldrsh       w8,[x8]
	mov         w8,w8
	str         w8,[sp,#0x18]
	ldr         x8,[sp,#0x20]
	add         x8,x8,#0x280
	ldrsh       w9,[x8]
	mov         w9,w9
	ldr         w8,[sp,#0x18]
	mul         w9,w9,w8
	ldr         w8,[sp,#0x10]
	add         w8,w8,w9
	str         w8,[sp,#0x10]
	ldr         x8,[sp,#0x38]
	add         x8,x8,#0x280
	ldrsh       w9,[x8]
	mov         w9,w9
	ldr         w8,[sp,#0x18]
	mul         w9,w9,w8
	ldr         w8,[sp,#0x14]
	sub         w8,w8,w9
	str         w8,[sp,#0x14]
	ldr         x8,[sp,#0x28]
	add         x8,x8,#0x300
	ldrsh       w8,[x8]
	mov         w8,w8
	str         w8,[sp,#0x18]
	ldr         x8,[sp,#0x20]
	add         x8,x8,#0x300
	ldrsh       w9,[x8]
	mov         w9,w9
	ldr         w8,[sp,#0x18]
	mul         w9,w9,w8
	ldr         w8,[sp,#0x10]
	add         w8,w8,w9
	str         w8,[sp,#0x10]
	ldr         x8,[sp,#0x38]
	add         x8,x8,#0x300
	ldrsh       w9,[x8]
	mov         w9,w9
	ldr         w8,[sp,#0x18]
	mul         w9,w9,w8
	ldr         w8,[sp,#0x14]
	sub         w8,w8,w9
	str         w8,[sp,#0x14]
	ldr         x8,[sp,#0x28]
	add         x8,x8,#0x380
	ldrsh       w8,[x8]
	mov         w8,w8
	str         w8,[sp,#0x18]
	ldr         x8,[sp,#0x20]
	add         x8,x8,#0x380
	ldrsh       w9,[x8]
	mov         w9,w9
	ldr         w8,[sp,#0x18]
	mul         w9,w9,w8
	ldr         w8,[sp,#0x10]
	add         w8,w8,w9
	str         w8,[sp,#0x10]
	ldr         x8,[sp,#0x38]
	add         x8,x8,#0x380
	ldrsh       w9,[x8]
	mov         w9,w9
	ldr         w8,[sp,#0x18]
	mul         w9,w9,w8
	ldr         w8,[sp,#0x14]
	sub         w8,w8,w9
	str         w8,[sp,#0x14]

; 2063 : 			p = synth_buf + 48 - j;

	ldr         x8,[sp,#0x50]
	add         x10,x8,#0x60
	ldr         w8,[sp,#0x30]
	sxtw        x9,w8
	mov         x8,#2
	mul         x8,x9,x8
	sub         x8,x10,x8
	str         x8,[sp,#0x28]

; 2064 : 			SUM8P2(sum, -= , sum2, -= , w + 32, w2 + 32, p);

	ldr         x8,[sp,#0x28]
	ldrsh       w8,[x8]
	mov         w8,w8
	str         w8,[sp,#0x1C]
	ldr         x8,[sp,#0x20]
	add         x8,x8,#0x40
	ldrsh       w9,[x8]
	mov         w9,w9
	ldr         w8,[sp,#0x1C]
	mul         w9,w9,w8
	ldr         w8,[sp,#0x10]
	sub         w8,w8,w9
	str         w8,[sp,#0x10]
	ldr         x8,[sp,#0x38]
	add         x8,x8,#0x40
	ldrsh       w9,[x8]
	mov         w9,w9
	ldr         w8,[sp,#0x1C]
	mul         w9,w9,w8
	ldr         w8,[sp,#0x14]
	sub         w8,w8,w9
	str         w8,[sp,#0x14]
	ldr         x8,[sp,#0x28]
	add         x8,x8,#0x80
	ldrsh       w8,[x8]
	mov         w8,w8
	str         w8,[sp,#0x1C]
	ldr         x8,[sp,#0x20]
	add         x8,x8,#0xC0
	ldrsh       w9,[x8]
	mov         w9,w9
	ldr         w8,[sp,#0x1C]
	mul         w9,w9,w8
	ldr         w8,[sp,#0x10]
	sub         w8,w8,w9
	str         w8,[sp,#0x10]
	ldr         x8,[sp,#0x38]
	add         x8,x8,#0xC0
	ldrsh       w9,[x8]
	mov         w9,w9
	ldr         w8,[sp,#0x1C]
	mul         w9,w9,w8
	ldr         w8,[sp,#0x14]
	sub         w8,w8,w9
	str         w8,[sp,#0x14]
	ldr         x8,[sp,#0x28]
	add         x8,x8,#0x100
	ldrsh       w8,[x8]
	mov         w8,w8
	str         w8,[sp,#0x1C]
	ldr         x8,[sp,#0x20]
	add         x8,x8,#0x140
	ldrsh       w9,[x8]
	mov         w9,w9
	ldr         w8,[sp,#0x1C]
	mul         w9,w9,w8
	ldr         w8,[sp,#0x10]
	sub         w8,w8,w9
	str         w8,[sp,#0x10]
	ldr         x8,[sp,#0x38]
	add         x8,x8,#0x140
	ldrsh       w9,[x8]
	mov         w9,w9
	ldr         w8,[sp,#0x1C]
	mul         w9,w9,w8
	ldr         w8,[sp,#0x14]
	sub         w8,w8,w9
	str         w8,[sp,#0x14]
	ldr         x8,[sp,#0x28]
	add         x8,x8,#0x180
	ldrsh       w8,[x8]
	mov         w8,w8
	str         w8,[sp,#0x1C]
	ldr         x8,[sp,#0x20]
	add         x8,x8,#0x1C0
	ldrsh       w9,[x8]
	mov         w9,w9
	ldr         w8,[sp,#0x1C]
	mul         w9,w9,w8
	ldr         w8,[sp,#0x10]
	sub         w8,w8,w9
	str         w8,[sp,#0x10]
	ldr         x8,[sp,#0x38]
	add         x8,x8,#0x1C0
	ldrsh       w9,[x8]
	mov         w9,w9
	ldr         w8,[sp,#0x1C]
	mul         w9,w9,w8
	ldr         w8,[sp,#0x14]
	sub         w8,w8,w9
	str         w8,[sp,#0x14]
	ldr         x8,[sp,#0x28]
	add         x8,x8,#0x200
	ldrsh       w8,[x8]
	mov         w8,w8
	str         w8,[sp,#0x1C]
	ldr         x8,[sp,#0x20]
	add         x8,x8,#0x240
	ldrsh       w9,[x8]
	mov         w9,w9
	ldr         w8,[sp,#0x1C]
	mul         w9,w9,w8
	ldr         w8,[sp,#0x10]
	sub         w8,w8,w9
	str         w8,[sp,#0x10]
	ldr         x8,[sp,#0x38]
	add         x8,x8,#0x240
	ldrsh       w9,[x8]
	mov         w9,w9
	ldr         w8,[sp,#0x1C]
	mul         w9,w9,w8
	ldr         w8,[sp,#0x14]
	sub         w8,w8,w9
	str         w8,[sp,#0x14]
	ldr         x8,[sp,#0x28]
	add         x8,x8,#0x280
	ldrsh       w8,[x8]
	mov         w8,w8
	str         w8,[sp,#0x1C]
	ldr         x8,[sp,#0x20]
	add         x8,x8,#0x2C0
	ldrsh       w9,[x8]
	mov         w9,w9
	ldr         w8,[sp,#0x1C]
	mul         w9,w9,w8
	ldr         w8,[sp,#0x10]
	sub         w8,w8,w9
	str         w8,[sp,#0x10]
	ldr         x8,[sp,#0x38]
	add         x8,x8,#0x2C0
	ldrsh       w9,[x8]
	mov         w9,w9
	ldr         w8,[sp,#0x1C]
	mul         w9,w9,w8
	ldr         w8,[sp,#0x14]
	sub         w8,w8,w9
	str         w8,[sp,#0x14]
	ldr         x8,[sp,#0x28]
	add         x8,x8,#0x300
	ldrsh       w8,[x8]
	mov         w8,w8
	str         w8,[sp,#0x1C]
	ldr         x8,[sp,#0x20]
	add         x8,x8,#0x340
	ldrsh       w9,[x8]
	mov         w9,w9
	ldr         w8,[sp,#0x1C]
	mul         w9,w9,w8
	ldr         w8,[sp,#0x10]
	sub         w8,w8,w9
	str         w8,[sp,#0x10]
	ldr         x8,[sp,#0x38]
	add         x8,x8,#0x340
	ldrsh       w9,[x8]
	mov         w9,w9
	ldr         w8,[sp,#0x1C]
	mul         w9,w9,w8
	ldr         w8,[sp,#0x14]
	sub         w8,w8,w9
	str         w8,[sp,#0x14]
	ldr         x8,[sp,#0x28]
	add         x8,x8,#0x380
	ldrsh       w8,[x8]
	mov         w8,w8
	str         w8,[sp,#0x1C]
	ldr         x8,[sp,#0x20]
	add         x8,x8,#0x3C0
	ldrsh       w9,[x8]
	mov         w9,w9
	ldr         w8,[sp,#0x1C]
	mul         w9,w9,w8
	ldr         w8,[sp,#0x10]
	sub         w8,w8,w9
	str         w8,[sp,#0x10]
	ldr         x8,[sp,#0x38]
	add         x8,x8,#0x3C0
	ldrsh       w9,[x8]
	mov         w9,w9
	ldr         w8,[sp,#0x1C]
	mul         w9,w9,w8
	ldr         w8,[sp,#0x14]
	sub         w8,w8,w9
	str         w8,[sp,#0x14]

; 2065 : 
; 2066 : 			*samples = round_sample(&sum);

	add         x0,sp,#0x10
	bl          |?round_sample@@YAHPEAH@Z|
	mov         w0,w0
	sxth        w9,w0
	ldr         x8,[sp,#0x58]
	strh        w9,[x8]

; 2067 : 			samples += incr;

	ldr         w8,[sp,#0x44]
	sxtw        x9,w8
	mov         x8,#2
	mul         x9,x9,x8
	ldr         x8,[sp,#0x58]
	add         x8,x8,x9
	str         x8,[sp,#0x58]

; 2068 : 			sum += sum2;

	ldr         w9,[sp,#0x10]
	ldr         w8,[sp,#0x14]
	add         w8,w9,w8
	str         w8,[sp,#0x10]

; 2069 : 			*samples2 = round_sample(&sum);

	add         x0,sp,#0x10
	bl          |?round_sample@@YAHPEAH@Z|
	mov         w0,w0
	sxth        w9,w0
	ldr         x8,[sp,#0x60]
	strh        w9,[x8]

; 2070 : 			samples2 -= incr;

	ldr         w8,[sp,#0x44]
	sxtw        x9,w8
	mov         x8,#2
	mul         x9,x9,x8
	ldr         x8,[sp,#0x60]
	sub         x8,x8,x9
	str         x8,[sp,#0x60]

; 2071 : 			w++;

	ldr         x8,[sp,#0x20]
	add         x8,x8,#2
	str         x8,[sp,#0x20]

; 2072 : 			w2--;

	ldr         x8,[sp,#0x38]
	sub         x8,x8,#2
	str         x8,[sp,#0x38]

; 2073 : 		}

	b           |$LN5@mp3_synth_|
|$LN6@mp3_synth_|

; 2074 : 
; 2075 : 		p = synth_buf + 32;

	ldr         x8,[sp,#0x50]
	add         x8,x8,#0x40
	str         x8,[sp,#0x28]

; 2076 : 		SUM8(sum, -= , w + 32, p);

	ldr         x8,[sp,#0x20]
	add         x8,x8,#0x40
	ldrsh       w9,[x8]
	mov         w9,w9
	ldr         x8,[sp,#0x28]
	ldrsh       w8,[x8]
	mov         w8,w8
	mul         w9,w9,w8
	ldr         w8,[sp,#0x10]
	sub         w8,w8,w9
	str         w8,[sp,#0x10]
	ldr         x8,[sp,#0x20]
	add         x8,x8,#0xC0
	ldrsh       w9,[x8]
	mov         w9,w9
	ldr         x8,[sp,#0x28]
	add         x8,x8,#0x80
	ldrsh       w8,[x8]
	mov         w8,w8
	mul         w9,w9,w8
	ldr         w8,[sp,#0x10]
	sub         w8,w8,w9
	str         w8,[sp,#0x10]
	ldr         x8,[sp,#0x20]
	add         x8,x8,#0x140
	ldrsh       w9,[x8]
	mov         w9,w9
	ldr         x8,[sp,#0x28]
	add         x8,x8,#0x100
	ldrsh       w8,[x8]
	mov         w8,w8
	mul         w9,w9,w8
	ldr         w8,[sp,#0x10]
	sub         w8,w8,w9
	str         w8,[sp,#0x10]
	ldr         x8,[sp,#0x20]
	add         x8,x8,#0x1C0
	ldrsh       w9,[x8]
	mov         w9,w9
	ldr         x8,[sp,#0x28]
	add         x8,x8,#0x180
	ldrsh       w8,[x8]
	mov         w8,w8
	mul         w9,w9,w8
	ldr         w8,[sp,#0x10]
	sub         w8,w8,w9
	str         w8,[sp,#0x10]
	ldr         x8,[sp,#0x20]
	add         x8,x8,#0x240
	ldrsh       w9,[x8]
	mov         w9,w9
	ldr         x8,[sp,#0x28]
	add         x8,x8,#0x200
	ldrsh       w8,[x8]
	mov         w8,w8
	mul         w9,w9,w8
	ldr         w8,[sp,#0x10]
	sub         w8,w8,w9
	str         w8,[sp,#0x10]
	ldr         x8,[sp,#0x20]
	add         x8,x8,#0x2C0
	ldrsh       w9,[x8]
	mov         w9,w9
	ldr         x8,[sp,#0x28]
	add         x8,x8,#0x280
	ldrsh       w8,[x8]
	mov         w8,w8
	mul         w9,w9,w8
	ldr         w8,[sp,#0x10]
	sub         w8,w8,w9
	str         w8,[sp,#0x10]
	ldr         x8,[sp,#0x20]
	add         x8,x8,#0x340
	ldrsh       w9,[x8]
	mov         w9,w9
	ldr         x8,[sp,#0x28]
	add         x8,x8,#0x300
	ldrsh       w8,[x8]
	mov         w8,w8
	mul         w9,w9,w8
	ldr         w8,[sp,#0x10]
	sub         w8,w8,w9
	str         w8,[sp,#0x10]
	ldr         x8,[sp,#0x20]
	add         x8,x8,#0x3C0
	ldrsh       w9,[x8]
	mov         w9,w9
	ldr         x8,[sp,#0x28]
	add         x8,x8,#0x380
	ldrsh       w8,[x8]
	mov         w8,w8
	mul         w9,w9,w8
	ldr         w8,[sp,#0x10]
	sub         w8,w8,w9
	str         w8,[sp,#0x10]

; 2077 : 		*samples = round_sample(&sum);

	add         x0,sp,#0x10
	bl          |?round_sample@@YAHPEAH@Z|
	mov         w0,w0
	sxth        w9,w0
	ldr         x8,[sp,#0x58]
	strh        w9,[x8]

; 2078 : 		*dither_state = sum;

	ldr         x9,[sp,#0x70]
	ldr         w8,[sp,#0x10]
	str         w8,[x9]

; 2079 : 
; 2080 : 		offset = (offset - 32) & 511;

	ldr         w8,[sp,#0x48]
	sub         w8,w8,#0x20
	and         w8,w8,#0x1FF
	str         w8,[sp,#0x48]

; 2081 : 		*synth_buf_offset = offset;

	ldr         x9,[sp,#0x78]
	ldr         w8,[sp,#0x48]
	str         w8,[x9]
	ldp         fp,lr,[sp],#0x110
	ret

	ENDP  ; |?mp3_synth_filter@@YAXPEAFPEAH010HQEAH@Z|, mp3_synth_filter

; Function compile flags: /Odtp
; File C:\Users\paras\source\repos\grep-name\XenevaOS\Process\AudioPlayer\minimp3.cpp

	AREA	|.text$mn|, CODE, ARM64

|?dct32@@YAXPEAH0@Z| PROC				; dct32

; 1856 : 	{

	sub         sp,sp,#0x20
	str         x0,[sp,#0x10]
	str         x1,[sp,#8]

; 1857 : 		int tmp0, tmp1;
; 1858 : 
; 1859 : 		/* pass 1 */
; 1860 : 		BF(0, 31, COS0_0, 1);

	ldr         x8,[sp,#8]
	add         x10,x8,#0x7C
	ldr         x8,[sp,#8]
	ldr         w9,[x8]
	ldr         w8,[x10]
	add         w8,w9,w8
	str         w8,[sp]
	ldr         x8,[sp,#8]
	add         x10,x8,#0x7C
	ldr         x8,[sp,#8]
	ldr         w9,[x8]
	ldr         w8,[x10]
	sub         w8,w9,w8
	str         w8,[sp,#4]
	ldr         x9,[sp,#8]
	ldr         w8,[sp]
	str         w8,[x9]
	ldr         w8,[sp,#4]
	lsl         w8,w8,#1
	sxtw        x9,w8
	ldr         x8,|$LN3@dct32|
	mul         x8,x9,x8
	asr         x8,x8,#0x20
	mov         w9,w8
	ldr         x8,[sp,#8]
	add         x8,x8,#0x7C
	str         w9,[x8]

; 1861 : 		BF(15, 16, COS0_15, 5);

	ldr         x8,[sp,#8]
	add         x9,x8,#0x3C
	ldr         x8,[sp,#8]
	add         x8,x8,#0x40
	ldr         w9,[x9]
	ldr         w8,[x8]
	add         w8,w9,w8
	str         w8,[sp]
	ldr         x8,[sp,#8]
	add         x9,x8,#0x3C
	ldr         x8,[sp,#8]
	add         x8,x8,#0x40
	ldr         w9,[x9]
	ldr         w8,[x8]
	sub         w8,w9,w8
	str         w8,[sp,#4]
	ldr         x8,[sp,#8]
	add         x9,x8,#0x3C
	ldr         w8,[sp]
	str         w8,[x9]
	ldr         w8,[sp,#4]
	lsl         w8,w8,#5
	sxtw        x9,w8
	ldr         x8,|$LN4@dct32|
	mul         x8,x9,x8
	asr         x8,x8,#0x20
	mov         w9,w8
	ldr         x8,[sp,#8]
	add         x8,x8,#0x40
	str         w9,[x8]

; 1862 : 		/* pass 2 */
; 1863 : 		BF(0, 15, COS1_0, 1);

	ldr         x8,[sp,#8]
	add         x10,x8,#0x3C
	ldr         x8,[sp,#8]
	ldr         w9,[x8]
	ldr         w8,[x10]
	add         w8,w9,w8
	str         w8,[sp]
	ldr         x8,[sp,#8]
	add         x10,x8,#0x3C
	ldr         x8,[sp,#8]
	ldr         w9,[x8]
	ldr         w8,[x10]
	sub         w8,w9,w8
	str         w8,[sp,#4]
	ldr         x9,[sp,#8]
	ldr         w8,[sp]
	str         w8,[x9]
	ldr         w8,[sp,#4]
	lsl         w8,w8,#1
	sxtw        x9,w8
	ldr         x8,|$LN5@dct32|
	mul         x8,x9,x8
	asr         x8,x8,#0x20
	mov         w9,w8
	ldr         x8,[sp,#8]
	add         x8,x8,#0x3C
	str         w9,[x8]

; 1864 : 		BF(16, 31, -COS1_0, 1);

	ldr         x8,[sp,#8]
	add         x9,x8,#0x40
	ldr         x8,[sp,#8]
	add         x8,x8,#0x7C
	ldr         w9,[x9]
	ldr         w8,[x8]
	add         w8,w9,w8
	str         w8,[sp]
	ldr         x8,[sp,#8]
	add         x9,x8,#0x40
	ldr         x8,[sp,#8]
	add         x8,x8,#0x7C
	ldr         w9,[x9]
	ldr         w8,[x8]
	sub         w8,w9,w8
	str         w8,[sp,#4]
	ldr         x8,[sp,#8]
	add         x9,x8,#0x40
	ldr         w8,[sp]
	str         w8,[x9]
	ldr         w8,[sp,#4]
	lsl         w8,w8,#1
	sxtw        x9,w8
	ldr         x8,|$LN6@dct32|
	mul         x8,x9,x8
	asr         x8,x8,#0x20
	mov         w9,w8
	ldr         x8,[sp,#8]
	add         x8,x8,#0x7C
	str         w9,[x8]

; 1865 : 		/* pass 1 */
; 1866 : 		BF(7, 24, COS0_7, 1);

	ldr         x8,[sp,#8]
	add         x9,x8,#0x1C
	ldr         x8,[sp,#8]
	add         x8,x8,#0x60
	ldr         w9,[x9]
	ldr         w8,[x8]
	add         w8,w9,w8
	str         w8,[sp]
	ldr         x8,[sp,#8]
	add         x9,x8,#0x1C
	ldr         x8,[sp,#8]
	add         x8,x8,#0x60
	ldr         w9,[x9]
	ldr         w8,[x8]
	sub         w8,w9,w8
	str         w8,[sp,#4]
	ldr         x8,[sp,#8]
	add         x9,x8,#0x1C
	ldr         w8,[sp]
	str         w8,[x9]
	ldr         w8,[sp,#4]
	lsl         w8,w8,#1
	sxtw        x9,w8
	ldr         x8,|$LN7@dct32|
	mul         x8,x9,x8
	asr         x8,x8,#0x20
	mov         w9,w8
	ldr         x8,[sp,#8]
	add         x8,x8,#0x60
	str         w9,[x8]

; 1867 : 		BF(8, 23, COS0_8, 1);

	ldr         x8,[sp,#8]
	add         x9,x8,#0x20
	ldr         x8,[sp,#8]
	add         x8,x8,#0x5C
	ldr         w9,[x9]
	ldr         w8,[x8]
	add         w8,w9,w8
	str         w8,[sp]
	ldr         x8,[sp,#8]
	add         x9,x8,#0x20
	ldr         x8,[sp,#8]
	add         x8,x8,#0x5C
	ldr         w9,[x9]
	ldr         w8,[x8]
	sub         w8,w9,w8
	str         w8,[sp,#4]
	ldr         x8,[sp,#8]
	add         x9,x8,#0x20
	ldr         w8,[sp]
	str         w8,[x9]
	ldr         w8,[sp,#4]
	lsl         w8,w8,#1
	sxtw        x9,w8
	ldr         x8,|$LN8@dct32|
	mul         x8,x9,x8
	asr         x8,x8,#0x20
	mov         w9,w8
	ldr         x8,[sp,#8]
	add         x8,x8,#0x5C
	str         w9,[x8]

; 1868 : 		/* pass 2 */
; 1869 : 		BF(7, 8, COS1_7, 4);

	ldr         x8,[sp,#8]
	add         x9,x8,#0x1C
	ldr         x8,[sp,#8]
	add         x8,x8,#0x20
	ldr         w9,[x9]
	ldr         w8,[x8]
	add         w8,w9,w8
	str         w8,[sp]
	ldr         x8,[sp,#8]
	add         x9,x8,#0x1C
	ldr         x8,[sp,#8]
	add         x8,x8,#0x20
	ldr         w9,[x9]
	ldr         w8,[x8]
	sub         w8,w9,w8
	str         w8,[sp,#4]
	ldr         x8,[sp,#8]
	add         x9,x8,#0x1C
	ldr         w8,[sp]
	str         w8,[x9]
	ldr         w8,[sp,#4]
	lsl         w8,w8,#4
	sxtw        x9,w8
	ldr         x8,|$LN9@dct32|
	mul         x8,x9,x8
	asr         x8,x8,#0x20
	mov         w9,w8
	ldr         x8,[sp,#8]
	add         x8,x8,#0x20
	str         w9,[x8]

; 1870 : 		BF(23, 24, -COS1_7, 4);

	ldr         x8,[sp,#8]
	add         x9,x8,#0x5C
	ldr         x8,[sp,#8]
	add         x8,x8,#0x60
	ldr         w9,[x9]
	ldr         w8,[x8]
	add         w8,w9,w8
	str         w8,[sp]
	ldr         x8,[sp,#8]
	add         x9,x8,#0x5C
	ldr         x8,[sp,#8]
	add         x8,x8,#0x60
	ldr         w9,[x9]
	ldr         w8,[x8]
	sub         w8,w9,w8
	str         w8,[sp,#4]
	ldr         x8,[sp,#8]
	add         x9,x8,#0x5C
	ldr         w8,[sp]
	str         w8,[x9]
	ldr         w8,[sp,#4]
	lsl         w8,w8,#4
	sxtw        x9,w8
	ldr         x8,|$LN10@dct32|
	mul         x8,x9,x8
	asr         x8,x8,#0x20
	mov         w9,w8
	ldr         x8,[sp,#8]
	add         x8,x8,#0x60
	str         w9,[x8]

; 1871 : 		/* pass 3 */
; 1872 : 		BF(0, 7, COS2_0, 1);

	ldr         x8,[sp,#8]
	add         x10,x8,#0x1C
	ldr         x8,[sp,#8]
	ldr         w9,[x8]
	ldr         w8,[x10]
	add         w8,w9,w8
	str         w8,[sp]
	ldr         x8,[sp,#8]
	add         x10,x8,#0x1C
	ldr         x8,[sp,#8]
	ldr         w9,[x8]
	ldr         w8,[x10]
	sub         w8,w9,w8
	str         w8,[sp,#4]
	ldr         x9,[sp,#8]
	ldr         w8,[sp]
	str         w8,[x9]
	ldr         w8,[sp,#4]
	lsl         w8,w8,#1
	sxtw        x9,w8
	ldr         x8,|$LN11@dct32|
	mul         x8,x9,x8
	asr         x8,x8,#0x20
	mov         w9,w8
	ldr         x8,[sp,#8]
	add         x8,x8,#0x1C
	str         w9,[x8]

; 1873 : 		BF(8, 15, -COS2_0, 1);

	ldr         x8,[sp,#8]
	add         x9,x8,#0x20
	ldr         x8,[sp,#8]
	add         x8,x8,#0x3C
	ldr         w9,[x9]
	ldr         w8,[x8]
	add         w8,w9,w8
	str         w8,[sp]
	ldr         x8,[sp,#8]
	add         x9,x8,#0x20
	ldr         x8,[sp,#8]
	add         x8,x8,#0x3C
	ldr         w9,[x9]
	ldr         w8,[x8]
	sub         w8,w9,w8
	str         w8,[sp,#4]
	ldr         x8,[sp,#8]
	add         x9,x8,#0x20
	ldr         w8,[sp]
	str         w8,[x9]
	ldr         w8,[sp,#4]
	lsl         w8,w8,#1
	sxtw        x9,w8
	ldr         x8,|$LN12@dct32|
	mul         x8,x9,x8
	asr         x8,x8,#0x20
	mov         w9,w8
	ldr         x8,[sp,#8]
	add         x8,x8,#0x3C
	str         w9,[x8]

; 1874 : 		BF(16, 23, COS2_0, 1);

	ldr         x8,[sp,#8]
	add         x9,x8,#0x40
	ldr         x8,[sp,#8]
	add         x8,x8,#0x5C
	ldr         w9,[x9]
	ldr         w8,[x8]
	add         w8,w9,w8
	str         w8,[sp]
	ldr         x8,[sp,#8]
	add         x9,x8,#0x40
	ldr         x8,[sp,#8]
	add         x8,x8,#0x5C
	ldr         w9,[x9]
	ldr         w8,[x8]
	sub         w8,w9,w8
	str         w8,[sp,#4]
	ldr         x8,[sp,#8]
	add         x9,x8,#0x40
	ldr         w8,[sp]
	str         w8,[x9]
	ldr         w8,[sp,#4]
	lsl         w8,w8,#1
	sxtw        x9,w8
	ldr         x8,|$LN11@dct32|
	mul         x8,x9,x8
	asr         x8,x8,#0x20
	mov         w9,w8
	ldr         x8,[sp,#8]
	add         x8,x8,#0x5C
	str         w9,[x8]

; 1875 : 		BF(24, 31, -COS2_0, 1);

	ldr         x8,[sp,#8]
	add         x9,x8,#0x60
	ldr         x8,[sp,#8]
	add         x8,x8,#0x7C
	ldr         w9,[x9]
	ldr         w8,[x8]
	add         w8,w9,w8
	str         w8,[sp]
	ldr         x8,[sp,#8]
	add         x9,x8,#0x60
	ldr         x8,[sp,#8]
	add         x8,x8,#0x7C
	ldr         w9,[x9]
	ldr         w8,[x8]
	sub         w8,w9,w8
	str         w8,[sp,#4]
	ldr         x8,[sp,#8]
	add         x9,x8,#0x60
	ldr         w8,[sp]
	str         w8,[x9]
	ldr         w8,[sp,#4]
	lsl         w8,w8,#1
	sxtw        x9,w8
	ldr         x8,|$LN12@dct32|
	mul         x8,x9,x8
	asr         x8,x8,#0x20
	mov         w9,w8
	ldr         x8,[sp,#8]
	add         x8,x8,#0x7C
	str         w9,[x8]

; 1876 : 		/* pass 1 */
; 1877 : 		BF(3, 28, COS0_3, 1);

	ldr         x8,[sp,#8]
	add         x9,x8,#0xC
	ldr         x8,[sp,#8]
	add         x8,x8,#0x70
	ldr         w9,[x9]
	ldr         w8,[x8]
	add         w8,w9,w8
	str         w8,[sp]
	ldr         x8,[sp,#8]
	add         x9,x8,#0xC
	ldr         x8,[sp,#8]
	add         x8,x8,#0x70
	ldr         w9,[x9]
	ldr         w8,[x8]
	sub         w8,w9,w8
	str         w8,[sp,#4]
	ldr         x8,[sp,#8]
	add         x9,x8,#0xC
	ldr         w8,[sp]
	str         w8,[x9]
	ldr         w8,[sp,#4]
	lsl         w8,w8,#1
	sxtw        x9,w8
	ldr         x8,|$LN13@dct32|
	mul         x8,x9,x8
	asr         x8,x8,#0x20
	mov         w9,w8
	ldr         x8,[sp,#8]
	add         x8,x8,#0x70
	str         w9,[x8]

; 1878 : 		BF(12, 19, COS0_12, 2);

	ldr         x8,[sp,#8]
	add         x9,x8,#0x30
	ldr         x8,[sp,#8]
	add         x8,x8,#0x4C
	ldr         w9,[x9]
	ldr         w8,[x8]
	add         w8,w9,w8
	str         w8,[sp]
	ldr         x8,[sp,#8]
	add         x9,x8,#0x30
	ldr         x8,[sp,#8]
	add         x8,x8,#0x4C
	ldr         w9,[x9]
	ldr         w8,[x8]
	sub         w8,w9,w8
	str         w8,[sp,#4]
	ldr         x8,[sp,#8]
	add         x9,x8,#0x30
	ldr         w8,[sp]
	str         w8,[x9]
	ldr         w8,[sp,#4]
	lsl         w8,w8,#2
	sxtw        x9,w8
	ldr         x8,|$LN14@dct32|
	mul         x8,x9,x8
	asr         x8,x8,#0x20
	mov         w9,w8
	ldr         x8,[sp,#8]
	add         x8,x8,#0x4C
	str         w9,[x8]

; 1879 : 		/* pass 2 */
; 1880 : 		BF(3, 12, COS1_3, 1);

	ldr         x8,[sp,#8]
	add         x9,x8,#0xC
	ldr         x8,[sp,#8]
	add         x8,x8,#0x30
	ldr         w9,[x9]
	ldr         w8,[x8]
	add         w8,w9,w8
	str         w8,[sp]
	ldr         x8,[sp,#8]
	add         x9,x8,#0xC
	ldr         x8,[sp,#8]
	add         x8,x8,#0x30
	ldr         w9,[x9]
	ldr         w8,[x8]
	sub         w8,w9,w8
	str         w8,[sp,#4]
	ldr         x8,[sp,#8]
	add         x9,x8,#0xC
	ldr         w8,[sp]
	str         w8,[x9]
	ldr         w8,[sp,#4]
	lsl         w8,w8,#1
	sxtw        x9,w8
	ldr         x8,|$LN15@dct32|
	mul         x8,x9,x8
	asr         x8,x8,#0x20
	mov         w9,w8
	ldr         x8,[sp,#8]
	add         x8,x8,#0x30
	str         w9,[x8]

; 1881 : 		BF(19, 28, -COS1_3, 1);

	ldr         x8,[sp,#8]
	add         x9,x8,#0x4C
	ldr         x8,[sp,#8]
	add         x8,x8,#0x70
	ldr         w9,[x9]
	ldr         w8,[x8]
	add         w8,w9,w8
	str         w8,[sp]
	ldr         x8,[sp,#8]
	add         x9,x8,#0x4C
	ldr         x8,[sp,#8]
	add         x8,x8,#0x70
	ldr         w9,[x9]
	ldr         w8,[x8]
	sub         w8,w9,w8
	str         w8,[sp,#4]
	ldr         x8,[sp,#8]
	add         x9,x8,#0x4C
	ldr         w8,[sp]
	str         w8,[x9]
	ldr         w8,[sp,#4]
	lsl         w8,w8,#1
	sxtw        x9,w8
	ldr         x8,|$LN16@dct32|
	mul         x8,x9,x8
	asr         x8,x8,#0x20
	mov         w9,w8
	ldr         x8,[sp,#8]
	add         x8,x8,#0x70
	str         w9,[x8]

; 1882 : 		/* pass 1 */
; 1883 : 		BF(4, 27, COS0_4, 1);

	ldr         x8,[sp,#8]
	add         x9,x8,#0x10
	ldr         x8,[sp,#8]
	add         x8,x8,#0x6C
	ldr         w9,[x9]
	ldr         w8,[x8]
	add         w8,w9,w8
	str         w8,[sp]
	ldr         x8,[sp,#8]
	add         x9,x8,#0x10
	ldr         x8,[sp,#8]
	add         x8,x8,#0x6C
	ldr         w9,[x9]
	ldr         w8,[x8]
	sub         w8,w9,w8
	str         w8,[sp,#4]
	ldr         x8,[sp,#8]
	add         x9,x8,#0x10
	ldr         w8,[sp]
	str         w8,[x9]
	ldr         w8,[sp,#4]
	lsl         w8,w8,#1
	sxtw        x9,w8
	ldr         x8,|$LN17@dct32|
	mul         x8,x9,x8
	asr         x8,x8,#0x20
	mov         w9,w8
	ldr         x8,[sp,#8]
	add         x8,x8,#0x6C
	str         w9,[x8]

; 1884 : 		BF(11, 20, COS0_11, 2);

	ldr         x8,[sp,#8]
	add         x9,x8,#0x2C
	ldr         x8,[sp,#8]
	add         x8,x8,#0x50
	ldr         w9,[x9]
	ldr         w8,[x8]
	add         w8,w9,w8
	str         w8,[sp]
	ldr         x8,[sp,#8]
	add         x9,x8,#0x2C
	ldr         x8,[sp,#8]
	add         x8,x8,#0x50
	ldr         w9,[x9]
	ldr         w8,[x8]
	sub         w8,w9,w8
	str         w8,[sp,#4]
	ldr         x8,[sp,#8]
	add         x9,x8,#0x2C
	ldr         w8,[sp]
	str         w8,[x9]
	ldr         w8,[sp,#4]
	lsl         w8,w8,#2
	sxtw        x9,w8
	ldr         x8,|$LN18@dct32|
	mul         x8,x9,x8
	asr         x8,x8,#0x20
	mov         w9,w8
	ldr         x8,[sp,#8]
	add         x8,x8,#0x50
	str         w9,[x8]

; 1885 : 		/* pass 2 */
; 1886 : 		BF(4, 11, COS1_4, 1);

	ldr         x8,[sp,#8]
	add         x9,x8,#0x10
	ldr         x8,[sp,#8]
	add         x8,x8,#0x2C
	ldr         w9,[x9]
	ldr         w8,[x8]
	add         w8,w9,w8
	str         w8,[sp]
	ldr         x8,[sp,#8]
	add         x9,x8,#0x10
	ldr         x8,[sp,#8]
	add         x8,x8,#0x2C
	ldr         w9,[x9]
	ldr         w8,[x8]
	sub         w8,w9,w8
	str         w8,[sp,#4]
	ldr         x8,[sp,#8]
	add         x9,x8,#0x10
	ldr         w8,[sp]
	str         w8,[x9]
	ldr         w8,[sp,#4]
	lsl         w8,w8,#1
	sxtw        x9,w8
	ldr         x8,|$LN19@dct32|
	mul         x8,x9,x8
	asr         x8,x8,#0x20
	mov         w9,w8
	ldr         x8,[sp,#8]
	add         x8,x8,#0x2C
	str         w9,[x8]

; 1887 : 		BF(20, 27, -COS1_4, 1);

	ldr         x8,[sp,#8]
	add         x9,x8,#0x50
	ldr         x8,[sp,#8]
	add         x8,x8,#0x6C
	ldr         w9,[x9]
	ldr         w8,[x8]
	add         w8,w9,w8
	str         w8,[sp]
	ldr         x8,[sp,#8]
	add         x9,x8,#0x50
	ldr         x8,[sp,#8]
	add         x8,x8,#0x6C
	ldr         w9,[x9]
	ldr         w8,[x8]
	sub         w8,w9,w8
	str         w8,[sp,#4]
	ldr         x8,[sp,#8]
	add         x9,x8,#0x50
	ldr         w8,[sp]
	str         w8,[x9]
	ldr         w8,[sp,#4]
	lsl         w8,w8,#1
	sxtw        x9,w8
	ldr         x8,|$LN20@dct32|
	mul         x8,x9,x8
	asr         x8,x8,#0x20
	mov         w9,w8
	ldr         x8,[sp,#8]
	add         x8,x8,#0x6C
	str         w9,[x8]

; 1888 : 		/* pass 3 */
; 1889 : 		BF(3, 4, COS2_3, 3);

	ldr         x8,[sp,#8]
	add         x9,x8,#0xC
	ldr         x8,[sp,#8]
	add         x8,x8,#0x10
	ldr         w9,[x9]
	ldr         w8,[x8]
	add         w8,w9,w8
	str         w8,[sp]
	ldr         x8,[sp,#8]
	add         x9,x8,#0xC
	ldr         x8,[sp,#8]
	add         x8,x8,#0x10
	ldr         w9,[x9]
	ldr         w8,[x8]
	sub         w8,w9,w8
	str         w8,[sp,#4]
	ldr         x8,[sp,#8]
	add         x9,x8,#0xC
	ldr         w8,[sp]
	str         w8,[x9]
	ldr         w8,[sp,#4]
	lsl         w8,w8,#3
	sxtw        x9,w8
	ldr         x8,|$LN21@dct32|
	mul         x8,x9,x8
	asr         x8,x8,#0x20
	mov         w9,w8
	ldr         x8,[sp,#8]
	add         x8,x8,#0x10
	str         w9,[x8]

; 1890 : 		BF(11, 12, -COS2_3, 3);

	ldr         x8,[sp,#8]
	add         x9,x8,#0x2C
	ldr         x8,[sp,#8]
	add         x8,x8,#0x30
	ldr         w9,[x9]
	ldr         w8,[x8]
	add         w8,w9,w8
	str         w8,[sp]
	ldr         x8,[sp,#8]
	add         x9,x8,#0x2C
	ldr         x8,[sp,#8]
	add         x8,x8,#0x30
	ldr         w9,[x9]
	ldr         w8,[x8]
	sub         w8,w9,w8
	str         w8,[sp,#4]
	ldr         x8,[sp,#8]
	add         x9,x8,#0x2C
	ldr         w8,[sp]
	str         w8,[x9]
	ldr         w8,[sp,#4]
	lsl         w8,w8,#3
	sxtw        x9,w8
	ldr         x8,|$LN22@dct32|
	mul         x8,x9,x8
	asr         x8,x8,#0x20
	mov         w9,w8
	ldr         x8,[sp,#8]
	add         x8,x8,#0x30
	str         w9,[x8]

; 1891 : 		BF(19, 20, COS2_3, 3);

	ldr         x8,[sp,#8]
	add         x9,x8,#0x4C
	ldr         x8,[sp,#8]
	add         x8,x8,#0x50
	ldr         w9,[x9]
	ldr         w8,[x8]
	add         w8,w9,w8
	str         w8,[sp]
	ldr         x8,[sp,#8]
	add         x9,x8,#0x4C
	ldr         x8,[sp,#8]
	add         x8,x8,#0x50
	ldr         w9,[x9]
	ldr         w8,[x8]
	sub         w8,w9,w8
	str         w8,[sp,#4]
	ldr         x8,[sp,#8]
	add         x9,x8,#0x4C
	ldr         w8,[sp]
	str         w8,[x9]
	ldr         w8,[sp,#4]
	lsl         w8,w8,#3
	sxtw        x9,w8
	ldr         x8,|$LN21@dct32|
	mul         x8,x9,x8
	asr         x8,x8,#0x20
	mov         w9,w8
	ldr         x8,[sp,#8]
	add         x8,x8,#0x50
	str         w9,[x8]

; 1892 : 		BF(27, 28, -COS2_3, 3);

	ldr         x8,[sp,#8]
	add         x9,x8,#0x6C
	ldr         x8,[sp,#8]
	add         x8,x8,#0x70
	ldr         w9,[x9]
	ldr         w8,[x8]
	add         w8,w9,w8
	str         w8,[sp]
	ldr         x8,[sp,#8]
	add         x9,x8,#0x6C
	ldr         x8,[sp,#8]
	add         x8,x8,#0x70
	ldr         w9,[x9]
	ldr         w8,[x8]
	sub         w8,w9,w8
	str         w8,[sp,#4]
	ldr         x8,[sp,#8]
	add         x9,x8,#0x6C
	ldr         w8,[sp]
	str         w8,[x9]
	ldr         w8,[sp,#4]
	lsl         w8,w8,#3
	sxtw        x9,w8
	ldr         x8,|$LN22@dct32|
	mul         x8,x9,x8
	asr         x8,x8,#0x20
	mov         w9,w8
	ldr         x8,[sp,#8]
	add         x8,x8,#0x70
	str         w9,[x8]

; 1893 : 		/* pass 4 */
; 1894 : 		BF(0, 3, COS3_0, 1);

	ldr         x8,[sp,#8]
	add         x10,x8,#0xC
	ldr         x8,[sp,#8]
	ldr         w9,[x8]
	ldr         w8,[x10]
	add         w8,w9,w8
	str         w8,[sp]
	ldr         x8,[sp,#8]
	add         x10,x8,#0xC
	ldr         x8,[sp,#8]
	ldr         w9,[x8]
	ldr         w8,[x10]
	sub         w8,w9,w8
	str         w8,[sp,#4]
	ldr         x9,[sp,#8]
	ldr         w8,[sp]
	str         w8,[x9]
	ldr         w8,[sp,#4]
	lsl         w8,w8,#1
	sxtw        x9,w8
	ldr         x8,|$LN23@dct32|
	mul         x8,x9,x8
	asr         x8,x8,#0x20
	mov         w9,w8
	ldr         x8,[sp,#8]
	add         x8,x8,#0xC
	str         w9,[x8]

; 1895 : 		BF(4, 7, -COS3_0, 1);

	ldr         x8,[sp,#8]
	add         x9,x8,#0x10
	ldr         x8,[sp,#8]
	add         x8,x8,#0x1C
	ldr         w9,[x9]
	ldr         w8,[x8]
	add         w8,w9,w8
	str         w8,[sp]
	ldr         x8,[sp,#8]
	add         x9,x8,#0x10
	ldr         x8,[sp,#8]
	add         x8,x8,#0x1C
	ldr         w9,[x9]
	ldr         w8,[x8]
	sub         w8,w9,w8
	str         w8,[sp,#4]
	ldr         x8,[sp,#8]
	add         x9,x8,#0x10
	ldr         w8,[sp]
	str         w8,[x9]
	ldr         w8,[sp,#4]
	lsl         w8,w8,#1
	sxtw        x9,w8
	ldr         x8,|$LN24@dct32|
	mul         x8,x9,x8
	asr         x8,x8,#0x20
	mov         w9,w8
	ldr         x8,[sp,#8]
	add         x8,x8,#0x1C
	str         w9,[x8]

; 1896 : 		BF(8, 11, COS3_0, 1);

	ldr         x8,[sp,#8]
	add         x9,x8,#0x20
	ldr         x8,[sp,#8]
	add         x8,x8,#0x2C
	ldr         w9,[x9]
	ldr         w8,[x8]
	add         w8,w9,w8
	str         w8,[sp]
	ldr         x8,[sp,#8]
	add         x9,x8,#0x20
	ldr         x8,[sp,#8]
	add         x8,x8,#0x2C
	ldr         w9,[x9]
	ldr         w8,[x8]
	sub         w8,w9,w8
	str         w8,[sp,#4]
	ldr         x8,[sp,#8]
	add         x9,x8,#0x20
	ldr         w8,[sp]
	str         w8,[x9]
	ldr         w8,[sp,#4]
	lsl         w8,w8,#1
	sxtw        x9,w8
	ldr         x8,|$LN23@dct32|
	mul         x8,x9,x8
	asr         x8,x8,#0x20
	mov         w9,w8
	ldr         x8,[sp,#8]
	add         x8,x8,#0x2C
	str         w9,[x8]

; 1897 : 		BF(12, 15, -COS3_0, 1);

	ldr         x8,[sp,#8]
	add         x9,x8,#0x30
	ldr         x8,[sp,#8]
	add         x8,x8,#0x3C
	ldr         w9,[x9]
	ldr         w8,[x8]
	add         w8,w9,w8
	str         w8,[sp]
	ldr         x8,[sp,#8]
	add         x9,x8,#0x30
	ldr         x8,[sp,#8]
	add         x8,x8,#0x3C
	ldr         w9,[x9]
	ldr         w8,[x8]
	sub         w8,w9,w8
	str         w8,[sp,#4]
	ldr         x8,[sp,#8]
	add         x9,x8,#0x30
	ldr         w8,[sp]
	str         w8,[x9]
	ldr         w8,[sp,#4]
	lsl         w8,w8,#1
	sxtw        x9,w8
	ldr         x8,|$LN24@dct32|
	mul         x8,x9,x8
	asr         x8,x8,#0x20
	mov         w9,w8
	ldr         x8,[sp,#8]
	add         x8,x8,#0x3C
	str         w9,[x8]

; 1898 : 		BF(16, 19, COS3_0, 1);

	ldr         x8,[sp,#8]
	add         x9,x8,#0x40
	ldr         x8,[sp,#8]
	add         x8,x8,#0x4C
	ldr         w9,[x9]
	ldr         w8,[x8]
	add         w8,w9,w8
	str         w8,[sp]
	ldr         x8,[sp,#8]
	add         x9,x8,#0x40
	ldr         x8,[sp,#8]
	add         x8,x8,#0x4C
	ldr         w9,[x9]
	ldr         w8,[x8]
	sub         w8,w9,w8
	str         w8,[sp,#4]
	ldr         x8,[sp,#8]
	add         x9,x8,#0x40
	ldr         w8,[sp]
	str         w8,[x9]
	ldr         w8,[sp,#4]
	lsl         w8,w8,#1
	sxtw        x9,w8
	ldr         x8,|$LN23@dct32|
	mul         x8,x9,x8
	asr         x8,x8,#0x20
	mov         w9,w8
	ldr         x8,[sp,#8]
	add         x8,x8,#0x4C
	str         w9,[x8]

; 1899 : 		BF(20, 23, -COS3_0, 1);

	ldr         x8,[sp,#8]
	add         x9,x8,#0x50
	ldr         x8,[sp,#8]
	add         x8,x8,#0x5C
	ldr         w9,[x9]
	ldr         w8,[x8]
	add         w8,w9,w8
	str         w8,[sp]
	ldr         x8,[sp,#8]
	add         x9,x8,#0x50
	ldr         x8,[sp,#8]
	add         x8,x8,#0x5C
	ldr         w9,[x9]
	ldr         w8,[x8]
	sub         w8,w9,w8
	str         w8,[sp,#4]
	ldr         x8,[sp,#8]
	add         x9,x8,#0x50
	ldr         w8,[sp]
	str         w8,[x9]
	ldr         w8,[sp,#4]
	lsl         w8,w8,#1
	sxtw        x9,w8
	ldr         x8,|$LN24@dct32|
	mul         x8,x9,x8
	asr         x8,x8,#0x20
	mov         w9,w8
	ldr         x8,[sp,#8]
	add         x8,x8,#0x5C
	str         w9,[x8]

; 1900 : 		BF(24, 27, COS3_0, 1);

	ldr         x8,[sp,#8]
	add         x9,x8,#0x60
	ldr         x8,[sp,#8]
	add         x8,x8,#0x6C
	ldr         w9,[x9]
	ldr         w8,[x8]
	add         w8,w9,w8
	str         w8,[sp]
	ldr         x8,[sp,#8]
	add         x9,x8,#0x60
	ldr         x8,[sp,#8]
	add         x8,x8,#0x6C
	ldr         w9,[x9]
	ldr         w8,[x8]
	sub         w8,w9,w8
	str         w8,[sp,#4]
	ldr         x8,[sp,#8]
	add         x9,x8,#0x60
	ldr         w8,[sp]
	str         w8,[x9]
	ldr         w8,[sp,#4]
	lsl         w8,w8,#1
	sxtw        x9,w8
	ldr         x8,|$LN23@dct32|
	mul         x8,x9,x8
	asr         x8,x8,#0x20
	mov         w9,w8
	ldr         x8,[sp,#8]
	add         x8,x8,#0x6C
	str         w9,[x8]

; 1901 : 		BF(28, 31, -COS3_0, 1);

	ldr         x8,[sp,#8]
	add         x9,x8,#0x70
	ldr         x8,[sp,#8]
	add         x8,x8,#0x7C
	ldr         w9,[x9]
	ldr         w8,[x8]
	add         w8,w9,w8
	str         w8,[sp]
	ldr         x8,[sp,#8]
	add         x9,x8,#0x70
	ldr         x8,[sp,#8]
	add         x8,x8,#0x7C
	ldr         w9,[x9]
	ldr         w8,[x8]
	sub         w8,w9,w8
	str         w8,[sp,#4]
	ldr         x8,[sp,#8]
	add         x9,x8,#0x70
	ldr         w8,[sp]
	str         w8,[x9]
	ldr         w8,[sp,#4]
	lsl         w8,w8,#1
	sxtw        x9,w8
	ldr         x8,|$LN24@dct32|
	mul         x8,x9,x8
	asr         x8,x8,#0x20
	mov         w9,w8
	ldr         x8,[sp,#8]
	add         x8,x8,#0x7C
	str         w9,[x8]

; 1902 : 
; 1903 : 
; 1904 : 
; 1905 : 		/* pass 1 */
; 1906 : 		BF(1, 30, COS0_1, 1);

	ldr         x8,[sp,#8]
	add         x9,x8,#4
	ldr         x8,[sp,#8]
	add         x8,x8,#0x78
	ldr         w9,[x9]
	ldr         w8,[x8]
	add         w8,w9,w8
	str         w8,[sp]
	ldr         x8,[sp,#8]
	add         x9,x8,#4
	ldr         x8,[sp,#8]
	add         x8,x8,#0x78
	ldr         w9,[x9]
	ldr         w8,[x8]
	sub         w8,w9,w8
	str         w8,[sp,#4]
	ldr         x8,[sp,#8]
	add         x9,x8,#4
	ldr         w8,[sp]
	str         w8,[x9]
	ldr         w8,[sp,#4]
	lsl         w8,w8,#1
	sxtw        x9,w8
	ldr         x8,|$LN25@dct32|
	mul         x8,x9,x8
	asr         x8,x8,#0x20
	mov         w9,w8
	ldr         x8,[sp,#8]
	add         x8,x8,#0x78
	str         w9,[x8]

; 1907 : 		BF(14, 17, COS0_14, 3);

	ldr         x8,[sp,#8]
	add         x9,x8,#0x38
	ldr         x8,[sp,#8]
	add         x8,x8,#0x44
	ldr         w9,[x9]
	ldr         w8,[x8]
	add         w8,w9,w8
	str         w8,[sp]
	ldr         x8,[sp,#8]
	add         x9,x8,#0x38
	ldr         x8,[sp,#8]
	add         x8,x8,#0x44
	ldr         w9,[x9]
	ldr         w8,[x8]
	sub         w8,w9,w8
	str         w8,[sp,#4]
	ldr         x8,[sp,#8]
	add         x9,x8,#0x38
	ldr         w8,[sp]
	str         w8,[x9]
	ldr         w8,[sp,#4]
	lsl         w8,w8,#3
	sxtw        x9,w8
	ldr         x8,|$LN26@dct32|
	mul         x8,x9,x8
	asr         x8,x8,#0x20
	mov         w9,w8
	ldr         x8,[sp,#8]
	add         x8,x8,#0x44
	str         w9,[x8]

; 1908 : 		/* pass 2 */
; 1909 : 		BF(1, 14, COS1_1, 1);

	ldr         x8,[sp,#8]
	add         x9,x8,#4
	ldr         x8,[sp,#8]
	add         x8,x8,#0x38
	ldr         w9,[x9]
	ldr         w8,[x8]
	add         w8,w9,w8
	str         w8,[sp]
	ldr         x8,[sp,#8]
	add         x9,x8,#4
	ldr         x8,[sp,#8]
	add         x8,x8,#0x38
	ldr         w9,[x9]
	ldr         w8,[x8]
	sub         w8,w9,w8
	str         w8,[sp,#4]
	ldr         x8,[sp,#8]
	add         x9,x8,#4
	ldr         w8,[sp]
	str         w8,[x9]
	ldr         w8,[sp,#4]
	lsl         w8,w8,#1
	sxtw        x9,w8
	ldr         x8,|$LN27@dct32|
	mul         x8,x9,x8
	asr         x8,x8,#0x20
	mov         w9,w8
	ldr         x8,[sp,#8]
	add         x8,x8,#0x38
	str         w9,[x8]

; 1910 : 		BF(17, 30, -COS1_1, 1);

	ldr         x8,[sp,#8]
	add         x9,x8,#0x44
	ldr         x8,[sp,#8]
	add         x8,x8,#0x78
	ldr         w9,[x9]
	ldr         w8,[x8]
	add         w8,w9,w8
	str         w8,[sp]
	ldr         x8,[sp,#8]
	add         x9,x8,#0x44
	ldr         x8,[sp,#8]
	add         x8,x8,#0x78
	ldr         w9,[x9]
	ldr         w8,[x8]
	sub         w8,w9,w8
	str         w8,[sp,#4]
	ldr         x8,[sp,#8]
	add         x9,x8,#0x44
	ldr         w8,[sp]
	str         w8,[x9]
	ldr         w8,[sp,#4]
	lsl         w8,w8,#1
	sxtw        x9,w8
	ldr         x8,|$LN28@dct32|
	mul         x8,x9,x8
	asr         x8,x8,#0x20
	mov         w9,w8
	ldr         x8,[sp,#8]
	add         x8,x8,#0x78
	str         w9,[x8]

; 1911 : 		/* pass 1 */
; 1912 : 		BF(6, 25, COS0_6, 1);

	ldr         x8,[sp,#8]
	add         x9,x8,#0x18
	ldr         x8,[sp,#8]
	add         x8,x8,#0x64
	ldr         w9,[x9]
	ldr         w8,[x8]
	add         w8,w9,w8
	str         w8,[sp]
	ldr         x8,[sp,#8]
	add         x9,x8,#0x18
	ldr         x8,[sp,#8]
	add         x8,x8,#0x64
	ldr         w9,[x9]
	ldr         w8,[x8]
	sub         w8,w9,w8
	str         w8,[sp,#4]
	ldr         x8,[sp,#8]
	add         x9,x8,#0x18
	ldr         w8,[sp]
	str         w8,[x9]
	ldr         w8,[sp,#4]
	lsl         w8,w8,#1
	sxtw        x9,w8
	ldr         x8,|$LN29@dct32|
	mul         x8,x9,x8
	asr         x8,x8,#0x20
	mov         w9,w8
	ldr         x8,[sp,#8]
	add         x8,x8,#0x64
	str         w9,[x8]

; 1913 : 		BF(9, 22, COS0_9, 1);

	ldr         x8,[sp,#8]
	add         x9,x8,#0x24
	ldr         x8,[sp,#8]
	add         x8,x8,#0x58
	ldr         w9,[x9]
	ldr         w8,[x8]
	add         w8,w9,w8
	str         w8,[sp]
	ldr         x8,[sp,#8]
	add         x9,x8,#0x24
	ldr         x8,[sp,#8]
	add         x8,x8,#0x58
	ldr         w9,[x9]
	ldr         w8,[x8]
	sub         w8,w9,w8
	str         w8,[sp,#4]
	ldr         x8,[sp,#8]
	add         x9,x8,#0x24
	ldr         w8,[sp]
	str         w8,[x9]
	ldr         w8,[sp,#4]
	lsl         w8,w8,#1
	sxtw        x9,w8
	ldr         x8,|$LN30@dct32|
	mul         x8,x9,x8
	asr         x8,x8,#0x20
	mov         w9,w8
	ldr         x8,[sp,#8]
	add         x8,x8,#0x58
	str         w9,[x8]

; 1914 : 		/* pass 2 */
; 1915 : 		BF(6, 9, COS1_6, 2);

	ldr         x8,[sp,#8]
	add         x9,x8,#0x18
	ldr         x8,[sp,#8]
	add         x8,x8,#0x24
	ldr         w9,[x9]
	ldr         w8,[x8]
	add         w8,w9,w8
	str         w8,[sp]
	ldr         x8,[sp,#8]
	add         x9,x8,#0x18
	ldr         x8,[sp,#8]
	add         x8,x8,#0x24
	ldr         w9,[x9]
	ldr         w8,[x8]
	sub         w8,w9,w8
	str         w8,[sp,#4]
	ldr         x8,[sp,#8]
	add         x9,x8,#0x18
	ldr         w8,[sp]
	str         w8,[x9]
	ldr         w8,[sp,#4]
	lsl         w8,w8,#2
	sxtw        x9,w8
	ldr         x8,|$LN31@dct32|
	mul         x8,x9,x8
	asr         x8,x8,#0x20
	mov         w9,w8
	ldr         x8,[sp,#8]
	add         x8,x8,#0x24
	str         w9,[x8]

; 1916 : 		BF(22, 25, -COS1_6, 2);

	ldr         x8,[sp,#8]
	add         x9,x8,#0x58
	ldr         x8,[sp,#8]
	add         x8,x8,#0x64
	ldr         w9,[x9]
	ldr         w8,[x8]
	add         w8,w9,w8
	str         w8,[sp]
	ldr         x8,[sp,#8]
	add         x9,x8,#0x58
	ldr         x8,[sp,#8]
	add         x8,x8,#0x64
	ldr         w9,[x9]
	ldr         w8,[x8]
	sub         w8,w9,w8
	str         w8,[sp,#4]
	ldr         x8,[sp,#8]
	add         x9,x8,#0x58
	ldr         w8,[sp]
	str         w8,[x9]
	ldr         w8,[sp,#4]
	lsl         w8,w8,#2
	sxtw        x9,w8
	ldr         x8,|$LN32@dct32|
	mul         x8,x9,x8
	asr         x8,x8,#0x20
	mov         w9,w8
	ldr         x8,[sp,#8]
	add         x8,x8,#0x64
	str         w9,[x8]

; 1917 : 		/* pass 3 */
; 1918 : 		BF(1, 6, COS2_1, 1);

	ldr         x8,[sp,#8]
	add         x9,x8,#4
	ldr         x8,[sp,#8]
	add         x8,x8,#0x18
	ldr         w9,[x9]
	ldr         w8,[x8]
	add         w8,w9,w8
	str         w8,[sp]
	ldr         x8,[sp,#8]
	add         x9,x8,#4
	ldr         x8,[sp,#8]
	add         x8,x8,#0x18
	ldr         w9,[x9]
	ldr         w8,[x8]
	sub         w8,w9,w8
	str         w8,[sp,#4]
	ldr         x8,[sp,#8]
	add         x9,x8,#4
	ldr         w8,[sp]
	str         w8,[x9]
	ldr         w8,[sp,#4]
	lsl         w8,w8,#1
	sxtw        x9,w8
	ldr         x8,|$LN33@dct32|
	mul         x8,x9,x8
	asr         x8,x8,#0x20
	mov         w9,w8
	ldr         x8,[sp,#8]
	add         x8,x8,#0x18
	str         w9,[x8]

; 1919 : 		BF(9, 14, -COS2_1, 1);

	ldr         x8,[sp,#8]
	add         x9,x8,#0x24
	ldr         x8,[sp,#8]
	add         x8,x8,#0x38
	ldr         w9,[x9]
	ldr         w8,[x8]
	add         w8,w9,w8
	str         w8,[sp]
	ldr         x8,[sp,#8]
	add         x9,x8,#0x24
	ldr         x8,[sp,#8]
	add         x8,x8,#0x38
	ldr         w9,[x9]
	ldr         w8,[x8]
	sub         w8,w9,w8
	str         w8,[sp,#4]
	ldr         x8,[sp,#8]
	add         x9,x8,#0x24
	ldr         w8,[sp]
	str         w8,[x9]
	ldr         w8,[sp,#4]
	lsl         w8,w8,#1
	sxtw        x9,w8
	ldr         x8,|$LN34@dct32|
	mul         x8,x9,x8
	asr         x8,x8,#0x20
	mov         w9,w8
	ldr         x8,[sp,#8]
	add         x8,x8,#0x38
	str         w9,[x8]

; 1920 : 		BF(17, 22, COS2_1, 1);

	ldr         x8,[sp,#8]
	add         x9,x8,#0x44
	ldr         x8,[sp,#8]
	add         x8,x8,#0x58
	ldr         w9,[x9]
	ldr         w8,[x8]
	add         w8,w9,w8
	str         w8,[sp]
	ldr         x8,[sp,#8]
	add         x9,x8,#0x44
	ldr         x8,[sp,#8]
	add         x8,x8,#0x58
	ldr         w9,[x9]
	ldr         w8,[x8]
	sub         w8,w9,w8
	str         w8,[sp,#4]
	ldr         x8,[sp,#8]
	add         x9,x8,#0x44
	ldr         w8,[sp]
	str         w8,[x9]
	ldr         w8,[sp,#4]
	lsl         w8,w8,#1
	sxtw        x9,w8
	ldr         x8,|$LN33@dct32|
	mul         x8,x9,x8
	asr         x8,x8,#0x20
	mov         w9,w8
	ldr         x8,[sp,#8]
	add         x8,x8,#0x58
	str         w9,[x8]

; 1921 : 		BF(25, 30, -COS2_1, 1);

	ldr         x8,[sp,#8]
	add         x9,x8,#0x64
	ldr         x8,[sp,#8]
	add         x8,x8,#0x78
	ldr         w9,[x9]
	ldr         w8,[x8]
	add         w8,w9,w8
	str         w8,[sp]
	ldr         x8,[sp,#8]
	add         x9,x8,#0x64
	ldr         x8,[sp,#8]
	add         x8,x8,#0x78
	ldr         w9,[x9]
	ldr         w8,[x8]
	sub         w8,w9,w8
	str         w8,[sp,#4]
	ldr         x8,[sp,#8]
	add         x9,x8,#0x64
	ldr         w8,[sp]
	str         w8,[x9]
	ldr         w8,[sp,#4]
	lsl         w8,w8,#1
	sxtw        x9,w8
	ldr         x8,|$LN34@dct32|
	mul         x8,x9,x8
	asr         x8,x8,#0x20
	mov         w9,w8
	ldr         x8,[sp,#8]
	add         x8,x8,#0x78
	str         w9,[x8]

; 1922 : 
; 1923 : 		/* pass 1 */
; 1924 : 		BF(2, 29, COS0_2, 1);

	ldr         x8,[sp,#8]
	add         x9,x8,#8
	ldr         x8,[sp,#8]
	add         x8,x8,#0x74
	ldr         w9,[x9]
	ldr         w8,[x8]
	add         w8,w9,w8
	str         w8,[sp]
	ldr         x8,[sp,#8]
	add         x9,x8,#8
	ldr         x8,[sp,#8]
	add         x8,x8,#0x74
	ldr         w9,[x9]
	ldr         w8,[x8]
	sub         w8,w9,w8
	str         w8,[sp,#4]
	ldr         x8,[sp,#8]
	add         x9,x8,#8
	ldr         w8,[sp]
	str         w8,[x9]
	ldr         w8,[sp,#4]
	lsl         w8,w8,#1
	sxtw        x9,w8
	ldr         x8,|$LN35@dct32|
	mul         x8,x9,x8
	asr         x8,x8,#0x20
	mov         w9,w8
	ldr         x8,[sp,#8]
	add         x8,x8,#0x74
	str         w9,[x8]

; 1925 : 		BF(13, 18, COS0_13, 3);

	ldr         x8,[sp,#8]
	add         x9,x8,#0x34
	ldr         x8,[sp,#8]
	add         x8,x8,#0x48
	ldr         w9,[x9]
	ldr         w8,[x8]
	add         w8,w9,w8
	str         w8,[sp]
	ldr         x8,[sp,#8]
	add         x9,x8,#0x34
	ldr         x8,[sp,#8]
	add         x8,x8,#0x48
	ldr         w9,[x9]
	ldr         w8,[x8]
	sub         w8,w9,w8
	str         w8,[sp,#4]
	ldr         x8,[sp,#8]
	add         x9,x8,#0x34
	ldr         w8,[sp]
	str         w8,[x9]
	ldr         w8,[sp,#4]
	lsl         w8,w8,#3
	sxtw        x9,w8
	ldr         x8,|$LN36@dct32|
	mul         x8,x9,x8
	asr         x8,x8,#0x20
	mov         w9,w8
	ldr         x8,[sp,#8]
	add         x8,x8,#0x48
	str         w9,[x8]

; 1926 : 		/* pass 2 */
; 1927 : 		BF(2, 13, COS1_2, 1);

	ldr         x8,[sp,#8]
	add         x9,x8,#8
	ldr         x8,[sp,#8]
	add         x8,x8,#0x34
	ldr         w9,[x9]
	ldr         w8,[x8]
	add         w8,w9,w8
	str         w8,[sp]
	ldr         x8,[sp,#8]
	add         x9,x8,#8
	ldr         x8,[sp,#8]
	add         x8,x8,#0x34
	ldr         w9,[x9]
	ldr         w8,[x8]
	sub         w8,w9,w8
	str         w8,[sp,#4]
	ldr         x8,[sp,#8]
	add         x9,x8,#8
	ldr         w8,[sp]
	str         w8,[x9]
	ldr         w8,[sp,#4]
	lsl         w8,w8,#1
	sxtw        x9,w8
	ldr         x8,|$LN37@dct32|
	mul         x8,x9,x8
	asr         x8,x8,#0x20
	mov         w9,w8
	ldr         x8,[sp,#8]
	add         x8,x8,#0x34
	str         w9,[x8]

; 1928 : 		BF(18, 29, -COS1_2, 1);

	ldr         x8,[sp,#8]
	add         x9,x8,#0x48
	ldr         x8,[sp,#8]
	add         x8,x8,#0x74
	ldr         w9,[x9]
	ldr         w8,[x8]
	add         w8,w9,w8
	str         w8,[sp]
	ldr         x8,[sp,#8]
	add         x9,x8,#0x48
	ldr         x8,[sp,#8]
	add         x8,x8,#0x74
	ldr         w9,[x9]
	ldr         w8,[x8]
	sub         w8,w9,w8
	str         w8,[sp,#4]
	ldr         x8,[sp,#8]
	add         x9,x8,#0x48
	ldr         w8,[sp]
	str         w8,[x9]
	ldr         w8,[sp,#4]
	lsl         w8,w8,#1
	sxtw        x9,w8
	ldr         x8,|$LN38@dct32|
	mul         x8,x9,x8
	asr         x8,x8,#0x20
	mov         w9,w8
	ldr         x8,[sp,#8]
	add         x8,x8,#0x74
	str         w9,[x8]

; 1929 : 		/* pass 1 */
; 1930 : 		BF(5, 26, COS0_5, 1);

	ldr         x8,[sp,#8]
	add         x9,x8,#0x14
	ldr         x8,[sp,#8]
	add         x8,x8,#0x68
	ldr         w9,[x9]
	ldr         w8,[x8]
	add         w8,w9,w8
	str         w8,[sp]
	ldr         x8,[sp,#8]
	add         x9,x8,#0x14
	ldr         x8,[sp,#8]
	add         x8,x8,#0x68
	ldr         w9,[x9]
	ldr         w8,[x8]
	sub         w8,w9,w8
	str         w8,[sp,#4]
	ldr         x8,[sp,#8]
	add         x9,x8,#0x14
	ldr         w8,[sp]
	str         w8,[x9]
	ldr         w8,[sp,#4]
	lsl         w8,w8,#1
	sxtw        x9,w8
	ldr         x8,|$LN39@dct32|
	mul         x8,x9,x8
	asr         x8,x8,#0x20
	mov         w9,w8
	ldr         x8,[sp,#8]
	add         x8,x8,#0x68
	str         w9,[x8]

; 1931 : 		BF(10, 21, COS0_10, 1);

	ldr         x8,[sp,#8]
	add         x9,x8,#0x28
	ldr         x8,[sp,#8]
	add         x8,x8,#0x54
	ldr         w9,[x9]
	ldr         w8,[x8]
	add         w8,w9,w8
	str         w8,[sp]
	ldr         x8,[sp,#8]
	add         x9,x8,#0x28
	ldr         x8,[sp,#8]
	add         x8,x8,#0x54
	ldr         w9,[x9]
	ldr         w8,[x8]
	sub         w8,w9,w8
	str         w8,[sp,#4]
	ldr         x8,[sp,#8]
	add         x9,x8,#0x28
	ldr         w8,[sp]
	str         w8,[x9]
	ldr         w8,[sp,#4]
	lsl         w8,w8,#1
	sxtw        x9,w8
	ldr         x8,|$LN40@dct32|
	mul         x8,x9,x8
	asr         x8,x8,#0x20
	mov         w9,w8
	ldr         x8,[sp,#8]
	add         x8,x8,#0x54
	str         w9,[x8]

; 1932 : 		/* pass 2 */
; 1933 : 		BF(5, 10, COS1_5, 2);

	ldr         x8,[sp,#8]
	add         x9,x8,#0x14
	ldr         x8,[sp,#8]
	add         x8,x8,#0x28
	ldr         w9,[x9]
	ldr         w8,[x8]
	add         w8,w9,w8
	str         w8,[sp]
	ldr         x8,[sp,#8]
	add         x9,x8,#0x14
	ldr         x8,[sp,#8]
	add         x8,x8,#0x28
	ldr         w9,[x9]
	ldr         w8,[x8]
	sub         w8,w9,w8
	str         w8,[sp,#4]
	ldr         x8,[sp,#8]
	add         x9,x8,#0x14
	ldr         w8,[sp]
	str         w8,[x9]
	ldr         w8,[sp,#4]
	lsl         w8,w8,#2
	sxtw        x9,w8
	ldr         x8,|$LN41@dct32|
	mul         x8,x9,x8
	asr         x8,x8,#0x20
	mov         w9,w8
	ldr         x8,[sp,#8]
	add         x8,x8,#0x28
	str         w9,[x8]

; 1934 : 		BF(21, 26, -COS1_5, 2);

	ldr         x8,[sp,#8]
	add         x9,x8,#0x54
	ldr         x8,[sp,#8]
	add         x8,x8,#0x68
	ldr         w9,[x9]
	ldr         w8,[x8]
	add         w8,w9,w8
	str         w8,[sp]
	ldr         x8,[sp,#8]
	add         x9,x8,#0x54
	ldr         x8,[sp,#8]
	add         x8,x8,#0x68
	ldr         w9,[x9]
	ldr         w8,[x8]
	sub         w8,w9,w8
	str         w8,[sp,#4]
	ldr         x8,[sp,#8]
	add         x9,x8,#0x54
	ldr         w8,[sp]
	str         w8,[x9]
	ldr         w8,[sp,#4]
	lsl         w8,w8,#2
	sxtw        x9,w8
	ldr         x8,|$LN42@dct32|
	mul         x8,x9,x8
	asr         x8,x8,#0x20
	mov         w9,w8
	ldr         x8,[sp,#8]
	add         x8,x8,#0x68
	str         w9,[x8]

; 1935 : 		/* pass 3 */
; 1936 : 		BF(2, 5, COS2_2, 1);

	ldr         x8,[sp,#8]
	add         x9,x8,#8
	ldr         x8,[sp,#8]
	add         x8,x8,#0x14
	ldr         w9,[x9]
	ldr         w8,[x8]
	add         w8,w9,w8
	str         w8,[sp]
	ldr         x8,[sp,#8]
	add         x9,x8,#8
	ldr         x8,[sp,#8]
	add         x8,x8,#0x14
	ldr         w9,[x9]
	ldr         w8,[x8]
	sub         w8,w9,w8
	str         w8,[sp,#4]
	ldr         x8,[sp,#8]
	add         x9,x8,#8
	ldr         w8,[sp]
	str         w8,[x9]
	ldr         w8,[sp,#4]
	lsl         w8,w8,#1
	sxtw        x9,w8
	ldr         x8,|$LN43@dct32|
	mul         x8,x9,x8
	asr         x8,x8,#0x20
	mov         w9,w8
	ldr         x8,[sp,#8]
	add         x8,x8,#0x14
	str         w9,[x8]

; 1937 : 		BF(10, 13, -COS2_2, 1);

	ldr         x8,[sp,#8]
	add         x9,x8,#0x28
	ldr         x8,[sp,#8]
	add         x8,x8,#0x34
	ldr         w9,[x9]
	ldr         w8,[x8]
	add         w8,w9,w8
	str         w8,[sp]
	ldr         x8,[sp,#8]
	add         x9,x8,#0x28
	ldr         x8,[sp,#8]
	add         x8,x8,#0x34
	ldr         w9,[x9]
	ldr         w8,[x8]
	sub         w8,w9,w8
	str         w8,[sp,#4]
	ldr         x8,[sp,#8]
	add         x9,x8,#0x28
	ldr         w8,[sp]
	str         w8,[x9]
	ldr         w8,[sp,#4]
	lsl         w8,w8,#1
	sxtw        x9,w8
	ldr         x8,|$LN44@dct32|
	mul         x8,x9,x8
	asr         x8,x8,#0x20
	mov         w9,w8
	ldr         x8,[sp,#8]
	add         x8,x8,#0x34
	str         w9,[x8]

; 1938 : 		BF(18, 21, COS2_2, 1);

	ldr         x8,[sp,#8]
	add         x9,x8,#0x48
	ldr         x8,[sp,#8]
	add         x8,x8,#0x54
	ldr         w9,[x9]
	ldr         w8,[x8]
	add         w8,w9,w8
	str         w8,[sp]
	ldr         x8,[sp,#8]
	add         x9,x8,#0x48
	ldr         x8,[sp,#8]
	add         x8,x8,#0x54
	ldr         w9,[x9]
	ldr         w8,[x8]
	sub         w8,w9,w8
	str         w8,[sp,#4]
	ldr         x8,[sp,#8]
	add         x9,x8,#0x48
	ldr         w8,[sp]
	str         w8,[x9]
	ldr         w8,[sp,#4]
	lsl         w8,w8,#1
	sxtw        x9,w8
	ldr         x8,|$LN43@dct32|
	mul         x8,x9,x8
	asr         x8,x8,#0x20
	mov         w9,w8
	ldr         x8,[sp,#8]
	add         x8,x8,#0x54
	str         w9,[x8]

; 1939 : 		BF(26, 29, -COS2_2, 1);

	ldr         x8,[sp,#8]
	add         x9,x8,#0x68
	ldr         x8,[sp,#8]
	add         x8,x8,#0x74
	ldr         w9,[x9]
	ldr         w8,[x8]
	add         w8,w9,w8
	str         w8,[sp]
	ldr         x8,[sp,#8]
	add         x9,x8,#0x68
	ldr         x8,[sp,#8]
	add         x8,x8,#0x74
	ldr         w9,[x9]
	ldr         w8,[x8]
	sub         w8,w9,w8
	str         w8,[sp,#4]
	ldr         x8,[sp,#8]
	add         x9,x8,#0x68
	ldr         w8,[sp]
	str         w8,[x9]
	ldr         w8,[sp,#4]
	lsl         w8,w8,#1
	sxtw        x9,w8
	ldr         x8,|$LN44@dct32|
	mul         x8,x9,x8
	asr         x8,x8,#0x20
	mov         w9,w8
	ldr         x8,[sp,#8]
	add         x8,x8,#0x74
	str         w9,[x8]

; 1940 : 		/* pass 4 */
; 1941 : 		BF(1, 2, COS3_1, 2);

	ldr         x8,[sp,#8]
	add         x9,x8,#4
	ldr         x8,[sp,#8]
	add         x8,x8,#8
	ldr         w9,[x9]
	ldr         w8,[x8]
	add         w8,w9,w8
	str         w8,[sp]
	ldr         x8,[sp,#8]
	add         x9,x8,#4
	ldr         x8,[sp,#8]
	add         x8,x8,#8
	ldr         w9,[x9]
	ldr         w8,[x8]
	sub         w8,w9,w8
	str         w8,[sp,#4]
	ldr         x8,[sp,#8]
	add         x9,x8,#4
	ldr         w8,[sp]
	str         w8,[x9]
	ldr         w8,[sp,#4]
	lsl         w8,w8,#2
	sxtw        x9,w8
	ldr         x8,|$LN45@dct32|
	mul         x8,x9,x8
	asr         x8,x8,#0x20
	mov         w9,w8
	ldr         x8,[sp,#8]
	add         x8,x8,#8
	str         w9,[x8]

; 1942 : 		BF(5, 6, -COS3_1, 2);

	ldr         x8,[sp,#8]
	add         x9,x8,#0x14
	ldr         x8,[sp,#8]
	add         x8,x8,#0x18
	ldr         w9,[x9]
	ldr         w8,[x8]
	add         w8,w9,w8
	str         w8,[sp]
	ldr         x8,[sp,#8]
	add         x9,x8,#0x14
	ldr         x8,[sp,#8]
	add         x8,x8,#0x18
	ldr         w9,[x9]
	ldr         w8,[x8]
	sub         w8,w9,w8
	str         w8,[sp,#4]
	ldr         x8,[sp,#8]
	add         x9,x8,#0x14
	ldr         w8,[sp]
	str         w8,[x9]
	ldr         w8,[sp,#4]
	lsl         w8,w8,#2
	sxtw        x9,w8
	ldr         x8,|$LN46@dct32|
	mul         x8,x9,x8
	asr         x8,x8,#0x20
	mov         w9,w8
	ldr         x8,[sp,#8]
	add         x8,x8,#0x18
	str         w9,[x8]

; 1943 : 		BF(9, 10, COS3_1, 2);

	ldr         x8,[sp,#8]
	add         x9,x8,#0x24
	ldr         x8,[sp,#8]
	add         x8,x8,#0x28
	ldr         w9,[x9]
	ldr         w8,[x8]
	add         w8,w9,w8
	str         w8,[sp]
	ldr         x8,[sp,#8]
	add         x9,x8,#0x24
	ldr         x8,[sp,#8]
	add         x8,x8,#0x28
	ldr         w9,[x9]
	ldr         w8,[x8]
	sub         w8,w9,w8
	str         w8,[sp,#4]
	ldr         x8,[sp,#8]
	add         x9,x8,#0x24
	ldr         w8,[sp]
	str         w8,[x9]
	ldr         w8,[sp,#4]
	lsl         w8,w8,#2
	sxtw        x9,w8
	ldr         x8,|$LN45@dct32|
	mul         x8,x9,x8
	asr         x8,x8,#0x20
	mov         w9,w8
	ldr         x8,[sp,#8]
	add         x8,x8,#0x28
	str         w9,[x8]

; 1944 : 		BF(13, 14, -COS3_1, 2);

	ldr         x8,[sp,#8]
	add         x9,x8,#0x34
	ldr         x8,[sp,#8]
	add         x8,x8,#0x38
	ldr         w9,[x9]
	ldr         w8,[x8]
	add         w8,w9,w8
	str         w8,[sp]
	ldr         x8,[sp,#8]
	add         x9,x8,#0x34
	ldr         x8,[sp,#8]
	add         x8,x8,#0x38
	ldr         w9,[x9]
	ldr         w8,[x8]
	sub         w8,w9,w8
	str         w8,[sp,#4]
	ldr         x8,[sp,#8]
	add         x9,x8,#0x34
	ldr         w8,[sp]
	str         w8,[x9]
	ldr         w8,[sp,#4]
	lsl         w8,w8,#2
	sxtw        x9,w8
	ldr         x8,|$LN46@dct32|
	mul         x8,x9,x8
	asr         x8,x8,#0x20
	mov         w9,w8
	ldr         x8,[sp,#8]
	add         x8,x8,#0x38
	str         w9,[x8]

; 1945 : 		BF(17, 18, COS3_1, 2);

	ldr         x8,[sp,#8]
	add         x9,x8,#0x44
	ldr         x8,[sp,#8]
	add         x8,x8,#0x48
	ldr         w9,[x9]
	ldr         w8,[x8]
	add         w8,w9,w8
	str         w8,[sp]
	ldr         x8,[sp,#8]
	add         x9,x8,#0x44
	ldr         x8,[sp,#8]
	add         x8,x8,#0x48
	ldr         w9,[x9]
	ldr         w8,[x8]
	sub         w8,w9,w8
	str         w8,[sp,#4]
	ldr         x8,[sp,#8]
	add         x9,x8,#0x44
	ldr         w8,[sp]
	str         w8,[x9]
	ldr         w8,[sp,#4]
	lsl         w8,w8,#2
	sxtw        x9,w8
	ldr         x8,|$LN45@dct32|
	mul         x8,x9,x8
	asr         x8,x8,#0x20
	mov         w9,w8
	ldr         x8,[sp,#8]
	add         x8,x8,#0x48
	str         w9,[x8]

; 1946 : 		BF(21, 22, -COS3_1, 2);

	ldr         x8,[sp,#8]
	add         x9,x8,#0x54
	ldr         x8,[sp,#8]
	add         x8,x8,#0x58
	ldr         w9,[x9]
	ldr         w8,[x8]
	add         w8,w9,w8
	str         w8,[sp]
	ldr         x8,[sp,#8]
	add         x9,x8,#0x54
	ldr         x8,[sp,#8]
	add         x8,x8,#0x58
	ldr         w9,[x9]
	ldr         w8,[x8]
	sub         w8,w9,w8
	str         w8,[sp,#4]
	ldr         x8,[sp,#8]
	add         x9,x8,#0x54
	ldr         w8,[sp]
	str         w8,[x9]
	ldr         w8,[sp,#4]
	lsl         w8,w8,#2
	sxtw        x9,w8
	ldr         x8,|$LN46@dct32|
	mul         x8,x9,x8
	asr         x8,x8,#0x20
	mov         w9,w8
	ldr         x8,[sp,#8]
	add         x8,x8,#0x58
	str         w9,[x8]

; 1947 : 		BF(25, 26, COS3_1, 2);

	ldr         x8,[sp,#8]
	add         x9,x8,#0x64
	ldr         x8,[sp,#8]
	add         x8,x8,#0x68
	ldr         w9,[x9]
	ldr         w8,[x8]
	add         w8,w9,w8
	str         w8,[sp]
	ldr         x8,[sp,#8]
	add         x9,x8,#0x64
	ldr         x8,[sp,#8]
	add         x8,x8,#0x68
	ldr         w9,[x9]
	ldr         w8,[x8]
	sub         w8,w9,w8
	str         w8,[sp,#4]
	ldr         x8,[sp,#8]
	add         x9,x8,#0x64
	ldr         w8,[sp]
	str         w8,[x9]
	ldr         w8,[sp,#4]
	lsl         w8,w8,#2
	sxtw        x9,w8
	ldr         x8,|$LN45@dct32|
	mul         x8,x9,x8
	asr         x8,x8,#0x20
	mov         w9,w8
	ldr         x8,[sp,#8]
	add         x8,x8,#0x68
	str         w9,[x8]

; 1948 : 		BF(29, 30, -COS3_1, 2);

	ldr         x8,[sp,#8]
	add         x9,x8,#0x74
	ldr         x8,[sp,#8]
	add         x8,x8,#0x78
	ldr         w9,[x9]
	ldr         w8,[x8]
	add         w8,w9,w8
	str         w8,[sp]
	ldr         x8,[sp,#8]
	add         x9,x8,#0x74
	ldr         x8,[sp,#8]
	add         x8,x8,#0x78
	ldr         w9,[x9]
	ldr         w8,[x8]
	sub         w8,w9,w8
	str         w8,[sp,#4]
	ldr         x8,[sp,#8]
	add         x9,x8,#0x74
	ldr         w8,[sp]
	str         w8,[x9]
	ldr         w8,[sp,#4]
	lsl         w8,w8,#2
	sxtw        x9,w8
	ldr         x8,|$LN46@dct32|
	mul         x8,x9,x8
	asr         x8,x8,#0x20
	mov         w9,w8
	ldr         x8,[sp,#8]
	add         x8,x8,#0x78
	str         w9,[x8]

; 1949 : 
; 1950 : 		/* pass 5 */
; 1951 : 		BF1(0, 1, 2, 3);

	ldr         x8,[sp,#8]
	add         x10,x8,#4
	ldr         x8,[sp,#8]
	ldr         w9,[x8]
	ldr         w8,[x10]
	add         w8,w9,w8
	str         w8,[sp]
	ldr         x8,[sp,#8]
	add         x10,x8,#4
	ldr         x8,[sp,#8]
	ldr         w9,[x8]
	ldr         w8,[x10]
	sub         w8,w9,w8
	str         w8,[sp,#4]
	ldr         x9,[sp,#8]
	ldr         w8,[sp]
	str         w8,[x9]
	ldr         w8,[sp,#4]
	lsl         w8,w8,#1
	sxtw        x9,w8
	ldr         x8,|$LN47@dct32|
	mul         x8,x9,x8
	asr         x8,x8,#0x20
	mov         w9,w8
	ldr         x8,[sp,#8]
	add         x8,x8,#4
	str         w9,[x8]
	ldr         x8,[sp,#8]
	add         x9,x8,#8
	ldr         x8,[sp,#8]
	add         x8,x8,#0xC
	ldr         w9,[x9]
	ldr         w8,[x8]
	add         w8,w9,w8
	str         w8,[sp]
	ldr         x8,[sp,#8]
	add         x9,x8,#8
	ldr         x8,[sp,#8]
	add         x8,x8,#0xC
	ldr         w9,[x9]
	ldr         w8,[x8]
	sub         w8,w9,w8
	str         w8,[sp,#4]
	ldr         x8,[sp,#8]
	add         x9,x8,#8
	ldr         w8,[sp]
	str         w8,[x9]
	ldr         w8,[sp,#4]
	lsl         w8,w8,#1
	sxtw        x9,w8
	ldr         x8,|$LN48@dct32|
	mul         x8,x9,x8
	asr         x8,x8,#0x20
	mov         w9,w8
	ldr         x8,[sp,#8]
	add         x8,x8,#0xC
	str         w9,[x8]
	ldr         x8,[sp,#8]
	add         x9,x8,#8
	ldr         x8,[sp,#8]
	add         x8,x8,#0xC
	ldr         w9,[x9]
	ldr         w8,[x8]
	add         w9,w9,w8
	ldr         x8,[sp,#8]
	add         x8,x8,#8
	str         w9,[x8]

; 1952 : 		BF2(4, 5, 6, 7);

	ldr         x8,[sp,#8]
	add         x9,x8,#0x10
	ldr         x8,[sp,#8]
	add         x8,x8,#0x14
	ldr         w9,[x9]
	ldr         w8,[x8]
	add         w8,w9,w8
	str         w8,[sp]
	ldr         x8,[sp,#8]
	add         x9,x8,#0x10
	ldr         x8,[sp,#8]
	add         x8,x8,#0x14
	ldr         w9,[x9]
	ldr         w8,[x8]
	sub         w8,w9,w8
	str         w8,[sp,#4]
	ldr         x8,[sp,#8]
	add         x9,x8,#0x10
	ldr         w8,[sp]
	str         w8,[x9]
	ldr         w8,[sp,#4]
	lsl         w8,w8,#1
	sxtw        x9,w8
	ldr         x8,|$LN47@dct32|
	mul         x8,x9,x8
	asr         x8,x8,#0x20
	mov         w9,w8
	ldr         x8,[sp,#8]
	add         x8,x8,#0x14
	str         w9,[x8]
	ldr         x8,[sp,#8]
	add         x9,x8,#0x18
	ldr         x8,[sp,#8]
	add         x8,x8,#0x1C
	ldr         w9,[x9]
	ldr         w8,[x8]
	add         w8,w9,w8
	str         w8,[sp]
	ldr         x8,[sp,#8]
	add         x9,x8,#0x18
	ldr         x8,[sp,#8]
	add         x8,x8,#0x1C
	ldr         w9,[x9]
	ldr         w8,[x8]
	sub         w8,w9,w8
	str         w8,[sp,#4]
	ldr         x8,[sp,#8]
	add         x9,x8,#0x18
	ldr         w8,[sp]
	str         w8,[x9]
	ldr         w8,[sp,#4]
	lsl         w8,w8,#1
	sxtw        x9,w8
	ldr         x8,|$LN48@dct32|
	mul         x8,x9,x8
	asr         x8,x8,#0x20
	mov         w9,w8
	ldr         x8,[sp,#8]
	add         x8,x8,#0x1C
	str         w9,[x8]
	ldr         x8,[sp,#8]
	add         x9,x8,#0x18
	ldr         x8,[sp,#8]
	add         x8,x8,#0x1C
	ldr         w9,[x9]
	ldr         w8,[x8]
	add         w9,w9,w8
	ldr         x8,[sp,#8]
	add         x8,x8,#0x18
	str         w9,[x8]
	ldr         x8,[sp,#8]
	add         x9,x8,#0x10
	ldr         x8,[sp,#8]
	add         x8,x8,#0x18
	ldr         w9,[x9]
	ldr         w8,[x8]
	add         w9,w9,w8
	ldr         x8,[sp,#8]
	add         x8,x8,#0x10
	str         w9,[x8]
	ldr         x8,[sp,#8]
	add         x9,x8,#0x18
	ldr         x8,[sp,#8]
	add         x8,x8,#0x14
	ldr         w9,[x9]
	ldr         w8,[x8]
	add         w9,w9,w8
	ldr         x8,[sp,#8]
	add         x8,x8,#0x18
	str         w9,[x8]
	ldr         x8,[sp,#8]
	add         x9,x8,#0x14
	ldr         x8,[sp,#8]
	add         x8,x8,#0x1C
	ldr         w9,[x9]
	ldr         w8,[x8]
	add         w9,w9,w8
	ldr         x8,[sp,#8]
	add         x8,x8,#0x14
	str         w9,[x8]

; 1953 : 		BF1(8, 9, 10, 11);

	ldr         x8,[sp,#8]
	add         x9,x8,#0x20
	ldr         x8,[sp,#8]
	add         x8,x8,#0x24
	ldr         w9,[x9]
	ldr         w8,[x8]
	add         w8,w9,w8
	str         w8,[sp]
	ldr         x8,[sp,#8]
	add         x9,x8,#0x20
	ldr         x8,[sp,#8]
	add         x8,x8,#0x24
	ldr         w9,[x9]
	ldr         w8,[x8]
	sub         w8,w9,w8
	str         w8,[sp,#4]
	ldr         x8,[sp,#8]
	add         x9,x8,#0x20
	ldr         w8,[sp]
	str         w8,[x9]
	ldr         w8,[sp,#4]
	lsl         w8,w8,#1
	sxtw        x9,w8
	ldr         x8,|$LN47@dct32|
	mul         x8,x9,x8
	asr         x8,x8,#0x20
	mov         w9,w8
	ldr         x8,[sp,#8]
	add         x8,x8,#0x24
	str         w9,[x8]
	ldr         x8,[sp,#8]
	add         x9,x8,#0x28
	ldr         x8,[sp,#8]
	add         x8,x8,#0x2C
	ldr         w9,[x9]
	ldr         w8,[x8]
	add         w8,w9,w8
	str         w8,[sp]
	ldr         x8,[sp,#8]
	add         x9,x8,#0x28
	ldr         x8,[sp,#8]
	add         x8,x8,#0x2C
	ldr         w9,[x9]
	ldr         w8,[x8]
	sub         w8,w9,w8
	str         w8,[sp,#4]
	ldr         x8,[sp,#8]
	add         x9,x8,#0x28
	ldr         w8,[sp]
	str         w8,[x9]
	ldr         w8,[sp,#4]
	lsl         w8,w8,#1
	sxtw        x9,w8
	ldr         x8,|$LN48@dct32|
	mul         x8,x9,x8
	asr         x8,x8,#0x20
	mov         w9,w8
	ldr         x8,[sp,#8]
	add         x8,x8,#0x2C
	str         w9,[x8]
	ldr         x8,[sp,#8]
	add         x9,x8,#0x28
	ldr         x8,[sp,#8]
	add         x8,x8,#0x2C
	ldr         w9,[x9]
	ldr         w8,[x8]
	add         w9,w9,w8
	ldr         x8,[sp,#8]
	add         x8,x8,#0x28
	str         w9,[x8]

; 1954 : 		BF2(12, 13, 14, 15);

	ldr         x8,[sp,#8]
	add         x9,x8,#0x30
	ldr         x8,[sp,#8]
	add         x8,x8,#0x34
	ldr         w9,[x9]
	ldr         w8,[x8]
	add         w8,w9,w8
	str         w8,[sp]
	ldr         x8,[sp,#8]
	add         x9,x8,#0x30
	ldr         x8,[sp,#8]
	add         x8,x8,#0x34
	ldr         w9,[x9]
	ldr         w8,[x8]
	sub         w8,w9,w8
	str         w8,[sp,#4]
	ldr         x8,[sp,#8]
	add         x9,x8,#0x30
	ldr         w8,[sp]
	str         w8,[x9]
	ldr         w8,[sp,#4]
	lsl         w8,w8,#1
	sxtw        x9,w8
	ldr         x8,|$LN47@dct32|
	mul         x8,x9,x8
	asr         x8,x8,#0x20
	mov         w9,w8
	ldr         x8,[sp,#8]
	add         x8,x8,#0x34
	str         w9,[x8]
	ldr         x8,[sp,#8]
	add         x9,x8,#0x38
	ldr         x8,[sp,#8]
	add         x8,x8,#0x3C
	ldr         w9,[x9]
	ldr         w8,[x8]
	add         w8,w9,w8
	str         w8,[sp]
	ldr         x8,[sp,#8]
	add         x9,x8,#0x38
	ldr         x8,[sp,#8]
	add         x8,x8,#0x3C
	ldr         w9,[x9]
	ldr         w8,[x8]
	sub         w8,w9,w8
	str         w8,[sp,#4]
	ldr         x8,[sp,#8]
	add         x9,x8,#0x38
	ldr         w8,[sp]
	str         w8,[x9]
	ldr         w8,[sp,#4]
	lsl         w8,w8,#1
	sxtw        x9,w8
	ldr         x8,|$LN48@dct32|
	mul         x8,x9,x8
	asr         x8,x8,#0x20
	mov         w9,w8
	ldr         x8,[sp,#8]
	add         x8,x8,#0x3C
	str         w9,[x8]
	ldr         x8,[sp,#8]
	add         x9,x8,#0x38
	ldr         x8,[sp,#8]
	add         x8,x8,#0x3C
	ldr         w9,[x9]
	ldr         w8,[x8]
	add         w9,w9,w8
	ldr         x8,[sp,#8]
	add         x8,x8,#0x38
	str         w9,[x8]
	ldr         x8,[sp,#8]
	add         x9,x8,#0x30
	ldr         x8,[sp,#8]
	add         x8,x8,#0x38
	ldr         w9,[x9]
	ldr         w8,[x8]
	add         w9,w9,w8
	ldr         x8,[sp,#8]
	add         x8,x8,#0x30
	str         w9,[x8]
	ldr         x8,[sp,#8]
	add         x9,x8,#0x38
	ldr         x8,[sp,#8]
	add         x8,x8,#0x34
	ldr         w9,[x9]
	ldr         w8,[x8]
	add         w9,w9,w8
	ldr         x8,[sp,#8]
	add         x8,x8,#0x38
	str         w9,[x8]
	ldr         x8,[sp,#8]
	add         x9,x8,#0x34
	ldr         x8,[sp,#8]
	add         x8,x8,#0x3C
	ldr         w9,[x9]
	ldr         w8,[x8]
	add         w9,w9,w8
	ldr         x8,[sp,#8]
	add         x8,x8,#0x34
	str         w9,[x8]

; 1955 : 		BF1(16, 17, 18, 19);

	ldr         x8,[sp,#8]
	add         x9,x8,#0x40
	ldr         x8,[sp,#8]
	add         x8,x8,#0x44
	ldr         w9,[x9]
	ldr         w8,[x8]
	add         w8,w9,w8
	str         w8,[sp]
	ldr         x8,[sp,#8]
	add         x9,x8,#0x40
	ldr         x8,[sp,#8]
	add         x8,x8,#0x44
	ldr         w9,[x9]
	ldr         w8,[x8]
	sub         w8,w9,w8
	str         w8,[sp,#4]
	ldr         x8,[sp,#8]
	add         x9,x8,#0x40
	ldr         w8,[sp]
	str         w8,[x9]
	ldr         w8,[sp,#4]
	lsl         w8,w8,#1
	sxtw        x9,w8
	ldr         x8,|$LN47@dct32|
	mul         x8,x9,x8
	asr         x8,x8,#0x20
	mov         w9,w8
	ldr         x8,[sp,#8]
	add         x8,x8,#0x44
	str         w9,[x8]
	ldr         x8,[sp,#8]
	add         x9,x8,#0x48
	ldr         x8,[sp,#8]
	add         x8,x8,#0x4C
	ldr         w9,[x9]
	ldr         w8,[x8]
	add         w8,w9,w8
	str         w8,[sp]
	ldr         x8,[sp,#8]
	add         x9,x8,#0x48
	ldr         x8,[sp,#8]
	add         x8,x8,#0x4C
	ldr         w9,[x9]
	ldr         w8,[x8]
	sub         w8,w9,w8
	str         w8,[sp,#4]
	ldr         x8,[sp,#8]
	add         x9,x8,#0x48
	ldr         w8,[sp]
	str         w8,[x9]
	ldr         w8,[sp,#4]
	lsl         w8,w8,#1
	sxtw        x9,w8
	ldr         x8,|$LN48@dct32|
	mul         x8,x9,x8
	asr         x8,x8,#0x20
	mov         w9,w8
	ldr         x8,[sp,#8]
	add         x8,x8,#0x4C
	str         w9,[x8]
	ldr         x8,[sp,#8]
	add         x9,x8,#0x48
	ldr         x8,[sp,#8]
	add         x8,x8,#0x4C
	ldr         w9,[x9]
	ldr         w8,[x8]
	add         w9,w9,w8
	ldr         x8,[sp,#8]
	add         x8,x8,#0x48
	str         w9,[x8]

; 1956 : 		BF2(20, 21, 22, 23);

	ldr         x8,[sp,#8]
	add         x9,x8,#0x50
	ldr         x8,[sp,#8]
	add         x8,x8,#0x54
	ldr         w9,[x9]
	ldr         w8,[x8]
	add         w8,w9,w8
	str         w8,[sp]
	ldr         x8,[sp,#8]
	add         x9,x8,#0x50
	ldr         x8,[sp,#8]
	add         x8,x8,#0x54
	ldr         w9,[x9]
	ldr         w8,[x8]
	sub         w8,w9,w8
	str         w8,[sp,#4]
	ldr         x8,[sp,#8]
	add         x9,x8,#0x50
	ldr         w8,[sp]
	str         w8,[x9]
	ldr         w8,[sp,#4]
	lsl         w8,w8,#1
	sxtw        x9,w8
	ldr         x8,|$LN47@dct32|
	mul         x8,x9,x8
	asr         x8,x8,#0x20
	mov         w9,w8
	ldr         x8,[sp,#8]
	add         x8,x8,#0x54
	str         w9,[x8]
	ldr         x8,[sp,#8]
	add         x9,x8,#0x58
	ldr         x8,[sp,#8]
	add         x8,x8,#0x5C
	ldr         w9,[x9]
	ldr         w8,[x8]
	add         w8,w9,w8
	str         w8,[sp]
	ldr         x8,[sp,#8]
	add         x9,x8,#0x58
	ldr         x8,[sp,#8]
	add         x8,x8,#0x5C
	ldr         w9,[x9]
	ldr         w8,[x8]
	sub         w8,w9,w8
	str         w8,[sp,#4]
	ldr         x8,[sp,#8]
	add         x9,x8,#0x58
	ldr         w8,[sp]
	str         w8,[x9]
	ldr         w8,[sp,#4]
	lsl         w8,w8,#1
	sxtw        x9,w8
	ldr         x8,|$LN48@dct32|
	mul         x8,x9,x8
	asr         x8,x8,#0x20
	mov         w9,w8
	ldr         x8,[sp,#8]
	add         x8,x8,#0x5C
	str         w9,[x8]
	ldr         x8,[sp,#8]
	add         x9,x8,#0x58
	ldr         x8,[sp,#8]
	add         x8,x8,#0x5C
	ldr         w9,[x9]
	ldr         w8,[x8]
	add         w9,w9,w8
	ldr         x8,[sp,#8]
	add         x8,x8,#0x58
	str         w9,[x8]
	ldr         x8,[sp,#8]
	add         x9,x8,#0x50
	ldr         x8,[sp,#8]
	add         x8,x8,#0x58
	ldr         w9,[x9]
	ldr         w8,[x8]
	add         w9,w9,w8
	ldr         x8,[sp,#8]
	add         x8,x8,#0x50
	str         w9,[x8]
	ldr         x8,[sp,#8]
	add         x9,x8,#0x58
	ldr         x8,[sp,#8]
	add         x8,x8,#0x54
	ldr         w9,[x9]
	ldr         w8,[x8]
	add         w9,w9,w8
	ldr         x8,[sp,#8]
	add         x8,x8,#0x58
	str         w9,[x8]
	ldr         x8,[sp,#8]
	add         x9,x8,#0x54
	ldr         x8,[sp,#8]
	add         x8,x8,#0x5C
	ldr         w9,[x9]
	ldr         w8,[x8]
	add         w9,w9,w8
	ldr         x8,[sp,#8]
	add         x8,x8,#0x54
	str         w9,[x8]

; 1957 : 		BF1(24, 25, 26, 27);

	ldr         x8,[sp,#8]
	add         x9,x8,#0x60
	ldr         x8,[sp,#8]
	add         x8,x8,#0x64
	ldr         w9,[x9]
	ldr         w8,[x8]
	add         w8,w9,w8
	str         w8,[sp]
	ldr         x8,[sp,#8]
	add         x9,x8,#0x60
	ldr         x8,[sp,#8]
	add         x8,x8,#0x64
	ldr         w9,[x9]
	ldr         w8,[x8]
	sub         w8,w9,w8
	str         w8,[sp,#4]
	ldr         x8,[sp,#8]
	add         x9,x8,#0x60
	ldr         w8,[sp]
	str         w8,[x9]
	ldr         w8,[sp,#4]
	lsl         w8,w8,#1
	sxtw        x9,w8
	ldr         x8,|$LN47@dct32|
	mul         x8,x9,x8
	asr         x8,x8,#0x20
	mov         w9,w8
	ldr         x8,[sp,#8]
	add         x8,x8,#0x64
	str         w9,[x8]
	ldr         x8,[sp,#8]
	add         x9,x8,#0x68
	ldr         x8,[sp,#8]
	add         x8,x8,#0x6C
	ldr         w9,[x9]
	ldr         w8,[x8]
	add         w8,w9,w8
	str         w8,[sp]
	ldr         x8,[sp,#8]
	add         x9,x8,#0x68
	ldr         x8,[sp,#8]
	add         x8,x8,#0x6C
	ldr         w9,[x9]
	ldr         w8,[x8]
	sub         w8,w9,w8
	str         w8,[sp,#4]
	ldr         x8,[sp,#8]
	add         x9,x8,#0x68
	ldr         w8,[sp]
	str         w8,[x9]
	ldr         w8,[sp,#4]
	lsl         w8,w8,#1
	sxtw        x9,w8
	ldr         x8,|$LN48@dct32|
	mul         x8,x9,x8
	asr         x8,x8,#0x20
	mov         w9,w8
	ldr         x8,[sp,#8]
	add         x8,x8,#0x6C
	str         w9,[x8]
	ldr         x8,[sp,#8]
	add         x9,x8,#0x68
	ldr         x8,[sp,#8]
	add         x8,x8,#0x6C
	ldr         w9,[x9]
	ldr         w8,[x8]
	add         w9,w9,w8
	ldr         x8,[sp,#8]
	add         x8,x8,#0x68
	str         w9,[x8]

; 1958 : 		BF2(28, 29, 30, 31);

	ldr         x8,[sp,#8]
	add         x9,x8,#0x70
	ldr         x8,[sp,#8]
	add         x8,x8,#0x74
	ldr         w9,[x9]
	ldr         w8,[x8]
	add         w8,w9,w8
	str         w8,[sp]
	ldr         x8,[sp,#8]
	add         x9,x8,#0x70
	ldr         x8,[sp,#8]
	add         x8,x8,#0x74
	ldr         w9,[x9]
	ldr         w8,[x8]
	sub         w8,w9,w8
	str         w8,[sp,#4]
	ldr         x8,[sp,#8]
	add         x9,x8,#0x70
	ldr         w8,[sp]
	str         w8,[x9]
	ldr         w8,[sp,#4]
	lsl         w8,w8,#1
	sxtw        x9,w8
	ldr         x8,|$LN47@dct32|
	mul         x8,x9,x8
	asr         x8,x8,#0x20
	mov         w9,w8
	ldr         x8,[sp,#8]
	add         x8,x8,#0x74
	str         w9,[x8]
	ldr         x8,[sp,#8]
	add         x9,x8,#0x78
	ldr         x8,[sp,#8]
	add         x8,x8,#0x7C
	ldr         w9,[x9]
	ldr         w8,[x8]
	add         w8,w9,w8
	str         w8,[sp]
	ldr         x8,[sp,#8]
	add         x9,x8,#0x78
	ldr         x8,[sp,#8]
	add         x8,x8,#0x7C
	ldr         w9,[x9]
	ldr         w8,[x8]
	sub         w8,w9,w8
	str         w8,[sp,#4]
	ldr         x8,[sp,#8]
	add         x9,x8,#0x78
	ldr         w8,[sp]
	str         w8,[x9]
	ldr         w8,[sp,#4]
	lsl         w8,w8,#1
	sxtw        x9,w8
	ldr         x8,|$LN48@dct32|
	mul         x8,x9,x8
	asr         x8,x8,#0x20
	mov         w9,w8
	ldr         x8,[sp,#8]
	add         x8,x8,#0x7C
	str         w9,[x8]
	ldr         x8,[sp,#8]
	add         x9,x8,#0x78
	ldr         x8,[sp,#8]
	add         x8,x8,#0x7C
	ldr         w9,[x9]
	ldr         w8,[x8]
	add         w9,w9,w8
	ldr         x8,[sp,#8]
	add         x8,x8,#0x78
	str         w9,[x8]
	ldr         x8,[sp,#8]
	add         x9,x8,#0x70
	ldr         x8,[sp,#8]
	add         x8,x8,#0x78
	ldr         w9,[x9]
	ldr         w8,[x8]
	add         w9,w9,w8
	ldr         x8,[sp,#8]
	add         x8,x8,#0x70
	str         w9,[x8]
	ldr         x8,[sp,#8]
	add         x9,x8,#0x78
	ldr         x8,[sp,#8]
	add         x8,x8,#0x74
	ldr         w9,[x9]
	ldr         w8,[x8]
	add         w9,w9,w8
	ldr         x8,[sp,#8]
	add         x8,x8,#0x78
	str         w9,[x8]
	ldr         x8,[sp,#8]
	add         x9,x8,#0x74
	ldr         x8,[sp,#8]
	add         x8,x8,#0x7C
	ldr         w9,[x9]
	ldr         w8,[x8]
	add         w9,w9,w8
	ldr         x8,[sp,#8]
	add         x8,x8,#0x74
	str         w9,[x8]

; 1959 : 
; 1960 : 		/* pass 6 */
; 1961 : 
; 1962 : 		ADD(8, 12);

	ldr         x8,[sp,#8]
	add         x9,x8,#0x20
	ldr         x8,[sp,#8]
	add         x8,x8,#0x30
	ldr         w9,[x9]
	ldr         w8,[x8]
	add         w9,w9,w8
	ldr         x8,[sp,#8]
	add         x8,x8,#0x20
	str         w9,[x8]

; 1963 : 		ADD(12, 10);

	ldr         x8,[sp,#8]
	add         x9,x8,#0x30
	ldr         x8,[sp,#8]
	add         x8,x8,#0x28
	ldr         w9,[x9]
	ldr         w8,[x8]
	add         w9,w9,w8
	ldr         x8,[sp,#8]
	add         x8,x8,#0x30
	str         w9,[x8]

; 1964 : 		ADD(10, 14);

	ldr         x8,[sp,#8]
	add         x9,x8,#0x28
	ldr         x8,[sp,#8]
	add         x8,x8,#0x38
	ldr         w9,[x9]
	ldr         w8,[x8]
	add         w9,w9,w8
	ldr         x8,[sp,#8]
	add         x8,x8,#0x28
	str         w9,[x8]

; 1965 : 		ADD(14, 9);

	ldr         x8,[sp,#8]
	add         x9,x8,#0x38
	ldr         x8,[sp,#8]
	add         x8,x8,#0x24
	ldr         w9,[x9]
	ldr         w8,[x8]
	add         w9,w9,w8
	ldr         x8,[sp,#8]
	add         x8,x8,#0x38
	str         w9,[x8]

; 1966 : 		ADD(9, 13);

	ldr         x8,[sp,#8]
	add         x9,x8,#0x24
	ldr         x8,[sp,#8]
	add         x8,x8,#0x34
	ldr         w9,[x9]
	ldr         w8,[x8]
	add         w9,w9,w8
	ldr         x8,[sp,#8]
	add         x8,x8,#0x24
	str         w9,[x8]

; 1967 : 		ADD(13, 11);

	ldr         x8,[sp,#8]
	add         x9,x8,#0x34
	ldr         x8,[sp,#8]
	add         x8,x8,#0x2C
	ldr         w9,[x9]
	ldr         w8,[x8]
	add         w9,w9,w8
	ldr         x8,[sp,#8]
	add         x8,x8,#0x34
	str         w9,[x8]

; 1968 : 		ADD(11, 15);

	ldr         x8,[sp,#8]
	add         x9,x8,#0x2C
	ldr         x8,[sp,#8]
	add         x8,x8,#0x3C
	ldr         w9,[x9]
	ldr         w8,[x8]
	add         w9,w9,w8
	ldr         x8,[sp,#8]
	add         x8,x8,#0x2C
	str         w9,[x8]

; 1969 : 
; 1970 : 		out[0] = tab[0];

	ldr         x9,[sp,#0x10]
	ldr         x8,[sp,#8]
	ldr         w8,[x8]
	str         w8,[x9]

; 1971 : 		out[16] = tab[1];

	ldr         x8,[sp,#8]
	add         x10,x8,#4
	ldr         x8,[sp,#0x10]
	add         x9,x8,#0x40
	ldr         w8,[x10]
	str         w8,[x9]

; 1972 : 		out[8] = tab[2];

	ldr         x8,[sp,#8]
	add         x10,x8,#8
	ldr         x8,[sp,#0x10]
	add         x9,x8,#0x20
	ldr         w8,[x10]
	str         w8,[x9]

; 1973 : 		out[24] = tab[3];

	ldr         x8,[sp,#8]
	add         x10,x8,#0xC
	ldr         x8,[sp,#0x10]
	add         x9,x8,#0x60
	ldr         w8,[x10]
	str         w8,[x9]

; 1974 : 		out[4] = tab[4];

	ldr         x8,[sp,#8]
	add         x10,x8,#0x10
	ldr         x8,[sp,#0x10]
	add         x9,x8,#0x10
	ldr         w8,[x10]
	str         w8,[x9]

; 1975 : 		out[20] = tab[5];

	ldr         x8,[sp,#8]
	add         x10,x8,#0x14
	ldr         x8,[sp,#0x10]
	add         x9,x8,#0x50
	ldr         w8,[x10]
	str         w8,[x9]

; 1976 : 		out[12] = tab[6];

	ldr         x8,[sp,#8]
	add         x10,x8,#0x18
	ldr         x8,[sp,#0x10]
	add         x9,x8,#0x30
	ldr         w8,[x10]
	str         w8,[x9]

; 1977 : 		out[28] = tab[7];

	ldr         x8,[sp,#8]
	add         x10,x8,#0x1C
	ldr         x8,[sp,#0x10]
	add         x9,x8,#0x70
	ldr         w8,[x10]
	str         w8,[x9]

; 1978 : 		out[2] = tab[8];

	ldr         x8,[sp,#8]
	add         x10,x8,#0x20
	ldr         x8,[sp,#0x10]
	add         x9,x8,#8
	ldr         w8,[x10]
	str         w8,[x9]

; 1979 : 		out[18] = tab[9];

	ldr         x8,[sp,#8]
	add         x10,x8,#0x24
	ldr         x8,[sp,#0x10]
	add         x9,x8,#0x48
	ldr         w8,[x10]
	str         w8,[x9]

; 1980 : 		out[10] = tab[10];

	ldr         x8,[sp,#8]
	add         x10,x8,#0x28
	ldr         x8,[sp,#0x10]
	add         x9,x8,#0x28
	ldr         w8,[x10]
	str         w8,[x9]

; 1981 : 		out[26] = tab[11];

	ldr         x8,[sp,#8]
	add         x10,x8,#0x2C
	ldr         x8,[sp,#0x10]
	add         x9,x8,#0x68
	ldr         w8,[x10]
	str         w8,[x9]

; 1982 : 		out[6] = tab[12];

	ldr         x8,[sp,#8]
	add         x10,x8,#0x30
	ldr         x8,[sp,#0x10]
	add         x9,x8,#0x18
	ldr         w8,[x10]
	str         w8,[x9]

; 1983 : 		out[22] = tab[13];

	ldr         x8,[sp,#8]
	add         x10,x8,#0x34
	ldr         x8,[sp,#0x10]
	add         x9,x8,#0x58
	ldr         w8,[x10]
	str         w8,[x9]

; 1984 : 		out[14] = tab[14];

	ldr         x8,[sp,#8]
	add         x10,x8,#0x38
	ldr         x8,[sp,#0x10]
	add         x9,x8,#0x38
	ldr         w8,[x10]
	str         w8,[x9]

; 1985 : 		out[30] = tab[15];

	ldr         x8,[sp,#8]
	add         x10,x8,#0x3C
	ldr         x8,[sp,#0x10]
	add         x9,x8,#0x78
	ldr         w8,[x10]
	str         w8,[x9]

; 1986 : 
; 1987 : 		ADD(24, 28);

	ldr         x8,[sp,#8]
	add         x9,x8,#0x60
	ldr         x8,[sp,#8]
	add         x8,x8,#0x70
	ldr         w9,[x9]
	ldr         w8,[x8]
	add         w9,w9,w8
	ldr         x8,[sp,#8]
	add         x8,x8,#0x60
	str         w9,[x8]

; 1988 : 		ADD(28, 26);

	ldr         x8,[sp,#8]
	add         x9,x8,#0x70
	ldr         x8,[sp,#8]
	add         x8,x8,#0x68
	ldr         w9,[x9]
	ldr         w8,[x8]
	add         w9,w9,w8
	ldr         x8,[sp,#8]
	add         x8,x8,#0x70
	str         w9,[x8]

; 1989 : 		ADD(26, 30);

	ldr         x8,[sp,#8]
	add         x9,x8,#0x68
	ldr         x8,[sp,#8]
	add         x8,x8,#0x78
	ldr         w9,[x9]
	ldr         w8,[x8]
	add         w9,w9,w8
	ldr         x8,[sp,#8]
	add         x8,x8,#0x68
	str         w9,[x8]

; 1990 : 		ADD(30, 25);

	ldr         x8,[sp,#8]
	add         x9,x8,#0x78
	ldr         x8,[sp,#8]
	add         x8,x8,#0x64
	ldr         w9,[x9]
	ldr         w8,[x8]
	add         w9,w9,w8
	ldr         x8,[sp,#8]
	add         x8,x8,#0x78
	str         w9,[x8]

; 1991 : 		ADD(25, 29);

	ldr         x8,[sp,#8]
	add         x9,x8,#0x64
	ldr         x8,[sp,#8]
	add         x8,x8,#0x74
	ldr         w9,[x9]
	ldr         w8,[x8]
	add         w9,w9,w8
	ldr         x8,[sp,#8]
	add         x8,x8,#0x64
	str         w9,[x8]

; 1992 : 		ADD(29, 27);

	ldr         x8,[sp,#8]
	add         x9,x8,#0x74
	ldr         x8,[sp,#8]
	add         x8,x8,#0x6C
	ldr         w9,[x9]
	ldr         w8,[x8]
	add         w9,w9,w8
	ldr         x8,[sp,#8]
	add         x8,x8,#0x74
	str         w9,[x8]

; 1993 : 		ADD(27, 31);

	ldr         x8,[sp,#8]
	add         x9,x8,#0x6C
	ldr         x8,[sp,#8]
	add         x8,x8,#0x7C
	ldr         w9,[x9]
	ldr         w8,[x8]
	add         w9,w9,w8
	ldr         x8,[sp,#8]
	add         x8,x8,#0x6C
	str         w9,[x8]

; 1994 : 
; 1995 : 		out[1] = tab[16] + tab[24];

	ldr         x8,[sp,#8]
	add         x9,x8,#0x40
	ldr         x8,[sp,#8]
	add         x8,x8,#0x60
	ldr         w9,[x9]
	ldr         w8,[x8]
	add         w9,w9,w8
	ldr         x8,[sp,#0x10]
	add         x8,x8,#4
	str         w9,[x8]

; 1996 : 		out[17] = tab[17] + tab[25];

	ldr         x8,[sp,#8]
	add         x9,x8,#0x44
	ldr         x8,[sp,#8]
	add         x8,x8,#0x64
	ldr         w9,[x9]
	ldr         w8,[x8]
	add         w9,w9,w8
	ldr         x8,[sp,#0x10]
	add         x8,x8,#0x44
	str         w9,[x8]

; 1997 : 		out[9] = tab[18] + tab[26];

	ldr         x8,[sp,#8]
	add         x9,x8,#0x48
	ldr         x8,[sp,#8]
	add         x8,x8,#0x68
	ldr         w9,[x9]
	ldr         w8,[x8]
	add         w9,w9,w8
	ldr         x8,[sp,#0x10]
	add         x8,x8,#0x24
	str         w9,[x8]

; 1998 : 		out[25] = tab[19] + tab[27];

	ldr         x8,[sp,#8]
	add         x9,x8,#0x4C
	ldr         x8,[sp,#8]
	add         x8,x8,#0x6C
	ldr         w9,[x9]
	ldr         w8,[x8]
	add         w9,w9,w8
	ldr         x8,[sp,#0x10]
	add         x8,x8,#0x64
	str         w9,[x8]

; 1999 : 		out[5] = tab[20] + tab[28];

	ldr         x8,[sp,#8]
	add         x9,x8,#0x50
	ldr         x8,[sp,#8]
	add         x8,x8,#0x70
	ldr         w9,[x9]
	ldr         w8,[x8]
	add         w9,w9,w8
	ldr         x8,[sp,#0x10]
	add         x8,x8,#0x14
	str         w9,[x8]

; 2000 : 		out[21] = tab[21] + tab[29];

	ldr         x8,[sp,#8]
	add         x9,x8,#0x54
	ldr         x8,[sp,#8]
	add         x8,x8,#0x74
	ldr         w9,[x9]
	ldr         w8,[x8]
	add         w9,w9,w8
	ldr         x8,[sp,#0x10]
	add         x8,x8,#0x54
	str         w9,[x8]

; 2001 : 		out[13] = tab[22] + tab[30];

	ldr         x8,[sp,#8]
	add         x9,x8,#0x58
	ldr         x8,[sp,#8]
	add         x8,x8,#0x78
	ldr         w9,[x9]
	ldr         w8,[x8]
	add         w9,w9,w8
	ldr         x8,[sp,#0x10]
	add         x8,x8,#0x34
	str         w9,[x8]

; 2002 : 		out[29] = tab[23] + tab[31];

	ldr         x8,[sp,#8]
	add         x9,x8,#0x5C
	ldr         x8,[sp,#8]
	add         x8,x8,#0x7C
	ldr         w9,[x9]
	ldr         w8,[x8]
	add         w9,w9,w8
	ldr         x8,[sp,#0x10]
	add         x8,x8,#0x74
	str         w9,[x8]

; 2003 : 		out[3] = tab[24] + tab[20];

	ldr         x8,[sp,#8]
	add         x9,x8,#0x60
	ldr         x8,[sp,#8]
	add         x8,x8,#0x50
	ldr         w9,[x9]
	ldr         w8,[x8]
	add         w9,w9,w8
	ldr         x8,[sp,#0x10]
	add         x8,x8,#0xC
	str         w9,[x8]

; 2004 : 		out[19] = tab[25] + tab[21];

	ldr         x8,[sp,#8]
	add         x9,x8,#0x64
	ldr         x8,[sp,#8]
	add         x8,x8,#0x54
	ldr         w9,[x9]
	ldr         w8,[x8]
	add         w9,w9,w8
	ldr         x8,[sp,#0x10]
	add         x8,x8,#0x4C
	str         w9,[x8]

; 2005 : 		out[11] = tab[26] + tab[22];

	ldr         x8,[sp,#8]
	add         x9,x8,#0x68
	ldr         x8,[sp,#8]
	add         x8,x8,#0x58
	ldr         w9,[x9]
	ldr         w8,[x8]
	add         w9,w9,w8
	ldr         x8,[sp,#0x10]
	add         x8,x8,#0x2C
	str         w9,[x8]

; 2006 : 		out[27] = tab[27] + tab[23];

	ldr         x8,[sp,#8]
	add         x9,x8,#0x6C
	ldr         x8,[sp,#8]
	add         x8,x8,#0x5C
	ldr         w9,[x9]
	ldr         w8,[x8]
	add         w9,w9,w8
	ldr         x8,[sp,#0x10]
	add         x8,x8,#0x6C
	str         w9,[x8]

; 2007 : 		out[7] = tab[28] + tab[18];

	ldr         x8,[sp,#8]
	add         x9,x8,#0x70
	ldr         x8,[sp,#8]
	add         x8,x8,#0x48
	ldr         w9,[x9]
	ldr         w8,[x8]
	add         w9,w9,w8
	ldr         x8,[sp,#0x10]
	add         x8,x8,#0x1C
	str         w9,[x8]

; 2008 : 		out[23] = tab[29] + tab[19];

	ldr         x8,[sp,#8]
	add         x9,x8,#0x74
	ldr         x8,[sp,#8]
	add         x8,x8,#0x4C
	ldr         w9,[x9]
	ldr         w8,[x8]
	add         w9,w9,w8
	ldr         x8,[sp,#0x10]
	add         x8,x8,#0x5C
	str         w9,[x8]

; 2009 : 		out[15] = tab[30] + tab[17];

	ldr         x8,[sp,#8]
	add         x9,x8,#0x78
	ldr         x8,[sp,#8]
	add         x8,x8,#0x44
	ldr         w9,[x9]
	ldr         w8,[x8]
	add         w9,w9,w8
	ldr         x8,[sp,#0x10]
	add         x8,x8,#0x3C
	str         w9,[x8]

; 2010 : 		out[31] = tab[31];

	ldr         x8,[sp,#8]
	add         x10,x8,#0x7C
	ldr         x8,[sp,#0x10]
	add         x9,x8,#0x7C
	ldr         w8,[x10]
	str         w8,[x9]
	add         sp,sp,#0x20
	ret
|$LN3@dct32|
	DCQ         0x4013c251
|$LN4@dct32|
	DCQ         0x518522fb
|$LN5@dct32|
	DCQ         0x404f4672
|$LN6@dct32|
	DCQ         0xffffffffbfb0b98e
|$LN7@dct32|
	DCQ         0x56601ea7
|$LN8@dct32|
	DCQ         0x5f4cf6eb
|$LN9@dct32|
	DCQ         0x519e4e04
|$LN10@dct32|
	DCQ         0xffffffffae61b1fc
|$LN11@dct32|
	DCQ         0x4140fb46
|$LN12@dct32|
	DCQ         0xffffffffbebf04ba
|$LN13@dct32|
	DCQ         0x43f93421
|$LN14@dct32|
	DCQ         0x5efc8d96
|$LN15@dct32|
	DCQ         0x52cb0e63
|$LN16@dct32|
	DCQ         0xffffffffad34f19d
|$LN17@dct32|
	DCQ         0x46cc1bc4
|$LN18@dct32|
	DCQ         0x4ad81a97
|$LN19@dct32|
	DCQ         0x64e2402e
|$LN20@dct32|
	DCQ         0xffffffff9b1dbfd2
|$LN21@dct32|
	DCQ         0x52036742
|$LN22@dct32|
	DCQ         0xffffffffadfc98be
|$LN23@dct32|
	DCQ         0x4545e9ef
|$LN24@dct32|
	DCQ         0xffffffffbaba1611
|$LN25@dct32|
	DCQ         0x40b345bd
|$LN26@dct32|
	DCQ         0x6d0b20cf
|$LN27@dct32|
	DCQ         0x42e13c10
|$LN28@dct32|
	DCQ         0xffffffffbd1ec3f0
|$LN29@dct32|
	DCQ         0x4fae3711
|$LN30@dct32|
