; Listing generated by Microsoft (R) Optimizing Compiler Version 18.00.21005.1 

include listing.inc

INCLUDELIB LIBCMT
INCLUDELIB OLDNAMES

CONST	SEGMENT
$SG4021	DB	'cleaning thread -> %x ', 0aH, 00H
$SG4035	DB	'Process cleaned ', 0dH, 0aH, 00H
CONST	ENDS
PUBLIC	?AuProcessClean@@YAXPEAU_au_proc_@@0@Z		; AuProcessClean
PUBLIC	?FreeUserStack@@YAXPEA_KPEAX@Z			; FreeUserStack
PUBLIC	?FreeImage@@YAXPEAU_au_proc_@@@Z		; FreeImage
PUBLIC	?AuThreadFree@@YAXPEAU_au_proc_@@PEAU_au_thread_@@@Z ; AuThreadFree
EXTRN	list_remove:PROC
EXTRN	?AuThreadCleanTrash@@YAXPEAU_au_thread_@@@Z:PROC ; AuThreadCleanTrash
EXTRN	?AuRemoveProcess@@YAXPEAU_au_proc_@@0@Z:PROC	; AuRemoveProcess
EXTRN	?KernelStackFree@@YAXPEAU_au_proc_@@PEAXPEA_K@Z:PROC ; KernelStackFree
EXTRN	AuGetPhysicalAddressEx:PROC
EXTRN	AuPmmngrFree:PROC
EXTRN	P2V:PROC
EXTRN	V2P:PROC
EXTRN	?AuRemoveVMArea@@YAXPEAU_au_proc_@@PEAU_vm_area_@@@Z:PROC ; AuRemoveVMArea
EXTRN	?AuVMAreaGet@@YAPEAU_vm_area_@@PEAU_au_proc_@@_K@Z:PROC ; AuVMAreaGet
EXTRN	kfree:PROC
EXTRN	AuTextOut:PROC
EXTRN	SeTextOut:PROC
pdata	SEGMENT
$pdata$?AuProcessClean@@YAXPEAU_au_proc_@@0@Z DD imagerel $LN20
	DD	imagerel $LN20+818
	DD	imagerel $unwind$?AuProcessClean@@YAXPEAU_au_proc_@@0@Z
$pdata$?FreeUserStack@@YAXPEA_KPEAX@Z DD imagerel $LN6
	DD	imagerel $LN6+107
	DD	imagerel $unwind$?FreeUserStack@@YAXPEA_KPEAX@Z
$pdata$?FreeImage@@YAXPEAU_au_proc_@@@Z DD imagerel $LN7
	DD	imagerel $LN7+190
	DD	imagerel $unwind$?FreeImage@@YAXPEAU_au_proc_@@@Z
$pdata$?AuThreadFree@@YAXPEAU_au_proc_@@PEAU_au_thread_@@@Z DD imagerel $LN5
	DD	imagerel $LN5+209
	DD	imagerel $unwind$?AuThreadFree@@YAXPEAU_au_proc_@@PEAU_au_thread_@@@Z
pdata	ENDS
xdata	SEGMENT
$unwind$?AuProcessClean@@YAXPEAU_au_proc_@@0@Z DD 021101H
	DD	0130111H
$unwind$?FreeUserStack@@YAXPEA_KPEAX@Z DD 010e01H
	DD	0820eH
$unwind$?FreeImage@@YAXPEAU_au_proc_@@@Z DD 010901H
	DD	0a209H
$unwind$?AuThreadFree@@YAXPEAU_au_proc_@@PEAU_au_thread_@@@Z DD 010e01H
	DD	0820eH
xdata	ENDS
; Function compile flags: /Odtpy
; File e:\xeneva project\aurora\kernel\clean.cpp
_TEXT	SEGMENT
k_stack$1 = 32
k_stack_$2 = 40
k_stack$3 = 48
k_stack_$4 = 56
proc$ = 80
t$ = 88
?AuThreadFree@@YAXPEAU_au_proc_@@PEAU_au_thread_@@@Z PROC ; AuThreadFree

; 80   : void AuThreadFree(AuProcess* proc,AuThread* t) {

$LN5:
	mov	QWORD PTR [rsp+16], rdx
	mov	QWORD PTR [rsp+8], rcx
	sub	rsp, 72					; 00000048H

; 81   : 	kfree(t->fx_state);

	mov	rax, QWORD PTR t$[rsp]
	mov	rcx, QWORD PTR [rax+272]
	call	kfree

; 82   : 	/* free up the kernel stack */
; 83   : 	if (t->priviledge & THREAD_LEVEL_MAIN_THREAD){

	mov	rax, QWORD PTR t$[rsp]
	movzx	eax, BYTE PTR [rax+305]
	and	eax, 8
	test	eax, eax
	je	SHORT $LN2@AuThreadFr

; 84   : 		uint64_t k_stack = t->frame.kern_esp;

	mov	rax, QWORD PTR t$[rsp]
	mov	rax, QWORD PTR [rax+200]
	mov	QWORD PTR k_stack$1[rsp], rax

; 85   : 		uint64_t k_stack_ = k_stack - PAGE_SIZE;

	mov	rax, QWORD PTR k_stack$1[rsp]
	sub	rax, 4096				; 00001000H
	mov	QWORD PTR k_stack_$2[rsp], rax

; 86   : 		AuPmmngrFree((void*)V2P((size_t)k_stack_));

	mov	rcx, QWORD PTR k_stack_$2[rsp]
	call	V2P
	mov	rcx, rax
	call	AuPmmngrFree
$LN2@AuThreadFr:

; 87   : 	}
; 88   : 	if (t->priviledge & THREAD_LEVEL_SUBTHREAD) {

	mov	rax, QWORD PTR t$[rsp]
	movzx	eax, BYTE PTR [rax+305]
	and	eax, 4
	test	eax, eax
	je	SHORT $LN1@AuThreadFr

; 89   : 		uint64_t k_stack = t->frame.kern_esp;

	mov	rax, QWORD PTR t$[rsp]
	mov	rax, QWORD PTR [rax+200]
	mov	QWORD PTR k_stack$3[rsp], rax

; 90   : 		uint64_t k_stack_ = k_stack - 8192;

	mov	rax, QWORD PTR k_stack$3[rsp]
	sub	rax, 8192				; 00002000H
	mov	QWORD PTR k_stack_$4[rsp], rax

; 91   : 		KernelStackFree(proc, (void*)k_stack_, proc->cr3);

	mov	rax, QWORD PTR proc$[rsp]
	mov	r8, QWORD PTR [rax+22]
	mov	rdx, QWORD PTR k_stack_$4[rsp]
	mov	rcx, QWORD PTR proc$[rsp]
	call	?KernelStackFree@@YAXPEAU_au_proc_@@PEAXPEA_K@Z ; KernelStackFree
$LN1@AuThreadFr:

; 92   : 		
; 93   : 	}
; 94   : 	kfree(t->uentry);

	mov	rax, QWORD PTR t$[rsp]
	mov	rcx, QWORD PTR [rax+635]
	call	kfree

; 95   : 	kfree(t);

	mov	rcx, QWORD PTR t$[rsp]
	call	kfree

; 96   : }

	add	rsp, 72					; 00000048H
	ret	0
?AuThreadFree@@YAXPEAU_au_proc_@@PEAU_au_thread_@@@Z ENDP ; AuThreadFree
_TEXT	ENDS
; Function compile flags: /Odtpy
; File e:\xeneva project\aurora\kernel\clean.cpp
_TEXT	SEGMENT
i$1 = 32
physical_address$2 = 40
tv65 = 48
phys$3 = 56
image_area$ = 64
proc$ = 96
?FreeImage@@YAXPEAU_au_proc_@@@Z PROC			; FreeImage

; 62   : void FreeImage(AuProcess* proc) {

$LN7:
	mov	QWORD PTR [rsp+8], rcx
	sub	rsp, 88					; 00000058H

; 63   : 	/* Unmap the process image */
; 64   : 	for (uint32_t i = 0; i < proc->_image_size_ / 4096 + 1; i++) {

	mov	DWORD PTR i$1[rsp], 0
	jmp	SHORT $LN4@FreeImage
$LN3@FreeImage:
	mov	eax, DWORD PTR i$1[rsp]
	inc	eax
	mov	DWORD PTR i$1[rsp], eax
$LN4@FreeImage:
	mov	eax, DWORD PTR i$1[rsp]
	mov	QWORD PTR tv65[rsp], rax
	xor	edx, edx
	mov	rcx, QWORD PTR proc$[rsp]
	mov	rax, QWORD PTR [rcx+30]
	mov	ecx, 4096				; 00001000H
	div	rcx
	inc	rax
	mov	rcx, QWORD PTR tv65[rsp]
	cmp	rcx, rax
	jae	SHORT $LN2@FreeImage

; 65   : 		void* phys = AuGetPhysicalAddressEx(proc->cr3, proc->_image_base_ + i * 4096);

	imul	eax, DWORD PTR i$1[rsp], 4096		; 00001000H
	mov	eax, eax
	mov	rcx, QWORD PTR proc$[rsp]
	add	rax, QWORD PTR [rcx+38]
	mov	rdx, rax
	mov	rax, QWORD PTR proc$[rsp]
	mov	rcx, QWORD PTR [rax+22]
	call	AuGetPhysicalAddressEx
	mov	QWORD PTR phys$3[rsp], rax

; 66   : 		uint64_t physical_address = (uint64_t)V2P((uint64_t)phys);

	mov	rcx, QWORD PTR phys$3[rsp]
	call	V2P
	mov	QWORD PTR physical_address$2[rsp], rax

; 67   : 		if (physical_address != 0)

	cmp	QWORD PTR physical_address$2[rsp], 0
	je	SHORT $LN1@FreeImage

; 68   : 			AuPmmngrFree((void*)physical_address);

	mov	rcx, QWORD PTR physical_address$2[rsp]
	call	AuPmmngrFree
$LN1@FreeImage:

; 69   : 	}

	jmp	SHORT $LN3@FreeImage
$LN2@FreeImage:

; 70   : 
; 71   : 	AuVMArea *image_area = AuVMAreaGet(proc, proc->_image_base_);

	mov	rax, QWORD PTR proc$[rsp]
	mov	rdx, QWORD PTR [rax+38]
	mov	rcx, QWORD PTR proc$[rsp]
	call	?AuVMAreaGet@@YAPEAU_vm_area_@@PEAU_au_proc_@@_K@Z ; AuVMAreaGet
	mov	QWORD PTR image_area$[rsp], rax

; 72   : 	AuRemoveVMArea(proc, image_area);

	mov	rdx, QWORD PTR image_area$[rsp]
	mov	rcx, QWORD PTR proc$[rsp]
	call	?AuRemoveVMArea@@YAXPEAU_au_proc_@@PEAU_vm_area_@@@Z ; AuRemoveVMArea

; 73   : }

	add	rsp, 88					; 00000058H
	ret	0
?FreeImage@@YAXPEAU_au_proc_@@@Z ENDP			; FreeImage
_TEXT	ENDS
; Function compile flags: /Odtpy
; File e:\xeneva project\aurora\kernel\clean.cpp
_TEXT	SEGMENT
i$1 = 32
addr$2 = 40
location$ = 48
cr3$ = 80
ptr$ = 88
?FreeUserStack@@YAXPEA_KPEAX@Z PROC			; FreeUserStack

; 48   : void FreeUserStack(uint64_t* cr3, void* ptr) {

$LN6:
	mov	QWORD PTR [rsp+16], rdx
	mov	QWORD PTR [rsp+8], rcx
	sub	rsp, 72					; 00000048H

; 49   : 	uint64_t location = (uint64_t)ptr;

	mov	rax, QWORD PTR ptr$[rsp]
	mov	QWORD PTR location$[rsp], rax

; 50   : 
; 51   : 	for (int i = 0; i < PROCESS_USER_STACK_SZ / 4096; i++) {

	mov	DWORD PTR i$1[rsp], 0
	jmp	SHORT $LN3@FreeUserSt
$LN2@FreeUserSt:
	mov	eax, DWORD PTR i$1[rsp]
	inc	eax
	mov	DWORD PTR i$1[rsp], eax
$LN3@FreeUserSt:
	cmp	DWORD PTR i$1[rsp], 128			; 00000080H
	jge	SHORT $LN1@FreeUserSt

; 52   : 		void* addr = AuGetPhysicalAddressEx(cr3, + i * 4096);

	imul	eax, DWORD PTR i$1[rsp], 4096		; 00001000H
	cdqe
	mov	rdx, rax
	mov	rcx, QWORD PTR cr3$[rsp]
	call	AuGetPhysicalAddressEx
	mov	QWORD PTR addr$2[rsp], rax

; 53   : 		AuPmmngrFree((void*)V2P((size_t)addr));

	mov	rcx, QWORD PTR addr$2[rsp]
	call	V2P
	mov	rcx, rax
	call	AuPmmngrFree

; 54   : 	}

	jmp	SHORT $LN2@FreeUserSt
$LN1@FreeUserSt:

; 55   : }

	add	rsp, 72					; 00000048H
	ret	0
?FreeUserStack@@YAXPEA_KPEAX@Z ENDP			; FreeUserStack
_TEXT	ENDS
; Function compile flags: /Odtpy
; File e:\xeneva project\aurora\kernel\clean.cpp
_TEXT	SEGMENT
i$1 = 32
i$2 = 36
i$3 = 40
t_$4 = 48
num_pages$5 = 56
area$6 = 64
phys$7 = 72
phys$8 = 80
entry$9 = 88
stack_$ = 96
stack$10 = 104
stack_$11 = 112
id$ = 120
uentry$ = 128
parent$ = 160
killable$ = 168
?AuProcessClean@@YAXPEAU_au_proc_@@0@Z PROC		; AuProcessClean

; 104  : void AuProcessClean(AuProcess* parent, AuProcess* killable) {

$LN20:
	mov	QWORD PTR [rsp+16], rdx
	mov	QWORD PTR [rsp+8], rcx
	sub	rsp, 152				; 00000098H

; 105  : 	int id = killable->proc_id;

	mov	rax, QWORD PTR killable$[rsp]
	mov	eax, DWORD PTR [rax]
	mov	DWORD PTR id$[rsp], eax

; 106  : 	
; 107  : 	uint64_t stack_ = killable->_main_stack_ - PROCESS_USER_STACK_SZ;

	mov	rax, QWORD PTR killable$[rsp]
	mov	rax, QWORD PTR [rax+46]
	sub	rax, 524288				; 00080000H
	mov	QWORD PTR stack_$[rsp], rax

; 108  : 	FreeUserStack(killable->cr3,(void*)stack_);

	mov	rdx, QWORD PTR stack_$[rsp]
	mov	rax, QWORD PTR killable$[rsp]
	mov	rcx, QWORD PTR [rax+22]
	call	?FreeUserStack@@YAXPEA_KPEAX@Z		; FreeUserStack

; 109  : 	/* free up shm mappings */
; 110  : 
; 111  : 	/* free up image base + image size*/
; 112  : 	FreeImage(killable);

	mov	rcx, QWORD PTR killable$[rsp]
	call	?FreeImage@@YAXPEAU_au_proc_@@@Z	; FreeImage

; 113  : 
; 114  : 	/* free up vmareas */
; 115  : 	for (int i = 0; i < killable->vmareas->pointer; i++) {

	mov	DWORD PTR i$2[rsp], 0
	jmp	SHORT $LN17@AuProcessC
$LN16@AuProcessC:
	mov	eax, DWORD PTR i$2[rsp]
	inc	eax
	mov	DWORD PTR i$2[rsp], eax
$LN17@AuProcessC:
	mov	rax, QWORD PTR killable$[rsp]
	mov	rax, QWORD PTR [rax+1063]
	mov	eax, DWORD PTR [rax]
	cmp	DWORD PTR i$2[rsp], eax
	jae	SHORT $LN15@AuProcessC

; 116  : 		AuVMArea* area = (AuVMArea*)list_remove(killable->vmareas, i);

	mov	edx, DWORD PTR i$2[rsp]
	mov	rax, QWORD PTR killable$[rsp]
	mov	rcx, QWORD PTR [rax+1063]
	call	list_remove
	mov	QWORD PTR area$6[rsp], rax

; 117  : 		if (area)

	cmp	QWORD PTR area$6[rsp], 0
	je	SHORT $LN14@AuProcessC

; 118  : 			kfree(area);

	mov	rcx, QWORD PTR area$6[rsp]
	call	kfree
$LN14@AuProcessC:

; 119  : 	}

	jmp	SHORT $LN16@AuProcessC
$LN15@AuProcessC:

; 120  : 	kfree(killable->vmareas);

	mov	rax, QWORD PTR killable$[rsp]
	mov	rcx, QWORD PTR [rax+1063]
	call	kfree

; 121  : 
; 122  : 	/* free up process heap memory */
; 123  : 	if (killable->proc_mem_heap > PROCESS_BREAK_ADDRESS) {

	mov	rax, QWORD PTR killable$[rsp]
	cmp	QWORD PTR [rax+1087], 805306368		; 30000000H
	jbe	$LN13@AuProcessC

; 124  : 		size_t num_pages = (killable->proc_mem_heap - PROCESS_BREAK_ADDRESS) / PAGE_SIZE;

	mov	rax, QWORD PTR killable$[rsp]
	mov	rax, QWORD PTR [rax+1087]
	sub	rax, 805306368				; 30000000H
	xor	edx, edx
	mov	ecx, 4096				; 00001000H
	div	rcx
	mov	QWORD PTR num_pages$5[rsp], rax

; 125  : 		if ((num_pages % PAGE_SIZE) != 0)

	xor	edx, edx
	mov	rax, QWORD PTR num_pages$5[rsp]
	mov	ecx, 4096				; 00001000H
	div	rcx
	mov	rax, rdx
	test	rax, rax
	je	SHORT $LN12@AuProcessC

; 126  : 			num_pages++;

	mov	rax, QWORD PTR num_pages$5[rsp]
	inc	rax
	mov	QWORD PTR num_pages$5[rsp], rax
$LN12@AuProcessC:

; 127  : 		for (int i = 0; i < num_pages; i++) {

	mov	DWORD PTR i$3[rsp], 0
	jmp	SHORT $LN11@AuProcessC
$LN10@AuProcessC:
	mov	eax, DWORD PTR i$3[rsp]
	inc	eax
	mov	DWORD PTR i$3[rsp], eax
$LN11@AuProcessC:
	movsxd	rax, DWORD PTR i$3[rsp]
	cmp	rax, QWORD PTR num_pages$5[rsp]
	jae	SHORT $LN9@AuProcessC

; 128  : 			void* phys = AuGetPhysicalAddressEx(killable->cr3, PROCESS_BREAK_ADDRESS + i * PAGE_SIZE);

	imul	eax, DWORD PTR i$3[rsp], 4096		; 00001000H
	add	eax, 805306368				; 30000000H
	cdqe
	mov	rdx, rax
	mov	rax, QWORD PTR killable$[rsp]
	mov	rcx, QWORD PTR [rax+22]
	call	AuGetPhysicalAddressEx
	mov	QWORD PTR phys$8[rsp], rax

; 129  : 			if (phys)

	cmp	QWORD PTR phys$8[rsp], 0
	je	SHORT $LN8@AuProcessC

; 130  : 				AuPmmngrFree((void*)V2P((uint64_t)phys));

	mov	rcx, QWORD PTR phys$8[rsp]
	call	V2P
	mov	rcx, rax
	call	AuPmmngrFree
$LN8@AuProcessC:

; 131  : 		}

	jmp	SHORT $LN10@AuProcessC
$LN9@AuProcessC:
$LN13@AuProcessC:

; 132  : 	}
; 133  : 
; 134  : 
; 135  : 	/* finally free up all threads */
; 136  : 	for (int i = 1; i < MAX_THREADS_PER_PROCESS -1 ; i++) {

	mov	DWORD PTR i$1[rsp], 1
	jmp	SHORT $LN7@AuProcessC
$LN6@AuProcessC:
	mov	eax, DWORD PTR i$1[rsp]
	inc	eax
	mov	DWORD PTR i$1[rsp], eax
$LN7@AuProcessC:
	cmp	DWORD PTR i$1[rsp], 59			; 0000003bH
	jge	$LN5@AuProcessC

; 137  : 		AuThread *t_ = killable->threads[i];

	movsxd	rax, DWORD PTR i$1[rsp]
	mov	rcx, QWORD PTR killable$[rsp]
	mov	rax, QWORD PTR [rcx+rax*8+87]
	mov	QWORD PTR t_$4[rsp], rax

; 138  : 		if (t_) {

	cmp	QWORD PTR t_$4[rsp], 0
	je	$LN4@AuProcessC

; 139  : 			AuTextOut("cleaning thread -> %x \n", t_);

	mov	rdx, QWORD PTR t_$4[rsp]
	lea	rcx, OFFSET FLAT:$SG4021
	call	AuTextOut

; 140  : 			AuThreadCleanTrash(t_);

	mov	rcx, QWORD PTR t_$4[rsp]
	call	?AuThreadCleanTrash@@YAXPEAU_au_thread_@@@Z ; AuThreadCleanTrash

; 141  : 			AuUserEntry* entry = t_->uentry;

	mov	rax, QWORD PTR t_$4[rsp]
	mov	rax, QWORD PTR [rax+635]
	mov	QWORD PTR entry$9[rsp], rax

; 142  : 			if (entry) {

	cmp	QWORD PTR entry$9[rsp], 0
	je	SHORT $LN3@AuProcessC

; 143  : 				uint64_t stack = entry->stackBase;

	mov	rax, QWORD PTR entry$9[rsp]
	mov	rax, QWORD PTR [rax+52]
	mov	QWORD PTR stack$10[rsp], rax

; 144  : 				uint64_t stack_ = stack - PROCESS_USER_STACK_SZ;

	mov	rax, QWORD PTR stack$10[rsp]
	sub	rax, 524288				; 00080000H
	mov	QWORD PTR stack_$11[rsp], rax

; 145  : 				FreeUserStack(killable->cr3, (void*)stack_);

	mov	rdx, QWORD PTR stack_$11[rsp]
	mov	rax, QWORD PTR killable$[rsp]
	mov	rcx, QWORD PTR [rax+22]
	call	?FreeUserStack@@YAXPEA_KPEAX@Z		; FreeUserStack

; 146  : 				killable->_user_stack_index_ -= PROCESS_USER_STACK_SZ;

	mov	rax, QWORD PTR killable$[rsp]
	mov	rax, QWORD PTR [rax+54]
	sub	rax, 524288				; 00080000H
	mov	rcx, QWORD PTR killable$[rsp]
	mov	QWORD PTR [rcx+54], rax
$LN3@AuProcessC:

; 147  : 			}
; 148  : 			AuThreadFree(killable, t_);

	mov	rdx, QWORD PTR t_$4[rsp]
	mov	rcx, QWORD PTR killable$[rsp]
	call	?AuThreadFree@@YAXPEAU_au_proc_@@PEAU_au_thread_@@@Z ; AuThreadFree
$LN4@AuProcessC:

; 149  : 		}
; 150  : 	}

	jmp	$LN6@AuProcessC
$LN5@AuProcessC:

; 151  : 
; 152  : 	AuUserEntry* uentry = killable->main_thread->uentry;

	mov	rax, QWORD PTR killable$[rsp]
	mov	rax, QWORD PTR [rax+70]
	mov	rax, QWORD PTR [rax+635]
	mov	QWORD PTR uentry$[rsp], rax

; 153  : 	if (uentry->argvaddr != 0) {

	mov	rax, QWORD PTR uentry$[rsp]
	cmp	QWORD PTR [rax+36], 0
	je	SHORT $LN2@AuProcessC

; 154  : 		void* phys = AuGetPhysicalAddressEx(killable->cr3, 0x4000);

	mov	edx, 16384				; 00004000H
	mov	rax, QWORD PTR killable$[rsp]
	mov	rcx, QWORD PTR [rax+22]
	call	AuGetPhysicalAddressEx
	mov	QWORD PTR phys$7[rsp], rax

; 155  : 		if (phys) {

	cmp	QWORD PTR phys$7[rsp], 0
	je	SHORT $LN1@AuProcessC

; 156  : 			AuPmmngrFree((void*)P2V((size_t)phys));

	mov	rcx, QWORD PTR phys$7[rsp]
	call	P2V
	mov	rcx, rax
	call	AuPmmngrFree
$LN1@AuProcessC:
$LN2@AuProcessC:

; 157  : 		}
; 158  : 	}
; 159  : 
; 160  : 	/* clean the main thread externally*/
; 161  : 	AuThreadCleanTrash(killable->main_thread);

	mov	rax, QWORD PTR killable$[rsp]
	mov	rcx, QWORD PTR [rax+70]
	call	?AuThreadCleanTrash@@YAXPEAU_au_thread_@@@Z ; AuThreadCleanTrash

; 162  : 	AuThreadFree(killable, killable->main_thread);

	mov	rax, QWORD PTR killable$[rsp]
	mov	rdx, QWORD PTR [rax+70]
	mov	rcx, QWORD PTR killable$[rsp]
	call	?AuThreadFree@@YAXPEAU_au_proc_@@PEAU_au_thread_@@@Z ; AuThreadFree

; 163  : 
; 164  : 	/* release the process slot */
; 165  : 
; 166  : 	AuPmmngrFree((void*)V2P((size_t)killable->cr3));

	mov	rax, QWORD PTR killable$[rsp]
	mov	rcx, QWORD PTR [rax+22]
	call	V2P
	mov	rcx, rax
	call	AuPmmngrFree

; 167  : 	AuRemoveProcess(0, killable);

	mov	rdx, QWORD PTR killable$[rsp]
	xor	ecx, ecx
	call	?AuRemoveProcess@@YAXPEAU_au_proc_@@0@Z	; AuRemoveProcess

; 168  : 	SeTextOut("Process cleaned \r\n");

	lea	rcx, OFFSET FLAT:$SG4035
	call	SeTextOut

; 169  : }

	add	rsp, 152				; 00000098H
	ret	0
?AuProcessClean@@YAXPEAU_au_proc_@@0@Z ENDP		; AuProcessClean
_TEXT	ENDS
END
