; Listing generated by Microsoft (R) Optimizing Compiler Version 18.00.21005.1 

include listing.inc

INCLUDELIB LIBCMT
INCLUDELIB OLDNAMES

CONST	SEGMENT
$SG3017	DB	'Ethernet ARP : Packet received ', 0dH, 0aH, 00H
	ORG $+6
$SG3019	DB	'Ethernet IPv4: Packet received ', 0dH, 0aH, 00H
	ORG $+6
$SG3035	DB	'Ethernet setuped %d ', 0dH, 0aH, 00H
CONST	ENDS
PUBLIC	?AuEthernetSend@@YAXPEAU__VFS_NODE__@@PEAX_KGPEAE@Z ; AuEthernetSend
PUBLIC	AuEthernetHandle
EXTRN	kmalloc:PROC
EXTRN	kfree:PROC
EXTRN	memset:PROC
EXTRN	memcpy:PROC
EXTRN	SeTextOut:PROC
EXTRN	AuTextOut:PROC
pdata	SEGMENT
$pdata$?AuEthernetSend@@YAXPEAU__VFS_NODE__@@PEAX_KGPEAE@Z DD imagerel $LN4
	DD	imagerel $LN4+290
	DD	imagerel $unwind$?AuEthernetSend@@YAXPEAU__VFS_NODE__@@PEAX_KGPEAE@Z
$pdata$AuEthernetHandle DD imagerel $LN7
	DD	imagerel $LN7+103
	DD	imagerel $unwind$AuEthernetHandle
pdata	ENDS
xdata	SEGMENT
$unwind$?AuEthernetSend@@YAXPEAU__VFS_NODE__@@PEAX_KGPEAE@Z DD 011901H
	DD	08219H
$unwind$AuEthernetHandle DD 010901H
	DD	06209H
xdata	ENDS
; Function compile flags: /Odtpy
; File e:\xeneva project\aurora\kernel\net\ethernet.cpp
_TEXT	SEGMENT
tv73 = 32
frame$ = 64
AuEthernetHandle PROC

; 38   : AU_EXTERN AU_EXPORT void AuEthernetHandle(Ethernet *frame) {

$LN7:
	mov	QWORD PTR [rsp+8], rcx
	sub	rsp, 56					; 00000038H

; 39   : 	switch (ntohs(frame->typeLen)) {

	mov	rax, QWORD PTR frame$[rsp]
	movzx	eax, WORD PTR [rax+12]
	and	eax, 255				; 000000ffH
	shl	eax, 8
	mov	rcx, QWORD PTR frame$[rsp]
	movzx	ecx, WORD PTR [rcx+12]
	and	ecx, 65280				; 0000ff00H
	sar	ecx, 8
	or	eax, ecx
	mov	DWORD PTR tv73[rsp], eax
	cmp	DWORD PTR tv73[rsp], 2048		; 00000800H
	je	SHORT $LN1@AuEthernet
	cmp	DWORD PTR tv73[rsp], 2054		; 00000806H
	je	SHORT $LN2@AuEthernet
	jmp	SHORT $LN3@AuEthernet
$LN2@AuEthernet:

; 40   : 	case ETHERNET_TYPE_ARP:
; 41   : 		SeTextOut("Ethernet ARP : Packet received \r\n");

	lea	rcx, OFFSET FLAT:$SG3017
	call	SeTextOut

; 42   : 		break;

	jmp	SHORT $LN3@AuEthernet
$LN1@AuEthernet:

; 43   : 	case ETHERNET_TYPE_IPV4:
; 44   : 		SeTextOut("Ethernet IPv4: Packet received \r\n");

	lea	rcx, OFFSET FLAT:$SG3019
	call	SeTextOut
$LN3@AuEthernet:

; 45   : 		break;
; 46   : 	}
; 47   : }

	add	rsp, 56					; 00000038H
	ret	0
AuEthernetHandle ENDP
_TEXT	ENDS
; Function compile flags: /Odtpy
; File e:\xeneva project\aurora\kernel\net\ethernet.cpp
_TEXT	SEGMENT
pacl$ = 32
ndev$ = 40
totalSz$ = 48
src_mac$ = 56
nic$ = 80
data$ = 88
len$ = 96
type$ = 104
dest$ = 112
?AuEthernetSend@@YAXPEAU__VFS_NODE__@@PEAX_KGPEAE@Z PROC ; AuEthernetSend

; 56   : void AuEthernetSend(AuVFSNode* nic,void* data, size_t len, uint16_t type, uint8_t* dest) {

$LN4:
	mov	WORD PTR [rsp+32], r9w
	mov	QWORD PTR [rsp+24], r8
	mov	QWORD PTR [rsp+16], rdx
	mov	QWORD PTR [rsp+8], rcx
	sub	rsp, 72					; 00000048H

; 57   : 	AuNetworkDevice* ndev = (AuNetworkDevice*)nic->device;

	mov	rax, QWORD PTR nic$[rsp]
	mov	rax, QWORD PTR [rax+64]
	mov	QWORD PTR ndev$[rsp], rax

; 58   : 	if (!ndev)

	cmp	QWORD PTR ndev$[rsp], 0
	jne	SHORT $LN1@AuEthernet

; 59   : 		return;

	jmp	$LN2@AuEthernet
$LN1@AuEthernet:

; 60   : 	size_t totalSz = sizeof(Ethernet)+len;

	mov	rax, QWORD PTR len$[rsp]
	add	rax, 14
	mov	QWORD PTR totalSz$[rsp], rax

; 61   : 	Ethernet* pacl = (Ethernet*)kmalloc(totalSz);

	mov	ecx, DWORD PTR totalSz$[rsp]
	call	kmalloc
	mov	QWORD PTR pacl$[rsp], rax

; 62   : 	memset(pacl, 0, totalSz);

	mov	r8d, DWORD PTR totalSz$[rsp]
	xor	edx, edx
	mov	rcx, QWORD PTR pacl$[rsp]
	call	memset

; 63   : 	memcpy(pacl->dest, dest, 6);

	mov	rax, QWORD PTR pacl$[rsp]
	mov	r8d, 6
	mov	rdx, QWORD PTR dest$[rsp]
	mov	rcx, rax
	call	memcpy

; 64   : 	uint8_t *src_mac = ndev->mac;

	mov	rax, QWORD PTR ndev$[rsp]
	mov	QWORD PTR src_mac$[rsp], rax

; 65   : 	memcpy(pacl->src, src_mac, 6);

	mov	rax, QWORD PTR pacl$[rsp]
	add	rax, 6
	mov	r8d, 6
	mov	rdx, QWORD PTR src_mac$[rsp]
	mov	rcx, rax
	call	memcpy

; 66   : 	pacl->typeLen = htons(type);

	movzx	eax, WORD PTR type$[rsp]
	and	eax, 255				; 000000ffH
	shl	eax, 8
	movzx	ecx, WORD PTR type$[rsp]
	and	ecx, 65280				; 0000ff00H
	sar	ecx, 8
	or	eax, ecx
	mov	rcx, QWORD PTR pacl$[rsp]
	mov	WORD PTR [rcx+12], ax

; 67   : 	memcpy(pacl->payload, data, len);

	mov	rax, QWORD PTR pacl$[rsp]
	add	rax, 14
	mov	r8, QWORD PTR len$[rsp]
	mov	rdx, QWORD PTR data$[rsp]
	mov	rcx, rax
	call	memcpy

; 68   : 	
; 69   : 	AuTextOut("Ethernet setuped %d \r\n", ndev->type);

	mov	rax, QWORD PTR ndev$[rsp]
	movzx	eax, BYTE PTR [rax+10]
	mov	edx, eax
	lea	rcx, OFFSET FLAT:$SG3035
	call	AuTextOut

; 70   : 
; 71   : 	nic->write(nic, nic, (uint64_t*)pacl, totalSz);

	mov	r9d, DWORD PTR totalSz$[rsp]
	mov	r8, QWORD PTR pacl$[rsp]
	mov	rdx, QWORD PTR nic$[rsp]
	mov	rcx, QWORD PTR nic$[rsp]
	mov	rax, QWORD PTR nic$[rsp]
	call	QWORD PTR [rax+98]

; 72   : 	kfree(pacl);

	mov	rcx, QWORD PTR pacl$[rsp]
	call	kfree
$LN2@AuEthernet:

; 73   : }

	add	rsp, 72					; 00000048H
	ret	0
?AuEthernetSend@@YAXPEAU__VFS_NODE__@@PEAX_KGPEAE@Z ENDP ; AuEthernetSend
_TEXT	ENDS
END
