; Listing generated by Microsoft (R) Optimizing Compiler Version 18.00.21005.1 

include listing.inc

INCLUDELIB LIBCMT
INCLUDELIB OLDNAMES

PUBLIC	?last_mark@@3_KA				; last_mark
PUBLIC	?_debug_on@@3_NA				; _debug_on
_BSS	SEGMENT
?last_mark@@3_KA DQ 01H DUP (?)				; last_mark
?_debug_on@@3_NA DB 01H DUP (?)				; _debug_on
_BSS	ENDS
CONST	SEGMENT
$SG3209	DB	'Aramse last mark ', 0dH, 0aH, 00H
	ORG $+4
$SG3215	DB	'Aramse Last mark ', 0dH, 0aH, 00H
	ORG $+4
$SG3231	DB	'Corrupted Heap Area !! Kernel stucked ', 0aH, 00H
$SG3272	DB	'Prev -> %x || Current -> %x | Next -> %x ', 0dH, 0aH, 00H
	ORG $+4
$SG3280	DB	'Meta merge next corrupted %x , curr -> %x ', 0dH, 0aH, 00H
	ORG $+3
$SG3292	DB	'Meta found corrupted block %x ', 0dH, 0aH, 00H
	ORG $+7
$SG3300	DB	'KFREE: Ptr is page-aligned ', 0dH, 0aH, 00H
	ORG $+2
$SG3307	DB	'meta kfree corruption -> %x, meta -> %x ', 0aH, 00H
CONST	ENDS
PUBLIC	AuHeapInitialize
PUBLIC	kmalloc
PUBLIC	krealloc
PUBLIC	kcalloc
PUBLIC	kfree
PUBLIC	kheap_debug
PUBLIC	kmalloc_debug_on
PUBLIC	?au_free_page@@YAXPEAXH@Z			; au_free_page
PUBLIC	?au_request_page@@YAPEAXH@Z			; au_request_page
PUBLIC	?next_power_of_two@@YAHI@Z			; next_power_of_two
PUBLIC	?align24@@YA_K_K@Z				; align24
PUBLIC	?au_split_block@@YAHPEAU_meta_data_@@_K@Z	; au_split_block
PUBLIC	?au_expand_kmalloc@@YAX_K@Z			; au_expand_kmalloc
PUBLIC	?merge_next@@YAXPEAU_meta_data_@@@Z		; merge_next
PUBLIC	?merge_prev@@YAXPEAU_meta_data_@@@Z		; merge_prev
EXTRN	memset:PROC
EXTRN	memcpy:PROC
EXTRN	AuMapPage:PROC
EXTRN	AuGetFreePage:PROC
EXTRN	AuFreePages:PROC
EXTRN	AuPmmngrAlloc:PROC
EXTRN	AuTextOut:PROC
EXTRN	SeTextOut:PROC
_BSS	SEGMENT
	ALIGN	8

first_block DQ	01H DUP (?)
last_block DQ	01H DUP (?)
_BSS	ENDS
pdata	SEGMENT
$pdata$AuHeapInitialize DD imagerel $LN3
	DD	imagerel $LN3+201
	DD	imagerel $unwind$AuHeapInitialize
$pdata$kmalloc DD imagerel $LN13
	DD	imagerel $LN13+294
	DD	imagerel $unwind$kmalloc
$pdata$krealloc DD imagerel $LN4
	DD	imagerel $LN4+77
	DD	imagerel $unwind$krealloc
$pdata$kcalloc DD imagerel $LN4
	DD	imagerel $LN4+79
	DD	imagerel $unwind$kcalloc
$pdata$kfree DD	imagerel $LN6
	DD	imagerel $LN6+156
	DD	imagerel $unwind$kfree
$pdata$kheap_debug DD imagerel $LN6
	DD	imagerel $LN6+82
	DD	imagerel $unwind$kheap_debug
$pdata$?au_free_page@@YAXPEAXH@Z DD imagerel $LN3
	DD	imagerel $LN3+38
	DD	imagerel $unwind$?au_free_page@@YAXPEAXH@Z
$pdata$?au_request_page@@YAPEAXH@Z DD imagerel $LN6
	DD	imagerel $LN6+126
	DD	imagerel $unwind$?au_request_page@@YAPEAXH@Z
$pdata$?next_power_of_two@@YAHI@Z DD imagerel $LN6
	DD	imagerel $LN6+80
	DD	imagerel $unwind$?next_power_of_two@@YAHI@Z
$pdata$?align24@@YA_K_K@Z DD imagerel $LN3
	DD	imagerel $LN3+49
	DD	imagerel $unwind$?align24@@YA_K_K@Z
$pdata$?au_split_block@@YAHPEAU_meta_data_@@_K@Z DD imagerel $LN10
	DD	imagerel $LN10+324
	DD	imagerel $unwind$?au_split_block@@YAHPEAU_meta_data_@@_K@Z
$pdata$?au_expand_kmalloc@@YAX_K@Z DD imagerel $LN9
	DD	imagerel $LN9+379
	DD	imagerel $unwind$?au_expand_kmalloc@@YAX_K@Z
$pdata$?merge_next@@YAXPEAU_meta_data_@@@Z DD imagerel $LN10
	DD	imagerel $LN10+271
	DD	imagerel $unwind$?merge_next@@YAXPEAU_meta_data_@@@Z
$pdata$?merge_prev@@YAXPEAU_meta_data_@@@Z DD imagerel $LN6
	DD	imagerel $LN6+160
	DD	imagerel $unwind$?merge_prev@@YAXPEAU_meta_data_@@@Z
pdata	ENDS
xdata	SEGMENT
$unwind$AuHeapInitialize DD 010401H
	DD	08204H
$unwind$kmalloc DD 010801H
	DD	0a208H
$unwind$krealloc DD 010d01H
	DD	0620dH
$unwind$kcalloc DD 010e01H
	DD	0620eH
$unwind$kfree DD 010901H
	DD	06209H
$unwind$kheap_debug DD 010401H
	DD	06204H
$unwind$?au_free_page@@YAXPEAXH@Z DD 010d01H
	DD	0420dH
$unwind$?au_request_page@@YAPEAXH@Z DD 010801H
	DD	08208H
$unwind$?next_power_of_two@@YAHI@Z DD 010801H
	DD	02208H
$unwind$?align24@@YA_K_K@Z DD 010901H
	DD	02209H
$unwind$?au_split_block@@YAHPEAU_meta_data_@@_K@Z DD 010e01H
	DD	0a20eH
$unwind$?au_expand_kmalloc@@YAX_K@Z DD 010901H
	DD	0a209H
$unwind$?merge_next@@YAXPEAU_meta_data_@@@Z DD 010901H
	DD	06209H
$unwind$?merge_prev@@YAXPEAU_meta_data_@@@Z DD 010901H
	DD	06209H
xdata	ENDS
; Function compile flags: /Odtpy
; File e:\xeneva project\aurora\kernel\mm\kmalloc.cpp
_TEXT	SEGMENT
meta_prev$1 = 32
meta$ = 64
?merge_prev@@YAXPEAU_meta_data_@@@Z PROC		; merge_prev

; 293  : void merge_prev(meta_data_t* meta) {

$LN6:
	mov	QWORD PTR [rsp+8], rcx
	sub	rsp, 56					; 00000038H

; 294  : 	if (meta->prev != NULL) {

	mov	rax, QWORD PTR meta$[rsp]
	cmp	QWORD PTR [rax+16], 0
	je	$LN3@merge_prev

; 295  : 		uint64_t meta_prev = (uint64_t)meta->prev;

	mov	rax, QWORD PTR meta$[rsp]
	mov	rax, QWORD PTR [rax+16]
	mov	QWORD PTR meta_prev$1[rsp], rax

; 296  : 		if (meta_prev < 0xFFFFE00000000000){

	mov	rax, -35184372088832			; ffffe00000000000H
	cmp	QWORD PTR meta_prev$1[rsp], rax
	jae	SHORT $LN2@merge_prev

; 297  : 			//this block is corrupted
; 298  : 			SeTextOut("Meta found corrupted block %x \r\n", meta->prev);

	mov	rax, QWORD PTR meta$[rsp]
	mov	rdx, QWORD PTR [rax+16]
	lea	rcx, OFFSET FLAT:$SG3292
	call	SeTextOut

; 299  : 			last_block->next = meta;

	mov	rax, QWORD PTR last_block
	mov	rcx, QWORD PTR meta$[rsp]
	mov	QWORD PTR [rax+8], rcx

; 300  : 			meta->prev = last_block;

	mov	rax, QWORD PTR meta$[rsp]
	mov	rcx, QWORD PTR last_block
	mov	QWORD PTR [rax+16], rcx

; 301  : 			meta->next = NULL;

	mov	rax, QWORD PTR meta$[rsp]
	mov	QWORD PTR [rax+8], 0

; 302  : 			/*kheap_debug();
; 303  : 			for (;;);*/
; 304  : 			return;

	jmp	SHORT $LN4@merge_prev
$LN2@merge_prev:

; 305  : 		}
; 306  : 		if (meta->prev->magic == MAGIC_FREE)

	mov	rax, QWORD PTR meta$[rsp]
	mov	rax, QWORD PTR [rax+16]
	cmp	DWORD PTR [rax], 86056995		; 05212023H
	jne	SHORT $LN1@merge_prev

; 307  : 			merge_next(meta->prev);

	mov	rax, QWORD PTR meta$[rsp]
	mov	rcx, QWORD PTR [rax+16]
	call	?merge_next@@YAXPEAU_meta_data_@@@Z	; merge_next
$LN1@merge_prev:
$LN3@merge_prev:
$LN4@merge_prev:

; 308  : 	}
; 309  : }

	add	rsp, 56					; 00000038H
	ret	0
?merge_prev@@YAXPEAU_meta_data_@@@Z ENDP		; merge_prev
_TEXT	ENDS
; Function compile flags: /Odtpy
; File e:\xeneva project\aurora\kernel\mm\kmalloc.cpp
_TEXT	SEGMENT
tv75 = 32
addr_valid$ = 40
meta$ = 64
?merge_next@@YAXPEAU_meta_data_@@@Z PROC		; merge_next

; 260  : void merge_next(meta_data_t *meta) {

$LN10:
	mov	QWORD PTR [rsp+8], rcx
	sub	rsp, 56					; 00000038H

; 261  : 	if (meta->next == NULL)

	mov	rax, QWORD PTR meta$[rsp]
	cmp	QWORD PTR [rax+8], 0
	jne	SHORT $LN5@merge_next

; 262  : 		return;

	jmp	$LN6@merge_next
$LN5@merge_next:

; 263  : 	uint64_t addr_valid = (uint64_t)meta->next;

	mov	rax, QWORD PTR meta$[rsp]
	mov	rax, QWORD PTR [rax+8]
	mov	QWORD PTR addr_valid$[rsp], rax

; 264  : 	//AuTextOut("merge next -> %x \n", meta->next);
; 265  : 	if (addr_valid < 0xFFFFE00000000000) {

	mov	rax, -35184372088832			; ffffe00000000000H
	cmp	QWORD PTR addr_valid$[rsp], rax
	jae	SHORT $LN4@merge_next

; 266  : 		SeTextOut("Meta merge next corrupted %x , curr -> %x \r\n",addr_valid, meta);

	mov	r8, QWORD PTR meta$[rsp]
	mov	rdx, QWORD PTR addr_valid$[rsp]
	lea	rcx, OFFSET FLAT:$SG3280
	call	SeTextOut

; 267  : 		meta->next = NULL;

	mov	rax, QWORD PTR meta$[rsp]
	mov	QWORD PTR [rax+8], 0

; 268  : 		return;

	jmp	$LN6@merge_next
$LN4@merge_next:

; 269  : 	}
; 270  : 
; 271  : 	if (!meta->next->magic == MAGIC_FREE)

	mov	rax, QWORD PTR meta$[rsp]
	mov	rax, QWORD PTR [rax+8]
	cmp	DWORD PTR [rax], 0
	jne	SHORT $LN8@merge_next
	mov	DWORD PTR tv75[rsp], 1
	jmp	SHORT $LN9@merge_next
$LN8@merge_next:
	mov	DWORD PTR tv75[rsp], 0
$LN9@merge_next:
	cmp	DWORD PTR tv75[rsp], 86056995		; 05212023H
	jne	SHORT $LN3@merge_next

; 272  : 		return;

	jmp	SHORT $LN6@merge_next
$LN3@merge_next:

; 273  : 	
; 274  : 	
; 275  : 	if (last_block == meta->next)

	mov	rax, QWORD PTR meta$[rsp]
	mov	rax, QWORD PTR [rax+8]
	cmp	QWORD PTR last_block, rax
	jne	SHORT $LN2@merge_next

; 276  : 		last_block = meta;

	mov	rax, QWORD PTR meta$[rsp]
	mov	QWORD PTR last_block, rax
$LN2@merge_next:

; 277  : 
; 278  : 	
; 279  : 
; 280  : 	meta->size += meta->next->size + sizeof(meta_data_t);

	mov	rax, QWORD PTR meta$[rsp]
	mov	rax, QWORD PTR [rax+8]
	movsxd	rax, DWORD PTR [rax+4]
	mov	rcx, QWORD PTR meta$[rsp]
	movsxd	rcx, DWORD PTR [rcx+4]
	lea	rax, QWORD PTR [rcx+rax+24]
	mov	rcx, QWORD PTR meta$[rsp]
	mov	DWORD PTR [rcx+4], eax

; 281  : 
; 282  : 	if (meta->next->next != NULL)

	mov	rax, QWORD PTR meta$[rsp]
	mov	rax, QWORD PTR [rax+8]
	cmp	QWORD PTR [rax+8], 0
	je	SHORT $LN1@merge_next

; 283  : 		meta->next->next->prev = meta;

	mov	rax, QWORD PTR meta$[rsp]
	mov	rax, QWORD PTR [rax+8]
	mov	rax, QWORD PTR [rax+8]
	mov	rcx, QWORD PTR meta$[rsp]
	mov	QWORD PTR [rax+16], rcx
$LN1@merge_next:

; 284  : 
; 285  : 	meta->next = meta->next->next;

	mov	rax, QWORD PTR meta$[rsp]
	mov	rax, QWORD PTR [rax+8]
	mov	rcx, QWORD PTR meta$[rsp]
	mov	rax, QWORD PTR [rax+8]
	mov	QWORD PTR [rcx+8], rax
$LN6@merge_next:

; 286  : }

	add	rsp, 56					; 00000038H
	ret	0
?merge_next@@YAXPEAU_meta_data_@@@Z ENDP		; merge_next
_TEXT	ENDS
; Function compile flags: /Odtpy
; File e:\xeneva project\aurora\kernel\mm\kmalloc.cpp
_TEXT	SEGMENT
tv69 = 32
meta$ = 40
req_pages$ = 48
page$ = 56
desc_addr$ = 64
lm$ = 72
req_size$ = 96
?au_expand_kmalloc@@YAX_K@Z PROC			; au_expand_kmalloc

; 149  : void au_expand_kmalloc(size_t req_size) {

$LN9:
	mov	QWORD PTR [rsp+8], rcx
	sub	rsp, 88					; 00000058H

; 150  : 
; 151  : 	/*if ((req_size % 2) != 0)
; 152  : 		req_size = next_power_of_two(req_size);*/
; 153  : 
; 154  : 	
; 155  : 	size_t req_pages = ((req_size + sizeof(meta_data_t)) / 0x1000) + 
; 156  : 		(((req_size + sizeof(meta_data_t)) % 0x1000) ? 1 : 0);

	mov	rax, QWORD PTR req_size$[rsp]
	add	rax, 24
	xor	edx, edx
	mov	ecx, 4096				; 00001000H
	div	rcx
	mov	rax, rdx
	test	rax, rax
	je	SHORT $LN7@au_expand_
	mov	DWORD PTR tv69[rsp], 1
	jmp	SHORT $LN8@au_expand_
$LN7@au_expand_:
	mov	DWORD PTR tv69[rsp], 0
$LN8@au_expand_:
	mov	rax, QWORD PTR req_size$[rsp]
	add	rax, 24
	xor	edx, edx
	mov	ecx, 4096				; 00001000H
	div	rcx
	movsxd	rcx, DWORD PTR tv69[rsp]
	add	rax, rcx
	mov	QWORD PTR req_pages$[rsp], rax

; 157  : 	//req_pages = (req_size + sizeof(meta_data_t)) / 4096 + 1;
; 158  : 	void* page = au_request_page(req_pages);

	mov	ecx, DWORD PTR req_pages$[rsp]
	call	?au_request_page@@YAPEAXH@Z		; au_request_page
	mov	QWORD PTR page$[rsp], rax

; 159  : 
; 160  : 	uint8_t* desc_addr = (uint8_t*)page;

	mov	rax, QWORD PTR page$[rsp]
	mov	QWORD PTR desc_addr$[rsp], rax

; 161  : 	/* setup the first meta data block */
; 162  : 	meta_data_t *meta = (meta_data_t*)desc_addr;

	mov	rax, QWORD PTR desc_addr$[rsp]
	mov	QWORD PTR meta$[rsp], rax

; 163  : 
; 164  : 	//meta->free = true;
; 165  : 	meta->next = NULL;

	mov	rax, QWORD PTR meta$[rsp]
	mov	QWORD PTR [rax+8], 0

; 166  : 	meta->prev = NULL;

	mov	rax, QWORD PTR meta$[rsp]
	mov	QWORD PTR [rax+16], 0

; 167  : 	meta->magic = MAGIC_FREE;

	mov	rax, QWORD PTR meta$[rsp]
	mov	DWORD PTR [rax], 86056995		; 05212023H

; 168  : 	
; 169  : 	/* meta->size holds only the usable area size for user */
; 170  : 	meta->size = (req_pages * PAGE_SIZE) - sizeof(meta_data_t);

	imul	rax, QWORD PTR req_pages$[rsp], 4096	; 00001000H
	sub	rax, 24
	mov	rcx, QWORD PTR meta$[rsp]
	mov	DWORD PTR [rcx+4], eax

; 171  : 	meta->prev = last_block;

	mov	rax, QWORD PTR meta$[rsp]
	mov	rcx, QWORD PTR last_block
	mov	QWORD PTR [rax+16], rcx

; 172  : 	
; 173  : 	if (!meta->prev) {

	mov	rax, QWORD PTR meta$[rsp]
	cmp	QWORD PTR [rax+16], 0
	jne	SHORT $LN4@au_expand_

; 174  : 		AuTextOut("Corrupted Heap Area !! Kernel stucked \n");

	lea	rcx, OFFSET FLAT:$SG3231
	call	AuTextOut
$LN3@au_expand_:

; 175  : 		for (;;);

	jmp	SHORT $LN3@au_expand_
$LN4@au_expand_:

; 176  : 	}
; 177  : 	last_block->next = meta;

	mov	rax, QWORD PTR last_block
	mov	rcx, QWORD PTR meta$[rsp]
	mov	QWORD PTR [rax+8], rcx

; 178  : 	last_block = meta;

	mov	rax, QWORD PTR meta$[rsp]
	mov	QWORD PTR last_block, rax

; 179  : 
; 180  : 	
; 181  : 
; 182  : 	/* now check if we can merge the last block and this
; 183  : 	* into one
; 184  : 	*/
; 185  : 	if (meta->prev->magic == MAGIC_FREE) {

	mov	rax, QWORD PTR meta$[rsp]
	mov	rax, QWORD PTR [rax+16]
	cmp	DWORD PTR [rax], 86056995		; 05212023H
	jne	SHORT $LN1@au_expand_

; 186  : 		meta->prev->size += meta->size - sizeof(meta_data_t);

	mov	rax, QWORD PTR meta$[rsp]
	mov	rax, QWORD PTR [rax+16]
	mov	rcx, QWORD PTR meta$[rsp]
	movsxd	rcx, DWORD PTR [rcx+4]
	movsxd	rax, DWORD PTR [rax+4]
	lea	rax, QWORD PTR [rax+rcx-24]
	mov	rcx, QWORD PTR meta$[rsp]
	mov	rcx, QWORD PTR [rcx+16]
	mov	DWORD PTR [rcx+4], eax

; 187  : 		meta->prev->next = NULL;

	mov	rax, QWORD PTR meta$[rsp]
	mov	rax, QWORD PTR [rax+16]
	mov	QWORD PTR [rax+8], 0

; 188  : 		last_block = meta->prev;

	mov	rax, QWORD PTR meta$[rsp]
	mov	rax, QWORD PTR [rax+16]
	mov	QWORD PTR last_block, rax
$LN1@au_expand_:

; 189  : 	}
; 190  : 
; 191  : 	uint64_t lm = (uint64_t)page;

	mov	rax, QWORD PTR page$[rsp]
	mov	QWORD PTR lm$[rsp], rax

; 192  : 	last_mark = (uint64_t)(lm + (req_pages * 4096));

	imul	rax, QWORD PTR req_pages$[rsp], 4096	; 00001000H
	mov	rcx, QWORD PTR lm$[rsp]
	add	rcx, rax
	mov	rax, rcx
	mov	QWORD PTR ?last_mark@@3_KA, rax		; last_mark

; 193  : 
; 194  : }

	add	rsp, 88					; 00000058H
	ret	0
?au_expand_kmalloc@@YAX_K@Z ENDP			; au_expand_kmalloc
_TEXT	ENDS
; Function compile flags: /Odtpy
; File e:\xeneva project\aurora\kernel\mm\kmalloc.cpp
_TEXT	SEGMENT
new_block_m$ = 32
new_block$ = 40
new_block_pos$ = 48
size$ = 56
meta_block_a$ = 64
splitable$ = 96
req_size$ = 104
?au_split_block@@YAHPEAU_meta_data_@@_K@Z PROC		; au_split_block

; 97   : int au_split_block(meta_data_t* splitable, size_t req_size) {

$LN10:
	mov	QWORD PTR [rsp+16], rdx
	mov	QWORD PTR [rsp+8], rcx
	sub	rsp, 88					; 00000058H

; 98   : 
; 99   : 	uint8_t* meta_block_a = (uint8_t*)splitable;

	mov	rax, QWORD PTR splitable$[rsp]
	mov	QWORD PTR meta_block_a$[rsp], rax

; 100  : 	size_t size = splitable->size - req_size - sizeof(meta_data_t);

	mov	rax, QWORD PTR splitable$[rsp]
	movsxd	rax, DWORD PTR [rax+4]
	sub	rax, QWORD PTR req_size$[rsp]
	sub	rax, 24
	mov	QWORD PTR size$[rsp], rax

; 101  : 
; 102  : 
; 103  : 	if (size <= sizeof(meta_data_t))

	cmp	QWORD PTR size$[rsp], 24
	ja	SHORT $LN7@au_split_b

; 104  : 		return 1;

	mov	eax, 1
	jmp	$LN8@au_split_b
$LN7@au_split_b:

; 105  : 
; 106  : 
; 107  : 	uint8_t* new_block = (uint8_t*)((size_t)splitable + sizeof(meta_data_t) + req_size);

	mov	rax, QWORD PTR splitable$[rsp]
	mov	rcx, QWORD PTR req_size$[rsp]
	lea	rax, QWORD PTR [rax+rcx+24]
	mov	QWORD PTR new_block$[rsp], rax

; 108  : 
; 109  : 	
; 110  : 	meta_data_t* new_block_m = (meta_data_t*)new_block;

	mov	rax, QWORD PTR new_block$[rsp]
	mov	QWORD PTR new_block_m$[rsp], rax

; 111  : 	
; 112  : 	uint64_t new_block_pos = (uint64_t)new_block;

	mov	rax, QWORD PTR new_block$[rsp]
	mov	QWORD PTR new_block_pos$[rsp], rax

; 113  : 	
; 114  : 	if ((new_block_pos) >= last_mark) {

	mov	rax, QWORD PTR ?last_mark@@3_KA		; last_mark
	cmp	QWORD PTR new_block_pos$[rsp], rax
	jb	SHORT $LN6@au_split_b

; 115  : 		SeTextOut("Aramse last mark \r\n");

	lea	rcx, OFFSET FLAT:$SG3209
	call	SeTextOut
$LN5@au_split_b:

; 116  : 		for (;;);

	jmp	SHORT $LN5@au_split_b

; 117  : 		return 0;

	xor	eax, eax
	jmp	$LN8@au_split_b
$LN6@au_split_b:

; 118  : 	}
; 119  : 
; 120  : 	if ((new_block_pos + sizeof(meta_data_t)) >= last_mark){

	mov	rax, QWORD PTR new_block_pos$[rsp]
	add	rax, 24
	cmp	rax, QWORD PTR ?last_mark@@3_KA		; last_mark
	jb	SHORT $LN3@au_split_b

; 121  : 		SeTextOut("Aramse Last mark \r\n");

	lea	rcx, OFFSET FLAT:$SG3215
	call	SeTextOut

; 122  : 		return 0;

	xor	eax, eax
	jmp	$LN8@au_split_b
$LN3@au_split_b:

; 123  : 	}
; 124  : 
; 125  : 	new_block_m->magic = MAGIC_FREE;

	mov	rax, QWORD PTR new_block_m$[rsp]
	mov	DWORD PTR [rax], 86056995		; 05212023H

; 126  : 	new_block_m->prev = splitable;

	mov	rax, QWORD PTR new_block_m$[rsp]
	mov	rcx, QWORD PTR splitable$[rsp]
	mov	QWORD PTR [rax+16], rcx

; 127  : 	new_block_m->next = splitable->next;

	mov	rax, QWORD PTR new_block_m$[rsp]
	mov	rcx, QWORD PTR splitable$[rsp]
	mov	rcx, QWORD PTR [rcx+8]
	mov	QWORD PTR [rax+8], rcx

; 128  : 	if (new_block_m->next != NULL)

	mov	rax, QWORD PTR new_block_m$[rsp]
	cmp	QWORD PTR [rax+8], 0
	je	SHORT $LN2@au_split_b

; 129  : 		new_block_m->next->prev = new_block_m;

	mov	rax, QWORD PTR new_block_m$[rsp]
	mov	rax, QWORD PTR [rax+8]
	mov	rcx, QWORD PTR new_block_m$[rsp]
	mov	QWORD PTR [rax+16], rcx
$LN2@au_split_b:

; 130  : 
; 131  : 
; 132  : 	new_block_m->size = size;

	mov	rax, QWORD PTR new_block_m$[rsp]
	mov	ecx, DWORD PTR size$[rsp]
	mov	DWORD PTR [rax+4], ecx

; 133  : 
; 134  : 
; 135  : 	splitable->size = req_size;

	mov	rax, QWORD PTR splitable$[rsp]
	mov	ecx, DWORD PTR req_size$[rsp]
	mov	DWORD PTR [rax+4], ecx

; 136  : 	splitable->next = new_block_m;

	mov	rax, QWORD PTR splitable$[rsp]
	mov	rcx, QWORD PTR new_block_m$[rsp]
	mov	QWORD PTR [rax+8], rcx

; 137  : 
; 138  : 
; 139  : 	if (last_block == splitable)

	mov	rax, QWORD PTR splitable$[rsp]
	cmp	QWORD PTR last_block, rax
	jne	SHORT $LN1@au_split_b

; 140  : 		last_block = new_block_m;

	mov	rax, QWORD PTR new_block_m$[rsp]
	mov	QWORD PTR last_block, rax
$LN1@au_split_b:

; 141  : 
; 142  : 	return 1;

	mov	eax, 1
$LN8@au_split_b:

; 143  : }

	add	rsp, 88					; 00000058H
	ret	0
?au_split_block@@YAHPEAU_meta_data_@@_K@Z ENDP		; au_split_block
_TEXT	ENDS
; Function compile flags: /Odtpy
; File e:\xeneva project\aurora\kernel\mm\kmalloc.cpp
_TEXT	SEGMENT
alignment$ = 0
val$ = 32
?align24@@YA_K_K@Z PROC					; align24

; 89   : size_t align24(size_t val) {

$LN3:
	mov	QWORD PTR [rsp+8], rcx
	sub	rsp, 24

; 90   : 	size_t alignment = 24;

	mov	QWORD PTR alignment$[rsp], 24

; 91   : 	return (val + alignment-1) & ~(alignment - 1);

	mov	rax, QWORD PTR val$[rsp]
	mov	rcx, QWORD PTR alignment$[rsp]
	lea	rax, QWORD PTR [rax+rcx-1]
	mov	rcx, QWORD PTR alignment$[rsp]
	dec	rcx
	not	rcx
	and	rax, rcx

; 92   : }

	add	rsp, 24
	ret	0
?align24@@YA_K_K@Z ENDP					; align24
_TEXT	ENDS
; Function compile flags: /Odtpy
; File e:\xeneva project\aurora\kernel\mm\kmalloc.cpp
_TEXT	SEGMENT
i$ = 0
tv74 = 4
val$ = 32
?next_power_of_two@@YAHI@Z PROC				; next_power_of_two

; 82   : int next_power_of_two(unsigned int val) {

$LN6:
	mov	DWORD PTR [rsp+8], ecx
	sub	rsp, 24

; 83   : 	int i = 0;

	mov	DWORD PTR i$[rsp], 0

; 84   : 	for (--val; val > 0; val >>= 1)

	mov	eax, DWORD PTR val$[rsp]
	dec	eax
	mov	DWORD PTR val$[rsp], eax
	jmp	SHORT $LN3@next_power
$LN2@next_power:
	mov	eax, DWORD PTR val$[rsp]
	shr	eax, 1
	mov	DWORD PTR val$[rsp], eax
$LN3@next_power:
	cmp	DWORD PTR val$[rsp], 0
	jbe	SHORT $LN1@next_power

; 85   : 		i++;

	mov	eax, DWORD PTR i$[rsp]
	inc	eax
	mov	DWORD PTR i$[rsp], eax
	jmp	SHORT $LN2@next_power
$LN1@next_power:

; 86   : 	return 1 << i;

	mov	eax, DWORD PTR i$[rsp]
	mov	ecx, 1
	mov	DWORD PTR tv74[rsp], ecx
	movzx	ecx, al
	mov	eax, DWORD PTR tv74[rsp]
	shl	eax, cl

; 87   : }

	add	rsp, 24
	ret	0
?next_power_of_two@@YAHI@Z ENDP				; next_power_of_two
_TEXT	ENDS
; Function compile flags: /Odtpy
; File e:\xeneva project\aurora\kernel\mm\kmalloc.cpp
_TEXT	SEGMENT
i$1 = 32
page$ = 40
page_$ = 48
p$2 = 56
pages$ = 80
?au_request_page@@YAPEAXH@Z PROC			; au_request_page

; 370  : void* au_request_page(int pages) {

$LN6:
	mov	DWORD PTR [rsp+8], ecx
	sub	rsp, 72					; 00000048H

; 371  : 	uint64_t* page = AuGetFreePage(0, false);

	xor	edx, edx
	xor	ecx, ecx
	call	AuGetFreePage
	mov	QWORD PTR page$[rsp], rax

; 372  : 	uint64_t page_ = (uint64_t)page;

	mov	rax, QWORD PTR page$[rsp]
	mov	QWORD PTR page_$[rsp], rax

; 373  : 	
; 374  : 	for (size_t i = 0; i < pages; i++) {

	mov	QWORD PTR i$1[rsp], 0
	jmp	SHORT $LN3@au_request
$LN2@au_request:
	mov	rax, QWORD PTR i$1[rsp]
	inc	rax
	mov	QWORD PTR i$1[rsp], rax
$LN3@au_request:
	movsxd	rax, DWORD PTR pages$[rsp]
	cmp	QWORD PTR i$1[rsp], rax
	jae	SHORT $LN1@au_request

; 375  : 		void* p = AuPmmngrAlloc();

	call	AuPmmngrAlloc
	mov	QWORD PTR p$2[rsp], rax

; 376  : 		AuMapPage((uint64_t)p, page_ + i * 4096, 0);

	imul	rax, QWORD PTR i$1[rsp], 4096		; 00001000H
	mov	rcx, QWORD PTR page_$[rsp]
	add	rcx, rax
	mov	rax, rcx
	xor	r8d, r8d
	mov	rdx, rax
	mov	rcx, QWORD PTR p$2[rsp]
	call	AuMapPage

; 377  : 	}

	jmp	SHORT $LN2@au_request
$LN1@au_request:

; 378  : 	
; 379  : 	return page;

	mov	rax, QWORD PTR page$[rsp]

; 380  : }

	add	rsp, 72					; 00000048H
	ret	0
?au_request_page@@YAPEAXH@Z ENDP			; au_request_page
_TEXT	ENDS
; Function compile flags: /Odtpy
; File e:\xeneva project\aurora\kernel\mm\kmalloc.cpp
_TEXT	SEGMENT
ptr$ = 48
pages$ = 56
?au_free_page@@YAXPEAXH@Z PROC				; au_free_page

; 388  : void au_free_page(void* ptr, int pages) {

$LN3:
	mov	DWORD PTR [rsp+16], edx
	mov	QWORD PTR [rsp+8], rcx
	sub	rsp, 40					; 00000028H

; 389  : 	AuFreePages((uint64_t)ptr, true, pages);

	movsxd	rax, DWORD PTR pages$[rsp]
	mov	r8, rax
	mov	dl, 1
	mov	rcx, QWORD PTR ptr$[rsp]
	call	AuFreePages

; 390  : }

	add	rsp, 40					; 00000028H
	ret	0
?au_free_page@@YAXPEAXH@Z ENDP				; au_free_page
_TEXT	ENDS
; Function compile flags: /Odtpy
; File e:\xeneva project\aurora\kernel\mm\kmalloc.cpp
_TEXT	SEGMENT
bit$ = 8
kmalloc_debug_on PROC

; 393  : void kmalloc_debug_on(bool bit) {

	mov	BYTE PTR [rsp+8], cl

; 394  : 	_debug_on = bit;

	movzx	eax, BYTE PTR bit$[rsp]
	mov	BYTE PTR ?_debug_on@@3_NA, al		; _debug_on

; 395  : }

	ret	0
kmalloc_debug_on ENDP
_TEXT	ENDS
; Function compile flags: /Odtpy
; File e:\xeneva project\aurora\kernel\mm\kmalloc.cpp
_TEXT	SEGMENT
block$1 = 32
kheap_debug PROC

; 249  : void kheap_debug() {

$LN6:
	sub	rsp, 56					; 00000038H

; 250  : 	for (meta_data_t *block = first_block; block != NULL; block = block->next) {

	mov	rax, QWORD PTR first_block
	mov	QWORD PTR block$1[rsp], rax
	jmp	SHORT $LN3@kheap_debu
$LN2@kheap_debu:
	mov	rax, QWORD PTR block$1[rsp]
	mov	rax, QWORD PTR [rax+8]
	mov	QWORD PTR block$1[rsp], rax
$LN3@kheap_debu:
	cmp	QWORD PTR block$1[rsp], 0
	je	SHORT $LN1@kheap_debu

; 251  : 		SeTextOut("Prev -> %x || Current -> %x | Next -> %x \r\n", block->prev, block, block->next);

	mov	rax, QWORD PTR block$1[rsp]
	mov	r9, QWORD PTR [rax+8]
	mov	r8, QWORD PTR block$1[rsp]
	mov	rax, QWORD PTR block$1[rsp]
	mov	rdx, QWORD PTR [rax+16]
	lea	rcx, OFFSET FLAT:$SG3272
	call	SeTextOut

; 252  : 	}

	jmp	SHORT $LN2@kheap_debu
$LN1@kheap_debu:

; 253  : }

	add	rsp, 56					; 00000038H
	ret	0
kheap_debug ENDP
_TEXT	ENDS
; Function compile flags: /Odtpy
; File e:\xeneva project\aurora\kernel\mm\kmalloc.cpp
_TEXT	SEGMENT
meta$ = 32
actual_addr$ = 40
ptr$ = 64
kfree	PROC

; 315  : void kfree(void* ptr) {

$LN6:
	mov	QWORD PTR [rsp+8], rcx
	sub	rsp, 56					; 00000038H

; 316  : 	if (!ptr) 

	cmp	QWORD PTR ptr$[rsp], 0
	jne	SHORT $LN3@kfree

; 317  : 		return;

	jmp	$LN4@kfree
$LN3@kfree:

; 318  : 	if (((size_t)ptr % PAGE_SIZE) == 0)

	xor	edx, edx
	mov	rax, QWORD PTR ptr$[rsp]
	mov	ecx, 4096				; 00001000H
	div	rcx
	mov	rax, rdx
	test	rax, rax
	jne	SHORT $LN2@kfree

; 319  : 		SeTextOut("KFREE: Ptr is page-aligned \r\n");

	lea	rcx, OFFSET FLAT:$SG3300
	call	SeTextOut
$LN2@kfree:

; 320  : 
; 321  : 	uint8_t* actual_addr = (uint8_t*)ptr;

	mov	rax, QWORD PTR ptr$[rsp]
	mov	QWORD PTR actual_addr$[rsp], rax

; 322  : 	meta_data_t *meta = (meta_data_t*)(actual_addr - sizeof(meta_data_t));

	mov	rax, QWORD PTR actual_addr$[rsp]
	sub	rax, 24
	mov	QWORD PTR meta$[rsp], rax

; 323  : 	if (meta->magic != MAGIC_USED) {

	mov	rax, QWORD PTR meta$[rsp]
	cmp	DWORD PTR [rax], 369500162		; 16062002H
	je	SHORT $LN1@kfree

; 324  : 		AuTextOut("meta kfree corruption -> %x, meta -> %x \n", meta->magic, meta);

	mov	r8, QWORD PTR meta$[rsp]
	mov	rax, QWORD PTR meta$[rsp]
	mov	edx, DWORD PTR [rax]
	lea	rcx, OFFSET FLAT:$SG3307
	call	AuTextOut

; 325  : 		return;

	jmp	SHORT $LN4@kfree
$LN1@kfree:

; 326  : 	}
; 327  : 	meta->magic = MAGIC_FREE;

	mov	rax, QWORD PTR meta$[rsp]
	mov	DWORD PTR [rax], 86056995		; 05212023H

; 328  : 
; 329  : 	/* merge it with 3 near blocks if they are free*/
; 330  : 	merge_next(meta);

	mov	rcx, QWORD PTR meta$[rsp]
	call	?merge_next@@YAXPEAU_meta_data_@@@Z	; merge_next

; 331  : 	merge_prev(meta);

	mov	rcx, QWORD PTR meta$[rsp]
	call	?merge_prev@@YAXPEAU_meta_data_@@@Z	; merge_prev
$LN4@kfree:

; 332  : 	
; 333  : }

	add	rsp, 56					; 00000038H
	ret	0
kfree	ENDP
_TEXT	ENDS
; Function compile flags: /Odtpy
; File e:\xeneva project\aurora\kernel\mm\kmalloc.cpp
_TEXT	SEGMENT
ptr$ = 32
total$ = 40
n_item$ = 64
size$ = 72
kcalloc	PROC

; 358  : void* kcalloc(size_t n_item, size_t size) {

$LN4:
	mov	QWORD PTR [rsp+16], rdx
	mov	QWORD PTR [rsp+8], rcx
	sub	rsp, 56					; 00000038H

; 359  : 	size_t total = n_item * size;

	mov	rax, QWORD PTR n_item$[rsp]
	imul	rax, QWORD PTR size$[rsp]
	mov	QWORD PTR total$[rsp], rax

; 360  : 
; 361  : 	void* ptr = kmalloc(total);

	mov	ecx, DWORD PTR total$[rsp]
	call	kmalloc
	mov	QWORD PTR ptr$[rsp], rax

; 362  : 	if (ptr)

	cmp	QWORD PTR ptr$[rsp], 0
	je	SHORT $LN1@kcalloc

; 363  : 		memset(ptr, 0, total);

	mov	r8d, DWORD PTR total$[rsp]
	xor	edx, edx
	mov	rcx, QWORD PTR ptr$[rsp]
	call	memset
$LN1@kcalloc:

; 364  : 	return ptr;

	mov	rax, QWORD PTR ptr$[rsp]

; 365  : }

	add	rsp, 56					; 00000038H
	ret	0
kcalloc	ENDP
_TEXT	ENDS
; Function compile flags: /Odtpy
; File e:\xeneva project\aurora\kernel\mm\kmalloc.cpp
_TEXT	SEGMENT
result$ = 32
ptr$ = 64
new_size$ = 72
krealloc PROC

; 340  : void* krealloc(void* ptr, unsigned int new_size) {

$LN4:
	mov	DWORD PTR [rsp+16], edx
	mov	QWORD PTR [rsp+8], rcx
	sub	rsp, 56					; 00000038H

; 341  : 	void* result = kmalloc(new_size);

	mov	ecx, DWORD PTR new_size$[rsp]
	call	kmalloc
	mov	QWORD PTR result$[rsp], rax

; 342  : 	if (ptr) {

	cmp	QWORD PTR ptr$[rsp], 0
	je	SHORT $LN1@krealloc

; 343  : 		/* here we can check the size difference
; 344  : 		* of new_size and old size from internal
; 345  : 		* data structure of kmalloc */
; 346  : 		memcpy(result, ptr, new_size);

	mov	eax, DWORD PTR new_size$[rsp]
	mov	r8d, eax
	mov	rdx, QWORD PTR ptr$[rsp]
	mov	rcx, QWORD PTR result$[rsp]
	call	memcpy
$LN1@krealloc:

; 347  : 	}
; 348  : 
; 349  : 	kfree(ptr);

	mov	rcx, QWORD PTR ptr$[rsp]
	call	kfree

; 350  : 	return result;

	mov	rax, QWORD PTR result$[rsp]

; 351  : }

	add	rsp, 56					; 00000038H
	ret	0
krealloc ENDP
_TEXT	ENDS
; Function compile flags: /Odtpy
; File e:\xeneva project\aurora\kernel\mm\kmalloc.cpp
_TEXT	SEGMENT
sz$ = 32
meta$ = 40
ret$ = 48
addr$1 = 56
meta_addr$2 = 64
size$ = 96
kmalloc	PROC

; 200  : void* kmalloc(unsigned int size) {

$LN13:
	mov	DWORD PTR [rsp+8], ecx
	sub	rsp, 88					; 00000058H

; 201  : 	meta_data_t *meta = first_block;

	mov	rax, QWORD PTR first_block
	mov	QWORD PTR meta$[rsp], rax

; 202  : 	void* ret = 0;

	mov	QWORD PTR ret$[rsp], 0

; 203  : 
; 204  : 	int sz = size;

	mov	eax, DWORD PTR size$[rsp]
	mov	DWORD PTR sz$[rsp], eax

; 205  : 
; 206  : 	if (size < 24)

	cmp	DWORD PTR size$[rsp], 24
	jae	SHORT $LN10@kmalloc

; 207  : 		size = 24;

	mov	DWORD PTR size$[rsp], 24
$LN10@kmalloc:

; 208  : 
; 209  : 	if ((size % 24) != 0) 

	xor	edx, edx
	mov	eax, DWORD PTR size$[rsp]
	mov	ecx, 24
	div	ecx
	mov	eax, edx
	test	eax, eax
	je	SHORT $LN9@kmalloc

; 210  : 		size = align24(size);

	mov	eax, DWORD PTR size$[rsp]
	mov	ecx, eax
	call	?align24@@YA_K_K@Z			; align24
	mov	DWORD PTR size$[rsp], eax
$LN9@kmalloc:
$LN8@kmalloc:

; 211  : 
; 212  : 	//SeTextOut("Requested sz -> %d , aligned -> %d \r\n", sz, size);
; 213  : 
; 214  : 	/* now search begins */
; 215  : 	while (meta){

	cmp	QWORD PTR meta$[rsp], 0
	je	$LN7@kmalloc

; 216  : 		if (meta->magic == MAGIC_FREE) {

	mov	rax, QWORD PTR meta$[rsp]
	cmp	DWORD PTR [rax], 86056995		; 05212023H
	jne	SHORT $LN6@kmalloc

; 217  : 			if (meta->size > size) {

	mov	rax, QWORD PTR meta$[rsp]
	mov	ecx, DWORD PTR size$[rsp]
	cmp	DWORD PTR [rax+4], ecx
	jbe	SHORT $LN5@kmalloc

; 218  : 				if (au_split_block(meta, size)){

	mov	eax, DWORD PTR size$[rsp]
	mov	edx, eax
	mov	rcx, QWORD PTR meta$[rsp]
	call	?au_split_block@@YAHPEAU_meta_data_@@_K@Z ; au_split_block
	test	eax, eax
	je	SHORT $LN4@kmalloc

; 219  : 					meta->magic = MAGIC_USED;

	mov	rax, QWORD PTR meta$[rsp]
	mov	DWORD PTR [rax], 369500162		; 16062002H

; 220  : 					uint8_t* meta_addr = (uint8_t*)meta;

	mov	rax, QWORD PTR meta$[rsp]
	mov	QWORD PTR meta_addr$2[rsp], rax

; 221  : 					ret = (void*)((size_t)meta + sizeof(meta_data_t));

	mov	rax, QWORD PTR meta$[rsp]
	add	rax, 24
	mov	QWORD PTR ret$[rsp], rax

; 222  : 					break;

	jmp	SHORT $LN7@kmalloc
$LN4@kmalloc:
$LN5@kmalloc:

; 223  : 				}
; 224  : 			}
; 225  : 
; 226  : 			if (meta->size == size) {

	mov	rax, QWORD PTR meta$[rsp]
	mov	ecx, DWORD PTR size$[rsp]
	cmp	DWORD PTR [rax+4], ecx
	jne	SHORT $LN3@kmalloc

; 227  : 				meta->magic = MAGIC_USED;

	mov	rax, QWORD PTR meta$[rsp]
	mov	DWORD PTR [rax], 369500162		; 16062002H

; 228  : 				uint8_t* addr = (uint8_t*)meta;

	mov	rax, QWORD PTR meta$[rsp]
	mov	QWORD PTR addr$1[rsp], rax

; 229  : 				ret = ((uint8_t*)addr + sizeof(meta_data_t));

	mov	rax, QWORD PTR addr$1[rsp]
	add	rax, 24
	mov	QWORD PTR ret$[rsp], rax

; 230  : 				break;

	jmp	SHORT $LN7@kmalloc
$LN3@kmalloc:
$LN6@kmalloc:

; 231  : 			}
; 232  : 		}
; 233  : 
; 234  : 		meta = meta->next;

	mov	rax, QWORD PTR meta$[rsp]
	mov	rax, QWORD PTR [rax+8]
	mov	QWORD PTR meta$[rsp], rax

; 235  : 	}

	jmp	$LN8@kmalloc
$LN7@kmalloc:

; 236  : 
; 237  : 	if (ret) {

	cmp	QWORD PTR ret$[rsp], 0
	je	SHORT $LN2@kmalloc

; 238  : 	//	meta_data_t *meta = (meta_data_t*)(ret - sizeof(meta_data_t));
; 239  : 		//SeTextOut("Returning malloc mem -> %x \r\n", ret);
; 240  : 		return ret;

	mov	rax, QWORD PTR ret$[rsp]
	jmp	SHORT $LN11@kmalloc

; 241  : 	}
; 242  : 	else{

	jmp	SHORT $LN1@kmalloc
$LN2@kmalloc:

; 243  : 		au_expand_kmalloc(size);

	mov	eax, DWORD PTR size$[rsp]
	mov	ecx, eax
	call	?au_expand_kmalloc@@YAX_K@Z		; au_expand_kmalloc
$LN1@kmalloc:

; 244  : 
; 245  : 	}
; 246  : 	return kmalloc(size);

	mov	ecx, DWORD PTR size$[rsp]
	call	kmalloc
$LN11@kmalloc:

; 247  : }

	add	rsp, 88					; 00000058H
	ret	0
kmalloc	ENDP
_TEXT	ENDS
; Function compile flags: /Odtpy
; File e:\xeneva project\aurora\kernel\mm\kmalloc.cpp
_TEXT	SEGMENT
meta$ = 32
page$ = 40
desc_addr$ = 48
AuHeapInitialize PROC

; 55   : void AuHeapInitialize() {

$LN3:
	sub	rsp, 72					; 00000048H

; 56   : 	last_block = NULL;

	mov	QWORD PTR last_block, 0

; 57   : 	first_block = NULL;

	mov	QWORD PTR first_block, 0

; 58   : 	last_mark = 0;

	mov	QWORD PTR ?last_mark@@3_KA, 0		; last_mark

; 59   : 	_debug_on = false;

	mov	BYTE PTR ?_debug_on@@3_NA, 0		; _debug_on

; 60   : 	void* page = au_request_page(1);

	mov	ecx, 1
	call	?au_request_page@@YAPEAXH@Z		; au_request_page
	mov	QWORD PTR page$[rsp], rax

; 61   : 	memset(page, 0, (1 * 4096));

	mov	r8d, 4096				; 00001000H
	xor	edx, edx
	mov	rcx, QWORD PTR page$[rsp]
	call	memset

; 62   : 	/* setup the first meta data block */
; 63   : 	uint8_t* desc_addr = (uint8_t*)page;

	mov	rax, QWORD PTR page$[rsp]
	mov	QWORD PTR desc_addr$[rsp], rax

; 64   : 	meta_data_t *meta = (meta_data_t*)desc_addr;

	mov	rax, QWORD PTR desc_addr$[rsp]
	mov	QWORD PTR meta$[rsp], rax

; 65   : 	meta->next = NULL;

	mov	rax, QWORD PTR meta$[rsp]
	mov	QWORD PTR [rax+8], 0

; 66   : 	meta->prev = NULL;

	mov	rax, QWORD PTR meta$[rsp]
	mov	QWORD PTR [rax+16], 0

; 67   : 	meta->magic = MAGIC_FREE;

	mov	rax, QWORD PTR meta$[rsp]
	mov	DWORD PTR [rax], 86056995		; 05212023H

; 68   : 
; 69   : 	/* meta->size holds only the usable area size for user */
; 70   : 	meta->size = (1 * 4096) - sizeof(meta_data_t);

	mov	rax, QWORD PTR meta$[rsp]
	mov	DWORD PTR [rax+4], 4072			; 00000fe8H

; 71   : 	first_block = meta;

	mov	rax, QWORD PTR meta$[rsp]
	mov	QWORD PTR first_block, rax

; 72   : 	last_block = meta;

	mov	rax, QWORD PTR meta$[rsp]
	mov	QWORD PTR last_block, rax

; 73   : 	
; 74   : 	last_mark = ((uint64_t)page + (meta->size + sizeof(meta_data_t)));

	mov	rax, QWORD PTR meta$[rsp]
	movsxd	rax, DWORD PTR [rax+4]
	mov	rcx, QWORD PTR page$[rsp]
	lea	rax, QWORD PTR [rcx+rax+24]
	mov	QWORD PTR ?last_mark@@3_KA, rax		; last_mark

; 75   : }

	add	rsp, 72					; 00000048H
	ret	0
AuHeapInitialize ENDP
_TEXT	ENDS
END
