; Listing generated by Microsoft (R) Optimizing Compiler Version 19.29.30154.0 

include listing.inc

INCLUDELIB LIBCMT
INCLUDELIB OLDNAMES

msvcjmc	SEGMENT
__CA5B1607_kmalloc@cpp DB 01H
msvcjmc	ENDS
PUBLIC	AuHeapInitialize
PUBLIC	kmalloc
PUBLIC	krealloc
PUBLIC	kcalloc
PUBLIC	kfree
PUBLIC	kheap_debug
PUBLIC	kmalloc_debug_on
PUBLIC	?au_free_page@@YAXPEAXH@Z			; au_free_page
PUBLIC	?au_request_page@@YAPEAXH@Z			; au_request_page
PUBLIC	?next_power_of_two@@YAHI@Z			; next_power_of_two
PUBLIC	?align24@@YA_K_K@Z				; align24
PUBLIC	?au_split_block@@YAHPEAU_meta_data_@@_K@Z	; au_split_block
PUBLIC	?au_expand_kmalloc@@YAX_K@Z			; au_expand_kmalloc
PUBLIC	?merge_next@@YAXPEAU_meta_data_@@@Z		; merge_next
PUBLIC	?merge_prev@@YAXPEAU_meta_data_@@@Z		; merge_prev
PUBLIC	__JustMyCode_Default
PUBLIC	??_C@_0CN@DPKOBKEF@Request?5page?5not?5aligned?5to?5pag@ ; `string'
EXTRN	AuMapPage:PROC
EXTRN	AuGetFreePage:PROC
EXTRN	AuFreePages:PROC
EXTRN	AuPmmngrAlloc:PROC
EXTRN	port_malloc:PROC
EXTRN	port_realloc:PROC
EXTRN	port_calloc:PROC
EXTRN	port_free:PROC
EXTRN	SeTextOut:PROC
EXTRN	__CheckForDebuggerJustMyCode:PROC
;	COMDAT pdata
pdata	SEGMENT
$pdata$AuHeapInitialize DD imagerel $LN3
	DD	imagerel $LN3+29
	DD	imagerel $unwind$AuHeapInitialize
pdata	ENDS
;	COMDAT pdata
pdata	SEGMENT
$pdata$kmalloc DD imagerel $LN3
	DD	imagerel $LN3+40
	DD	imagerel $unwind$kmalloc
pdata	ENDS
;	COMDAT pdata
pdata	SEGMENT
$pdata$krealloc DD imagerel $LN3
	DD	imagerel $LN3+49
	DD	imagerel $unwind$krealloc
pdata	ENDS
;	COMDAT pdata
pdata	SEGMENT
$pdata$kcalloc DD imagerel $LN3
	DD	imagerel $LN3+51
	DD	imagerel $unwind$kcalloc
pdata	ENDS
;	COMDAT pdata
pdata	SEGMENT
$pdata$kfree DD	imagerel $LN3
	DD	imagerel $LN3+42
	DD	imagerel $unwind$kfree
pdata	ENDS
;	COMDAT pdata
pdata	SEGMENT
$pdata$kheap_debug DD imagerel $LN3
	DD	imagerel $LN3+29
	DD	imagerel $unwind$kheap_debug
pdata	ENDS
;	COMDAT pdata
pdata	SEGMENT
$pdata$kmalloc_debug_on DD imagerel $LN3
	DD	imagerel $LN3+32
	DD	imagerel $unwind$kmalloc_debug_on
pdata	ENDS
;	COMDAT pdata
pdata	SEGMENT
$pdata$?au_free_page@@YAXPEAXH@Z DD imagerel $LN3
	DD	imagerel $LN3+55
	DD	imagerel $unwind$?au_free_page@@YAXPEAXH@Z
pdata	ENDS
;	COMDAT pdata
pdata	SEGMENT
$pdata$?au_request_page@@YAPEAXH@Z DD imagerel $LN10
	DD	imagerel $LN10+171
	DD	imagerel $unwind$?au_request_page@@YAPEAXH@Z
pdata	ENDS
;	COMDAT pdata
pdata	SEGMENT
$pdata$?next_power_of_two@@YAHI@Z DD imagerel $LN6
	DD	imagerel $LN6+92
	DD	imagerel $unwind$?next_power_of_two@@YAHI@Z
pdata	ENDS
;	COMDAT pdata
pdata	SEGMENT
$pdata$?align24@@YA_K_K@Z DD imagerel $LN5
	DD	imagerel $LN5+91
	DD	imagerel $unwind$?align24@@YA_K_K@Z
pdata	ENDS
;	COMDAT pdata
pdata	SEGMENT
$pdata$?au_split_block@@YAHPEAU_meta_data_@@_K@Z DD imagerel $LN3
	DD	imagerel $LN3+43
	DD	imagerel $unwind$?au_split_block@@YAHPEAU_meta_data_@@_K@Z
pdata	ENDS
;	COMDAT pdata
pdata	SEGMENT
$pdata$?au_expand_kmalloc@@YAX_K@Z DD imagerel $LN3
	DD	imagerel $LN3+33
	DD	imagerel $unwind$?au_expand_kmalloc@@YAX_K@Z
pdata	ENDS
;	COMDAT pdata
pdata	SEGMENT
$pdata$?merge_next@@YAXPEAU_meta_data_@@@Z DD imagerel $LN3
	DD	imagerel $LN3+33
	DD	imagerel $unwind$?merge_next@@YAXPEAU_meta_data_@@@Z
pdata	ENDS
;	COMDAT pdata
pdata	SEGMENT
$pdata$?merge_prev@@YAXPEAU_meta_data_@@@Z DD imagerel $LN3
	DD	imagerel $LN3+33
	DD	imagerel $unwind$?merge_prev@@YAXPEAU_meta_data_@@@Z
pdata	ENDS
;	COMDAT ??_C@_0CN@DPKOBKEF@Request?5page?5not?5aligned?5to?5pag@
CONST	SEGMENT
??_C@_0CN@DPKOBKEF@Request?5page?5not?5aligned?5to?5pag@ DB 'Request page'
	DB	' not aligned to page boundary ', 0dH, 0aH, 00H ; `string'
CONST	ENDS
;	COMDAT xdata
xdata	SEGMENT
$unwind$?merge_prev@@YAXPEAU_meta_data_@@@Z DD 025030f01H
	DD	0b20a230fH
	DD	05006H
xdata	ENDS
;	COMDAT xdata
xdata	SEGMENT
$unwind$?merge_next@@YAXPEAU_meta_data_@@@Z DD 025030f01H
	DD	0b20a230fH
	DD	05006H
xdata	ENDS
;	COMDAT xdata
xdata	SEGMENT
$unwind$?au_expand_kmalloc@@YAX_K@Z DD 025030f01H
	DD	0b20a230fH
	DD	05006H
xdata	ENDS
;	COMDAT xdata
xdata	SEGMENT
$unwind$?au_split_block@@YAHPEAU_meta_data_@@_K@Z DD 025031401H
	DD	0b20f2314H
	DD	0500bH
xdata	ENDS
;	COMDAT xdata
xdata	SEGMENT
$unwind$?align24@@YA_K_K@Z DD 025030f01H
	DD	0d20a230fH
	DD	05006H
xdata	ENDS
;	COMDAT xdata
xdata	SEGMENT
$unwind$?next_power_of_two@@YAHI@Z DD 025030e01H
	DD	0d209230eH
	DD	05005H
xdata	ENDS
;	COMDAT xdata
xdata	SEGMENT
$unwind$?au_request_page@@YAPEAXH@Z DD 025031101H
	DD	0f20c2311H
	DD	05005H
xdata	ENDS
;	COMDAT xdata
xdata	SEGMENT
$unwind$?au_free_page@@YAXPEAXH@Z DD 025031301H
	DD	0b20e2313H
	DD	0500aH
xdata	ENDS
;	COMDAT xdata
xdata	SEGMENT
$unwind$kmalloc_debug_on DD 025030e01H
	DD	0b209230eH
	DD	05005H
xdata	ENDS
;	COMDAT xdata
xdata	SEGMENT
$unwind$kheap_debug DD 025030b01H
	DD	0b206230bH
	DD	05002H
xdata	ENDS
;	COMDAT xdata
xdata	SEGMENT
$unwind$kfree DD 025030f01H
	DD	0b20a230fH
	DD	05006H
xdata	ENDS
;	COMDAT xdata
xdata	SEGMENT
$unwind$kcalloc DD 025031401H
	DD	0b20f2314H
	DD	0500bH
xdata	ENDS
;	COMDAT xdata
xdata	SEGMENT
$unwind$krealloc DD 025031301H
	DD	0b20e2313H
	DD	0500aH
xdata	ENDS
;	COMDAT xdata
xdata	SEGMENT
$unwind$kmalloc DD 025030e01H
	DD	0b209230eH
	DD	05005H
xdata	ENDS
;	COMDAT xdata
xdata	SEGMENT
$unwind$AuHeapInitialize DD 025030b01H
	DD	0b206230bH
	DD	05002H
xdata	ENDS
; Function compile flags: /Odt
;	COMDAT __JustMyCode_Default
_TEXT	SEGMENT
__JustMyCode_Default PROC				; COMDAT
	ret	0
__JustMyCode_Default ENDP
_TEXT	ENDS
; Function compile flags: /Odtp /ZI
; File E:\Xeneva Project\Aurora\Kernel\Mm\kmalloc.cpp
;	COMDAT ?merge_prev@@YAXPEAU_meta_data_@@@Z
_TEXT	SEGMENT
meta$ = 80
?merge_prev@@YAXPEAU_meta_data_@@@Z PROC		; merge_prev, COMDAT

; 314  : void merge_prev(meta_data_t* meta) {

$LN3:
	mov	QWORD PTR [rsp+8], rcx
	push	rbp
	sub	rsp, 96					; 00000060H
	lea	rbp, QWORD PTR [rsp+32]
	lea	rcx, OFFSET FLAT:__CA5B1607_kmalloc@cpp
	call	__CheckForDebuggerJustMyCode

; 315  : #ifndef _USE_LIBALLOC
; 316  : 	if (meta->prev != NULL) {
; 317  : 		uint64_t meta_prev = (uint64_t)meta->prev;
; 318  : 		if (meta_prev < 0xFFFFE00000000000){
; 319  : 			//this block is corrupted
; 320  : 			SeTextOut("Meta found corrupted block %x \r\n", meta->prev);
; 321  : 			last_block->next = meta;
; 322  : 			meta->prev = last_block;
; 323  : 			meta->next = NULL;
; 324  : 			/*kheap_debug();
; 325  : 			for (;;);*/
; 326  : 			return;
; 327  : 		}
; 328  : 		if (meta->prev->magic == MAGIC_FREE){
; 329  : 			SeTextOut("Meta->prev->sz = %d , meta sz -> %d \r\n", meta->prev->size, meta->size);
; 330  : 			meta->prev->size += meta->size + sizeof(meta_data_t);
; 331  : 			SeTextOut("Meta->prev->sz after = %d \r\n", meta->prev->size);
; 332  : 			if (last_block == meta){
; 333  : 				last_block = meta->prev;
; 334  : 				SeTextOut("Last block sz -> %d \r\n", last_block->size);
; 335  : 				last_mark = (size_t)(last_block + last_block->size + sizeof(meta_data_t));
; 336  : 				for (;;);
; 337  : 			}
; 338  : 
; 339  : 			SeTextOut("Meta prev sz -> %d \r\n", meta->prev->size);
; 340  : 			meta->prev->next = meta->next;
; 341  : 			if (meta->prev->next)
; 342  : 				meta->prev->next->prev = meta->prev;
; 343  : 			
; 344  : 			//merge_next(meta->prev);
; 345  : 		}
; 346  : 			
; 347  : 	}
; 348  : #endif
; 349  : }

	lea	rsp, QWORD PTR [rbp+64]
	pop	rbp
	ret	0
?merge_prev@@YAXPEAU_meta_data_@@@Z ENDP		; merge_prev
_TEXT	ENDS
; Function compile flags: /Odtp /ZI
; File E:\Xeneva Project\Aurora\Kernel\Mm\kmalloc.cpp
;	COMDAT ?merge_next@@YAXPEAU_meta_data_@@@Z
_TEXT	SEGMENT
meta$ = 80
?merge_next@@YAXPEAU_meta_data_@@@Z PROC		; merge_next, COMDAT

; 276  : void merge_next(meta_data_t *meta) {

$LN3:
	mov	QWORD PTR [rsp+8], rcx
	push	rbp
	sub	rsp, 96					; 00000060H
	lea	rbp, QWORD PTR [rsp+32]
	lea	rcx, OFFSET FLAT:__CA5B1607_kmalloc@cpp
	call	__CheckForDebuggerJustMyCode

; 277  : #ifndef _USE_LIBALLOC
; 278  : 	if (meta->next == NULL)
; 279  : 		return;
; 280  : 	uint64_t addr_valid = (uint64_t)meta->next;
; 281  : 	//AuTextOut("merge next -> %x \n", meta->next);
; 282  : 	if (addr_valid < 0xFFFFE00000000000) {
; 283  : 		SeTextOut("Meta merge next corrupted %x , curr -> %x \r\n",addr_valid, meta);
; 284  : 		meta->next = NULL;
; 285  : 		return;
; 286  : 	}
; 287  : 
; 288  : 	if (!meta->next->magic == MAGIC_FREE)
; 289  : 		return;
; 290  : 	
; 291  : 	
; 292  : 	if (last_block == meta->next){
; 293  : 		last_block = meta;
; 294  : 		last_mark = (size_t)(last_block + last_block->size + sizeof(meta_data_t));
; 295  : 	}
; 296  : 
; 297  : 	
; 298  : 
; 299  : 	meta->size += meta->next->size + sizeof(meta_data_t);
; 300  : 	SeTextOut("Meta merge_next sz -> %d \r\n", meta->size);
; 301  : 
; 302  : 	if (meta->next->next != NULL)
; 303  : 		meta->next->next->prev = meta;
; 304  : 
; 305  : 	meta->next = meta->next->next;
; 306  : #endif
; 307  : }

	lea	rsp, QWORD PTR [rbp+64]
	pop	rbp
	ret	0
?merge_next@@YAXPEAU_meta_data_@@@Z ENDP		; merge_next
_TEXT	ENDS
; Function compile flags: /Odtp /ZI
; File E:\Xeneva Project\Aurora\Kernel\Mm\kmalloc.cpp
;	COMDAT ?au_expand_kmalloc@@YAX_K@Z
_TEXT	SEGMENT
req_size$ = 80
?au_expand_kmalloc@@YAX_K@Z PROC			; au_expand_kmalloc, COMDAT

; 159  : void au_expand_kmalloc(size_t req_size) {

$LN3:
	mov	QWORD PTR [rsp+8], rcx
	push	rbp
	sub	rsp, 96					; 00000060H
	lea	rbp, QWORD PTR [rsp+32]
	lea	rcx, OFFSET FLAT:__CA5B1607_kmalloc@cpp
	call	__CheckForDebuggerJustMyCode

; 160  : #ifndef _USE_LIBALLOC
; 161  : 	/*if ((req_size % 2) != 0)
; 162  : 		req_size = next_power_of_two(req_size);*/
; 163  : 
; 164  : 	req_size = align24(req_size);
; 165  : 	
; 166  : 	size_t req_pages = ((req_size + sizeof(meta_data_t)) / 0x1000) + 
; 167  : 		(((req_size + sizeof(meta_data_t)) % 0x1000) ? 1 : 0);
; 168  : 	//req_pages = (req_size + sizeof(meta_data_t)) / 4096 + 1;
; 169  : 	void* page = au_request_page(req_pages);
; 170  : 
; 171  : 	uint8_t* desc_addr = (uint8_t*)page;
; 172  : 	/* setup the first meta data block */
; 173  : 	meta_data_t *meta = (meta_data_t*)desc_addr;
; 174  : 
; 175  : 	//meta->free = true;
; 176  : 	meta->next = NULL;
; 177  : 	meta->prev = NULL;
; 178  : 	meta->magic = MAGIC_FREE;
; 179  : 	
; 180  : 	/* meta->size holds only the usable area size for user */
; 181  : 	meta->size = (req_pages * PAGE_SIZE) - sizeof(meta_data_t);
; 182  : 	meta->prev = last_block;
; 183  : 	
; 184  : 	if (!meta->prev) {
; 185  : 		AuTextOut("Corrupted Heap Area !! Kernel stucked \n");
; 186  : 		for (;;);
; 187  : 	}
; 188  : 	last_block->next = meta;
; 189  : 	last_block = meta;
; 190  : 
; 191  : 	
; 192  : 
; 193  : 	/* now check if we can merge the last block and this
; 194  : 	* into one
; 195  : 	*/
; 196  : 	if (meta->prev->magic == MAGIC_FREE) {
; 197  : 		meta->prev->size += meta->size - sizeof(meta_data_t);
; 198  : 		meta->prev->next = NULL;
; 199  : 		last_block = meta->prev;
; 200  : 	}
; 201  : 
; 202  : 	uint64_t lm = (uint64_t)page;
; 203  : 	last_mark = (uint64_t)(lm + (req_pages * 4096));
; 204  : #endif
; 205  : }

	lea	rsp, QWORD PTR [rbp+64]
	pop	rbp
	ret	0
?au_expand_kmalloc@@YAX_K@Z ENDP			; au_expand_kmalloc
_TEXT	ENDS
; Function compile flags: /Odtp /ZI
; File E:\Xeneva Project\Aurora\Kernel\Mm\kmalloc.cpp
;	COMDAT ?au_split_block@@YAHPEAU_meta_data_@@_K@Z
_TEXT	SEGMENT
splitable$ = 80
req_size$ = 88
?au_split_block@@YAHPEAU_meta_data_@@_K@Z PROC		; au_split_block, COMDAT

; 106  : int au_split_block(meta_data_t* splitable, size_t req_size) {

$LN3:
	mov	QWORD PTR [rsp+16], rdx
	mov	QWORD PTR [rsp+8], rcx
	push	rbp
	sub	rsp, 96					; 00000060H
	lea	rbp, QWORD PTR [rsp+32]
	lea	rcx, OFFSET FLAT:__CA5B1607_kmalloc@cpp
	call	__CheckForDebuggerJustMyCode

; 107  : #ifndef _USE_LIBALLOC
; 108  : 	uint8_t* meta_block_a = (uint8_t*)splitable;
; 109  : 	size_t size = splitable->size - req_size - sizeof(meta_data_t);
; 110  : 
; 111  : 
; 112  : 	if (size <= sizeof(meta_data_t))
; 113  : 		return 1;
; 114  : 
; 115  : 
; 116  : 	uint8_t* new_block = (uint8_t*)((size_t)splitable + sizeof(meta_data_t) + req_size);
; 117  : 
; 118  : 	
; 119  : 	meta_data_t* new_block_m = (meta_data_t*)new_block;
; 120  : 	
; 121  : 	uint64_t new_block_pos = (uint64_t)new_block;
; 122  : 	
; 123  : 	if ((new_block_pos) >= last_mark) {
; 124  : 		SeTextOut("Aramse last mark \r\n");
; 125  : 		//for (;;);
; 126  : 		return 0;
; 127  : 	}
; 128  : 
; 129  : 	if ((new_block_pos + sizeof(meta_data_t)) >= last_mark){
; 130  : 		SeTextOut("Aramse Last mark \r\n");
; 131  : 		return 0;
; 132  : 	}
; 133  : 
; 134  : 	new_block_m->magic = MAGIC_FREE;
; 135  : 	new_block_m->prev = splitable;
; 136  : 	new_block_m->next = splitable->next;
; 137  : 	if (new_block_m->next != NULL)
; 138  : 		new_block_m->next->prev = new_block_m;
; 139  : 
; 140  : 
; 141  : 	new_block_m->size = size;
; 142  : 
; 143  : 
; 144  : 	splitable->size = req_size;
; 145  : 	splitable->next = new_block_m;
; 146  : 
; 147  : 
; 148  : 	if (last_block == splitable)
; 149  : 		last_block = new_block_m;
; 150  : #endif
; 151  : 
; 152  : 	return 1;

	mov	eax, 1

; 153  : }

	lea	rsp, QWORD PTR [rbp+64]
	pop	rbp
	ret	0
?au_split_block@@YAHPEAU_meta_data_@@_K@Z ENDP		; au_split_block
_TEXT	ENDS
; Function compile flags: /Odtp /ZI
; File E:\Xeneva Project\Aurora\Kernel\Mm\kmalloc.cpp
;	COMDAT ?align24@@YA_K_K@Z
_TEXT	SEGMENT
alignment$ = 0
val$ = 96
?align24@@YA_K_K@Z PROC					; align24, COMDAT

; 93   : size_t align24(size_t val) {

$LN5:
	mov	QWORD PTR [rsp+8], rcx
	push	rbp
	sub	rsp, 112				; 00000070H
	lea	rbp, QWORD PTR [rsp+32]
	lea	rcx, OFFSET FLAT:__CA5B1607_kmalloc@cpp
	call	__CheckForDebuggerJustMyCode

; 94   : 	size_t alignment = 8;

	mov	QWORD PTR alignment$[rbp], 8

; 95   : 	if (val & (alignment - 1)) {

	mov	rax, QWORD PTR alignment$[rbp]
	dec	rax
	mov	rcx, QWORD PTR val$[rbp]
	and	rcx, rax
	mov	rax, rcx
	test	rax, rax
	je	SHORT $LN2@align24

; 96   : 		return (val | alignment - 1) + 1;

	mov	rax, QWORD PTR alignment$[rbp]
	dec	rax
	mov	rcx, QWORD PTR val$[rbp]
	or	rcx, rax
	mov	rax, rcx
	inc	rax
	jmp	SHORT $LN1@align24

; 97   : 	}

	jmp	SHORT $LN3@align24
$LN2@align24:

; 98   : 	else{
; 99   : 		return val;

	mov	rax, QWORD PTR val$[rbp]
$LN3@align24:
$LN1@align24:

; 100  : 	}
; 101  : }

	lea	rsp, QWORD PTR [rbp+80]
	pop	rbp
	ret	0
?align24@@YA_K_K@Z ENDP					; align24
_TEXT	ENDS
; Function compile flags: /Odtp /ZI
; File E:\Xeneva Project\Aurora\Kernel\Mm\kmalloc.cpp
;	COMDAT ?next_power_of_two@@YAHI@Z
_TEXT	SEGMENT
i$ = 0
tv75 = 68
val$ = 96
?next_power_of_two@@YAHI@Z PROC				; next_power_of_two, COMDAT

; 86   : int next_power_of_two(unsigned int val) {

$LN6:
	mov	DWORD PTR [rsp+8], ecx
	push	rbp
	sub	rsp, 112				; 00000070H
	lea	rbp, QWORD PTR [rsp+32]
	lea	rcx, OFFSET FLAT:__CA5B1607_kmalloc@cpp
	call	__CheckForDebuggerJustMyCode

; 87   : 	int i = 0;

	mov	DWORD PTR i$[rbp], 0

; 88   : 	for (--val; val > 0; val >>= 1)

	mov	eax, DWORD PTR val$[rbp]
	dec	eax
	mov	DWORD PTR val$[rbp], eax
	jmp	SHORT $LN4@next_power
$LN2@next_power:
	mov	eax, DWORD PTR val$[rbp]
	shr	eax, 1
	mov	DWORD PTR val$[rbp], eax
$LN4@next_power:
	cmp	DWORD PTR val$[rbp], 0
	jbe	SHORT $LN3@next_power

; 89   : 		i++;

	mov	eax, DWORD PTR i$[rbp]
	inc	eax
	mov	DWORD PTR i$[rbp], eax
	jmp	SHORT $LN2@next_power
$LN3@next_power:

; 90   : 	return 1 << i;

	mov	eax, DWORD PTR i$[rbp]
	mov	ecx, 1
	mov	DWORD PTR tv75[rbp], ecx
	movzx	ecx, al
	mov	eax, DWORD PTR tv75[rbp]
	shl	eax, cl

; 91   : }

	lea	rsp, QWORD PTR [rbp+80]
	pop	rbp
	ret	0
?next_power_of_two@@YAHI@Z ENDP				; next_power_of_two
_TEXT	ENDS
; Function compile flags: /Odtp /ZI
; File E:\Xeneva Project\Aurora\Kernel\Mm\kmalloc.cpp
;	COMDAT ?au_request_page@@YAPEAXH@Z
_TEXT	SEGMENT
page$ = 0
page_$ = 8
i$1 = 16
p$2 = 24
pages$ = 112
?au_request_page@@YAPEAXH@Z PROC			; au_request_page, COMDAT

; 422  : void* au_request_page(int pages) {

$LN10:
	mov	DWORD PTR [rsp+8], ecx
	push	rbp
	sub	rsp, 128				; 00000080H
	lea	rbp, QWORD PTR [rsp+32]
	lea	rcx, OFFSET FLAT:__CA5B1607_kmalloc@cpp
	call	__CheckForDebuggerJustMyCode

; 423  : 	uint64_t* page = AuGetFreePage(0, false);

	xor	edx, edx
	xor	ecx, ecx
	call	AuGetFreePage
	mov	QWORD PTR page$[rbp], rax

; 424  : 	uint64_t page_ = (uint64_t)page;

	mov	rax, QWORD PTR page$[rbp]
	mov	QWORD PTR page_$[rbp], rax

; 425  : 	
; 426  : 	for (size_t i = 0; i < pages; i++) {

	mov	QWORD PTR i$1[rbp], 0
	jmp	SHORT $LN4@au_request
$LN2@au_request:
	mov	rax, QWORD PTR i$1[rbp]
	inc	rax
	mov	QWORD PTR i$1[rbp], rax
$LN4@au_request:
	movsxd	rax, DWORD PTR pages$[rbp]
	cmp	QWORD PTR i$1[rbp], rax
	jae	SHORT $LN3@au_request

; 427  : 		void* p = AuPmmngrAlloc();

	call	AuPmmngrAlloc
	mov	QWORD PTR p$2[rbp], rax

; 428  : 		AuMapPage((uint64_t)p, page_ + i * 4096, 0);

	imul	rax, QWORD PTR i$1[rbp], 4096		; 00001000H
	mov	rcx, QWORD PTR page_$[rbp]
	add	rcx, rax
	mov	rax, rcx
	xor	r8d, r8d
	mov	rdx, rax
	mov	rcx, QWORD PTR p$2[rbp]
	call	AuMapPage

; 429  : 	}

	jmp	SHORT $LN2@au_request
$LN3@au_request:

; 430  : 
; 431  : 	if ((page_ % PAGE_SIZE) != 0){

	xor	edx, edx
	mov	rax, QWORD PTR page_$[rbp]
	mov	ecx, 4096				; 00001000H
	div	rcx
	mov	rax, rdx
	test	rax, rax
	je	SHORT $LN8@au_request

; 432  : 		SeTextOut("Request page not aligned to page boundary \r\n");

	lea	rcx, OFFSET FLAT:??_C@_0CN@DPKOBKEF@Request?5page?5not?5aligned?5to?5pag@
	call	SeTextOut
$LN5@au_request:

; 433  : 		for (;;);

	jmp	SHORT $LN5@au_request
$LN8@au_request:

; 434  : 	}
; 435  : 	
; 436  : 	return page;

	mov	rax, QWORD PTR page$[rbp]

; 437  : }

	lea	rsp, QWORD PTR [rbp+96]
	pop	rbp
	ret	0
?au_request_page@@YAPEAXH@Z ENDP			; au_request_page
_TEXT	ENDS
; Function compile flags: /Odtp /ZI
; File E:\Xeneva Project\Aurora\Kernel\Mm\kmalloc.cpp
;	COMDAT ?au_free_page@@YAXPEAXH@Z
_TEXT	SEGMENT
ptr$ = 80
pages$ = 88
?au_free_page@@YAXPEAXH@Z PROC				; au_free_page, COMDAT

; 445  : void au_free_page(void* ptr, int pages) {

$LN3:
	mov	DWORD PTR [rsp+16], edx
	mov	QWORD PTR [rsp+8], rcx
	push	rbp
	sub	rsp, 96					; 00000060H
	lea	rbp, QWORD PTR [rsp+32]
	lea	rcx, OFFSET FLAT:__CA5B1607_kmalloc@cpp
	call	__CheckForDebuggerJustMyCode

; 446  : 	AuFreePages((uint64_t)ptr, true, pages);

	movsxd	rax, DWORD PTR pages$[rbp]
	mov	r8, rax
	mov	dl, 1
	mov	rcx, QWORD PTR ptr$[rbp]
	call	AuFreePages

; 447  : }

	lea	rsp, QWORD PTR [rbp+64]
	pop	rbp
	ret	0
?au_free_page@@YAXPEAXH@Z ENDP				; au_free_page
_TEXT	ENDS
; Function compile flags: /Odtp /ZI
; File E:\Xeneva Project\Aurora\Kernel\Mm\kmalloc.cpp
;	COMDAT kmalloc_debug_on
_TEXT	SEGMENT
bit$ = 80
kmalloc_debug_on PROC					; COMDAT

; 450  : void kmalloc_debug_on(bool bit) {

$LN3:
	mov	BYTE PTR [rsp+8], cl
	push	rbp
	sub	rsp, 96					; 00000060H
	lea	rbp, QWORD PTR [rsp+32]
	lea	rcx, OFFSET FLAT:__CA5B1607_kmalloc@cpp
	call	__CheckForDebuggerJustMyCode

; 451  : #ifndef _USE_LIBALLOC
; 452  : 	_debug_on = bit;
; 453  : #endif
; 454  : }

	lea	rsp, QWORD PTR [rbp+64]
	pop	rbp
	ret	0
kmalloc_debug_on ENDP
_TEXT	ENDS
; Function compile flags: /Odtp /ZI
; File E:\Xeneva Project\Aurora\Kernel\Mm\kmalloc.cpp
;	COMDAT kheap_debug
_TEXT	SEGMENT
kheap_debug PROC					; COMDAT

; 263  : void kheap_debug() {

$LN3:
	push	rbp
	sub	rsp, 96					; 00000060H
	lea	rbp, QWORD PTR [rsp+32]
	lea	rcx, OFFSET FLAT:__CA5B1607_kmalloc@cpp
	call	__CheckForDebuggerJustMyCode

; 264  : #ifndef _USE_LIBALLOC
; 265  : 	for (meta_data_t *block = first_block; block != NULL; block = block->next) {
; 266  : 		SeTextOut("Prev -> %x || Current -> %x | Next -> %x \r\n", block->prev, block, block->next);
; 267  : 	}
; 268  : #endif
; 269  : }

	lea	rsp, QWORD PTR [rbp+64]
	pop	rbp
	ret	0
kheap_debug ENDP
_TEXT	ENDS
; Function compile flags: /Odtp /ZI
; File E:\Xeneva Project\Aurora\Kernel\Mm\kmalloc.cpp
;	COMDAT kfree
_TEXT	SEGMENT
ptr$ = 80
kfree	PROC						; COMDAT

; 355  : void kfree(void* ptr) {

$LN3:
	mov	QWORD PTR [rsp+8], rcx
	push	rbp
	sub	rsp, 96					; 00000060H
	lea	rbp, QWORD PTR [rsp+32]
	lea	rcx, OFFSET FLAT:__CA5B1607_kmalloc@cpp
	call	__CheckForDebuggerJustMyCode

; 356  : #ifdef _USE_LIBALLOC
; 357  : 	return port_free(ptr);

	mov	rcx, QWORD PTR ptr$[rbp]
	call	port_free

; 358  : #else
; 359  : 	if (!ptr) 
; 360  : 		return;
; 361  : 	if (((size_t)ptr % PAGE_SIZE) != 0)
; 362  : 		SeTextOut("KFREE: Ptr is not page-aligned \r\n");
; 363  : 
; 364  : 	uint8_t* actual_addr = (uint8_t*)ptr;
; 365  : 	meta_data_t *meta = (meta_data_t*)(actual_addr - sizeof(meta_data_t));
; 366  : 	if (meta->magic != MAGIC_USED) {
; 367  : 		AuTextOut("meta kfree corruption -> %x, meta -> %x , ptr -> %x\n", meta->magic, meta, ptr);
; 368  : 		AuTextOut("Other meta field sz -> %d , next-> %x, prev -> %x \n", meta->size, meta->next, meta->prev);
; 369  : 		return;
; 370  : 	}
; 371  : 	meta->magic = MAGIC_FREE;
; 372  : 
; 373  : 	/* merge it with 3 near blocks if they are free*/
; 374  : 	merge_next(meta);
; 375  : 	merge_prev(meta);
; 376  : #endif
; 377  : }

	lea	rsp, QWORD PTR [rbp+64]
	pop	rbp
	ret	0
kfree	ENDP
_TEXT	ENDS
; Function compile flags: /Odtp /ZI
; File E:\Xeneva Project\Aurora\Kernel\Mm\kmalloc.cpp
;	COMDAT kcalloc
_TEXT	SEGMENT
n_item$ = 80
size$ = 88
kcalloc	PROC						; COMDAT

; 406  : void* kcalloc(size_t n_item, size_t size) {

$LN3:
	mov	QWORD PTR [rsp+16], rdx
	mov	QWORD PTR [rsp+8], rcx
	push	rbp
	sub	rsp, 96					; 00000060H
	lea	rbp, QWORD PTR [rsp+32]
	lea	rcx, OFFSET FLAT:__CA5B1607_kmalloc@cpp
	call	__CheckForDebuggerJustMyCode

; 407  : #ifdef _USE_LIBALLOC
; 408  : 	return port_calloc(n_item, size);

	mov	rdx, QWORD PTR size$[rbp]
	mov	rcx, QWORD PTR n_item$[rbp]
	call	port_calloc

; 409  : #else
; 410  : 	size_t total = n_item * size;
; 411  : 
; 412  : 	void* ptr = kmalloc(total);
; 413  : 	if (ptr)
; 414  : 		memset(ptr, 0, total);
; 415  : 	return ptr;
; 416  : #endif
; 417  : }

	lea	rsp, QWORD PTR [rbp+64]
	pop	rbp
	ret	0
kcalloc	ENDP
_TEXT	ENDS
; Function compile flags: /Odtp /ZI
; File E:\Xeneva Project\Aurora\Kernel\Mm\kmalloc.cpp
;	COMDAT krealloc
_TEXT	SEGMENT
ptr$ = 80
new_size$ = 88
krealloc PROC						; COMDAT

; 384  : void* krealloc(void* ptr, unsigned int new_size) {

$LN3:
	mov	DWORD PTR [rsp+16], edx
	mov	QWORD PTR [rsp+8], rcx
	push	rbp
	sub	rsp, 96					; 00000060H
	lea	rbp, QWORD PTR [rsp+32]
	lea	rcx, OFFSET FLAT:__CA5B1607_kmalloc@cpp
	call	__CheckForDebuggerJustMyCode

; 385  : #ifdef _USE_LIBALLOC
; 386  : 	return port_realloc(ptr, new_size);

	mov	edx, DWORD PTR new_size$[rbp]
	mov	rcx, QWORD PTR ptr$[rbp]
	call	port_realloc

; 387  : #else
; 388  : 	void* result = kmalloc(new_size);
; 389  : 	if (ptr) {
; 390  : 		/* here we can check the size difference
; 391  : 		* of new_size and old size from internal
; 392  : 		* data structure of kmalloc */
; 393  : 		memcpy(result, ptr, new_size);
; 394  : 	}
; 395  : 
; 396  : 	kfree(ptr);
; 397  : 	return result;
; 398  : #endif
; 399  : }

	lea	rsp, QWORD PTR [rbp+64]
	pop	rbp
	ret	0
krealloc ENDP
_TEXT	ENDS
; Function compile flags: /Odtp /ZI
; File E:\Xeneva Project\Aurora\Kernel\Mm\kmalloc.cpp
;	COMDAT kmalloc
_TEXT	SEGMENT
size$ = 80
kmalloc	PROC						; COMDAT

; 211  : void* kmalloc(unsigned int size) {

$LN3:
	mov	DWORD PTR [rsp+8], ecx
	push	rbp
	sub	rsp, 96					; 00000060H
	lea	rbp, QWORD PTR [rsp+32]
	lea	rcx, OFFSET FLAT:__CA5B1607_kmalloc@cpp
	call	__CheckForDebuggerJustMyCode

; 212  : #ifdef _USE_LIBALLOC
; 213  : 	return port_malloc(size);

	mov	ecx, DWORD PTR size$[rbp]
	call	port_malloc

; 214  : #else
; 215  : 	meta_data_t *meta = first_block;
; 216  : 	void* ret = 0;
; 217  : 
; 218  : 	int sz = size;
; 219  : 
; 220  : 	if (size < 24)
; 221  : 		size = 24;
; 222  : 
; 223  : 	size = align24(sz);
; 224  : 
; 225  : 	//SeTextOut("Requested sz -> %d , aligned -> %d \r\n", sz, size);
; 226  : 
; 227  : 	/* now search begins */
; 228  : 	while (meta){
; 229  : 		if (meta->magic == MAGIC_FREE) {
; 230  : 			if (meta->size > size) {
; 231  : 				if (au_split_block(meta, size)){
; 232  : 					meta->magic = MAGIC_USED;
; 233  : 					uint8_t* meta_addr = (uint8_t*)meta;
; 234  : 					ret = ((uint8_t*)meta_addr + sizeof(meta_data_t));
; 235  : 					break;
; 236  : 				}
; 237  : 			}
; 238  : 
; 239  : 			if (meta->size == size) {
; 240  : 				meta->magic = MAGIC_USED;
; 241  : 				uint8_t* addr = (uint8_t*)meta;
; 242  : 				SeTextOut("Accurate memory found returning -> %x \r\n", addr);
; 243  : 				ret = ((uint8_t*)addr + sizeof(meta_data_t));
; 244  : 				break;
; 245  : 			}
; 246  : 		}
; 247  : 
; 248  : 		meta = meta->next;
; 249  : 	}
; 250  : 
; 251  : 	if (ret) {
; 252  : 	//	meta_data_t *meta = (meta_data_t*)(ret - sizeof(meta_data_t));
; 253  : 		return ret;
; 254  : 	}
; 255  : 	else{
; 256  : 		au_expand_kmalloc(size);
; 257  : 
; 258  : 	}
; 259  : 	return kmalloc(size);
; 260  : #endif
; 261  : }

	lea	rsp, QWORD PTR [rbp+64]
	pop	rbp
	ret	0
kmalloc	ENDP
_TEXT	ENDS
; Function compile flags: /Odtp /ZI
; File E:\Xeneva Project\Aurora\Kernel\Mm\kmalloc.cpp
;	COMDAT AuHeapInitialize
_TEXT	SEGMENT
AuHeapInitialize PROC					; COMDAT

; 57   : void AuHeapInitialize() {

$LN3:
	push	rbp
	sub	rsp, 96					; 00000060H
	lea	rbp, QWORD PTR [rsp+32]
	lea	rcx, OFFSET FLAT:__CA5B1607_kmalloc@cpp
	call	__CheckForDebuggerJustMyCode

; 58   : #ifndef _USE_LIBALLOC
; 59   : 	last_block = NULL;
; 60   : 	first_block = NULL;
; 61   : 	last_mark = 0;
; 62   : 	_debug_on = false;
; 63   : 	void* page = au_request_page(1);
; 64   : 	memset(page, 0, (1 * 4096));
; 65   : 	/* setup the first meta data block */
; 66   : 	uint8_t* desc_addr = (uint8_t*)page;
; 67   : 	meta_data_t *meta = (meta_data_t*)desc_addr;
; 68   : 	meta->next = NULL;
; 69   : 	meta->prev = NULL;
; 70   : 	meta->magic = MAGIC_FREE;
; 71   : 
; 72   : 	/* meta->size holds only the usable area size for user */
; 73   : 	meta->size = (1 * 4096) - sizeof(meta_data_t);
; 74   : 	first_block = meta;
; 75   : 	last_block = meta;
; 76   : 	
; 77   : 	last_mark = ((uint64_t)page + (meta->size + sizeof(meta_data_t)));
; 78   : #endif
; 79   : }

	lea	rsp, QWORD PTR [rbp+64]
	pop	rbp
	ret	0
AuHeapInitialize ENDP
_TEXT	ENDS
END
