; Listing generated by Microsoft (R) Optimizing Compiler Version 18.00.21005.1 

include listing.inc

INCLUDELIB LIBCMT
INCLUDELIB OLDNAMES

PUBLIC	?last_mark@@3_KA				; last_mark
_BSS	SEGMENT
?last_mark@@3_KA DQ 01H DUP (?)				; last_mark
_BSS	ENDS
CONST	SEGMENT
$SG2917	DB	'Prev -> %x || Current -> %x | Next -> %x ', 0dH, 0aH, 00H
CONST	ENDS
PUBLIC	AuHeapInitialize
PUBLIC	kmalloc
PUBLIC	krealloc
PUBLIC	kcalloc
PUBLIC	kfree
PUBLIC	?au_free_page@@YAXPEAXH@Z			; au_free_page
PUBLIC	?au_request_page@@YAPEAXH@Z			; au_request_page
PUBLIC	?au_split_block@@YA_NPEAU_meta_data_@@_K@Z	; au_split_block
PUBLIC	?au_expand_kmalloc@@YAX_K@Z			; au_expand_kmalloc
PUBLIC	?kheap_debug@@YAXXZ				; kheap_debug
PUBLIC	?merge_next@@YAXPEAU_meta_data_@@@Z		; merge_next
PUBLIC	?merge_prev@@YAXPEAU_meta_data_@@@Z		; merge_prev
EXTRN	memset:PROC
EXTRN	memcpy:PROC
EXTRN	AuMapPage:PROC
EXTRN	AuGetFreePage:PROC
EXTRN	AuFreePages:PROC
EXTRN	AuPmmngrAlloc:PROC
EXTRN	AuTextOut:PROC
_BSS	SEGMENT
first_block DQ	01H DUP (?)
last_block DQ	01H DUP (?)
_BSS	ENDS
pdata	SEGMENT
$pdata$AuHeapInitialize DD imagerel $LN3
	DD	imagerel $LN3+186
	DD	imagerel $unwind$AuHeapInitialize
$pdata$kmalloc DD imagerel $LN11
	DD	imagerel $LN11+240
	DD	imagerel $unwind$kmalloc
$pdata$krealloc DD imagerel $LN4
	DD	imagerel $LN4+77
	DD	imagerel $unwind$krealloc
$pdata$kcalloc DD imagerel $LN4
	DD	imagerel $LN4+79
	DD	imagerel $unwind$kcalloc
$pdata$kfree DD	imagerel $LN3
	DD	imagerel $LN3+69
	DD	imagerel $unwind$kfree
$pdata$?au_free_page@@YAXPEAXH@Z DD imagerel $LN3
	DD	imagerel $LN3+38
	DD	imagerel $unwind$?au_free_page@@YAXPEAXH@Z
$pdata$?au_request_page@@YAPEAXH@Z DD imagerel $LN6
	DD	imagerel $LN6+126
	DD	imagerel $unwind$?au_request_page@@YAPEAXH@Z
$pdata$?au_split_block@@YA_NPEAU_meta_data_@@_K@Z DD imagerel $LN7
	DD	imagerel $LN7+268
	DD	imagerel $unwind$?au_split_block@@YA_NPEAU_meta_data_@@_K@Z
$pdata$?au_expand_kmalloc@@YAX_K@Z DD imagerel $LN5
	DD	imagerel $LN5+323
	DD	imagerel $unwind$?au_expand_kmalloc@@YAX_K@Z
$pdata$?kheap_debug@@YAXXZ DD imagerel $LN6
	DD	imagerel $LN6+82
	DD	imagerel $unwind$?kheap_debug@@YAXXZ
$pdata$?merge_next@@YAXPEAU_meta_data_@@@Z DD imagerel $LN9
	DD	imagerel $LN9+197
	DD	imagerel $unwind$?merge_next@@YAXPEAU_meta_data_@@@Z
$pdata$?merge_prev@@YAXPEAU_meta_data_@@@Z DD imagerel $LN4
	DD	imagerel $LN4+57
	DD	imagerel $unwind$?merge_prev@@YAXPEAU_meta_data_@@@Z
pdata	ENDS
xdata	SEGMENT
$unwind$AuHeapInitialize DD 010401H
	DD	08204H
$unwind$kmalloc DD 010801H
	DD	08208H
$unwind$krealloc DD 010d01H
	DD	0620dH
$unwind$kcalloc DD 010e01H
	DD	0620eH
$unwind$kfree DD 010901H
	DD	06209H
$unwind$?au_free_page@@YAXPEAXH@Z DD 010d01H
	DD	0420dH
$unwind$?au_request_page@@YAPEAXH@Z DD 010801H
	DD	08208H
$unwind$?au_split_block@@YA_NPEAU_meta_data_@@_K@Z DD 010e01H
	DD	0620eH
$unwind$?au_expand_kmalloc@@YAX_K@Z DD 010901H
	DD	0a209H
$unwind$?kheap_debug@@YAXXZ DD 010401H
	DD	06204H
$unwind$?merge_next@@YAXPEAU_meta_data_@@@Z DD 010901H
	DD	02209H
$unwind$?merge_prev@@YAXPEAU_meta_data_@@@Z DD 010901H
	DD	04209H
xdata	ENDS
; Function compile flags: /Odtpy
; File e:\xeneva project\aurora\kernel\mm\kmalloc.cpp
_TEXT	SEGMENT
meta$ = 48
?merge_prev@@YAXPEAU_meta_data_@@@Z PROC		; merge_prev

; 229  : void merge_prev(meta_data_t* meta) {

$LN4:
	mov	QWORD PTR [rsp+8], rcx
	sub	rsp, 40					; 00000028H

; 230  : 	if (meta->prev != NULL && meta->prev->magic == MAGIC_FREE)

	mov	rax, QWORD PTR meta$[rsp]
	cmp	QWORD PTR [rax+16], 0
	je	SHORT $LN1@merge_prev
	mov	rax, QWORD PTR meta$[rsp]
	mov	rax, QWORD PTR [rax+16]
	cmp	DWORD PTR [rax], 369500162		; 16062002H
	jne	SHORT $LN1@merge_prev

; 231  : 		merge_next(meta->prev);

	mov	rax, QWORD PTR meta$[rsp]
	mov	rcx, QWORD PTR [rax+16]
	call	?merge_next@@YAXPEAU_meta_data_@@@Z	; merge_next
$LN1@merge_prev:

; 232  : }

	add	rsp, 40					; 00000028H
	ret	0
?merge_prev@@YAXPEAU_meta_data_@@@Z ENDP		; merge_prev
_TEXT	ENDS
; Function compile flags: /Odtpy
; File e:\xeneva project\aurora\kernel\mm\kmalloc.cpp
_TEXT	SEGMENT
tv69 = 0
meta$ = 32
?merge_next@@YAXPEAU_meta_data_@@@Z PROC		; merge_next

; 206  : void merge_next(meta_data_t *meta) {

$LN9:
	mov	QWORD PTR [rsp+8], rcx
	sub	rsp, 24

; 207  : 	if (meta->next == NULL)

	mov	rax, QWORD PTR meta$[rsp]
	cmp	QWORD PTR [rax+8], 0
	jne	SHORT $LN4@merge_next

; 208  : 		return;

	jmp	$LN5@merge_next
$LN4@merge_next:

; 209  : 	if (!meta->next->magic == MAGIC_FREE)

	mov	rax, QWORD PTR meta$[rsp]
	mov	rax, QWORD PTR [rax+8]
	cmp	DWORD PTR [rax], 0
	jne	SHORT $LN7@merge_next
	mov	DWORD PTR tv69[rsp], 1
	jmp	SHORT $LN8@merge_next
$LN7@merge_next:
	mov	DWORD PTR tv69[rsp], 0
$LN8@merge_next:
	cmp	DWORD PTR tv69[rsp], 369500162		; 16062002H
	jne	SHORT $LN3@merge_next

; 210  : 		return;

	jmp	SHORT $LN5@merge_next
$LN3@merge_next:

; 211  : 
; 212  : 
; 213  : 	if (last_block == meta->next)

	mov	rax, QWORD PTR meta$[rsp]
	mov	rax, QWORD PTR [rax+8]
	cmp	QWORD PTR last_block, rax
	jne	SHORT $LN2@merge_next

; 214  : 		last_block = meta;

	mov	rax, QWORD PTR meta$[rsp]
	mov	QWORD PTR last_block, rax
$LN2@merge_next:

; 215  : 
; 216  : 	meta->size += meta->next->size + sizeof(meta_data_t);

	mov	rax, QWORD PTR meta$[rsp]
	mov	rax, QWORD PTR [rax+8]
	movsxd	rax, DWORD PTR [rax+4]
	mov	rcx, QWORD PTR meta$[rsp]
	movsxd	rcx, DWORD PTR [rcx+4]
	lea	rax, QWORD PTR [rcx+rax+24]
	mov	rcx, QWORD PTR meta$[rsp]
	mov	DWORD PTR [rcx+4], eax

; 217  : 
; 218  : 	if (meta->next->next != NULL)

	mov	rax, QWORD PTR meta$[rsp]
	mov	rax, QWORD PTR [rax+8]
	cmp	QWORD PTR [rax+8], 0
	je	SHORT $LN1@merge_next

; 219  : 		meta->next->next->prev = meta;

	mov	rax, QWORD PTR meta$[rsp]
	mov	rax, QWORD PTR [rax+8]
	mov	rax, QWORD PTR [rax+8]
	mov	rcx, QWORD PTR meta$[rsp]
	mov	QWORD PTR [rax+16], rcx
$LN1@merge_next:

; 220  : 
; 221  : 	meta->next = meta->next->next;

	mov	rax, QWORD PTR meta$[rsp]
	mov	rax, QWORD PTR [rax+8]
	mov	rcx, QWORD PTR meta$[rsp]
	mov	rax, QWORD PTR [rax+8]
	mov	QWORD PTR [rcx+8], rax
$LN5@merge_next:

; 222  : }

	add	rsp, 24
	ret	0
?merge_next@@YAXPEAU_meta_data_@@@Z ENDP		; merge_next
_TEXT	ENDS
; Function compile flags: /Odtpy
; File e:\xeneva project\aurora\kernel\mm\kmalloc.cpp
_TEXT	SEGMENT
block$1 = 32
?kheap_debug@@YAXXZ PROC				; kheap_debug

; 195  : void kheap_debug() {

$LN6:
	sub	rsp, 56					; 00000038H

; 196  : 	for (meta_data_t *block = first_block; block != NULL; block = block->next) {

	mov	rax, QWORD PTR first_block
	mov	QWORD PTR block$1[rsp], rax
	jmp	SHORT $LN3@kheap_debu
$LN2@kheap_debu:
	mov	rax, QWORD PTR block$1[rsp]
	mov	rax, QWORD PTR [rax+8]
	mov	QWORD PTR block$1[rsp], rax
$LN3@kheap_debu:
	cmp	QWORD PTR block$1[rsp], 0
	je	SHORT $LN1@kheap_debu

; 197  : 		AuTextOut("Prev -> %x || Current -> %x | Next -> %x \r\n", block->prev, block, block->next);

	mov	rax, QWORD PTR block$1[rsp]
	mov	r9, QWORD PTR [rax+8]
	mov	r8, QWORD PTR block$1[rsp]
	mov	rax, QWORD PTR block$1[rsp]
	mov	rdx, QWORD PTR [rax+16]
	lea	rcx, OFFSET FLAT:$SG2917
	call	AuTextOut

; 198  : 	}

	jmp	SHORT $LN2@kheap_debu
$LN1@kheap_debu:

; 199  : }

	add	rsp, 56					; 00000038H
	ret	0
?kheap_debug@@YAXXZ ENDP				; kheap_debug
_TEXT	ENDS
; Function compile flags: /Odtpy
; File e:\xeneva project\aurora\kernel\mm\kmalloc.cpp
_TEXT	SEGMENT
meta$ = 32
req_pages$ = 40
page$ = 48
desc_addr$ = 56
lm$ = 64
req_size$ = 96
?au_expand_kmalloc@@YAX_K@Z PROC			; au_expand_kmalloc

; 118  : void au_expand_kmalloc(size_t req_size) {

$LN5:
	mov	QWORD PTR [rsp+8], rcx
	sub	rsp, 88					; 00000058H

; 119  : 	size_t req_pages = 1;

	mov	QWORD PTR req_pages$[rsp], 1

; 120  : 	if (req_size >= 4096)

	cmp	QWORD PTR req_size$[rsp], 4096		; 00001000H
	jb	SHORT $LN2@au_expand_

; 121  : 		req_pages = (req_size + sizeof(meta_data_t)) / 4096 + 1;

	mov	rax, QWORD PTR req_size$[rsp]
	add	rax, 24
	xor	edx, edx
	mov	ecx, 4096				; 00001000H
	div	rcx
	inc	rax
	mov	QWORD PTR req_pages$[rsp], rax
$LN2@au_expand_:

; 122  : 
; 123  : 	void* page = au_request_page(req_pages);

	mov	ecx, DWORD PTR req_pages$[rsp]
	call	?au_request_page@@YAPEAXH@Z		; au_request_page
	mov	QWORD PTR page$[rsp], rax

; 124  : 	uint8_t* desc_addr = (uint8_t*)page;

	mov	rax, QWORD PTR page$[rsp]
	mov	QWORD PTR desc_addr$[rsp], rax

; 125  : 	/* setup the first meta data block */
; 126  : 	meta_data_t *meta = (meta_data_t*)desc_addr;

	mov	rax, QWORD PTR desc_addr$[rsp]
	mov	QWORD PTR meta$[rsp], rax

; 127  : 
; 128  : 	//meta->free = true;
; 129  : 	meta->next = NULL;

	mov	rax, QWORD PTR meta$[rsp]
	mov	QWORD PTR [rax+8], 0

; 130  : 	meta->prev = NULL;

	mov	rax, QWORD PTR meta$[rsp]
	mov	QWORD PTR [rax+16], 0

; 131  : 	meta->magic = MAGIC_FREE;

	mov	rax, QWORD PTR meta$[rsp]
	mov	DWORD PTR [rax], 369500162		; 16062002H

; 132  : 	
; 133  : 	/* meta->size holds only the usable area size for user */
; 134  : 	meta->size = (req_pages * 4096) - sizeof(meta_data_t);

	imul	rax, QWORD PTR req_pages$[rsp], 4096	; 00001000H
	sub	rax, 24
	mov	rcx, QWORD PTR meta$[rsp]
	mov	DWORD PTR [rcx+4], eax

; 135  : 	meta->prev = last_block;

	mov	rax, QWORD PTR meta$[rsp]
	mov	rcx, QWORD PTR last_block
	mov	QWORD PTR [rax+16], rcx

; 136  : 	last_block->next = meta;

	mov	rax, QWORD PTR last_block
	mov	rcx, QWORD PTR meta$[rsp]
	mov	QWORD PTR [rax+8], rcx

; 137  : 	last_block = meta;

	mov	rax, QWORD PTR meta$[rsp]
	mov	QWORD PTR last_block, rax

; 138  : 
; 139  : 	
; 140  : 
; 141  : 	/* now check if we can merge the last block and this
; 142  : 	* into one
; 143  : 	*/
; 144  : 	if (meta->prev->magic == MAGIC_FREE) {

	mov	rax, QWORD PTR meta$[rsp]
	mov	rax, QWORD PTR [rax+16]
	cmp	DWORD PTR [rax], 369500162		; 16062002H
	jne	SHORT $LN1@au_expand_

; 145  : 		meta->prev->size += meta->size - sizeof(meta_data_t);

	mov	rax, QWORD PTR meta$[rsp]
	mov	rax, QWORD PTR [rax+16]
	mov	rcx, QWORD PTR meta$[rsp]
	movsxd	rcx, DWORD PTR [rcx+4]
	movsxd	rax, DWORD PTR [rax+4]
	lea	rax, QWORD PTR [rax+rcx-24]
	mov	rcx, QWORD PTR meta$[rsp]
	mov	rcx, QWORD PTR [rcx+16]
	mov	DWORD PTR [rcx+4], eax

; 146  : 		meta->prev->next = NULL;

	mov	rax, QWORD PTR meta$[rsp]
	mov	rax, QWORD PTR [rax+16]
	mov	QWORD PTR [rax+8], 0

; 147  : 		last_block = meta->prev;

	mov	rax, QWORD PTR meta$[rsp]
	mov	rax, QWORD PTR [rax+16]
	mov	QWORD PTR last_block, rax
$LN1@au_expand_:

; 148  : 	}
; 149  : 
; 150  : 	uint64_t lm = (uint64_t)page;

	mov	rax, QWORD PTR page$[rsp]
	mov	QWORD PTR lm$[rsp], rax

; 151  : 	last_mark = (uint64_t)(lm + (req_pages * 4096));

	imul	rax, QWORD PTR req_pages$[rsp], 4096	; 00001000H
	mov	rcx, QWORD PTR lm$[rsp]
	add	rcx, rax
	mov	rax, rcx
	mov	QWORD PTR ?last_mark@@3_KA, rax		; last_mark

; 152  : 
; 153  : }

	add	rsp, 88					; 00000058H
	ret	0
?au_expand_kmalloc@@YAX_K@Z ENDP			; au_expand_kmalloc
_TEXT	ENDS
; Function compile flags: /Odtpy
; File e:\xeneva project\aurora\kernel\mm\kmalloc.cpp
_TEXT	SEGMENT
new_block_m$ = 0
new_block$ = 8
size$ = 16
meta_block_a$ = 24
new_block_pos$ = 32
splitable$ = 64
req_size$ = 72
?au_split_block@@YA_NPEAU_meta_data_@@_K@Z PROC		; au_split_block

; 76   : bool au_split_block(meta_data_t* splitable, size_t req_size) {

$LN7:
	mov	QWORD PTR [rsp+16], rdx
	mov	QWORD PTR [rsp+8], rcx
	sub	rsp, 56					; 00000038H

; 77   : 
; 78   : 	uint8_t* meta_block_a = (uint8_t*)splitable;

	mov	rax, QWORD PTR splitable$[rsp]
	mov	QWORD PTR meta_block_a$[rsp], rax

; 79   : 
; 80   : 	uint8_t* new_block = (uint8_t*)(meta_block_a + sizeof(meta_data_t)+req_size);

	mov	rax, QWORD PTR meta_block_a$[rsp]
	mov	rcx, QWORD PTR req_size$[rsp]
	lea	rax, QWORD PTR [rax+rcx+24]
	mov	QWORD PTR new_block$[rsp], rax

; 81   : 	meta_data_t* new_block_m = (meta_data_t*)new_block;

	mov	rax, QWORD PTR new_block$[rsp]
	mov	QWORD PTR new_block_m$[rsp], rax

; 82   : 	size_t size = splitable->size - req_size - sizeof(meta_data_t);

	mov	rax, QWORD PTR splitable$[rsp]
	movsxd	rax, DWORD PTR [rax+4]
	sub	rax, QWORD PTR req_size$[rsp]
	sub	rax, 24
	mov	QWORD PTR size$[rsp], rax

; 83   : 
; 84   : 	if (size <= sizeof(meta_data_t))

	cmp	QWORD PTR size$[rsp], 24
	ja	SHORT $LN4@au_split_b

; 85   : 		return 1;

	mov	al, 1
	jmp	$LN5@au_split_b
$LN4@au_split_b:

; 86   : 
; 87   : 	uint64_t new_block_pos = (uint64_t)new_block;

	mov	rax, QWORD PTR new_block$[rsp]
	mov	QWORD PTR new_block_pos$[rsp], rax

; 88   : 	if ((new_block_pos + req_size) > last_mark)

	mov	rax, QWORD PTR req_size$[rsp]
	mov	rcx, QWORD PTR new_block_pos$[rsp]
	add	rcx, rax
	mov	rax, rcx
	cmp	rax, QWORD PTR ?last_mark@@3_KA		; last_mark
	jbe	SHORT $LN3@au_split_b

; 89   : 		return 0;

	xor	al, al
	jmp	$LN5@au_split_b
$LN3@au_split_b:

; 90   : 
; 91   : 
; 92   : 	//new_block->free = true;
; 93   : 	new_block_m->magic = MAGIC_FREE;

	mov	rax, QWORD PTR new_block_m$[rsp]
	mov	DWORD PTR [rax], 369500162		; 16062002H

; 94   : 	new_block_m->prev = splitable;

	mov	rax, QWORD PTR new_block_m$[rsp]
	mov	rcx, QWORD PTR splitable$[rsp]
	mov	QWORD PTR [rax+16], rcx

; 95   : 	new_block_m->next = splitable->next;

	mov	rax, QWORD PTR new_block_m$[rsp]
	mov	rcx, QWORD PTR splitable$[rsp]
	mov	rcx, QWORD PTR [rcx+8]
	mov	QWORD PTR [rax+8], rcx

; 96   : 	if (new_block_m->next != NULL)

	mov	rax, QWORD PTR new_block_m$[rsp]
	cmp	QWORD PTR [rax+8], 0
	je	SHORT $LN2@au_split_b

; 97   : 		new_block_m->next->prev = new_block_m;

	mov	rax, QWORD PTR new_block_m$[rsp]
	mov	rax, QWORD PTR [rax+8]
	mov	rcx, QWORD PTR new_block_m$[rsp]
	mov	QWORD PTR [rax+16], rcx
$LN2@au_split_b:

; 98   : 
; 99   : 
; 100  : 	new_block_m->size = size;

	mov	rax, QWORD PTR new_block_m$[rsp]
	mov	ecx, DWORD PTR size$[rsp]
	mov	DWORD PTR [rax+4], ecx

; 101  : 
; 102  : 
; 103  : 	splitable->size = req_size;

	mov	rax, QWORD PTR splitable$[rsp]
	mov	ecx, DWORD PTR req_size$[rsp]
	mov	DWORD PTR [rax+4], ecx

; 104  : 	splitable->next = new_block_m;

	mov	rax, QWORD PTR splitable$[rsp]
	mov	rcx, QWORD PTR new_block_m$[rsp]
	mov	QWORD PTR [rax+8], rcx

; 105  : 
; 106  : 
; 107  : 	if (last_block == splitable)

	mov	rax, QWORD PTR splitable$[rsp]
	cmp	QWORD PTR last_block, rax
	jne	SHORT $LN1@au_split_b

; 108  : 		last_block = new_block_m;

	mov	rax, QWORD PTR new_block_m$[rsp]
	mov	QWORD PTR last_block, rax
$LN1@au_split_b:

; 109  : 
; 110  : 
; 111  : 	return 1;

	mov	al, 1
$LN5@au_split_b:

; 112  : }

	add	rsp, 56					; 00000038H
	ret	0
?au_split_block@@YA_NPEAU_meta_data_@@_K@Z ENDP		; au_split_block
_TEXT	ENDS
; Function compile flags: /Odtpy
; File e:\xeneva project\aurora\kernel\mm\kmalloc.cpp
_TEXT	SEGMENT
i$1 = 32
page$ = 40
page_$ = 48
p$2 = 56
pages$ = 80
?au_request_page@@YAPEAXH@Z PROC			; au_request_page

; 283  : void* au_request_page(int pages) {

$LN6:
	mov	DWORD PTR [rsp+8], ecx
	sub	rsp, 72					; 00000048H

; 284  : 	uint64_t* page = AuGetFreePage(0, false);

	xor	edx, edx
	xor	ecx, ecx
	call	AuGetFreePage
	mov	QWORD PTR page$[rsp], rax

; 285  : 	uint64_t page_ = (uint64_t)page;

	mov	rax, QWORD PTR page$[rsp]
	mov	QWORD PTR page_$[rsp], rax

; 286  : 
; 287  : 	for (size_t i = 0; i < pages; i++) {

	mov	QWORD PTR i$1[rsp], 0
	jmp	SHORT $LN3@au_request
$LN2@au_request:
	mov	rax, QWORD PTR i$1[rsp]
	inc	rax
	mov	QWORD PTR i$1[rsp], rax
$LN3@au_request:
	movsxd	rax, DWORD PTR pages$[rsp]
	cmp	QWORD PTR i$1[rsp], rax
	jae	SHORT $LN1@au_request

; 288  : 		void* p = AuPmmngrAlloc();

	call	AuPmmngrAlloc
	mov	QWORD PTR p$2[rsp], rax

; 289  : 		AuMapPage((uint64_t)p, page_ + i * 4096, 0);

	imul	rax, QWORD PTR i$1[rsp], 4096		; 00001000H
	mov	rcx, QWORD PTR page_$[rsp]
	add	rcx, rax
	mov	rax, rcx
	xor	r8d, r8d
	mov	rdx, rax
	mov	rcx, QWORD PTR p$2[rsp]
	call	AuMapPage

; 290  : 	}

	jmp	SHORT $LN2@au_request
$LN1@au_request:

; 291  : 	return page;

	mov	rax, QWORD PTR page$[rsp]

; 292  : }

	add	rsp, 72					; 00000048H
	ret	0
?au_request_page@@YAPEAXH@Z ENDP			; au_request_page
_TEXT	ENDS
; Function compile flags: /Odtpy
; File e:\xeneva project\aurora\kernel\mm\kmalloc.cpp
_TEXT	SEGMENT
ptr$ = 48
pages$ = 56
?au_free_page@@YAXPEAXH@Z PROC				; au_free_page

; 300  : void au_free_page(void* ptr, int pages) {

$LN3:
	mov	DWORD PTR [rsp+16], edx
	mov	QWORD PTR [rsp+8], rcx
	sub	rsp, 40					; 00000028H

; 301  : 	AuFreePages((uint64_t)ptr, true, pages);

	movsxd	rax, DWORD PTR pages$[rsp]
	mov	r8, rax
	mov	dl, 1
	mov	rcx, QWORD PTR ptr$[rsp]
	call	AuFreePages

; 302  : }

	add	rsp, 40					; 00000028H
	ret	0
?au_free_page@@YAXPEAXH@Z ENDP				; au_free_page
_TEXT	ENDS
; Function compile flags: /Odtpy
; File e:\xeneva project\aurora\kernel\mm\kmalloc.cpp
_TEXT	SEGMENT
meta$ = 32
actual_addr$ = 40
ptr$ = 64
kfree	PROC

; 238  : void kfree(void* ptr) {

$LN3:
	mov	QWORD PTR [rsp+8], rcx
	sub	rsp, 56					; 00000038H

; 239  : 	uint8_t* actual_addr = (uint8_t*)ptr;

	mov	rax, QWORD PTR ptr$[rsp]
	mov	QWORD PTR actual_addr$[rsp], rax

; 240  : 	meta_data_t *meta = (meta_data_t*)(actual_addr - sizeof(meta_data_t));

	mov	rax, QWORD PTR actual_addr$[rsp]
	sub	rax, 24
	mov	QWORD PTR meta$[rsp], rax

; 241  : 	meta->magic = MAGIC_FREE;

	mov	rax, QWORD PTR meta$[rsp]
	mov	DWORD PTR [rax], 369500162		; 16062002H

; 242  : 
; 243  : 	/* merge it with 3 near blocks if they are free*/
; 244  : 	merge_next(meta);

	mov	rcx, QWORD PTR meta$[rsp]
	call	?merge_next@@YAXPEAU_meta_data_@@@Z	; merge_next

; 245  : 	merge_prev(meta);

	mov	rcx, QWORD PTR meta$[rsp]
	call	?merge_prev@@YAXPEAU_meta_data_@@@Z	; merge_prev

; 246  : }

	add	rsp, 56					; 00000038H
	ret	0
kfree	ENDP
_TEXT	ENDS
; Function compile flags: /Odtpy
; File e:\xeneva project\aurora\kernel\mm\kmalloc.cpp
_TEXT	SEGMENT
ptr$ = 32
total$ = 40
n_item$ = 64
size$ = 72
kcalloc	PROC

; 271  : void* kcalloc(size_t n_item, size_t size) {

$LN4:
	mov	QWORD PTR [rsp+16], rdx
	mov	QWORD PTR [rsp+8], rcx
	sub	rsp, 56					; 00000038H

; 272  : 	size_t total = n_item * size;

	mov	rax, QWORD PTR n_item$[rsp]
	imul	rax, QWORD PTR size$[rsp]
	mov	QWORD PTR total$[rsp], rax

; 273  : 
; 274  : 	void* ptr = kmalloc(total);

	mov	ecx, DWORD PTR total$[rsp]
	call	kmalloc
	mov	QWORD PTR ptr$[rsp], rax

; 275  : 	if (ptr)

	cmp	QWORD PTR ptr$[rsp], 0
	je	SHORT $LN1@kcalloc

; 276  : 		memset(ptr, 0, total);

	mov	r8d, DWORD PTR total$[rsp]
	xor	edx, edx
	mov	rcx, QWORD PTR ptr$[rsp]
	call	memset
$LN1@kcalloc:

; 277  : 	return ptr;

	mov	rax, QWORD PTR ptr$[rsp]

; 278  : }

	add	rsp, 56					; 00000038H
	ret	0
kcalloc	ENDP
_TEXT	ENDS
; Function compile flags: /Odtpy
; File e:\xeneva project\aurora\kernel\mm\kmalloc.cpp
_TEXT	SEGMENT
result$ = 32
ptr$ = 64
new_size$ = 72
krealloc PROC

; 253  : void* krealloc(void* ptr, unsigned int new_size) {

$LN4:
	mov	DWORD PTR [rsp+16], edx
	mov	QWORD PTR [rsp+8], rcx
	sub	rsp, 56					; 00000038H

; 254  : 	void* result = kmalloc(new_size);

	mov	ecx, DWORD PTR new_size$[rsp]
	call	kmalloc
	mov	QWORD PTR result$[rsp], rax

; 255  : 	if (ptr) {

	cmp	QWORD PTR ptr$[rsp], 0
	je	SHORT $LN1@krealloc

; 256  : 		/* here we can check the size difference
; 257  : 		* of new_size and old size from internal
; 258  : 		* data structure of kmalloc */
; 259  : 		memcpy(result, ptr, new_size);

	mov	eax, DWORD PTR new_size$[rsp]
	mov	r8d, eax
	mov	rdx, QWORD PTR ptr$[rsp]
	mov	rcx, QWORD PTR result$[rsp]
	call	memcpy
$LN1@krealloc:

; 260  : 	}
; 261  : 
; 262  : 	kfree(ptr);

	mov	rcx, QWORD PTR ptr$[rsp]
	call	kfree

; 263  : 	return result;

	mov	rax, QWORD PTR result$[rsp]

; 264  : }

	add	rsp, 56					; 00000038H
	ret	0
krealloc ENDP
_TEXT	ENDS
; Function compile flags: /Odtpy
; File e:\xeneva project\aurora\kernel\mm\kmalloc.cpp
_TEXT	SEGMENT
meta$ = 32
ret$ = 40
meta_addr$1 = 48
addr$2 = 56
size$ = 80
kmalloc	PROC

; 159  : void* kmalloc(unsigned int size) {

$LN11:
	mov	DWORD PTR [rsp+8], ecx
	sub	rsp, 72					; 00000048H

; 160  : 	meta_data_t *meta = first_block;

	mov	rax, QWORD PTR first_block
	mov	QWORD PTR meta$[rsp], rax

; 161  : 	uint8_t* ret = 0;

	mov	QWORD PTR ret$[rsp], 0
$LN8@kmalloc:

; 162  : 	/* now search begins */
; 163  : 	while (meta){

	cmp	QWORD PTR meta$[rsp], 0
	je	$LN7@kmalloc

; 164  : 		if (meta->magic == MAGIC_FREE) {

	mov	rax, QWORD PTR meta$[rsp]
	cmp	DWORD PTR [rax], 369500162		; 16062002H
	jne	SHORT $LN6@kmalloc

; 165  : 			if (meta->size > size) {

	mov	rax, QWORD PTR meta$[rsp]
	mov	ecx, DWORD PTR size$[rsp]
	cmp	DWORD PTR [rax+4], ecx
	jbe	SHORT $LN5@kmalloc

; 166  : 				if (au_split_block(meta, size)){

	mov	eax, DWORD PTR size$[rsp]
	mov	edx, eax
	mov	rcx, QWORD PTR meta$[rsp]
	call	?au_split_block@@YA_NPEAU_meta_data_@@_K@Z ; au_split_block
	movzx	eax, al
	test	eax, eax
	je	SHORT $LN4@kmalloc

; 167  : 					meta->magic = MAGIC_USED;

	mov	rax, QWORD PTR meta$[rsp]
	mov	DWORD PTR [rax], 303112194		; 12112002H

; 168  : 					uint8_t* meta_addr = (uint8_t*)meta;

	mov	rax, QWORD PTR meta$[rsp]
	mov	QWORD PTR meta_addr$1[rsp], rax

; 169  : 					ret = ((uint8_t*)(meta_addr + sizeof(meta_data_t)));

	mov	rax, QWORD PTR meta_addr$1[rsp]
	add	rax, 24
	mov	QWORD PTR ret$[rsp], rax
$LN4@kmalloc:

; 170  : 				}
; 171  : 				break;

	jmp	SHORT $LN7@kmalloc
$LN5@kmalloc:

; 172  : 			}
; 173  : 
; 174  : 			if (meta->size == size) {

	mov	rax, QWORD PTR meta$[rsp]
	mov	ecx, DWORD PTR size$[rsp]
	cmp	DWORD PTR [rax+4], ecx
	jne	SHORT $LN3@kmalloc

; 175  : 				meta->magic = MAGIC_USED;

	mov	rax, QWORD PTR meta$[rsp]
	mov	DWORD PTR [rax], 303112194		; 12112002H

; 176  : 				uint8_t* addr = (uint8_t*)meta;

	mov	rax, QWORD PTR meta$[rsp]
	mov	QWORD PTR addr$2[rsp], rax

; 177  : 				ret = ((uint8_t*)(addr + sizeof(meta_data_t)));

	mov	rax, QWORD PTR addr$2[rsp]
	add	rax, 24
	mov	QWORD PTR ret$[rsp], rax

; 178  : 				break;

	jmp	SHORT $LN7@kmalloc
$LN3@kmalloc:
$LN6@kmalloc:

; 179  : 			}
; 180  : 		}
; 181  : 
; 182  : 		meta = meta->next;

	mov	rax, QWORD PTR meta$[rsp]
	mov	rax, QWORD PTR [rax+8]
	mov	QWORD PTR meta$[rsp], rax

; 183  : 	}

	jmp	$LN8@kmalloc
$LN7@kmalloc:

; 184  : 
; 185  : 	if (ret) {

	cmp	QWORD PTR ret$[rsp], 0
	je	SHORT $LN2@kmalloc

; 186  : 		return ret;

	mov	rax, QWORD PTR ret$[rsp]
	jmp	SHORT $LN9@kmalloc

; 187  : 	}
; 188  : 	else{

	jmp	SHORT $LN1@kmalloc
$LN2@kmalloc:

; 189  : 		au_expand_kmalloc(size);

	mov	eax, DWORD PTR size$[rsp]
	mov	ecx, eax
	call	?au_expand_kmalloc@@YAX_K@Z		; au_expand_kmalloc
$LN1@kmalloc:

; 190  : 
; 191  : 	}
; 192  : 	return kmalloc(size);

	mov	ecx, DWORD PTR size$[rsp]
	call	kmalloc
$LN9@kmalloc:

; 193  : }

	add	rsp, 72					; 00000048H
	ret	0
kmalloc	ENDP
_TEXT	ENDS
; Function compile flags: /Odtpy
; File e:\xeneva project\aurora\kernel\mm\kmalloc.cpp
_TEXT	SEGMENT
meta$ = 32
page$ = 40
desc_addr$ = 48
AuHeapInitialize PROC

; 51   : void AuHeapInitialize() {

$LN3:
	sub	rsp, 72					; 00000048H

; 52   : 	last_block = NULL;

	mov	QWORD PTR last_block, 0

; 53   : 	first_block = NULL;

	mov	QWORD PTR first_block, 0

; 54   : 	last_mark = 0;

	mov	QWORD PTR ?last_mark@@3_KA, 0		; last_mark

; 55   : 	void* page = au_request_page(1);

	mov	ecx, 1
	call	?au_request_page@@YAPEAXH@Z		; au_request_page
	mov	QWORD PTR page$[rsp], rax

; 56   : 	memset(page, 0, (1 * 4096));

	mov	r8d, 4096				; 00001000H
	xor	edx, edx
	mov	rcx, QWORD PTR page$[rsp]
	call	memset

; 57   : 	/* setup the first meta data block */
; 58   : 	uint8_t* desc_addr = (uint8_t*)page;

	mov	rax, QWORD PTR page$[rsp]
	mov	QWORD PTR desc_addr$[rsp], rax

; 59   : 	meta_data_t *meta = (meta_data_t*)desc_addr;

	mov	rax, QWORD PTR desc_addr$[rsp]
	mov	QWORD PTR meta$[rsp], rax

; 60   : 	meta->next = NULL;

	mov	rax, QWORD PTR meta$[rsp]
	mov	QWORD PTR [rax+8], 0

; 61   : 	meta->prev = NULL;

	mov	rax, QWORD PTR meta$[rsp]
	mov	QWORD PTR [rax+16], 0

; 62   : 	meta->magic = MAGIC_FREE;

	mov	rax, QWORD PTR meta$[rsp]
	mov	DWORD PTR [rax], 369500162		; 16062002H

; 63   : 
; 64   : 	/* meta->size holds only the usable area size for user */
; 65   : 	meta->size = (1 * 4096) - sizeof(meta_data_t);

	mov	rax, QWORD PTR meta$[rsp]
	mov	DWORD PTR [rax+4], 4072			; 00000fe8H

; 66   : 	first_block = meta;

	mov	rax, QWORD PTR meta$[rsp]
	mov	QWORD PTR first_block, rax

; 67   : 	last_block = meta;

	mov	rax, QWORD PTR meta$[rsp]
	mov	QWORD PTR last_block, rax

; 68   : 	
; 69   : 	last_mark = ((uint64_t)page + (1 * 4096));

	mov	rax, QWORD PTR page$[rsp]
	add	rax, 4096				; 00001000H
	mov	QWORD PTR ?last_mark@@3_KA, rax		; last_mark

; 70   : }

	add	rsp, 72					; 00000048H
	ret	0
AuHeapInitialize ENDP
_TEXT	ENDS
END
