; Listing generated by Microsoft (R) Optimizing Compiler Version 18.00.21005.1 

include listing.inc

INCLUDELIB LIBCMT
INCLUDELIB OLDNAMES

PUBLIC	?__ps2mouse@@3PEAU__ps2mouse__@@EA		; __ps2mouse
_BSS	SEGMENT
?__ps2mouse@@3PEAU__ps2mouse__@@EA DQ 01H DUP (?)	; __ps2mouse
_BSS	ENDS
CONST	SEGMENT
$SG3826	DB	'Right clicked ', 0dH, 0aH, 00H
	ORG $+7
$SG3831	DB	'Mouse Scroll down ', 0aH, 00H
	ORG $+4
$SG3835	DB	'Mouse Scroll up ', 0aH, 00H
CONST	ENDS
PUBLIC	?AuPS2MouseInitialise@@YAXXZ			; AuPS2MouseInitialise
PUBLIC	?AuPS2MouseSetPos@@YAXHH@Z			; AuPS2MouseSetPos
PUBLIC	?PS2MouseWaitInput@@YAXXZ			; PS2MouseWaitInput
PUBLIC	?PS2MouseWaitOutput@@YAXXZ			; PS2MouseWaitOutput
PUBLIC	?AuPS2MouseWrite@@YAEE@Z			; AuPS2MouseWrite
PUBLIC	?AuPS2MouseRead@@YAEXZ				; AuPS2MouseRead
PUBLIC	?PS2MouseHandler@@YAX_KPEAX@Z			; PS2MouseHandler
EXTRN	AuHalRegisterIRQ:PROC
EXTRN	AuInterruptEnd:PROC
EXTRN	x64_inportb:PROC
EXTRN	x64_outportb:PROC
EXTRN	kmalloc:PROC
EXTRN	memset:PROC
EXTRN	memcpy:PROC
EXTRN	AuTextOut:PROC
EXTRN	AuDevWriteMice:PROC
EXTRN	SeTextOut:PROC
pdata	SEGMENT
$pdata$?AuPS2MouseInitialise@@YAXXZ DD imagerel $LN3
	DD	imagerel $LN3+286
	DD	imagerel $unwind$?AuPS2MouseInitialise@@YAXXZ
$pdata$?PS2MouseWaitInput@@YAXXZ DD imagerel $LN6
	DD	imagerel $LN6+62
	DD	imagerel $unwind$?PS2MouseWaitInput@@YAXXZ
$pdata$?PS2MouseWaitOutput@@YAXXZ DD imagerel $LN6
	DD	imagerel $LN6+57
	DD	imagerel $unwind$?PS2MouseWaitOutput@@YAXXZ
$pdata$?AuPS2MouseWrite@@YAEE@Z DD imagerel $LN3
	DD	imagerel $LN3+62
	DD	imagerel $unwind$?AuPS2MouseWrite@@YAEE@Z
$pdata$?AuPS2MouseRead@@YAEXZ DD imagerel $LN3
	DD	imagerel $LN3+23
	DD	imagerel $unwind$?AuPS2MouseRead@@YAEXZ
$pdata$?PS2MouseHandler@@YAX_KPEAX@Z DD imagerel $LN29
	DD	imagerel $LN29+1152
	DD	imagerel $unwind$?PS2MouseHandler@@YAX_KPEAX@Z
pdata	ENDS
xdata	SEGMENT
$unwind$?AuPS2MouseInitialise@@YAXXZ DD 010401H
	DD	06204H
$unwind$?PS2MouseWaitInput@@YAXXZ DD 010401H
	DD	06204H
$unwind$?PS2MouseWaitOutput@@YAXXZ DD 010401H
	DD	06204H
$unwind$?AuPS2MouseWrite@@YAEE@Z DD 010801H
	DD	04208H
$unwind$?AuPS2MouseRead@@YAEXZ DD 010401H
	DD	04204H
$unwind$?PS2MouseHandler@@YAX_KPEAX@Z DD 010e01H
	DD	0a20eH
xdata	ENDS
; Function compile flags: /Odtpy
; File e:\xeneva project\aurora\kernel\drivers\mouse.cpp
_TEXT	SEGMENT
mouse_in$1 = 32
status$ = 33
tv76 = 36
x$2 = 40
y$3 = 44
newmsg$4 = 48
v$ = 96
p$ = 104
?PS2MouseHandler@@YAX_KPEAX@Z PROC			; PS2MouseHandler

; 109  : void PS2MouseHandler(size_t v, void* p) {

$LN29:
	mov	QWORD PTR [rsp+16], rdx
	mov	QWORD PTR [rsp+8], rcx
	sub	rsp, 88					; 00000058H

; 110  : 	uint8_t status = x64_inportb(MOUSE_STATUS);

	mov	cx, 100					; 00000064H
	call	x64_inportb
	mov	BYTE PTR status$[rsp], al
$LN26@PS2MouseHa:

; 111  : 	while ((status & MOUSE_BBIT) && (status & MOUSE_F_BIT)) {

	movzx	eax, BYTE PTR status$[rsp]
	and	eax, 1
	test	eax, eax
	je	$LN25@PS2MouseHa
	movzx	eax, BYTE PTR status$[rsp]
	and	eax, 32					; 00000020H
	test	eax, eax
	je	$LN25@PS2MouseHa

; 112  : 		int8_t mouse_in = x64_inportb(MOUSE_PORT);

	mov	cx, 96					; 00000060H
	call	x64_inportb
	mov	BYTE PTR mouse_in$1[rsp], al

; 113  : 		switch (__ps2mouse->mouse_cycle) {

	mov	rax, QWORD PTR ?__ps2mouse@@3PEAU__ps2mouse__@@EA ; __ps2mouse
	movzx	eax, BYTE PTR [rax]
	mov	BYTE PTR tv76[rsp], al
	cmp	BYTE PTR tv76[rsp], 0
	je	SHORT $LN22@PS2MouseHa
	cmp	BYTE PTR tv76[rsp], 1
	je	SHORT $LN20@PS2MouseHa
	cmp	BYTE PTR tv76[rsp], 2
	je	$LN19@PS2MouseHa
	cmp	BYTE PTR tv76[rsp], 3
	je	$LN17@PS2MouseHa
	cmp	BYTE PTR tv76[rsp], 4
	je	$LN15@PS2MouseHa
	jmp	$LN23@PS2MouseHa
$LN22@PS2MouseHa:

; 114  : 		case 0:
; 115  : 			__ps2mouse->mouse_byte[0] = mouse_in;

	mov	eax, 1
	imul	rax, rax, 0
	mov	rcx, QWORD PTR ?__ps2mouse@@3PEAU__ps2mouse__@@EA ; __ps2mouse
	movzx	edx, BYTE PTR mouse_in$1[rsp]
	mov	BYTE PTR [rcx+rax+1], dl

; 116  : 			if (!(mouse_in & MOUSE_V_BIT)) break;

	movsx	eax, BYTE PTR mouse_in$1[rsp]
	and	eax, 8
	test	eax, eax
	jne	SHORT $LN21@PS2MouseHa
	jmp	$LN23@PS2MouseHa
$LN21@PS2MouseHa:

; 117  : 			++__ps2mouse->mouse_cycle;

	mov	rax, QWORD PTR ?__ps2mouse@@3PEAU__ps2mouse__@@EA ; __ps2mouse
	movzx	eax, BYTE PTR [rax]
	inc	al
	mov	rcx, QWORD PTR ?__ps2mouse@@3PEAU__ps2mouse__@@EA ; __ps2mouse
	mov	BYTE PTR [rcx], al

; 118  : 			break;

	jmp	$LN23@PS2MouseHa
$LN20@PS2MouseHa:

; 119  : 		case 1:
; 120  : 			__ps2mouse->mouse_byte[1] = mouse_in;

	mov	eax, 1
	imul	rax, rax, 1
	mov	rcx, QWORD PTR ?__ps2mouse@@3PEAU__ps2mouse__@@EA ; __ps2mouse
	movzx	edx, BYTE PTR mouse_in$1[rsp]
	mov	BYTE PTR [rcx+rax+1], dl

; 121  : 			++__ps2mouse->mouse_cycle;

	mov	rax, QWORD PTR ?__ps2mouse@@3PEAU__ps2mouse__@@EA ; __ps2mouse
	movzx	eax, BYTE PTR [rax]
	inc	al
	mov	rcx, QWORD PTR ?__ps2mouse@@3PEAU__ps2mouse__@@EA ; __ps2mouse
	mov	BYTE PTR [rcx], al

; 122  : 			break;

	jmp	SHORT $LN23@PS2MouseHa
$LN19@PS2MouseHa:

; 123  : 		case 2:
; 124  : 			__ps2mouse->mouse_byte[2] = mouse_in;

	mov	eax, 1
	imul	rax, rax, 2
	mov	rcx, QWORD PTR ?__ps2mouse@@3PEAU__ps2mouse__@@EA ; __ps2mouse
	movzx	edx, BYTE PTR mouse_in$1[rsp]
	mov	BYTE PTR [rcx+rax+1], dl

; 125  : 			goto finish_packet;

	jmp	SHORT $LN18@PS2MouseHa
	jmp	SHORT $finish_packet$30
$LN17@PS2MouseHa:

; 126  : 		case 3:
; 127  : 			__ps2mouse->mouse_byte[3] = mouse_in;

	mov	eax, 1
	imul	rax, rax, 3
	mov	rcx, QWORD PTR ?__ps2mouse@@3PEAU__ps2mouse__@@EA ; __ps2mouse
	movzx	edx, BYTE PTR mouse_in$1[rsp]
	mov	BYTE PTR [rcx+rax+1], dl

; 128  : 			goto finish_packet;

	jmp	SHORT $LN16@PS2MouseHa
	jmp	SHORT $finish_packet$30
$LN15@PS2MouseHa:

; 129  : 		case 4:
; 130  : 			__ps2mouse->mouse_byte[4] = mouse_in;

	mov	eax, 1
	imul	rax, rax, 4
	mov	rcx, QWORD PTR ?__ps2mouse@@3PEAU__ps2mouse__@@EA ; __ps2mouse
	movzx	edx, BYTE PTR mouse_in$1[rsp]
	mov	BYTE PTR [rcx+rax+1], dl

; 131  : 			goto finish_packet;

	jmp	SHORT $LN14@PS2MouseHa
	jmp	SHORT $finish_packet$30
$LN23@PS2MouseHa:

; 132  : 		}
; 133  : 
; 134  : 		goto read_next;

	jmp	$LN13@PS2MouseHa
	jmp	$read_next$31
$LN14@PS2MouseHa:
$LN16@PS2MouseHa:
$LN18@PS2MouseHa:
$finish_packet$30:

; 135  : 
; 136  : finish_packet:
; 137  : 	__ps2mouse->mouse_cycle = 0;

	mov	rax, QWORD PTR ?__ps2mouse@@3PEAU__ps2mouse__@@EA ; __ps2mouse
	mov	BYTE PTR [rax], 0

; 138  : 
; 139  : 	int x = __ps2mouse->mouse_byte[1];

	mov	eax, 1
	imul	rax, rax, 1
	mov	rcx, QWORD PTR ?__ps2mouse@@3PEAU__ps2mouse__@@EA ; __ps2mouse
	movzx	eax, BYTE PTR [rcx+rax+1]
	mov	DWORD PTR x$2[rsp], eax

; 140  : 	int y = __ps2mouse->mouse_byte[2];

	mov	eax, 1
	imul	rax, rax, 2
	mov	rcx, QWORD PTR ?__ps2mouse@@3PEAU__ps2mouse__@@EA ; __ps2mouse
	movzx	eax, BYTE PTR [rcx+rax+1]
	mov	DWORD PTR y$3[rsp], eax

; 141  : 	if (x && __ps2mouse->mouse_byte[0] & (1 << 4))

	cmp	DWORD PTR x$2[rsp], 0
	je	SHORT $LN12@PS2MouseHa
	mov	eax, 1
	imul	rax, rax, 0
	mov	rcx, QWORD PTR ?__ps2mouse@@3PEAU__ps2mouse__@@EA ; __ps2mouse
	movzx	eax, BYTE PTR [rcx+rax+1]
	and	eax, 16
	test	eax, eax
	je	SHORT $LN12@PS2MouseHa

; 142  : 		x = x - 0x100;

	mov	eax, DWORD PTR x$2[rsp]
	sub	eax, 256				; 00000100H
	mov	DWORD PTR x$2[rsp], eax
$LN12@PS2MouseHa:

; 143  : 
; 144  : 	if (y && __ps2mouse->mouse_byte[0] & (1 << 5))

	cmp	DWORD PTR y$3[rsp], 0
	je	SHORT $LN11@PS2MouseHa
	mov	eax, 1
	imul	rax, rax, 0
	mov	rcx, QWORD PTR ?__ps2mouse@@3PEAU__ps2mouse__@@EA ; __ps2mouse
	movzx	eax, BYTE PTR [rcx+rax+1]
	and	eax, 32					; 00000020H
	test	eax, eax
	je	SHORT $LN11@PS2MouseHa

; 145  : 		y = y - 0x100;

	mov	eax, DWORD PTR y$3[rsp]
	sub	eax, 256				; 00000100H
	mov	DWORD PTR y$3[rsp], eax
$LN11@PS2MouseHa:

; 146  : 
; 147  : 	__ps2mouse->mouse_x_diff = x;

	mov	rax, QWORD PTR ?__ps2mouse@@3PEAU__ps2mouse__@@EA ; __ps2mouse
	mov	ecx, DWORD PTR x$2[rsp]
	mov	DWORD PTR [rax+13], ecx

; 148  : 	__ps2mouse->mouse_y_diff = y;

	mov	rax, QWORD PTR ?__ps2mouse@@3PEAU__ps2mouse__@@EA ; __ps2mouse
	mov	ecx, DWORD PTR y$3[rsp]
	mov	DWORD PTR [rax+17], ecx

; 149  : 	__ps2mouse->mouse_x += __ps2mouse->mouse_x_diff;

	mov	rax, QWORD PTR ?__ps2mouse@@3PEAU__ps2mouse__@@EA ; __ps2mouse
	mov	eax, DWORD PTR [rax+5]
	mov	rcx, QWORD PTR ?__ps2mouse@@3PEAU__ps2mouse__@@EA ; __ps2mouse
	add	eax, DWORD PTR [rcx+13]
	mov	rcx, QWORD PTR ?__ps2mouse@@3PEAU__ps2mouse__@@EA ; __ps2mouse
	mov	DWORD PTR [rcx+5], eax

; 150  : 	__ps2mouse->mouse_y -= __ps2mouse->mouse_y_diff;

	mov	rax, QWORD PTR ?__ps2mouse@@3PEAU__ps2mouse__@@EA ; __ps2mouse
	mov	rcx, QWORD PTR ?__ps2mouse@@3PEAU__ps2mouse__@@EA ; __ps2mouse
	mov	ecx, DWORD PTR [rcx+17]
	mov	eax, DWORD PTR [rax+9]
	sub	eax, ecx
	mov	rcx, QWORD PTR ?__ps2mouse@@3PEAU__ps2mouse__@@EA ; __ps2mouse
	mov	DWORD PTR [rcx+9], eax

; 151  : 
; 152  : 	if (__ps2mouse->mouse_x < 0)

	mov	rax, QWORD PTR ?__ps2mouse@@3PEAU__ps2mouse__@@EA ; __ps2mouse
	cmp	DWORD PTR [rax+5], 0
	jge	SHORT $LN10@PS2MouseHa

; 153  : 		__ps2mouse->mouse_x = 0;

	mov	rax, QWORD PTR ?__ps2mouse@@3PEAU__ps2mouse__@@EA ; __ps2mouse
	mov	DWORD PTR [rax+5], 0
$LN10@PS2MouseHa:

; 154  : 
; 155  : 	if (__ps2mouse->mouse_y < 0)

	mov	rax, QWORD PTR ?__ps2mouse@@3PEAU__ps2mouse__@@EA ; __ps2mouse
	cmp	DWORD PTR [rax+9], 0
	jge	SHORT $LN9@PS2MouseHa

; 156  : 		__ps2mouse->mouse_y = 0;

	mov	rax, QWORD PTR ?__ps2mouse@@3PEAU__ps2mouse__@@EA ; __ps2mouse
	mov	DWORD PTR [rax+9], 0
$LN9@PS2MouseHa:

; 157  : 
; 158  : 	__ps2mouse->mouse_butt_state = 0;

	mov	rax, QWORD PTR ?__ps2mouse@@3PEAU__ps2mouse__@@EA ; __ps2mouse
	mov	DWORD PTR [rax+27], 0

; 159  : 
; 160  : 	if (__ps2mouse->mouse_byte[0] & 0x01) {    //0x01 for PS/2

	mov	eax, 1
	imul	rax, rax, 0
	mov	rcx, QWORD PTR ?__ps2mouse@@3PEAU__ps2mouse__@@EA ; __ps2mouse
	movzx	eax, BYTE PTR [rcx+rax+1]
	and	eax, 1
	test	eax, eax
	je	SHORT $LN8@PS2MouseHa

; 161  : 		__ps2mouse->curr_button[0] = 1;

	mov	eax, 1
	imul	rax, rax, 0
	mov	rcx, QWORD PTR ?__ps2mouse@@3PEAU__ps2mouse__@@EA ; __ps2mouse
	mov	BYTE PTR [rcx+rax+24], 1

; 162  : 		__ps2mouse->mouse_butt_state |= LEFT_CLICK;

	mov	rax, QWORD PTR ?__ps2mouse@@3PEAU__ps2mouse__@@EA ; __ps2mouse
	mov	eax, DWORD PTR [rax+27]
	or	eax, 1
	mov	rcx, QWORD PTR ?__ps2mouse@@3PEAU__ps2mouse__@@EA ; __ps2mouse
	mov	DWORD PTR [rcx+27], eax

; 163  : 	}
; 164  : 	else

	jmp	SHORT $LN7@PS2MouseHa
$LN8@PS2MouseHa:

; 165  : 		__ps2mouse->curr_button[0] = 0;

	mov	eax, 1
	imul	rax, rax, 0
	mov	rcx, QWORD PTR ?__ps2mouse@@3PEAU__ps2mouse__@@EA ; __ps2mouse
	mov	BYTE PTR [rcx+rax+24], 0
$LN7@PS2MouseHa:

; 166  : 
; 167  : 	if (__ps2mouse->mouse_byte[0] & 0x02) {

	mov	eax, 1
	imul	rax, rax, 0
	mov	rcx, QWORD PTR ?__ps2mouse@@3PEAU__ps2mouse__@@EA ; __ps2mouse
	movzx	eax, BYTE PTR [rcx+rax+1]
	and	eax, 2
	test	eax, eax
	je	SHORT $LN6@PS2MouseHa

; 168  : 		__ps2mouse->curr_button[2] = 1;

	mov	eax, 1
	imul	rax, rax, 2
	mov	rcx, QWORD PTR ?__ps2mouse@@3PEAU__ps2mouse__@@EA ; __ps2mouse
	mov	BYTE PTR [rcx+rax+24], 1

; 169  : 		SeTextOut("Right clicked \r\n");

	lea	rcx, OFFSET FLAT:$SG3826
	call	SeTextOut

; 170  : 		__ps2mouse->mouse_butt_state |= RIGHT_CLICK;

	mov	rax, QWORD PTR ?__ps2mouse@@3PEAU__ps2mouse__@@EA ; __ps2mouse
	mov	eax, DWORD PTR [rax+27]
	or	eax, 2
	mov	rcx, QWORD PTR ?__ps2mouse@@3PEAU__ps2mouse__@@EA ; __ps2mouse
	mov	DWORD PTR [rcx+27], eax

; 171  : 	}
; 172  : 	else

	jmp	SHORT $LN5@PS2MouseHa
$LN6@PS2MouseHa:

; 173  : 		__ps2mouse->curr_button[2] = 0;

	mov	eax, 1
	imul	rax, rax, 2
	mov	rcx, QWORD PTR ?__ps2mouse@@3PEAU__ps2mouse__@@EA ; __ps2mouse
	mov	BYTE PTR [rcx+rax+24], 0
$LN5@PS2MouseHa:

; 174  : 
; 175  : 	if (__ps2mouse->mouse_byte[0] & 0x04)

	mov	eax, 1
	imul	rax, rax, 0
	mov	rcx, QWORD PTR ?__ps2mouse@@3PEAU__ps2mouse__@@EA ; __ps2mouse
	movzx	eax, BYTE PTR [rcx+rax+1]
	and	eax, 4
	test	eax, eax
	je	SHORT $LN4@PS2MouseHa

; 176  : 		__ps2mouse->mouse_button |= MOUSE_MIDDLE_CLICK;

	mov	rax, QWORD PTR ?__ps2mouse@@3PEAU__ps2mouse__@@EA ; __ps2mouse
	mov	eax, DWORD PTR [rax+31]
	or	eax, 4
	mov	rcx, QWORD PTR ?__ps2mouse@@3PEAU__ps2mouse__@@EA ; __ps2mouse
	mov	DWORD PTR [rcx+31], eax
$LN4@PS2MouseHa:

; 177  : 
; 178  : 	if ((int8_t)__ps2mouse->mouse_byte[3] > 0)

	mov	eax, 1
	imul	rax, rax, 3
	mov	rcx, QWORD PTR ?__ps2mouse@@3PEAU__ps2mouse__@@EA ; __ps2mouse
	movsx	eax, BYTE PTR [rcx+rax+1]
	test	eax, eax
	jle	SHORT $LN3@PS2MouseHa

; 179  : 		AuTextOut("Mouse Scroll down \n");

	lea	rcx, OFFSET FLAT:$SG3831
	call	AuTextOut
	jmp	SHORT $LN2@PS2MouseHa
$LN3@PS2MouseHa:

; 180  : 	else if ((int8_t)__ps2mouse->mouse_byte[3] < 0)

	mov	eax, 1
	imul	rax, rax, 3
	mov	rcx, QWORD PTR ?__ps2mouse@@3PEAU__ps2mouse__@@EA ; __ps2mouse
	movsx	eax, BYTE PTR [rcx+rax+1]
	test	eax, eax
	jge	SHORT $LN1@PS2MouseHa

; 181  : 		AuTextOut("Mouse Scroll up \n");

	lea	rcx, OFFSET FLAT:$SG3835
	call	AuTextOut
$LN1@PS2MouseHa:
$LN2@PS2MouseHa:

; 182  : 
; 183  : 
; 184  : 	AuInputMessage newmsg;
; 185  : 	memset(&newmsg, 0, sizeof(AuInputMessage));

	mov	r8d, 26
	xor	edx, edx
	lea	rcx, QWORD PTR newmsg$4[rsp]
	call	memset

; 186  : 	newmsg.type = AU_INPUT_MOUSE;

	mov	BYTE PTR newmsg$4[rsp], 1

; 187  : 	newmsg.xpos = __ps2mouse->mouse_x;

	mov	rax, QWORD PTR ?__ps2mouse@@3PEAU__ps2mouse__@@EA ; __ps2mouse
	mov	eax, DWORD PTR [rax+5]
	mov	DWORD PTR newmsg$4[rsp+1], eax

; 188  : 	newmsg.ypos = __ps2mouse->mouse_y;

	mov	rax, QWORD PTR ?__ps2mouse@@3PEAU__ps2mouse__@@EA ; __ps2mouse
	mov	eax, DWORD PTR [rax+9]
	mov	DWORD PTR newmsg$4[rsp+5], eax

; 189  : 	newmsg.button_state = __ps2mouse->mouse_butt_state;

	mov	rax, QWORD PTR ?__ps2mouse@@3PEAU__ps2mouse__@@EA ; __ps2mouse
	movzx	eax, BYTE PTR [rax+27]
	mov	BYTE PTR newmsg$4[rsp+9], al

; 190  : 
; 191  : 	/*AuInputMessage oldmsg;
; 192  : 	AuDevReadMice(&oldmsg);*/
; 193  : 
; 194  : 	AuDevWriteMice(&newmsg);

	lea	rcx, QWORD PTR newmsg$4[rsp]
	call	AuDevWriteMice

; 195  : 	memcpy(__ps2mouse->prev_button, __ps2mouse->curr_button, 3);

	mov	rax, QWORD PTR ?__ps2mouse@@3PEAU__ps2mouse__@@EA ; __ps2mouse
	add	rax, 24
	mov	rcx, QWORD PTR ?__ps2mouse@@3PEAU__ps2mouse__@@EA ; __ps2mouse
	add	rcx, 21
	mov	r8d, 3
	mov	rdx, rax
	call	memcpy

; 196  : 	memset(__ps2mouse->curr_button, 0x00, 3);

	mov	rax, QWORD PTR ?__ps2mouse@@3PEAU__ps2mouse__@@EA ; __ps2mouse
	add	rax, 24
	mov	r8d, 3
	xor	edx, edx
	mov	rcx, rax
	call	memset
$LN13@PS2MouseHa:
$read_next$31:

; 197  : 
; 198  : read_next:
; 199  : 	break;

	jmp	SHORT $LN25@PS2MouseHa

; 200  : }

	jmp	$LN26@PS2MouseHa
$LN25@PS2MouseHa:

; 201  : 	AuInterruptEnd(12);

	mov	cl, 12
	call	AuInterruptEnd

; 202  : }

	add	rsp, 88					; 00000058H
	ret	0
?PS2MouseHandler@@YAX_KPEAX@Z ENDP			; PS2MouseHandler
_TEXT	ENDS
; Function compile flags: /Odtpy
; File e:\xeneva project\aurora\kernel\drivers\mouse.cpp
_TEXT	SEGMENT
?AuPS2MouseRead@@YAEXZ PROC				; AuPS2MouseRead

; 104  : uint8_t AuPS2MouseRead() {

$LN3:
	sub	rsp, 40					; 00000028H

; 105  : 	PS2MouseWaitOutput();

	call	?PS2MouseWaitOutput@@YAXXZ		; PS2MouseWaitOutput

; 106  : 	return x64_inportb(0x60);

	mov	cx, 96					; 00000060H
	call	x64_inportb

; 107  : }

	add	rsp, 40					; 00000028H
	ret	0
?AuPS2MouseRead@@YAEXZ ENDP				; AuPS2MouseRead
_TEXT	ENDS
; Function compile flags: /Odtpy
; File e:\xeneva project\aurora\kernel\drivers\mouse.cpp
_TEXT	SEGMENT
write$ = 48
?AuPS2MouseWrite@@YAEE@Z PROC				; AuPS2MouseWrite

; 95   : uint8_t AuPS2MouseWrite(uint8_t write) {

$LN3:
	mov	BYTE PTR [rsp+8], cl
	sub	rsp, 40					; 00000028H

; 96   : 	PS2MouseWaitInput();

	call	?PS2MouseWaitInput@@YAXXZ		; PS2MouseWaitInput

; 97   : 	x64_outportb(0x64, 0xD4);

	mov	dl, 212					; 000000d4H
	mov	cx, 100					; 00000064H
	call	x64_outportb

; 98   : 	PS2MouseWaitInput();

	call	?PS2MouseWaitInput@@YAXXZ		; PS2MouseWaitInput

; 99   : 	x64_outportb(0x60, write);

	movzx	edx, BYTE PTR write$[rsp]
	mov	cx, 96					; 00000060H
	call	x64_outportb

; 100  : 	PS2MouseWaitOutput();

	call	?PS2MouseWaitOutput@@YAXXZ		; PS2MouseWaitOutput

; 101  : 	return x64_inportb(0x60);

	mov	cx, 96					; 00000060H
	call	x64_inportb

; 102  : }

	add	rsp, 40					; 00000028H
	ret	0
?AuPS2MouseWrite@@YAEE@Z ENDP				; AuPS2MouseWrite
_TEXT	ENDS
; Function compile flags: /Odtpy
; File e:\xeneva project\aurora\kernel\drivers\mouse.cpp
_TEXT	SEGMENT
_timer_out$ = 32
?PS2MouseWaitOutput@@YAXXZ PROC				; PS2MouseWaitOutput

; 83   : void PS2MouseWaitOutput() {

$LN6:
	sub	rsp, 56					; 00000038H

; 84   : 	uint32_t _timer_out = 100000;

	mov	DWORD PTR _timer_out$[rsp], 100000	; 000186a0H
$LN3@PS2MouseWa:

; 85   : 	while (--_timer_out) {

	mov	eax, DWORD PTR _timer_out$[rsp]
	dec	eax
	mov	DWORD PTR _timer_out$[rsp], eax
	cmp	DWORD PTR _timer_out$[rsp], 0
	je	SHORT $LN2@PS2MouseWa

; 86   : 		if (x64_inportb(0x64) & (1<<0))

	mov	cx, 100					; 00000064H
	call	x64_inportb
	movzx	eax, al
	and	eax, 1
	test	eax, eax
	je	SHORT $LN1@PS2MouseWa

; 87   : 			return;

	jmp	SHORT $LN4@PS2MouseWa
$LN1@PS2MouseWa:

; 88   : 	}

	jmp	SHORT $LN3@PS2MouseWa
$LN2@PS2MouseWa:
$LN4@PS2MouseWa:

; 89   : }

	add	rsp, 56					; 00000038H
	ret	0
?PS2MouseWaitOutput@@YAXXZ ENDP				; PS2MouseWaitOutput
_TEXT	ENDS
; Function compile flags: /Odtpy
; File e:\xeneva project\aurora\kernel\drivers\mouse.cpp
_TEXT	SEGMENT
time_out$ = 32
?PS2MouseWaitInput@@YAXXZ PROC				; PS2MouseWaitInput

; 72   : void PS2MouseWaitInput() {

$LN6:
	sub	rsp, 56					; 00000038H

; 73   : 	uint64_t time_out = 100000UL;

	mov	QWORD PTR time_out$[rsp], 100000	; 000186a0H
$LN3@PS2MouseWa:

; 74   : 	while (--time_out){

	mov	rax, QWORD PTR time_out$[rsp]
	dec	rax
	mov	QWORD PTR time_out$[rsp], rax
	cmp	QWORD PTR time_out$[rsp], 0
	je	SHORT $LN2@PS2MouseWa

; 75   : 		if (!(x64_inportb(0x64) & (1 << 1))) return;

	mov	cx, 100					; 00000064H
	call	x64_inportb
	movzx	eax, al
	and	eax, 2
	test	eax, eax
	jne	SHORT $LN1@PS2MouseWa
	jmp	SHORT $LN4@PS2MouseWa
$LN1@PS2MouseWa:

; 76   : 	}

	jmp	SHORT $LN3@PS2MouseWa
$LN2@PS2MouseWa:
$LN4@PS2MouseWa:

; 77   : }

	add	rsp, 56					; 00000038H
	ret	0
?PS2MouseWaitInput@@YAXXZ ENDP				; PS2MouseWaitInput
_TEXT	ENDS
; Function compile flags: /Odtpy
; File e:\xeneva project\aurora\kernel\drivers\mouse.cpp
_TEXT	SEGMENT
x$ = 8
y$ = 16
?AuPS2MouseSetPos@@YAXHH@Z PROC				; AuPS2MouseSetPos

; 211  : void AuPS2MouseSetPos(int32_t x, int32_t y) {

	mov	DWORD PTR [rsp+16], edx
	mov	DWORD PTR [rsp+8], ecx

; 212  : 	if (!__ps2mouse)

	cmp	QWORD PTR ?__ps2mouse@@3PEAU__ps2mouse__@@EA, 0 ; __ps2mouse
	jne	SHORT $LN1@AuPS2Mouse

; 213  : 		return;

	jmp	SHORT $LN2@AuPS2Mouse
$LN1@AuPS2Mouse:

; 214  : 	__ps2mouse->mouse_x = x;

	mov	rax, QWORD PTR ?__ps2mouse@@3PEAU__ps2mouse__@@EA ; __ps2mouse
	mov	ecx, DWORD PTR x$[rsp]
	mov	DWORD PTR [rax+5], ecx

; 215  : 	__ps2mouse->mouse_y = y;

	mov	rax, QWORD PTR ?__ps2mouse@@3PEAU__ps2mouse__@@EA ; __ps2mouse
	mov	ecx, DWORD PTR y$[rsp]
	mov	DWORD PTR [rax+9], ecx
$LN2@AuPS2Mouse:

; 216  : }

	ret	0
?AuPS2MouseSetPos@@YAXHH@Z ENDP				; AuPS2MouseSetPos
_TEXT	ENDS
; Function compile flags: /Odtpy
; File e:\xeneva project\aurora\kernel\drivers\mouse.cpp
_TEXT	SEGMENT
status$ = 32
?AuPS2MouseInitialise@@YAXXZ PROC			; AuPS2MouseInitialise

; 221  : void AuPS2MouseInitialise() {

$LN3:
	sub	rsp, 56					; 00000038H

; 222  : 	__ps2mouse = (PS2Mouse*)kmalloc(sizeof(PS2Mouse));

	mov	ecx, 35					; 00000023H
	call	kmalloc
	mov	QWORD PTR ?__ps2mouse@@3PEAU__ps2mouse__@@EA, rax ; __ps2mouse

; 223  : 	memset(__ps2mouse, 0, sizeof(PS2Mouse));

	mov	r8d, 35					; 00000023H
	xor	edx, edx
	mov	rcx, QWORD PTR ?__ps2mouse@@3PEAU__ps2mouse__@@EA ; __ps2mouse
	call	memset

; 224  : 
; 225  : 	uint8_t status;
; 226  : 
; 227  : 	PS2MouseWaitInput();

	call	?PS2MouseWaitInput@@YAXXZ		; PS2MouseWaitInput

; 228  : 	x64_outportb(0x64, 0xA8);

	mov	dl, 168					; 000000a8H
	mov	cx, 100					; 00000064H
	call	x64_outportb

; 229  : 
; 230  : 	PS2MouseWaitInput();

	call	?PS2MouseWaitInput@@YAXXZ		; PS2MouseWaitInput

; 231  : 	x64_outportb(0x64, 0x20);

	mov	dl, 32					; 00000020H
	mov	cx, 100					; 00000064H
	call	x64_outportb

; 232  : 
; 233  : 	PS2MouseWaitInput();

	call	?PS2MouseWaitInput@@YAXXZ		; PS2MouseWaitInput

; 234  : 	status = (x64_inportb(0x60) | 2);

	mov	cx, 96					; 00000060H
	call	x64_inportb
	movzx	eax, al
	or	eax, 2
	mov	BYTE PTR status$[rsp], al

; 235  : 
; 236  : 	PS2MouseWaitInput();

	call	?PS2MouseWaitInput@@YAXXZ		; PS2MouseWaitInput

; 237  : 	x64_outportb(0x64, 0x60);

	mov	dl, 96					; 00000060H
	mov	cx, 100					; 00000064H
	call	x64_outportb

; 238  : 
; 239  : 	PS2MouseWaitInput();

	call	?PS2MouseWaitInput@@YAXXZ		; PS2MouseWaitInput

; 240  : 	x64_outportb(0x60, status);

	movzx	edx, BYTE PTR status$[rsp]
	mov	cx, 96					; 00000060H
	call	x64_outportb

; 241  : 
; 242  : 	AuPS2MouseWrite(0xF6);

	mov	cl, 246					; 000000f6H
	call	?AuPS2MouseWrite@@YAEE@Z		; AuPS2MouseWrite

; 243  : 	AuPS2MouseRead();

	call	?AuPS2MouseRead@@YAEXZ			; AuPS2MouseRead

; 244  : 
; 245  : 	AuPS2MouseWrite(0xF4);

	mov	cl, 244					; 000000f4H
	call	?AuPS2MouseWrite@@YAEE@Z		; AuPS2MouseWrite

; 246  : 	AuPS2MouseRead();

	call	?AuPS2MouseRead@@YAEXZ			; AuPS2MouseRead

; 247  : 
; 248  : 	/* Enable the scroll wheel */
; 249  : 	AuPS2MouseWrite(MOUSE_DEVICE_ID);

	mov	cl, 242					; 000000f2H
	call	?AuPS2MouseWrite@@YAEE@Z		; AuPS2MouseWrite

; 250  : 	status = AuPS2MouseRead();

	call	?AuPS2MouseRead@@YAEXZ			; AuPS2MouseRead
	mov	BYTE PTR status$[rsp], al

; 251  : 	AuPS2MouseWrite(MOUSE_SAMPLE_RATE);

	mov	cl, 243					; 000000f3H
	call	?AuPS2MouseWrite@@YAEE@Z		; AuPS2MouseWrite

; 252  : 	AuPS2MouseWrite(200);

	mov	cl, 200					; 000000c8H
	call	?AuPS2MouseWrite@@YAEE@Z		; AuPS2MouseWrite

; 253  : 	AuPS2MouseWrite(MOUSE_SAMPLE_RATE);

	mov	cl, 243					; 000000f3H
	call	?AuPS2MouseWrite@@YAEE@Z		; AuPS2MouseWrite

; 254  : 	AuPS2MouseWrite(100);

	mov	cl, 100					; 00000064H
	call	?AuPS2MouseWrite@@YAEE@Z		; AuPS2MouseWrite

; 255  : 	AuPS2MouseWrite(MOUSE_SAMPLE_RATE);

	mov	cl, 243					; 000000f3H
	call	?AuPS2MouseWrite@@YAEE@Z		; AuPS2MouseWrite

; 256  : 	AuPS2MouseWrite(80);

	mov	cl, 80					; 00000050H
	call	?AuPS2MouseWrite@@YAEE@Z		; AuPS2MouseWrite

; 257  : 	AuPS2MouseWrite(MOUSE_DEVICE_ID);

	mov	cl, 242					; 000000f2H
	call	?AuPS2MouseWrite@@YAEE@Z		; AuPS2MouseWrite

; 258  : 	status = AuPS2MouseRead();

	call	?AuPS2MouseRead@@YAEXZ			; AuPS2MouseRead
	mov	BYTE PTR status$[rsp], al

; 259  : 	
; 260  : 	__ps2mouse->mouse_x = 0;

	mov	rax, QWORD PTR ?__ps2mouse@@3PEAU__ps2mouse__@@EA ; __ps2mouse
	mov	DWORD PTR [rax+5], 0

; 261  : 	__ps2mouse->mouse_y = 0;

	mov	rax, QWORD PTR ?__ps2mouse@@3PEAU__ps2mouse__@@EA ; __ps2mouse
	mov	DWORD PTR [rax+9], 0

; 262  : 
; 263  : 	AuHalRegisterIRQ(34, PS2MouseHandler, 12, false);  //34

	xor	r9d, r9d
	mov	r8b, 12
	lea	rdx, OFFSET FLAT:?PS2MouseHandler@@YAX_KPEAX@Z ; PS2MouseHandler
	mov	ecx, 34					; 00000022H
	call	AuHalRegisterIRQ

; 264  : }

	add	rsp, 56					; 00000038H
	ret	0
?AuPS2MouseInitialise@@YAXXZ ENDP			; AuPS2MouseInitialise
_TEXT	ENDS
END
