; Listing generated by Microsoft (R) Optimizing Compiler Version 18.00.21005.1 

include listing.inc

INCLUDELIB LIBCMT
INCLUDELIB OLDNAMES

PUBLIC	?NetSend@@YAHHPEAU_msghdr_@@H@Z			; NetSend
PUBLIC	?NetReceive@@YAHHPEAU_msghdr_@@H@Z		; NetReceive
PUBLIC	?NetConnect@@YAHHPEAU_sockaddr_@@_K@Z		; NetConnect
PUBLIC	?NetBind@@YAHHPEAU_sockaddr_@@_K@Z		; NetBind
PUBLIC	?NetAccept@@YAHHPEAU_sockaddr_@@PEA_K@Z		; NetAccept
PUBLIC	?NetListen@@YAHHH@Z				; NetListen
EXTRN	AuGetCurrentThread:PROC
EXTRN	?AuProcessFindThread@@YAPEAU_au_proc_@@PEAU_au_thread_@@@Z:PROC ; AuProcessFindThread
EXTRN	?AuProcessFindSubThread@@YAPEAU_au_proc_@@PEAU_au_thread_@@@Z:PROC ; AuProcessFindSubThread
EXTRN	x64_cli:PROC
pdata	SEGMENT
$pdata$?NetSend@@YAHHPEAU_msghdr_@@H@Z DD imagerel $LN9
	DD	imagerel $LN9+221
	DD	imagerel $unwind$?NetSend@@YAHHPEAU_msghdr_@@H@Z
$pdata$?NetReceive@@YAHHPEAU_msghdr_@@H@Z DD imagerel $LN9
	DD	imagerel $LN9+221
	DD	imagerel $unwind$?NetReceive@@YAHHPEAU_msghdr_@@H@Z
$pdata$?NetConnect@@YAHHPEAU_sockaddr_@@_K@Z DD imagerel $LN7
	DD	imagerel $LN7+171
	DD	imagerel $unwind$?NetConnect@@YAHHPEAU_sockaddr_@@_K@Z
$pdata$?NetBind@@YAHHPEAU_sockaddr_@@_K@Z DD imagerel $LN7
	DD	imagerel $LN7+171
	DD	imagerel $unwind$?NetBind@@YAHHPEAU_sockaddr_@@_K@Z
pdata	ENDS
xdata	SEGMENT
$unwind$?NetSend@@YAHHPEAU_msghdr_@@H@Z DD 011201H
	DD	08212H
$unwind$?NetReceive@@YAHHPEAU_msghdr_@@H@Z DD 011201H
	DD	08212H
$unwind$?NetConnect@@YAHHPEAU_sockaddr_@@_K@Z DD 011201H
	DD	08212H
$unwind$?NetBind@@YAHHPEAU_sockaddr_@@_K@Z DD 011201H
	DD	08212H
xdata	ENDS
; Function compile flags: /Odtpy
; File e:\xeneva project\aurora\kernel\serv\netserv.cpp
_TEXT	SEGMENT
sockfd$ = 8
backlog$ = 16
?NetListen@@YAHHH@Z PROC				; NetListen

; 120  : int NetListen(int sockfd, int backlog){

	mov	DWORD PTR [rsp+16], edx
	mov	DWORD PTR [rsp+8], ecx

; 121  : 	return 0;

	xor	eax, eax

; 122  : }

	ret	0
?NetListen@@YAHHH@Z ENDP				; NetListen
_TEXT	ENDS
; Function compile flags: /Odtpy
; File e:\xeneva project\aurora\kernel\serv\netserv.cpp
_TEXT	SEGMENT
sockfd$ = 8
addr$ = 16
addrlen$ = 24
?NetAccept@@YAHHPEAU_sockaddr_@@PEA_K@Z PROC		; NetAccept

; 116  : int NetAccept(int sockfd, sockaddr *addr, socklen_t * addrlen){

	mov	QWORD PTR [rsp+24], r8
	mov	QWORD PTR [rsp+16], rdx
	mov	DWORD PTR [rsp+8], ecx

; 117  : 	return 0;

	xor	eax, eax

; 118  : }

	ret	0
?NetAccept@@YAHHPEAU_sockaddr_@@PEA_K@Z ENDP		; NetAccept
_TEXT	ENDS
; Function compile flags: /Odtpy
; File e:\xeneva project\aurora\kernel\serv\netserv.cpp
_TEXT	SEGMENT
proc$ = 32
thr$ = 40
sock$ = 48
sockfd$ = 80
addr$ = 88
addrlen$ = 96
?NetBind@@YAHHPEAU_sockaddr_@@_K@Z PROC			; NetBind

; 98   : int NetBind(int sockfd, sockaddr *addr, socklen_t addrlen){

$LN7:
	mov	QWORD PTR [rsp+24], r8
	mov	QWORD PTR [rsp+16], rdx
	mov	DWORD PTR [rsp+8], ecx
	sub	rsp, 72					; 00000048H

; 99   : 	x64_cli();

	call	x64_cli

; 100  : 	AuThread* thr = AuGetCurrentThread();

	call	AuGetCurrentThread
	mov	QWORD PTR thr$[rsp], rax

; 101  : 	if (!thr)

	cmp	QWORD PTR thr$[rsp], 0
	jne	SHORT $LN4@NetBind

; 102  : 		return 1;

	mov	eax, 1
	jmp	SHORT $LN5@NetBind
$LN4@NetBind:

; 103  : 	AuProcess *proc = AuProcessFindThread(thr);

	mov	rcx, QWORD PTR thr$[rsp]
	call	?AuProcessFindThread@@YAPEAU_au_proc_@@PEAU_au_thread_@@@Z ; AuProcessFindThread
	mov	QWORD PTR proc$[rsp], rax

; 104  : 	if (!proc){

	cmp	QWORD PTR proc$[rsp], 0
	jne	SHORT $LN3@NetBind

; 105  : 		proc = AuProcessFindSubThread(thr);

	mov	rcx, QWORD PTR thr$[rsp]
	call	?AuProcessFindSubThread@@YAPEAU_au_proc_@@PEAU_au_thread_@@@Z ; AuProcessFindSubThread
	mov	QWORD PTR proc$[rsp], rax

; 106  : 		if (!proc)

	cmp	QWORD PTR proc$[rsp], 0
	jne	SHORT $LN2@NetBind

; 107  : 			return 1;

	mov	eax, 1
	jmp	SHORT $LN5@NetBind
$LN2@NetBind:
$LN3@NetBind:

; 108  : 	}
; 109  : 
; 110  : 	AuSocket* sock = (AuSocket*)proc->fds[sockfd];

	movsxd	rax, DWORD PTR sockfd$[rsp]
	mov	rcx, QWORD PTR proc$[rsp]
	mov	rax, QWORD PTR [rcx+rax*8+567]
	mov	QWORD PTR sock$[rsp], rax

; 111  : 	if (sock->bind)

	mov	rax, QWORD PTR sock$[rsp]
	cmp	QWORD PTR [rax+48], 0
	je	SHORT $LN1@NetBind

; 112  : 		return sock->bind(sock, addr, addrlen);

	mov	r8, QWORD PTR addrlen$[rsp]
	mov	rdx, QWORD PTR addr$[rsp]
	mov	rcx, QWORD PTR sock$[rsp]
	mov	rax, QWORD PTR sock$[rsp]
	call	QWORD PTR [rax+48]
	jmp	SHORT $LN5@NetBind
$LN1@NetBind:

; 113  : 	return 1;

	mov	eax, 1
$LN5@NetBind:

; 114  : }

	add	rsp, 72					; 00000048H
	ret	0
?NetBind@@YAHHPEAU_sockaddr_@@_K@Z ENDP			; NetBind
_TEXT	ENDS
; Function compile flags: /Odtpy
; File e:\xeneva project\aurora\kernel\serv\netserv.cpp
_TEXT	SEGMENT
proc$ = 32
thr$ = 40
sock$ = 48
sockfd$ = 80
addr$ = 88
addrlen$ = 96
?NetConnect@@YAHHPEAU_sockaddr_@@_K@Z PROC		; NetConnect

; 80   : int NetConnect(int sockfd, sockaddr* addr, socklen_t addrlen) {

$LN7:
	mov	QWORD PTR [rsp+24], r8
	mov	QWORD PTR [rsp+16], rdx
	mov	DWORD PTR [rsp+8], ecx
	sub	rsp, 72					; 00000048H

; 81   : 	x64_cli();

	call	x64_cli

; 82   : 	AuThread* thr = AuGetCurrentThread();

	call	AuGetCurrentThread
	mov	QWORD PTR thr$[rsp], rax

; 83   : 	if (!thr)

	cmp	QWORD PTR thr$[rsp], 0
	jne	SHORT $LN4@NetConnect

; 84   : 		return 1;

	mov	eax, 1
	jmp	SHORT $LN5@NetConnect
$LN4@NetConnect:

; 85   : 	AuProcess *proc = AuProcessFindThread(thr);

	mov	rcx, QWORD PTR thr$[rsp]
	call	?AuProcessFindThread@@YAPEAU_au_proc_@@PEAU_au_thread_@@@Z ; AuProcessFindThread
	mov	QWORD PTR proc$[rsp], rax

; 86   : 	if (!proc){

	cmp	QWORD PTR proc$[rsp], 0
	jne	SHORT $LN3@NetConnect

; 87   : 		proc = AuProcessFindSubThread(thr);

	mov	rcx, QWORD PTR thr$[rsp]
	call	?AuProcessFindSubThread@@YAPEAU_au_proc_@@PEAU_au_thread_@@@Z ; AuProcessFindSubThread
	mov	QWORD PTR proc$[rsp], rax

; 88   : 		if (!proc)

	cmp	QWORD PTR proc$[rsp], 0
	jne	SHORT $LN2@NetConnect

; 89   : 			return 1;

	mov	eax, 1
	jmp	SHORT $LN5@NetConnect
$LN2@NetConnect:
$LN3@NetConnect:

; 90   : 	}
; 91   : 
; 92   : 	AuSocket* sock = (AuSocket*)proc->fds[sockfd];

	movsxd	rax, DWORD PTR sockfd$[rsp]
	mov	rcx, QWORD PTR proc$[rsp]
	mov	rax, QWORD PTR [rcx+rax*8+567]
	mov	QWORD PTR sock$[rsp], rax

; 93   : 	if (sock->connect)

	mov	rax, QWORD PTR sock$[rsp]
	cmp	QWORD PTR [rax+40], 0
	je	SHORT $LN1@NetConnect

; 94   : 		return sock->connect(sock, addr, addrlen);

	mov	r8, QWORD PTR addrlen$[rsp]
	mov	rdx, QWORD PTR addr$[rsp]
	mov	rcx, QWORD PTR sock$[rsp]
	mov	rax, QWORD PTR sock$[rsp]
	call	QWORD PTR [rax+40]
	jmp	SHORT $LN5@NetConnect
$LN1@NetConnect:

; 95   : 	return 1;

	mov	eax, 1
$LN5@NetConnect:

; 96   : }

	add	rsp, 72					; 00000048H
	ret	0
?NetConnect@@YAHHPEAU_sockaddr_@@_K@Z ENDP		; NetConnect
_TEXT	ENDS
; Function compile flags: /Odtpy
; File e:\xeneva project\aurora\kernel\serv\netserv.cpp
_TEXT	SEGMENT
proc$ = 32
sock$ = 40
thr$ = 48
node$ = 56
sockfd$ = 80
msg$ = 88
flags$ = 96
?NetReceive@@YAHHPEAU_msghdr_@@H@Z PROC			; NetReceive

; 58   : int NetReceive(int sockfd, msghdr *msg, int flags){

$LN9:
	mov	DWORD PTR [rsp+24], r8d
	mov	QWORD PTR [rsp+16], rdx
	mov	DWORD PTR [rsp+8], ecx
	sub	rsp, 72					; 00000048H

; 59   : 	x64_cli();

	call	x64_cli

; 60   : 	if (!msg)

	cmp	QWORD PTR msg$[rsp], 0
	jne	SHORT $LN6@NetReceive

; 61   : 		return 1;

	mov	eax, 1
	jmp	$LN7@NetReceive
$LN6@NetReceive:

; 62   : 	AuThread *thr = AuGetCurrentThread();

	call	AuGetCurrentThread
	mov	QWORD PTR thr$[rsp], rax

; 63   : 	if (!thr)

	cmp	QWORD PTR thr$[rsp], 0
	jne	SHORT $LN5@NetReceive

; 64   : 		return 1;

	mov	eax, 1
	jmp	$LN7@NetReceive
$LN5@NetReceive:

; 65   : 	AuProcess *proc = AuProcessFindThread(thr);

	mov	rcx, QWORD PTR thr$[rsp]
	call	?AuProcessFindThread@@YAPEAU_au_proc_@@PEAU_au_thread_@@@Z ; AuProcessFindThread
	mov	QWORD PTR proc$[rsp], rax

; 66   : 	if (!proc){

	cmp	QWORD PTR proc$[rsp], 0
	jne	SHORT $LN4@NetReceive

; 67   : 		proc = AuProcessFindSubThread(thr);

	mov	rcx, QWORD PTR thr$[rsp]
	call	?AuProcessFindSubThread@@YAPEAU_au_proc_@@PEAU_au_thread_@@@Z ; AuProcessFindSubThread
	mov	QWORD PTR proc$[rsp], rax

; 68   : 		if (!proc)

	cmp	QWORD PTR proc$[rsp], 0
	jne	SHORT $LN3@NetReceive

; 69   : 			return 1;

	mov	eax, 1
	jmp	SHORT $LN7@NetReceive
$LN3@NetReceive:
$LN4@NetReceive:

; 70   : 	}
; 71   : 	AuVFSNode* node = proc->fds[sockfd];

	movsxd	rax, DWORD PTR sockfd$[rsp]
	mov	rcx, QWORD PTR proc$[rsp]
	mov	rax, QWORD PTR [rcx+rax*8+567]
	mov	QWORD PTR node$[rsp], rax

; 72   : 	AuSocket* sock = (AuSocket*)node->device;

	mov	rax, QWORD PTR node$[rsp]
	mov	rax, QWORD PTR [rax+64]
	mov	QWORD PTR sock$[rsp], rax

; 73   : 	if (!sock)

	cmp	QWORD PTR sock$[rsp], 0
	jne	SHORT $LN2@NetReceive

; 74   : 		return -1;

	mov	eax, -1
	jmp	SHORT $LN7@NetReceive
$LN2@NetReceive:

; 75   : 	if (sock->receive)

	mov	rax, QWORD PTR sock$[rsp]
	cmp	QWORD PTR [rax+16], 0
	je	SHORT $LN1@NetReceive

; 76   : 		return sock->receive(sock, msg, flags);

	mov	r8d, DWORD PTR flags$[rsp]
	mov	rdx, QWORD PTR msg$[rsp]
	mov	rcx, QWORD PTR sock$[rsp]
	mov	rax, QWORD PTR sock$[rsp]
	call	QWORD PTR [rax+16]
	jmp	SHORT $LN7@NetReceive
$LN1@NetReceive:

; 77   : 	return 1;

	mov	eax, 1
$LN7@NetReceive:

; 78   : }

	add	rsp, 72					; 00000048H
	ret	0
?NetReceive@@YAHHPEAU_msghdr_@@H@Z ENDP			; NetReceive
_TEXT	ENDS
; Function compile flags: /Odtpy
; File e:\xeneva project\aurora\kernel\serv\netserv.cpp
_TEXT	SEGMENT
proc$ = 32
sock$ = 40
thr$ = 48
node$ = 56
sockfd$ = 80
msg$ = 88
flags$ = 96
?NetSend@@YAHHPEAU_msghdr_@@H@Z PROC			; NetSend

; 36   : int NetSend(int sockfd, msghdr* msg, int flags) {

$LN9:
	mov	DWORD PTR [rsp+24], r8d
	mov	QWORD PTR [rsp+16], rdx
	mov	DWORD PTR [rsp+8], ecx
	sub	rsp, 72					; 00000048H

; 37   : 	x64_cli();

	call	x64_cli

; 38   : 	if (!msg)

	cmp	QWORD PTR msg$[rsp], 0
	jne	SHORT $LN6@NetSend

; 39   : 		return 1;

	mov	eax, 1
	jmp	$LN7@NetSend
$LN6@NetSend:

; 40   : 	AuThread *thr = AuGetCurrentThread();

	call	AuGetCurrentThread
	mov	QWORD PTR thr$[rsp], rax

; 41   : 	if (!thr)

	cmp	QWORD PTR thr$[rsp], 0
	jne	SHORT $LN5@NetSend

; 42   : 		return 1;

	mov	eax, 1
	jmp	$LN7@NetSend
$LN5@NetSend:

; 43   : 	AuProcess *proc = AuProcessFindThread(thr);

	mov	rcx, QWORD PTR thr$[rsp]
	call	?AuProcessFindThread@@YAPEAU_au_proc_@@PEAU_au_thread_@@@Z ; AuProcessFindThread
	mov	QWORD PTR proc$[rsp], rax

; 44   : 	if (!proc){

	cmp	QWORD PTR proc$[rsp], 0
	jne	SHORT $LN4@NetSend

; 45   : 		proc = AuProcessFindSubThread(thr);

	mov	rcx, QWORD PTR thr$[rsp]
	call	?AuProcessFindSubThread@@YAPEAU_au_proc_@@PEAU_au_thread_@@@Z ; AuProcessFindSubThread
	mov	QWORD PTR proc$[rsp], rax

; 46   : 		if (!proc)

	cmp	QWORD PTR proc$[rsp], 0
	jne	SHORT $LN3@NetSend

; 47   : 			return 1;

	mov	eax, 1
	jmp	SHORT $LN7@NetSend
$LN3@NetSend:
$LN4@NetSend:

; 48   : 	}
; 49   : 	AuVFSNode* node = proc->fds[sockfd];

	movsxd	rax, DWORD PTR sockfd$[rsp]
	mov	rcx, QWORD PTR proc$[rsp]
	mov	rax, QWORD PTR [rcx+rax*8+567]
	mov	QWORD PTR node$[rsp], rax

; 50   : 	AuSocket* sock = (AuSocket*)node->device;

	mov	rax, QWORD PTR node$[rsp]
	mov	rax, QWORD PTR [rax+64]
	mov	QWORD PTR sock$[rsp], rax

; 51   : 	if (!sock)

	cmp	QWORD PTR sock$[rsp], 0
	jne	SHORT $LN2@NetSend

; 52   : 		return -1;

	mov	eax, -1
	jmp	SHORT $LN7@NetSend
$LN2@NetSend:

; 53   : 	if (sock->send)

	mov	rax, QWORD PTR sock$[rsp]
	cmp	QWORD PTR [rax+24], 0
	je	SHORT $LN1@NetSend

; 54   : 		return sock->send(sock, msg, flags);

	mov	r8d, DWORD PTR flags$[rsp]
	mov	rdx, QWORD PTR msg$[rsp]
	mov	rcx, QWORD PTR sock$[rsp]
	mov	rax, QWORD PTR sock$[rsp]
	call	QWORD PTR [rax+24]
	jmp	SHORT $LN7@NetSend
$LN1@NetSend:

; 55   : 	return 1;

	mov	eax, 1
$LN7@NetSend:

; 56   : }

	add	rsp, 72					; 00000048H
	ret	0
?NetSend@@YAHHPEAU_msghdr_@@H@Z ENDP			; NetSend
_TEXT	ENDS
END
