; Listing generated by Microsoft (R) Optimizing Compiler Version 18.00.21005.1 

include listing.inc

INCLUDELIB LIBCMT
INCLUDELIB OLDNAMES

PUBLIC	?raw_socket_list@@3PEAU_list_@@EA		; raw_socket_list
_BSS	SEGMENT
?raw_socket_list@@3PEAU_list_@@EA DQ 01H DUP (?)	; raw_socket_list
_BSS	ENDS
CONST	SEGMENT
$SG3772	DB	'Device binding ->%s ', 0dH, 0aH, 00H
	ORG $+1
$SG3776	DB	'Device binded ', 0dH, 0aH, 00H
CONST	ENDS
PUBLIC	?AuSocketAdd@@YAXPEAU_socket_@@PEAX_K@Z		; AuSocketAdd
PUBLIC	?AuSocketInstall@@YAXXZ				; AuSocketInstall
PUBLIC	?AuCreateSocket@@YAHHHH@Z			; AuCreateSocket
PUBLIC	?AuSocketSetOpt@@YAHHHHPEBX_K@Z			; AuSocketSetOpt
PUBLIC	?AuRawSocketGetList@@YAPEAU_list_@@XZ		; AuRawSocketGetList
PUBLIC	?AuSocketGet@@YAPEAXPEAU_socket_@@@Z		; AuSocketGet
PUBLIC	?AuRawSocketReceive@@YAHPEAU_socket_@@PEAU_msghdr_@@H@Z ; AuRawSocketReceive
PUBLIC	?AuRawSocketSend@@YAHPEAU_socket_@@PEAU_msghdr_@@H@Z ; AuRawSocketSend
PUBLIC	?AuSocketSOSocket@@YAHPEAU_socket_@@HPEBX_K@Z	; AuSocketSOSocket
PUBLIC	?AuNetCreateSocket@@YAPEAU_socket_@@XZ		; AuNetCreateSocket
PUBLIC	?AuCreateRawSocket@@YAHHH@Z			; AuCreateRawSocket
EXTRN	initialize_list:PROC
EXTRN	list_add:PROC
EXTRN	AuStackCreate:PROC
EXTRN	AuStackPush:PROC
EXTRN	AuStackPop:PROC
EXTRN	?CreateIPv4Socket@@YAHHH@Z:PROC			; CreateIPv4Socket
EXTRN	AuGetCurrentThread:PROC
EXTRN	?AuProcessFindThread@@YAPEAU_au_proc_@@PEAU_au_thread_@@@Z:PROC ; AuProcessFindThread
EXTRN	?AuProcessFindSubThread@@YAPEAU_au_proc_@@PEAU_au_thread_@@@Z:PROC ; AuProcessFindSubThread
EXTRN	?AuProcessGetFileDesc@@YAHPEAU_au_proc_@@@Z:PROC ; AuProcessGetFileDesc
EXTRN	x64_cli:PROC
EXTRN	kmalloc:PROC
EXTRN	kfree:PROC
EXTRN	memset:PROC
EXTRN	memcpy:PROC
EXTRN	AuGetNetworkAdapter:PROC
EXTRN	SeTextOut:PROC
pdata	SEGMENT
$pdata$?AuSocketAdd@@YAXPEAU_socket_@@PEAX_K@Z DD imagerel $LN3
	DD	imagerel $LN3+128
	DD	imagerel $unwind$?AuSocketAdd@@YAXPEAU_socket_@@PEAX_K@Z
$pdata$?AuSocketInstall@@YAXXZ DD imagerel $LN3
	DD	imagerel $LN3+21
	DD	imagerel $unwind$?AuSocketInstall@@YAXXZ
$pdata$?AuCreateSocket@@YAHHHH@Z DD imagerel $LN8
	DD	imagerel $LN8+86
	DD	imagerel $unwind$?AuCreateSocket@@YAHHHH@Z
$pdata$?AuSocketSetOpt@@YAHHHHPEBX_K@Z DD imagerel $LN9
	DD	imagerel $LN9+190
	DD	imagerel $unwind$?AuSocketSetOpt@@YAHHHHPEBX_K@Z
$pdata$?AuSocketGet@@YAPEAXPEAU_socket_@@@Z DD imagerel $LN3
	DD	imagerel $LN3+38
	DD	imagerel $unwind$?AuSocketGet@@YAPEAXPEAU_socket_@@@Z
$pdata$?AuRawSocketReceive@@YAHPEAU_socket_@@PEAU_msghdr_@@H@Z DD imagerel $LN7
	DD	imagerel $LN7+212
	DD	imagerel $unwind$?AuRawSocketReceive@@YAHPEAU_socket_@@PEAU_msghdr_@@H@Z
$pdata$?AuRawSocketSend@@YAHPEAU_socket_@@PEAU_msghdr_@@H@Z DD imagerel $LN5
	DD	imagerel $LN5+136
	DD	imagerel $unwind$?AuRawSocketSend@@YAHPEAU_socket_@@PEAU_msghdr_@@H@Z
$pdata$?AuSocketSOSocket@@YAHPEAU_socket_@@HPEBX_K@Z DD imagerel $LN7
	DD	imagerel $LN7+126
	DD	imagerel $unwind$?AuSocketSOSocket@@YAHPEAU_socket_@@HPEBX_K@Z
$pdata$?AuNetCreateSocket@@YAPEAU_socket_@@XZ DD imagerel $LN3
	DD	imagerel $LN3+61
	DD	imagerel $unwind$?AuNetCreateSocket@@YAPEAU_socket_@@XZ
$pdata$?AuCreateRawSocket@@YAHHH@Z DD imagerel $LN6
	DD	imagerel $LN6+266
	DD	imagerel $unwind$?AuCreateRawSocket@@YAHHH@Z
pdata	ENDS
xdata	SEGMENT
$unwind$?AuSocketAdd@@YAXPEAU_socket_@@PEAX_K@Z DD 011301H
	DD	06213H
$unwind$?AuSocketInstall@@YAXXZ DD 010401H
	DD	04204H
$unwind$?AuCreateSocket@@YAHHHH@Z DD 011101H
	DD	06211H
$unwind$?AuSocketSetOpt@@YAHHHHPEBX_K@Z DD 011601H
	DD	0a216H
$unwind$?AuSocketGet@@YAPEAXPEAU_socket_@@@Z DD 010901H
	DD	06209H
$unwind$?AuRawSocketReceive@@YAHPEAU_socket_@@PEAU_msghdr_@@H@Z DD 011301H
	DD	08213H
$unwind$?AuRawSocketSend@@YAHPEAU_socket_@@PEAU_msghdr_@@H@Z DD 011301H
	DD	06213H
$unwind$?AuSocketSOSocket@@YAHPEAU_socket_@@HPEBX_K@Z DD 011701H
	DD	06217H
$unwind$?AuNetCreateSocket@@YAPEAU_socket_@@XZ DD 010401H
	DD	06204H
$unwind$?AuCreateRawSocket@@YAHHH@Z DD 010c01H
	DD	0a20cH
xdata	ENDS
; Function compile flags: /Odtpy
; File e:\xeneva project\aurora\kernel\net\socket.cpp
_TEXT	SEGMENT
fd$ = 32
proc$ = 40
sock$ = 48
node$ = 56
curr_thr$ = 64
type$ = 96
protocol$ = 104
?AuCreateRawSocket@@YAHHH@Z PROC			; AuCreateRawSocket

; 130  : int AuCreateRawSocket(int type, int protocol){

$LN6:
	mov	DWORD PTR [rsp+16], edx
	mov	DWORD PTR [rsp+8], ecx
	sub	rsp, 88					; 00000058H

; 131  : 	x64_cli();

	call	x64_cli

; 132  : 	if (type != SOCK_RAW)return -1;

	cmp	DWORD PTR type$[rsp], 3
	je	SHORT $LN3@AuCreateRa
	mov	eax, -1
	jmp	$LN4@AuCreateRa
$LN3@AuCreateRa:

; 133  : 	AuThread* curr_thr = AuGetCurrentThread();

	call	AuGetCurrentThread
	mov	QWORD PTR curr_thr$[rsp], rax

; 134  : 	AuProcess *proc = AuProcessFindThread(curr_thr);

	mov	rcx, QWORD PTR curr_thr$[rsp]
	call	?AuProcessFindThread@@YAPEAU_au_proc_@@PEAU_au_thread_@@@Z ; AuProcessFindThread
	mov	QWORD PTR proc$[rsp], rax

; 135  : 	if (!proc){

	cmp	QWORD PTR proc$[rsp], 0
	jne	SHORT $LN2@AuCreateRa

; 136  : 		proc = AuProcessFindSubThread(curr_thr);

	mov	rcx, QWORD PTR curr_thr$[rsp]
	call	?AuProcessFindSubThread@@YAPEAU_au_proc_@@PEAU_au_thread_@@@Z ; AuProcessFindSubThread
	mov	QWORD PTR proc$[rsp], rax

; 137  : 		if (!proc)

	cmp	QWORD PTR proc$[rsp], 0
	jne	SHORT $LN1@AuCreateRa

; 138  : 			return 1;

	mov	eax, 1
	jmp	$LN4@AuCreateRa
$LN1@AuCreateRa:
$LN2@AuCreateRa:

; 139  : 	}
; 140  : 	AuSocket* sock = AuNetCreateSocket();

	call	?AuNetCreateSocket@@YAPEAU_socket_@@XZ	; AuNetCreateSocket
	mov	QWORD PTR sock$[rsp], rax

; 141  : 	sock->receive = AuRawSocketReceive;

	mov	rax, QWORD PTR sock$[rsp]
	lea	rcx, OFFSET FLAT:?AuRawSocketReceive@@YAHPEAU_socket_@@PEAU_msghdr_@@H@Z ; AuRawSocketReceive
	mov	QWORD PTR [rax+16], rcx

; 142  : 	sock->send = AuRawSocketSend;

	mov	rax, QWORD PTR sock$[rsp]
	lea	rcx, OFFSET FLAT:?AuRawSocketSend@@YAHPEAU_socket_@@PEAU_msghdr_@@H@Z ; AuRawSocketSend
	mov	QWORD PTR [rax+24], rcx

; 143  : 	int fd = AuProcessGetFileDesc(proc);

	mov	rcx, QWORD PTR proc$[rsp]
	call	?AuProcessGetFileDesc@@YAHPEAU_au_proc_@@@Z ; AuProcessGetFileDesc
	mov	DWORD PTR fd$[rsp], eax

; 144  : 	list_add(raw_socket_list, sock);

	mov	rdx, QWORD PTR sock$[rsp]
	mov	rcx, QWORD PTR ?raw_socket_list@@3PEAU_list_@@EA ; raw_socket_list
	call	list_add

; 145  : 	AuVFSNode* node = (AuVFSNode*)kmalloc(sizeof(AuVFSNode));

	mov	ecx, 178				; 000000b2H
	call	kmalloc
	mov	QWORD PTR node$[rsp], rax

; 146  : 	memset(node, 0, sizeof(AuVFSNode));

	mov	r8d, 178				; 000000b2H
	xor	edx, edx
	mov	rcx, QWORD PTR node$[rsp]
	call	memset

; 147  : 	node->flags = FS_FLAG_SOCKET;

	mov	eax, 512				; 00000200H
	mov	rcx, QWORD PTR node$[rsp]
	mov	WORD PTR [rcx+61], ax

; 148  : 	node->device = sock;

	mov	rax, QWORD PTR node$[rsp]
	mov	rcx, QWORD PTR sock$[rsp]
	mov	QWORD PTR [rax+64], rcx

; 149  : 	proc->fds[fd] = node;

	movsxd	rax, DWORD PTR fd$[rsp]
	mov	rcx, QWORD PTR proc$[rsp]
	mov	rdx, QWORD PTR node$[rsp]
	mov	QWORD PTR [rcx+rax*8+567], rdx

; 150  : 	return fd;

	mov	eax, DWORD PTR fd$[rsp]
$LN4@AuCreateRa:

; 151  : }

	add	rsp, 88					; 00000058H
	ret	0
?AuCreateRawSocket@@YAHHH@Z ENDP			; AuCreateRawSocket
_TEXT	ENDS
; Function compile flags: /Odtpy
; File e:\xeneva project\aurora\kernel\net\socket.cpp
_TEXT	SEGMENT
sock$ = 32
?AuNetCreateSocket@@YAPEAU_socket_@@XZ PROC		; AuNetCreateSocket

; 117  : AuSocket* AuNetCreateSocket() {

$LN3:
	sub	rsp, 56					; 00000038H

; 118  : 	AuSocket* sock = (AuSocket*)kmalloc(sizeof(AuSocket));

	mov	ecx, 56					; 00000038H
	call	kmalloc
	mov	QWORD PTR sock$[rsp], rax

; 119  : 	memset(sock, 0, sizeof(AuSocket));

	mov	r8d, 56					; 00000038H
	xor	edx, edx
	mov	rcx, QWORD PTR sock$[rsp]
	call	memset

; 120  : 	sock->rxstack = AuStackCreate();

	call	AuStackCreate
	mov	rcx, QWORD PTR sock$[rsp]
	mov	QWORD PTR [rcx+8], rax

; 121  : 	return sock;

	mov	rax, QWORD PTR sock$[rsp]

; 122  : }

	add	rsp, 56					; 00000038H
	ret	0
?AuNetCreateSocket@@YAPEAU_socket_@@XZ ENDP		; AuNetCreateSocket
_TEXT	ENDS
; Function compile flags: /Odtpy
; File e:\xeneva project\aurora\kernel\net\socket.cpp
_TEXT	SEGMENT
tv64 = 32
nic$1 = 40
sock$ = 64
optname$ = 72
optval$ = 80
optlen$ = 88
?AuSocketSOSocket@@YAHPEAU_socket_@@HPEBX_K@Z PROC	; AuSocketSOSocket

; 83   : int AuSocketSOSocket(AuSocket* sock, int optname, const void* optval, socklen_t optlen){

$LN7:
	mov	QWORD PTR [rsp+32], r9
	mov	QWORD PTR [rsp+24], r8
	mov	DWORD PTR [rsp+16], edx
	mov	QWORD PTR [rsp+8], rcx
	sub	rsp, 56					; 00000038H

; 84   : 	switch (optname){

	mov	eax, DWORD PTR optname$[rsp]
	mov	DWORD PTR tv64[rsp], eax
	cmp	DWORD PTR tv64[rsp], 3
	je	SHORT $LN2@AuSocketSO
	jmp	SHORT $LN3@AuSocketSO
$LN2@AuSocketSO:

; 85   : 	case SO_BINDTODEVICE: {   SeTextOut("Device binding ->%s \r\n", ((char*)optval));

	mov	rdx, QWORD PTR optval$[rsp]
	lea	rcx, OFFSET FLAT:$SG3772
	call	SeTextOut

; 86   : 							  //if (optlen < 1 || optlen > 32 || ((const char*)optval)[optlen - 1] != 0) return -1;  
; 87   : 							  AuVFSNode* nic = AuGetNetworkAdapter((char*)optval);

	mov	rcx, QWORD PTR optval$[rsp]
	call	AuGetNetworkAdapter
	mov	QWORD PTR nic$1[rsp], rax

; 88   : 							  if (!nic) return -1;

	cmp	QWORD PTR nic$1[rsp], 0
	jne	SHORT $LN1@AuSocketSO
	mov	eax, -1
	jmp	SHORT $LN5@AuSocketSO
$LN1@AuSocketSO:

; 89   : 							  sock->binedDev = nic;

	mov	rax, QWORD PTR sock$[rsp]
	mov	rcx, QWORD PTR nic$1[rsp]
	mov	QWORD PTR [rax], rcx

; 90   : 							  SeTextOut("Device binded \r\n");

	lea	rcx, OFFSET FLAT:$SG3776
	call	SeTextOut

; 91   : 							  return 0;

	xor	eax, eax
	jmp	SHORT $LN5@AuSocketSO
$LN3@AuSocketSO:

; 92   : 	}
; 93   : 	}
; 94   : 	return 1;

	mov	eax, 1
$LN5@AuSocketSO:

; 95   : }

	add	rsp, 56					; 00000038H
	ret	0
?AuSocketSOSocket@@YAHPEAU_socket_@@HPEBX_K@Z ENDP	; AuSocketSOSocket
_TEXT	ENDS
; Function compile flags: /Odtpy
; File e:\xeneva project\aurora\kernel\net\socket.cpp
_TEXT	SEGMENT
device$ = 32
sock$ = 64
msg$ = 72
flags$ = 80
?AuRawSocketSend@@YAHPEAU_socket_@@PEAU_msghdr_@@H@Z PROC ; AuRawSocketSend

; 69   : int AuRawSocketSend(AuSocket* sock, msghdr* msg, int flags) {

$LN5:
	mov	DWORD PTR [rsp+24], r8d
	mov	QWORD PTR [rsp+16], rdx
	mov	QWORD PTR [rsp+8], rcx
	sub	rsp, 56					; 00000038H

; 70   : 	if (!sock->binedDev) return -1;

	mov	rax, QWORD PTR sock$[rsp]
	cmp	QWORD PTR [rax], 0
	jne	SHORT $LN2@AuRawSocke
	mov	eax, -1
	jmp	SHORT $LN3@AuRawSocke
$LN2@AuRawSocke:

; 71   : 	if (msg->msg_iovlen == 0) return 0;

	mov	rax, QWORD PTR msg$[rsp]
	cmp	QWORD PTR [rax+24], 0
	jne	SHORT $LN1@AuRawSocke
	xor	eax, eax
	jmp	SHORT $LN3@AuRawSocke
$LN1@AuRawSocke:

; 72   : 	AuVFSNode* device = (AuVFSNode*)sock->binedDev;

	mov	rax, QWORD PTR sock$[rsp]
	mov	rax, QWORD PTR [rax]
	mov	QWORD PTR device$[rsp], rax

; 73   : 	device->write(device, device, (uint64_t*)msg->msg_iov[0].iov_base, msg->msg_iov[0].iov_len);

	mov	eax, 16
	imul	rax, rax, 0
	mov	rcx, QWORD PTR msg$[rsp]
	mov	rcx, QWORD PTR [rcx+16]
	mov	edx, 16
	imul	rdx, rdx, 0
	mov	r8, QWORD PTR msg$[rsp]
	mov	r8, QWORD PTR [r8+16]
	mov	r9d, DWORD PTR [rcx+rax+8]
	mov	r8, QWORD PTR [r8+rdx]
	mov	rdx, QWORD PTR device$[rsp]
	mov	rcx, QWORD PTR device$[rsp]
	mov	rax, QWORD PTR device$[rsp]
	call	QWORD PTR [rax+98]

; 74   : 	return 0;

	xor	eax, eax
$LN3@AuRawSocke:

; 75   : }

	add	rsp, 56					; 00000038H
	ret	0
?AuRawSocketSend@@YAHPEAU_socket_@@PEAU_msghdr_@@H@Z ENDP ; AuRawSocketSend
_TEXT	ENDS
; Function compile flags: /Odtpy
; File e:\xeneva project\aurora\kernel\net\socket.cpp
_TEXT	SEGMENT
data$ = 32
pack_sz$ = 40
tv85 = 48
sock$ = 80
msg$ = 88
flags$ = 96
?AuRawSocketReceive@@YAHPEAU_socket_@@PEAU_msghdr_@@H@Z PROC ; AuRawSocketReceive

; 56   : int AuRawSocketReceive(AuSocket* sock, msghdr* msg, int flags) {

$LN7:
	mov	DWORD PTR [rsp+24], r8d
	mov	QWORD PTR [rsp+16], rdx
	mov	QWORD PTR [rsp+8], rcx
	sub	rsp, 72					; 00000048H

; 57   : 	if (!sock->binedDev)

	mov	rax, QWORD PTR sock$[rsp]
	cmp	QWORD PTR [rax], 0
	jne	SHORT $LN4@AuRawSocke

; 58   : 		return -1;

	mov	eax, -1
	jmp	$LN5@AuRawSocke
$LN4@AuRawSocke:

; 59   : 	if (msg->msg_iovlen == 0) return 0;

	mov	rax, QWORD PTR msg$[rsp]
	cmp	QWORD PTR [rax+24], 0
	jne	SHORT $LN3@AuRawSocke
	xor	eax, eax
	jmp	$LN5@AuRawSocke
$LN3@AuRawSocke:

; 60   : 	char* data = (char*)AuSocketGet(sock);

	mov	rcx, QWORD PTR sock$[rsp]
	call	?AuSocketGet@@YAPEAXPEAU_socket_@@@Z	; AuSocketGet
	mov	QWORD PTR data$[rsp], rax

; 61   : 	if (!data) return -1;

	cmp	QWORD PTR data$[rsp], 0
	jne	SHORT $LN2@AuRawSocke
	mov	eax, -1
	jmp	SHORT $LN5@AuRawSocke
$LN2@AuRawSocke:

; 62   : 	size_t pack_sz = *(size_t*)data;

	mov	rax, QWORD PTR data$[rsp]
	mov	rax, QWORD PTR [rax]
	mov	QWORD PTR pack_sz$[rsp], rax

; 63   : 	if (msg->msg_iov[0].iov_len < pack_sz) return -1;

	mov	eax, 16
	imul	rax, rax, 0
	mov	rcx, QWORD PTR msg$[rsp]
	mov	rcx, QWORD PTR [rcx+16]
	mov	rdx, QWORD PTR pack_sz$[rsp]
	cmp	QWORD PTR [rcx+rax+8], rdx
	jae	SHORT $LN1@AuRawSocke
	mov	eax, -1
	jmp	SHORT $LN5@AuRawSocke
$LN1@AuRawSocke:

; 64   : 	memcpy(msg->msg_iov[0].iov_base, data + sizeof(size_t), pack_sz);

	mov	rax, QWORD PTR data$[rsp]
	add	rax, 8
	mov	ecx, 16
	imul	rcx, rcx, 0
	mov	rdx, QWORD PTR msg$[rsp]
	mov	rdx, QWORD PTR [rdx+16]
	mov	QWORD PTR tv85[rsp], rdx
	mov	r8, QWORD PTR pack_sz$[rsp]
	mov	rdx, rax
	mov	rax, QWORD PTR tv85[rsp]
	mov	rcx, QWORD PTR [rax+rcx]
	call	memcpy

; 65   : 	kfree(data);

	mov	rcx, QWORD PTR data$[rsp]
	call	kfree

; 66   : 	return pack_sz;

	mov	eax, DWORD PTR pack_sz$[rsp]
$LN5@AuRawSocke:

; 67   : }

	add	rsp, 72					; 00000048H
	ret	0
?AuRawSocketReceive@@YAHPEAU_socket_@@PEAU_msghdr_@@H@Z ENDP ; AuRawSocketReceive
_TEXT	ENDS
; Function compile flags: /Odtpy
; File e:\xeneva project\aurora\kernel\net\socket.cpp
_TEXT	SEGMENT
data$ = 32
sock$ = 64
?AuSocketGet@@YAPEAXPEAU_socket_@@@Z PROC		; AuSocketGet

; 51   : void* AuSocketGet(AuSocket* sock) {

$LN3:
	mov	QWORD PTR [rsp+8], rcx
	sub	rsp, 56					; 00000038H

; 52   : 	void* data = AuStackPop(sock->rxstack);

	mov	rax, QWORD PTR sock$[rsp]
	mov	rcx, QWORD PTR [rax+8]
	call	AuStackPop
	mov	QWORD PTR data$[rsp], rax

; 53   : 	return data;

	mov	rax, QWORD PTR data$[rsp]

; 54   : }

	add	rsp, 56					; 00000038H
	ret	0
?AuSocketGet@@YAPEAXPEAU_socket_@@@Z ENDP		; AuSocketGet
_TEXT	ENDS
; Function compile flags: /Odtpy
; File e:\xeneva project\aurora\kernel\net\socket.cpp
_TEXT	SEGMENT
?AuRawSocketGetList@@YAPEAU_list_@@XZ PROC		; AuRawSocketGetList

; 184  : 	return raw_socket_list;

	mov	rax, QWORD PTR ?raw_socket_list@@3PEAU_list_@@EA ; raw_socket_list

; 185  : }

	ret	0
?AuRawSocketGetList@@YAPEAU_list_@@XZ ENDP		; AuRawSocketGetList
_TEXT	ENDS
; Function compile flags: /Odtpy
; File e:\xeneva project\aurora\kernel\net\socket.cpp
_TEXT	SEGMENT
tv76 = 32
proc$ = 40
curr$ = 48
node$ = 56
sock$ = 64
sockfd$ = 96
level$ = 104
optname$ = 112
optval$ = 120
optlen$ = 128
?AuSocketSetOpt@@YAHHHHPEBX_K@Z PROC			; AuSocketSetOpt

; 97   : int AuSocketSetOpt(int sockfd, int level, int optname, const void* optval, socklen_t optlen) {

$LN9:
	mov	QWORD PTR [rsp+32], r9
	mov	DWORD PTR [rsp+24], r8d
	mov	DWORD PTR [rsp+16], edx
	mov	DWORD PTR [rsp+8], ecx
	sub	rsp, 88					; 00000058H

; 98   : 	x64_cli();

	call	x64_cli

; 99   : 	AuThread* curr = AuGetCurrentThread();

	call	AuGetCurrentThread
	mov	QWORD PTR curr$[rsp], rax

; 100  : 	AuProcess* proc = AuProcessFindThread(curr);

	mov	rcx, QWORD PTR curr$[rsp]
	call	?AuProcessFindThread@@YAPEAU_au_proc_@@PEAU_au_thread_@@@Z ; AuProcessFindThread
	mov	QWORD PTR proc$[rsp], rax

; 101  : 	if (!proc){

	cmp	QWORD PTR proc$[rsp], 0
	jne	SHORT $LN6@AuSocketSe

; 102  : 		proc = AuProcessFindSubThread(curr);

	mov	rcx, QWORD PTR curr$[rsp]
	call	?AuProcessFindSubThread@@YAPEAU_au_proc_@@PEAU_au_thread_@@@Z ; AuProcessFindSubThread
	mov	QWORD PTR proc$[rsp], rax

; 103  : 		if (!proc)

	cmp	QWORD PTR proc$[rsp], 0
	jne	SHORT $LN5@AuSocketSe

; 104  : 			return -1;

	mov	eax, -1
	jmp	SHORT $LN7@AuSocketSe
$LN5@AuSocketSe:
$LN6@AuSocketSe:

; 105  : 	}
; 106  : 	AuVFSNode* node = proc->fds[sockfd];

	movsxd	rax, DWORD PTR sockfd$[rsp]
	mov	rcx, QWORD PTR proc$[rsp]
	mov	rax, QWORD PTR [rcx+rax*8+567]
	mov	QWORD PTR node$[rsp], rax

; 107  : 	AuSocket* sock = (AuSocket*)node->device;

	mov	rax, QWORD PTR node$[rsp]
	mov	rax, QWORD PTR [rax+64]
	mov	QWORD PTR sock$[rsp], rax

; 108  : 	switch (level)

	mov	eax, DWORD PTR level$[rsp]
	mov	DWORD PTR tv76[rsp], eax
	cmp	DWORD PTR tv76[rsp], 0
	je	SHORT $LN2@AuSocketSe
	jmp	SHORT $LN1@AuSocketSe
$LN2@AuSocketSe:

; 109  : 	{
; 110  : 	case SOL_SOCKET:
; 111  : 		return AuSocketSOSocket(sock, optname, optval, optlen);

	mov	r9, QWORD PTR optlen$[rsp]
	mov	r8, QWORD PTR optval$[rsp]
	mov	edx, DWORD PTR optname$[rsp]
	mov	rcx, QWORD PTR sock$[rsp]
	call	?AuSocketSOSocket@@YAHPEAU_socket_@@HPEBX_K@Z ; AuSocketSOSocket
	jmp	SHORT $LN7@AuSocketSe
$LN1@AuSocketSe:

; 112  : 	default:
; 113  : 		return -1;

	mov	eax, -1
	jmp	SHORT $LN7@AuSocketSe

; 114  : 	}
; 115  : 	return -1;

	mov	eax, -1
$LN7@AuSocketSe:

; 116  : }

	add	rsp, 88					; 00000058H
	ret	0
?AuSocketSetOpt@@YAHHHHPEBX_K@Z ENDP			; AuSocketSetOpt
_TEXT	ENDS
; Function compile flags: /Odtpy
; File e:\xeneva project\aurora\kernel\net\socket.cpp
_TEXT	SEGMENT
tv64 = 32
domain$ = 64
type$ = 72
protocol$ = 80
?AuCreateSocket@@YAHHHH@Z PROC				; AuCreateSocket

; 160  : int AuCreateSocket(int domain, int type, int protocol) {

$LN8:
	mov	DWORD PTR [rsp+24], r8d
	mov	DWORD PTR [rsp+16], edx
	mov	DWORD PTR [rsp+8], ecx
	sub	rsp, 56					; 00000038H

; 161  : 	x64_cli();

	call	x64_cli

; 162  : 	switch (domain) {

	mov	eax, DWORD PTR domain$[rsp]
	mov	DWORD PTR tv64[rsp], eax
	cmp	DWORD PTR tv64[rsp], 1
	je	SHORT $LN3@AuCreateSo
	cmp	DWORD PTR tv64[rsp], 2
	je	SHORT $LN2@AuCreateSo
	jmp	SHORT $LN1@AuCreateSo
$LN3@AuCreateSo:

; 163  : 	case AF_INET:
; 164  : 		return CreateIPv4Socket(type, protocol);

	mov	edx, DWORD PTR protocol$[rsp]
	mov	ecx, DWORD PTR type$[rsp]
	call	?CreateIPv4Socket@@YAHHH@Z		; CreateIPv4Socket
	jmp	SHORT $LN6@AuCreateSo
$LN2@AuCreateSo:

; 165  : 	case AF_RAW:
; 166  : 		return AuCreateRawSocket(type, protocol);

	mov	edx, DWORD PTR protocol$[rsp]
	mov	ecx, DWORD PTR type$[rsp]
	call	?AuCreateRawSocket@@YAHHH@Z		; AuCreateRawSocket
	jmp	SHORT $LN6@AuCreateSo
$LN1@AuCreateSo:

; 167  : 	default:
; 168  : 		return -1;

	mov	eax, -1
$LN6@AuCreateSo:

; 169  : 	}
; 170  : }

	add	rsp, 56					; 00000038H
	ret	0
?AuCreateSocket@@YAHHHH@Z ENDP				; AuCreateSocket
_TEXT	ENDS
; Function compile flags: /Odtpy
; File e:\xeneva project\aurora\kernel\net\socket.cpp
_TEXT	SEGMENT
?AuSocketInstall@@YAXXZ PROC				; AuSocketInstall

; 176  : void AuSocketInstall() {

$LN3:
	sub	rsp, 40					; 00000028H

; 177  : 	raw_socket_list = initialize_list();

	call	initialize_list
	mov	QWORD PTR ?raw_socket_list@@3PEAU_list_@@EA, rax ; raw_socket_list

; 178  : }

	add	rsp, 40					; 00000028H
	ret	0
?AuSocketInstall@@YAXXZ ENDP				; AuSocketInstall
_TEXT	ENDS
; Function compile flags: /Odtpy
; File e:\xeneva project\aurora\kernel\net\socket.cpp
_TEXT	SEGMENT
data_$ = 32
sock$ = 64
data$ = 72
sz$ = 80
?AuSocketAdd@@YAXPEAU_socket_@@PEAX_K@Z PROC		; AuSocketAdd

; 43   : void AuSocketAdd(AuSocket* sock, void* data, size_t sz) {

$LN3:
	mov	QWORD PTR [rsp+24], r8
	mov	QWORD PTR [rsp+16], rdx
	mov	QWORD PTR [rsp+8], rcx
	sub	rsp, 56					; 00000038H

; 44   : 	char* data_ = (char*)kmalloc(sizeof(size_t)+sz);

	mov	rax, QWORD PTR sz$[rsp]
	add	rax, 8
	mov	ecx, eax
	call	kmalloc
	mov	QWORD PTR data_$[rsp], rax

; 45   : 	memset(data_, 0, sz + sizeof(size_t));

	mov	rax, QWORD PTR sz$[rsp]
	add	rax, 8
	mov	r8d, eax
	xor	edx, edx
	mov	rcx, QWORD PTR data_$[rsp]
	call	memset

; 46   : 	*(size_t*)data_ = sz;

	mov	rax, QWORD PTR data_$[rsp]
	mov	rcx, QWORD PTR sz$[rsp]
	mov	QWORD PTR [rax], rcx

; 47   : 	memcpy(data_ + sizeof(size_t), data, sz);

	mov	rax, QWORD PTR data_$[rsp]
	add	rax, 8
	mov	r8, QWORD PTR sz$[rsp]
	mov	rdx, QWORD PTR data$[rsp]
	mov	rcx, rax
	call	memcpy

; 48   : 	AuStackPush(sock->rxstack, data_);

	mov	rdx, QWORD PTR data_$[rsp]
	mov	rax, QWORD PTR sock$[rsp]
	mov	rcx, QWORD PTR [rax+8]
	call	AuStackPush

; 49   : }

	add	rsp, 56					; 00000038H
	ret	0
?AuSocketAdd@@YAXPEAU_socket_@@PEAX_K@Z ENDP		; AuSocketAdd
_TEXT	ENDS
END
