; Listing generated by Microsoft (R) Optimizing Compiler Version 18.00.21005.1 

include listing.inc

INCLUDELIB LIBCMT
INCLUDELIB OLDNAMES

PUBLIC	?PauseThread@@YAHXZ				; PauseThread
PUBLIC	?GetThreadID@@YAGXZ				; GetThreadID
PUBLIC	?GetProcessID@@YAHXZ				; GetProcessID
PUBLIC	?ProcessExit@@YAHXZ				; ProcessExit
PUBLIC	?ProcessWaitForTermination@@YAHH@Z		; ProcessWaitForTermination
PUBLIC	?CreateProcess@@YAHHPEAD@Z			; CreateProcess
PUBLIC	?ProcessLoadExec@@YAHHPEADHPEAPEAD@Z		; ProcessLoadExec
EXTRN	AuGetCurrentThread:PROC
EXTRN	AuBlockThread:PROC
EXTRN	x64_force_sched:PROC
EXTRN	?AuProcessFindPID@@YAPEAU_au_proc_@@H@Z:PROC	; AuProcessFindPID
EXTRN	?AuProcessFindThread@@YAPEAU_au_proc_@@PEAU_au_thread_@@@Z:PROC ; AuProcessFindThread
EXTRN	?AuCreateProcessSlot@@YAPEAU_au_proc_@@PEAU1@PEAD@Z:PROC ; AuCreateProcessSlot
EXTRN	?AuProcessExit@@YAXPEAU_au_proc_@@@Z:PROC	; AuProcessExit
EXTRN	?AuProcessWaitForTermination@@YAXPEAU_au_proc_@@H@Z:PROC ; AuProcessWaitForTermination
EXTRN	strlen:PROC
EXTRN	memset:PROC
EXTRN	?AuLoadExecToProcess@@YAXPEAU_au_proc_@@PEADHPEAPEAD@Z:PROC ; AuLoadExecToProcess
EXTRN	kmalloc:PROC
pdata	SEGMENT
$pdata$?PauseThread@@YAHXZ DD imagerel $LN3
	DD	imagerel $LN3+39
	DD	imagerel $unwind$?PauseThread@@YAHXZ
$pdata$?GetThreadID@@YAGXZ DD imagerel $LN4
	DD	imagerel $LN4+46
	DD	imagerel $unwind$?GetThreadID@@YAGXZ
$pdata$?GetProcessID@@YAHXZ DD imagerel $LN4
	DD	imagerel $LN4+56
	DD	imagerel $unwind$?GetProcessID@@YAHXZ
$pdata$?ProcessExit@@YAHXZ DD imagerel $LN4
	DD	imagerel $LN4+61
	DD	imagerel $unwind$?ProcessExit@@YAHXZ
$pdata$?ProcessWaitForTermination@@YAHH@Z DD imagerel $LN3
	DD	imagerel $LN3+54
	DD	imagerel $unwind$?ProcessWaitForTermination@@YAHH@Z
$pdata$?CreateProcess@@YAHHPEAD@Z DD imagerel $LN5
	DD	imagerel $LN5+89
	DD	imagerel $unwind$?CreateProcess@@YAHHPEAD@Z
$pdata$?ProcessLoadExec@@YAHHPEADHPEAPEAD@Z DD imagerel $LN10
	DD	imagerel $LN10+254
	DD	imagerel $unwind$?ProcessLoadExec@@YAHHPEADHPEAPEAD@Z
pdata	ENDS
xdata	SEGMENT
$unwind$?PauseThread@@YAHXZ DD 010401H
	DD	06204H
$unwind$?GetThreadID@@YAGXZ DD 010401H
	DD	06204H
$unwind$?GetProcessID@@YAHXZ DD 010401H
	DD	06204H
$unwind$?ProcessExit@@YAHXZ DD 010401H
	DD	06204H
$unwind$?ProcessWaitForTermination@@YAHH@Z DD 010801H
	DD	06208H
$unwind$?CreateProcess@@YAHHPEAD@Z DD 010d01H
	DD	0620dH
$unwind$?ProcessLoadExec@@YAHHPEADHPEAPEAD@Z DD 011701H
	DD	0a217H
xdata	ENDS
; Function compile flags: /Odtpy
; File e:\xeneva project\aurora\kernel\serv\thrserv.cpp
_TEXT	SEGMENT
i$1 = 32
i$2 = 36
char_cnt$ = 40
allocated_argv$ = 48
proc$ = 56
l$3 = 64
proc_id$ = 96
filename$ = 104
argc$ = 112
argv$ = 120
?ProcessLoadExec@@YAHHPEADHPEAPEAD@Z PROC		; ProcessLoadExec

; 115  : int ProcessLoadExec(int proc_id, char* filename,int argc, char** argv) {

$LN10:
	mov	QWORD PTR [rsp+32], r9
	mov	DWORD PTR [rsp+24], r8d
	mov	QWORD PTR [rsp+16], rdx
	mov	DWORD PTR [rsp+8], ecx
	sub	rsp, 88					; 00000058H

; 116  : 	AuProcess* proc = AuProcessFindPID(proc_id);

	mov	ecx, DWORD PTR proc_id$[rsp]
	call	?AuProcessFindPID@@YAPEAU_au_proc_@@H@Z	; AuProcessFindPID
	mov	QWORD PTR proc$[rsp], rax

; 117  : 	if (!proc)

	cmp	QWORD PTR proc$[rsp], 0
	jne	SHORT $LN7@ProcessLoa

; 118  : 		return -1;

	mov	eax, -1
	jmp	$LN8@ProcessLoa
$LN7@ProcessLoa:

; 119  : 
; 120  : 	/* prepare stuffs for passing arguments */
; 121  : 	int char_cnt = 0;

	mov	DWORD PTR char_cnt$[rsp], 0

; 122  : 	for (int i = 0; i < argc; i++) {

	mov	DWORD PTR i$2[rsp], 0
	jmp	SHORT $LN6@ProcessLoa
$LN5@ProcessLoa:
	mov	eax, DWORD PTR i$2[rsp]
	inc	eax
	mov	DWORD PTR i$2[rsp], eax
$LN6@ProcessLoa:
	mov	eax, DWORD PTR argc$[rsp]
	cmp	DWORD PTR i$2[rsp], eax
	jge	SHORT $LN4@ProcessLoa

; 123  : 		size_t l = strlen(argv[i]);

	movsxd	rax, DWORD PTR i$2[rsp]
	mov	rcx, QWORD PTR argv$[rsp]
	mov	rcx, QWORD PTR [rcx+rax*8]
	call	strlen
	mov	QWORD PTR l$3[rsp], rax

; 124  : 		char_cnt += l;

	movsxd	rax, DWORD PTR char_cnt$[rsp]
	add	rax, QWORD PTR l$3[rsp]
	mov	DWORD PTR char_cnt$[rsp], eax

; 125  : 	}

	jmp	SHORT $LN5@ProcessLoa
$LN4@ProcessLoa:

; 126  : 
; 127  : 	char** allocated_argv = (char**)kmalloc(char_cnt);

	mov	ecx, DWORD PTR char_cnt$[rsp]
	call	kmalloc
	mov	QWORD PTR allocated_argv$[rsp], rax

; 128  : 	memset(allocated_argv, 0, char_cnt);

	mov	r8d, DWORD PTR char_cnt$[rsp]
	xor	edx, edx
	mov	rcx, QWORD PTR allocated_argv$[rsp]
	call	memset

; 129  : 	for (int i = 0; i < argc; i++)

	mov	DWORD PTR i$1[rsp], 0
	jmp	SHORT $LN3@ProcessLoa
$LN2@ProcessLoa:
	mov	eax, DWORD PTR i$1[rsp]
	inc	eax
	mov	DWORD PTR i$1[rsp], eax
$LN3@ProcessLoa:
	mov	eax, DWORD PTR argc$[rsp]
	cmp	DWORD PTR i$1[rsp], eax
	jge	SHORT $LN1@ProcessLoa

; 130  : 		allocated_argv[i] = argv[i];

	movsxd	rax, DWORD PTR i$1[rsp]
	movsxd	rcx, DWORD PTR i$1[rsp]
	mov	rdx, QWORD PTR allocated_argv$[rsp]
	mov	r8, QWORD PTR argv$[rsp]
	mov	rax, QWORD PTR [r8+rax*8]
	mov	QWORD PTR [rdx+rcx*8], rax
	jmp	SHORT $LN2@ProcessLoa
$LN1@ProcessLoa:

; 131  : 
; 132  : 	AuLoadExecToProcess(proc, filename, argc,allocated_argv);

	mov	r9, QWORD PTR allocated_argv$[rsp]
	mov	r8d, DWORD PTR argc$[rsp]
	mov	rdx, QWORD PTR filename$[rsp]
	mov	rcx, QWORD PTR proc$[rsp]
	call	?AuLoadExecToProcess@@YAXPEAU_au_proc_@@PEADHPEAPEAD@Z ; AuLoadExecToProcess
$LN8@ProcessLoa:

; 133  : }

	add	rsp, 88					; 00000058H
	ret	0
?ProcessLoadExec@@YAHHPEADHPEAPEAD@Z ENDP		; ProcessLoadExec
_TEXT	ENDS
; Function compile flags: /Odtpy
; File e:\xeneva project\aurora\kernel\serv\thrserv.cpp
_TEXT	SEGMENT
parent$ = 32
slot$ = 40
parent_id$ = 64
name$ = 72
?CreateProcess@@YAHHPEAD@Z PROC				; CreateProcess

; 101  : int CreateProcess(int parent_id, char *name) {

$LN5:
	mov	QWORD PTR [rsp+16], rdx
	mov	DWORD PTR [rsp+8], ecx
	sub	rsp, 56					; 00000038H

; 102  : 	AuProcess *parent = AuProcessFindPID(parent_id);

	mov	ecx, DWORD PTR parent_id$[rsp]
	call	?AuProcessFindPID@@YAPEAU_au_proc_@@H@Z	; AuProcessFindPID
	mov	QWORD PTR parent$[rsp], rax

; 103  : 	if (!parent)

	cmp	QWORD PTR parent$[rsp], 0
	jne	SHORT $LN2@CreateProc

; 104  : 		return -1;

	mov	eax, -1
	jmp	SHORT $LN3@CreateProc
$LN2@CreateProc:

; 105  : 	AuProcess* slot = AuCreateProcessSlot(parent, name);

	mov	rdx, QWORD PTR name$[rsp]
	mov	rcx, QWORD PTR parent$[rsp]
	call	?AuCreateProcessSlot@@YAPEAU_au_proc_@@PEAU1@PEAD@Z ; AuCreateProcessSlot
	mov	QWORD PTR slot$[rsp], rax

; 106  : 	if (!slot)

	cmp	QWORD PTR slot$[rsp], 0
	jne	SHORT $LN1@CreateProc

; 107  : 		return -1;

	mov	eax, -1
	jmp	SHORT $LN3@CreateProc
$LN1@CreateProc:

; 108  : 	return slot->proc_id;

	mov	rax, QWORD PTR slot$[rsp]
	mov	eax, DWORD PTR [rax]
$LN3@CreateProc:

; 109  : }

	add	rsp, 56					; 00000038H
	ret	0
?CreateProcess@@YAHHPEAD@Z ENDP				; CreateProcess
_TEXT	ENDS
; Function compile flags: /Odtpy
; File e:\xeneva project\aurora\kernel\serv\thrserv.cpp
_TEXT	SEGMENT
current_thr$ = 32
proc$ = 40
pid$ = 64
?ProcessWaitForTermination@@YAHH@Z PROC			; ProcessWaitForTermination

; 89   : int ProcessWaitForTermination(int pid) {

$LN3:
	mov	DWORD PTR [rsp+8], ecx
	sub	rsp, 56					; 00000038H

; 90   : 	AuThread* current_thr = AuGetCurrentThread();

	call	AuGetCurrentThread
	mov	QWORD PTR current_thr$[rsp], rax

; 91   : 	AuProcess* proc = AuProcessFindThread(current_thr);

	mov	rcx, QWORD PTR current_thr$[rsp]
	call	?AuProcessFindThread@@YAPEAU_au_proc_@@PEAU_au_thread_@@@Z ; AuProcessFindThread
	mov	QWORD PTR proc$[rsp], rax

; 92   : 	AuProcessWaitForTermination(proc, pid);

	mov	edx, DWORD PTR pid$[rsp]
	mov	rcx, QWORD PTR proc$[rsp]
	call	?AuProcessWaitForTermination@@YAXPEAU_au_proc_@@H@Z ; AuProcessWaitForTermination

; 93   : 	return 0;

	xor	eax, eax

; 94   : }

	add	rsp, 56					; 00000038H
	ret	0
?ProcessWaitForTermination@@YAHH@Z ENDP			; ProcessWaitForTermination
_TEXT	ENDS
; Function compile flags: /Odtpy
; File e:\xeneva project\aurora\kernel\serv\thrserv.cpp
_TEXT	SEGMENT
proc$ = 32
current_thr$ = 40
?ProcessExit@@YAHXZ PROC				; ProcessExit

; 75   : int ProcessExit() {

$LN4:
	sub	rsp, 56					; 00000038H

; 76   : 	AuThread* current_thr = AuGetCurrentThread();

	call	AuGetCurrentThread
	mov	QWORD PTR current_thr$[rsp], rax

; 77   : 	AuProcess* proc = AuProcessFindThread(current_thr);

	mov	rcx, QWORD PTR current_thr$[rsp]
	call	?AuProcessFindThread@@YAPEAU_au_proc_@@PEAU_au_thread_@@@Z ; AuProcessFindThread
	mov	QWORD PTR proc$[rsp], rax

; 78   : 	if (!proc)

	cmp	QWORD PTR proc$[rsp], 0
	jne	SHORT $LN1@ProcessExi

; 79   : 		return 1;

	mov	eax, 1
	jmp	SHORT $LN2@ProcessExi
$LN1@ProcessExi:

; 80   : 	AuProcessExit(proc);

	mov	rcx, QWORD PTR proc$[rsp]
	call	?AuProcessExit@@YAXPEAU_au_proc_@@@Z	; AuProcessExit

; 81   : 	return 0;

	xor	eax, eax
$LN2@ProcessExi:

; 82   : }

	add	rsp, 56					; 00000038H
	ret	0
?ProcessExit@@YAHXZ ENDP				; ProcessExit
_TEXT	ENDS
; Function compile flags: /Odtpy
; File e:\xeneva project\aurora\kernel\serv\thrserv.cpp
_TEXT	SEGMENT
proc$ = 32
current_thr$ = 40
?GetProcessID@@YAHXZ PROC				; GetProcessID

; 64   : int GetProcessID() {

$LN4:
	sub	rsp, 56					; 00000038H

; 65   : 	AuThread * current_thr = AuGetCurrentThread();

	call	AuGetCurrentThread
	mov	QWORD PTR current_thr$[rsp], rax

; 66   : 	AuProcess* proc = AuProcessFindThread(current_thr);

	mov	rcx, QWORD PTR current_thr$[rsp]
	call	?AuProcessFindThread@@YAPEAU_au_proc_@@PEAU_au_thread_@@@Z ; AuProcessFindThread
	mov	QWORD PTR proc$[rsp], rax

; 67   : 	if (!proc)

	cmp	QWORD PTR proc$[rsp], 0
	jne	SHORT $LN1@GetProcess

; 68   : 		return -1;

	mov	eax, -1
	jmp	SHORT $LN2@GetProcess
$LN1@GetProcess:

; 69   : 	return proc->proc_id;

	mov	rax, QWORD PTR proc$[rsp]
	mov	eax, DWORD PTR [rax]
$LN2@GetProcess:

; 70   : }

	add	rsp, 56					; 00000038H
	ret	0
?GetProcessID@@YAHXZ ENDP				; GetProcessID
_TEXT	ENDS
; Function compile flags: /Odtpy
; File e:\xeneva project\aurora\kernel\serv\thrserv.cpp
_TEXT	SEGMENT
current_thr$ = 32
?GetThreadID@@YAGXZ PROC				; GetThreadID

; 53   : uint16_t GetThreadID() {

$LN4:
	sub	rsp, 56					; 00000038H

; 54   : 	AuThread* current_thr = AuGetCurrentThread();

	call	AuGetCurrentThread
	mov	QWORD PTR current_thr$[rsp], rax

; 55   : 	if (!current_thr)

	cmp	QWORD PTR current_thr$[rsp], 0
	jne	SHORT $LN1@GetThreadI

; 56   : 		return -1;

	mov	eax, 65535				; 0000ffffH
	jmp	SHORT $LN2@GetThreadI
$LN1@GetThreadI:

; 57   : 	return current_thr->id;

	mov	rax, QWORD PTR current_thr$[rsp]
	movzx	eax, WORD PTR [rax+293]
$LN2@GetThreadI:

; 58   : }

	add	rsp, 56					; 00000038H
	ret	0
?GetThreadID@@YAGXZ ENDP				; GetThreadID
_TEXT	ENDS
; Function compile flags: /Odtpy
; File e:\xeneva project\aurora\kernel\serv\thrserv.cpp
_TEXT	SEGMENT
current_thr$ = 32
?PauseThread@@YAHXZ PROC				; PauseThread

; 43   : int PauseThread() {

$LN3:
	sub	rsp, 56					; 00000038H

; 44   : 	AuThread * current_thr = AuGetCurrentThread();

	call	AuGetCurrentThread
	mov	QWORD PTR current_thr$[rsp], rax

; 45   : 	AuBlockThread(current_thr);

	mov	rcx, QWORD PTR current_thr$[rsp]
	call	AuBlockThread

; 46   : 	x64_force_sched();

	call	x64_force_sched

; 47   : 	return 1;

	mov	eax, 1

; 48   : }

	add	rsp, 56					; 00000038H
	ret	0
?PauseThread@@YAHXZ ENDP				; PauseThread
_TEXT	ENDS
END
