; Listing generated by Microsoft (R) Optimizing Compiler Version 18.00.21005.1 

include listing.inc

INCLUDELIB LIBCMT
INCLUDELIB OLDNAMES

PUBLIC	?master_count@@3_KA				; master_count
PUBLIC	?slave_count@@3_KA				; slave_count
PUBLIC	?root@@3PEAU__tty__@@EA				; root
PUBLIC	?last@@3PEAU__tty__@@EA				; last
_BSS	SEGMENT
?master_count@@3_KA DQ 01H DUP (?)			; master_count
?slave_count@@3_KA DQ 01H DUP (?)			; slave_count
?root@@3PEAU__tty__@@EA DQ 01H DUP (?)			; root
?last@@3PEAU__tty__@@EA DQ 01H DUP (?)			; last
_BSS	ENDS
CONST	SEGMENT
$SG3362	DB	'/dev', 00H
	ORG $+3
$SG3395	DB	'/dev', 00H
	ORG $+3
$SG3401	DB	'ttym', 00H
	ORG $+3
$SG3402	DB	'/dev/tty', 00H
	ORG $+3
$SG3407	DB	'/dev', 00H
	ORG $+3
$SG3413	DB	'ttys', 00H
	ORG $+7
$SG3414	DB	'/dev/tty', 00H
	ORG $+3
$SG3438	DB	'/dev', 00H
	ORG $+7
$SG3439	DB	'/dev/tty', 00H
CONST	ENDS
PUBLIC	?AuTTYInitialise@@YAXXZ				; AuTTYInitialise
PUBLIC	?AuTTYInsert@@YAXPEAU__tty__@@@Z		; AuTTYInsert
PUBLIC	?AuTTYDelete@@YAXPEAU__tty__@@@Z		; AuTTYDelete
PUBLIC	?AuTTYWriteSlave@@YAXPEAU__tty__@@E@Z		; AuTTYWriteSlave
PUBLIC	?AuTTYWriteMaster@@YAXPEAU__tty__@@E@Z		; AuTTYWriteMaster
PUBLIC	?AuTTYProcessLine@@YAXPEAU__tty__@@E@Z		; AuTTYProcessLine
PUBLIC	?AuTTYMasterRead@@YA_KPEAU__VFS_NODE__@@0PEA_KI@Z ; AuTTYMasterRead
PUBLIC	?AuTTYMasterWrite@@YA_KPEAU__VFS_NODE__@@0PEA_KI@Z ; AuTTYMasterWrite
PUBLIC	?AuTTYSlaveRead@@YA_KPEAU__VFS_NODE__@@0PEA_KI@Z ; AuTTYSlaveRead
PUBLIC	?AuTTYSlaveWrite@@YA_KPEAU__VFS_NODE__@@0PEA_KI@Z ; AuTTYSlaveWrite
PUBLIC	?AuTTYSlaveClose@@YAHPEAU__VFS_NODE__@@0@Z	; AuTTYSlaveClose
PUBLIC	?AuTTYMasterClose@@YAHPEAU__VFS_NODE__@@0@Z	; AuTTYMasterClose
PUBLIC	?AuTTYIoControl@@YAHPEAU__VFS_NODE__@@HPEAX@Z	; AuTTYIoControl
PUBLIC	?AuTTYCreateMaster@@YAPEAU__VFS_NODE__@@PEAU__tty__@@@Z ; AuTTYCreateMaster
PUBLIC	?AuTTYCreateSlave@@YAPEAU__VFS_NODE__@@PEAU__tty__@@@Z ; AuTTYCreateSlave
PUBLIC	?AuTTYCreate@@YAHPEAH0@Z			; AuTTYCreate
EXTRN	?AuCircBufInitialise@@YAPEAU_circ_buf_@@PEAE_K@Z:PROC ; AuCircBufInitialise
EXTRN	?AuCircBufPut@@YAHPEAU_circ_buf_@@E@Z:PROC	; AuCircBufPut
EXTRN	?AuCircBufGet@@YAHPEAU_circ_buf_@@PEAE@Z:PROC	; AuCircBufGet
EXTRN	?CircBufEmpty@@YA_NPEAU_circ_buf_@@@Z:PROC	; CircBufEmpty
EXTRN	?CircBufFull@@YA_NPEAU_circ_buf_@@@Z:PROC	; CircBufFull
EXTRN	AuVFSFind:PROC
EXTRN	?AuDevFSCreateFile@@YAHPEAU__VFS_NODE__@@PEADE@Z:PROC ; AuDevFSCreateFile
EXTRN	AuDevFSAddFile:PROC
EXTRN	kmalloc:PROC
EXTRN	kfree:PROC
EXTRN	strcpy:PROC
EXTRN	memset:PROC
EXTRN	?sztoa@@YAPEAD_KPEADH@Z:PROC			; sztoa
EXTRN	AuGetCurrentThread:PROC
EXTRN	?AuProcessFindThread@@YAPEAU_au_proc_@@PEAU_au_thread_@@@Z:PROC ; AuProcessFindThread
EXTRN	?AuProcessGetFileDesc@@YAHPEAU_au_proc_@@@Z:PROC ; AuProcessGetFileDesc
pdata	SEGMENT
$pdata$?AuTTYInitialise@@YAXXZ DD imagerel $LN3
	DD	imagerel $LN3+90
	DD	imagerel $unwind$?AuTTYInitialise@@YAXXZ
$pdata$?AuTTYDelete@@YAXPEAU__tty__@@@Z DD imagerel $LN8
	DD	imagerel $LN8+161
	DD	imagerel $unwind$?AuTTYDelete@@YAXPEAU__tty__@@@Z
$pdata$?AuTTYWriteSlave@@YAXPEAU__tty__@@E@Z DD imagerel $LN3
	DD	imagerel $LN3+37
	DD	imagerel $unwind$?AuTTYWriteSlave@@YAXPEAU__tty__@@E@Z
$pdata$?AuTTYWriteMaster@@YAXPEAU__tty__@@E@Z DD imagerel $LN3
	DD	imagerel $LN3+37
	DD	imagerel $unwind$?AuTTYWriteMaster@@YAXPEAU__tty__@@E@Z
$pdata$?AuTTYProcessLine@@YAXPEAU__tty__@@E@Z DD imagerel $LN16
	DD	imagerel $LN16+357
	DD	imagerel $unwind$?AuTTYProcessLine@@YAXPEAU__tty__@@E@Z
$pdata$?AuTTYMasterRead@@YA_KPEAU__VFS_NODE__@@0PEA_KI@Z DD imagerel $LN8
	DD	imagerel $LN8+204
	DD	imagerel $unwind$?AuTTYMasterRead@@YA_KPEAU__VFS_NODE__@@0PEA_KI@Z
$pdata$?AuTTYMasterWrite@@YA_KPEAU__VFS_NODE__@@0PEA_KI@Z DD imagerel $LN7
	DD	imagerel $LN7+125
	DD	imagerel $unwind$?AuTTYMasterWrite@@YA_KPEAU__VFS_NODE__@@0PEA_KI@Z
$pdata$?AuTTYSlaveRead@@YA_KPEAU__VFS_NODE__@@0PEA_KI@Z DD imagerel $LN7
	DD	imagerel $LN7+135
	DD	imagerel $unwind$?AuTTYSlaveRead@@YA_KPEAU__VFS_NODE__@@0PEA_KI@Z
$pdata$?AuTTYSlaveWrite@@YA_KPEAU__VFS_NODE__@@0PEA_KI@Z DD imagerel $LN9
	DD	imagerel $LN9+186
	DD	imagerel $unwind$?AuTTYSlaveWrite@@YA_KPEAU__VFS_NODE__@@0PEA_KI@Z
$pdata$?AuTTYSlaveClose@@YAHPEAU__VFS_NODE__@@0@Z DD imagerel $LN4
	DD	imagerel $LN4+46
	DD	imagerel $unwind$?AuTTYSlaveClose@@YAHPEAU__VFS_NODE__@@0@Z
$pdata$?AuTTYIoControl@@YAHPEAU__VFS_NODE__@@HPEAX@Z DD imagerel $LN11
	DD	imagerel $LN11+339
	DD	imagerel $unwind$?AuTTYIoControl@@YAHPEAU__VFS_NODE__@@HPEAX@Z
$pdata$?AuTTYCreateMaster@@YAPEAU__VFS_NODE__@@PEAU__tty__@@@Z DD imagerel $LN3
	DD	imagerel $LN3+271
	DD	imagerel $unwind$?AuTTYCreateMaster@@YAPEAU__VFS_NODE__@@PEAU__tty__@@@Z
$pdata$?AuTTYCreateSlave@@YAPEAU__VFS_NODE__@@PEAU__tty__@@@Z DD imagerel $LN3
	DD	imagerel $LN3+271
	DD	imagerel $unwind$?AuTTYCreateSlave@@YAPEAU__VFS_NODE__@@PEAU__tty__@@@Z
$pdata$?AuTTYCreate@@YAHPEAH0@Z DD imagerel $LN6
	DD	imagerel $LN6+533
	DD	imagerel $unwind$?AuTTYCreate@@YAHPEAH0@Z
pdata	ENDS
xdata	SEGMENT
$unwind$?AuTTYInitialise@@YAXXZ DD 010401H
	DD	06204H
$unwind$?AuTTYDelete@@YAXPEAU__tty__@@@Z DD 010901H
	DD	04209H
$unwind$?AuTTYWriteSlave@@YAXPEAU__tty__@@E@Z DD 010d01H
	DD	0420dH
$unwind$?AuTTYWriteMaster@@YAXPEAU__tty__@@E@Z DD 010d01H
	DD	0420dH
$unwind$?AuTTYProcessLine@@YAXPEAU__tty__@@E@Z DD 010d01H
	DD	0620dH
$unwind$?AuTTYMasterRead@@YA_KPEAU__VFS_NODE__@@0PEA_KI@Z DD 011801H
	DD	08218H
$unwind$?AuTTYMasterWrite@@YA_KPEAU__VFS_NODE__@@0PEA_KI@Z DD 011801H
	DD	08218H
$unwind$?AuTTYSlaveRead@@YA_KPEAU__VFS_NODE__@@0PEA_KI@Z DD 011801H
	DD	08218H
$unwind$?AuTTYSlaveWrite@@YA_KPEAU__VFS_NODE__@@0PEA_KI@Z DD 011801H
	DD	08218H
$unwind$?AuTTYSlaveClose@@YAHPEAU__VFS_NODE__@@0@Z DD 010e01H
	DD	0620eH
$unwind$?AuTTYIoControl@@YAHPEAU__VFS_NODE__@@HPEAX@Z DD 011201H
	DD	0a212H
$unwind$?AuTTYCreateMaster@@YAPEAU__VFS_NODE__@@PEAU__tty__@@@Z DD 010901H
	DD	08209H
$unwind$?AuTTYCreateSlave@@YAPEAU__VFS_NODE__@@PEAU__tty__@@@Z DD 010901H
	DD	08209H
$unwind$?AuTTYCreate@@YAHPEAH0@Z DD 010e01H
	DD	0c20eH
xdata	ENDS
; Function compile flags: /Odtpy
; File e:\xeneva project\aurora\kernel\fs\tty.cpp
_TEXT	SEGMENT
fd$ = 32
tty$ = 40
proc$ = 48
inbuffer$ = 56
outbuffer$ = 64
thr$ = 72
master$ = 80
slave$ = 88
master_fx$ = 112
slave_fd$ = 120
?AuTTYCreate@@YAHPEAH0@Z PROC				; AuTTYCreate

; 298  : int AuTTYCreate(int* master_fx, int* slave_fd) {

$LN6:
	mov	QWORD PTR [rsp+16], rdx
	mov	QWORD PTR [rsp+8], rcx
	sub	rsp, 104				; 00000068H

; 299  : 
; 300  : 	AuThread* thr = AuGetCurrentThread();

	call	AuGetCurrentThread
	mov	QWORD PTR thr$[rsp], rax

; 301  : 	AuProcess* proc = AuProcessFindThread(thr);

	mov	rcx, QWORD PTR thr$[rsp]
	call	?AuProcessFindThread@@YAPEAU_au_proc_@@PEAU_au_thread_@@@Z ; AuProcessFindThread
	mov	QWORD PTR proc$[rsp], rax

; 302  : 	if (!proc)

	cmp	QWORD PTR proc$[rsp], 0
	jne	SHORT $LN3@AuTTYCreat

; 303  : 		return -1;

	mov	eax, -1
	jmp	$LN4@AuTTYCreat
$LN3@AuTTYCreat:

; 304  : 
; 305  : 	TTY* tty = (TTY*)kmalloc(sizeof(TTY));

	mov	ecx, 136				; 00000088H
	call	kmalloc
	mov	QWORD PTR tty$[rsp], rax

; 306  : 	memset(tty, 0, sizeof(TTY));

	mov	r8d, 136				; 00000088H
	xor	edx, edx
	mov	rcx, QWORD PTR tty$[rsp]
	call	memset

; 307  : 
; 308  : 	void* inbuffer = kmalloc(512);

	mov	ecx, 512				; 00000200H
	call	kmalloc
	mov	QWORD PTR inbuffer$[rsp], rax

; 309  : 	memset(inbuffer, 0, 512);

	mov	r8d, 512				; 00000200H
	xor	edx, edx
	mov	rcx, QWORD PTR inbuffer$[rsp]
	call	memset

; 310  : 	void* outbuffer = kmalloc(512);

	mov	ecx, 512				; 00000200H
	call	kmalloc
	mov	QWORD PTR outbuffer$[rsp], rax

; 311  : 	memset(outbuffer, 0, 512);

	mov	r8d, 512				; 00000200H
	xor	edx, edx
	mov	rcx, QWORD PTR outbuffer$[rsp]
	call	memset

; 312  : 
; 313  : 	tty->masterbuf = AuCircBufInitialise((uint8_t*)inbuffer, 512);

	mov	edx, 512				; 00000200H
	mov	rcx, QWORD PTR inbuffer$[rsp]
	call	?AuCircBufInitialise@@YAPEAU_circ_buf_@@PEAE_K@Z ; AuCircBufInitialise
	mov	rcx, QWORD PTR tty$[rsp]
	mov	QWORD PTR [rcx+72], rax

; 314  : 	tty->slavebuf = AuCircBufInitialise((uint8_t*)outbuffer, 512);

	mov	edx, 512				; 00000200H
	mov	rcx, QWORD PTR outbuffer$[rsp]
	call	?AuCircBufInitialise@@YAPEAU_circ_buf_@@PEAE_K@Z ; AuCircBufInitialise
	mov	rcx, QWORD PTR tty$[rsp]
	mov	QWORD PTR [rcx+80], rax

; 315  : 
; 316  : 	tty->id = slave_count;

	mov	rax, QWORD PTR tty$[rsp]
	movzx	ecx, BYTE PTR ?slave_count@@3_KA
	mov	BYTE PTR [rax], cl

; 317  : 	tty->master_written = 0;

	mov	rax, QWORD PTR tty$[rsp]
	mov	DWORD PTR [rax+104], 0

; 318  : 	tty->slave_written = 0;

	mov	rax, QWORD PTR tty$[rsp]
	mov	DWORD PTR [rax+108], 0

; 319  : 
; 320  : 	tty->masterbuf_ptr = inbuffer;

	mov	rax, QWORD PTR tty$[rsp]
	mov	rcx, QWORD PTR inbuffer$[rsp]
	mov	QWORD PTR [rax+88], rcx

; 321  : 	tty->slavebuf_ptr = outbuffer;

	mov	rax, QWORD PTR tty$[rsp]
	mov	rcx, QWORD PTR outbuffer$[rsp]
	mov	QWORD PTR [rax+96], rcx

; 322  : 
; 323  : 	tty->term.c_iflag = ICRNL | BRKINT;

	mov	rax, QWORD PTR tty$[rsp]
	mov	DWORD PTR [rax+12], 258			; 00000102H

; 324  : 	tty->term.c_oflag = ONLCR | OPOST;

	mov	rax, QWORD PTR tty$[rsp]
	mov	DWORD PTR [rax+16], 5

; 325  : 	tty->term.c_iflag = ECHO | ECHOE | ECHOK | ICANON | ISIG | IEXTEN;

	mov	rax, QWORD PTR tty$[rsp]
	mov	DWORD PTR [rax+12], 32827		; 0000803bH

; 326  : 	tty->term.c_cflag = CREAD | CS8;

	mov	rax, QWORD PTR tty$[rsp]
	mov	DWORD PTR [rax+20], 176			; 000000b0H

; 327  : 	tty->term.c_cc[VEOF] = 4;

	mov	eax, 1
	imul	rax, rax, 4
	mov	rcx, QWORD PTR tty$[rsp]
	mov	BYTE PTR [rcx+rax+29], 4

; 328  : 	tty->term.c_cc[VEOL] = 0;

	mov	eax, 1
	imul	rax, rax, 11
	mov	rcx, QWORD PTR tty$[rsp]
	mov	BYTE PTR [rcx+rax+29], 0

; 329  : 	tty->term.c_cc[VERASE] = 0x7f;

	mov	eax, 1
	imul	rax, rax, 2
	mov	rcx, QWORD PTR tty$[rsp]
	mov	BYTE PTR [rcx+rax+29], 127		; 0000007fH

; 330  : 
; 331  : 	AuVFSNode* master = AuTTYCreateMaster(tty);

	mov	rcx, QWORD PTR tty$[rsp]
	call	?AuTTYCreateMaster@@YAPEAU__VFS_NODE__@@PEAU__tty__@@@Z ; AuTTYCreateMaster
	mov	QWORD PTR master$[rsp], rax

; 332  : 	AuVFSNode* slave = AuTTYCreateSlave(tty);

	mov	rcx, QWORD PTR tty$[rsp]
	call	?AuTTYCreateSlave@@YAPEAU__VFS_NODE__@@PEAU__tty__@@@Z ; AuTTYCreateSlave
	mov	QWORD PTR slave$[rsp], rax

; 333  : 
; 334  : 	int fd = AuProcessGetFileDesc(proc);

	mov	rcx, QWORD PTR proc$[rsp]
	call	?AuProcessGetFileDesc@@YAHPEAU_au_proc_@@@Z ; AuProcessGetFileDesc
	mov	DWORD PTR fd$[rsp], eax

; 335  : 	if (fd == -1)

	cmp	DWORD PTR fd$[rsp], -1
	jne	SHORT $LN2@AuTTYCreat

; 336  : 		return 0;

	xor	eax, eax
	jmp	SHORT $LN4@AuTTYCreat
$LN2@AuTTYCreat:

; 337  : 	proc->fds[fd] = master;

	movsxd	rax, DWORD PTR fd$[rsp]
	mov	rcx, QWORD PTR proc$[rsp]
	mov	rdx, QWORD PTR master$[rsp]
	mov	QWORD PTR [rcx+rax*8+551], rdx

; 338  : 	*master_fx = fd;

	mov	rax, QWORD PTR master_fx$[rsp]
	mov	ecx, DWORD PTR fd$[rsp]
	mov	DWORD PTR [rax], ecx

; 339  : 
; 340  : 	fd = AuProcessGetFileDesc(proc);

	mov	rcx, QWORD PTR proc$[rsp]
	call	?AuProcessGetFileDesc@@YAHPEAU_au_proc_@@@Z ; AuProcessGetFileDesc
	mov	DWORD PTR fd$[rsp], eax

; 341  : 	if (fd == -1)

	cmp	DWORD PTR fd$[rsp], -1
	jne	SHORT $LN1@AuTTYCreat

; 342  : 		return 0;

	xor	eax, eax
	jmp	SHORT $LN4@AuTTYCreat
$LN1@AuTTYCreat:

; 343  : 	proc->fds[fd] = slave;

	movsxd	rax, DWORD PTR fd$[rsp]
	mov	rcx, QWORD PTR proc$[rsp]
	mov	rdx, QWORD PTR slave$[rsp]
	mov	QWORD PTR [rcx+rax*8+551], rdx

; 344  : 	*slave_fd = fd;

	mov	rax, QWORD PTR slave_fd$[rsp]
	mov	ecx, DWORD PTR fd$[rsp]
	mov	DWORD PTR [rax], ecx

; 345  : 
; 346  : 	return 1;

	mov	eax, 1
$LN4@AuTTYCreat:

; 347  : }

	add	rsp, 104				; 00000068H
	ret	0
?AuTTYCreate@@YAHPEAH0@Z ENDP				; AuTTYCreate
_TEXT	ENDS
; Function compile flags: /Odtpy
; File e:\xeneva project\aurora\kernel\fs\tty.cpp
_TEXT	SEGMENT
name$ = 32
node$ = 40
fs$ = 48
tty$ = 80
?AuTTYCreateSlave@@YAPEAU__VFS_NODE__@@PEAU__tty__@@@Z PROC ; AuTTYCreateSlave

; 272  : AuVFSNode* AuTTYCreateSlave(TTY* tty) {

$LN3:
	mov	QWORD PTR [rsp+8], rcx
	sub	rsp, 72					; 00000048H

; 273  : 	AuVFSNode* fs = AuVFSFind("/dev");

	lea	rcx, OFFSET FLAT:$SG3407
	call	AuVFSFind
	mov	QWORD PTR fs$[rsp], rax

; 274  : 
; 275  : 	AuVFSNode* node = (AuVFSNode*)kmalloc(sizeof(AuVFSNode));

	mov	ecx, 159				; 0000009fH
	call	kmalloc
	mov	QWORD PTR node$[rsp], rax

; 276  : 	memset(node, 0, sizeof(AuVFSNode));

	mov	r8d, 159				; 0000009fH
	xor	edx, edx
	mov	rcx, QWORD PTR node$[rsp]
	call	memset

; 277  : 	char name[5];
; 278  : 	strcpy(name, "ttys");

	lea	rdx, OFFSET FLAT:$SG3413
	lea	rcx, QWORD PTR name$[rsp]
	call	strcpy

; 279  : 	sztoa(slave_count, name + 4, 10);

	lea	rax, QWORD PTR name$[rsp+4]
	mov	r8d, 10
	mov	rdx, rax
	mov	rcx, QWORD PTR ?slave_count@@3_KA	; slave_count
	call	?sztoa@@YAPEAD_KPEADH@Z			; sztoa

; 280  : 	strcpy(node->filename, name);

	mov	rax, QWORD PTR node$[rsp]
	lea	rdx, QWORD PTR name$[rsp]
	mov	rcx, rax
	call	strcpy

; 281  : 
; 282  : 	node->size = 512;

	mov	rax, QWORD PTR node$[rsp]
	mov	DWORD PTR [rax+32], 512			; 00000200H

; 283  : 	node->flags = FS_FLAG_GENERAL | FS_FLAG_TTY;

	mov	rax, QWORD PTR node$[rsp]
	mov	BYTE PTR [rax+61], 4

; 284  : 	node->device = tty;

	mov	rax, QWORD PTR node$[rsp]
	mov	rcx, QWORD PTR tty$[rsp]
	mov	QWORD PTR [rax+63], rcx

; 285  : 	node->read = AuTTYSlaveRead;

	mov	rax, QWORD PTR node$[rsp]
	lea	rcx, OFFSET FLAT:?AuTTYSlaveRead@@YA_KPEAU__VFS_NODE__@@0PEA_KI@Z ; AuTTYSlaveRead
	mov	QWORD PTR [rax+79], rcx

; 286  : 	node->write = AuTTYSlaveWrite;

	mov	rax, QWORD PTR node$[rsp]
	lea	rcx, OFFSET FLAT:?AuTTYSlaveWrite@@YA_KPEAU__VFS_NODE__@@0PEA_KI@Z ; AuTTYSlaveWrite
	mov	QWORD PTR [rax+87], rcx

; 287  : 	node->close = AuTTYSlaveClose;

	mov	rax, QWORD PTR node$[rsp]
	lea	rcx, OFFSET FLAT:?AuTTYSlaveClose@@YAHPEAU__VFS_NODE__@@0@Z ; AuTTYSlaveClose
	mov	QWORD PTR [rax+127], rcx

; 288  : 	node->iocontrol = AuTTYIoControl;

	mov	rax, QWORD PTR node$[rsp]
	lea	rcx, OFFSET FLAT:?AuTTYIoControl@@YAHPEAU__VFS_NODE__@@HPEAX@Z ; AuTTYIoControl
	mov	QWORD PTR [rax+151], rcx

; 289  : 
; 290  : 	AuDevFSAddFile(fs, "/dev/tty", node);

	mov	r8, QWORD PTR node$[rsp]
	lea	rdx, OFFSET FLAT:$SG3414
	mov	rcx, QWORD PTR fs$[rsp]
	call	AuDevFSAddFile

; 291  : 	slave_count++;

	mov	rax, QWORD PTR ?slave_count@@3_KA	; slave_count
	inc	rax
	mov	QWORD PTR ?slave_count@@3_KA, rax	; slave_count

; 292  : 	return node;

	mov	rax, QWORD PTR node$[rsp]

; 293  : }

	add	rsp, 72					; 00000048H
	ret	0
?AuTTYCreateSlave@@YAPEAU__VFS_NODE__@@PEAU__tty__@@@Z ENDP ; AuTTYCreateSlave
_TEXT	ENDS
; Function compile flags: /Odtpy
; File e:\xeneva project\aurora\kernel\fs\tty.cpp
_TEXT	SEGMENT
name$ = 32
node$ = 40
fs$ = 48
tty$ = 80
?AuTTYCreateMaster@@YAPEAU__VFS_NODE__@@PEAU__tty__@@@Z PROC ; AuTTYCreateMaster

; 244  : AuVFSNode* AuTTYCreateMaster(TTY* tty) {

$LN3:
	mov	QWORD PTR [rsp+8], rcx
	sub	rsp, 72					; 00000048H

; 245  : 	AuVFSNode* fs = AuVFSFind("/dev");

	lea	rcx, OFFSET FLAT:$SG3395
	call	AuVFSFind
	mov	QWORD PTR fs$[rsp], rax

; 246  : 
; 247  : 	AuVFSNode* node = (AuVFSNode*)kmalloc(sizeof(AuVFSNode));

	mov	ecx, 159				; 0000009fH
	call	kmalloc
	mov	QWORD PTR node$[rsp], rax

; 248  : 	memset(node, 0, sizeof(AuVFSNode));

	mov	r8d, 159				; 0000009fH
	xor	edx, edx
	mov	rcx, QWORD PTR node$[rsp]
	call	memset

; 249  : 	char name[5];
; 250  : 	strcpy(name, "ttym");

	lea	rdx, OFFSET FLAT:$SG3401
	lea	rcx, QWORD PTR name$[rsp]
	call	strcpy

; 251  : 	sztoa(master_count, name + 4, 10);

	lea	rax, QWORD PTR name$[rsp+4]
	mov	r8d, 10
	mov	rdx, rax
	mov	rcx, QWORD PTR ?master_count@@3_KA	; master_count
	call	?sztoa@@YAPEAD_KPEADH@Z			; sztoa

; 252  : 	strcpy(node->filename, name);

	mov	rax, QWORD PTR node$[rsp]
	lea	rdx, QWORD PTR name$[rsp]
	mov	rcx, rax
	call	strcpy

; 253  : 
; 254  : 	node->size = 512;

	mov	rax, QWORD PTR node$[rsp]
	mov	DWORD PTR [rax+32], 512			; 00000200H

; 255  : 	node->flags = FS_FLAG_GENERAL | FS_FLAG_TTY;

	mov	rax, QWORD PTR node$[rsp]
	mov	BYTE PTR [rax+61], 4

; 256  : 	node->device = tty;

	mov	rax, QWORD PTR node$[rsp]
	mov	rcx, QWORD PTR tty$[rsp]
	mov	QWORD PTR [rax+63], rcx

; 257  : 	node->read = AuTTYMasterRead;

	mov	rax, QWORD PTR node$[rsp]
	lea	rcx, OFFSET FLAT:?AuTTYMasterRead@@YA_KPEAU__VFS_NODE__@@0PEA_KI@Z ; AuTTYMasterRead
	mov	QWORD PTR [rax+79], rcx

; 258  : 	node->write = AuTTYMasterWrite;

	mov	rax, QWORD PTR node$[rsp]
	lea	rcx, OFFSET FLAT:?AuTTYMasterWrite@@YA_KPEAU__VFS_NODE__@@0PEA_KI@Z ; AuTTYMasterWrite
	mov	QWORD PTR [rax+87], rcx

; 259  : 	node->close = AuTTYMasterClose;

	mov	rax, QWORD PTR node$[rsp]
	lea	rcx, OFFSET FLAT:?AuTTYMasterClose@@YAHPEAU__VFS_NODE__@@0@Z ; AuTTYMasterClose
	mov	QWORD PTR [rax+127], rcx

; 260  : 	node->iocontrol = AuTTYIoControl;

	mov	rax, QWORD PTR node$[rsp]
	lea	rcx, OFFSET FLAT:?AuTTYIoControl@@YAHPEAU__VFS_NODE__@@HPEAX@Z ; AuTTYIoControl
	mov	QWORD PTR [rax+151], rcx

; 261  : 
; 262  : 	AuDevFSAddFile(fs, "/dev/tty", node);

	mov	r8, QWORD PTR node$[rsp]
	lea	rdx, OFFSET FLAT:$SG3402
	mov	rcx, QWORD PTR fs$[rsp]
	call	AuDevFSAddFile

; 263  : 	master_count++;

	mov	rax, QWORD PTR ?master_count@@3_KA	; master_count
	inc	rax
	mov	QWORD PTR ?master_count@@3_KA, rax	; master_count

; 264  : 	return node;

	mov	rax, QWORD PTR node$[rsp]

; 265  : }

	add	rsp, 72					; 00000048H
	ret	0
?AuTTYCreateMaster@@YAPEAU__VFS_NODE__@@PEAU__tty__@@@Z ENDP ; AuTTYCreateMaster
_TEXT	ENDS
; Function compile flags: /Odtpy
; File e:\xeneva project\aurora\kernel\fs\tty.cpp
_TEXT	SEGMENT
tv66 = 32
tty$ = 40
sz$1 = 48
sz$2 = 56
currthr$3 = 64
proc$4 = 72
file$ = 96
code$ = 104
arg$ = 112
?AuTTYIoControl@@YAHPEAU__VFS_NODE__@@HPEAX@Z PROC	; AuTTYIoControl

; 201  : int AuTTYIoControl(AuVFSNode* file, int code, void* arg) {

$LN11:
	mov	QWORD PTR [rsp+24], r8
	mov	DWORD PTR [rsp+16], edx
	mov	QWORD PTR [rsp+8], rcx
	sub	rsp, 88					; 00000058H

; 202  : 	TTY* tty = (TTY*)file->device;

	mov	rax, QWORD PTR file$[rsp]
	mov	rax, QWORD PTR [rax+63]
	mov	QWORD PTR tty$[rsp], rax

; 203  : 	if (!tty)

	cmp	QWORD PTR tty$[rsp], 0
	jne	SHORT $LN8@AuTTYIoCon

; 204  : 		return 0;

	xor	eax, eax
	jmp	$LN9@AuTTYIoCon
$LN8@AuTTYIoCon:

; 205  : 
; 206  : 	switch (code) {

	mov	eax, DWORD PTR code$[rsp]
	mov	DWORD PTR tv66[rsp], eax
	cmp	DWORD PTR tv66[rsp], 21505		; 00005401H
	je	SHORT $LN4@AuTTYIoCon
	cmp	DWORD PTR tv66[rsp], 21506		; 00005402H
	je	SHORT $LN5@AuTTYIoCon
	cmp	DWORD PTR tv66[rsp], 21509		; 00005405H
	je	$LN3@AuTTYIoCon
	jmp	$LN6@AuTTYIoCon
$LN5@AuTTYIoCon:

; 207  : 	case TIOCSWINSZ: {
; 208  : 						 WinSize *sz = (WinSize*)arg;

	mov	rax, QWORD PTR arg$[rsp]
	mov	QWORD PTR sz$1[rsp], rax

; 209  : 						 tty->size.ws_col = sz->ws_col;

	mov	rax, QWORD PTR tty$[rsp]
	mov	rcx, QWORD PTR sz$1[rsp]
	movzx	ecx, WORD PTR [rcx+2]
	mov	WORD PTR [rax+4], cx

; 210  : 						 tty->size.ws_row = sz->ws_row;

	mov	rax, QWORD PTR tty$[rsp]
	mov	rcx, QWORD PTR sz$1[rsp]
	movzx	ecx, WORD PTR [rcx]
	mov	WORD PTR [rax+2], cx

; 211  : 						 tty->size.ws_xpixel = sz->ws_xpixel;

	mov	rax, QWORD PTR tty$[rsp]
	mov	rcx, QWORD PTR sz$1[rsp]
	movzx	ecx, WORD PTR [rcx+4]
	mov	WORD PTR [rax+6], cx

; 212  : 						 tty->size.ws_ypixel = sz->ws_ypixel;

	mov	rax, QWORD PTR tty$[rsp]
	mov	rcx, QWORD PTR sz$1[rsp]
	movzx	ecx, WORD PTR [rcx+6]
	mov	WORD PTR [rax+8], cx

; 213  : 						 break;

	jmp	$LN6@AuTTYIoCon
$LN4@AuTTYIoCon:

; 214  : 	}
; 215  : 	case TIOCGWINSZ: {
; 216  : 						 WinSize* sz = (WinSize*)arg;

	mov	rax, QWORD PTR arg$[rsp]
	mov	QWORD PTR sz$2[rsp], rax

; 217  : 						 sz->ws_col = tty->size.ws_col;

	mov	rax, QWORD PTR sz$2[rsp]
	mov	rcx, QWORD PTR tty$[rsp]
	movzx	ecx, WORD PTR [rcx+4]
	mov	WORD PTR [rax+2], cx

; 218  : 						 sz->ws_row = tty->size.ws_row;

	mov	rax, QWORD PTR sz$2[rsp]
	mov	rcx, QWORD PTR tty$[rsp]
	movzx	ecx, WORD PTR [rcx+2]
	mov	WORD PTR [rax], cx

; 219  : 						 sz->ws_xpixel = tty->size.ws_xpixel;

	mov	rax, QWORD PTR sz$2[rsp]
	mov	rcx, QWORD PTR tty$[rsp]
	movzx	ecx, WORD PTR [rcx+6]
	mov	WORD PTR [rax+4], cx

; 220  : 						 sz->ws_ypixel = tty->size.ws_ypixel;

	mov	rax, QWORD PTR sz$2[rsp]
	mov	rcx, QWORD PTR tty$[rsp]
	movzx	ecx, WORD PTR [rcx+8]
	mov	WORD PTR [rax+6], cx

; 221  : 						 break;

	jmp	SHORT $LN6@AuTTYIoCon
$LN3@AuTTYIoCon:

; 222  : 	}
; 223  : 
; 224  : 	case TIOSPGRP: {
; 225  : 					   AuThread* currthr = AuGetCurrentThread();

	call	AuGetCurrentThread
	mov	QWORD PTR currthr$3[rsp], rax

; 226  : 					   if (!currthr)

	cmp	QWORD PTR currthr$3[rsp], 0
	jne	SHORT $LN2@AuTTYIoCon

; 227  : 						   return 0;

	xor	eax, eax
	jmp	SHORT $LN9@AuTTYIoCon
$LN2@AuTTYIoCon:

; 228  : 					   AuProcess* proc = AuProcessFindThread(currthr);

	mov	rcx, QWORD PTR currthr$3[rsp]
	call	?AuProcessFindThread@@YAPEAU_au_proc_@@PEAU_au_thread_@@@Z ; AuProcessFindThread
	mov	QWORD PTR proc$4[rsp], rax

; 229  : 					   if (!proc)

	cmp	QWORD PTR proc$4[rsp], 0
	jne	SHORT $LN1@AuTTYIoCon

; 230  : 						   return 0;

	xor	eax, eax
	jmp	SHORT $LN9@AuTTYIoCon
$LN1@AuTTYIoCon:

; 231  : 					   tty->slave_pid = proc->proc_id;

	mov	rax, QWORD PTR tty$[rsp]
	mov	rcx, QWORD PTR proc$4[rsp]
	movzx	ecx, WORD PTR [rcx]
	mov	WORD PTR [rax+114], cx
$LN6@AuTTYIoCon:

; 232  : 					   break;
; 233  : 	}
; 234  : 	}
; 235  : 
; 236  : 	return 1;

	mov	eax, 1
$LN9@AuTTYIoCon:

; 237  : }

	add	rsp, 88					; 00000058H
	ret	0
?AuTTYIoControl@@YAHPEAU__VFS_NODE__@@HPEAX@Z ENDP	; AuTTYIoControl
_TEXT	ENDS
; Function compile flags: /Odtpy
; File e:\xeneva project\aurora\kernel\fs\tty.cpp
_TEXT	SEGMENT
fs$ = 8
file$ = 16
?AuTTYMasterClose@@YAHPEAU__VFS_NODE__@@0@Z PROC	; AuTTYMasterClose

; 197  : int AuTTYMasterClose(AuVFSNode* fs, AuVFSNode* file) {

	mov	QWORD PTR [rsp+16], rdx
	mov	QWORD PTR [rsp+8], rcx

; 198  : 	return 0;

	xor	eax, eax

; 199  : }

	ret	0
?AuTTYMasterClose@@YAHPEAU__VFS_NODE__@@0@Z ENDP	; AuTTYMasterClose
_TEXT	ENDS
; Function compile flags: /Odtpy
; File e:\xeneva project\aurora\kernel\fs\tty.cpp
_TEXT	SEGMENT
_fs$ = 32
fs$ = 64
file$ = 72
?AuTTYSlaveClose@@YAHPEAU__VFS_NODE__@@0@Z PROC		; AuTTYSlaveClose

; 190  : int AuTTYSlaveClose(AuVFSNode* fs, AuVFSNode* file) {

$LN4:
	mov	QWORD PTR [rsp+16], rdx
	mov	QWORD PTR [rsp+8], rcx
	sub	rsp, 56					; 00000038H

; 191  : 	AuVFSNode* _fs = AuVFSFind("/dev");

	lea	rcx, OFFSET FLAT:$SG3362
	call	AuVFSFind
	mov	QWORD PTR _fs$[rsp], rax

; 192  : 	if (!_fs)

	cmp	QWORD PTR _fs$[rsp], 0
	jne	SHORT $LN1@AuTTYSlave

; 193  : 		return 0;

	xor	eax, eax
$LN1@AuTTYSlave:

; 194  : 	
; 195  : }

	add	rsp, 56					; 00000038H
	ret	0
?AuTTYSlaveClose@@YAHPEAU__VFS_NODE__@@0@Z ENDP		; AuTTYSlaveClose
_TEXT	ENDS
; Function compile flags: /Odtpy
; File e:\xeneva project\aurora\kernel\fs\tty.cpp
_TEXT	SEGMENT
i$1 = 32
tty$ = 40
aligned_buf$ = 48
fsys$ = 80
file$ = 88
buffer$ = 96
len$ = 104
?AuTTYSlaveWrite@@YA_KPEAU__VFS_NODE__@@0PEA_KI@Z PROC	; AuTTYSlaveWrite

; 173  : size_t AuTTYSlaveWrite(AuVFSNode* fsys, AuVFSNode* file, uint64_t* buffer, uint32_t len) {

$LN9:
	mov	DWORD PTR [rsp+32], r9d
	mov	QWORD PTR [rsp+24], r8
	mov	QWORD PTR [rsp+16], rdx
	mov	QWORD PTR [rsp+8], rcx
	sub	rsp, 72					; 00000048H

; 174  : 	uint8_t* aligned_buf = (uint8_t*)buffer;

	mov	rax, QWORD PTR buffer$[rsp]
	mov	QWORD PTR aligned_buf$[rsp], rax

; 175  : 	TTY* tty = (TTY*)file->device;

	mov	rax, QWORD PTR file$[rsp]
	mov	rax, QWORD PTR [rax+63]
	mov	QWORD PTR tty$[rsp], rax

; 176  : 	if (!tty)

	cmp	QWORD PTR tty$[rsp], 0
	jne	SHORT $LN6@AuTTYSlave

; 177  : 		return 0;

	xor	eax, eax
	jmp	SHORT $LN7@AuTTYSlave
$LN6@AuTTYSlave:

; 178  : 	if (len > 512)

	cmp	DWORD PTR len$[rsp], 512		; 00000200H
	jbe	SHORT $LN5@AuTTYSlave

; 179  : 		len = 512;

	mov	DWORD PTR len$[rsp], 512		; 00000200H
$LN5@AuTTYSlave:

; 180  : 	if (CircBufFull(tty->masterbuf)) {

	mov	rax, QWORD PTR tty$[rsp]
	mov	rcx, QWORD PTR [rax+72]
	call	?CircBufFull@@YA_NPEAU_circ_buf_@@@Z	; CircBufFull
	movzx	eax, al
	test	eax, eax
	je	SHORT $LN4@AuTTYSlave

; 181  : 		return 0;

	xor	eax, eax
	jmp	SHORT $LN7@AuTTYSlave
$LN4@AuTTYSlave:

; 182  : 	}
; 183  : 
; 184  : 	for (int i = 0; i < len; i++) {

	mov	DWORD PTR i$1[rsp], 0
	jmp	SHORT $LN3@AuTTYSlave
$LN2@AuTTYSlave:
	mov	eax, DWORD PTR i$1[rsp]
	inc	eax
	mov	DWORD PTR i$1[rsp], eax
$LN3@AuTTYSlave:
	mov	eax, DWORD PTR len$[rsp]
	cmp	DWORD PTR i$1[rsp], eax
	jae	SHORT $LN1@AuTTYSlave

; 185  : 		AuCircBufPut(tty->masterbuf, aligned_buf[i]);

	movsxd	rax, DWORD PTR i$1[rsp]
	mov	rcx, QWORD PTR aligned_buf$[rsp]
	movzx	edx, BYTE PTR [rcx+rax]
	mov	rax, QWORD PTR tty$[rsp]
	mov	rcx, QWORD PTR [rax+72]
	call	?AuCircBufPut@@YAHPEAU_circ_buf_@@E@Z	; AuCircBufPut

; 186  : 		tty->master_written++;

	mov	rax, QWORD PTR tty$[rsp]
	mov	eax, DWORD PTR [rax+104]
	inc	eax
	mov	rcx, QWORD PTR tty$[rsp]
	mov	DWORD PTR [rcx+104], eax

; 187  : 	}

	jmp	SHORT $LN2@AuTTYSlave
$LN1@AuTTYSlave:
$LN7@AuTTYSlave:

; 188  : }

	add	rsp, 72					; 00000048H
	ret	0
?AuTTYSlaveWrite@@YA_KPEAU__VFS_NODE__@@0PEA_KI@Z ENDP	; AuTTYSlaveWrite
_TEXT	ENDS
; Function compile flags: /Odtpy
; File e:\xeneva project\aurora\kernel\fs\tty.cpp
_TEXT	SEGMENT
i$1 = 32
tty$ = 40
aligned_buf$ = 48
fsys$ = 80
file$ = 88
buffer$ = 96
len$ = 104
?AuTTYSlaveRead@@YA_KPEAU__VFS_NODE__@@0PEA_KI@Z PROC	; AuTTYSlaveRead

; 158  : size_t AuTTYSlaveRead(AuVFSNode* fsys, AuVFSNode* file, uint64_t* buffer, uint32_t len) {

$LN7:
	mov	DWORD PTR [rsp+32], r9d
	mov	QWORD PTR [rsp+24], r8
	mov	QWORD PTR [rsp+16], rdx
	mov	QWORD PTR [rsp+8], rcx
	sub	rsp, 72					; 00000048H

; 159  : 	uint8_t* aligned_buf = (uint8_t*)buffer;

	mov	rax, QWORD PTR buffer$[rsp]
	mov	QWORD PTR aligned_buf$[rsp], rax

; 160  : 	TTY* tty = (TTY*)file->device;

	mov	rax, QWORD PTR file$[rsp]
	mov	rax, QWORD PTR [rax+63]
	mov	QWORD PTR tty$[rsp], rax

; 161  : 	if (!tty)

	cmp	QWORD PTR tty$[rsp], 0
	jne	SHORT $LN4@AuTTYSlave

; 162  : 		return 0;

	xor	eax, eax
	jmp	SHORT $LN5@AuTTYSlave
$LN4@AuTTYSlave:

; 163  : 
; 164  : 	for (int i = 0; i < len; i++)

	mov	DWORD PTR i$1[rsp], 0
	jmp	SHORT $LN3@AuTTYSlave
$LN2@AuTTYSlave:
	mov	eax, DWORD PTR i$1[rsp]
	inc	eax
	mov	DWORD PTR i$1[rsp], eax
$LN3@AuTTYSlave:
	mov	eax, DWORD PTR len$[rsp]
	cmp	DWORD PTR i$1[rsp], eax
	jae	SHORT $LN1@AuTTYSlave

; 165  : 		AuCircBufGet(tty->slavebuf, &aligned_buf[i]);

	movsxd	rax, DWORD PTR i$1[rsp]
	mov	rcx, QWORD PTR aligned_buf$[rsp]
	add	rcx, rax
	mov	rax, rcx
	mov	rdx, rax
	mov	rax, QWORD PTR tty$[rsp]
	mov	rcx, QWORD PTR [rax+80]
	call	?AuCircBufGet@@YAHPEAU_circ_buf_@@PEAE@Z ; AuCircBufGet
	jmp	SHORT $LN2@AuTTYSlave
$LN1@AuTTYSlave:

; 166  : 
; 167  : 	return 1;

	mov	eax, 1
$LN5@AuTTYSlave:

; 168  : }

	add	rsp, 72					; 00000048H
	ret	0
?AuTTYSlaveRead@@YA_KPEAU__VFS_NODE__@@0PEA_KI@Z ENDP	; AuTTYSlaveRead
_TEXT	ENDS
; Function compile flags: /Odtpy
; File e:\xeneva project\aurora\kernel\fs\tty.cpp
_TEXT	SEGMENT
i$1 = 32
type$ = 40
aligned_buf$ = 48
fs$ = 80
file$ = 88
buffer$ = 96
len$ = 104
?AuTTYMasterWrite@@YA_KPEAU__VFS_NODE__@@0PEA_KI@Z PROC	; AuTTYMasterWrite

; 147  : size_t AuTTYMasterWrite(AuVFSNode* fs, AuVFSNode* file, uint64_t* buffer, uint32_t len) {

$LN7:
	mov	DWORD PTR [rsp+32], r9d
	mov	QWORD PTR [rsp+24], r8
	mov	QWORD PTR [rsp+16], rdx
	mov	QWORD PTR [rsp+8], rcx
	sub	rsp, 72					; 00000048H

; 148  : 	uint8_t* aligned_buf = (uint8_t*)buffer;

	mov	rax, QWORD PTR buffer$[rsp]
	mov	QWORD PTR aligned_buf$[rsp], rax

; 149  : 	TTY* type = (TTY*)file->device;

	mov	rax, QWORD PTR file$[rsp]
	mov	rax, QWORD PTR [rax+63]
	mov	QWORD PTR type$[rsp], rax

; 150  : 	if (!type)

	cmp	QWORD PTR type$[rsp], 0
	jne	SHORT $LN4@AuTTYMaste

; 151  : 		return 0;

	xor	eax, eax
	jmp	SHORT $LN5@AuTTYMaste
$LN4@AuTTYMaste:

; 152  : 
; 153  : 	for (int i = 0; i < len; i++) {

	mov	DWORD PTR i$1[rsp], 0
	jmp	SHORT $LN3@AuTTYMaste
$LN2@AuTTYMaste:
	mov	eax, DWORD PTR i$1[rsp]
	inc	eax
	mov	DWORD PTR i$1[rsp], eax
$LN3@AuTTYMaste:
	mov	eax, DWORD PTR len$[rsp]
	cmp	DWORD PTR i$1[rsp], eax
	jae	SHORT $LN1@AuTTYMaste

; 154  : 		AuCircBufPut(type->slavebuf, aligned_buf[i]);

	movsxd	rax, DWORD PTR i$1[rsp]
	mov	rcx, QWORD PTR aligned_buf$[rsp]
	movzx	edx, BYTE PTR [rcx+rax]
	mov	rax, QWORD PTR type$[rsp]
	mov	rcx, QWORD PTR [rax+80]
	call	?AuCircBufPut@@YAHPEAU_circ_buf_@@E@Z	; AuCircBufPut

; 155  : 	}

	jmp	SHORT $LN2@AuTTYMaste
$LN1@AuTTYMaste:
$LN5@AuTTYMaste:

; 156  : }

	add	rsp, 72					; 00000048H
	ret	0
?AuTTYMasterWrite@@YA_KPEAU__VFS_NODE__@@0PEA_KI@Z ENDP	; AuTTYMasterWrite
_TEXT	ENDS
; Function compile flags: /Odtpy
; File e:\xeneva project\aurora\kernel\fs\tty.cpp
_TEXT	SEGMENT
i$1 = 32
type$ = 40
bytes_to_ret$ = 48
aligned_buf$ = 56
fs$ = 80
file$ = 88
buffer$ = 96
len$ = 104
?AuTTYMasterRead@@YA_KPEAU__VFS_NODE__@@0PEA_KI@Z PROC	; AuTTYMasterRead

; 124  : size_t AuTTYMasterRead(AuVFSNode* fs, AuVFSNode* file, uint64_t* buffer, uint32_t len) {

$LN8:
	mov	DWORD PTR [rsp+32], r9d
	mov	QWORD PTR [rsp+24], r8
	mov	QWORD PTR [rsp+16], rdx
	mov	QWORD PTR [rsp+8], rcx
	sub	rsp, 72					; 00000048H

; 125  : 	TTY* type = (TTY*)file->device;

	mov	rax, QWORD PTR file$[rsp]
	mov	rax, QWORD PTR [rax+63]
	mov	QWORD PTR type$[rsp], rax

; 126  : 	if (!type)

	cmp	QWORD PTR type$[rsp], 0
	jne	SHORT $LN5@AuTTYMaste

; 127  : 		return 0;

	xor	eax, eax
	jmp	$LN6@AuTTYMaste
$LN5@AuTTYMaste:

; 128  : 
; 129  : 	size_t bytes_to_ret = 0;

	mov	QWORD PTR bytes_to_ret$[rsp], 0

; 130  : 	uint8_t* aligned_buf = (uint8_t*)buffer;

	mov	rax, QWORD PTR buffer$[rsp]
	mov	QWORD PTR aligned_buf$[rsp], rax

; 131  : 
; 132  : 	if (CircBufEmpty(type->masterbuf))

	mov	rax, QWORD PTR type$[rsp]
	mov	rcx, QWORD PTR [rax+72]
	call	?CircBufEmpty@@YA_NPEAU_circ_buf_@@@Z	; CircBufEmpty
	movzx	eax, al
	test	eax, eax
	je	SHORT $LN4@AuTTYMaste

; 133  : 		return bytes_to_ret;

	mov	rax, QWORD PTR bytes_to_ret$[rsp]
	jmp	SHORT $LN6@AuTTYMaste
$LN4@AuTTYMaste:

; 134  : 
; 135  : 	for (int i = 0; i < type->master_written; i++) {

	mov	DWORD PTR i$1[rsp], 0
	jmp	SHORT $LN3@AuTTYMaste
$LN2@AuTTYMaste:
	mov	eax, DWORD PTR i$1[rsp]
	inc	eax
	mov	DWORD PTR i$1[rsp], eax
$LN3@AuTTYMaste:
	mov	rax, QWORD PTR type$[rsp]
	mov	eax, DWORD PTR [rax+104]
	cmp	DWORD PTR i$1[rsp], eax
	jge	SHORT $LN1@AuTTYMaste

; 136  : 		AuCircBufGet(type->masterbuf, &aligned_buf[i]);

	movsxd	rax, DWORD PTR i$1[rsp]
	mov	rcx, QWORD PTR aligned_buf$[rsp]
	add	rcx, rax
	mov	rax, rcx
	mov	rdx, rax
	mov	rax, QWORD PTR type$[rsp]
	mov	rcx, QWORD PTR [rax+72]
	call	?AuCircBufGet@@YAHPEAU_circ_buf_@@PEAE@Z ; AuCircBufGet

; 137  : 		bytes_to_ret++;

	mov	rax, QWORD PTR bytes_to_ret$[rsp]
	inc	rax
	mov	QWORD PTR bytes_to_ret$[rsp], rax

; 138  : 	}

	jmp	SHORT $LN2@AuTTYMaste
$LN1@AuTTYMaste:

; 139  : 
; 140  : 	type->master_written = 0;

	mov	rax, QWORD PTR type$[rsp]
	mov	DWORD PTR [rax+104], 0

; 141  : 	return bytes_to_ret;

	mov	rax, QWORD PTR bytes_to_ret$[rsp]
$LN6@AuTTYMaste:

; 142  : }

	add	rsp, 72					; 00000048H
	ret	0
?AuTTYMasterRead@@YA_KPEAU__VFS_NODE__@@0PEA_KI@Z ENDP	; AuTTYMasterRead
_TEXT	ENDS
; Function compile flags: /Odtpy
; File e:\xeneva project\aurora\kernel\fs\tty.cpp
_TEXT	SEGMENT
sig$1 = 32
tty$ = 64
c$ = 72
?AuTTYProcessLine@@YAXPEAU__tty__@@E@Z PROC		; AuTTYProcessLine

; 87   : void AuTTYProcessLine(TTY* tty, uint8_t c) {

$LN16:
	mov	BYTE PTR [rsp+16], dl
	mov	QWORD PTR [rsp+8], rcx
	sub	rsp, 56					; 00000038H

; 88   : 	if (tty->term.c_lflag & ISIG) {

	mov	rax, QWORD PTR tty$[rsp]
	mov	eax, DWORD PTR [rax+24]
	and	eax, 1
	test	eax, eax
	je	$LN13@AuTTYProce

; 89   : 		int sig = -1;

	mov	DWORD PTR sig$1[rsp], -1

; 90   : 		if (c == tty->term.c_cc[VINTR])

	movzx	eax, BYTE PTR c$[rsp]
	mov	ecx, 1
	imul	rcx, rcx, 0
	mov	rdx, QWORD PTR tty$[rsp]
	movzx	ecx, BYTE PTR [rdx+rcx+29]
	cmp	eax, ecx
	jne	SHORT $LN12@AuTTYProce

; 91   : 			sig = SIGINT;

	mov	DWORD PTR sig$1[rsp], 2
	jmp	SHORT $LN11@AuTTYProce
$LN12@AuTTYProce:

; 92   : 		else if (c == tty->term.c_cc[VQUIT])

	movzx	eax, BYTE PTR c$[rsp]
	mov	ecx, 1
	imul	rcx, rcx, 1
	mov	rdx, QWORD PTR tty$[rsp]
	movzx	ecx, BYTE PTR [rdx+rcx+29]
	cmp	eax, ecx
	jne	SHORT $LN10@AuTTYProce

; 93   : 			sig = SIGQUIT;

	mov	DWORD PTR sig$1[rsp], 3
	jmp	SHORT $LN9@AuTTYProce
$LN10@AuTTYProce:

; 94   : 		else if (c == tty->term.c_cc[VSUSP])

	movzx	eax, BYTE PTR c$[rsp]
	mov	ecx, 1
	imul	rcx, rcx, 10
	mov	rdx, QWORD PTR tty$[rsp]
	movzx	ecx, BYTE PTR [rdx+rcx+29]
	cmp	eax, ecx
	jne	SHORT $LN8@AuTTYProce

; 95   : 			sig = SIGTSTP;

	mov	DWORD PTR sig$1[rsp], 24
$LN8@AuTTYProce:
$LN9@AuTTYProce:
$LN11@AuTTYProce:

; 96   : 
; 97   : 		if (sig != -1) {

	cmp	DWORD PTR sig$1[rsp], -1
	je	SHORT $LN7@AuTTYProce

; 98   : 			if (tty->term.c_lflag & ECHO) {

	mov	rax, QWORD PTR tty$[rsp]
	mov	eax, DWORD PTR [rax+24]
	and	eax, 8
	test	eax, eax
	je	SHORT $LN6@AuTTYProce

; 99   : 				AuTTYWriteMaster(tty, '^');

	mov	dl, 94					; 0000005eH
	mov	rcx, QWORD PTR tty$[rsp]
	call	?AuTTYWriteMaster@@YAXPEAU__tty__@@E@Z	; AuTTYWriteMaster

; 100  : 				AuTTYWriteMaster(tty, ('@' + c) % 128);

	movzx	eax, BYTE PTR c$[rsp]
	add	eax, 64					; 00000040H
	cdq
	and	edx, 127				; 0000007fH
	add	eax, edx
	and	eax, 127				; 0000007fH
	sub	eax, edx
	movzx	edx, al
	mov	rcx, QWORD PTR tty$[rsp]
	call	?AuTTYWriteMaster@@YAXPEAU__tty__@@E@Z	; AuTTYWriteMaster

; 101  : 				AuTTYWriteMaster(tty, '\n');

	mov	dl, 10
	mov	rcx, QWORD PTR tty$[rsp]
	call	?AuTTYWriteMaster@@YAXPEAU__tty__@@E@Z	; AuTTYWriteMaster
$LN6@AuTTYProce:

; 102  : 			}
; 103  : 			//clear_input_buf
; 104  : 			//if foreground process group or process exist
; 105  : 				//send signal to foreground process, the sig number
; 106  : 			return;

	jmp	SHORT $LN14@AuTTYProce
$LN7@AuTTYProce:
$LN13@AuTTYProce:

; 107  : 		}
; 108  : 	}
; 109  : 
; 110  : 	if (tty->term.c_iflag & ISTRIP)

	mov	rax, QWORD PTR tty$[rsp]
	mov	eax, DWORD PTR [rax+12]
	and	eax, 32					; 00000020H
	test	eax, eax
	je	SHORT $LN5@AuTTYProce

; 111  : 		c &= 0x7f;

	movzx	eax, BYTE PTR c$[rsp]
	and	eax, 127				; 0000007fH
	mov	BYTE PTR c$[rsp], al
$LN5@AuTTYProce:

; 112  : 
; 113  : 	if ((tty->term.c_iflag & IGNCR) && c == '\r')

	mov	rax, QWORD PTR tty$[rsp]
	mov	eax, DWORD PTR [rax+12]
	and	eax, 128				; 00000080H
	test	eax, eax
	je	SHORT $LN4@AuTTYProce
	movzx	eax, BYTE PTR c$[rsp]
	cmp	eax, 13
	jne	SHORT $LN4@AuTTYProce

; 114  : 		return;

	jmp	SHORT $LN14@AuTTYProce
$LN4@AuTTYProce:

; 115  : 
; 116  : 	if ((tty->term.c_iflag & INLCR) && c == '\n')

	mov	rax, QWORD PTR tty$[rsp]
	mov	eax, DWORD PTR [rax+12]
	and	eax, 64					; 00000040H
	test	eax, eax
	je	SHORT $LN3@AuTTYProce
	movzx	eax, BYTE PTR c$[rsp]
	cmp	eax, 10
	jne	SHORT $LN3@AuTTYProce

; 117  : 		c = '\r';

	mov	BYTE PTR c$[rsp], 13
	jmp	SHORT $LN2@AuTTYProce
$LN3@AuTTYProce:

; 118  : 	else if ((tty->term.c_iflag & ICRNL) && c == '\r')

	mov	rax, QWORD PTR tty$[rsp]
	mov	eax, DWORD PTR [rax+12]
	and	eax, 256				; 00000100H
	test	eax, eax
	je	SHORT $LN1@AuTTYProce
	movzx	eax, BYTE PTR c$[rsp]
	cmp	eax, 13
	jne	SHORT $LN1@AuTTYProce

; 119  : 		c = '\n';

	mov	BYTE PTR c$[rsp], 10
$LN1@AuTTYProce:
$LN2@AuTTYProce:
$LN14@AuTTYProce:

; 120  : 
; 121  : }

	add	rsp, 56					; 00000038H
	ret	0
?AuTTYProcessLine@@YAXPEAU__tty__@@E@Z ENDP		; AuTTYProcessLine
_TEXT	ENDS
; Function compile flags: /Odtpy
; File e:\xeneva project\aurora\kernel\fs\tty.cpp
_TEXT	SEGMENT
tty$ = 48
c$ = 56
?AuTTYWriteMaster@@YAXPEAU__tty__@@E@Z PROC		; AuTTYWriteMaster

; 82   : void AuTTYWriteMaster(TTY* tty, uint8_t c) {

$LN3:
	mov	BYTE PTR [rsp+16], dl
	mov	QWORD PTR [rsp+8], rcx
	sub	rsp, 40					; 00000028H

; 83   : 	AuCircBufPut(tty->masterbuf, c);

	movzx	edx, BYTE PTR c$[rsp]
	mov	rax, QWORD PTR tty$[rsp]
	mov	rcx, QWORD PTR [rax+72]
	call	?AuCircBufPut@@YAHPEAU_circ_buf_@@E@Z	; AuCircBufPut

; 84   : }

	add	rsp, 40					; 00000028H
	ret	0
?AuTTYWriteMaster@@YAXPEAU__tty__@@E@Z ENDP		; AuTTYWriteMaster
_TEXT	ENDS
; Function compile flags: /Odtpy
; File e:\xeneva project\aurora\kernel\fs\tty.cpp
_TEXT	SEGMENT
tty$ = 48
c$ = 56
?AuTTYWriteSlave@@YAXPEAU__tty__@@E@Z PROC		; AuTTYWriteSlave

; 78   : void AuTTYWriteSlave(TTY* tty, uint8_t c) {

$LN3:
	mov	BYTE PTR [rsp+16], dl
	mov	QWORD PTR [rsp+8], rcx
	sub	rsp, 40					; 00000028H

; 79   : 	AuCircBufPut(tty->slavebuf, c);

	movzx	edx, BYTE PTR c$[rsp]
	mov	rax, QWORD PTR tty$[rsp]
	mov	rcx, QWORD PTR [rax+80]
	call	?AuCircBufPut@@YAHPEAU_circ_buf_@@E@Z	; AuCircBufPut

; 80   : }

	add	rsp, 40					; 00000028H
	ret	0
?AuTTYWriteSlave@@YAXPEAU__tty__@@E@Z ENDP		; AuTTYWriteSlave
_TEXT	ENDS
; Function compile flags: /Odtpy
; File e:\xeneva project\aurora\kernel\fs\tty.cpp
_TEXT	SEGMENT
tty$ = 48
?AuTTYDelete@@YAXPEAU__tty__@@@Z PROC			; AuTTYDelete

; 62   : void AuTTYDelete(TTY* tty) {

$LN8:
	mov	QWORD PTR [rsp+8], rcx
	sub	rsp, 40					; 00000028H

; 63   : 	if (root == NULL)

	cmp	QWORD PTR ?root@@3PEAU__tty__@@EA, 0	; root
	jne	SHORT $LN5@AuTTYDelet

; 64   : 		return;

	jmp	$LN6@AuTTYDelet
$LN5@AuTTYDelet:

; 65   : 	if (tty == root)

	mov	rax, QWORD PTR ?root@@3PEAU__tty__@@EA	; root
	cmp	QWORD PTR tty$[rsp], rax
	jne	SHORT $LN4@AuTTYDelet

; 66   : 		root = root->next;

	mov	rax, QWORD PTR ?root@@3PEAU__tty__@@EA	; root
	mov	rax, QWORD PTR [rax+120]
	mov	QWORD PTR ?root@@3PEAU__tty__@@EA, rax	; root

; 67   : 	else

	jmp	SHORT $LN3@AuTTYDelet
$LN4@AuTTYDelet:

; 68   : 		tty->prev->next = tty->next;

	mov	rax, QWORD PTR tty$[rsp]
	mov	rax, QWORD PTR [rax+128]
	mov	rcx, QWORD PTR tty$[rsp]
	mov	rcx, QWORD PTR [rcx+120]
	mov	QWORD PTR [rax+120], rcx
$LN3@AuTTYDelet:

; 69   : 
; 70   : 	if (tty == last)

	mov	rax, QWORD PTR ?last@@3PEAU__tty__@@EA	; last
	cmp	QWORD PTR tty$[rsp], rax
	jne	SHORT $LN2@AuTTYDelet

; 71   : 		last = tty->prev;

	mov	rax, QWORD PTR tty$[rsp]
	mov	rax, QWORD PTR [rax+128]
	mov	QWORD PTR ?last@@3PEAU__tty__@@EA, rax	; last

; 72   : 	else

	jmp	SHORT $LN1@AuTTYDelet
$LN2@AuTTYDelet:

; 73   : 		tty->next->prev = tty->prev;

	mov	rax, QWORD PTR tty$[rsp]
	mov	rax, QWORD PTR [rax+120]
	mov	rcx, QWORD PTR tty$[rsp]
	mov	rcx, QWORD PTR [rcx+128]
	mov	QWORD PTR [rax+128], rcx
$LN1@AuTTYDelet:

; 74   : 
; 75   : 	kfree(tty);

	mov	rcx, QWORD PTR tty$[rsp]
	call	kfree
$LN6@AuTTYDelet:

; 76   : }

	add	rsp, 40					; 00000028H
	ret	0
?AuTTYDelete@@YAXPEAU__tty__@@@Z ENDP			; AuTTYDelete
_TEXT	ENDS
; Function compile flags: /Odtpy
; File e:\xeneva project\aurora\kernel\fs\tty.cpp
_TEXT	SEGMENT
tty$ = 8
?AuTTYInsert@@YAXPEAU__tty__@@@Z PROC			; AuTTYInsert

; 47   : void AuTTYInsert(TTY* tty) {

	mov	QWORD PTR [rsp+8], rcx

; 48   : 	tty->next = NULL;

	mov	rax, QWORD PTR tty$[rsp]
	mov	QWORD PTR [rax+120], 0

; 49   : 	tty->prev = NULL;

	mov	rax, QWORD PTR tty$[rsp]
	mov	QWORD PTR [rax+128], 0

; 50   : 
; 51   : 	if (root == NULL) {

	cmp	QWORD PTR ?root@@3PEAU__tty__@@EA, 0	; root
	jne	SHORT $LN2@AuTTYInser

; 52   : 		last = tty;

	mov	rax, QWORD PTR tty$[rsp]
	mov	QWORD PTR ?last@@3PEAU__tty__@@EA, rax	; last

; 53   : 		root = tty;

	mov	rax, QWORD PTR tty$[rsp]
	mov	QWORD PTR ?root@@3PEAU__tty__@@EA, rax	; root

; 54   : 	}
; 55   : 	else {

	jmp	SHORT $LN1@AuTTYInser
$LN2@AuTTYInser:

; 56   : 		last->next = tty;

	mov	rax, QWORD PTR ?last@@3PEAU__tty__@@EA	; last
	mov	rcx, QWORD PTR tty$[rsp]
	mov	QWORD PTR [rax+120], rcx

; 57   : 		tty->prev = last;

	mov	rax, QWORD PTR tty$[rsp]
	mov	rcx, QWORD PTR ?last@@3PEAU__tty__@@EA	; last
	mov	QWORD PTR [rax+128], rcx
$LN1@AuTTYInser:

; 58   : 	}
; 59   : 	last = tty;

	mov	rax, QWORD PTR tty$[rsp]
	mov	QWORD PTR ?last@@3PEAU__tty__@@EA, rax	; last

; 60   : }

	ret	0
?AuTTYInsert@@YAXPEAU__tty__@@@Z ENDP			; AuTTYInsert
_TEXT	ENDS
; Function compile flags: /Odtpy
; File e:\xeneva project\aurora\kernel\fs\tty.cpp
_TEXT	SEGMENT
fs$ = 32
?AuTTYInitialise@@YAXXZ PROC				; AuTTYInitialise

; 352  : void AuTTYInitialise() {

$LN3:
	sub	rsp, 56					; 00000038H

; 353  : 	root = NULL;

	mov	QWORD PTR ?root@@3PEAU__tty__@@EA, 0	; root

; 354  : 	last = NULL;

	mov	QWORD PTR ?last@@3PEAU__tty__@@EA, 0	; last

; 355  : 	master_count = 0;

	mov	QWORD PTR ?master_count@@3_KA, 0	; master_count

; 356  : 	slave_count = 0;

	mov	QWORD PTR ?slave_count@@3_KA, 0		; slave_count

; 357  : 	/* create a directory for tty's */
; 358  : 	AuVFSNode* fs = AuVFSFind("/dev");

	lea	rcx, OFFSET FLAT:$SG3438
	call	AuVFSFind
	mov	QWORD PTR fs$[rsp], rax

; 359  : 	AuDevFSCreateFile(fs, "/dev/tty", FS_FLAG_DIRECTORY);

	mov	r8b, 2
	lea	rdx, OFFSET FLAT:$SG3439
	mov	rcx, QWORD PTR fs$[rsp]
	call	?AuDevFSCreateFile@@YAHPEAU__VFS_NODE__@@PEADE@Z ; AuDevFSCreateFile

; 360  : }

	add	rsp, 56					; 00000038H
	ret	0
?AuTTYInitialise@@YAXXZ ENDP				; AuTTYInitialise
_TEXT	ENDS
END
