; Listing generated by Microsoft (R) Optimizing Compiler Version 19.29.30154.0 

include listing.inc

INCLUDELIB LIBCMT
INCLUDELIB OLDNAMES

PUBLIC	?master_count@@3_KA				; master_count
PUBLIC	?slave_count@@3_KA				; slave_count
PUBLIC	?root@@3PEAU__tty__@@EA				; root
PUBLIC	?last@@3PEAU__tty__@@EA				; last
_BSS	SEGMENT
?master_count@@3_KA DQ 01H DUP (?)			; master_count
?slave_count@@3_KA DQ 01H DUP (?)			; slave_count
?root@@3PEAU__tty__@@EA DQ 01H DUP (?)			; root
?last@@3PEAU__tty__@@EA DQ 01H DUP (?)			; last
_BSS	ENDS
msvcjmc	SEGMENT
__41D00D04_tty@cpp DB 01H
msvcjmc	ENDS
PUBLIC	?AuTTYCreate@@YAHPEAH0@Z			; AuTTYCreate
PUBLIC	?AuTTYInitialise@@YAXXZ				; AuTTYInitialise
PUBLIC	?AuTTYInsert@@YAXPEAU__tty__@@@Z		; AuTTYInsert
PUBLIC	?AuTTYDelete@@YAXPEAU__tty__@@@Z		; AuTTYDelete
PUBLIC	?AuTTYWriteSlave@@YAXPEAU__tty__@@E@Z		; AuTTYWriteSlave
PUBLIC	?AuTTYWriteMaster@@YAXPEAU__tty__@@E@Z		; AuTTYWriteMaster
PUBLIC	?AuTTYProcessLine@@YAXPEAU__tty__@@E@Z		; AuTTYProcessLine
PUBLIC	?AuTTYMasterRead@@YA_KPEAU__VFS_NODE__@@0PEA_KI@Z ; AuTTYMasterRead
PUBLIC	?AuTTYMasterWrite@@YA_KPEAU__VFS_NODE__@@0PEA_KI@Z ; AuTTYMasterWrite
PUBLIC	?AuTTYSlaveRead@@YA_KPEAU__VFS_NODE__@@0PEA_KI@Z ; AuTTYSlaveRead
PUBLIC	?AuTTYSlaveWrite@@YA_KPEAU__VFS_NODE__@@0PEA_KI@Z ; AuTTYSlaveWrite
PUBLIC	?AuTTYSlaveClose@@YAHPEAU__VFS_NODE__@@0@Z	; AuTTYSlaveClose
PUBLIC	?AuTTYMasterClose@@YAHPEAU__VFS_NODE__@@0@Z	; AuTTYMasterClose
PUBLIC	?AuTTYIoControl@@YAHPEAU__VFS_NODE__@@HPEAX@Z	; AuTTYIoControl
PUBLIC	?AuTTYCreateMaster@@YAPEAU__VFS_NODE__@@PEAU__tty__@@@Z ; AuTTYCreateMaster
PUBLIC	?AuTTYCreateSlave@@YAPEAU__VFS_NODE__@@PEAU__tty__@@@Z ; AuTTYCreateSlave
PUBLIC	__JustMyCode_Default
PUBLIC	??_C@_04PJHBAHNI@?1dev@				; `string'
PUBLIC	??_C@_04FKKBDPBD@ttym@				; `string'
PUBLIC	??_C@_08BOCDAINB@?1dev?1tty@			; `string'
PUBLIC	??_C@_04IOOAAAMM@ttys@				; `string'
EXTRN	?AuCircBufInitialise@@YAPEAU_circ_buf_@@PEAE_K@Z:PROC ; AuCircBufInitialise
EXTRN	?AuCircBufPut@@YAHPEAU_circ_buf_@@E@Z:PROC	; AuCircBufPut
EXTRN	?AuCircBufGet@@YAHPEAU_circ_buf_@@PEAE@Z:PROC	; AuCircBufGet
EXTRN	?CircBufEmpty@@YA_NPEAU_circ_buf_@@@Z:PROC	; CircBufEmpty
EXTRN	?CircBufFull@@YA_NPEAU_circ_buf_@@@Z:PROC	; CircBufFull
EXTRN	AuVFSFind:PROC
EXTRN	?AuDevFSCreateFile@@YAHPEAU__VFS_NODE__@@PEADE@Z:PROC ; AuDevFSCreateFile
EXTRN	AuDevFSAddFile:PROC
EXTRN	kmalloc:PROC
EXTRN	kfree:PROC
EXTRN	strcpy:PROC
EXTRN	memset:PROC
EXTRN	?sztoa@@YAPEAD_KPEADH@Z:PROC			; sztoa
EXTRN	AuGetCurrentThread:PROC
EXTRN	AuForceScheduler:PROC
EXTRN	?AuProcessFindThread@@YAPEAU_au_proc_@@PEAU_au_thread_@@@Z:PROC ; AuProcessFindThread
EXTRN	?AuProcessGetFileDesc@@YAHPEAU_au_proc_@@@Z:PROC ; AuProcessGetFileDesc
EXTRN	x64_cli:PROC
EXTRN	__CheckForDebuggerJustMyCode:PROC
;	COMDAT pdata
pdata	SEGMENT
$pdata$?AuTTYCreate@@YAHPEAH0@Z DD imagerel $LN6
	DD	imagerel $LN6+521
	DD	imagerel $unwind$?AuTTYCreate@@YAHPEAH0@Z
pdata	ENDS
;	COMDAT pdata
pdata	SEGMENT
$pdata$?AuTTYInitialise@@YAXXZ DD imagerel $LN3
	DD	imagerel $LN3+108
	DD	imagerel $unwind$?AuTTYInitialise@@YAXXZ
pdata	ENDS
;	COMDAT pdata
pdata	SEGMENT
$pdata$?AuTTYInsert@@YAXPEAU__tty__@@@Z DD imagerel $LN5
	DD	imagerel $LN5+132
	DD	imagerel $unwind$?AuTTYInsert@@YAXPEAU__tty__@@@Z
pdata	ENDS
;	COMDAT pdata
pdata	SEGMENT
$pdata$?AuTTYDelete@@YAXPEAU__tty__@@@Z DD imagerel $LN8
	DD	imagerel $LN8+157
	DD	imagerel $unwind$?AuTTYDelete@@YAXPEAU__tty__@@@Z
pdata	ENDS
;	COMDAT pdata
pdata	SEGMENT
$pdata$?AuTTYWriteSlave@@YAXPEAU__tty__@@E@Z DD imagerel $LN3
	DD	imagerel $LN3+54
	DD	imagerel $unwind$?AuTTYWriteSlave@@YAXPEAU__tty__@@E@Z
pdata	ENDS
;	COMDAT pdata
pdata	SEGMENT
$pdata$?AuTTYWriteMaster@@YAXPEAU__tty__@@E@Z DD imagerel $LN3
	DD	imagerel $LN3+54
	DD	imagerel $unwind$?AuTTYWriteMaster@@YAXPEAU__tty__@@E@Z
pdata	ENDS
;	COMDAT pdata
pdata	SEGMENT
$pdata$?AuTTYProcessLine@@YAXPEAU__tty__@@E@Z DD imagerel $LN18
	DD	imagerel $LN18+387
	DD	imagerel $unwind$?AuTTYProcessLine@@YAXPEAU__tty__@@E@Z
pdata	ENDS
;	COMDAT pdata
pdata	SEGMENT
$pdata$?AuTTYMasterRead@@YA_KPEAU__VFS_NODE__@@0PEA_KI@Z DD imagerel $LN8
	DD	imagerel $LN8+214
	DD	imagerel $unwind$?AuTTYMasterRead@@YA_KPEAU__VFS_NODE__@@0PEA_KI@Z
pdata	ENDS
;	COMDAT pdata
pdata	SEGMENT
$pdata$?AuTTYMasterWrite@@YA_KPEAU__VFS_NODE__@@0PEA_KI@Z DD imagerel $LN7
	DD	imagerel $LN7+145
	DD	imagerel $unwind$?AuTTYMasterWrite@@YA_KPEAU__VFS_NODE__@@0PEA_KI@Z
pdata	ENDS
;	COMDAT pdata
pdata	SEGMENT
$pdata$?AuTTYSlaveRead@@YA_KPEAU__VFS_NODE__@@0PEA_KI@Z DD imagerel $LN7
	DD	imagerel $LN7+155
	DD	imagerel $unwind$?AuTTYSlaveRead@@YA_KPEAU__VFS_NODE__@@0PEA_KI@Z
pdata	ENDS
;	COMDAT pdata
pdata	SEGMENT
$pdata$?AuTTYSlaveWrite@@YA_KPEAU__VFS_NODE__@@0PEA_KI@Z DD imagerel $LN9
	DD	imagerel $LN9+240
	DD	imagerel $unwind$?AuTTYSlaveWrite@@YA_KPEAU__VFS_NODE__@@0PEA_KI@Z
pdata	ENDS
;	COMDAT pdata
pdata	SEGMENT
$pdata$?AuTTYSlaveClose@@YAHPEAU__VFS_NODE__@@0@Z DD imagerel $LN4
	DD	imagerel $LN4+63
	DD	imagerel $unwind$?AuTTYSlaveClose@@YAHPEAU__VFS_NODE__@@0@Z
pdata	ENDS
;	COMDAT pdata
pdata	SEGMENT
$pdata$?AuTTYMasterClose@@YAHPEAU__VFS_NODE__@@0@Z DD imagerel $LN3
	DD	imagerel $LN3+40
	DD	imagerel $unwind$?AuTTYMasterClose@@YAHPEAU__VFS_NODE__@@0@Z
pdata	ENDS
;	COMDAT pdata
pdata	SEGMENT
$pdata$?AuTTYIoControl@@YAHPEAU__VFS_NODE__@@HPEAX@Z DD imagerel $LN11
	DD	imagerel $LN11+338
	DD	imagerel $unwind$?AuTTYIoControl@@YAHPEAU__VFS_NODE__@@HPEAX@Z
pdata	ENDS
;	COMDAT pdata
pdata	SEGMENT
$pdata$?AuTTYCreateMaster@@YAPEAU__VFS_NODE__@@PEAU__tty__@@@Z DD imagerel $LN3
	DD	imagerel $LN3+300
	DD	imagerel $unwind$?AuTTYCreateMaster@@YAPEAU__VFS_NODE__@@PEAU__tty__@@@Z
pdata	ENDS
;	COMDAT pdata
pdata	SEGMENT
$pdata$?AuTTYCreateSlave@@YAPEAU__VFS_NODE__@@PEAU__tty__@@@Z DD imagerel $LN3
	DD	imagerel $LN3+300
	DD	imagerel $unwind$?AuTTYCreateSlave@@YAPEAU__VFS_NODE__@@PEAU__tty__@@@Z
pdata	ENDS
;	COMDAT ??_C@_04IOOAAAMM@ttys@
CONST	SEGMENT
??_C@_04IOOAAAMM@ttys@ DB 'ttys', 00H			; `string'
CONST	ENDS
;	COMDAT ??_C@_08BOCDAINB@?1dev?1tty@
CONST	SEGMENT
??_C@_08BOCDAINB@?1dev?1tty@ DB '/dev/tty', 00H		; `string'
CONST	ENDS
;	COMDAT ??_C@_04FKKBDPBD@ttym@
CONST	SEGMENT
??_C@_04FKKBDPBD@ttym@ DB 'ttym', 00H			; `string'
CONST	ENDS
;	COMDAT ??_C@_04PJHBAHNI@?1dev@
CONST	SEGMENT
??_C@_04PJHBAHNI@?1dev@ DB '/dev', 00H			; `string'
CONST	ENDS
;	COMDAT xdata
xdata	SEGMENT
$unwind$?AuTTYCreateSlave@@YAPEAU__VFS_NODE__@@PEAU__tty__@@@Z DD 025031201H
	DD	0f20d2312H
	DD	05006H
xdata	ENDS
;	COMDAT xdata
xdata	SEGMENT
$unwind$?AuTTYCreateMaster@@YAPEAU__VFS_NODE__@@PEAU__tty__@@@Z DD 025031201H
	DD	0f20d2312H
	DD	05006H
xdata	ENDS
;	COMDAT xdata
xdata	SEGMENT
$unwind$?AuTTYIoControl@@YAHPEAU__VFS_NODE__@@HPEAX@Z DD 025041b01H
	DD	0116231bH
	DD	0500f0012H
xdata	ENDS
;	COMDAT xdata
xdata	SEGMENT
$unwind$?AuTTYMasterClose@@YAHPEAU__VFS_NODE__@@0@Z DD 025031401H
	DD	0b20f2314H
	DD	0500bH
xdata	ENDS
;	COMDAT xdata
xdata	SEGMENT
$unwind$?AuTTYSlaveClose@@YAHPEAU__VFS_NODE__@@0@Z DD 025031401H
	DD	0d20f2314H
	DD	0500bH
xdata	ENDS
;	COMDAT xdata
xdata	SEGMENT
$unwind$?AuTTYSlaveWrite@@YA_KPEAU__VFS_NODE__@@0PEA_KI@Z DD 025042101H
	DD	011c2321H
	DD	050150012H
xdata	ENDS
;	COMDAT xdata
xdata	SEGMENT
$unwind$?AuTTYSlaveRead@@YA_KPEAU__VFS_NODE__@@0PEA_KI@Z DD 025032101H
	DD	0f21c2321H
	DD	05015H
xdata	ENDS
;	COMDAT xdata
xdata	SEGMENT
$unwind$?AuTTYMasterWrite@@YA_KPEAU__VFS_NODE__@@0PEA_KI@Z DD 025032101H
	DD	0f21c2321H
	DD	05015H
xdata	ENDS
;	COMDAT xdata
xdata	SEGMENT
$unwind$?AuTTYMasterRead@@YA_KPEAU__VFS_NODE__@@0PEA_KI@Z DD 025032101H
	DD	0f21c2321H
	DD	05015H
xdata	ENDS
;	COMDAT xdata
xdata	SEGMENT
$unwind$?AuTTYProcessLine@@YAXPEAU__tty__@@E@Z DD 025031301H
	DD	0d20e2313H
	DD	0500aH
xdata	ENDS
;	COMDAT xdata
xdata	SEGMENT
$unwind$?AuTTYWriteMaster@@YAXPEAU__tty__@@E@Z DD 025031301H
	DD	0b20e2313H
	DD	0500aH
xdata	ENDS
;	COMDAT xdata
xdata	SEGMENT
$unwind$?AuTTYWriteSlave@@YAXPEAU__tty__@@E@Z DD 025031301H
	DD	0b20e2313H
	DD	0500aH
xdata	ENDS
;	COMDAT xdata
xdata	SEGMENT
$unwind$?AuTTYDelete@@YAXPEAU__tty__@@@Z DD 025030f01H
	DD	0b20a230fH
	DD	05006H
xdata	ENDS
;	COMDAT xdata
xdata	SEGMENT
$unwind$?AuTTYInsert@@YAXPEAU__tty__@@@Z DD 025030f01H
	DD	0b20a230fH
	DD	05006H
xdata	ENDS
;	COMDAT xdata
xdata	SEGMENT
$unwind$?AuTTYInitialise@@YAXXZ DD 025030b01H
	DD	0d206230bH
	DD	05002H
xdata	ENDS
;	COMDAT xdata
xdata	SEGMENT
$unwind$?AuTTYCreate@@YAHPEAH0@Z DD 025041701H
	DD	01122317H
	DD	0500b0014H
xdata	ENDS
; Function compile flags: /Odt
;	COMDAT __JustMyCode_Default
_TEXT	SEGMENT
__JustMyCode_Default PROC				; COMDAT
	ret	0
__JustMyCode_Default ENDP
_TEXT	ENDS
; Function compile flags: /Odtp /ZI
; File E:\Xeneva Project\Aurora\Kernel\Fs\tty.cpp
;	COMDAT ?AuTTYCreateSlave@@YAPEAU__VFS_NODE__@@PEAU__tty__@@@Z
_TEXT	SEGMENT
fs$ = 0
node$ = 8
name$ = 16
tty$ = 112
?AuTTYCreateSlave@@YAPEAU__VFS_NODE__@@PEAU__tty__@@@Z PROC ; AuTTYCreateSlave, COMDAT

; 298  : AuVFSNode* AuTTYCreateSlave(TTY* tty) {

$LN3:
	mov	QWORD PTR [rsp+8], rcx
	push	rbp
	sub	rsp, 128				; 00000080H
	lea	rbp, QWORD PTR [rsp+32]
	lea	rcx, OFFSET FLAT:__41D00D04_tty@cpp
	call	__CheckForDebuggerJustMyCode

; 299  : 	AuVFSNode* fs = AuVFSFind("/dev");

	lea	rcx, OFFSET FLAT:??_C@_04PJHBAHNI@?1dev@
	call	AuVFSFind
	mov	QWORD PTR fs$[rbp], rax

; 300  : 
; 301  : 	AuVFSNode* node = (AuVFSNode*)kmalloc(sizeof(AuVFSNode));

	mov	ecx, 178				; 000000b2H
	call	kmalloc
	mov	QWORD PTR node$[rbp], rax

; 302  : 	memset(node, 0, sizeof(AuVFSNode));

	mov	r8d, 178				; 000000b2H
	xor	edx, edx
	mov	rcx, QWORD PTR node$[rbp]
	call	memset

; 303  : 	char name[5];
; 304  : 	strcpy(name, "ttys");

	lea	rdx, OFFSET FLAT:??_C@_04IOOAAAMM@ttys@
	lea	rcx, QWORD PTR name$[rbp]
	call	strcpy

; 305  : 	sztoa(slave_count, name + 4, 10);

	lea	rax, QWORD PTR name$[rbp+4]
	mov	r8d, 10
	mov	rdx, rax
	mov	rcx, QWORD PTR ?slave_count@@3_KA	; slave_count
	call	?sztoa@@YAPEAD_KPEADH@Z			; sztoa

; 306  : 	strcpy(node->filename, name);

	mov	rax, QWORD PTR node$[rbp]
	lea	rdx, QWORD PTR name$[rbp]
	mov	rcx, rax
	call	strcpy

; 307  : 
; 308  : 	node->size = 512;

	mov	rax, QWORD PTR node$[rbp]
	mov	DWORD PTR [rax+32], 512			; 00000200H

; 309  : 	node->flags |= FS_FLAG_TTY;

	mov	rax, QWORD PTR node$[rbp]
	movzx	eax, WORD PTR [rax+61]
	bts	eax, 8
	mov	rcx, QWORD PTR node$[rbp]
	mov	WORD PTR [rcx+61], ax

; 310  : 	node->device = tty;

	mov	rax, QWORD PTR node$[rbp]
	mov	rcx, QWORD PTR tty$[rbp]
	mov	QWORD PTR [rax+64], rcx

; 311  : 	node->read = AuTTYSlaveRead;

	mov	rax, QWORD PTR node$[rbp]
	lea	rcx, OFFSET FLAT:?AuTTYSlaveRead@@YA_KPEAU__VFS_NODE__@@0PEA_KI@Z ; AuTTYSlaveRead
	mov	QWORD PTR [rax+90], rcx

; 312  : 	node->write = AuTTYSlaveWrite;

	mov	rax, QWORD PTR node$[rbp]
	lea	rcx, OFFSET FLAT:?AuTTYSlaveWrite@@YA_KPEAU__VFS_NODE__@@0PEA_KI@Z ; AuTTYSlaveWrite
	mov	QWORD PTR [rax+98], rcx

; 313  : 	node->close = AuTTYSlaveClose;

	mov	rax, QWORD PTR node$[rbp]
	lea	rcx, OFFSET FLAT:?AuTTYSlaveClose@@YAHPEAU__VFS_NODE__@@0@Z ; AuTTYSlaveClose
	mov	QWORD PTR [rax+138], rcx

; 314  : 	node->iocontrol = AuTTYIoControl;

	mov	rax, QWORD PTR node$[rbp]
	lea	rcx, OFFSET FLAT:?AuTTYIoControl@@YAHPEAU__VFS_NODE__@@HPEAX@Z ; AuTTYIoControl
	mov	QWORD PTR [rax+170], rcx

; 315  : 	node->fileCopyCount = 0;

	xor	eax, eax
	mov	rcx, QWORD PTR node$[rbp]
	mov	WORD PTR [rcx+72], ax

; 316  : 
; 317  : 	AuDevFSAddFile(fs, "/dev/tty", node);

	mov	r8, QWORD PTR node$[rbp]
	lea	rdx, OFFSET FLAT:??_C@_08BOCDAINB@?1dev?1tty@
	mov	rcx, QWORD PTR fs$[rbp]
	call	AuDevFSAddFile

; 318  : 	slave_count++;

	mov	rax, QWORD PTR ?slave_count@@3_KA	; slave_count
	inc	rax
	mov	QWORD PTR ?slave_count@@3_KA, rax	; slave_count

; 319  : 	return node;

	mov	rax, QWORD PTR node$[rbp]

; 320  : }

	lea	rsp, QWORD PTR [rbp+96]
	pop	rbp
	ret	0
?AuTTYCreateSlave@@YAPEAU__VFS_NODE__@@PEAU__tty__@@@Z ENDP ; AuTTYCreateSlave
_TEXT	ENDS
; Function compile flags: /Odtp /ZI
; File E:\Xeneva Project\Aurora\Kernel\Fs\tty.cpp
;	COMDAT ?AuTTYCreateMaster@@YAPEAU__VFS_NODE__@@PEAU__tty__@@@Z
_TEXT	SEGMENT
fs$ = 0
node$ = 8
name$ = 16
tty$ = 112
?AuTTYCreateMaster@@YAPEAU__VFS_NODE__@@PEAU__tty__@@@Z PROC ; AuTTYCreateMaster, COMDAT

; 269  : AuVFSNode* AuTTYCreateMaster(TTY* tty) {

$LN3:
	mov	QWORD PTR [rsp+8], rcx
	push	rbp
	sub	rsp, 128				; 00000080H
	lea	rbp, QWORD PTR [rsp+32]
	lea	rcx, OFFSET FLAT:__41D00D04_tty@cpp
	call	__CheckForDebuggerJustMyCode

; 270  : 	AuVFSNode* fs = AuVFSFind("/dev");

	lea	rcx, OFFSET FLAT:??_C@_04PJHBAHNI@?1dev@
	call	AuVFSFind
	mov	QWORD PTR fs$[rbp], rax

; 271  : 
; 272  : 	AuVFSNode* node = (AuVFSNode*)kmalloc(sizeof(AuVFSNode));

	mov	ecx, 178				; 000000b2H
	call	kmalloc
	mov	QWORD PTR node$[rbp], rax

; 273  : 	memset(node, 0, sizeof(AuVFSNode));

	mov	r8d, 178				; 000000b2H
	xor	edx, edx
	mov	rcx, QWORD PTR node$[rbp]
	call	memset

; 274  : 	char name[5];
; 275  : 	strcpy(name, "ttym");

	lea	rdx, OFFSET FLAT:??_C@_04FKKBDPBD@ttym@
	lea	rcx, QWORD PTR name$[rbp]
	call	strcpy

; 276  : 	sztoa(master_count, name + 4, 10);

	lea	rax, QWORD PTR name$[rbp+4]
	mov	r8d, 10
	mov	rdx, rax
	mov	rcx, QWORD PTR ?master_count@@3_KA	; master_count
	call	?sztoa@@YAPEAD_KPEADH@Z			; sztoa

; 277  : 	strcpy(node->filename, name);

	mov	rax, QWORD PTR node$[rbp]
	lea	rdx, QWORD PTR name$[rbp]
	mov	rcx, rax
	call	strcpy

; 278  : 
; 279  : 	node->size = 512;

	mov	rax, QWORD PTR node$[rbp]
	mov	DWORD PTR [rax+32], 512			; 00000200H

; 280  : 	node->flags |= FS_FLAG_TTY;

	mov	rax, QWORD PTR node$[rbp]
	movzx	eax, WORD PTR [rax+61]
	bts	eax, 8
	mov	rcx, QWORD PTR node$[rbp]
	mov	WORD PTR [rcx+61], ax

; 281  : 	node->device = tty;

	mov	rax, QWORD PTR node$[rbp]
	mov	rcx, QWORD PTR tty$[rbp]
	mov	QWORD PTR [rax+64], rcx

; 282  : 	node->read = AuTTYMasterRead;

	mov	rax, QWORD PTR node$[rbp]
	lea	rcx, OFFSET FLAT:?AuTTYMasterRead@@YA_KPEAU__VFS_NODE__@@0PEA_KI@Z ; AuTTYMasterRead
	mov	QWORD PTR [rax+90], rcx

; 283  : 	node->write = AuTTYMasterWrite;

	mov	rax, QWORD PTR node$[rbp]
	lea	rcx, OFFSET FLAT:?AuTTYMasterWrite@@YA_KPEAU__VFS_NODE__@@0PEA_KI@Z ; AuTTYMasterWrite
	mov	QWORD PTR [rax+98], rcx

; 284  : 	node->close = AuTTYMasterClose;

	mov	rax, QWORD PTR node$[rbp]
	lea	rcx, OFFSET FLAT:?AuTTYMasterClose@@YAHPEAU__VFS_NODE__@@0@Z ; AuTTYMasterClose
	mov	QWORD PTR [rax+138], rcx

; 285  : 	node->iocontrol = AuTTYIoControl;

	mov	rax, QWORD PTR node$[rbp]
	lea	rcx, OFFSET FLAT:?AuTTYIoControl@@YAHPEAU__VFS_NODE__@@HPEAX@Z ; AuTTYIoControl
	mov	QWORD PTR [rax+170], rcx

; 286  : 	node->fileCopyCount = 0;

	xor	eax, eax
	mov	rcx, QWORD PTR node$[rbp]
	mov	WORD PTR [rcx+72], ax

; 287  : 
; 288  : 	AuDevFSAddFile(fs, "/dev/tty", node);

	mov	r8, QWORD PTR node$[rbp]
	lea	rdx, OFFSET FLAT:??_C@_08BOCDAINB@?1dev?1tty@
	mov	rcx, QWORD PTR fs$[rbp]
	call	AuDevFSAddFile

; 289  : 	master_count++;

	mov	rax, QWORD PTR ?master_count@@3_KA	; master_count
	inc	rax
	mov	QWORD PTR ?master_count@@3_KA, rax	; master_count

; 290  : 	return node;

	mov	rax, QWORD PTR node$[rbp]

; 291  : }

	lea	rsp, QWORD PTR [rbp+96]
	pop	rbp
	ret	0
?AuTTYCreateMaster@@YAPEAU__VFS_NODE__@@PEAU__tty__@@@Z ENDP ; AuTTYCreateMaster
_TEXT	ENDS
; Function compile flags: /Odtp /ZI
; File E:\Xeneva Project\Aurora\Kernel\Fs\tty.cpp
;	COMDAT ?AuTTYIoControl@@YAHPEAU__VFS_NODE__@@HPEAX@Z
_TEXT	SEGMENT
tty$ = 0
sz$1 = 8
sz$2 = 16
currthr$3 = 24
proc$4 = 32
tv66 = 104
file$ = 128
code$ = 136
arg$ = 144
?AuTTYIoControl@@YAHPEAU__VFS_NODE__@@HPEAX@Z PROC	; AuTTYIoControl, COMDAT

; 226  : int AuTTYIoControl(AuVFSNode* file, int code, void* arg) {

$LN11:
	mov	QWORD PTR [rsp+24], r8
	mov	DWORD PTR [rsp+16], edx
	mov	QWORD PTR [rsp+8], rcx
	push	rbp
	sub	rsp, 144				; 00000090H
	lea	rbp, QWORD PTR [rsp+32]
	lea	rcx, OFFSET FLAT:__41D00D04_tty@cpp
	call	__CheckForDebuggerJustMyCode

; 227  : 	TTY* tty = (TTY*)file->device;

	mov	rax, QWORD PTR file$[rbp]
	mov	rax, QWORD PTR [rax+64]
	mov	QWORD PTR tty$[rbp], rax

; 228  : 	if (!tty)

	cmp	QWORD PTR tty$[rbp], 0
	jne	SHORT $LN4@AuTTYIoCon

; 229  : 		return 0;

	xor	eax, eax
	jmp	$LN1@AuTTYIoCon
$LN4@AuTTYIoCon:

; 230  : 
; 231  : 	switch (code) {

	mov	eax, DWORD PTR code$[rbp]
	mov	DWORD PTR tv66[rbp], eax
	cmp	DWORD PTR tv66[rbp], 21505		; 00005401H
	je	SHORT $LN6@AuTTYIoCon
	cmp	DWORD PTR tv66[rbp], 21506		; 00005402H
	je	SHORT $LN5@AuTTYIoCon
	cmp	DWORD PTR tv66[rbp], 21509		; 00005405H
	je	$LN7@AuTTYIoCon
	jmp	$LN2@AuTTYIoCon
$LN5@AuTTYIoCon:

; 232  : 	case TIOCSWINSZ: {
; 233  : 						 WinSize *sz = (WinSize*)arg;

	mov	rax, QWORD PTR arg$[rbp]
	mov	QWORD PTR sz$1[rbp], rax

; 234  : 						 tty->size.ws_col = sz->ws_col;

	mov	rax, QWORD PTR tty$[rbp]
	mov	rcx, QWORD PTR sz$1[rbp]
	movzx	ecx, WORD PTR [rcx+2]
	mov	WORD PTR [rax+3], cx

; 235  : 						 tty->size.ws_row = sz->ws_row;

	mov	rax, QWORD PTR tty$[rbp]
	mov	rcx, QWORD PTR sz$1[rbp]
	movzx	ecx, WORD PTR [rcx]
	mov	WORD PTR [rax+1], cx

; 236  : 						 tty->size.ws_xpixel = sz->ws_xpixel;

	mov	rax, QWORD PTR tty$[rbp]
	mov	rcx, QWORD PTR sz$1[rbp]
	movzx	ecx, WORD PTR [rcx+4]
	mov	WORD PTR [rax+5], cx

; 237  : 						 tty->size.ws_ypixel = sz->ws_ypixel;

	mov	rax, QWORD PTR tty$[rbp]
	mov	rcx, QWORD PTR sz$1[rbp]
	movzx	ecx, WORD PTR [rcx+6]
	mov	WORD PTR [rax+7], cx

; 238  : 						 break;

	jmp	$LN2@AuTTYIoCon
$LN6@AuTTYIoCon:

; 239  : 	}
; 240  : 	case TIOCGWINSZ: {
; 241  : 						 WinSize* sz = (WinSize*)arg;

	mov	rax, QWORD PTR arg$[rbp]
	mov	QWORD PTR sz$2[rbp], rax

; 242  : 						 sz->ws_col = tty->size.ws_col;

	mov	rax, QWORD PTR sz$2[rbp]
	mov	rcx, QWORD PTR tty$[rbp]
	movzx	ecx, WORD PTR [rcx+3]
	mov	WORD PTR [rax+2], cx

; 243  : 						 sz->ws_row = tty->size.ws_row;

	mov	rax, QWORD PTR sz$2[rbp]
	mov	rcx, QWORD PTR tty$[rbp]
	movzx	ecx, WORD PTR [rcx+1]
	mov	WORD PTR [rax], cx

; 244  : 						 sz->ws_xpixel = tty->size.ws_xpixel;

	mov	rax, QWORD PTR sz$2[rbp]
	mov	rcx, QWORD PTR tty$[rbp]
	movzx	ecx, WORD PTR [rcx+5]
	mov	WORD PTR [rax+4], cx

; 245  : 						 sz->ws_ypixel = tty->size.ws_ypixel;

	mov	rax, QWORD PTR sz$2[rbp]
	mov	rcx, QWORD PTR tty$[rbp]
	movzx	ecx, WORD PTR [rcx+7]
	mov	WORD PTR [rax+6], cx

; 246  : 						 break;

	jmp	SHORT $LN2@AuTTYIoCon
$LN7@AuTTYIoCon:

; 247  : 	}
; 248  : 
; 249  : 	case TIOSPGRP: {
; 250  : 					   AuThread* currthr = AuGetCurrentThread();

	call	AuGetCurrentThread
	mov	QWORD PTR currthr$3[rbp], rax

; 251  : 					   if (!currthr)

	cmp	QWORD PTR currthr$3[rbp], 0
	jne	SHORT $LN8@AuTTYIoCon

; 252  : 						   return 0;

	xor	eax, eax
	jmp	SHORT $LN1@AuTTYIoCon
$LN8@AuTTYIoCon:

; 253  : 					   AuProcess* proc = AuProcessFindThread(currthr);

	mov	rcx, QWORD PTR currthr$3[rbp]
	call	?AuProcessFindThread@@YAPEAU_au_proc_@@PEAU_au_thread_@@@Z ; AuProcessFindThread
	mov	QWORD PTR proc$4[rbp], rax

; 254  : 					   if (!proc)

	cmp	QWORD PTR proc$4[rbp], 0
	jne	SHORT $LN9@AuTTYIoCon

; 255  : 						   return 0;

	xor	eax, eax
	jmp	SHORT $LN1@AuTTYIoCon
$LN9@AuTTYIoCon:

; 256  : 					   tty->slave_pid = proc->proc_id;

	mov	rax, QWORD PTR tty$[rbp]
	mov	rcx, QWORD PTR proc$4[rbp]
	movzx	ecx, WORD PTR [rcx]
	mov	WORD PTR [rax+111], cx
$LN2@AuTTYIoCon:

; 257  : 					   break;
; 258  : 	}
; 259  : 	}
; 260  : 
; 261  : 	return 1;

	mov	eax, 1
$LN1@AuTTYIoCon:

; 262  : }

	lea	rsp, QWORD PTR [rbp+112]
	pop	rbp
	ret	0
?AuTTYIoControl@@YAHPEAU__VFS_NODE__@@HPEAX@Z ENDP	; AuTTYIoControl
_TEXT	ENDS
; Function compile flags: /Odtp /ZI
; File E:\Xeneva Project\Aurora\Kernel\Fs\tty.cpp
;	COMDAT ?AuTTYMasterClose@@YAHPEAU__VFS_NODE__@@0@Z
_TEXT	SEGMENT
fs$ = 80
file$ = 88
?AuTTYMasterClose@@YAHPEAU__VFS_NODE__@@0@Z PROC	; AuTTYMasterClose, COMDAT

; 221  : int AuTTYMasterClose(AuVFSNode* fs, AuVFSNode* file) {

$LN3:
	mov	QWORD PTR [rsp+16], rdx
	mov	QWORD PTR [rsp+8], rcx
	push	rbp
	sub	rsp, 96					; 00000060H
	lea	rbp, QWORD PTR [rsp+32]
	lea	rcx, OFFSET FLAT:__41D00D04_tty@cpp
	call	__CheckForDebuggerJustMyCode

; 222  : 
; 223  : 	return 0;

	xor	eax, eax

; 224  : }

	lea	rsp, QWORD PTR [rbp+64]
	pop	rbp
	ret	0
?AuTTYMasterClose@@YAHPEAU__VFS_NODE__@@0@Z ENDP	; AuTTYMasterClose
_TEXT	ENDS
; Function compile flags: /Odtp /ZI
; File E:\Xeneva Project\Aurora\Kernel\Fs\tty.cpp
;	COMDAT ?AuTTYSlaveClose@@YAHPEAU__VFS_NODE__@@0@Z
_TEXT	SEGMENT
_fs$ = 0
fs$ = 96
file$ = 104
?AuTTYSlaveClose@@YAHPEAU__VFS_NODE__@@0@Z PROC		; AuTTYSlaveClose, COMDAT

; 215  : int AuTTYSlaveClose(AuVFSNode* fs, AuVFSNode* file) {

$LN4:
	mov	QWORD PTR [rsp+16], rdx
	mov	QWORD PTR [rsp+8], rcx
	push	rbp
	sub	rsp, 112				; 00000070H
	lea	rbp, QWORD PTR [rsp+32]
	lea	rcx, OFFSET FLAT:__41D00D04_tty@cpp
	call	__CheckForDebuggerJustMyCode

; 216  : 	AuVFSNode* _fs = AuVFSFind("/dev");

	lea	rcx, OFFSET FLAT:??_C@_04PJHBAHNI@?1dev@
	call	AuVFSFind
	mov	QWORD PTR _fs$[rbp], rax

; 217  : 	if (!_fs)

	cmp	QWORD PTR _fs$[rbp], 0
	jne	SHORT $LN2@AuTTYSlave

; 218  : 		return 0;

	xor	eax, eax
$LN2@AuTTYSlave:

; 219  : }

	lea	rsp, QWORD PTR [rbp+80]
	pop	rbp
	ret	0
?AuTTYSlaveClose@@YAHPEAU__VFS_NODE__@@0@Z ENDP		; AuTTYSlaveClose
_TEXT	ENDS
; Function compile flags: /Odtp /ZI
; File E:\Xeneva Project\Aurora\Kernel\Fs\tty.cpp
;	COMDAT ?AuTTYSlaveWrite@@YA_KPEAU__VFS_NODE__@@0PEA_KI@Z
_TEXT	SEGMENT
data$ = 0
curr_th$ = 8
aligned_buf$ = 16
tty$ = 24
i$1 = 32
fsys$ = 128
file$ = 136
buffer$ = 144
len$ = 152
?AuTTYSlaveWrite@@YA_KPEAU__VFS_NODE__@@0PEA_KI@Z PROC	; AuTTYSlaveWrite, COMDAT

; 187  : size_t AuTTYSlaveWrite(AuVFSNode* fsys, AuVFSNode* file, uint64_t* buffer, uint32_t len) {

$LN9:
	mov	DWORD PTR [rsp+32], r9d
	mov	QWORD PTR [rsp+24], r8
	mov	QWORD PTR [rsp+16], rdx
	mov	QWORD PTR [rsp+8], rcx
	push	rbp
	sub	rsp, 144				; 00000090H
	lea	rbp, QWORD PTR [rsp+32]
	lea	rcx, OFFSET FLAT:__41D00D04_tty@cpp
	call	__CheckForDebuggerJustMyCode

; 188  : 	x64_cli();

	call	x64_cli

; 189  : 	char* data = (char*)buffer;

	mov	rax, QWORD PTR buffer$[rbp]
	mov	QWORD PTR data$[rbp], rax

; 190  : 	AuThread* curr_th = AuGetCurrentThread();

	call	AuGetCurrentThread
	mov	QWORD PTR curr_th$[rbp], rax

; 191  : 	uint8_t* aligned_buf = (uint8_t*)buffer;

	mov	rax, QWORD PTR buffer$[rbp]
	mov	QWORD PTR aligned_buf$[rbp], rax

; 192  : 	TTY* tty = (TTY*)file->device;

	mov	rax, QWORD PTR file$[rbp]
	mov	rax, QWORD PTR [rax+64]
	mov	QWORD PTR tty$[rbp], rax

; 193  : 	if (!tty)

	cmp	QWORD PTR tty$[rbp], 0
	jne	SHORT $LN5@AuTTYSlave

; 194  : 		return 0;

	xor	eax, eax
	jmp	SHORT $LN1@AuTTYSlave
$LN5@AuTTYSlave:

; 195  : 	if (len > 512)

	cmp	DWORD PTR len$[rbp], 512		; 00000200H
	jbe	SHORT $LN6@AuTTYSlave

; 196  : 		len = 512;

	mov	DWORD PTR len$[rbp], 512		; 00000200H
$LN6@AuTTYSlave:

; 197  : 
; 198  : 	if (CircBufFull(tty->masterbuf)) {

	mov	rax, QWORD PTR tty$[rbp]
	mov	rcx, QWORD PTR [rax+69]
	call	?CircBufFull@@YA_NPEAU_circ_buf_@@@Z	; CircBufFull
	movzx	eax, al
	test	eax, eax
	je	SHORT $LN7@AuTTYSlave

; 199  : 		AuForceScheduler();

	call	AuForceScheduler

; 200  : 		return 0;

	xor	eax, eax
	jmp	SHORT $LN1@AuTTYSlave
$LN7@AuTTYSlave:

; 201  : 	}
; 202  : 
; 203  : 	for (int i = 0; i < len; i++) {

	mov	DWORD PTR i$1[rbp], 0
	jmp	SHORT $LN4@AuTTYSlave
$LN2@AuTTYSlave:
	mov	eax, DWORD PTR i$1[rbp]
	inc	eax
	mov	DWORD PTR i$1[rbp], eax
$LN4@AuTTYSlave:
	mov	eax, DWORD PTR len$[rbp]
	cmp	DWORD PTR i$1[rbp], eax
	jae	SHORT $LN3@AuTTYSlave

; 204  : 		AuCircBufPut(tty->masterbuf, aligned_buf[i]);

	movsxd	rax, DWORD PTR i$1[rbp]
	mov	rcx, QWORD PTR aligned_buf$[rbp]
	movzx	edx, BYTE PTR [rcx+rax]
	mov	rax, QWORD PTR tty$[rbp]
	mov	rcx, QWORD PTR [rax+69]
	call	?AuCircBufPut@@YAHPEAU_circ_buf_@@E@Z	; AuCircBufPut

; 205  : 		tty->master_written++;

	mov	rax, QWORD PTR tty$[rbp]
	mov	eax, DWORD PTR [rax+101]
	inc	eax
	mov	rcx, QWORD PTR tty$[rbp]
	mov	DWORD PTR [rcx+101], eax

; 206  : 	}

	jmp	SHORT $LN2@AuTTYSlave
$LN3@AuTTYSlave:

; 207  : 
; 208  : 	/* little bit slow down the slave process,
; 209  : 	 * it's too fast 
; 210  : 	 */
; 211  : 	//AuSleepThread(curr_th, 1000000000000);
; 212  : 	AuForceScheduler();

	call	AuForceScheduler
$LN1@AuTTYSlave:

; 213  : }

	lea	rsp, QWORD PTR [rbp+112]
	pop	rbp
	ret	0
?AuTTYSlaveWrite@@YA_KPEAU__VFS_NODE__@@0PEA_KI@Z ENDP	; AuTTYSlaveWrite
_TEXT	ENDS
; Function compile flags: /Odtp /ZI
; File E:\Xeneva Project\Aurora\Kernel\Fs\tty.cpp
;	COMDAT ?AuTTYSlaveRead@@YA_KPEAU__VFS_NODE__@@0PEA_KI@Z
_TEXT	SEGMENT
aligned_buf$ = 0
tty$ = 8
i$1 = 16
fsys$ = 112
file$ = 120
buffer$ = 128
len$ = 136
?AuTTYSlaveRead@@YA_KPEAU__VFS_NODE__@@0PEA_KI@Z PROC	; AuTTYSlaveRead, COMDAT

; 171  : size_t AuTTYSlaveRead(AuVFSNode* fsys, AuVFSNode* file, uint64_t* buffer, uint32_t len) {

$LN7:
	mov	DWORD PTR [rsp+32], r9d
	mov	QWORD PTR [rsp+24], r8
	mov	QWORD PTR [rsp+16], rdx
	mov	QWORD PTR [rsp+8], rcx
	push	rbp
	sub	rsp, 128				; 00000080H
	lea	rbp, QWORD PTR [rsp+32]
	lea	rcx, OFFSET FLAT:__41D00D04_tty@cpp
	call	__CheckForDebuggerJustMyCode

; 172  : 	x64_cli();

	call	x64_cli

; 173  : 	uint8_t* aligned_buf = (uint8_t*)buffer;

	mov	rax, QWORD PTR buffer$[rbp]
	mov	QWORD PTR aligned_buf$[rbp], rax

; 174  : 	TTY* tty = (TTY*)file->device;

	mov	rax, QWORD PTR file$[rbp]
	mov	rax, QWORD PTR [rax+64]
	mov	QWORD PTR tty$[rbp], rax

; 175  : 	if (!tty)

	cmp	QWORD PTR tty$[rbp], 0
	jne	SHORT $LN5@AuTTYSlave

; 176  : 		return 0;

	xor	eax, eax
	jmp	SHORT $LN1@AuTTYSlave
$LN5@AuTTYSlave:

; 177  : 
; 178  : 	for (int i = 0; i < len; i++)

	mov	DWORD PTR i$1[rbp], 0
	jmp	SHORT $LN4@AuTTYSlave
$LN2@AuTTYSlave:
	mov	eax, DWORD PTR i$1[rbp]
	inc	eax
	mov	DWORD PTR i$1[rbp], eax
$LN4@AuTTYSlave:
	mov	eax, DWORD PTR len$[rbp]
	cmp	DWORD PTR i$1[rbp], eax
	jae	SHORT $LN3@AuTTYSlave

; 179  : 		AuCircBufGet(tty->slavebuf, &aligned_buf[i]);

	movsxd	rax, DWORD PTR i$1[rbp]
	mov	rcx, QWORD PTR aligned_buf$[rbp]
	add	rcx, rax
	mov	rax, rcx
	mov	rdx, rax
	mov	rax, QWORD PTR tty$[rbp]
	mov	rcx, QWORD PTR [rax+77]
	call	?AuCircBufGet@@YAHPEAU_circ_buf_@@PEAE@Z ; AuCircBufGet
	jmp	SHORT $LN2@AuTTYSlave
$LN3@AuTTYSlave:

; 180  : 
; 181  : 	return 1;

	mov	eax, 1
$LN1@AuTTYSlave:

; 182  : }

	lea	rsp, QWORD PTR [rbp+96]
	pop	rbp
	ret	0
?AuTTYSlaveRead@@YA_KPEAU__VFS_NODE__@@0PEA_KI@Z ENDP	; AuTTYSlaveRead
_TEXT	ENDS
; Function compile flags: /Odtp /ZI
; File E:\Xeneva Project\Aurora\Kernel\Fs\tty.cpp
;	COMDAT ?AuTTYMasterWrite@@YA_KPEAU__VFS_NODE__@@0PEA_KI@Z
_TEXT	SEGMENT
aligned_buf$ = 0
type$ = 8
i$1 = 16
fs$ = 112
file$ = 120
buffer$ = 128
len$ = 136
?AuTTYMasterWrite@@YA_KPEAU__VFS_NODE__@@0PEA_KI@Z PROC	; AuTTYMasterWrite, COMDAT

; 159  : size_t AuTTYMasterWrite(AuVFSNode* fs, AuVFSNode* file, uint64_t* buffer, uint32_t len) {

$LN7:
	mov	DWORD PTR [rsp+32], r9d
	mov	QWORD PTR [rsp+24], r8
	mov	QWORD PTR [rsp+16], rdx
	mov	QWORD PTR [rsp+8], rcx
	push	rbp
	sub	rsp, 128				; 00000080H
	lea	rbp, QWORD PTR [rsp+32]
	lea	rcx, OFFSET FLAT:__41D00D04_tty@cpp
	call	__CheckForDebuggerJustMyCode

; 160  : 	x64_cli();

	call	x64_cli

; 161  : 	uint8_t* aligned_buf = (uint8_t*)buffer;

	mov	rax, QWORD PTR buffer$[rbp]
	mov	QWORD PTR aligned_buf$[rbp], rax

; 162  : 	TTY* type = (TTY*)file->device;

	mov	rax, QWORD PTR file$[rbp]
	mov	rax, QWORD PTR [rax+64]
	mov	QWORD PTR type$[rbp], rax

; 163  : 	if (!type)

	cmp	QWORD PTR type$[rbp], 0
	jne	SHORT $LN5@AuTTYMaste

; 164  : 		return 0;

	xor	eax, eax
	jmp	SHORT $LN1@AuTTYMaste
$LN5@AuTTYMaste:

; 165  : 
; 166  : 	for (int i = 0; i < len; i++) {

	mov	DWORD PTR i$1[rbp], 0
	jmp	SHORT $LN4@AuTTYMaste
$LN2@AuTTYMaste:
	mov	eax, DWORD PTR i$1[rbp]
	inc	eax
	mov	DWORD PTR i$1[rbp], eax
$LN4@AuTTYMaste:
	mov	eax, DWORD PTR len$[rbp]
	cmp	DWORD PTR i$1[rbp], eax
	jae	SHORT $LN3@AuTTYMaste

; 167  : 		AuCircBufPut(type->slavebuf, aligned_buf[i]);

	movsxd	rax, DWORD PTR i$1[rbp]
	mov	rcx, QWORD PTR aligned_buf$[rbp]
	movzx	edx, BYTE PTR [rcx+rax]
	mov	rax, QWORD PTR type$[rbp]
	mov	rcx, QWORD PTR [rax+77]
	call	?AuCircBufPut@@YAHPEAU_circ_buf_@@E@Z	; AuCircBufPut

; 168  : 	}

	jmp	SHORT $LN2@AuTTYMaste
$LN3@AuTTYMaste:
$LN1@AuTTYMaste:

; 169  : }

	lea	rsp, QWORD PTR [rbp+96]
	pop	rbp
	ret	0
?AuTTYMasterWrite@@YA_KPEAU__VFS_NODE__@@0PEA_KI@Z ENDP	; AuTTYMasterWrite
_TEXT	ENDS
; Function compile flags: /Odtp /ZI
; File E:\Xeneva Project\Aurora\Kernel\Fs\tty.cpp
;	COMDAT ?AuTTYMasterRead@@YA_KPEAU__VFS_NODE__@@0PEA_KI@Z
_TEXT	SEGMENT
type$ = 0
bytes_to_ret$ = 8
aligned_buf$ = 16
i$1 = 24
fs$ = 112
file$ = 120
buffer$ = 128
len$ = 136
?AuTTYMasterRead@@YA_KPEAU__VFS_NODE__@@0PEA_KI@Z PROC	; AuTTYMasterRead, COMDAT

; 134  : size_t AuTTYMasterRead(AuVFSNode* fs, AuVFSNode* file, uint64_t* buffer, uint32_t len) {

$LN8:
	mov	DWORD PTR [rsp+32], r9d
	mov	QWORD PTR [rsp+24], r8
	mov	QWORD PTR [rsp+16], rdx
	mov	QWORD PTR [rsp+8], rcx
	push	rbp
	sub	rsp, 128				; 00000080H
	lea	rbp, QWORD PTR [rsp+32]
	lea	rcx, OFFSET FLAT:__41D00D04_tty@cpp
	call	__CheckForDebuggerJustMyCode

; 135  : 	x64_cli();

	call	x64_cli

; 136  : 	TTY* type = (TTY*)file->device;

	mov	rax, QWORD PTR file$[rbp]
	mov	rax, QWORD PTR [rax+64]
	mov	QWORD PTR type$[rbp], rax

; 137  : 	if (!type)

	cmp	QWORD PTR type$[rbp], 0
	jne	SHORT $LN5@AuTTYMaste

; 138  : 		return 0;

	xor	eax, eax
	jmp	$LN1@AuTTYMaste
$LN5@AuTTYMaste:

; 139  : 
; 140  : 	size_t bytes_to_ret = 0;

	mov	QWORD PTR bytes_to_ret$[rbp], 0

; 141  : 	uint8_t* aligned_buf = (uint8_t*)buffer;

	mov	rax, QWORD PTR buffer$[rbp]
	mov	QWORD PTR aligned_buf$[rbp], rax

; 142  : 
; 143  : 	if (CircBufEmpty(type->masterbuf)) {

	mov	rax, QWORD PTR type$[rbp]
	mov	rcx, QWORD PTR [rax+69]
	call	?CircBufEmpty@@YA_NPEAU_circ_buf_@@@Z	; CircBufEmpty
	movzx	eax, al
	test	eax, eax
	je	SHORT $LN6@AuTTYMaste

; 144  : 		return bytes_to_ret;

	mov	rax, QWORD PTR bytes_to_ret$[rbp]
	jmp	SHORT $LN1@AuTTYMaste
$LN6@AuTTYMaste:

; 145  : 	}
; 146  : 
; 147  : 	for (int i = 0; i < type->master_written; i++) {

	mov	DWORD PTR i$1[rbp], 0
	jmp	SHORT $LN4@AuTTYMaste
$LN2@AuTTYMaste:
	mov	eax, DWORD PTR i$1[rbp]
	inc	eax
	mov	DWORD PTR i$1[rbp], eax
$LN4@AuTTYMaste:
	mov	rax, QWORD PTR type$[rbp]
	mov	eax, DWORD PTR [rax+101]
	cmp	DWORD PTR i$1[rbp], eax
	jge	SHORT $LN3@AuTTYMaste

; 148  : 		AuCircBufGet(type->masterbuf, &aligned_buf[i]);

	movsxd	rax, DWORD PTR i$1[rbp]
	mov	rcx, QWORD PTR aligned_buf$[rbp]
	add	rcx, rax
	mov	rax, rcx
	mov	rdx, rax
	mov	rax, QWORD PTR type$[rbp]
	mov	rcx, QWORD PTR [rax+69]
	call	?AuCircBufGet@@YAHPEAU_circ_buf_@@PEAE@Z ; AuCircBufGet

; 149  : 		bytes_to_ret++;

	mov	rax, QWORD PTR bytes_to_ret$[rbp]
	inc	rax
	mov	QWORD PTR bytes_to_ret$[rbp], rax

; 150  : 	}

	jmp	SHORT $LN2@AuTTYMaste
$LN3@AuTTYMaste:

; 151  : 
; 152  : 	type->master_written = 0;

	mov	rax, QWORD PTR type$[rbp]
	mov	DWORD PTR [rax+101], 0

; 153  : 	return bytes_to_ret;

	mov	rax, QWORD PTR bytes_to_ret$[rbp]
$LN1@AuTTYMaste:

; 154  : }

	lea	rsp, QWORD PTR [rbp+96]
	pop	rbp
	ret	0
?AuTTYMasterRead@@YA_KPEAU__VFS_NODE__@@0PEA_KI@Z ENDP	; AuTTYMasterRead
_TEXT	ENDS
; Function compile flags: /Odtp /ZI
; File E:\Xeneva Project\Aurora\Kernel\Fs\tty.cpp
;	COMDAT ?AuTTYProcessLine@@YAXPEAU__tty__@@E@Z
_TEXT	SEGMENT
sig$1 = 0
tty$ = 96
c$ = 104
?AuTTYProcessLine@@YAXPEAU__tty__@@E@Z PROC		; AuTTYProcessLine, COMDAT

; 90   : void AuTTYProcessLine(TTY* tty, uint8_t c) {

$LN18:
	mov	BYTE PTR [rsp+16], dl
	mov	QWORD PTR [rsp+8], rcx
	push	rbp
	sub	rsp, 112				; 00000070H
	lea	rbp, QWORD PTR [rsp+32]
	lea	rcx, OFFSET FLAT:__41D00D04_tty@cpp
	call	__CheckForDebuggerJustMyCode

; 91   : 	if (tty->term.c_lflag & ISIG) {

	mov	rax, QWORD PTR tty$[rbp]
	mov	eax, DWORD PTR [rax+21]
	and	eax, 1
	test	eax, eax
	je	$LN2@AuTTYProce

; 92   : 		int sig = -1;

	mov	DWORD PTR sig$1[rbp], -1

; 93   : 		if (c == tty->term.c_cc[VINTR])

	movzx	eax, BYTE PTR c$[rbp]
	mov	ecx, 1
	imul	rcx, rcx, 0
	mov	rdx, QWORD PTR tty$[rbp]
	movzx	ecx, BYTE PTR [rdx+rcx+26]
	cmp	eax, ecx
	jne	SHORT $LN3@AuTTYProce

; 94   : 			sig = SIGINT;

	mov	DWORD PTR sig$1[rbp], 2
	jmp	SHORT $LN4@AuTTYProce
$LN3@AuTTYProce:

; 95   : 		else if (c == tty->term.c_cc[VQUIT])

	movzx	eax, BYTE PTR c$[rbp]
	mov	ecx, 1
	imul	rcx, rcx, 1
	mov	rdx, QWORD PTR tty$[rbp]
	movzx	ecx, BYTE PTR [rdx+rcx+26]
	cmp	eax, ecx
	jne	SHORT $LN5@AuTTYProce

; 96   : 			sig = SIGQUIT;

	mov	DWORD PTR sig$1[rbp], 3
	jmp	SHORT $LN6@AuTTYProce
$LN5@AuTTYProce:

; 97   : 		else if (c == tty->term.c_cc[VSUSP])

	movzx	eax, BYTE PTR c$[rbp]
	mov	ecx, 1
	imul	rcx, rcx, 10
	mov	rdx, QWORD PTR tty$[rbp]
	movzx	ecx, BYTE PTR [rdx+rcx+26]
	cmp	eax, ecx
	jne	SHORT $LN7@AuTTYProce

; 98   : 			sig = SIGTSTP;

	mov	DWORD PTR sig$1[rbp], 24
$LN7@AuTTYProce:
$LN6@AuTTYProce:
$LN4@AuTTYProce:

; 99   : 
; 100  : 		if (sig != -1) {

	cmp	DWORD PTR sig$1[rbp], -1
	je	SHORT $LN8@AuTTYProce

; 101  : 			if (tty->term.c_lflag & ECHO) {

	mov	rax, QWORD PTR tty$[rbp]
	mov	eax, DWORD PTR [rax+21]
	and	eax, 8
	test	eax, eax
	je	SHORT $LN9@AuTTYProce

; 102  : 				AuTTYWriteMaster(tty, '^');

	mov	dl, 94					; 0000005eH
	mov	rcx, QWORD PTR tty$[rbp]
	call	?AuTTYWriteMaster@@YAXPEAU__tty__@@E@Z	; AuTTYWriteMaster

; 103  : 				AuTTYWriteMaster(tty, ('@' + c) % 128);

	movzx	eax, BYTE PTR c$[rbp]
	add	eax, 64					; 00000040H
	cdq
	and	edx, 127				; 0000007fH
	add	eax, edx
	and	eax, 127				; 0000007fH
	sub	eax, edx
	movzx	edx, al
	mov	rcx, QWORD PTR tty$[rbp]
	call	?AuTTYWriteMaster@@YAXPEAU__tty__@@E@Z	; AuTTYWriteMaster

; 104  : 				AuTTYWriteMaster(tty, '\n');

	mov	dl, 10
	mov	rcx, QWORD PTR tty$[rbp]
	call	?AuTTYWriteMaster@@YAXPEAU__tty__@@E@Z	; AuTTYWriteMaster
$LN9@AuTTYProce:

; 105  : 			}
; 106  : 			//clear_input_buf
; 107  : 			//if foreground process group or process exist
; 108  : 				//send signal to foreground process, the sig number
; 109  : 			return;

	jmp	$LN1@AuTTYProce
$LN8@AuTTYProce:
$LN2@AuTTYProce:

; 110  : 		}
; 111  : 	}
; 112  : 
; 113  : 	if (tty->term.c_iflag & ISTRIP)

	mov	rax, QWORD PTR tty$[rbp]
	mov	eax, DWORD PTR [rax+9]
	and	eax, 32					; 00000020H
	test	eax, eax
	je	SHORT $LN10@AuTTYProce

; 114  : 		c &= 0x7f;

	movzx	eax, BYTE PTR c$[rbp]
	and	eax, 127				; 0000007fH
	mov	BYTE PTR c$[rbp], al
$LN10@AuTTYProce:

; 115  : 
; 116  : 	/* ignore CR*/
; 117  : 	if ((tty->term.c_iflag & IGNCR) && c == '\r')

	mov	rax, QWORD PTR tty$[rbp]
	mov	eax, DWORD PTR [rax+9]
	and	eax, 128				; 00000080H
	test	eax, eax
	je	SHORT $LN11@AuTTYProce
	movzx	eax, BYTE PTR c$[rbp]
	cmp	eax, 13
	jne	SHORT $LN11@AuTTYProce

; 118  : 		return;

	jmp	SHORT $LN1@AuTTYProce
$LN11@AuTTYProce:

; 119  : 
; 120  : 	if ((tty->term.c_iflag & INLCR) && c == '\n')

	mov	rax, QWORD PTR tty$[rbp]
	mov	eax, DWORD PTR [rax+9]
	and	eax, 64					; 00000040H
	test	eax, eax
	je	SHORT $LN12@AuTTYProce
	movzx	eax, BYTE PTR c$[rbp]
	cmp	eax, 10
	jne	SHORT $LN12@AuTTYProce

; 121  : 		c = '\r';

	mov	BYTE PTR c$[rbp], 13
	jmp	SHORT $LN13@AuTTYProce
$LN12@AuTTYProce:

; 122  : 	else if ((tty->term.c_iflag & ICRNL) && c == '\r')

	mov	rax, QWORD PTR tty$[rbp]
	mov	eax, DWORD PTR [rax+9]
	and	eax, 256				; 00000100H
	test	eax, eax
	je	SHORT $LN14@AuTTYProce
	movzx	eax, BYTE PTR c$[rbp]
	cmp	eax, 13
	jne	SHORT $LN14@AuTTYProce

; 123  : 		c = '\n';

	mov	BYTE PTR c$[rbp], 10
$LN14@AuTTYProce:
$LN13@AuTTYProce:

; 124  : 
; 125  : 	/* handle canonical mode */
; 126  : 	if (tty->term.c_lflag & ICANON) {

	mov	rax, QWORD PTR tty$[rbp]
	mov	eax, DWORD PTR [rax+21]
	and	eax, 2
	test	eax, eax
	je	SHORT $LN15@AuTTYProce

; 127  : 		if (c == tty->term.c_cc[VERASE]) {

	movzx	eax, BYTE PTR c$[rbp]
	mov	ecx, 1
	imul	rcx, rcx, 2
	mov	rdx, QWORD PTR tty$[rbp]
	movzx	ecx, BYTE PTR [rdx+rcx+26]
$LN15@AuTTYProce:
$LN1@AuTTYProce:

; 128  : 			/* erase the last character */
; 129  : 		}
; 130  : 	}
; 131  : }

	lea	rsp, QWORD PTR [rbp+80]
	pop	rbp
	ret	0
?AuTTYProcessLine@@YAXPEAU__tty__@@E@Z ENDP		; AuTTYProcessLine
_TEXT	ENDS
; Function compile flags: /Odtp /ZI
; File E:\Xeneva Project\Aurora\Kernel\Fs\tty.cpp
;	COMDAT ?AuTTYWriteMaster@@YAXPEAU__tty__@@E@Z
_TEXT	SEGMENT
tty$ = 80
c$ = 88
?AuTTYWriteMaster@@YAXPEAU__tty__@@E@Z PROC		; AuTTYWriteMaster, COMDAT

; 85   : void AuTTYWriteMaster(TTY* tty, uint8_t c) {

$LN3:
	mov	BYTE PTR [rsp+16], dl
	mov	QWORD PTR [rsp+8], rcx
	push	rbp
	sub	rsp, 96					; 00000060H
	lea	rbp, QWORD PTR [rsp+32]
	lea	rcx, OFFSET FLAT:__41D00D04_tty@cpp
	call	__CheckForDebuggerJustMyCode

; 86   : 	AuCircBufPut(tty->masterbuf, c);

	movzx	edx, BYTE PTR c$[rbp]
	mov	rax, QWORD PTR tty$[rbp]
	mov	rcx, QWORD PTR [rax+69]
	call	?AuCircBufPut@@YAHPEAU_circ_buf_@@E@Z	; AuCircBufPut

; 87   : }

	lea	rsp, QWORD PTR [rbp+64]
	pop	rbp
	ret	0
?AuTTYWriteMaster@@YAXPEAU__tty__@@E@Z ENDP		; AuTTYWriteMaster
_TEXT	ENDS
; Function compile flags: /Odtp /ZI
; File E:\Xeneva Project\Aurora\Kernel\Fs\tty.cpp
;	COMDAT ?AuTTYWriteSlave@@YAXPEAU__tty__@@E@Z
_TEXT	SEGMENT
tty$ = 80
c$ = 88
?AuTTYWriteSlave@@YAXPEAU__tty__@@E@Z PROC		; AuTTYWriteSlave, COMDAT

; 81   : void AuTTYWriteSlave(TTY* tty, uint8_t c) {

$LN3:
	mov	BYTE PTR [rsp+16], dl
	mov	QWORD PTR [rsp+8], rcx
	push	rbp
	sub	rsp, 96					; 00000060H
	lea	rbp, QWORD PTR [rsp+32]
	lea	rcx, OFFSET FLAT:__41D00D04_tty@cpp
	call	__CheckForDebuggerJustMyCode

; 82   : 	AuCircBufPut(tty->slavebuf, c);

	movzx	edx, BYTE PTR c$[rbp]
	mov	rax, QWORD PTR tty$[rbp]
	mov	rcx, QWORD PTR [rax+77]
	call	?AuCircBufPut@@YAHPEAU_circ_buf_@@E@Z	; AuCircBufPut

; 83   : }

	lea	rsp, QWORD PTR [rbp+64]
	pop	rbp
	ret	0
?AuTTYWriteSlave@@YAXPEAU__tty__@@E@Z ENDP		; AuTTYWriteSlave
_TEXT	ENDS
; Function compile flags: /Odtp /ZI
; File E:\Xeneva Project\Aurora\Kernel\Fs\tty.cpp
;	COMDAT ?AuTTYDelete@@YAXPEAU__tty__@@@Z
_TEXT	SEGMENT
tty$ = 80
?AuTTYDelete@@YAXPEAU__tty__@@@Z PROC			; AuTTYDelete, COMDAT

; 65   : void AuTTYDelete(TTY* tty) {

$LN8:
	mov	QWORD PTR [rsp+8], rcx
	push	rbp
	sub	rsp, 96					; 00000060H
	lea	rbp, QWORD PTR [rsp+32]
	lea	rcx, OFFSET FLAT:__41D00D04_tty@cpp
	call	__CheckForDebuggerJustMyCode

; 66   : 	if (root == NULL)

	cmp	QWORD PTR ?root@@3PEAU__tty__@@EA, 0	; root
	jne	SHORT $LN2@AuTTYDelet

; 67   : 		return;

	jmp	SHORT $LN1@AuTTYDelet
$LN2@AuTTYDelet:

; 68   : 	if (tty == root)

	mov	rax, QWORD PTR ?root@@3PEAU__tty__@@EA	; root
	cmp	QWORD PTR tty$[rbp], rax
	jne	SHORT $LN3@AuTTYDelet

; 69   : 		root = root->next;

	mov	rax, QWORD PTR ?root@@3PEAU__tty__@@EA	; root
	mov	rax, QWORD PTR [rax+115]
	mov	QWORD PTR ?root@@3PEAU__tty__@@EA, rax	; root
	jmp	SHORT $LN4@AuTTYDelet
$LN3@AuTTYDelet:

; 70   : 	else
; 71   : 		tty->prev->next = tty->next;

	mov	rax, QWORD PTR tty$[rbp]
	mov	rax, QWORD PTR [rax+123]
	mov	rcx, QWORD PTR tty$[rbp]
	mov	rcx, QWORD PTR [rcx+115]
	mov	QWORD PTR [rax+115], rcx
$LN4@AuTTYDelet:

; 72   : 
; 73   : 	if (tty == last)

	mov	rax, QWORD PTR ?last@@3PEAU__tty__@@EA	; last
	cmp	QWORD PTR tty$[rbp], rax
	jne	SHORT $LN5@AuTTYDelet

; 74   : 		last = tty->prev;

	mov	rax, QWORD PTR tty$[rbp]
	mov	rax, QWORD PTR [rax+123]
	mov	QWORD PTR ?last@@3PEAU__tty__@@EA, rax	; last
	jmp	SHORT $LN6@AuTTYDelet
$LN5@AuTTYDelet:

; 75   : 	else
; 76   : 		tty->next->prev = tty->prev;

	mov	rax, QWORD PTR tty$[rbp]
	mov	rax, QWORD PTR [rax+115]
	mov	rcx, QWORD PTR tty$[rbp]
	mov	rcx, QWORD PTR [rcx+123]
	mov	QWORD PTR [rax+123], rcx
$LN6@AuTTYDelet:

; 77   : 
; 78   : 	kfree(tty);

	mov	rcx, QWORD PTR tty$[rbp]
	call	kfree
$LN1@AuTTYDelet:

; 79   : }

	lea	rsp, QWORD PTR [rbp+64]
	pop	rbp
	ret	0
?AuTTYDelete@@YAXPEAU__tty__@@@Z ENDP			; AuTTYDelete
_TEXT	ENDS
; Function compile flags: /Odtp /ZI
; File E:\Xeneva Project\Aurora\Kernel\Fs\tty.cpp
;	COMDAT ?AuTTYInsert@@YAXPEAU__tty__@@@Z
_TEXT	SEGMENT
tty$ = 80
?AuTTYInsert@@YAXPEAU__tty__@@@Z PROC			; AuTTYInsert, COMDAT

; 50   : void AuTTYInsert(TTY* tty) {

$LN5:
	mov	QWORD PTR [rsp+8], rcx
	push	rbp
	sub	rsp, 96					; 00000060H
	lea	rbp, QWORD PTR [rsp+32]
	lea	rcx, OFFSET FLAT:__41D00D04_tty@cpp
	call	__CheckForDebuggerJustMyCode

; 51   : 	tty->next = NULL;

	mov	rax, QWORD PTR tty$[rbp]
	mov	QWORD PTR [rax+115], 0

; 52   : 	tty->prev = NULL;

	mov	rax, QWORD PTR tty$[rbp]
	mov	QWORD PTR [rax+123], 0

; 53   : 
; 54   : 	if (root == NULL) {

	cmp	QWORD PTR ?root@@3PEAU__tty__@@EA, 0	; root
	jne	SHORT $LN2@AuTTYInser

; 55   : 		last = tty;

	mov	rax, QWORD PTR tty$[rbp]
	mov	QWORD PTR ?last@@3PEAU__tty__@@EA, rax	; last

; 56   : 		root = tty;

	mov	rax, QWORD PTR tty$[rbp]
	mov	QWORD PTR ?root@@3PEAU__tty__@@EA, rax	; root

; 57   : 	}

	jmp	SHORT $LN3@AuTTYInser
$LN2@AuTTYInser:

; 58   : 	else {
; 59   : 		last->next = tty;

	mov	rax, QWORD PTR ?last@@3PEAU__tty__@@EA	; last
	mov	rcx, QWORD PTR tty$[rbp]
	mov	QWORD PTR [rax+115], rcx

; 60   : 		tty->prev = last;

	mov	rax, QWORD PTR tty$[rbp]
	mov	rcx, QWORD PTR ?last@@3PEAU__tty__@@EA	; last
	mov	QWORD PTR [rax+123], rcx
$LN3@AuTTYInser:

; 61   : 	}
; 62   : 	last = tty;

	mov	rax, QWORD PTR tty$[rbp]
	mov	QWORD PTR ?last@@3PEAU__tty__@@EA, rax	; last

; 63   : }

	lea	rsp, QWORD PTR [rbp+64]
	pop	rbp
	ret	0
?AuTTYInsert@@YAXPEAU__tty__@@@Z ENDP			; AuTTYInsert
_TEXT	ENDS
; Function compile flags: /Odtp /ZI
; File E:\Xeneva Project\Aurora\Kernel\Fs\tty.cpp
;	COMDAT ?AuTTYInitialise@@YAXXZ
_TEXT	SEGMENT
fs$ = 0
?AuTTYInitialise@@YAXXZ PROC				; AuTTYInitialise, COMDAT

; 385  : void AuTTYInitialise() {

$LN3:
	push	rbp
	sub	rsp, 112				; 00000070H
	lea	rbp, QWORD PTR [rsp+32]
	lea	rcx, OFFSET FLAT:__41D00D04_tty@cpp
	call	__CheckForDebuggerJustMyCode

; 386  : 	root = NULL;

	mov	QWORD PTR ?root@@3PEAU__tty__@@EA, 0	; root

; 387  : 	last = NULL;

	mov	QWORD PTR ?last@@3PEAU__tty__@@EA, 0	; last

; 388  : 	master_count = 0;

	mov	QWORD PTR ?master_count@@3_KA, 0	; master_count

; 389  : 	slave_count = 0;

	mov	QWORD PTR ?slave_count@@3_KA, 0		; slave_count

; 390  : 	/* create a directory for tty's */
; 391  : 	AuVFSNode* fs = AuVFSFind("/dev");

	lea	rcx, OFFSET FLAT:??_C@_04PJHBAHNI@?1dev@
	call	AuVFSFind
	mov	QWORD PTR fs$[rbp], rax

; 392  : 	AuDevFSCreateFile(fs, "/dev/tty", FS_FLAG_DIRECTORY);

	mov	r8b, 2
	lea	rdx, OFFSET FLAT:??_C@_08BOCDAINB@?1dev?1tty@
	mov	rcx, QWORD PTR fs$[rbp]
	call	?AuDevFSCreateFile@@YAHPEAU__VFS_NODE__@@PEADE@Z ; AuDevFSCreateFile

; 393  : }

	lea	rsp, QWORD PTR [rbp+80]
	pop	rbp
	ret	0
?AuTTYInitialise@@YAXXZ ENDP				; AuTTYInitialise
_TEXT	ENDS
; Function compile flags: /Odtp /ZI
; File E:\Xeneva Project\Aurora\Kernel\Fs\tty.cpp
;	COMDAT ?AuTTYCreate@@YAHPEAH0@Z
_TEXT	SEGMENT
thr$ = 0
proc$ = 8
tty$ = 16
inbuffer$ = 24
outbuffer$ = 32
master$ = 40
slave$ = 48
fd$ = 56
master_fd$ = 144
slave_fd$ = 152
?AuTTYCreate@@YAHPEAH0@Z PROC				; AuTTYCreate, COMDAT

; 330  : int AuTTYCreate(int* master_fd, int* slave_fd) {

$LN6:
	mov	QWORD PTR [rsp+16], rdx
	mov	QWORD PTR [rsp+8], rcx
	push	rbp
	sub	rsp, 160				; 000000a0H
	lea	rbp, QWORD PTR [rsp+32]
	lea	rcx, OFFSET FLAT:__41D00D04_tty@cpp
	call	__CheckForDebuggerJustMyCode

; 331  : 	x64_cli();

	call	x64_cli

; 332  : 
; 333  : 	AuThread* thr = AuGetCurrentThread();

	call	AuGetCurrentThread
	mov	QWORD PTR thr$[rbp], rax

; 334  : 	AuProcess* proc = AuProcessFindThread(thr);

	mov	rcx, QWORD PTR thr$[rbp]
	call	?AuProcessFindThread@@YAPEAU_au_proc_@@PEAU_au_thread_@@@Z ; AuProcessFindThread
	mov	QWORD PTR proc$[rbp], rax

; 335  : 	if (!proc)

	cmp	QWORD PTR proc$[rbp], 0
	jne	SHORT $LN2@AuTTYCreat

; 336  : 		return -1;

	mov	eax, -1
	jmp	$LN1@AuTTYCreat
$LN2@AuTTYCreat:

; 337  : 
; 338  : 	TTY* tty = (TTY*)kmalloc(sizeof(TTY));

	mov	ecx, 131				; 00000083H
	call	kmalloc
	mov	QWORD PTR tty$[rbp], rax

; 339  : 	memset(tty, 0, sizeof(TTY));

	mov	r8d, 131				; 00000083H
	xor	edx, edx
	mov	rcx, QWORD PTR tty$[rbp]
	call	memset

; 340  : 
; 341  : 	void* inbuffer = kmalloc(512);

	mov	ecx, 512				; 00000200H
	call	kmalloc
	mov	QWORD PTR inbuffer$[rbp], rax

; 342  : 	memset(inbuffer, 0, 512);

	mov	r8d, 512				; 00000200H
	xor	edx, edx
	mov	rcx, QWORD PTR inbuffer$[rbp]
	call	memset

; 343  : 	void* outbuffer = kmalloc(512);

	mov	ecx, 512				; 00000200H
	call	kmalloc
	mov	QWORD PTR outbuffer$[rbp], rax

; 344  : 	memset(outbuffer, 0, 512);

	mov	r8d, 512				; 00000200H
	xor	edx, edx
	mov	rcx, QWORD PTR outbuffer$[rbp]
	call	memset

; 345  : 
; 346  : 	tty->masterbuf = AuCircBufInitialise((uint8_t*)inbuffer, 512);

	mov	edx, 512				; 00000200H
	mov	rcx, QWORD PTR inbuffer$[rbp]
	call	?AuCircBufInitialise@@YAPEAU_circ_buf_@@PEAE_K@Z ; AuCircBufInitialise
	mov	rcx, QWORD PTR tty$[rbp]
	mov	QWORD PTR [rcx+69], rax

; 347  : 	tty->slavebuf = AuCircBufInitialise((uint8_t*)outbuffer, 512);

	mov	edx, 512				; 00000200H
	mov	rcx, QWORD PTR outbuffer$[rbp]
	call	?AuCircBufInitialise@@YAPEAU_circ_buf_@@PEAE_K@Z ; AuCircBufInitialise
	mov	rcx, QWORD PTR tty$[rbp]
	mov	QWORD PTR [rcx+77], rax

; 348  : 
; 349  : 	tty->id = slave_count;

	mov	rax, QWORD PTR tty$[rbp]
	movzx	ecx, BYTE PTR ?slave_count@@3_KA
	mov	BYTE PTR [rax], cl

; 350  : 	tty->master_written = 0;

	mov	rax, QWORD PTR tty$[rbp]
	mov	DWORD PTR [rax+101], 0

; 351  : 	tty->slave_written = 0;

	mov	rax, QWORD PTR tty$[rbp]
	mov	DWORD PTR [rax+105], 0

; 352  : 
; 353  : 	tty->masterbuf_ptr = inbuffer;

	mov	rax, QWORD PTR tty$[rbp]
	mov	rcx, QWORD PTR inbuffer$[rbp]
	mov	QWORD PTR [rax+85], rcx

; 354  : 	tty->slavebuf_ptr = outbuffer;

	mov	rax, QWORD PTR tty$[rbp]
	mov	rcx, QWORD PTR outbuffer$[rbp]
	mov	QWORD PTR [rax+93], rcx

; 355  : 
; 356  : 	tty->term.c_iflag = ICRNL | BRKINT;

	mov	rax, QWORD PTR tty$[rbp]
	mov	DWORD PTR [rax+9], 258			; 00000102H

; 357  : 	tty->term.c_oflag = ONLCR | OPOST;

	mov	rax, QWORD PTR tty$[rbp]
	mov	DWORD PTR [rax+13], 5

; 358  : 	tty->term.c_iflag = ECHO | ECHOE | ECHOK | ICANON | ISIG | IEXTEN;

	mov	rax, QWORD PTR tty$[rbp]
	mov	DWORD PTR [rax+9], 32827		; 0000803bH

; 359  : 	tty->term.c_cflag = CREAD | CS8;

	mov	rax, QWORD PTR tty$[rbp]
	mov	DWORD PTR [rax+17], 176			; 000000b0H

; 360  : 	tty->term.c_cc[VEOF] = 4;

	mov	eax, 1
	imul	rax, rax, 4
	mov	rcx, QWORD PTR tty$[rbp]
	mov	BYTE PTR [rcx+rax+26], 4

; 361  : 	tty->term.c_cc[VEOL] = 0;

	mov	eax, 1
	imul	rax, rax, 11
	mov	rcx, QWORD PTR tty$[rbp]
	mov	BYTE PTR [rcx+rax+26], 0

; 362  : 	tty->term.c_cc[VERASE] = 0x7f;

	mov	eax, 1
	imul	rax, rax, 2
	mov	rcx, QWORD PTR tty$[rbp]
	mov	BYTE PTR [rcx+rax+26], 127		; 0000007fH

; 363  : 
; 364  : 	AuVFSNode* master = AuTTYCreateMaster(tty);

	mov	rcx, QWORD PTR tty$[rbp]
	call	?AuTTYCreateMaster@@YAPEAU__VFS_NODE__@@PEAU__tty__@@@Z ; AuTTYCreateMaster
	mov	QWORD PTR master$[rbp], rax

; 365  : 	AuVFSNode* slave = AuTTYCreateSlave(tty);

	mov	rcx, QWORD PTR tty$[rbp]
	call	?AuTTYCreateSlave@@YAPEAU__VFS_NODE__@@PEAU__tty__@@@Z ; AuTTYCreateSlave
	mov	QWORD PTR slave$[rbp], rax

; 366  : 
; 367  : 	int fd = AuProcessGetFileDesc(proc);

	mov	rcx, QWORD PTR proc$[rbp]
	call	?AuProcessGetFileDesc@@YAHPEAU_au_proc_@@@Z ; AuProcessGetFileDesc
	mov	DWORD PTR fd$[rbp], eax

; 368  : 	if (fd == -1)

	cmp	DWORD PTR fd$[rbp], -1
	jne	SHORT $LN3@AuTTYCreat

; 369  : 		return 0;

	xor	eax, eax
	jmp	SHORT $LN1@AuTTYCreat
$LN3@AuTTYCreat:

; 370  : 	proc->fds[fd] = master;

	movsxd	rax, DWORD PTR fd$[rbp]
	mov	rcx, QWORD PTR proc$[rbp]
	mov	rdx, QWORD PTR master$[rbp]
	mov	QWORD PTR [rcx+rax*8+567], rdx

; 371  : 	*master_fd = fd;

	mov	rax, QWORD PTR master_fd$[rbp]
	mov	ecx, DWORD PTR fd$[rbp]
	mov	DWORD PTR [rax], ecx

; 372  : 
; 373  : 	fd = AuProcessGetFileDesc(proc);

	mov	rcx, QWORD PTR proc$[rbp]
	call	?AuProcessGetFileDesc@@YAHPEAU_au_proc_@@@Z ; AuProcessGetFileDesc
	mov	DWORD PTR fd$[rbp], eax

; 374  : 	if (fd == -1)

	cmp	DWORD PTR fd$[rbp], -1
	jne	SHORT $LN4@AuTTYCreat

; 375  : 		return 0;

	xor	eax, eax
	jmp	SHORT $LN1@AuTTYCreat
$LN4@AuTTYCreat:

; 376  : 	proc->fds[fd] = slave;

	movsxd	rax, DWORD PTR fd$[rbp]
	mov	rcx, QWORD PTR proc$[rbp]
	mov	rdx, QWORD PTR slave$[rbp]
	mov	QWORD PTR [rcx+rax*8+567], rdx

; 377  : 	*slave_fd = fd;

	mov	rax, QWORD PTR slave_fd$[rbp]
	mov	ecx, DWORD PTR fd$[rbp]
	mov	DWORD PTR [rax], ecx

; 378  : 
; 379  : 	return 1;

	mov	eax, 1
$LN1@AuTTYCreat:

; 380  : }

	lea	rsp, QWORD PTR [rbp+128]
	pop	rbp
	ret	0
?AuTTYCreate@@YAHPEAH0@Z ENDP				; AuTTYCreate
_TEXT	ENDS
END
