; Listing generated by Microsoft (R) Optimizing Compiler Version 19.29.30154.0 

include listing.inc

INCLUDELIB LIBCMT
INCLUDELIB OLDNAMES

msvcjmc	SEGMENT
__3DE2DA08_udp@cpp DB 01H
msvcjmc	ENDS
PUBLIC	?AuUDPReceive@@YAHPEAU_socket_@@PEAU_msghdr_@@H@Z ; AuUDPReceive
PUBLIC	?AuUDPSend@@YAHPEAU_socket_@@PEAU_msghdr_@@H@Z	; AuUDPSend
PUBLIC	?AuUDPClose@@YAXPEAU_socket_@@@Z		; AuUDPClose
PUBLIC	?AuUDPBind@@YAHPEAU_socket_@@PEAU_sockaddr_@@_K@Z ; AuUDPBind
PUBLIC	?AuUDPRead@@YA_KPEAU__VFS_NODE__@@0PEA_KI@Z	; AuUDPRead
PUBLIC	?AuUDPWrite@@YA_KPEAU__VFS_NODE__@@0PEA_KI@Z	; AuUDPWrite
PUBLIC	?CreateUDPSocket@@YAHXZ				; CreateUDPSocket
PUBLIC	__JustMyCode_Default
PUBLIC	??_C@_0BG@IFMCJNK@UDP?5Socket?5created?5?$AN?6@	; `string'
EXTRN	AuGetCurrentThread:PROC
EXTRN	?AuProcessFindThread@@YAPEAU_au_proc_@@PEAU_au_thread_@@@Z:PROC ; AuProcessFindThread
EXTRN	?AuProcessFindSubThread@@YAPEAU_au_proc_@@PEAU_au_thread_@@@Z:PROC ; AuProcessFindSubThread
EXTRN	?AuProcessGetFileDesc@@YAHPEAU_au_proc_@@@Z:PROC ; AuProcessGetFileDesc
EXTRN	kmalloc:PROC
EXTRN	memset:PROC
EXTRN	SeTextOut:PROC
EXTRN	__CheckForDebuggerJustMyCode:PROC
;	COMDAT pdata
pdata	SEGMENT
$pdata$?AuUDPReceive@@YAHPEAU_socket_@@PEAU_msghdr_@@H@Z DD imagerel $LN3
	DD	imagerel $LN3+45
	DD	imagerel $unwind$?AuUDPReceive@@YAHPEAU_socket_@@PEAU_msghdr_@@H@Z
pdata	ENDS
;	COMDAT pdata
pdata	SEGMENT
$pdata$?AuUDPSend@@YAHPEAU_socket_@@PEAU_msghdr_@@H@Z DD imagerel $LN3
	DD	imagerel $LN3+45
	DD	imagerel $unwind$?AuUDPSend@@YAHPEAU_socket_@@PEAU_msghdr_@@H@Z
pdata	ENDS
;	COMDAT pdata
pdata	SEGMENT
$pdata$?AuUDPClose@@YAXPEAU_socket_@@@Z DD imagerel $LN3
	DD	imagerel $LN3+33
	DD	imagerel $unwind$?AuUDPClose@@YAXPEAU_socket_@@@Z
pdata	ENDS
;	COMDAT pdata
pdata	SEGMENT
$pdata$?AuUDPBind@@YAHPEAU_socket_@@PEAU_sockaddr_@@_K@Z DD imagerel $LN3
	DD	imagerel $LN3+45
	DD	imagerel $unwind$?AuUDPBind@@YAHPEAU_socket_@@PEAU_sockaddr_@@_K@Z
pdata	ENDS
;	COMDAT pdata
pdata	SEGMENT
$pdata$?AuUDPRead@@YA_KPEAU__VFS_NODE__@@0PEA_KI@Z DD imagerel $LN3
	DD	imagerel $LN3+50
	DD	imagerel $unwind$?AuUDPRead@@YA_KPEAU__VFS_NODE__@@0PEA_KI@Z
pdata	ENDS
;	COMDAT pdata
pdata	SEGMENT
$pdata$?AuUDPWrite@@YA_KPEAU__VFS_NODE__@@0PEA_KI@Z DD imagerel $LN3
	DD	imagerel $LN3+50
	DD	imagerel $unwind$?AuUDPWrite@@YA_KPEAU__VFS_NODE__@@0PEA_KI@Z
pdata	ENDS
;	COMDAT pdata
pdata	SEGMENT
$pdata$?CreateUDPSocket@@YAHXZ DD imagerel $LN6
	DD	imagerel $LN6+265
	DD	imagerel $unwind$?CreateUDPSocket@@YAHXZ
pdata	ENDS
;	COMDAT ??_C@_0BG@IFMCJNK@UDP?5Socket?5created?5?$AN?6@
CONST	SEGMENT
??_C@_0BG@IFMCJNK@UDP?5Socket?5created?5?$AN?6@ DB 'UDP Socket created ', 0dH
	DB	0aH, 00H					; `string'
CONST	ENDS
;	COMDAT xdata
xdata	SEGMENT
$unwind$?CreateUDPSocket@@YAHXZ DD 025030e01H
	DD	0f209230eH
	DD	05002H
xdata	ENDS
;	COMDAT xdata
xdata	SEGMENT
$unwind$?AuUDPWrite@@YA_KPEAU__VFS_NODE__@@0PEA_KI@Z DD 025031e01H
	DD	0b219231eH
	DD	05015H
xdata	ENDS
;	COMDAT xdata
xdata	SEGMENT
$unwind$?AuUDPRead@@YA_KPEAU__VFS_NODE__@@0PEA_KI@Z DD 025031e01H
	DD	0b219231eH
	DD	05015H
xdata	ENDS
;	COMDAT xdata
xdata	SEGMENT
$unwind$?AuUDPBind@@YAHPEAU_socket_@@PEAU_sockaddr_@@_K@Z DD 025031901H
	DD	0b2142319H
	DD	05010H
xdata	ENDS
;	COMDAT xdata
xdata	SEGMENT
$unwind$?AuUDPClose@@YAXPEAU_socket_@@@Z DD 025030f01H
	DD	0b20a230fH
	DD	05006H
xdata	ENDS
;	COMDAT xdata
xdata	SEGMENT
$unwind$?AuUDPSend@@YAHPEAU_socket_@@PEAU_msghdr_@@H@Z DD 025031901H
	DD	0b2142319H
	DD	05010H
xdata	ENDS
;	COMDAT xdata
xdata	SEGMENT
$unwind$?AuUDPReceive@@YAHPEAU_socket_@@PEAU_msghdr_@@H@Z DD 025031901H
	DD	0b2142319H
	DD	05010H
xdata	ENDS
; Function compile flags: /Odt
;	COMDAT __JustMyCode_Default
_TEXT	SEGMENT
__JustMyCode_Default PROC				; COMDAT
	ret	0
__JustMyCode_Default ENDP
_TEXT	ENDS
; Function compile flags: /Odtp /ZI
; File E:\Xeneva Project\Aurora\Kernel\Net\udp.cpp
;	COMDAT ?CreateUDPSocket@@YAHXZ
_TEXT	SEGMENT
fd$ = 0
thread$ = 8
proc$ = 16
sock$ = 24
?CreateUDPSocket@@YAHXZ PROC				; CreateUDPSocket, COMDAT

; 81   : int CreateUDPSocket() {

$LN6:
	push	rbp
	sub	rsp, 128				; 00000080H
	lea	rbp, QWORD PTR [rsp+32]
	lea	rcx, OFFSET FLAT:__3DE2DA08_udp@cpp
	call	__CheckForDebuggerJustMyCode

; 82   : 	int fd = -1;

	mov	DWORD PTR fd$[rbp], -1

; 83   : 	AuThread *thread = AuGetCurrentThread();

	call	AuGetCurrentThread
	mov	QWORD PTR thread$[rbp], rax

; 84   : 	if (!thread)

	cmp	QWORD PTR thread$[rbp], 0
	jne	SHORT $LN2@CreateUDPS

; 85   : 		return -1;

	mov	eax, -1
	jmp	$LN1@CreateUDPS
$LN2@CreateUDPS:

; 86   : 	AuProcess *proc = AuProcessFindThread(thread);

	mov	rcx, QWORD PTR thread$[rbp]
	call	?AuProcessFindThread@@YAPEAU_au_proc_@@PEAU_au_thread_@@@Z ; AuProcessFindThread
	mov	QWORD PTR proc$[rbp], rax

; 87   : 	if (!proc)

	cmp	QWORD PTR proc$[rbp], 0
	jne	SHORT $LN3@CreateUDPS

; 88   : 		proc = AuProcessFindSubThread(thread);

	mov	rcx, QWORD PTR thread$[rbp]
	call	?AuProcessFindSubThread@@YAPEAU_au_proc_@@PEAU_au_thread_@@@Z ; AuProcessFindSubThread
	mov	QWORD PTR proc$[rbp], rax
$LN3@CreateUDPS:

; 89   : 	if (!proc)

	cmp	QWORD PTR proc$[rbp], 0
	jne	SHORT $LN4@CreateUDPS

; 90   : 		return -1;

	mov	eax, -1
	jmp	$LN1@CreateUDPS
$LN4@CreateUDPS:

; 91   : 	AuSocket *sock = (AuSocket*)kmalloc(sizeof(AuSocket));

	mov	ecx, 56					; 00000038H
	call	kmalloc
	mov	QWORD PTR sock$[rbp], rax

; 92   : 	memset(sock, 0, sizeof(AuSocket));

	mov	r8d, 56					; 00000038H
	xor	edx, edx
	mov	rcx, QWORD PTR sock$[rbp]
	call	memset

; 93   : 	fd = AuProcessGetFileDesc(proc);

	mov	rcx, QWORD PTR proc$[rbp]
	call	?AuProcessGetFileDesc@@YAHPEAU_au_proc_@@@Z ; AuProcessGetFileDesc
	mov	DWORD PTR fd$[rbp], eax

; 94   : 	/*sock->fsnode.read = AuUDPRead;
; 95   : 	sock->fsnode.write = AuUDPWrite;*/
; 96   : 	sock->bind = AuUDPBind;

	mov	rax, QWORD PTR sock$[rbp]
	lea	rcx, OFFSET FLAT:?AuUDPBind@@YAHPEAU_socket_@@PEAU_sockaddr_@@_K@Z ; AuUDPBind
	mov	QWORD PTR [rax+48], rcx

; 97   : 	sock->close = AuUDPClose;

	mov	rax, QWORD PTR sock$[rbp]
	lea	rcx, OFFSET FLAT:?AuUDPClose@@YAXPEAU_socket_@@@Z ; AuUDPClose
	mov	QWORD PTR [rax+32], rcx

; 98   : 	sock->connect = 0;

	mov	rax, QWORD PTR sock$[rbp]
	mov	QWORD PTR [rax+40], 0

; 99   : 	sock->receive = AuUDPReceive;

	mov	rax, QWORD PTR sock$[rbp]
	lea	rcx, OFFSET FLAT:?AuUDPReceive@@YAHPEAU_socket_@@PEAU_msghdr_@@H@Z ; AuUDPReceive
	mov	QWORD PTR [rax+16], rcx

; 100  : 	sock->send = AuUDPSend;

	mov	rax, QWORD PTR sock$[rbp]
	lea	rcx, OFFSET FLAT:?AuUDPSend@@YAHPEAU_socket_@@PEAU_msghdr_@@H@Z ; AuUDPSend
	mov	QWORD PTR [rax+24], rcx

; 101  : 	proc->fds[fd] = (AuVFSNode*)sock;

	movsxd	rax, DWORD PTR fd$[rbp]
	mov	rcx, QWORD PTR proc$[rbp]
	mov	rdx, QWORD PTR sock$[rbp]
	mov	QWORD PTR [rcx+rax*8+567], rdx

; 102  : 	SeTextOut("UDP Socket created \r\n");

	lea	rcx, OFFSET FLAT:??_C@_0BG@IFMCJNK@UDP?5Socket?5created?5?$AN?6@
	call	SeTextOut

; 103  : 	return fd;

	mov	eax, DWORD PTR fd$[rbp]
$LN1@CreateUDPS:

; 104  : }

	lea	rsp, QWORD PTR [rbp+96]
	pop	rbp
	ret	0
?CreateUDPSocket@@YAHXZ ENDP				; CreateUDPSocket
_TEXT	ENDS
; Function compile flags: /Odtp /ZI
; File E:\Xeneva Project\Aurora\Kernel\Net\udp.cpp
;	COMDAT ?AuUDPWrite@@YA_KPEAU__VFS_NODE__@@0PEA_KI@Z
_TEXT	SEGMENT
node$ = 80
file$ = 88
buffer$ = 96
len$ = 104
?AuUDPWrite@@YA_KPEAU__VFS_NODE__@@0PEA_KI@Z PROC	; AuUDPWrite, COMDAT

; 74   : uint64_t AuUDPWrite(AuVFSNode* node, AuVFSNode* file, uint64_t* buffer, uint32_t len) {

$LN3:
	mov	DWORD PTR [rsp+32], r9d
	mov	QWORD PTR [rsp+24], r8
	mov	QWORD PTR [rsp+16], rdx
	mov	QWORD PTR [rsp+8], rcx
	push	rbp
	sub	rsp, 96					; 00000060H
	lea	rbp, QWORD PTR [rsp+32]
	lea	rcx, OFFSET FLAT:__3DE2DA08_udp@cpp
	call	__CheckForDebuggerJustMyCode

; 75   : 	return 0;

	xor	eax, eax

; 76   : }

	lea	rsp, QWORD PTR [rbp+64]
	pop	rbp
	ret	0
?AuUDPWrite@@YA_KPEAU__VFS_NODE__@@0PEA_KI@Z ENDP	; AuUDPWrite
_TEXT	ENDS
; Function compile flags: /Odtp /ZI
; File E:\Xeneva Project\Aurora\Kernel\Net\udp.cpp
;	COMDAT ?AuUDPRead@@YA_KPEAU__VFS_NODE__@@0PEA_KI@Z
_TEXT	SEGMENT
node$ = 80
file$ = 88
buffer$ = 96
len$ = 104
?AuUDPRead@@YA_KPEAU__VFS_NODE__@@0PEA_KI@Z PROC	; AuUDPRead, COMDAT

; 70   : uint64_t AuUDPRead(AuVFSNode* node, AuVFSNode* file, uint64_t* buffer, uint32_t len){

$LN3:
	mov	DWORD PTR [rsp+32], r9d
	mov	QWORD PTR [rsp+24], r8
	mov	QWORD PTR [rsp+16], rdx
	mov	QWORD PTR [rsp+8], rcx
	push	rbp
	sub	rsp, 96					; 00000060H
	lea	rbp, QWORD PTR [rsp+32]
	lea	rcx, OFFSET FLAT:__3DE2DA08_udp@cpp
	call	__CheckForDebuggerJustMyCode

; 71   : 	return 0;

	xor	eax, eax

; 72   : }

	lea	rsp, QWORD PTR [rbp+64]
	pop	rbp
	ret	0
?AuUDPRead@@YA_KPEAU__VFS_NODE__@@0PEA_KI@Z ENDP	; AuUDPRead
_TEXT	ENDS
; Function compile flags: /Odtp /ZI
; File E:\Xeneva Project\Aurora\Kernel\Net\udp.cpp
;	COMDAT ?AuUDPBind@@YAHPEAU_socket_@@PEAU_sockaddr_@@_K@Z
_TEXT	SEGMENT
sock$ = 80
addr$ = 88
addrlen$ = 96
?AuUDPBind@@YAHPEAU_socket_@@PEAU_sockaddr_@@_K@Z PROC	; AuUDPBind, COMDAT

; 65   : int AuUDPBind(AuSocket* sock, sockaddr* addr, socklen_t addrlen){

$LN3:
	mov	QWORD PTR [rsp+24], r8
	mov	QWORD PTR [rsp+16], rdx
	mov	QWORD PTR [rsp+8], rcx
	push	rbp
	sub	rsp, 96					; 00000060H
	lea	rbp, QWORD PTR [rsp+32]
	lea	rcx, OFFSET FLAT:__3DE2DA08_udp@cpp
	call	__CheckForDebuggerJustMyCode

; 66   : 	return 0;

	xor	eax, eax

; 67   : }

	lea	rsp, QWORD PTR [rbp+64]
	pop	rbp
	ret	0
?AuUDPBind@@YAHPEAU_socket_@@PEAU_sockaddr_@@_K@Z ENDP	; AuUDPBind
_TEXT	ENDS
; Function compile flags: /Odtp /ZI
; File E:\Xeneva Project\Aurora\Kernel\Net\udp.cpp
;	COMDAT ?AuUDPClose@@YAXPEAU_socket_@@@Z
_TEXT	SEGMENT
sock$ = 80
?AuUDPClose@@YAXPEAU_socket_@@@Z PROC			; AuUDPClose, COMDAT

; 60   : void AuUDPClose(AuSocket* sock) {

$LN3:
	mov	QWORD PTR [rsp+8], rcx
	push	rbp
	sub	rsp, 96					; 00000060H
	lea	rbp, QWORD PTR [rsp+32]
	lea	rcx, OFFSET FLAT:__3DE2DA08_udp@cpp
	call	__CheckForDebuggerJustMyCode

; 61   : 	return;
; 62   : }

	lea	rsp, QWORD PTR [rbp+64]
	pop	rbp
	ret	0
?AuUDPClose@@YAXPEAU_socket_@@@Z ENDP			; AuUDPClose
_TEXT	ENDS
; Function compile flags: /Odtp /ZI
; File E:\Xeneva Project\Aurora\Kernel\Net\udp.cpp
;	COMDAT ?AuUDPSend@@YAHPEAU_socket_@@PEAU_msghdr_@@H@Z
_TEXT	SEGMENT
sock$ = 80
msg$ = 88
flags$ = 96
?AuUDPSend@@YAHPEAU_socket_@@PEAU_msghdr_@@H@Z PROC	; AuUDPSend, COMDAT

; 52   : int AuUDPSend(AuSocket* sock, msghdr* msg, int flags){

$LN3:
	mov	DWORD PTR [rsp+24], r8d
	mov	QWORD PTR [rsp+16], rdx
	mov	QWORD PTR [rsp+8], rcx
	push	rbp
	sub	rsp, 96					; 00000060H
	lea	rbp, QWORD PTR [rsp+32]
	lea	rcx, OFFSET FLAT:__3DE2DA08_udp@cpp
	call	__CheckForDebuggerJustMyCode

; 53   : 	return 0;

	xor	eax, eax

; 54   : }

	lea	rsp, QWORD PTR [rbp+64]
	pop	rbp
	ret	0
?AuUDPSend@@YAHPEAU_socket_@@PEAU_msghdr_@@H@Z ENDP	; AuUDPSend
_TEXT	ENDS
; Function compile flags: /Odtp /ZI
; File E:\Xeneva Project\Aurora\Kernel\Net\udp.cpp
;	COMDAT ?AuUDPReceive@@YAHPEAU_socket_@@PEAU_msghdr_@@H@Z
_TEXT	SEGMENT
sock$ = 80
msg$ = 88
flags$ = 96
?AuUDPReceive@@YAHPEAU_socket_@@PEAU_msghdr_@@H@Z PROC	; AuUDPReceive, COMDAT

; 42   : int AuUDPReceive(AuSocket* sock, msghdr *msg, int flags){

$LN3:
	mov	DWORD PTR [rsp+24], r8d
	mov	QWORD PTR [rsp+16], rdx
	mov	QWORD PTR [rsp+8], rcx
	push	rbp
	sub	rsp, 96					; 00000060H
	lea	rbp, QWORD PTR [rsp+32]
	lea	rcx, OFFSET FLAT:__3DE2DA08_udp@cpp
	call	__CheckForDebuggerJustMyCode

; 43   : 	return 0;

	xor	eax, eax

; 44   : }

	lea	rsp, QWORD PTR [rbp+64]
	pop	rbp
	ret	0
?AuUDPReceive@@YAHPEAU_socket_@@PEAU_msghdr_@@H@Z ENDP	; AuUDPReceive
_TEXT	ENDS
END
