; Listing generated by Microsoft (R) Optimizing Compiler Version 18.00.21005.1 

include listing.inc

INCLUDELIB LIBCMT
INCLUDELIB OLDNAMES

CONST	SEGMENT
$SG4105	DB	0dH, 0aH, ' ***ARCH x86_64 : Kernel Panic!!! *** ', 0dH, 0aH
	DB	00H
	ORG $+5
$SG4106	DB	'[Aurora Kernel]: We are sorry to say that, a processor i'
	DB	'nvalid exception has occured ', 0dH, 0aH, 00H
$SG4108	DB	'[Aurora Kernel]: Below is the code of exception ', 0dH, 0aH
	DB	00H
	ORG $+5
$SG4107	DB	'[Aurora Kernel]: please inform it to the master of the k'
	DB	'ernel ', 0dH, 0aH, 00H
	ORG $+3
$SG4110	DB	' %s ', 0dH, 0aH, 00H
	ORG $+5
$SG4109	DB	'[Aurora Kernel]: Current Processor id -> %d ', 0dH, 0aH, 00H
	ORG $+1
$SG4117	DB	0aH, 'Divide by 0', 00H
	ORG $+3
$SG4118	DB	'Divide by 0 ', 0dH, 0aH, 00H
	ORG $+1
$SG4119	DB	'__PROCESSOR_DATA__ ', 0dH, 0aH, 00H
	ORG $+2
$SG4120	DB	'RIP -> %x ', 0dH, 0aH, 00H
	ORG $+3
$SG4121	DB	'RSP -> %x ', 0dH, 0aH, 00H
	ORG $+3
$SG4122	DB	'RFLAGS -> %x ', 0dH, 0aH, 00H
$SG4132	DB	0aH, 'Single Step Trap', 00H
	ORG $+6
$SG4140	DB	0aH, 'NMI [Non-Muskable-Interrupt] Trap', 00H
	ORG $+5
$SG4148	DB	0aH, 'Breakpoint Trap', 00H
	ORG $+7
$SG4156	DB	0aH, 'Overflow Trap', 00H
	ORG $+1
$SG4164	DB	0aH, 'Bound Check Fault', 00H
	ORG $+5
$SG4174	DB	'Invalid Opcode Fault ', 0dH, 0aH, 00H
$SG4175	DB	'Invalid Opcode Fault ', 0dH, 0aH, 00H
$SG4176	DB	'__PROCESSOR TRACE__ ', 0dH, 0aH, 00H
	ORG $+1
$SG4177	DB	'RIP -> %x', 0aH, 00H
	ORG $+5
$SG4178	DB	'Stack -> %x', 0aH, 00H
	ORG $+3
$SG4179	DB	'RFLAGS -> %x', 0aH, 00H
	ORG $+2
$SG4180	DB	'CS -> %x', 0aH, 00H
	ORG $+6
$SG4181	DB	'SS -> %x', 0aH, 00H
	ORG $+6
$SG4189	DB	0aH, 'No Device Fault', 00H
	ORG $+7
$SG4197	DB	0aH, 'Double Fault Abort', 00H
	ORG $+4
$SG4205	DB	0aH, 'Invalid TSS Fault ', 00H
	ORG $+4
$SG4213	DB	0aH, 'No Segment Fault', 00H
	ORG $+6
$SG4223	DB	0aH, 'Stack Fault at ', 00H
	ORG $+7
$SG4224	DB	'__PROCESSOR TRACE__ ', 0dH, 0aH, 00H
	ORG $+1
$SG4225	DB	'RIP -> %x ', 0dH, 0aH, 00H
	ORG $+3
$SG4226	DB	'Stack -> %x ', 0dH, 0aH, 00H
	ORG $+1
$SG4227	DB	'RFLAGS -> %x ', 0dH, 0aH, 00H
$SG4228	DB	'CS -> %x, SS -> %x ', 0dH, 0aH, 00H
	ORG $+2
$SG4229	DB	'Current thread ->id %d , %s', 0dH, 0aH, 00H
	ORG $+2
$SG4239	DB	'Genral Protection Fault ', 0dH, 0aH, 00H
	ORG $+5
$SG4240	DB	'General Protection Fault ', 0dH, 0aH, 00H
	ORG $+4
$SG4241	DB	'__PROCESSOR TRACE__ ', 0dH, 0aH, 00H
	ORG $+1
$SG4242	DB	'RIP -> %x ', 0dH, 0aH, 00H
	ORG $+3
$SG4243	DB	'Stack -> %x ', 0dH, 0aH, 00H
	ORG $+1
$SG4244	DB	'RFLAGS -> %x ', 0dH, 0aH, 00H
$SG4245	DB	'CS -> %x, SS -> %x ', 0dH, 0aH, 00H
	ORG $+2
$SG4246	DB	'Current thread ->id %d , %s', 0dH, 0aH, 00H
	ORG $+2
$SG4284	DB	'Thread name -> %s ', 0dH, 0aH, 00H
	ORG $+3
$SG4286	DB	'Process pid -> %d ', 0dH, 0aH, 00H
	ORG $+3
$SG4287	DB	'Process name -> %s ', 0dH, 0aH, 00H
	ORG $+2
$SG4288	DB	'Page Fault !! ', 0dH, 0aH, 00H
	ORG $+7
$SG4294	DB	'Page Not Present ', 0dH, 0aH, 00H
	ORG $+4
$SG4297	DB	'Read/Write ', 0dH, 0aH, 00H
	ORG $+2
$SG4300	DB	'VPage rw -> %d , user -> %d ', 0dH, 0aH, 00H
	ORG $+1
$SG4301	DB	'VPage phys1-> %x, phys2-> %x ', 0dH, 0aH, 00H
$SG4304	DB	'User bit not set ', 0dH, 0aH, 00H
	ORG $+4
$SG4307	DB	'Reserved page ', 0dH, 0aH, 00H
	ORG $+7
$SG4310	DB	'Invalid page ', 0dH, 0aH, 00H
$SG4314	DB	'Virtual Address -> %x ', 0dH, 0aH, 00H
	ORG $+7
$SG4315	DB	'Virtual Address aligned -> %x ', 0dH, 0aH, 00H
	ORG $+7
$SG4316	DB	'RSP -> %x ', 0dH, 0aH, 00H
	ORG $+3
$SG4317	DB	'RIP -> %x , Actual addr -> %x ', 0dH, 0aH, 00H
	ORG $+7
$SG4318	DB	'CS -> %x, SS -> %x ', 0dH, 0aH, 00H
	ORG $+2
$SG4327	DB	0aH, 'FPU Fault', 00H
	ORG $+5
$SG4335	DB	0aH, 'Alignment Check Fault at address ', 00H
	ORG $+5
$SG4343	DB	0aH, 'Machine Check Abort', 00H
	ORG $+3
$SG4353	DB	0aH, ' SIMD FPU Faul ', 0dH, 0aH, 't', 00H
	ORG $+4
$SG4354	DB	0aH, '__CPU Informations__ ', 0aH, 00H
$SG4355	DB	' RIP -> %x ', 0aH, 00H
	ORG $+3
$SG4356	DB	' RSP -> %x ', 0aH, 00H
	ORG $+3
$SG4357	DB	' RFLAGS -> %x ', 0aH, 00H
$SG4358	DB	' MXCSR bit  -- ', 00H
CONST	ENDS
PUBLIC	?x86_64_exception_init@@YAXXZ			; x86_64_exception_init
PUBLIC	?panic@@YAXPEBDZZ				; panic
PUBLIC	?divide_by_zero_fault@@YAX_KPEAX@Z		; divide_by_zero_fault
PUBLIC	?single_step_trap@@YAX_KPEAX@Z			; single_step_trap
PUBLIC	?nmi_trap@@YAX_KPEAX@Z				; nmi_trap
PUBLIC	?breakpoint_trap@@YAX_KPEAX@Z			; breakpoint_trap
PUBLIC	?overflow_trap@@YAX_KPEAX@Z			; overflow_trap
PUBLIC	?bounds_check_fault@@YAX_KPEAX@Z		; bounds_check_fault
PUBLIC	?invalid_opcode_fault@@YAX_KPEAX@Z		; invalid_opcode_fault
PUBLIC	?no_device_fault@@YAX_KPEAX@Z			; no_device_fault
PUBLIC	?double_fault_abort@@YAX_KPEAX@Z		; double_fault_abort
PUBLIC	?invalid_tss_fault@@YAX_KPEAX@Z			; invalid_tss_fault
PUBLIC	?no_segment_fault@@YAX_KPEAX@Z			; no_segment_fault
PUBLIC	?stack_fault@@YAX_KPEAX@Z			; stack_fault
PUBLIC	?general_protection_fault@@YAX_KPEAX@Z		; general_protection_fault
PUBLIC	?page_fault@@YAX_KPEAX@Z			; page_fault
PUBLIC	?fpu_fault@@YAX_KPEAX@Z				; fpu_fault
PUBLIC	?alignment_check_fault@@YAX_KPEAX@Z		; alignment_check_fault
PUBLIC	?machine_check_abort@@YAX_KPEAX@Z		; machine_check_abort
PUBLIC	?simd_fpu_fault@@YAX_KPEAX@Z			; simd_fpu_fault
EXTRN	AuGetCurrentThread:PROC
EXTRN	?AuProcessFindThread@@YAPEAU_au_proc_@@PEAU_au_thread_@@@Z:PROC ; AuProcessFindThread
EXTRN	?AuPerCPUGetCpuID@@YAEXZ:PROC			; AuPerCPUGetCpuID
EXTRN	x64_cli:PROC
EXTRN	x64_read_cr2:PROC
EXTRN	AuVmmngrGetPage:PROC
EXTRN	AuGetPhysicalAddress:PROC
EXTRN	memcpy:PROC
EXTRN	setvect:PROC
EXTRN	kfree:PROC
EXTRN	SeTextOut:PROC
pdata	SEGMENT
$pdata$?x86_64_exception_init@@YAXXZ DD imagerel $LN3
	DD	imagerel $LN3+312
	DD	imagerel $unwind$?x86_64_exception_init@@YAXXZ
$pdata$?panic@@YAXPEBDZZ DD imagerel $LN3
	DD	imagerel $LN3+116
	DD	imagerel $unwind$?panic@@YAXPEBDZZ
$pdata$?divide_by_zero_fault@@YAX_KPEAX@Z DD imagerel $LN5
	DD	imagerel $LN5+135
	DD	imagerel $unwind$?divide_by_zero_fault@@YAX_KPEAX@Z
$pdata$?single_step_trap@@YAX_KPEAX@Z DD imagerel $LN5
	DD	imagerel $LN5+48
	DD	imagerel $unwind$?single_step_trap@@YAX_KPEAX@Z
$pdata$?nmi_trap@@YAX_KPEAX@Z DD imagerel $LN5
	DD	imagerel $LN5+38
	DD	imagerel $unwind$?nmi_trap@@YAX_KPEAX@Z
$pdata$?breakpoint_trap@@YAX_KPEAX@Z DD imagerel $LN5
	DD	imagerel $LN5+38
	DD	imagerel $unwind$?breakpoint_trap@@YAX_KPEAX@Z
$pdata$?overflow_trap@@YAX_KPEAX@Z DD imagerel $LN5
	DD	imagerel $LN5+38
	DD	imagerel $unwind$?overflow_trap@@YAX_KPEAX@Z
$pdata$?bounds_check_fault@@YAX_KPEAX@Z DD imagerel $LN5
	DD	imagerel $LN5+38
	DD	imagerel $unwind$?bounds_check_fault@@YAX_KPEAX@Z
$pdata$?invalid_opcode_fault@@YAX_KPEAX@Z DD imagerel $LN5
	DD	imagerel $LN5+177
	DD	imagerel $unwind$?invalid_opcode_fault@@YAX_KPEAX@Z
$pdata$?no_device_fault@@YAX_KPEAX@Z DD imagerel $LN5
	DD	imagerel $LN5+38
	DD	imagerel $unwind$?no_device_fault@@YAX_KPEAX@Z
$pdata$?double_fault_abort@@YAX_KPEAX@Z DD imagerel $LN5
	DD	imagerel $LN5+38
	DD	imagerel $unwind$?double_fault_abort@@YAX_KPEAX@Z
$pdata$?invalid_tss_fault@@YAX_KPEAX@Z DD imagerel $LN5
	DD	imagerel $LN5+38
	DD	imagerel $unwind$?invalid_tss_fault@@YAX_KPEAX@Z
$pdata$?no_segment_fault@@YAX_KPEAX@Z DD imagerel $LN5
	DD	imagerel $LN5+38
	DD	imagerel $unwind$?no_segment_fault@@YAX_KPEAX@Z
$pdata$?stack_fault@@YAX_KPEAX@Z DD imagerel $LN5
	DD	imagerel $LN5+203
	DD	imagerel $unwind$?stack_fault@@YAX_KPEAX@Z
$pdata$?general_protection_fault@@YAX_KPEAX@Z DD imagerel $LN5
	DD	imagerel $LN5+215
	DD	imagerel $unwind$?general_protection_fault@@YAX_KPEAX@Z
$pdata$?page_fault@@YAX_KPEAX@Z DD imagerel $LN22
	DD	imagerel $LN22+1035
	DD	imagerel $unwind$?page_fault@@YAX_KPEAX@Z
$pdata$?fpu_fault@@YAX_KPEAX@Z DD imagerel $LN5
	DD	imagerel $LN5+38
	DD	imagerel $unwind$?fpu_fault@@YAX_KPEAX@Z
$pdata$?alignment_check_fault@@YAX_KPEAX@Z DD imagerel $LN5
	DD	imagerel $LN5+38
	DD	imagerel $unwind$?alignment_check_fault@@YAX_KPEAX@Z
$pdata$?machine_check_abort@@YAX_KPEAX@Z DD imagerel $LN5
	DD	imagerel $LN5+38
	DD	imagerel $unwind$?machine_check_abort@@YAX_KPEAX@Z
$pdata$?simd_fpu_fault@@YAX_KPEAX@Z DD imagerel $LN5
	DD	imagerel $LN5+135
	DD	imagerel $unwind$?simd_fpu_fault@@YAX_KPEAX@Z
pdata	ENDS
xdata	SEGMENT
$unwind$?x86_64_exception_init@@YAXXZ DD 010401H
	DD	04204H
$unwind$?panic@@YAXPEBDZZ DD 011801H
	DD	04218H
$unwind$?divide_by_zero_fault@@YAX_KPEAX@Z DD 010e01H
	DD	0620eH
$unwind$?single_step_trap@@YAX_KPEAX@Z DD 010e01H
	DD	0620eH
$unwind$?nmi_trap@@YAX_KPEAX@Z DD 010e01H
	DD	0420eH
$unwind$?breakpoint_trap@@YAX_KPEAX@Z DD 010e01H
	DD	0420eH
$unwind$?overflow_trap@@YAX_KPEAX@Z DD 010e01H
	DD	0420eH
$unwind$?bounds_check_fault@@YAX_KPEAX@Z DD 010e01H
	DD	0420eH
$unwind$?invalid_opcode_fault@@YAX_KPEAX@Z DD 010e01H
	DD	0620eH
$unwind$?no_device_fault@@YAX_KPEAX@Z DD 010e01H
	DD	0420eH
$unwind$?double_fault_abort@@YAX_KPEAX@Z DD 010e01H
	DD	0420eH
$unwind$?invalid_tss_fault@@YAX_KPEAX@Z DD 010e01H
	DD	0420eH
$unwind$?no_segment_fault@@YAX_KPEAX@Z DD 010e01H
	DD	0420eH
$unwind$?stack_fault@@YAX_KPEAX@Z DD 010e01H
	DD	0620eH
$unwind$?general_protection_fault@@YAX_KPEAX@Z DD 010e01H
	DD	0620eH
$unwind$?page_fault@@YAX_KPEAX@Z DD 021101H
	DD	0190111H
$unwind$?fpu_fault@@YAX_KPEAX@Z DD 010e01H
	DD	0420eH
$unwind$?alignment_check_fault@@YAX_KPEAX@Z DD 010e01H
	DD	0420eH
$unwind$?machine_check_abort@@YAX_KPEAX@Z DD 010e01H
	DD	0420eH
$unwind$?simd_fpu_fault@@YAX_KPEAX@Z DD 010e01H
	DD	0620eH
xdata	ENDS
; Function compile flags: /Odtpy
; File e:\xeneva project\aurora\kernel\hal\x86_64_exception.cpp
_TEXT	SEGMENT
frame$ = 32
v$ = 64
p$ = 72
?simd_fpu_fault@@YAX_KPEAX@Z PROC			; simd_fpu_fault

; 288  : void simd_fpu_fault(size_t v, void* p){

$LN5:
	mov	QWORD PTR [rsp+16], rdx
	mov	QWORD PTR [rsp+8], rcx
	sub	rsp, 56					; 00000038H

; 289  : 	x64_cli();

	call	x64_cli

; 290  : 	interrupt_stack_frame *frame = (interrupt_stack_frame*)p;

	mov	rax, QWORD PTR p$[rsp]
	mov	QWORD PTR frame$[rsp], rax

; 291  : 	panic("\n SIMD FPU Faul \r\nt");

	lea	rcx, OFFSET FLAT:$SG4353
	call	?panic@@YAXPEBDZZ			; panic

; 292  : 	SeTextOut("\n__CPU Informations__ \n");

	lea	rcx, OFFSET FLAT:$SG4354
	call	SeTextOut

; 293  : 	SeTextOut(" RIP -> %x \n", frame->rip);

	mov	rax, QWORD PTR frame$[rsp]
	mov	rdx, QWORD PTR [rax+16]
	lea	rcx, OFFSET FLAT:$SG4355
	call	SeTextOut

; 294  : 	SeTextOut(" RSP -> %x \n", frame->rsp);

	mov	rax, QWORD PTR frame$[rsp]
	mov	rdx, QWORD PTR [rax+40]
	lea	rcx, OFFSET FLAT:$SG4356
	call	SeTextOut

; 295  : 	SeTextOut(" RFLAGS -> %x \n", frame->rflags);

	mov	rax, QWORD PTR frame$[rsp]
	mov	rdx, QWORD PTR [rax+32]
	lea	rcx, OFFSET FLAT:$SG4357
	call	SeTextOut

; 296  : 	SeTextOut(" MXCSR bit  -- ");

	lea	rcx, OFFSET FLAT:$SG4358
	call	SeTextOut
$LN2@simd_fpu_f:

; 297  : 	for (;;);

	jmp	SHORT $LN2@simd_fpu_f

; 298  : }

	add	rsp, 56					; 00000038H
	ret	0
?simd_fpu_fault@@YAX_KPEAX@Z ENDP			; simd_fpu_fault
_TEXT	ENDS
; Function compile flags: /Odtpy
; File e:\xeneva project\aurora\kernel\hal\x86_64_exception.cpp
_TEXT	SEGMENT
v$ = 48
p$ = 56
?machine_check_abort@@YAX_KPEAX@Z PROC			; machine_check_abort

; 281  : void machine_check_abort(size_t v, void* p){

$LN5:
	mov	QWORD PTR [rsp+16], rdx
	mov	QWORD PTR [rsp+8], rcx
	sub	rsp, 40					; 00000028H

; 282  : 	x64_cli();

	call	x64_cli

; 283  : 	panic("\nMachine Check Abort");

	lea	rcx, OFFSET FLAT:$SG4343
	call	?panic@@YAXPEBDZZ			; panic
$LN2@machine_ch:

; 284  : 	for (;;);

	jmp	SHORT $LN2@machine_ch

; 285  : }

	add	rsp, 40					; 00000028H
	ret	0
?machine_check_abort@@YAX_KPEAX@Z ENDP			; machine_check_abort
_TEXT	ENDS
; Function compile flags: /Odtpy
; File e:\xeneva project\aurora\kernel\hal\x86_64_exception.cpp
_TEXT	SEGMENT
v$ = 48
p$ = 56
?alignment_check_fault@@YAX_KPEAX@Z PROC		; alignment_check_fault

; 274  : void alignment_check_fault(size_t v, void* p){

$LN5:
	mov	QWORD PTR [rsp+16], rdx
	mov	QWORD PTR [rsp+8], rcx
	sub	rsp, 40					; 00000028H

; 275  : 	x64_cli();

	call	x64_cli

; 276  : 	panic("\nAlignment Check Fault at address ");

	lea	rcx, OFFSET FLAT:$SG4335
	call	?panic@@YAXPEBDZZ			; panic
$LN2@alignment_:

; 277  : 	for (;;);

	jmp	SHORT $LN2@alignment_

; 278  : }

	add	rsp, 40					; 00000028H
	ret	0
?alignment_check_fault@@YAX_KPEAX@Z ENDP		; alignment_check_fault
_TEXT	ENDS
; Function compile flags: /Odtpy
; File e:\xeneva project\aurora\kernel\hal\x86_64_exception.cpp
_TEXT	SEGMENT
vector$ = 48
p$ = 56
?fpu_fault@@YAX_KPEAX@Z PROC				; fpu_fault

; 266  : void fpu_fault(size_t vector, void* p){

$LN5:
	mov	QWORD PTR [rsp+16], rdx
	mov	QWORD PTR [rsp+8], rcx
	sub	rsp, 40					; 00000028H

; 267  : 	x64_cli();

	call	x64_cli

; 268  : 	panic("\nFPU Fault");

	lea	rcx, OFFSET FLAT:$SG4327
	call	?panic@@YAXPEBDZZ			; panic
$LN2@fpu_fault:

; 269  : 	for (;;);

	jmp	SHORT $LN2@fpu_fault

; 270  : }

	add	rsp, 40					; 00000028H
	ret	0
?fpu_fault@@YAX_KPEAX@Z ENDP				; fpu_fault
_TEXT	ENDS
; Function compile flags: /Odtpy
; File e:\xeneva project\aurora\kernel\hal\x86_64_exception.cpp
_TEXT	SEGMENT
_mapped$ = 32
frame$ = 40
thr$ = 48
mask$ = 56
sig$1 = 64
tv68 = 72
proc$ = 80
vaddr_aligned$ = 88
rw$ = 96
id$ = 100
present$ = 104
vpage$2 = 112
resv$ = 120
us$ = 124
diff$ = 128
vaddr_$ = 136
phys$3 = 144
real_addr$ = 152
vaddr$ = 160
ctx$4 = 168
fr$ = 176
srcCtx$5 = 184
vector$ = 208
param$ = 216
?page_fault@@YAX_KPEAX@Z PROC				; page_fault

; 186  : void page_fault(size_t vector, void* param){

$LN22:
	mov	QWORD PTR [rsp+16], rdx
	mov	QWORD PTR [rsp+8], rcx
	sub	rsp, 200				; 000000c8H

; 187  : 	x64_cli();

	call	x64_cli

; 188  : 	interrupt_stack_frame *frame = (interrupt_stack_frame*)param;

	mov	rax, QWORD PTR param$[rsp]
	mov	QWORD PTR frame$[rsp], rax

; 189  : 	stack_frame *fr = (stack_frame*)param;

	mov	rax, QWORD PTR param$[rsp]
	mov	QWORD PTR fr$[rsp], rax

; 190  : 
; 191  : 	void* vaddr = (void*)x64_read_cr2();

	call	x64_read_cr2
	mov	QWORD PTR vaddr$[rsp], rax

; 192  : 
; 193  : 	int present = !(frame->error & 0x1);

	mov	rax, QWORD PTR frame$[rsp]
	mov	rax, QWORD PTR [rax+8]
	and	rax, 1
	test	rax, rax
	jne	SHORT $LN20@page_fault
	mov	DWORD PTR tv68[rsp], 1
	jmp	SHORT $LN21@page_fault
$LN20@page_fault:
	mov	DWORD PTR tv68[rsp], 0
$LN21@page_fault:
	mov	eax, DWORD PTR tv68[rsp]
	mov	DWORD PTR present$[rsp], eax

; 194  : 	int rw = frame->error & 0x2;

	mov	rax, QWORD PTR frame$[rsp]
	mov	rax, QWORD PTR [rax+8]
	and	rax, 2
	mov	DWORD PTR rw$[rsp], eax

; 195  : 	int us = frame->error & 0x4;

	mov	rax, QWORD PTR frame$[rsp]
	mov	rax, QWORD PTR [rax+8]
	and	rax, 4
	mov	DWORD PTR us$[rsp], eax

; 196  : 	int resv = frame->error & 0x8;

	mov	rax, QWORD PTR frame$[rsp]
	mov	rax, QWORD PTR [rax+8]
	and	rax, 8
	mov	DWORD PTR resv$[rsp], eax

; 197  : 	int id = frame->error & 0x10;

	mov	rax, QWORD PTR frame$[rsp]
	mov	rax, QWORD PTR [rax+8]
	and	rax, 16
	mov	DWORD PTR id$[rsp], eax

; 198  : 
; 199  : 	
; 200  : 	AuThread* thr = AuGetCurrentThread();

	call	AuGetCurrentThread
	mov	QWORD PTR thr$[rsp], rax

; 201  : 	
; 202  : 	/* check for signal */
; 203  : 	if (!thr) {

	cmp	QWORD PTR thr$[rsp], 0
	jne	SHORT $LN17@page_fault

; 204  : 		goto skip;

	jmp	$LN16@page_fault
	jmp	$skip$23
$LN17@page_fault:

; 205  : 	}
; 206  : 	if (thr->returnableSignal) {

	mov	rax, QWORD PTR thr$[rsp]
	cmp	QWORD PTR [rax+633], 0
	je	$LN15@page_fault

; 207  : 		Signal* sig = (Signal*)thr->returnableSignal;

	mov	rax, QWORD PTR thr$[rsp]
	mov	rax, QWORD PTR [rax+633]
	mov	QWORD PTR sig$1[rsp], rax

; 208  : 		x86_64_cpu_regs_t* ctx = (x86_64_cpu_regs_t*)(thr->frame.kern_esp - sizeof(x86_64_cpu_regs_t));

	mov	rax, QWORD PTR thr$[rsp]
	mov	rax, QWORD PTR [rax+200]
	sub	rax, 160				; 000000a0H
	mov	QWORD PTR ctx$4[rsp], rax

; 209  : 		x86_64_cpu_regs_t* srcCtx = (x86_64_cpu_regs_t*)sig->signalStack;

	mov	rax, QWORD PTR sig$1[rsp]
	mov	rax, QWORD PTR [rax+4]
	mov	QWORD PTR srcCtx$5[rsp], rax

; 210  : 		memcpy(ctx, sig->signalStack, sizeof(x86_64_cpu_regs_t));

	mov	r8d, 160				; 000000a0H
	mov	rax, QWORD PTR sig$1[rsp]
	mov	rdx, QWORD PTR [rax+4]
	mov	rcx, QWORD PTR ctx$4[rsp]
	call	memcpy

; 211  : 		memcpy(&thr->frame, sig->signalState, sizeof(AuThreadFrame));

	mov	rax, QWORD PTR thr$[rsp]
	mov	r8d, 216				; 000000d8H
	mov	rcx, QWORD PTR sig$1[rsp]
	mov	rdx, QWORD PTR [rcx+12]
	mov	rcx, rax
	call	memcpy

; 212  : 		kfree(sig->signalStack);

	mov	rax, QWORD PTR sig$1[rsp]
	mov	rcx, QWORD PTR [rax+4]
	call	kfree

; 213  : 		kfree(sig);

	mov	rcx, QWORD PTR sig$1[rsp]
	call	kfree

; 214  : 		thr->returnableSignal = NULL;

	mov	rax, QWORD PTR thr$[rsp]
	mov	QWORD PTR [rax+633], 0

; 215  : 		thr->pendingSigCount = 0;

	mov	rax, QWORD PTR thr$[rsp]
	mov	BYTE PTR [rax+632], 0

; 216  : 		thr->signalQueue = 0;

	mov	rax, QWORD PTR thr$[rsp]
	mov	QWORD PTR [rax+624], 0

; 217  : 		return;

	jmp	$LN18@page_fault
$LN15@page_fault:

; 218  : 	}
; 219  : 
; 220  : 	AuProcess *proc = NULL;

	mov	QWORD PTR proc$[rsp], 0

; 221  : 	if (thr) {

	cmp	QWORD PTR thr$[rsp], 0
	je	SHORT $LN14@page_fault

; 222  : 		proc = AuProcessFindThread(thr);

	mov	rcx, QWORD PTR thr$[rsp]
	call	?AuProcessFindThread@@YAPEAU_au_proc_@@PEAU_au_thread_@@@Z ; AuProcessFindThread
	mov	QWORD PTR proc$[rsp], rax

; 223  : 		SeTextOut("Thread name -> %s \r\n", thr->name);

	mov	rax, QWORD PTR thr$[rsp]
	add	rax, 284				; 0000011cH
	mov	rdx, rax
	lea	rcx, OFFSET FLAT:$SG4284
	call	SeTextOut

; 224  : 		if (proc) {

	cmp	QWORD PTR proc$[rsp], 0
	je	SHORT $LN13@page_fault

; 225  : 			SeTextOut("Process pid -> %d \r\n", proc->proc_id);

	mov	rax, QWORD PTR proc$[rsp]
	mov	edx, DWORD PTR [rax]
	lea	rcx, OFFSET FLAT:$SG4286
	call	SeTextOut

; 226  : 			SeTextOut("Process name -> %s \r\n", proc->name);

	mov	rax, QWORD PTR proc$[rsp]
	add	rax, 4
	mov	rdx, rax
	lea	rcx, OFFSET FLAT:$SG4287
	call	SeTextOut
$LN13@page_fault:
$LN14@page_fault:
$LN16@page_fault:
$skip$23:

; 227  : 		}
; 228  : 	}
; 229  : 	
; 230  : skip:
; 231  : 	panic("Page Fault !! \r\n");

	lea	rcx, OFFSET FLAT:$SG4288
	call	?panic@@YAXPEBDZZ			; panic

; 232  : 	uint64_t vaddr_ = (uint64_t)vaddr;

	mov	rax, QWORD PTR vaddr$[rsp]
	mov	QWORD PTR vaddr_$[rsp], rax

; 233  : 	uint64_t vaddr_aligned = VIRT_ADDR_ALIGN(vaddr_);

	mov	rax, QWORD PTR vaddr_$[rsp]
	and	rax, -4096				; fffffffffffff000H
	mov	QWORD PTR vaddr_aligned$[rsp], rax

; 234  : 	bool _mapped = false;

	mov	BYTE PTR _mapped$[rsp], 0

; 235  : 	if (present) {

	cmp	DWORD PTR present$[rsp], 0
	je	SHORT $LN12@page_fault

; 236  : 		SeTextOut("Page Not Present \r\n");

	lea	rcx, OFFSET FLAT:$SG4294
	call	SeTextOut
	jmp	$LN11@page_fault
$LN12@page_fault:

; 237  : 	}
; 238  : 	else if (rw) {

	cmp	DWORD PTR rw$[rsp], 0
	je	$LN10@page_fault

; 239  : 		SeTextOut("Read/Write \r\n");

	lea	rcx, OFFSET FLAT:$SG4297
	call	SeTextOut

; 240  : 		void* phys = AuGetPhysicalAddress(vaddr_aligned);

	mov	rcx, QWORD PTR vaddr_aligned$[rsp]
	call	AuGetPhysicalAddress
	mov	QWORD PTR phys$3[rsp], rax

; 241  : 		AuVPage *vpage = AuVmmngrGetPage(vaddr_aligned, 0, 0);

	xor	r8d, r8d
	xor	edx, edx
	mov	rcx, QWORD PTR vaddr_aligned$[rsp]
	call	AuVmmngrGetPage
	mov	QWORD PTR vpage$2[rsp], rax

; 242  : 		SeTextOut("VPage rw -> %d , user -> %d \r\n", vpage->bits.writable, vpage->bits.user);

	mov	rax, QWORD PTR vpage$2[rsp]
	mov	rax, QWORD PTR [rax]
	shr	rax, 2
	and	rax, 1
	mov	rcx, QWORD PTR vpage$2[rsp]
	mov	rcx, QWORD PTR [rcx]
	shr	rcx, 1
	and	rcx, 1
	mov	r8, rax
	mov	rdx, rcx
	lea	rcx, OFFSET FLAT:$SG4300
	call	SeTextOut

; 243  : 		SeTextOut("VPage phys1-> %x, phys2-> %x \r\n", phys, (vpage->bits.page << PAGE_SHIFT));

	mov	rax, QWORD PTR vpage$2[rsp]
	mov	rax, QWORD PTR [rax]
	shr	rax, 12
	and	rax, 268435455				; 0fffffffH
	shl	rax, 12
	mov	r8, rax
	mov	rdx, QWORD PTR phys$3[rsp]
	lea	rcx, OFFSET FLAT:$SG4301
	call	SeTextOut
	jmp	SHORT $LN9@page_fault
$LN10@page_fault:

; 244  : 	}
; 245  : 	else if (us)

	cmp	DWORD PTR us$[rsp], 0
	je	SHORT $LN8@page_fault

; 246  : 		SeTextOut("User bit not set \r\n");

	lea	rcx, OFFSET FLAT:$SG4304
	call	SeTextOut
	jmp	SHORT $LN7@page_fault
$LN8@page_fault:

; 247  : 	else if (resv)

	cmp	DWORD PTR resv$[rsp], 0
	je	SHORT $LN6@page_fault

; 248  : 		SeTextOut("Reserved page \r\n");

	lea	rcx, OFFSET FLAT:$SG4307
	call	SeTextOut
	jmp	SHORT $LN5@page_fault
$LN6@page_fault:

; 249  : 	else if (id)

	cmp	DWORD PTR id$[rsp], 0
	je	SHORT $LN4@page_fault

; 250  : 		SeTextOut("Invalid page \r\n");

	lea	rcx, OFFSET FLAT:$SG4310
	call	SeTextOut
$LN4@page_fault:
$LN5@page_fault:
$LN7@page_fault:
$LN9@page_fault:
$LN11@page_fault:

; 251  : 	uint64_t diff = (frame->rip - 0x600000);

	mov	rax, QWORD PTR frame$[rsp]
	mov	rax, QWORD PTR [rax+16]
	sub	rax, 6291456				; 00600000H
	mov	QWORD PTR diff$[rsp], rax

; 252  : 	uint16_t mask = diff & UINT16_MAX;

	mov	rax, QWORD PTR diff$[rsp]
	and	rax, 65535				; 0000ffffH
	mov	WORD PTR mask$[rsp], ax

; 253  : 	uint64_t real_addr = (frame->rip - diff);

	mov	rax, QWORD PTR frame$[rsp]
	mov	rcx, QWORD PTR diff$[rsp]
	mov	rax, QWORD PTR [rax+16]
	sub	rax, rcx
	mov	QWORD PTR real_addr$[rsp], rax

; 254  : 	SeTextOut("Virtual Address -> %x \r\n", vaddr_);

	mov	rdx, QWORD PTR vaddr_$[rsp]
	lea	rcx, OFFSET FLAT:$SG4314
	call	SeTextOut

; 255  : 	SeTextOut("Virtual Address aligned -> %x \r\n", vaddr_aligned);

	mov	rdx, QWORD PTR vaddr_aligned$[rsp]
	lea	rcx, OFFSET FLAT:$SG4315
	call	SeTextOut

; 256  : 	SeTextOut("RSP -> %x \r\n", frame->rsp);

	mov	rax, QWORD PTR frame$[rsp]
	mov	rdx, QWORD PTR [rax+40]
	lea	rcx, OFFSET FLAT:$SG4316
	call	SeTextOut

; 257  : 	SeTextOut("RIP -> %x , Actual addr -> %x \r\n", frame->rip, (real_addr + mask));

	movzx	eax, WORD PTR mask$[rsp]
	mov	rcx, QWORD PTR real_addr$[rsp]
	add	rcx, rax
	mov	rax, rcx
	mov	r8, rax
	mov	rax, QWORD PTR frame$[rsp]
	mov	rdx, QWORD PTR [rax+16]
	lea	rcx, OFFSET FLAT:$SG4317
	call	SeTextOut

; 258  : 	SeTextOut("CS -> %x, SS -> %x \r\n", frame->cs, frame->ss);

	mov	rax, QWORD PTR frame$[rsp]
	mov	r8, QWORD PTR [rax+48]
	mov	rax, QWORD PTR frame$[rsp]
	mov	rdx, QWORD PTR [rax+24]
	lea	rcx, OFFSET FLAT:$SG4318
	call	SeTextOut

; 259  : 	if (!_mapped) {

	movzx	eax, BYTE PTR _mapped$[rsp]
	test	eax, eax
	jne	SHORT $LN3@page_fault
$LN2@page_fault:

; 260  : 		for (;;);

	jmp	SHORT $LN2@page_fault
$LN3@page_fault:
$LN18@page_fault:

; 261  : 	}
; 262  : }

	add	rsp, 200				; 000000c8H
	ret	0
?page_fault@@YAX_KPEAX@Z ENDP				; page_fault
_TEXT	ENDS
; Function compile flags: /Odtpy
; File e:\xeneva project\aurora\kernel\hal\x86_64_exception.cpp
_TEXT	SEGMENT
frame$ = 32
tv82 = 40
v$ = 64
p$ = 72
?general_protection_fault@@YAX_KPEAX@Z PROC		; general_protection_fault

; 165  : void general_protection_fault(size_t v, void* p){

$LN5:
	mov	QWORD PTR [rsp+16], rdx
	mov	QWORD PTR [rsp+8], rcx
	sub	rsp, 56					; 00000038H

; 166  : 	x64_cli();

	call	x64_cli

; 167  : 	interrupt_stack_frame *frame = (interrupt_stack_frame*)p;

	mov	rax, QWORD PTR p$[rsp]
	mov	QWORD PTR frame$[rsp], rax

; 168  : 	panic("Genral Protection Fault \r\n");

	lea	rcx, OFFSET FLAT:$SG4239
	call	?panic@@YAXPEBDZZ			; panic

; 169  : 	SeTextOut("General Protection Fault \r\n");

	lea	rcx, OFFSET FLAT:$SG4240
	call	SeTextOut

; 170  : 	SeTextOut("__PROCESSOR TRACE__ \r\n");

	lea	rcx, OFFSET FLAT:$SG4241
	call	SeTextOut

; 171  : 	SeTextOut("RIP -> %x \r\n", frame->rip);

	mov	rax, QWORD PTR frame$[rsp]
	mov	rdx, QWORD PTR [rax+16]
	lea	rcx, OFFSET FLAT:$SG4242
	call	SeTextOut

; 172  : 	SeTextOut("Stack -> %x \r\n", frame->rsp);

	mov	rax, QWORD PTR frame$[rsp]
	mov	rdx, QWORD PTR [rax+40]
	lea	rcx, OFFSET FLAT:$SG4243
	call	SeTextOut

; 173  : 	SeTextOut("RFLAGS -> %x \r\n", frame->rflags);

	mov	rax, QWORD PTR frame$[rsp]
	mov	rdx, QWORD PTR [rax+32]
	lea	rcx, OFFSET FLAT:$SG4244
	call	SeTextOut

; 174  : 	SeTextOut("CS -> %x, SS -> %x \r\n", frame->cs, frame->ss);

	mov	rax, QWORD PTR frame$[rsp]
	mov	r8, QWORD PTR [rax+48]
	mov	rax, QWORD PTR frame$[rsp]
	mov	rdx, QWORD PTR [rax+24]
	lea	rcx, OFFSET FLAT:$SG4245
	call	SeTextOut

; 175  : 	SeTextOut("Current thread ->id %d , %s\r\n", AuGetCurrentThread()->id, AuGetCurrentThread()->name);

	call	AuGetCurrentThread
	add	rax, 284				; 0000011cH
	mov	QWORD PTR tv82[rsp], rax
	call	AuGetCurrentThread
	movzx	eax, WORD PTR [rax+301]
	mov	rcx, QWORD PTR tv82[rsp]
	mov	r8, rcx
	mov	edx, eax
	lea	rcx, OFFSET FLAT:$SG4246
	call	SeTextOut
$LN2@general_pr:

; 176  : 	for (;;);

	jmp	SHORT $LN2@general_pr

; 177  : }

	add	rsp, 56					; 00000038H
	ret	0
?general_protection_fault@@YAX_KPEAX@Z ENDP		; general_protection_fault
_TEXT	ENDS
; Function compile flags: /Odtpy
; File e:\xeneva project\aurora\kernel\hal\x86_64_exception.cpp
_TEXT	SEGMENT
frame$ = 32
tv81 = 40
v$ = 64
p$ = 72
?stack_fault@@YAX_KPEAX@Z PROC				; stack_fault

; 150  : void stack_fault(size_t v, void* p){

$LN5:
	mov	QWORD PTR [rsp+16], rdx
	mov	QWORD PTR [rsp+8], rcx
	sub	rsp, 56					; 00000038H

; 151  : 	x64_cli();

	call	x64_cli

; 152  : 	interrupt_stack_frame *frame = (interrupt_stack_frame*)p;

	mov	rax, QWORD PTR p$[rsp]
	mov	QWORD PTR frame$[rsp], rax

; 153  : 	panic("\nStack Fault at ");

	lea	rcx, OFFSET FLAT:$SG4223
	call	?panic@@YAXPEBDZZ			; panic

; 154  : 	SeTextOut("__PROCESSOR TRACE__ \r\n");

	lea	rcx, OFFSET FLAT:$SG4224
	call	SeTextOut

; 155  : 	SeTextOut("RIP -> %x \r\n", frame->rip);

	mov	rax, QWORD PTR frame$[rsp]
	mov	rdx, QWORD PTR [rax+16]
	lea	rcx, OFFSET FLAT:$SG4225
	call	SeTextOut

; 156  : 	SeTextOut("Stack -> %x \r\n", frame->rsp);

	mov	rax, QWORD PTR frame$[rsp]
	mov	rdx, QWORD PTR [rax+40]
	lea	rcx, OFFSET FLAT:$SG4226
	call	SeTextOut

; 157  : 	SeTextOut("RFLAGS -> %x \r\n", frame->rflags);

	mov	rax, QWORD PTR frame$[rsp]
	mov	rdx, QWORD PTR [rax+32]
	lea	rcx, OFFSET FLAT:$SG4227
	call	SeTextOut

; 158  : 	SeTextOut("CS -> %x, SS -> %x \r\n", frame->cs, frame->ss);

	mov	rax, QWORD PTR frame$[rsp]
	mov	r8, QWORD PTR [rax+48]
	mov	rax, QWORD PTR frame$[rsp]
	mov	rdx, QWORD PTR [rax+24]
	lea	rcx, OFFSET FLAT:$SG4228
	call	SeTextOut

; 159  : 	SeTextOut("Current thread ->id %d , %s\r\n", AuGetCurrentThread()->id, AuGetCurrentThread()->name);

	call	AuGetCurrentThread
	add	rax, 284				; 0000011cH
	mov	QWORD PTR tv81[rsp], rax
	call	AuGetCurrentThread
	movzx	eax, WORD PTR [rax+301]
	mov	rcx, QWORD PTR tv81[rsp]
	mov	r8, rcx
	mov	edx, eax
	lea	rcx, OFFSET FLAT:$SG4229
	call	SeTextOut
$LN2@stack_faul:

; 160  : 	for (;;);

	jmp	SHORT $LN2@stack_faul

; 161  : }

	add	rsp, 56					; 00000038H
	ret	0
?stack_fault@@YAX_KPEAX@Z ENDP				; stack_fault
_TEXT	ENDS
; Function compile flags: /Odtpy
; File e:\xeneva project\aurora\kernel\hal\x86_64_exception.cpp
_TEXT	SEGMENT
v$ = 48
p$ = 56
?no_segment_fault@@YAX_KPEAX@Z PROC			; no_segment_fault

; 143  : void no_segment_fault(size_t v, void* p){

$LN5:
	mov	QWORD PTR [rsp+16], rdx
	mov	QWORD PTR [rsp+8], rcx
	sub	rsp, 40					; 00000028H

; 144  : 	x64_cli();

	call	x64_cli

; 145  : 	panic("\nNo Segment Fault");

	lea	rcx, OFFSET FLAT:$SG4213
	call	?panic@@YAXPEBDZZ			; panic
$LN2@no_segment:

; 146  : 	for (;;);

	jmp	SHORT $LN2@no_segment

; 147  : }

	add	rsp, 40					; 00000028H
	ret	0
?no_segment_fault@@YAX_KPEAX@Z ENDP			; no_segment_fault
_TEXT	ENDS
; Function compile flags: /Odtpy
; File e:\xeneva project\aurora\kernel\hal\x86_64_exception.cpp
_TEXT	SEGMENT
v$ = 48
p$ = 56
?invalid_tss_fault@@YAX_KPEAX@Z PROC			; invalid_tss_fault

; 136  : void invalid_tss_fault(size_t v, void* p){

$LN5:
	mov	QWORD PTR [rsp+16], rdx
	mov	QWORD PTR [rsp+8], rcx
	sub	rsp, 40					; 00000028H

; 137  : 	x64_cli();

	call	x64_cli

; 138  : 	panic("\nInvalid TSS Fault ");

	lea	rcx, OFFSET FLAT:$SG4205
	call	?panic@@YAXPEBDZZ			; panic
$LN2@invalid_ts:

; 139  : 	for (;;);

	jmp	SHORT $LN2@invalid_ts

; 140  : }

	add	rsp, 40					; 00000028H
	ret	0
?invalid_tss_fault@@YAX_KPEAX@Z ENDP			; invalid_tss_fault
_TEXT	ENDS
; Function compile flags: /Odtpy
; File e:\xeneva project\aurora\kernel\hal\x86_64_exception.cpp
_TEXT	SEGMENT
v$ = 48
p$ = 56
?double_fault_abort@@YAX_KPEAX@Z PROC			; double_fault_abort

; 129  : void double_fault_abort(size_t v, void* p){

$LN5:
	mov	QWORD PTR [rsp+16], rdx
	mov	QWORD PTR [rsp+8], rcx
	sub	rsp, 40					; 00000028H

; 130  : 	x64_cli();

	call	x64_cli

; 131  : 	panic("\nDouble Fault Abort");

	lea	rcx, OFFSET FLAT:$SG4197
	call	?panic@@YAXPEBDZZ			; panic
$LN2@double_fau:

; 132  : 	for (;;);

	jmp	SHORT $LN2@double_fau

; 133  : }

	add	rsp, 40					; 00000028H
	ret	0
?double_fault_abort@@YAX_KPEAX@Z ENDP			; double_fault_abort
_TEXT	ENDS
; Function compile flags: /Odtpy
; File e:\xeneva project\aurora\kernel\hal\x86_64_exception.cpp
_TEXT	SEGMENT
v$ = 48
p$ = 56
?no_device_fault@@YAX_KPEAX@Z PROC			; no_device_fault

; 122  : void no_device_fault(size_t v, void* p){

$LN5:
	mov	QWORD PTR [rsp+16], rdx
	mov	QWORD PTR [rsp+8], rcx
	sub	rsp, 40					; 00000028H

; 123  : 	x64_cli();

	call	x64_cli

; 124  : 	panic("\nNo Device Fault");

	lea	rcx, OFFSET FLAT:$SG4189
	call	?panic@@YAXPEBDZZ			; panic
$LN2@no_device_:

; 125  : 	for (;;);

	jmp	SHORT $LN2@no_device_

; 126  : }

	add	rsp, 40					; 00000028H
	ret	0
?no_device_fault@@YAX_KPEAX@Z ENDP			; no_device_fault
_TEXT	ENDS
; Function compile flags: /Odtpy
; File e:\xeneva project\aurora\kernel\hal\x86_64_exception.cpp
_TEXT	SEGMENT
frame$ = 32
v$ = 64
p$ = 72
?invalid_opcode_fault@@YAX_KPEAX@Z PROC			; invalid_opcode_fault

; 107  : void invalid_opcode_fault(size_t v, void* p){

$LN5:
	mov	QWORD PTR [rsp+16], rdx
	mov	QWORD PTR [rsp+8], rcx
	sub	rsp, 56					; 00000038H

; 108  : 	x64_cli();

	call	x64_cli

; 109  : 	interrupt_stack_frame *frame = (interrupt_stack_frame*)p;

	mov	rax, QWORD PTR p$[rsp]
	mov	QWORD PTR frame$[rsp], rax

; 110  : 	panic("Invalid Opcode Fault \r\n");

	lea	rcx, OFFSET FLAT:$SG4174
	call	?panic@@YAXPEBDZZ			; panic

; 111  : 	SeTextOut("Invalid Opcode Fault \r\n");

	lea	rcx, OFFSET FLAT:$SG4175
	call	SeTextOut

; 112  : 	SeTextOut("__PROCESSOR TRACE__ \r\n");

	lea	rcx, OFFSET FLAT:$SG4176
	call	SeTextOut

; 113  : 	SeTextOut("RIP -> %x\n", frame->rip);

	mov	rax, QWORD PTR frame$[rsp]
	mov	rdx, QWORD PTR [rax+16]
	lea	rcx, OFFSET FLAT:$SG4177
	call	SeTextOut

; 114  : 	SeTextOut("Stack -> %x\n", frame->rsp);

	mov	rax, QWORD PTR frame$[rsp]
	mov	rdx, QWORD PTR [rax+40]
	lea	rcx, OFFSET FLAT:$SG4178
	call	SeTextOut

; 115  : 	SeTextOut("RFLAGS -> %x\n", frame->rflags);

	mov	rax, QWORD PTR frame$[rsp]
	mov	rdx, QWORD PTR [rax+32]
	lea	rcx, OFFSET FLAT:$SG4179
	call	SeTextOut

; 116  : 	SeTextOut("CS -> %x\n", frame->cs);

	mov	rax, QWORD PTR frame$[rsp]
	mov	rdx, QWORD PTR [rax+24]
	lea	rcx, OFFSET FLAT:$SG4180
	call	SeTextOut

; 117  : 	SeTextOut("SS -> %x\n", frame->ss);

	mov	rax, QWORD PTR frame$[rsp]
	mov	rdx, QWORD PTR [rax+48]
	lea	rcx, OFFSET FLAT:$SG4181
	call	SeTextOut
$LN2@invalid_op:

; 118  : 	for (;;);

	jmp	SHORT $LN2@invalid_op

; 119  : }

	add	rsp, 56					; 00000038H
	ret	0
?invalid_opcode_fault@@YAX_KPEAX@Z ENDP			; invalid_opcode_fault
_TEXT	ENDS
; Function compile flags: /Odtpy
; File e:\xeneva project\aurora\kernel\hal\x86_64_exception.cpp
_TEXT	SEGMENT
v$ = 48
p$ = 56
?bounds_check_fault@@YAX_KPEAX@Z PROC			; bounds_check_fault

; 100  : void bounds_check_fault(size_t v, void* p){

$LN5:
	mov	QWORD PTR [rsp+16], rdx
	mov	QWORD PTR [rsp+8], rcx
	sub	rsp, 40					; 00000028H

; 101  : 	x64_cli();

	call	x64_cli

; 102  : 	panic("\nBound Check Fault");

	lea	rcx, OFFSET FLAT:$SG4164
	call	?panic@@YAXPEBDZZ			; panic
$LN2@bounds_che:

; 103  : 	for (;;);

	jmp	SHORT $LN2@bounds_che

; 104  : }

	add	rsp, 40					; 00000028H
	ret	0
?bounds_check_fault@@YAX_KPEAX@Z ENDP			; bounds_check_fault
_TEXT	ENDS
; Function compile flags: /Odtpy
; File e:\xeneva project\aurora\kernel\hal\x86_64_exception.cpp
_TEXT	SEGMENT
v$ = 48
p$ = 56
?overflow_trap@@YAX_KPEAX@Z PROC			; overflow_trap

; 93   : void overflow_trap(size_t v, void* p){

$LN5:
	mov	QWORD PTR [rsp+16], rdx
	mov	QWORD PTR [rsp+8], rcx
	sub	rsp, 40					; 00000028H

; 94   : 	x64_cli();

	call	x64_cli

; 95   : 	panic("\nOverflow Trap");

	lea	rcx, OFFSET FLAT:$SG4156
	call	?panic@@YAXPEBDZZ			; panic
$LN2@overflow_t:

; 96   : 	for (;;);

	jmp	SHORT $LN2@overflow_t

; 97   : }

	add	rsp, 40					; 00000028H
	ret	0
?overflow_trap@@YAX_KPEAX@Z ENDP			; overflow_trap
_TEXT	ENDS
; Function compile flags: /Odtpy
; File e:\xeneva project\aurora\kernel\hal\x86_64_exception.cpp
_TEXT	SEGMENT
vector$ = 48
param$ = 56
?breakpoint_trap@@YAX_KPEAX@Z PROC			; breakpoint_trap

; 86   : void breakpoint_trap(size_t vector, void* param){

$LN5:
	mov	QWORD PTR [rsp+16], rdx
	mov	QWORD PTR [rsp+8], rcx
	sub	rsp, 40					; 00000028H

; 87   : 	x64_cli();

	call	x64_cli

; 88   : 	panic("\nBreakpoint Trap");

	lea	rcx, OFFSET FLAT:$SG4148
	call	?panic@@YAXPEBDZZ			; panic
$LN2@breakpoint:

; 89   : 	for (;;);

	jmp	SHORT $LN2@breakpoint

; 90   : }

	add	rsp, 40					; 00000028H
	ret	0
?breakpoint_trap@@YAX_KPEAX@Z ENDP			; breakpoint_trap
_TEXT	ENDS
; Function compile flags: /Odtpy
; File e:\xeneva project\aurora\kernel\hal\x86_64_exception.cpp
_TEXT	SEGMENT
vector$ = 48
param$ = 56
?nmi_trap@@YAX_KPEAX@Z PROC				; nmi_trap

; 78   : void nmi_trap(size_t vector, void* param){

$LN5:
	mov	QWORD PTR [rsp+16], rdx
	mov	QWORD PTR [rsp+8], rcx
	sub	rsp, 40					; 00000028H

; 79   : 	x64_cli();

	call	x64_cli

; 80   : 	panic("\nNMI [Non-Muskable-Interrupt] Trap");

	lea	rcx, OFFSET FLAT:$SG4140
	call	?panic@@YAXPEBDZZ			; panic
$LN2@nmi_trap:

; 81   : 	for (;;);

	jmp	SHORT $LN2@nmi_trap

; 82   : 
; 83   : }

	add	rsp, 40					; 00000028H
	ret	0
?nmi_trap@@YAX_KPEAX@Z ENDP				; nmi_trap
_TEXT	ENDS
; Function compile flags: /Odtpy
; File e:\xeneva project\aurora\kernel\hal\x86_64_exception.cpp
_TEXT	SEGMENT
frame$ = 32
vector$ = 64
param$ = 72
?single_step_trap@@YAX_KPEAX@Z PROC			; single_step_trap

; 71   : void single_step_trap(size_t vector, void* param) {

$LN5:
	mov	QWORD PTR [rsp+16], rdx
	mov	QWORD PTR [rsp+8], rcx
	sub	rsp, 56					; 00000038H

; 72   : 	x64_cli();

	call	x64_cli

; 73   : 	interrupt_stack_frame *frame = (interrupt_stack_frame*)param;

	mov	rax, QWORD PTR param$[rsp]
	mov	QWORD PTR frame$[rsp], rax

; 74   : 	panic("\nSingle Step Trap");

	lea	rcx, OFFSET FLAT:$SG4132
	call	?panic@@YAXPEBDZZ			; panic
$LN2@single_ste:

; 75   : 	for (;;);

	jmp	SHORT $LN2@single_ste

; 76   : }

	add	rsp, 56					; 00000038H
	ret	0
?single_step_trap@@YAX_KPEAX@Z ENDP			; single_step_trap
_TEXT	ENDS
; Function compile flags: /Odtpy
; File e:\xeneva project\aurora\kernel\hal\x86_64_exception.cpp
_TEXT	SEGMENT
frame$ = 32
vector$ = 64
param$ = 72
?divide_by_zero_fault@@YAX_KPEAX@Z PROC			; divide_by_zero_fault

; 58   : void divide_by_zero_fault(size_t vector, void* param) {

$LN5:
	mov	QWORD PTR [rsp+16], rdx
	mov	QWORD PTR [rsp+8], rcx
	sub	rsp, 56					; 00000038H

; 59   : 	x64_cli();

	call	x64_cli

; 60   : 	interrupt_stack_frame *frame = (interrupt_stack_frame*)param;

	mov	rax, QWORD PTR param$[rsp]
	mov	QWORD PTR frame$[rsp], rax

; 61   : 	panic("\nDivide by 0");

	lea	rcx, OFFSET FLAT:$SG4117
	call	?panic@@YAXPEBDZZ			; panic

; 62   : 	SeTextOut("Divide by 0 \r\n");

	lea	rcx, OFFSET FLAT:$SG4118
	call	SeTextOut

; 63   : 	SeTextOut("__PROCESSOR_DATA__ \r\n");

	lea	rcx, OFFSET FLAT:$SG4119
	call	SeTextOut

; 64   : 	SeTextOut("RIP -> %x \r\n", frame->rip);

	mov	rax, QWORD PTR frame$[rsp]
	mov	rdx, QWORD PTR [rax+16]
	lea	rcx, OFFSET FLAT:$SG4120
	call	SeTextOut

; 65   : 	SeTextOut("RSP -> %x \r\n", frame->rsp);

	mov	rax, QWORD PTR frame$[rsp]
	mov	rdx, QWORD PTR [rax+40]
	lea	rcx, OFFSET FLAT:$SG4121
	call	SeTextOut

; 66   : 	SeTextOut("RFLAGS -> %x \r\n", frame->rflags);

	mov	rax, QWORD PTR frame$[rsp]
	mov	rdx, QWORD PTR [rax+32]
	lea	rcx, OFFSET FLAT:$SG4122
	call	SeTextOut
$LN2@divide_by_:

; 67   : 
; 68   : 	for (;;);

	jmp	SHORT $LN2@divide_by_

; 69   : }

	add	rsp, 56					; 00000038H
	ret	0
?divide_by_zero_fault@@YAX_KPEAX@Z ENDP			; divide_by_zero_fault
_TEXT	ENDS
; Function compile flags: /Odtpy
; File e:\xeneva project\aurora\kernel\hal\x86_64_exception.cpp
_TEXT	SEGMENT
msg$ = 48
?panic@@YAXPEBDZZ PROC					; panic

; 49   : void panic(const char* msg, ...) {

$LN3:
	mov	QWORD PTR [rsp+8], rcx
	mov	QWORD PTR [rsp+16], rdx
	mov	QWORD PTR [rsp+24], r8
	mov	QWORD PTR [rsp+32], r9
	sub	rsp, 40					; 00000028H

; 50   : 	SeTextOut("\r\n ***ARCH x86_64 : Kernel Panic!!! *** \r\n");

	lea	rcx, OFFSET FLAT:$SG4105
	call	SeTextOut

; 51   : 	SeTextOut("[Aurora Kernel]: We are sorry to say that, a processor invalid exception has occured \r\n");

	lea	rcx, OFFSET FLAT:$SG4106
	call	SeTextOut

; 52   : 	SeTextOut("[Aurora Kernel]: please inform it to the master of the kernel \r\n");

	lea	rcx, OFFSET FLAT:$SG4107
	call	SeTextOut

; 53   : 	SeTextOut("[Aurora Kernel]: Below is the code of exception \r\n");

	lea	rcx, OFFSET FLAT:$SG4108
	call	SeTextOut

; 54   : 	SeTextOut("[Aurora Kernel]: Current Processor id -> %d \r\n", AuPerCPUGetCpuID());

	call	?AuPerCPUGetCpuID@@YAEXZ		; AuPerCPUGetCpuID
	movzx	eax, al
	mov	edx, eax
	lea	rcx, OFFSET FLAT:$SG4109
	call	SeTextOut

; 55   : 	SeTextOut(" %s \r\n", msg);

	mov	rdx, QWORD PTR msg$[rsp]
	lea	rcx, OFFSET FLAT:$SG4110
	call	SeTextOut

; 56   : }

	add	rsp, 40					; 00000028H
	ret	0
?panic@@YAXPEBDZZ ENDP					; panic
_TEXT	ENDS
; Function compile flags: /Odtpy
; File e:\xeneva project\aurora\kernel\hal\x86_64_exception.cpp
_TEXT	SEGMENT
?x86_64_exception_init@@YAXXZ PROC			; x86_64_exception_init

; 304  : void x86_64_exception_init() {

$LN3:
	sub	rsp, 40					; 00000028H

; 305  : 	setvect(0, divide_by_zero_fault);

	lea	rdx, OFFSET FLAT:?divide_by_zero_fault@@YAX_KPEAX@Z ; divide_by_zero_fault
	xor	ecx, ecx
	call	setvect

; 306  : 	setvect(1, single_step_trap);

	lea	rdx, OFFSET FLAT:?single_step_trap@@YAX_KPEAX@Z ; single_step_trap
	mov	ecx, 1
	call	setvect

; 307  : 	setvect(2, nmi_trap);

	lea	rdx, OFFSET FLAT:?nmi_trap@@YAX_KPEAX@Z	; nmi_trap
	mov	ecx, 2
	call	setvect

; 308  : 	setvect(3, breakpoint_trap);

	lea	rdx, OFFSET FLAT:?breakpoint_trap@@YAX_KPEAX@Z ; breakpoint_trap
	mov	ecx, 3
	call	setvect

; 309  : 	setvect(4, overflow_trap);

	lea	rdx, OFFSET FLAT:?overflow_trap@@YAX_KPEAX@Z ; overflow_trap
	mov	ecx, 4
	call	setvect

; 310  : 	setvect(5, bounds_check_fault);

	lea	rdx, OFFSET FLAT:?bounds_check_fault@@YAX_KPEAX@Z ; bounds_check_fault
	mov	ecx, 5
	call	setvect

; 311  : 	setvect(6, invalid_opcode_fault);

	lea	rdx, OFFSET FLAT:?invalid_opcode_fault@@YAX_KPEAX@Z ; invalid_opcode_fault
	mov	ecx, 6
	call	setvect

; 312  : 	setvect(7, no_device_fault);

	lea	rdx, OFFSET FLAT:?no_device_fault@@YAX_KPEAX@Z ; no_device_fault
	mov	ecx, 7
	call	setvect

; 313  : 	setvect(8, double_fault_abort);

	lea	rdx, OFFSET FLAT:?double_fault_abort@@YAX_KPEAX@Z ; double_fault_abort
	mov	ecx, 8
	call	setvect

; 314  : 	setvect(10, invalid_tss_fault);

	lea	rdx, OFFSET FLAT:?invalid_tss_fault@@YAX_KPEAX@Z ; invalid_tss_fault
	mov	ecx, 10
	call	setvect

; 315  : 	setvect(11, no_segment_fault);

	lea	rdx, OFFSET FLAT:?no_segment_fault@@YAX_KPEAX@Z ; no_segment_fault
	mov	ecx, 11
	call	setvect

; 316  : 	setvect(12, stack_fault);

	lea	rdx, OFFSET FLAT:?stack_fault@@YAX_KPEAX@Z ; stack_fault
	mov	ecx, 12
	call	setvect

; 317  : 	setvect(13, general_protection_fault);

	lea	rdx, OFFSET FLAT:?general_protection_fault@@YAX_KPEAX@Z ; general_protection_fault
	mov	ecx, 13
	call	setvect

; 318  : 	setvect(14, page_fault);

	lea	rdx, OFFSET FLAT:?page_fault@@YAX_KPEAX@Z ; page_fault
	mov	ecx, 14
	call	setvect

; 319  : 	setvect(16, fpu_fault);

	lea	rdx, OFFSET FLAT:?fpu_fault@@YAX_KPEAX@Z ; fpu_fault
	mov	ecx, 16
	call	setvect

; 320  : 	setvect(17, alignment_check_fault);

	lea	rdx, OFFSET FLAT:?alignment_check_fault@@YAX_KPEAX@Z ; alignment_check_fault
	mov	ecx, 17
	call	setvect

; 321  : 	setvect(18, machine_check_abort);

	lea	rdx, OFFSET FLAT:?machine_check_abort@@YAX_KPEAX@Z ; machine_check_abort
	mov	ecx, 18
	call	setvect

; 322  : 	setvect(19, simd_fpu_fault);

	lea	rdx, OFFSET FLAT:?simd_fpu_fault@@YAX_KPEAX@Z ; simd_fpu_fault
	mov	ecx, 19
	call	setvect

; 323  : }

	add	rsp, 40					; 00000028H
	ret	0
?x86_64_exception_init@@YAXXZ ENDP			; x86_64_exception_init
_TEXT	ENDS
END
