; Listing generated by Microsoft (R) Optimizing Compiler Version 18.00.21005.1 

include listing.inc

INCLUDELIB LIBCMT
INCLUDELIB OLDNAMES

CONST	SEGMENT
$SG3781	DB	0dH, 0aH, ' ***ARCH x86_64 : Kernel Panic!!! *** ', 0dH, 0aH
	DB	00H
	ORG $+5
$SG3782	DB	'[Aurora Kernel]: We are sorry to say that, a processor i'
	DB	'nvalid exception has occured ', 0dH, 0aH, 00H
$SG3784	DB	'[Aurora Kernel]: Below is the code of exception ', 0dH, 0aH
	DB	00H
	ORG $+5
$SG3783	DB	'[Aurora Kernel]: please inform it to the master of the k'
	DB	'ernel ', 0dH, 0aH, 00H
	ORG $+3
$SG3786	DB	' %s ', 0dH, 0aH, 00H
	ORG $+5
$SG3785	DB	'[Aurora Kernel]: Current Processor id -> %d ', 0dH, 0aH, 00H
	ORG $+1
$SG3793	DB	0aH, 'Divide by 0', 00H
	ORG $+3
$SG3794	DB	'Divide by 0 ', 0dH, 0aH, 00H
	ORG $+1
$SG3795	DB	'__PROCESSOR_DATA__ ', 0dH, 0aH, 00H
	ORG $+2
$SG3796	DB	'RIP -> %x ', 0dH, 0aH, 00H
	ORG $+3
$SG3797	DB	'RSP -> %x ', 0dH, 0aH, 00H
	ORG $+3
$SG3798	DB	'RFLAGS -> %x ', 0dH, 0aH, 00H
$SG3808	DB	0aH, 'Single Step Trap', 00H
	ORG $+6
$SG3816	DB	0aH, 'NMI [Non-Muskable-Interrupt] Trap', 00H
	ORG $+5
$SG3824	DB	0aH, 'Breakpoint Trap', 00H
	ORG $+7
$SG3832	DB	0aH, 'Overflow Trap', 00H
	ORG $+1
$SG3840	DB	0aH, 'Bound Check Fault', 00H
	ORG $+5
$SG3850	DB	'Invalid Opcode Fault ', 0dH, 0aH, 00H
$SG3851	DB	'Invalid Opcode Fault ', 0dH, 0aH, 00H
$SG3852	DB	'__PROCESSOR TRACE__ ', 0dH, 0aH, 00H
	ORG $+1
$SG3853	DB	'RIP -> %x', 0aH, 00H
	ORG $+5
$SG3854	DB	'Stack -> %x', 0aH, 00H
	ORG $+3
$SG3855	DB	'RFLAGS -> %x', 0aH, 00H
	ORG $+2
$SG3856	DB	'CS -> %x', 0aH, 00H
	ORG $+6
$SG3857	DB	'SS -> %x', 0aH, 00H
	ORG $+6
$SG3865	DB	0aH, 'No Device Fault', 00H
	ORG $+7
$SG3873	DB	0aH, 'Double Fault Abort', 00H
	ORG $+4
$SG3881	DB	0aH, 'Invalid TSS Fault ', 00H
	ORG $+4
$SG3889	DB	0aH, 'No Segment Fault', 00H
	ORG $+6
$SG3897	DB	0aH, 'Stack Fault at ', 00H
	ORG $+7
$SG3907	DB	'Genral Protection Fault ', 0dH, 0aH, 00H
	ORG $+5
$SG3908	DB	'General Protection Fault ', 0dH, 0aH, 00H
	ORG $+4
$SG3909	DB	'__PROCESSOR TRACE__ ', 0dH, 0aH, 00H
	ORG $+1
$SG3910	DB	'RIP -> %x ', 0dH, 0aH, 00H
	ORG $+3
$SG3911	DB	'Stack -> %x ', 0dH, 0aH, 00H
	ORG $+1
$SG3912	DB	'RFLAGS -> %x ', 0dH, 0aH, 00H
$SG3913	DB	'CS -> %x, SS -> %x ', 0dH, 0aH, 00H
	ORG $+2
$SG3914	DB	'Current thread ->id %d ', 0dH, 0aH, 00H
	ORG $+6
$SG3931	DB	'Page Fault !! ', 0dH, 0aH, 00H
	ORG $+7
$SG3936	DB	'Process pid -> %d ', 0dH, 0aH, 00H
	ORG $+3
$SG3942	DB	'Page Not Present ', 0dH, 0aH, 00H
	ORG $+4
$SG3945	DB	'Read/Write ', 0dH, 0aH, 00H
	ORG $+2
$SG3948	DB	'VPage rw -> %d , user -> %d ', 0dH, 0aH, 00H
	ORG $+1
$SG3949	DB	'VPage phys1-> %x, phys2-> %x ', 0dH, 0aH, 00H
$SG3952	DB	'User bit not set ', 0dH, 0aH, 00H
	ORG $+4
$SG3955	DB	'Reserved page ', 0dH, 0aH, 00H
	ORG $+7
$SG3958	DB	'Invalid page ', 0dH, 0aH, 00H
$SG3959	DB	'Virtual Address -> %x ', 0dH, 0aH, 00H
	ORG $+7
$SG3960	DB	'Virtual Address aligned -> %x ', 0dH, 0aH, 00H
	ORG $+7
$SG3961	DB	'RSP -> %x ', 0dH, 0aH, 00H
	ORG $+3
$SG3962	DB	'RIP -> %x ', 0dH, 0aH, 00H
	ORG $+3
$SG3963	DB	'CS -> %x, SS -> %x ', 0dH, 0aH, 00H
	ORG $+2
$SG3972	DB	0aH, 'FPU Fault', 00H
	ORG $+5
$SG3980	DB	0aH, 'Alignment Check Fault at address ', 00H
	ORG $+5
$SG3988	DB	0aH, 'Machine Check Abort', 00H
	ORG $+3
$SG3998	DB	0aH, ' SIMD FPU Faul ', 0dH, 0aH, 't', 00H
	ORG $+4
$SG3999	DB	0aH, '__CPU Informations__ ', 0aH, 00H
$SG4000	DB	' RIP -> %x ', 0aH, 00H
	ORG $+3
$SG4001	DB	' RSP -> %x ', 0aH, 00H
	ORG $+3
$SG4002	DB	' RFLAGS -> %x ', 0aH, 00H
$SG4003	DB	' MXCSR bit  -- ', 00H
CONST	ENDS
PUBLIC	?x86_64_exception_init@@YAXXZ			; x86_64_exception_init
PUBLIC	?panic@@YAXPEBDZZ				; panic
PUBLIC	?divide_by_zero_fault@@YAX_KPEAX@Z		; divide_by_zero_fault
PUBLIC	?single_step_trap@@YAX_KPEAX@Z			; single_step_trap
PUBLIC	?nmi_trap@@YAX_KPEAX@Z				; nmi_trap
PUBLIC	?breakpoint_trap@@YAX_KPEAX@Z			; breakpoint_trap
PUBLIC	?overflow_trap@@YAX_KPEAX@Z			; overflow_trap
PUBLIC	?bounds_check_fault@@YAX_KPEAX@Z		; bounds_check_fault
PUBLIC	?invalid_opcode_fault@@YAX_KPEAX@Z		; invalid_opcode_fault
PUBLIC	?no_device_fault@@YAX_KPEAX@Z			; no_device_fault
PUBLIC	?double_fault_abort@@YAX_KPEAX@Z		; double_fault_abort
PUBLIC	?invalid_tss_fault@@YAX_KPEAX@Z			; invalid_tss_fault
PUBLIC	?no_segment_fault@@YAX_KPEAX@Z			; no_segment_fault
PUBLIC	?stack_fault@@YAX_KPEAX@Z			; stack_fault
PUBLIC	?general_protection_fault@@YAX_KPEAX@Z		; general_protection_fault
PUBLIC	?page_fault@@YAX_KPEAX@Z			; page_fault
PUBLIC	?fpu_fault@@YAX_KPEAX@Z				; fpu_fault
PUBLIC	?alignment_check_fault@@YAX_KPEAX@Z		; alignment_check_fault
PUBLIC	?machine_check_abort@@YAX_KPEAX@Z		; machine_check_abort
PUBLIC	?simd_fpu_fault@@YAX_KPEAX@Z			; simd_fpu_fault
EXTRN	AuGetCurrentThread:PROC
EXTRN	?AuProcessFindThread@@YAPEAU_au_proc_@@PEAU_au_thread_@@@Z:PROC ; AuProcessFindThread
EXTRN	?AuPerCPUGetCpuID@@YAEXZ:PROC			; AuPerCPUGetCpuID
EXTRN	x64_cli:PROC
EXTRN	x64_read_cr2:PROC
EXTRN	AuVmmngrGetPage:PROC
EXTRN	AuGetPhysicalAddress:PROC
EXTRN	setvect:PROC
EXTRN	SeTextOut:PROC
pdata	SEGMENT
$pdata$?x86_64_exception_init@@YAXXZ DD imagerel $LN3
	DD	imagerel $LN3+312
	DD	imagerel $unwind$?x86_64_exception_init@@YAXXZ
$pdata$?panic@@YAXPEBDZZ DD imagerel $LN3
	DD	imagerel $LN3+116
	DD	imagerel $unwind$?panic@@YAXPEBDZZ
$pdata$?divide_by_zero_fault@@YAX_KPEAX@Z DD imagerel $LN5
	DD	imagerel $LN5+135
	DD	imagerel $unwind$?divide_by_zero_fault@@YAX_KPEAX@Z
$pdata$?single_step_trap@@YAX_KPEAX@Z DD imagerel $LN5
	DD	imagerel $LN5+48
	DD	imagerel $unwind$?single_step_trap@@YAX_KPEAX@Z
$pdata$?nmi_trap@@YAX_KPEAX@Z DD imagerel $LN5
	DD	imagerel $LN5+38
	DD	imagerel $unwind$?nmi_trap@@YAX_KPEAX@Z
$pdata$?breakpoint_trap@@YAX_KPEAX@Z DD imagerel $LN5
	DD	imagerel $LN5+38
	DD	imagerel $unwind$?breakpoint_trap@@YAX_KPEAX@Z
$pdata$?overflow_trap@@YAX_KPEAX@Z DD imagerel $LN5
	DD	imagerel $LN5+38
	DD	imagerel $unwind$?overflow_trap@@YAX_KPEAX@Z
$pdata$?bounds_check_fault@@YAX_KPEAX@Z DD imagerel $LN5
	DD	imagerel $LN5+38
	DD	imagerel $unwind$?bounds_check_fault@@YAX_KPEAX@Z
$pdata$?invalid_opcode_fault@@YAX_KPEAX@Z DD imagerel $LN5
	DD	imagerel $LN5+177
	DD	imagerel $unwind$?invalid_opcode_fault@@YAX_KPEAX@Z
$pdata$?no_device_fault@@YAX_KPEAX@Z DD imagerel $LN5
	DD	imagerel $LN5+38
	DD	imagerel $unwind$?no_device_fault@@YAX_KPEAX@Z
$pdata$?double_fault_abort@@YAX_KPEAX@Z DD imagerel $LN5
	DD	imagerel $LN5+38
	DD	imagerel $unwind$?double_fault_abort@@YAX_KPEAX@Z
$pdata$?invalid_tss_fault@@YAX_KPEAX@Z DD imagerel $LN5
	DD	imagerel $LN5+38
	DD	imagerel $unwind$?invalid_tss_fault@@YAX_KPEAX@Z
$pdata$?no_segment_fault@@YAX_KPEAX@Z DD imagerel $LN5
	DD	imagerel $LN5+38
	DD	imagerel $unwind$?no_segment_fault@@YAX_KPEAX@Z
$pdata$?stack_fault@@YAX_KPEAX@Z DD imagerel $LN5
	DD	imagerel $LN5+38
	DD	imagerel $unwind$?stack_fault@@YAX_KPEAX@Z
$pdata$?general_protection_fault@@YAX_KPEAX@Z DD imagerel $LN5
	DD	imagerel $LN5+191
	DD	imagerel $unwind$?general_protection_fault@@YAX_KPEAX@Z
$pdata$?page_fault@@YAX_KPEAX@Z DD imagerel $LN19
	DD	imagerel $LN19+636
	DD	imagerel $unwind$?page_fault@@YAX_KPEAX@Z
$pdata$?fpu_fault@@YAX_KPEAX@Z DD imagerel $LN5
	DD	imagerel $LN5+38
	DD	imagerel $unwind$?fpu_fault@@YAX_KPEAX@Z
$pdata$?alignment_check_fault@@YAX_KPEAX@Z DD imagerel $LN5
	DD	imagerel $LN5+38
	DD	imagerel $unwind$?alignment_check_fault@@YAX_KPEAX@Z
$pdata$?machine_check_abort@@YAX_KPEAX@Z DD imagerel $LN5
	DD	imagerel $LN5+38
	DD	imagerel $unwind$?machine_check_abort@@YAX_KPEAX@Z
$pdata$?simd_fpu_fault@@YAX_KPEAX@Z DD imagerel $LN5
	DD	imagerel $LN5+135
	DD	imagerel $unwind$?simd_fpu_fault@@YAX_KPEAX@Z
pdata	ENDS
xdata	SEGMENT
$unwind$?x86_64_exception_init@@YAXXZ DD 010401H
	DD	04204H
$unwind$?panic@@YAXPEBDZZ DD 011801H
	DD	04218H
$unwind$?divide_by_zero_fault@@YAX_KPEAX@Z DD 010e01H
	DD	0620eH
$unwind$?single_step_trap@@YAX_KPEAX@Z DD 010e01H
	DD	0620eH
$unwind$?nmi_trap@@YAX_KPEAX@Z DD 010e01H
	DD	0420eH
$unwind$?breakpoint_trap@@YAX_KPEAX@Z DD 010e01H
	DD	0420eH
$unwind$?overflow_trap@@YAX_KPEAX@Z DD 010e01H
	DD	0420eH
$unwind$?bounds_check_fault@@YAX_KPEAX@Z DD 010e01H
	DD	0420eH
$unwind$?invalid_opcode_fault@@YAX_KPEAX@Z DD 010e01H
	DD	0620eH
$unwind$?no_device_fault@@YAX_KPEAX@Z DD 010e01H
	DD	0420eH
$unwind$?double_fault_abort@@YAX_KPEAX@Z DD 010e01H
	DD	0420eH
$unwind$?invalid_tss_fault@@YAX_KPEAX@Z DD 010e01H
	DD	0420eH
$unwind$?no_segment_fault@@YAX_KPEAX@Z DD 010e01H
	DD	0420eH
$unwind$?stack_fault@@YAX_KPEAX@Z DD 010e01H
	DD	0420eH
$unwind$?general_protection_fault@@YAX_KPEAX@Z DD 010e01H
	DD	0620eH
$unwind$?page_fault@@YAX_KPEAX@Z DD 021101H
	DD	0130111H
$unwind$?fpu_fault@@YAX_KPEAX@Z DD 010e01H
	DD	0420eH
$unwind$?alignment_check_fault@@YAX_KPEAX@Z DD 010e01H
	DD	0420eH
$unwind$?machine_check_abort@@YAX_KPEAX@Z DD 010e01H
	DD	0420eH
$unwind$?simd_fpu_fault@@YAX_KPEAX@Z DD 010e01H
	DD	0620eH
xdata	ENDS
; Function compile flags: /Odtpy
; File e:\xeneva project\aurora\kernel\hal\x86_64_exception.cpp
_TEXT	SEGMENT
frame$ = 32
v$ = 64
p$ = 72
?simd_fpu_fault@@YAX_KPEAX@Z PROC			; simd_fpu_fault

; 246  : void simd_fpu_fault(size_t v, void* p){

$LN5:
	mov	QWORD PTR [rsp+16], rdx
	mov	QWORD PTR [rsp+8], rcx
	sub	rsp, 56					; 00000038H

; 247  : 	x64_cli();

	call	x64_cli

; 248  : 	interrupt_stack_frame *frame = (interrupt_stack_frame*)p;

	mov	rax, QWORD PTR p$[rsp]
	mov	QWORD PTR frame$[rsp], rax

; 249  : 	panic("\n SIMD FPU Faul \r\nt");

	lea	rcx, OFFSET FLAT:$SG3998
	call	?panic@@YAXPEBDZZ			; panic

; 250  : 	SeTextOut("\n__CPU Informations__ \n");

	lea	rcx, OFFSET FLAT:$SG3999
	call	SeTextOut

; 251  : 	SeTextOut(" RIP -> %x \n", frame->rip);

	mov	rax, QWORD PTR frame$[rsp]
	mov	rdx, QWORD PTR [rax+16]
	lea	rcx, OFFSET FLAT:$SG4000
	call	SeTextOut

; 252  : 	SeTextOut(" RSP -> %x \n", frame->rsp);

	mov	rax, QWORD PTR frame$[rsp]
	mov	rdx, QWORD PTR [rax+40]
	lea	rcx, OFFSET FLAT:$SG4001
	call	SeTextOut

; 253  : 	SeTextOut(" RFLAGS -> %x \n", frame->rflags);

	mov	rax, QWORD PTR frame$[rsp]
	mov	rdx, QWORD PTR [rax+32]
	lea	rcx, OFFSET FLAT:$SG4002
	call	SeTextOut

; 254  : 	SeTextOut(" MXCSR bit  -- ");

	lea	rcx, OFFSET FLAT:$SG4003
	call	SeTextOut
$LN2@simd_fpu_f:

; 255  : 	for (;;);

	jmp	SHORT $LN2@simd_fpu_f

; 256  : }

	add	rsp, 56					; 00000038H
	ret	0
?simd_fpu_fault@@YAX_KPEAX@Z ENDP			; simd_fpu_fault
_TEXT	ENDS
; Function compile flags: /Odtpy
; File e:\xeneva project\aurora\kernel\hal\x86_64_exception.cpp
_TEXT	SEGMENT
v$ = 48
p$ = 56
?machine_check_abort@@YAX_KPEAX@Z PROC			; machine_check_abort

; 239  : void machine_check_abort(size_t v, void* p){

$LN5:
	mov	QWORD PTR [rsp+16], rdx
	mov	QWORD PTR [rsp+8], rcx
	sub	rsp, 40					; 00000028H

; 240  : 	x64_cli();

	call	x64_cli

; 241  : 	panic("\nMachine Check Abort");

	lea	rcx, OFFSET FLAT:$SG3988
	call	?panic@@YAXPEBDZZ			; panic
$LN2@machine_ch:

; 242  : 	for (;;);

	jmp	SHORT $LN2@machine_ch

; 243  : }

	add	rsp, 40					; 00000028H
	ret	0
?machine_check_abort@@YAX_KPEAX@Z ENDP			; machine_check_abort
_TEXT	ENDS
; Function compile flags: /Odtpy
; File e:\xeneva project\aurora\kernel\hal\x86_64_exception.cpp
_TEXT	SEGMENT
v$ = 48
p$ = 56
?alignment_check_fault@@YAX_KPEAX@Z PROC		; alignment_check_fault

; 232  : void alignment_check_fault(size_t v, void* p){

$LN5:
	mov	QWORD PTR [rsp+16], rdx
	mov	QWORD PTR [rsp+8], rcx
	sub	rsp, 40					; 00000028H

; 233  : 	x64_cli();

	call	x64_cli

; 234  : 	panic("\nAlignment Check Fault at address ");

	lea	rcx, OFFSET FLAT:$SG3980
	call	?panic@@YAXPEBDZZ			; panic
$LN2@alignment_:

; 235  : 	for (;;);

	jmp	SHORT $LN2@alignment_

; 236  : }

	add	rsp, 40					; 00000028H
	ret	0
?alignment_check_fault@@YAX_KPEAX@Z ENDP		; alignment_check_fault
_TEXT	ENDS
; Function compile flags: /Odtpy
; File e:\xeneva project\aurora\kernel\hal\x86_64_exception.cpp
_TEXT	SEGMENT
vector$ = 48
p$ = 56
?fpu_fault@@YAX_KPEAX@Z PROC				; fpu_fault

; 224  : void fpu_fault(size_t vector, void* p){

$LN5:
	mov	QWORD PTR [rsp+16], rdx
	mov	QWORD PTR [rsp+8], rcx
	sub	rsp, 40					; 00000028H

; 225  : 	x64_cli();

	call	x64_cli

; 226  : 	panic("\nFPU Fault");

	lea	rcx, OFFSET FLAT:$SG3972
	call	?panic@@YAXPEBDZZ			; panic
$LN2@fpu_fault:

; 227  : 	for (;;);

	jmp	SHORT $LN2@fpu_fault

; 228  : }

	add	rsp, 40					; 00000028H
	ret	0
?fpu_fault@@YAX_KPEAX@Z ENDP				; fpu_fault
_TEXT	ENDS
; Function compile flags: /Odtpy
; File e:\xeneva project\aurora\kernel\hal\x86_64_exception.cpp
_TEXT	SEGMENT
_mapped$ = 32
frame$ = 40
tv68 = 48
proc$ = 56
vpage$1 = 64
us$ = 72
vaddr_aligned$ = 80
id$ = 88
resv$ = 92
present$ = 96
rw$ = 100
thr$ = 104
vaddr_$ = 112
vaddr$ = 120
phys$2 = 128
vector$ = 160
param$ = 168
?page_fault@@YAX_KPEAX@Z PROC				; page_fault

; 171  : void page_fault(size_t vector, void* param){

$LN19:
	mov	QWORD PTR [rsp+16], rdx
	mov	QWORD PTR [rsp+8], rcx
	sub	rsp, 152				; 00000098H

; 172  : 	x64_cli();

	call	x64_cli

; 173  : 	interrupt_stack_frame *frame = (interrupt_stack_frame*)param;

	mov	rax, QWORD PTR param$[rsp]
	mov	QWORD PTR frame$[rsp], rax

; 174  : 	void* vaddr = (void*)x64_read_cr2();

	call	x64_read_cr2
	mov	QWORD PTR vaddr$[rsp], rax

; 175  : 
; 176  : 	int present = !(frame->error & 0x1);

	mov	rax, QWORD PTR frame$[rsp]
	mov	rax, QWORD PTR [rax+8]
	and	rax, 1
	test	rax, rax
	jne	SHORT $LN17@page_fault
	mov	DWORD PTR tv68[rsp], 1
	jmp	SHORT $LN18@page_fault
$LN17@page_fault:
	mov	DWORD PTR tv68[rsp], 0
$LN18@page_fault:
	mov	eax, DWORD PTR tv68[rsp]
	mov	DWORD PTR present$[rsp], eax

; 177  : 	int rw = frame->error & 0x2;

	mov	rax, QWORD PTR frame$[rsp]
	mov	rax, QWORD PTR [rax+8]
	and	rax, 2
	mov	DWORD PTR rw$[rsp], eax

; 178  : 	int us = frame->error & 0x4;

	mov	rax, QWORD PTR frame$[rsp]
	mov	rax, QWORD PTR [rax+8]
	and	rax, 4
	mov	DWORD PTR us$[rsp], eax

; 179  : 	int resv = frame->error & 0x8;

	mov	rax, QWORD PTR frame$[rsp]
	mov	rax, QWORD PTR [rax+8]
	and	rax, 8
	mov	DWORD PTR resv$[rsp], eax

; 180  : 	int id = frame->error & 0x10;

	mov	rax, QWORD PTR frame$[rsp]
	mov	rax, QWORD PTR [rax+8]
	and	rax, 16
	mov	DWORD PTR id$[rsp], eax

; 181  : 
; 182  : 	panic("Page Fault !! \r\n");

	lea	rcx, OFFSET FLAT:$SG3931
	call	?panic@@YAXPEBDZZ			; panic

; 183  : 	
; 184  : 	AuThread* thr = AuGetCurrentThread();

	call	AuGetCurrentThread
	mov	QWORD PTR thr$[rsp], rax

; 185  : 	AuProcess *proc = NULL;

	mov	QWORD PTR proc$[rsp], 0

; 186  : 	if (thr) {

	cmp	QWORD PTR thr$[rsp], 0
	je	SHORT $LN14@page_fault

; 187  : 		proc = AuProcessFindThread(thr);

	mov	rcx, QWORD PTR thr$[rsp]
	call	?AuProcessFindThread@@YAPEAU_au_proc_@@PEAU_au_thread_@@@Z ; AuProcessFindThread
	mov	QWORD PTR proc$[rsp], rax

; 188  : 		if (proc)

	cmp	QWORD PTR proc$[rsp], 0
	je	SHORT $LN13@page_fault

; 189  : 			SeTextOut("Process pid -> %d \r\n", proc->proc_id);

	mov	rax, QWORD PTR proc$[rsp]
	mov	edx, DWORD PTR [rax]
	lea	rcx, OFFSET FLAT:$SG3936
	call	SeTextOut
$LN13@page_fault:
$LN14@page_fault:

; 190  : 	}
; 191  : 	
; 192  : 	uint64_t vaddr_ = (uint64_t)vaddr;

	mov	rax, QWORD PTR vaddr$[rsp]
	mov	QWORD PTR vaddr_$[rsp], rax

; 193  : 	uint64_t vaddr_aligned = VIRT_ADDR_ALIGN(vaddr_);

	mov	rax, QWORD PTR vaddr_$[rsp]
	and	rax, -4096				; fffffffffffff000H
	mov	QWORD PTR vaddr_aligned$[rsp], rax

; 194  : 	bool _mapped = false;

	mov	BYTE PTR _mapped$[rsp], 0

; 195  : 	if (present) {

	cmp	DWORD PTR present$[rsp], 0
	je	SHORT $LN12@page_fault

; 196  : 		SeTextOut("Page Not Present \r\n");

	lea	rcx, OFFSET FLAT:$SG3942
	call	SeTextOut
	jmp	$LN11@page_fault
$LN12@page_fault:

; 197  : 	}
; 198  : 	else if (rw) {

	cmp	DWORD PTR rw$[rsp], 0
	je	$LN10@page_fault

; 199  : 		SeTextOut("Read/Write \r\n");

	lea	rcx, OFFSET FLAT:$SG3945
	call	SeTextOut

; 200  : 		void* phys = AuGetPhysicalAddress(vaddr_aligned);

	mov	rcx, QWORD PTR vaddr_aligned$[rsp]
	call	AuGetPhysicalAddress
	mov	QWORD PTR phys$2[rsp], rax

; 201  : 		AuVPage *vpage = AuVmmngrGetPage(vaddr_aligned, 0, 0);

	xor	r8d, r8d
	xor	edx, edx
	mov	rcx, QWORD PTR vaddr_aligned$[rsp]
	call	AuVmmngrGetPage
	mov	QWORD PTR vpage$1[rsp], rax

; 202  : 		SeTextOut("VPage rw -> %d , user -> %d \r\n", vpage->bits.writable, vpage->bits.user);

	mov	rax, QWORD PTR vpage$1[rsp]
	mov	rax, QWORD PTR [rax]
	shr	rax, 2
	and	rax, 1
	mov	rcx, QWORD PTR vpage$1[rsp]
	mov	rcx, QWORD PTR [rcx]
	shr	rcx, 1
	and	rcx, 1
	mov	r8, rax
	mov	rdx, rcx
	lea	rcx, OFFSET FLAT:$SG3948
	call	SeTextOut

; 203  : 		SeTextOut("VPage phys1-> %x, phys2-> %x \r\n", phys, (vpage->bits.page << PAGE_SHIFT));

	mov	rax, QWORD PTR vpage$1[rsp]
	mov	rax, QWORD PTR [rax]
	shr	rax, 12
	and	rax, 268435455				; 0fffffffH
	shl	rax, 12
	mov	r8, rax
	mov	rdx, QWORD PTR phys$2[rsp]
	lea	rcx, OFFSET FLAT:$SG3949
	call	SeTextOut
	jmp	SHORT $LN9@page_fault
$LN10@page_fault:

; 204  : 	}
; 205  : 	else if (us)

	cmp	DWORD PTR us$[rsp], 0
	je	SHORT $LN8@page_fault

; 206  : 		SeTextOut("User bit not set \r\n");

	lea	rcx, OFFSET FLAT:$SG3952
	call	SeTextOut
	jmp	SHORT $LN7@page_fault
$LN8@page_fault:

; 207  : 	else if (resv)

	cmp	DWORD PTR resv$[rsp], 0
	je	SHORT $LN6@page_fault

; 208  : 		SeTextOut("Reserved page \r\n");

	lea	rcx, OFFSET FLAT:$SG3955
	call	SeTextOut
	jmp	SHORT $LN5@page_fault
$LN6@page_fault:

; 209  : 	else if (id)

	cmp	DWORD PTR id$[rsp], 0
	je	SHORT $LN4@page_fault

; 210  : 		SeTextOut("Invalid page \r\n");

	lea	rcx, OFFSET FLAT:$SG3958
	call	SeTextOut
$LN4@page_fault:
$LN5@page_fault:
$LN7@page_fault:
$LN9@page_fault:
$LN11@page_fault:

; 211  : 
; 212  : 	SeTextOut("Virtual Address -> %x \r\n", vaddr_);

	mov	rdx, QWORD PTR vaddr_$[rsp]
	lea	rcx, OFFSET FLAT:$SG3959
	call	SeTextOut

; 213  : 	SeTextOut("Virtual Address aligned -> %x \r\n", vaddr_aligned);

	mov	rdx, QWORD PTR vaddr_aligned$[rsp]
	lea	rcx, OFFSET FLAT:$SG3960
	call	SeTextOut

; 214  : 	SeTextOut("RSP -> %x \r\n", frame->rsp);

	mov	rax, QWORD PTR frame$[rsp]
	mov	rdx, QWORD PTR [rax+40]
	lea	rcx, OFFSET FLAT:$SG3961
	call	SeTextOut

; 215  : 	SeTextOut("RIP -> %x \r\n", frame->rip);

	mov	rax, QWORD PTR frame$[rsp]
	mov	rdx, QWORD PTR [rax+16]
	lea	rcx, OFFSET FLAT:$SG3962
	call	SeTextOut

; 216  : 	SeTextOut("CS -> %x, SS -> %x \r\n", frame->cs, frame->ss);

	mov	rax, QWORD PTR frame$[rsp]
	mov	r8, QWORD PTR [rax+48]
	mov	rax, QWORD PTR frame$[rsp]
	mov	rdx, QWORD PTR [rax+24]
	lea	rcx, OFFSET FLAT:$SG3963
	call	SeTextOut

; 217  : 	if (!_mapped) {

	movzx	eax, BYTE PTR _mapped$[rsp]
	test	eax, eax
	jne	SHORT $LN3@page_fault
$LN2@page_fault:

; 218  : 		for (;;);

	jmp	SHORT $LN2@page_fault
$LN3@page_fault:

; 219  : 	}
; 220  : }

	add	rsp, 152				; 00000098H
	ret	0
?page_fault@@YAX_KPEAX@Z ENDP				; page_fault
_TEXT	ENDS
; Function compile flags: /Odtpy
; File e:\xeneva project\aurora\kernel\hal\x86_64_exception.cpp
_TEXT	SEGMENT
frame$ = 32
v$ = 64
p$ = 72
?general_protection_fault@@YAX_KPEAX@Z PROC		; general_protection_fault

; 154  : void general_protection_fault(size_t v, void* p){

$LN5:
	mov	QWORD PTR [rsp+16], rdx
	mov	QWORD PTR [rsp+8], rcx
	sub	rsp, 56					; 00000038H

; 155  : 	x64_cli();

	call	x64_cli

; 156  : 	interrupt_stack_frame *frame = (interrupt_stack_frame*)p;

	mov	rax, QWORD PTR p$[rsp]
	mov	QWORD PTR frame$[rsp], rax

; 157  : 	panic("Genral Protection Fault \r\n");

	lea	rcx, OFFSET FLAT:$SG3907
	call	?panic@@YAXPEBDZZ			; panic

; 158  : 	SeTextOut("General Protection Fault \r\n");

	lea	rcx, OFFSET FLAT:$SG3908
	call	SeTextOut

; 159  : 	SeTextOut("__PROCESSOR TRACE__ \r\n");

	lea	rcx, OFFSET FLAT:$SG3909
	call	SeTextOut

; 160  : 	SeTextOut("RIP -> %x \r\n", frame->rip);

	mov	rax, QWORD PTR frame$[rsp]
	mov	rdx, QWORD PTR [rax+16]
	lea	rcx, OFFSET FLAT:$SG3910
	call	SeTextOut

; 161  : 	SeTextOut("Stack -> %x \r\n", frame->rsp);

	mov	rax, QWORD PTR frame$[rsp]
	mov	rdx, QWORD PTR [rax+40]
	lea	rcx, OFFSET FLAT:$SG3911
	call	SeTextOut

; 162  : 	SeTextOut("RFLAGS -> %x \r\n", frame->rflags);

	mov	rax, QWORD PTR frame$[rsp]
	mov	rdx, QWORD PTR [rax+32]
	lea	rcx, OFFSET FLAT:$SG3912
	call	SeTextOut

; 163  : 	SeTextOut("CS -> %x, SS -> %x \r\n", frame->cs, frame->ss);

	mov	rax, QWORD PTR frame$[rsp]
	mov	r8, QWORD PTR [rax+48]
	mov	rax, QWORD PTR frame$[rsp]
	mov	rdx, QWORD PTR [rax+24]
	lea	rcx, OFFSET FLAT:$SG3913
	call	SeTextOut

; 164  : 	SeTextOut("Current thread ->id %d \r\n", AuGetCurrentThread()->id);

	call	AuGetCurrentThread
	movzx	eax, WORD PTR [rax+293]
	mov	edx, eax
	lea	rcx, OFFSET FLAT:$SG3914
	call	SeTextOut
$LN2@general_pr:

; 165  : 	for (;;);

	jmp	SHORT $LN2@general_pr

; 166  : }

	add	rsp, 56					; 00000038H
	ret	0
?general_protection_fault@@YAX_KPEAX@Z ENDP		; general_protection_fault
_TEXT	ENDS
; Function compile flags: /Odtpy
; File e:\xeneva project\aurora\kernel\hal\x86_64_exception.cpp
_TEXT	SEGMENT
v$ = 48
p$ = 56
?stack_fault@@YAX_KPEAX@Z PROC				; stack_fault

; 146  : void stack_fault(size_t v, void* p){

$LN5:
	mov	QWORD PTR [rsp+16], rdx
	mov	QWORD PTR [rsp+8], rcx
	sub	rsp, 40					; 00000028H

; 147  : 	x64_cli();

	call	x64_cli

; 148  : 	panic("\nStack Fault at ");

	lea	rcx, OFFSET FLAT:$SG3897
	call	?panic@@YAXPEBDZZ			; panic
$LN2@stack_faul:

; 149  : 	for (;;);

	jmp	SHORT $LN2@stack_faul

; 150  : }

	add	rsp, 40					; 00000028H
	ret	0
?stack_fault@@YAX_KPEAX@Z ENDP				; stack_fault
_TEXT	ENDS
; Function compile flags: /Odtpy
; File e:\xeneva project\aurora\kernel\hal\x86_64_exception.cpp
_TEXT	SEGMENT
v$ = 48
p$ = 56
?no_segment_fault@@YAX_KPEAX@Z PROC			; no_segment_fault

; 139  : void no_segment_fault(size_t v, void* p){

$LN5:
	mov	QWORD PTR [rsp+16], rdx
	mov	QWORD PTR [rsp+8], rcx
	sub	rsp, 40					; 00000028H

; 140  : 	x64_cli();

	call	x64_cli

; 141  : 	panic("\nNo Segment Fault");

	lea	rcx, OFFSET FLAT:$SG3889
	call	?panic@@YAXPEBDZZ			; panic
$LN2@no_segment:

; 142  : 	for (;;);

	jmp	SHORT $LN2@no_segment

; 143  : }

	add	rsp, 40					; 00000028H
	ret	0
?no_segment_fault@@YAX_KPEAX@Z ENDP			; no_segment_fault
_TEXT	ENDS
; Function compile flags: /Odtpy
; File e:\xeneva project\aurora\kernel\hal\x86_64_exception.cpp
_TEXT	SEGMENT
v$ = 48
p$ = 56
?invalid_tss_fault@@YAX_KPEAX@Z PROC			; invalid_tss_fault

; 132  : void invalid_tss_fault(size_t v, void* p){

$LN5:
	mov	QWORD PTR [rsp+16], rdx
	mov	QWORD PTR [rsp+8], rcx
	sub	rsp, 40					; 00000028H

; 133  : 	x64_cli();

	call	x64_cli

; 134  : 	panic("\nInvalid TSS Fault ");

	lea	rcx, OFFSET FLAT:$SG3881
	call	?panic@@YAXPEBDZZ			; panic
$LN2@invalid_ts:

; 135  : 	for (;;);

	jmp	SHORT $LN2@invalid_ts

; 136  : }

	add	rsp, 40					; 00000028H
	ret	0
?invalid_tss_fault@@YAX_KPEAX@Z ENDP			; invalid_tss_fault
_TEXT	ENDS
; Function compile flags: /Odtpy
; File e:\xeneva project\aurora\kernel\hal\x86_64_exception.cpp
_TEXT	SEGMENT
v$ = 48
p$ = 56
?double_fault_abort@@YAX_KPEAX@Z PROC			; double_fault_abort

; 125  : void double_fault_abort(size_t v, void* p){

$LN5:
	mov	QWORD PTR [rsp+16], rdx
	mov	QWORD PTR [rsp+8], rcx
	sub	rsp, 40					; 00000028H

; 126  : 	x64_cli();

	call	x64_cli

; 127  : 	panic("\nDouble Fault Abort");

	lea	rcx, OFFSET FLAT:$SG3873
	call	?panic@@YAXPEBDZZ			; panic
$LN2@double_fau:

; 128  : 	for (;;);

	jmp	SHORT $LN2@double_fau

; 129  : }

	add	rsp, 40					; 00000028H
	ret	0
?double_fault_abort@@YAX_KPEAX@Z ENDP			; double_fault_abort
_TEXT	ENDS
; Function compile flags: /Odtpy
; File e:\xeneva project\aurora\kernel\hal\x86_64_exception.cpp
_TEXT	SEGMENT
v$ = 48
p$ = 56
?no_device_fault@@YAX_KPEAX@Z PROC			; no_device_fault

; 118  : void no_device_fault(size_t v, void* p){

$LN5:
	mov	QWORD PTR [rsp+16], rdx
	mov	QWORD PTR [rsp+8], rcx
	sub	rsp, 40					; 00000028H

; 119  : 	x64_cli();

	call	x64_cli

; 120  : 	panic("\nNo Device Fault");

	lea	rcx, OFFSET FLAT:$SG3865
	call	?panic@@YAXPEBDZZ			; panic
$LN2@no_device_:

; 121  : 	for (;;);

	jmp	SHORT $LN2@no_device_

; 122  : }

	add	rsp, 40					; 00000028H
	ret	0
?no_device_fault@@YAX_KPEAX@Z ENDP			; no_device_fault
_TEXT	ENDS
; Function compile flags: /Odtpy
; File e:\xeneva project\aurora\kernel\hal\x86_64_exception.cpp
_TEXT	SEGMENT
frame$ = 32
v$ = 64
p$ = 72
?invalid_opcode_fault@@YAX_KPEAX@Z PROC			; invalid_opcode_fault

; 103  : void invalid_opcode_fault(size_t v, void* p){

$LN5:
	mov	QWORD PTR [rsp+16], rdx
	mov	QWORD PTR [rsp+8], rcx
	sub	rsp, 56					; 00000038H

; 104  : 	x64_cli();

	call	x64_cli

; 105  : 	interrupt_stack_frame *frame = (interrupt_stack_frame*)p;

	mov	rax, QWORD PTR p$[rsp]
	mov	QWORD PTR frame$[rsp], rax

; 106  : 	panic("Invalid Opcode Fault \r\n");

	lea	rcx, OFFSET FLAT:$SG3850
	call	?panic@@YAXPEBDZZ			; panic

; 107  : 	SeTextOut("Invalid Opcode Fault \r\n");

	lea	rcx, OFFSET FLAT:$SG3851
	call	SeTextOut

; 108  : 	SeTextOut("__PROCESSOR TRACE__ \r\n");

	lea	rcx, OFFSET FLAT:$SG3852
	call	SeTextOut

; 109  : 	SeTextOut("RIP -> %x\n", frame->rip);

	mov	rax, QWORD PTR frame$[rsp]
	mov	rdx, QWORD PTR [rax+16]
	lea	rcx, OFFSET FLAT:$SG3853
	call	SeTextOut

; 110  : 	SeTextOut("Stack -> %x\n", frame->rsp);

	mov	rax, QWORD PTR frame$[rsp]
	mov	rdx, QWORD PTR [rax+40]
	lea	rcx, OFFSET FLAT:$SG3854
	call	SeTextOut

; 111  : 	SeTextOut("RFLAGS -> %x\n", frame->rflags);

	mov	rax, QWORD PTR frame$[rsp]
	mov	rdx, QWORD PTR [rax+32]
	lea	rcx, OFFSET FLAT:$SG3855
	call	SeTextOut

; 112  : 	SeTextOut("CS -> %x\n", frame->cs);

	mov	rax, QWORD PTR frame$[rsp]
	mov	rdx, QWORD PTR [rax+24]
	lea	rcx, OFFSET FLAT:$SG3856
	call	SeTextOut

; 113  : 	SeTextOut("SS -> %x\n", frame->ss);

	mov	rax, QWORD PTR frame$[rsp]
	mov	rdx, QWORD PTR [rax+48]
	lea	rcx, OFFSET FLAT:$SG3857
	call	SeTextOut
$LN2@invalid_op:

; 114  : 	for (;;);

	jmp	SHORT $LN2@invalid_op

; 115  : }

	add	rsp, 56					; 00000038H
	ret	0
?invalid_opcode_fault@@YAX_KPEAX@Z ENDP			; invalid_opcode_fault
_TEXT	ENDS
; Function compile flags: /Odtpy
; File e:\xeneva project\aurora\kernel\hal\x86_64_exception.cpp
_TEXT	SEGMENT
v$ = 48
p$ = 56
?bounds_check_fault@@YAX_KPEAX@Z PROC			; bounds_check_fault

; 96   : void bounds_check_fault(size_t v, void* p){

$LN5:
	mov	QWORD PTR [rsp+16], rdx
	mov	QWORD PTR [rsp+8], rcx
	sub	rsp, 40					; 00000028H

; 97   : 	x64_cli();

	call	x64_cli

; 98   : 	panic("\nBound Check Fault");

	lea	rcx, OFFSET FLAT:$SG3840
	call	?panic@@YAXPEBDZZ			; panic
$LN2@bounds_che:

; 99   : 	for (;;);

	jmp	SHORT $LN2@bounds_che

; 100  : }

	add	rsp, 40					; 00000028H
	ret	0
?bounds_check_fault@@YAX_KPEAX@Z ENDP			; bounds_check_fault
_TEXT	ENDS
; Function compile flags: /Odtpy
; File e:\xeneva project\aurora\kernel\hal\x86_64_exception.cpp
_TEXT	SEGMENT
v$ = 48
p$ = 56
?overflow_trap@@YAX_KPEAX@Z PROC			; overflow_trap

; 89   : void overflow_trap(size_t v, void* p){

$LN5:
	mov	QWORD PTR [rsp+16], rdx
	mov	QWORD PTR [rsp+8], rcx
	sub	rsp, 40					; 00000028H

; 90   : 	x64_cli();

	call	x64_cli

; 91   : 	panic("\nOverflow Trap");

	lea	rcx, OFFSET FLAT:$SG3832
	call	?panic@@YAXPEBDZZ			; panic
$LN2@overflow_t:

; 92   : 	for (;;);

	jmp	SHORT $LN2@overflow_t

; 93   : }

	add	rsp, 40					; 00000028H
	ret	0
?overflow_trap@@YAX_KPEAX@Z ENDP			; overflow_trap
_TEXT	ENDS
; Function compile flags: /Odtpy
; File e:\xeneva project\aurora\kernel\hal\x86_64_exception.cpp
_TEXT	SEGMENT
vector$ = 48
param$ = 56
?breakpoint_trap@@YAX_KPEAX@Z PROC			; breakpoint_trap

; 82   : void breakpoint_trap(size_t vector, void* param){

$LN5:
	mov	QWORD PTR [rsp+16], rdx
	mov	QWORD PTR [rsp+8], rcx
	sub	rsp, 40					; 00000028H

; 83   : 	x64_cli();

	call	x64_cli

; 84   : 	panic("\nBreakpoint Trap");

	lea	rcx, OFFSET FLAT:$SG3824
	call	?panic@@YAXPEBDZZ			; panic
$LN2@breakpoint:

; 85   : 	for (;;);

	jmp	SHORT $LN2@breakpoint

; 86   : }

	add	rsp, 40					; 00000028H
	ret	0
?breakpoint_trap@@YAX_KPEAX@Z ENDP			; breakpoint_trap
_TEXT	ENDS
; Function compile flags: /Odtpy
; File e:\xeneva project\aurora\kernel\hal\x86_64_exception.cpp
_TEXT	SEGMENT
vector$ = 48
param$ = 56
?nmi_trap@@YAX_KPEAX@Z PROC				; nmi_trap

; 74   : void nmi_trap(size_t vector, void* param){

$LN5:
	mov	QWORD PTR [rsp+16], rdx
	mov	QWORD PTR [rsp+8], rcx
	sub	rsp, 40					; 00000028H

; 75   : 	x64_cli();

	call	x64_cli

; 76   : 	panic("\nNMI [Non-Muskable-Interrupt] Trap");

	lea	rcx, OFFSET FLAT:$SG3816
	call	?panic@@YAXPEBDZZ			; panic
$LN2@nmi_trap:

; 77   : 	for (;;);

	jmp	SHORT $LN2@nmi_trap

; 78   : 
; 79   : }

	add	rsp, 40					; 00000028H
	ret	0
?nmi_trap@@YAX_KPEAX@Z ENDP				; nmi_trap
_TEXT	ENDS
; Function compile flags: /Odtpy
; File e:\xeneva project\aurora\kernel\hal\x86_64_exception.cpp
_TEXT	SEGMENT
frame$ = 32
vector$ = 64
param$ = 72
?single_step_trap@@YAX_KPEAX@Z PROC			; single_step_trap

; 67   : void single_step_trap(size_t vector, void* param) {

$LN5:
	mov	QWORD PTR [rsp+16], rdx
	mov	QWORD PTR [rsp+8], rcx
	sub	rsp, 56					; 00000038H

; 68   : 	x64_cli();

	call	x64_cli

; 69   : 	interrupt_stack_frame *frame = (interrupt_stack_frame*)param;

	mov	rax, QWORD PTR param$[rsp]
	mov	QWORD PTR frame$[rsp], rax

; 70   : 	panic("\nSingle Step Trap");

	lea	rcx, OFFSET FLAT:$SG3808
	call	?panic@@YAXPEBDZZ			; panic
$LN2@single_ste:

; 71   : 	for (;;);

	jmp	SHORT $LN2@single_ste

; 72   : }

	add	rsp, 56					; 00000038H
	ret	0
?single_step_trap@@YAX_KPEAX@Z ENDP			; single_step_trap
_TEXT	ENDS
; Function compile flags: /Odtpy
; File e:\xeneva project\aurora\kernel\hal\x86_64_exception.cpp
_TEXT	SEGMENT
frame$ = 32
vector$ = 64
param$ = 72
?divide_by_zero_fault@@YAX_KPEAX@Z PROC			; divide_by_zero_fault

; 54   : void divide_by_zero_fault(size_t vector, void* param) {

$LN5:
	mov	QWORD PTR [rsp+16], rdx
	mov	QWORD PTR [rsp+8], rcx
	sub	rsp, 56					; 00000038H

; 55   : 	x64_cli();

	call	x64_cli

; 56   : 	interrupt_stack_frame *frame = (interrupt_stack_frame*)param;

	mov	rax, QWORD PTR param$[rsp]
	mov	QWORD PTR frame$[rsp], rax

; 57   : 	panic("\nDivide by 0");

	lea	rcx, OFFSET FLAT:$SG3793
	call	?panic@@YAXPEBDZZ			; panic

; 58   : 	SeTextOut("Divide by 0 \r\n");

	lea	rcx, OFFSET FLAT:$SG3794
	call	SeTextOut

; 59   : 	SeTextOut("__PROCESSOR_DATA__ \r\n");

	lea	rcx, OFFSET FLAT:$SG3795
	call	SeTextOut

; 60   : 	SeTextOut("RIP -> %x \r\n", frame->rip);

	mov	rax, QWORD PTR frame$[rsp]
	mov	rdx, QWORD PTR [rax+16]
	lea	rcx, OFFSET FLAT:$SG3796
	call	SeTextOut

; 61   : 	SeTextOut("RSP -> %x \r\n", frame->rsp);

	mov	rax, QWORD PTR frame$[rsp]
	mov	rdx, QWORD PTR [rax+40]
	lea	rcx, OFFSET FLAT:$SG3797
	call	SeTextOut

; 62   : 	SeTextOut("RFLAGS -> %x \r\n", frame->rflags);

	mov	rax, QWORD PTR frame$[rsp]
	mov	rdx, QWORD PTR [rax+32]
	lea	rcx, OFFSET FLAT:$SG3798
	call	SeTextOut
$LN2@divide_by_:

; 63   : 
; 64   : 	for (;;);

	jmp	SHORT $LN2@divide_by_

; 65   : }

	add	rsp, 56					; 00000038H
	ret	0
?divide_by_zero_fault@@YAX_KPEAX@Z ENDP			; divide_by_zero_fault
_TEXT	ENDS
; Function compile flags: /Odtpy
; File e:\xeneva project\aurora\kernel\hal\x86_64_exception.cpp
_TEXT	SEGMENT
msg$ = 48
?panic@@YAXPEBDZZ PROC					; panic

; 45   : void panic(const char* msg, ...) {

$LN3:
	mov	QWORD PTR [rsp+8], rcx
	mov	QWORD PTR [rsp+16], rdx
	mov	QWORD PTR [rsp+24], r8
	mov	QWORD PTR [rsp+32], r9
	sub	rsp, 40					; 00000028H

; 46   : 	SeTextOut("\r\n ***ARCH x86_64 : Kernel Panic!!! *** \r\n");

	lea	rcx, OFFSET FLAT:$SG3781
	call	SeTextOut

; 47   : 	SeTextOut("[Aurora Kernel]: We are sorry to say that, a processor invalid exception has occured \r\n");

	lea	rcx, OFFSET FLAT:$SG3782
	call	SeTextOut

; 48   : 	SeTextOut("[Aurora Kernel]: please inform it to the master of the kernel \r\n");

	lea	rcx, OFFSET FLAT:$SG3783
	call	SeTextOut

; 49   : 	SeTextOut("[Aurora Kernel]: Below is the code of exception \r\n");

	lea	rcx, OFFSET FLAT:$SG3784
	call	SeTextOut

; 50   : 	SeTextOut("[Aurora Kernel]: Current Processor id -> %d \r\n", AuPerCPUGetCpuID());

	call	?AuPerCPUGetCpuID@@YAEXZ		; AuPerCPUGetCpuID
	movzx	eax, al
	mov	edx, eax
	lea	rcx, OFFSET FLAT:$SG3785
	call	SeTextOut

; 51   : 	SeTextOut(" %s \r\n", msg);

	mov	rdx, QWORD PTR msg$[rsp]
	lea	rcx, OFFSET FLAT:$SG3786
	call	SeTextOut

; 52   : }

	add	rsp, 40					; 00000028H
	ret	0
?panic@@YAXPEBDZZ ENDP					; panic
_TEXT	ENDS
; Function compile flags: /Odtpy
; File e:\xeneva project\aurora\kernel\hal\x86_64_exception.cpp
_TEXT	SEGMENT
?x86_64_exception_init@@YAXXZ PROC			; x86_64_exception_init

; 262  : void x86_64_exception_init() {

$LN3:
	sub	rsp, 40					; 00000028H

; 263  : 	setvect(0, divide_by_zero_fault);

	lea	rdx, OFFSET FLAT:?divide_by_zero_fault@@YAX_KPEAX@Z ; divide_by_zero_fault
	xor	ecx, ecx
	call	setvect

; 264  : 	setvect(1, single_step_trap);

	lea	rdx, OFFSET FLAT:?single_step_trap@@YAX_KPEAX@Z ; single_step_trap
	mov	ecx, 1
	call	setvect

; 265  : 	setvect(2, nmi_trap);

	lea	rdx, OFFSET FLAT:?nmi_trap@@YAX_KPEAX@Z	; nmi_trap
	mov	ecx, 2
	call	setvect

; 266  : 	setvect(3, breakpoint_trap);

	lea	rdx, OFFSET FLAT:?breakpoint_trap@@YAX_KPEAX@Z ; breakpoint_trap
	mov	ecx, 3
	call	setvect

; 267  : 	setvect(4, overflow_trap);

	lea	rdx, OFFSET FLAT:?overflow_trap@@YAX_KPEAX@Z ; overflow_trap
	mov	ecx, 4
	call	setvect

; 268  : 	setvect(5, bounds_check_fault);

	lea	rdx, OFFSET FLAT:?bounds_check_fault@@YAX_KPEAX@Z ; bounds_check_fault
	mov	ecx, 5
	call	setvect

; 269  : 	setvect(6, invalid_opcode_fault);

	lea	rdx, OFFSET FLAT:?invalid_opcode_fault@@YAX_KPEAX@Z ; invalid_opcode_fault
	mov	ecx, 6
	call	setvect

; 270  : 	setvect(7, no_device_fault);

	lea	rdx, OFFSET FLAT:?no_device_fault@@YAX_KPEAX@Z ; no_device_fault
	mov	ecx, 7
	call	setvect

; 271  : 	setvect(8, double_fault_abort);

	lea	rdx, OFFSET FLAT:?double_fault_abort@@YAX_KPEAX@Z ; double_fault_abort
	mov	ecx, 8
	call	setvect

; 272  : 	setvect(10, invalid_tss_fault);

	lea	rdx, OFFSET FLAT:?invalid_tss_fault@@YAX_KPEAX@Z ; invalid_tss_fault
	mov	ecx, 10
	call	setvect

; 273  : 	setvect(11, no_segment_fault);

	lea	rdx, OFFSET FLAT:?no_segment_fault@@YAX_KPEAX@Z ; no_segment_fault
	mov	ecx, 11
	call	setvect

; 274  : 	setvect(12, stack_fault);

	lea	rdx, OFFSET FLAT:?stack_fault@@YAX_KPEAX@Z ; stack_fault
	mov	ecx, 12
	call	setvect

; 275  : 	setvect(13, general_protection_fault);

	lea	rdx, OFFSET FLAT:?general_protection_fault@@YAX_KPEAX@Z ; general_protection_fault
	mov	ecx, 13
	call	setvect

; 276  : 	setvect(14, page_fault);

	lea	rdx, OFFSET FLAT:?page_fault@@YAX_KPEAX@Z ; page_fault
	mov	ecx, 14
	call	setvect

; 277  : 	setvect(16, fpu_fault);

	lea	rdx, OFFSET FLAT:?fpu_fault@@YAX_KPEAX@Z ; fpu_fault
	mov	ecx, 16
	call	setvect

; 278  : 	setvect(17, alignment_check_fault);

	lea	rdx, OFFSET FLAT:?alignment_check_fault@@YAX_KPEAX@Z ; alignment_check_fault
	mov	ecx, 17
	call	setvect

; 279  : 	setvect(18, machine_check_abort);

	lea	rdx, OFFSET FLAT:?machine_check_abort@@YAX_KPEAX@Z ; machine_check_abort
	mov	ecx, 18
	call	setvect

; 280  : 	setvect(19, simd_fpu_fault);

	lea	rdx, OFFSET FLAT:?simd_fpu_fault@@YAX_KPEAX@Z ; simd_fpu_fault
	mov	ecx, 19
	call	setvect

; 281  : }

	add	rsp, 40					; 00000028H
	ret	0
?x86_64_exception_init@@YAXXZ ENDP			; x86_64_exception_init
_TEXT	ENDS
END
