; Listing generated by Microsoft (R) Optimizing Compiler Version 18.00.21005.1 

include listing.inc

INCLUDELIB LIBCMT
INCLUDELIB OLDNAMES

_BSS	SEGMENT
pic_counter DQ	01H DUP (?)
_BSS	ENDS
PUBLIC	?AuInitialisePIC@@YAXXZ				; AuInitialisePIC
PUBLIC	?AuPICSetMask@@YAXE@Z				; AuPICSetMask
PUBLIC	?AuPICClearMask@@YAXE@Z				; AuPICClearMask
PUBLIC	?AuPITSleepMS@@YAXI@Z				; AuPITSleepMS
PUBLIC	?AuPICInterruptEOI@@YAXI@Z			; AuPICInterruptEOI
PUBLIC	?AuPITOneShotMode@@YAXXZ			; AuPITOneShotMode
PUBLIC	?AuPitOneShotWait@@YAXXZ			; AuPitOneShotWait
PUBLIC	?AuPITHandler@@YAX_KPEAX@Z			; AuPITHandler
EXTRN	setvect:PROC
EXTRN	x64_inportb:PROC
EXTRN	x64_outportb:PROC
;	COMDAT ?ticks@?1??AuPITSleepMS@@YAXI@Z@4HA
_BSS	SEGMENT
?ticks@?1??AuPITSleepMS@@YAXI@Z@4HA DD 01H DUP (?)	; `AuPITSleepMS'::`2'::ticks
_BSS	ENDS
;	COMDAT ?$S1@?1??AuPITSleepMS@@YAXI@Z@4IA
_BSS	SEGMENT
?$S1@?1??AuPITSleepMS@@YAXI@Z@4IA DD 01H DUP (?)	; S1<`template-parameter-2',PITSleepMS,unsigned int, ?? &>
_BSS	ENDS
pdata	SEGMENT
$pdata$?AuInitialisePIC@@YAXXZ DD imagerel $LN27
	DD	imagerel $LN27+510
	DD	imagerel $unwind$?AuInitialisePIC@@YAXXZ
$pdata$?AuPICSetMask@@YAXE@Z DD imagerel $LN5
	DD	imagerel $LN5+105
	DD	imagerel $unwind$?AuPICSetMask@@YAXE@Z
$pdata$?AuPICClearMask@@YAXE@Z DD imagerel $LN5
	DD	imagerel $LN5+107
	DD	imagerel $unwind$?AuPICClearMask@@YAXE@Z
$pdata$?AuPICInterruptEOI@@YAXI@Z DD imagerel $LN5
	DD	imagerel $LN5+51
	DD	imagerel $unwind$?AuPICInterruptEOI@@YAXI@Z
$pdata$?AuPITOneShotMode@@YAXXZ DD imagerel $LN3
	DD	imagerel $LN3+138
	DD	imagerel $unwind$?AuPITOneShotMode@@YAXXZ
$pdata$?AuPitOneShotWait@@YAXXZ DD imagerel $LN5
	DD	imagerel $LN5+30
	DD	imagerel $unwind$?AuPitOneShotWait@@YAXXZ
$pdata$?AuPITHandler@@YAX_KPEAX@Z DD imagerel $LN3
	DD	imagerel $LN3+43
	DD	imagerel $unwind$?AuPITHandler@@YAX_KPEAX@Z
pdata	ENDS
xdata	SEGMENT
$unwind$?AuInitialisePIC@@YAXXZ DD 010401H
	DD	0a204H
$unwind$?AuPICSetMask@@YAXE@Z DD 010801H
	DD	06208H
$unwind$?AuPICClearMask@@YAXE@Z DD 010801H
	DD	06208H
$unwind$?AuPICInterruptEOI@@YAXI@Z DD 010801H
	DD	04208H
$unwind$?AuPITOneShotMode@@YAXXZ DD 010401H
	DD	06204H
$unwind$?AuPitOneShotWait@@YAXXZ DD 010401H
	DD	04204H
$unwind$?AuPITHandler@@YAX_KPEAX@Z DD 010e01H
	DD	0420eH
xdata	ENDS
; Function compile flags: /Odtpy
; File e:\xeneva project\aurora\kernel\hal\x86_64_pic.cpp
_TEXT	SEGMENT
v$ = 48
param$ = 56
?AuPITHandler@@YAX_KPEAX@Z PROC				; AuPITHandler

; 57   : void AuPITHandler(size_t v, void* param) {

$LN3:
	mov	QWORD PTR [rsp+16], rdx
	mov	QWORD PTR [rsp+8], rcx
	sub	rsp, 40					; 00000028H

; 58   : 	pic_counter++;

	mov	rax, QWORD PTR pic_counter
	inc	rax
	mov	QWORD PTR pic_counter, rax

; 59   : 	AuPICInterruptEOI(0);

	xor	ecx, ecx
	call	?AuPICInterruptEOI@@YAXI@Z		; AuPICInterruptEOI

; 60   : }

	add	rsp, 40					; 00000028H
	ret	0
?AuPITHandler@@YAX_KPEAX@Z ENDP				; AuPITHandler
_TEXT	ENDS
; Function compile flags: /Odtpy
; File e:\xeneva project\aurora\kernel\hal\x86_64_pic.cpp
_TEXT	SEGMENT
?AuPitOneShotWait@@YAXXZ PROC				; AuPitOneShotWait

; 153  : void AuPitOneShotWait() {

$LN5:
	sub	rsp, 40					; 00000028H
$LN2@AuPitOneSh:

; 154  : 	while (!(x64_inportb(COUNTER_2_CONTROLPORT) & (1 << 5)));

	mov	cx, 97					; 00000061H
	call	x64_inportb
	movzx	eax, al
	and	eax, 32					; 00000020H
	test	eax, eax
	jne	SHORT $LN1@AuPitOneSh
	jmp	SHORT $LN2@AuPitOneSh
$LN1@AuPitOneSh:

; 155  : 
; 156  : }

	add	rsp, 40					; 00000028H
	ret	0
?AuPitOneShotWait@@YAXXZ ENDP				; AuPitOneShotWait
_TEXT	ENDS
; Function compile flags: /Odtpy
; File e:\xeneva project\aurora\kernel\hal\x86_64_pic.cpp
_TEXT	SEGMENT
val$ = 32
?AuPITOneShotMode@@YAXXZ PROC				; AuPITOneShotMode

; 142  : void AuPITOneShotMode() {

$LN3:
	sub	rsp, 56					; 00000038H

; 143  : 	x64_outportb(COUNTER_2_CONTROLPORT, (x64_inportb(COUNTER_2_CONTROLPORT) & 0xFD) | 1);

	mov	cx, 97					; 00000061H
	call	x64_inportb
	movzx	eax, al
	and	eax, 253				; 000000fdH
	or	eax, 1
	movzx	edx, al
	mov	cx, 97					; 00000061H
	call	x64_outportb

; 144  : 	x64_outportb(COMMAND_REGISTER, 0x80 | 0x30 | 0x00 | SIXTEEN_BIT_BINARY);

	mov	dl, 176					; 000000b0H
	mov	cx, 67					; 00000043H
	call	x64_outportb

; 145  : 	uint32_t val = 1193182 / 20;

	mov	DWORD PTR val$[rsp], 59659		; 0000e90bH

; 146  : 	x64_outportb(COUNTER_2_DATAPORT, val & 0xff); //vall >> 8 & 0xff

	mov	eax, DWORD PTR val$[rsp]
	and	eax, 255				; 000000ffH
	movzx	edx, al
	mov	cx, 66					; 00000042H
	call	x64_outportb

; 147  : 	x64_outportb(COUNTER_2_DATAPORT, (val >> 8) & 0xff);

	mov	eax, DWORD PTR val$[rsp]
	shr	eax, 8
	and	eax, 255				; 000000ffH
	movzx	edx, al
	mov	cx, 66					; 00000042H
	call	x64_outportb

; 148  : 	x64_outportb(COUNTER_2_CONTROLPORT, val);

	movzx	edx, BYTE PTR val$[rsp]
	mov	cx, 97					; 00000061H
	call	x64_outportb

; 149  : 	x64_outportb(COUNTER_2_CONTROLPORT, val | 1);

	mov	eax, DWORD PTR val$[rsp]
	or	eax, 1
	movzx	edx, al
	mov	cx, 97					; 00000061H
	call	x64_outportb

; 150  : 
; 151  : }

	add	rsp, 56					; 00000038H
	ret	0
?AuPITOneShotMode@@YAXXZ ENDP				; AuPITOneShotMode
_TEXT	ENDS
; Function compile flags: /Odtpy
; File e:\xeneva project\aurora\kernel\hal\x86_64_pic.cpp
_TEXT	SEGMENT
intno$ = 48
?AuPICInterruptEOI@@YAXI@Z PROC				; AuPICInterruptEOI

; 45   : void AuPICInterruptEOI(unsigned int intno) {

$LN5:
	mov	DWORD PTR [rsp+8], ecx
	sub	rsp, 40					; 00000028H

; 46   : 	if (intno > 16)

	cmp	DWORD PTR intno$[rsp], 16
	jbe	SHORT $LN2@AuPICInter

; 47   : 		return;

	jmp	SHORT $LN3@AuPICInter
$LN2@AuPICInter:

; 48   : 
; 49   : 	if (intno >= 8)

	cmp	DWORD PTR intno$[rsp], 8
	jb	SHORT $LN1@AuPICInter

; 50   : 		x64_outportb(PIC2_COMMAND, PIC_EOI);

	mov	dl, 32					; 00000020H
	mov	cx, 160					; 000000a0H
	call	x64_outportb
$LN1@AuPICInter:

; 51   : 
; 52   : 	x64_outportb(PIC1_COMMAND, PIC_EOI);

	mov	dl, 32					; 00000020H
	mov	cx, 32					; 00000020H
	call	x64_outportb
$LN3@AuPICInter:

; 53   : }

	add	rsp, 40					; 00000028H
	ret	0
?AuPICInterruptEOI@@YAXI@Z ENDP				; AuPICInterruptEOI
_TEXT	ENDS
; Function compile flags: /Odtpy
; File e:\xeneva project\aurora\kernel\hal\x86_64_pic.cpp
_TEXT	SEGMENT
ms$ = 8
?AuPITSleepMS@@YAXI@Z PROC				; AuPITSleepMS

; 92   : void AuPITSleepMS(uint32_t ms) {

	mov	DWORD PTR [rsp+8], ecx

; 93   : 	static int ticks = ms + pic_counter;

	mov	eax, DWORD PTR ?$S1@?1??AuPITSleepMS@@YAXI@Z@4IA
	and	eax, 1
	test	eax, eax
	jne	SHORT $LN3@AuPITSleep
	mov	eax, DWORD PTR ?$S1@?1??AuPITSleepMS@@YAXI@Z@4IA
	or	eax, 1
	mov	DWORD PTR ?$S1@?1??AuPITSleepMS@@YAXI@Z@4IA, eax
	mov	eax, DWORD PTR ms$[rsp]
	add	rax, QWORD PTR pic_counter
	mov	DWORD PTR ?ticks@?1??AuPITSleepMS@@YAXI@Z@4HA, eax
$LN3@AuPITSleep:
$LN2@AuPITSleep:

; 94   : 	while (ticks > pic_counter)

	movsxd	rax, DWORD PTR ?ticks@?1??AuPITSleepMS@@YAXI@Z@4HA
	cmp	rax, QWORD PTR pic_counter
	jbe	SHORT $LN1@AuPITSleep

; 95   : 		;

	jmp	SHORT $LN2@AuPITSleep
$LN1@AuPITSleep:

; 96   : }

	ret	0
?AuPITSleepMS@@YAXI@Z ENDP				; AuPITSleepMS
_TEXT	ENDS
; Function compile flags: /Odtpy
; File e:\xeneva project\aurora\kernel\hal\x86_64_pic.cpp
_TEXT	SEGMENT
value$ = 32
port$ = 36
irq$ = 64
?AuPICClearMask@@YAXE@Z PROC				; AuPICClearMask

; 77   : void AuPICClearMask(uint8_t irq) {

$LN5:
	mov	BYTE PTR [rsp+8], cl
	sub	rsp, 56					; 00000038H

; 78   : 	uint16_t port;
; 79   : 	uint8_t value;
; 80   : 
; 81   : 	if (irq < 8)

	movzx	eax, BYTE PTR irq$[rsp]
	cmp	eax, 8
	jge	SHORT $LN2@AuPICClear

; 82   : 		port = PIC1_DATA;

	mov	eax, 33					; 00000021H
	mov	WORD PTR port$[rsp], ax

; 83   : 	else {

	jmp	SHORT $LN1@AuPICClear
$LN2@AuPICClear:

; 84   : 		port = PIC2_DATA;

	mov	eax, 161				; 000000a1H
	mov	WORD PTR port$[rsp], ax

; 85   : 		irq -= 8;

	movzx	eax, BYTE PTR irq$[rsp]
	sub	eax, 8
	mov	BYTE PTR irq$[rsp], al
$LN1@AuPICClear:

; 86   : 	}
; 87   : 
; 88   : 	value = x64_inportb(port) & ~(1 << irq);

	movzx	ecx, WORD PTR port$[rsp]
	call	x64_inportb
	movzx	eax, al
	movzx	ecx, BYTE PTR irq$[rsp]
	mov	edx, 1
	shl	edx, cl
	mov	ecx, edx
	not	ecx
	and	eax, ecx
	mov	BYTE PTR value$[rsp], al

; 89   : 	x64_outportb(port, value);

	movzx	edx, BYTE PTR value$[rsp]
	movzx	ecx, WORD PTR port$[rsp]
	call	x64_outportb

; 90   : }

	add	rsp, 56					; 00000038H
	ret	0
?AuPICClearMask@@YAXE@Z ENDP				; AuPICClearMask
_TEXT	ENDS
; Function compile flags: /Odtpy
; File e:\xeneva project\aurora\kernel\hal\x86_64_pic.cpp
_TEXT	SEGMENT
value$ = 32
port$ = 36
irq$ = 64
?AuPICSetMask@@YAXE@Z PROC				; AuPICSetMask

; 62   : void AuPICSetMask(uint8_t irq) {

$LN5:
	mov	BYTE PTR [rsp+8], cl
	sub	rsp, 56					; 00000038H

; 63   : 	uint16_t port;
; 64   : 	uint8_t value;
; 65   : 
; 66   : 	if (irq < 8)

	movzx	eax, BYTE PTR irq$[rsp]
	cmp	eax, 8
	jge	SHORT $LN2@AuPICSetMa

; 67   : 		port = PIC1_DATA;

	mov	eax, 33					; 00000021H
	mov	WORD PTR port$[rsp], ax

; 68   : 	else{

	jmp	SHORT $LN1@AuPICSetMa
$LN2@AuPICSetMa:

; 69   : 		port = PIC2_DATA;

	mov	eax, 161				; 000000a1H
	mov	WORD PTR port$[rsp], ax

; 70   : 		irq -= 8;

	movzx	eax, BYTE PTR irq$[rsp]
	sub	eax, 8
	mov	BYTE PTR irq$[rsp], al
$LN1@AuPICSetMa:

; 71   : 	}
; 72   : 
; 73   : 	value = x64_inportb(port) | (1 << irq);

	movzx	ecx, WORD PTR port$[rsp]
	call	x64_inportb
	movzx	eax, al
	movzx	ecx, BYTE PTR irq$[rsp]
	mov	edx, 1
	shl	edx, cl
	mov	ecx, edx
	or	eax, ecx
	mov	BYTE PTR value$[rsp], al

; 74   : 	x64_outportb(port, value);

	movzx	edx, BYTE PTR value$[rsp]
	movzx	ecx, WORD PTR port$[rsp]
	call	x64_outportb

; 75   : }

	add	rsp, 56					; 00000038H
	ret	0
?AuPICSetMask@@YAXE@Z ENDP				; AuPICSetMask
_TEXT	ENDS
; Function compile flags: /Odtpy
; File e:\xeneva project\aurora\kernel\hal\x86_64_pic.cpp
_TEXT	SEGMENT
base1$ = 32
a1$ = 33
base0$ = 34
a2$ = 35
i$1 = 36
i$2 = 40
i$3 = 44
i$4 = 48
i$5 = 52
i$6 = 56
i$7 = 60
i$8 = 64
divisor$ = 68
?AuInitialisePIC@@YAXXZ PROC				; AuInitialisePIC

; 98   : void AuInitialisePIC() {

$LN27:
	sub	rsp, 88					; 00000058H

; 99   : 	uint8_t base0 = 0x20;

	mov	BYTE PTR base0$[rsp], 32		; 00000020H

; 100  : 	uint8_t base1 = 0x28;

	mov	BYTE PTR base1$[rsp], 40		; 00000028H

; 101  : 
; 102  : 	unsigned char a1, a2;
; 103  : 	a1 = x64_inportb(PIC1_DATA);

	mov	cx, 33					; 00000021H
	call	x64_inportb
	mov	BYTE PTR a1$[rsp], al

; 104  : 	a2 = x64_inportb(PIC2_DATA);

	mov	cx, 161					; 000000a1H
	call	x64_inportb
	mov	BYTE PTR a2$[rsp], al

; 105  : 
; 106  : 	x64_outportb(PIC1_COMMAND, ICW1_INIT | ICW1_ICW4);

	mov	dl, 17
	mov	cx, 32					; 00000020H
	call	x64_outportb

; 107  : 	for (int i = 0; i < 1000; i++)

	mov	DWORD PTR i$4[rsp], 0
	jmp	SHORT $LN24@AuInitiali
$LN23@AuInitiali:
	mov	eax, DWORD PTR i$4[rsp]
	inc	eax
	mov	DWORD PTR i$4[rsp], eax
$LN24@AuInitiali:
	cmp	DWORD PTR i$4[rsp], 1000		; 000003e8H
	jge	SHORT $LN22@AuInitiali

; 108  : 		;

	jmp	SHORT $LN23@AuInitiali
$LN22@AuInitiali:

; 109  : 	x64_outportb(PIC2_COMMAND, ICW1_INIT | ICW1_ICW4);

	mov	dl, 17
	mov	cx, 160					; 000000a0H
	call	x64_outportb

; 110  : 	for (int i = 0; i < 1000; i++)

	mov	DWORD PTR i$6[rsp], 0
	jmp	SHORT $LN21@AuInitiali
$LN20@AuInitiali:
	mov	eax, DWORD PTR i$6[rsp]
	inc	eax
	mov	DWORD PTR i$6[rsp], eax
$LN21@AuInitiali:
	cmp	DWORD PTR i$6[rsp], 1000		; 000003e8H
	jge	SHORT $LN19@AuInitiali

; 111  : 		;

	jmp	SHORT $LN20@AuInitiali
$LN19@AuInitiali:

; 112  : 	x64_outportb(PIC1_DATA, base0);

	movzx	edx, BYTE PTR base0$[rsp]
	mov	cx, 33					; 00000021H
	call	x64_outportb

; 113  : 	for (int i = 0; i < 1000; i++)

	mov	DWORD PTR i$1[rsp], 0
	jmp	SHORT $LN18@AuInitiali
$LN17@AuInitiali:
	mov	eax, DWORD PTR i$1[rsp]
	inc	eax
	mov	DWORD PTR i$1[rsp], eax
$LN18@AuInitiali:
	cmp	DWORD PTR i$1[rsp], 1000		; 000003e8H
	jge	SHORT $LN16@AuInitiali

; 114  : 		;

	jmp	SHORT $LN17@AuInitiali
$LN16@AuInitiali:

; 115  : 	x64_outportb(PIC2_DATA, base1);

	movzx	edx, BYTE PTR base1$[rsp]
	mov	cx, 161					; 000000a1H
	call	x64_outportb

; 116  : 	for (int i = 0; i < 1000; i++)

	mov	DWORD PTR i$8[rsp], 0
	jmp	SHORT $LN15@AuInitiali
$LN14@AuInitiali:
	mov	eax, DWORD PTR i$8[rsp]
	inc	eax
	mov	DWORD PTR i$8[rsp], eax
$LN15@AuInitiali:
	cmp	DWORD PTR i$8[rsp], 1000		; 000003e8H
	jge	SHORT $LN13@AuInitiali

; 117  : 		;

	jmp	SHORT $LN14@AuInitiali
$LN13@AuInitiali:

; 118  : 	x64_outportb(PIC1_DATA, 4);

	mov	dl, 4
	mov	cx, 33					; 00000021H
	call	x64_outportb

; 119  : 	for (int i = 0; i < 1000; i++)

	mov	DWORD PTR i$2[rsp], 0
	jmp	SHORT $LN12@AuInitiali
$LN11@AuInitiali:
	mov	eax, DWORD PTR i$2[rsp]
	inc	eax
	mov	DWORD PTR i$2[rsp], eax
$LN12@AuInitiali:
	cmp	DWORD PTR i$2[rsp], 1000		; 000003e8H
	jge	SHORT $LN10@AuInitiali

; 120  : 		;

	jmp	SHORT $LN11@AuInitiali
$LN10@AuInitiali:

; 121  : 	x64_outportb(PIC2_DATA, 2);

	mov	dl, 2
	mov	cx, 161					; 000000a1H
	call	x64_outportb

; 122  : 	for (int i = 0; i < 1000; i++)

	mov	DWORD PTR i$3[rsp], 0
	jmp	SHORT $LN9@AuInitiali
$LN8@AuInitiali:
	mov	eax, DWORD PTR i$3[rsp]
	inc	eax
	mov	DWORD PTR i$3[rsp], eax
$LN9@AuInitiali:
	cmp	DWORD PTR i$3[rsp], 1000		; 000003e8H
	jge	SHORT $LN7@AuInitiali

; 123  : 		;

	jmp	SHORT $LN8@AuInitiali
$LN7@AuInitiali:

; 124  : 	x64_outportb(PIC1_DATA, ICW4_8086);

	mov	dl, 1
	mov	cx, 33					; 00000021H
	call	x64_outportb

; 125  : 	for (int i = 0; i < 1000; i++)

	mov	DWORD PTR i$5[rsp], 0
	jmp	SHORT $LN6@AuInitiali
$LN5@AuInitiali:
	mov	eax, DWORD PTR i$5[rsp]
	inc	eax
	mov	DWORD PTR i$5[rsp], eax
$LN6@AuInitiali:
	cmp	DWORD PTR i$5[rsp], 1000		; 000003e8H
	jge	SHORT $LN4@AuInitiali

; 126  : 		;

	jmp	SHORT $LN5@AuInitiali
$LN4@AuInitiali:

; 127  : 	x64_outportb(PIC2_DATA, ICW4_8086);

	mov	dl, 1
	mov	cx, 161					; 000000a1H
	call	x64_outportb

; 128  : 	for (int i = 0; i < 1000; i++)

	mov	DWORD PTR i$7[rsp], 0
	jmp	SHORT $LN3@AuInitiali
$LN2@AuInitiali:
	mov	eax, DWORD PTR i$7[rsp]
	inc	eax
	mov	DWORD PTR i$7[rsp], eax
$LN3@AuInitiali:
	cmp	DWORD PTR i$7[rsp], 1000		; 000003e8H
	jge	SHORT $LN1@AuInitiali

; 129  : 		;

	jmp	SHORT $LN2@AuInitiali
$LN1@AuInitiali:

; 130  : 	x64_outportb(PIC1_DATA, a1);

	movzx	edx, BYTE PTR a1$[rsp]
	mov	cx, 33					; 00000021H
	call	x64_outportb

; 131  : 	x64_outportb(PIC2_DATA, a2);

	movzx	edx, BYTE PTR a2$[rsp]
	mov	cx, 161					; 000000a1H
	call	x64_outportb

; 132  : 
; 133  : 	unsigned int divisor = 1193181 / 100;

	mov	DWORD PTR divisor$[rsp], 11931		; 00002e9bH

; 134  : 	x64_outportb(0x43, 0x00 | 0x06 | 0x30 | 0x00);

	mov	dl, 54					; 00000036H
	mov	cx, 67					; 00000043H
	call	x64_outportb

; 135  : 	x64_outportb(0x40, divisor);

	movzx	edx, BYTE PTR divisor$[rsp]
	mov	cx, 64					; 00000040H
	call	x64_outportb

; 136  : 	x64_outportb(0x40, divisor >> 8);

	mov	eax, DWORD PTR divisor$[rsp]
	shr	eax, 8
	movzx	edx, al
	mov	cx, 64					; 00000040H
	call	x64_outportb

; 137  : 	setvect(32 + 0, AuPITHandler);

	lea	rdx, OFFSET FLAT:?AuPITHandler@@YAX_KPEAX@Z ; AuPITHandler
	mov	ecx, 32					; 00000020H
	call	setvect

; 138  : 	pic_counter = 0;

	mov	QWORD PTR pic_counter, 0

; 139  : 	AuPICClearMask(0);

	xor	ecx, ecx
	call	?AuPICClearMask@@YAXE@Z			; AuPICClearMask

; 140  : }

	add	rsp, 88					; 00000058H
	ret	0
?AuInitialisePIC@@YAXXZ ENDP				; AuInitialisePIC
_TEXT	ENDS
END
