; Listing generated by Microsoft (R) Optimizing Compiler Version 19.29.30159.0 

include listing.inc

INCLUDELIB LIBCMT
INCLUDELIB OLDNAMES

PUBLIC	?app@@3PEAU_ChApp_@@EA				; app
PUBLIC	?mainWin@@3PEAU_chwin_@@EA			; mainWin
PUBLIC	?mainCanvas@@3PEAU_ChCanvas_@@EA		; mainCanvas
PUBLIC	?browserCanvas@@3PEAU_ChCanvas_@@EA		; browserCanvas
PUBLIC	?mainWidgetList@@3PEAU_list_@@EA		; mainWidgetList
PUBLIC	?browserWidgetList@@3PEAU_list_@@EA		; browserWidgetList
PUBLIC	?browseList@@3PEAU_list_view_@@EA		; browseList
PUBLIC	?musicIcon@@3PEAU_icon_@@EA			; musicIcon
PUBLIC	?mainMenubar@@3PEAU_menubar_@@EA		; mainMenubar
PUBLIC	?_music_library_drawn@@3DA			; _music_library_drawn
PUBLIC	?selectedFile@@3PEADEA				; selectedFile
PUBLIC	?snd@@3HA					; snd
PUBLIC	?_file@@3HA					; _file
PUBLIC	?_start_player@@3DA				; _start_player
PUBLIC	?soundbuff@@3PEAXEA				; soundbuff
PUBLIC	?filebuff@@3PEAXEA				; filebuff
PUBLIC	?_auto_start@@3DA				; _auto_start
_BSS	SEGMENT
?app@@3PEAU_ChApp_@@EA DQ 01H DUP (?)			; app
?mainWin@@3PEAU_chwin_@@EA DQ 01H DUP (?)		; mainWin
?mainCanvas@@3PEAU_ChCanvas_@@EA DQ 01H DUP (?)		; mainCanvas
?browserCanvas@@3PEAU_ChCanvas_@@EA DQ 01H DUP (?)	; browserCanvas
?mainWidgetList@@3PEAU_list_@@EA DQ 01H DUP (?)		; mainWidgetList
?browserWidgetList@@3PEAU_list_@@EA DQ 01H DUP (?)	; browserWidgetList
?browseList@@3PEAU_list_view_@@EA DQ 01H DUP (?)	; browseList
?musicIcon@@3PEAU_icon_@@EA DQ 01H DUP (?)		; musicIcon
?mainMenubar@@3PEAU_menubar_@@EA DQ 01H DUP (?)		; mainMenubar
?_music_library_drawn@@3DA DB 01H DUP (?)		; _music_library_drawn
	ALIGN	8

?selectedFile@@3PEADEA DQ 01H DUP (?)			; selectedFile
?snd@@3HA DD	01H DUP (?)				; snd
?_file@@3HA DD	01H DUP (?)				; _file
?_start_player@@3DA DB 01H DUP (?)			; _start_player
	ALIGN	8

?soundbuff@@3PEAXEA DQ 01H DUP (?)			; soundbuff
?filebuff@@3PEAXEA DQ 01H DUP (?)			; filebuff
?_auto_start@@3DA DB 01H DUP (?)			; _auto_start
_BSS	ENDS
CONST	SEGMENT
?box_ftyp@@3QBEB DB 00H					; box_ftyp
	DB	00H
	DB	00H
	DB	018H
	DB	066H
	DB	074H
	DB	079H
	DB	070H
	DB	06dH
	DB	070H
	DB	034H
	DB	032H
	DB	00H
	DB	00H
	DB	00H
	DB	00H
	DB	06dH
	DB	070H
	DB	034H
	DB	032H
	DB	069H
	DB	073H
	DB	06fH
	DB	06dH
	ORG $+8
?g_fullbox@?6??MP4D_open@@9@4QBU<unnamed-type-g_fullbox>@?6??1@YAHPEAUMP4D_demux_tag@@P6AH_JPEAX_K2@Z21@Z@B DD 06d646864H ; `MP4D_open'::`7'::g_fullbox
	DD	01H
	DD	01H
	DD	06d766864H
	DD	01H
	DD	00H
	DD	068646c72H
	DD	00H
	DD	00H
	DD	06d657461H
	DD	00H
	DD	00H
	DD	073747473H
	DD	00H
	DD	00H
	DD	063747473H
	DD	00H
	DD	00H
	DD	073747a32H
	DD	00H
	DD	01H
	DD	07374737aH
	DD	00H
	DD	01H
	DD	073747363H
	DD	00H
	DD	01H
	DD	07374636fH
	DD	00H
	DD	01H
	DD	0636f3634H
	DD	00H
	DD	01H
	DD	073747364H
	DD	00H
	DD	00H
	DD	065736473H
	DD	00H
	DD	01H
	ORG $+4
?g_envelope_box@?6??MP4D_open@@9@4QBU<unnamed-type-g_envelope_box>@?6??1@YAHPEAUMP4D_demux_tag@@P6AH_JPEAX_K2@Z21@Z@B DD 065736473H ; `MP4D_open'::`7'::g_envelope_box
	DD	01H
	DD	024242433H
	DD	01H
	DD	024242434H
	DD	01H
	DD	024242435H
	DD	01H
	DD	07472616bH
	DD	00H
	DD	06d6f6f76H
	DD	00H
	DD	06d646961H
	DD	00H
	DD	074726566H
	DD	00H
	DD	06d696e66H
	DD	00H
	DD	064696e66H
	DD	00H
	DD	07374626cH
	DD	00H
	DD	073747364H
	DD	00H
	DD	06d703461H
	DD	00H
	DD	06d703473H
	DD	00H
	DD	06d703476H
	DD	00H
	DD	061766331H
	DD	00H
	DD	068766331H
	DD	00H
	DD	075647461H
	DD	00H
	DD	06d657461H
	DD	00H
	DD	0696c7374H
	DD	00H
CONST	ENDS
PUBLIC	??0Decoder@Jpeg@@QEAA@PEBEIP6APEAXI@ZP6AXPEAX@Z@Z ; Jpeg::Decoder::Decoder
PUBLIC	?GetResult@Decoder@Jpeg@@QEBA?AW4DecodeResult@12@XZ ; Jpeg::Decoder::GetResult
PUBLIC	?GetWidth@Decoder@Jpeg@@QEBAHXZ			; Jpeg::Decoder::GetWidth
PUBLIC	?GetHeight@Decoder@Jpeg@@QEBAHXZ		; Jpeg::Decoder::GetHeight
PUBLIC	?GetImage@Decoder@Jpeg@@QEBAPEAEXZ		; Jpeg::Decoder::GetImage
PUBLIC	?_Clip@Decoder@Jpeg@@AEAAEH@Z			; Jpeg::Decoder::_Clip
PUBLIC	?_RowIDCT@Decoder@Jpeg@@AEAAXPEAH@Z		; Jpeg::Decoder::_RowIDCT
PUBLIC	?_ColIDCT@Decoder@Jpeg@@AEAAXPEBHPEAEH@Z	; Jpeg::Decoder::_ColIDCT
PUBLIC	?_ShowBits@Decoder@Jpeg@@AEAAHH@Z		; Jpeg::Decoder::_ShowBits
PUBLIC	?_SkipBits@Decoder@Jpeg@@AEAAXH@Z		; Jpeg::Decoder::_SkipBits
PUBLIC	?_GetBits@Decoder@Jpeg@@AEAAHH@Z		; Jpeg::Decoder::_GetBits
PUBLIC	?_ByteAlign@Decoder@Jpeg@@AEAAXXZ		; Jpeg::Decoder::_ByteAlign
PUBLIC	?_Skip@Decoder@Jpeg@@AEAAXH@Z			; Jpeg::Decoder::_Skip
PUBLIC	?_Decode16@Decoder@Jpeg@@AEAAGPEBE@Z		; Jpeg::Decoder::_Decode16
PUBLIC	?_DecodeLength@Decoder@Jpeg@@AEAAXXZ		; Jpeg::Decoder::_DecodeLength
PUBLIC	?_SkipMarker@Decoder@Jpeg@@AEAAXXZ		; Jpeg::Decoder::_SkipMarker
PUBLIC	?_DecodeSOF@Decoder@Jpeg@@AEAAXXZ		; Jpeg::Decoder::_DecodeSOF
PUBLIC	?_DecodeDHT@Decoder@Jpeg@@AEAAXXZ		; Jpeg::Decoder::_DecodeDHT
PUBLIC	?_DecodeDQT@Decoder@Jpeg@@AEAAXXZ		; Jpeg::Decoder::_DecodeDQT
PUBLIC	?_DecodeDRI@Decoder@Jpeg@@AEAAXXZ		; Jpeg::Decoder::_DecodeDRI
PUBLIC	?_GetVLC@Decoder@Jpeg@@AEAAHPEAUVlcCode@12@PEAE@Z ; Jpeg::Decoder::_GetVLC
PUBLIC	?_DecodeBlock@Decoder@Jpeg@@AEAAXPEAUComponent@12@PEAE@Z ; Jpeg::Decoder::_DecodeBlock
PUBLIC	?_DecodeScan@Decoder@Jpeg@@AEAAXXZ		; Jpeg::Decoder::_DecodeScan
PUBLIC	?CF@Decoder@Jpeg@@AEAAEH@Z			; Jpeg::Decoder::CF
PUBLIC	?_UpsampleH@Decoder@Jpeg@@AEAAXPEAUComponent@12@@Z ; Jpeg::Decoder::_UpsampleH
PUBLIC	?_UpsampleV@Decoder@Jpeg@@AEAAXPEAUComponent@12@@Z ; Jpeg::Decoder::_UpsampleV
PUBLIC	?_Convert@Decoder@Jpeg@@AEAAXXZ			; Jpeg::Decoder::_Convert
PUBLIC	?_Decode@Decoder@Jpeg@@AEAA?AW4DecodeResult@12@PEBEH@Z ; Jpeg::Decoder::_Decode
PUBLIC	mp4_h26x_write_init
PUBLIC	mp4_h26x_write_close
PUBLIC	mp4_h26x_write_nal
PUBLIC	MP4D_open
PUBLIC	MP4D_frame_offset
PUBLIC	MP4D_close
PUBLIC	MP4D_read_sps
PUBLIC	MP4D_read_pps
PUBLIC	MP4E_open
PUBLIC	MP4E_add_track
PUBLIC	MP4E_put_sample
PUBLIC	MP4E_close
PUBLIC	MP4E_set_dsi
PUBLIC	MP4E_set_vps
PUBLIC	MP4E_set_sps
PUBLIC	MP4E_set_pps
PUBLIC	MP4E_set_text_comment
PUBLIC	?RegisterSound@@YAXXZ				; RegisterSound
PUBLIC	?PlayerThread@@YAXXZ				; PlayerThread
PUBLIC	?WindowHandleMessage@@YAXPEAU_post_event_@@@Z	; WindowHandleMessage
PUBLIC	?AboutClicked@@YAXPEAU_ChWidget_@@PEAU_chwin_@@@Z ; AboutClicked
PUBLIC	?ExitItemClicked@@YAXPEAU_ChWidget_@@PEAU_chwin_@@@Z ; ExitItemClicked
PUBLIC	?DrawWallpaper@@YAXPEAU_ChCanvas_@@PEADHH@Z	; DrawWallpaper
PUBLIC	?UpdateHomeUI@@YAXXZ				; UpdateHomeUI
PUBLIC	?UpdateBrowserUI@@YAXXZ				; UpdateBrowserUI
PUBLIC	?BrowseMenuActionHandler@@YAXPEAU_ChWidget_@@PEAU_chwin_@@@Z ; BrowseMenuActionHandler
PUBLIC	?SelectButtonActionHandler@@YAXPEAU_ChWidget_@@PEAU_chwin_@@@Z ; SelectButtonActionHandler
PUBLIC	?MusicPrepareLibrary@@YAXPEAU_list_view_@@@Z	; MusicPrepareLibrary
PUBLIC	?PlayPauseButtonAction@@YAXPEAU_ChWidget_@@PEAU_chwin_@@@Z ; PlayPauseButtonAction
PUBLIC	?PrepareBrowserUI@@YAXXZ			; PrepareBrowserUI
PUBLIC	?AudioPlayerClose@@YAXPEAU_chwin_@@@Z		; AudioPlayerClose
PUBLIC	main
PUBLIC	??_C@_0N@PEMJHAML@SoundHandler@			; `string'
PUBLIC	??_C@_0N@BDBGBIBJ@VideoHandler@			; `string'
PUBLIC	??_C@_0L@JFMDADFF@?1dev?1sound@			; `string'
PUBLIC	??_C@_0CD@CCPBHJID@Accent?5Player?5v1?40?5for?5XenevaOS@ ; `string'
PUBLIC	??_C@_0M@MDIENNJL@Accent?5v1?40@		; `string'
PUBLIC	??_C@_0BA@IGPHAPNL@Decoder?5error?5?6@		; `string'
PUBLIC	??_C@_0BI@HGBDFOPG@Your?5Music?5library?4?4?4?4?4@ ; `string'
PUBLIC	??_C@_0BJ@PIBNCIDG@Updating?5the?5browsing?5?$AN?6@ ; `string'
PUBLIC	??_C@_06KOGCNNHG@?1music@			; `string'
PUBLIC	??_C@_07DKHLHEMJ@?1MUSIC?1@			; `string'
PUBLIC	??_C@_0BH@GHLPKOEP@Selected?5file?5?9?$DO?5?$CFs?5?$AN?6@ ; `string'
PUBLIC	??_C@_0P@JFAFLHF@_file?5?9?$DO?5?$CFd?5?$AN?6@	; `string'
PUBLIC	??_C@_0BH@KIDONKAP@selected?5File?5?9?$DO?5?$CFs?5?$AN?6@ ; `string'
PUBLIC	??_C@_0BB@KNPGACAJ@?1icons?1music?4bmp@		; `string'
PUBLIC	??_C@_06HJGPBJLE@Select@			; `string'
PUBLIC	??_C@_06NFPPHDMM@Accent@			; `string'
PUBLIC	??_C@_04PBAHLACE@File@				; `string'
PUBLIC	??_C@_04DDFEFHOJ@Help@				; `string'
PUBLIC	??_C@_0P@OJOJALEH@Select?5Song?4?4?4@		; `string'
PUBLIC	??_C@_04LBABLPF@Exit@				; `string'
PUBLIC	??_C@_05BDOHFCKE@About@				; `string'
PUBLIC	??_C@_08CAGLMDLD@Previous@			; `string'
PUBLIC	??_C@_0L@FMOPGOKP@Play?1Pause@			; `string'
PUBLIC	??_C@_04MDFHGMOB@Next@				; `string'
PUBLIC	??_C@_0N@MEOKKLLB@?1musicbk?4jpg@		; `string'
PUBLIC	??_C@_0BB@DKIANJEB@?1icons?1media?4bmp@		; `string'
EXTRN	??2@YAPEAX_K@Z:PROC				; operator new
EXTRN	_KePrint:PROC
EXTRN	_KePauseThread:PROC
EXTRN	_KeProcessSleep:PROC
EXTRN	_KeOpenFile:PROC
EXTRN	_KeReadFile:PROC
EXTRN	_KeWriteFile:PROC
EXTRN	_KeCloseFile:PROC
EXTRN	_KeFileIoControl:PROC
EXTRN	_KeFileStat:PROC
EXTRN	_KeOpenDir:PROC
EXTRN	_KeReadDir:PROC
EXTRN	ChCreateCanvas:PROC
EXTRN	ChAllocateBuffer:PROC
EXTRN	ChDeAllocateBuffer:PROC
EXTRN	ChDrawPixel:PROC
EXTRN	strcpy:PROC
EXTRN	strlen:PROC
EXTRN	strdup:PROC
EXTRN	memset:PROC
EXTRN	memcpy:PROC
EXTRN	memcmp:PROC
EXTRN	memchr:PROC
EXTRN	malloc:PROC
EXTRN	free:PROC
EXTRN	realloc:PROC
EXTRN	abort:PROC
EXTRN	setjmp:PROC
EXTRN	ChFontSetSize:PROC
EXTRN	ChFontDrawText:PROC
EXTRN	ChitralekhaStartApp:PROC
EXTRN	initialize_list:PROC
EXTRN	list_add:PROC
EXTRN	list_remove:PROC
EXTRN	list_get_at:PROC
EXTRN	list_clear_all:PROC
EXTRN	ChCreateWindow:PROC
EXTRN	ChWindowBroadcastIcon:PROC
EXTRN	ChWindowPaint:PROC
EXTRN	ChWindowUpdate:PROC
EXTRN	ChWindowHandleMouse:PROC
EXTRN	ChWindowHandleFocus:PROC
EXTRN	ChWindowAddWidget:PROC
EXTRN	ChGetWindowByHandle:PROC
EXTRN	ChGetPopupWindowByHandle:PROC
EXTRN	ChPopupWindowHandleMouse:PROC
EXTRN	ChWindowCloseWindow:PROC
EXTRN	ChCreateButton:PROC
EXTRN	ChCreatePopupMenu:PROC
EXTRN	ChCreateMenuItem:PROC
EXTRN	ChCreateMenubar:PROC
EXTRN	ChCreateMenubutton:PROC
EXTRN	ChMenubarAddButton:PROC
EXTRN	ChMenuButtonAddMenu:PROC
EXTRN	ChCreateIcon:PROC
EXTRN	ChIconOpen:PROC
EXTRN	ChIconRead:PROC
EXTRN	ChCreateMessageBox:PROC
EXTRN	ChMessageBoxShow:PROC
EXTRN	ChCreateScrollPane:PROC
EXTRN	ChCreateListView:PROC
EXTRN	ChListViewSetScrollpane:PROC
EXTRN	ChListViewAddItem:PROC
EXTRN	ChListViewSetListItemIcon:PROC
EXTRN	ChListViewGetSelectedItem:PROC
EXTRN	_KeMemMap:PROC
EXTRN	_KeMemUnmap:PROC
EXTRN	__ImageBase:BYTE
;	COMDAT pdata
pdata	SEGMENT
$pdata$??0Decoder@Jpeg@@QEAA@PEBEIP6APEAXI@ZP6AXPEAX@Z@Z DD imagerel $LN3
	DD	imagerel $LN3+427
	DD	imagerel $unwind$??0Decoder@Jpeg@@QEAA@PEBEIP6APEAXI@ZP6AXPEAX@Z@Z
pdata	ENDS
;	COMDAT pdata
pdata	SEGMENT
$pdata$?GetResult@Decoder@Jpeg@@QEBA?AW4DecodeResult@12@XZ DD imagerel $LN3
	DD	imagerel $LN3+25
	DD	imagerel $unwind$?GetResult@Decoder@Jpeg@@QEBA?AW4DecodeResult@12@XZ
pdata	ENDS
;	COMDAT pdata
pdata	SEGMENT
$pdata$?GetWidth@Decoder@Jpeg@@QEBAHXZ DD imagerel $LN3
	DD	imagerel $LN3+26
	DD	imagerel $unwind$?GetWidth@Decoder@Jpeg@@QEBAHXZ
pdata	ENDS
;	COMDAT pdata
pdata	SEGMENT
$pdata$?GetHeight@Decoder@Jpeg@@QEBAHXZ DD imagerel $LN3
	DD	imagerel $LN3+26
	DD	imagerel $unwind$?GetHeight@Decoder@Jpeg@@QEBAHXZ
pdata	ENDS
;	COMDAT pdata
pdata	SEGMENT
$pdata$?GetImage@Decoder@Jpeg@@QEBAPEAEXZ DD imagerel $LN5
	DD	imagerel $LN5+72
	DD	imagerel $unwind$?GetImage@Decoder@Jpeg@@QEBAPEAEXZ
pdata	ENDS
;	COMDAT pdata
pdata	SEGMENT
$pdata$?_Clip@Decoder@Jpeg@@AEAAEH@Z DD imagerel $LN7
	DD	imagerel $LN7+73
	DD	imagerel $unwind$?_Clip@Decoder@Jpeg@@AEAAEH@Z
pdata	ENDS
;	COMDAT pdata
pdata	SEGMENT
$pdata$?_RowIDCT@Decoder@Jpeg@@AEAAXPEAH@Z DD imagerel $LN4
	DD	imagerel $LN4+1049
	DD	imagerel $unwind$?_RowIDCT@Decoder@Jpeg@@AEAAXPEAH@Z
pdata	ENDS
;	COMDAT pdata
pdata	SEGMENT
$pdata$?_ColIDCT@Decoder@Jpeg@@AEAAXPEBHPEAEH@Z DD imagerel $LN7
	DD	imagerel $LN7+1262
	DD	imagerel $unwind$?_ColIDCT@Decoder@Jpeg@@AEAAXPEBHPEAEH@Z
pdata	ENDS
;	COMDAT pdata
pdata	SEGMENT
$pdata$?_ShowBits@Decoder@Jpeg@@AEAAHH@Z DD imagerel $LN18
	DD	imagerel $LN18+484
	DD	imagerel $unwind$?_ShowBits@Decoder@Jpeg@@AEAAHH@Z
pdata	ENDS
;	COMDAT pdata
pdata	SEGMENT
$pdata$?_SkipBits@Decoder@Jpeg@@AEAAXH@Z DD imagerel $LN4
	DD	imagerel $LN4+77
	DD	imagerel $unwind$?_SkipBits@Decoder@Jpeg@@AEAAXH@Z
pdata	ENDS
;	COMDAT pdata
pdata	SEGMENT
$pdata$?_GetBits@Decoder@Jpeg@@AEAAHH@Z DD imagerel $LN3
	DD	imagerel $LN3+55
	DD	imagerel $unwind$?_GetBits@Decoder@Jpeg@@AEAAHH@Z
pdata	ENDS
;	COMDAT pdata
pdata	SEGMENT
$pdata$?_ByteAlign@Decoder@Jpeg@@AEAAXXZ DD imagerel $LN3
	DD	imagerel $LN3+44
	DD	imagerel $unwind$?_ByteAlign@Decoder@Jpeg@@AEAAXXZ
pdata	ENDS
;	COMDAT pdata
pdata	SEGMENT
$pdata$?_Skip@Decoder@Jpeg@@AEAAXH@Z DD imagerel $LN4
	DD	imagerel $LN4+101
	DD	imagerel $unwind$?_Skip@Decoder@Jpeg@@AEAAXH@Z
pdata	ENDS
;	COMDAT pdata
pdata	SEGMENT
$pdata$?_Decode16@Decoder@Jpeg@@AEAAGPEBE@Z DD imagerel $LN3
	DD	imagerel $LN3+63
	DD	imagerel $unwind$?_Decode16@Decoder@Jpeg@@AEAAGPEBE@Z
pdata	ENDS
;	COMDAT pdata
pdata	SEGMENT
$pdata$?_DecodeLength@Decoder@Jpeg@@AEAAXXZ DD imagerel $LN11
	DD	imagerel $LN11+124
	DD	imagerel $unwind$?_DecodeLength@Decoder@Jpeg@@AEAAXXZ
pdata	ENDS
;	COMDAT pdata
pdata	SEGMENT
$pdata$?_SkipMarker@Decoder@Jpeg@@AEAAXXZ DD imagerel $LN3
	DD	imagerel $LN3+46
	DD	imagerel $unwind$?_SkipMarker@Decoder@Jpeg@@AEAAXXZ
pdata	ENDS
;	COMDAT pdata
pdata	SEGMENT
$pdata$?_DecodeSOF@Decoder@Jpeg@@AEAAXXZ DD imagerel $LN66
	DD	imagerel $LN66+1595
	DD	imagerel $unwind$?_DecodeSOF@Decoder@Jpeg@@AEAAXXZ
pdata	ENDS
;	COMDAT pdata
pdata	SEGMENT
$pdata$?_DecodeDHT@Decoder@Jpeg@@AEAAXXZ DD imagerel $LN40
	DD	imagerel $LN40+659
	DD	imagerel $unwind$?_DecodeDHT@Decoder@Jpeg@@AEAAXXZ
pdata	ENDS
;	COMDAT pdata
pdata	SEGMENT
$pdata$?_DecodeDQT@Decoder@Jpeg@@AEAAXXZ DD imagerel $LN16
	DD	imagerel $LN16+286
	DD	imagerel $unwind$?_DecodeDQT@Decoder@Jpeg@@AEAAXXZ
pdata	ENDS
;	COMDAT pdata
pdata	SEGMENT
$pdata$?_DecodeDRI@Decoder@Jpeg@@AEAAXXZ DD imagerel $LN7
	DD	imagerel $LN7+104
	DD	imagerel $unwind$?_DecodeDRI@Decoder@Jpeg@@AEAAXXZ
pdata	ENDS
;	COMDAT pdata
pdata	SEGMENT
$pdata$?_GetVLC@Decoder@Jpeg@@AEAAHPEAUVlcCode@12@PEAE@Z DD imagerel $LN7
	DD	imagerel $LN7+223
	DD	imagerel $unwind$?_GetVLC@Decoder@Jpeg@@AEAAHPEAUVlcCode@12@PEAE@Z
pdata	ENDS
;	COMDAT pdata
pdata	SEGMENT
$pdata$?_DecodeBlock@Decoder@Jpeg@@AEAAXPEAUComponent@12@PEAE@Z DD imagerel $LN21
	DD	imagerel $LN21+569
	DD	imagerel $unwind$?_DecodeBlock@Decoder@Jpeg@@AEAAXPEAUComponent@12@PEAE@Z
pdata	ENDS
;	COMDAT pdata
pdata	SEGMENT
$pdata$?_DecodeScan@Decoder@Jpeg@@AEAAXXZ DD imagerel $LN52
	DD	imagerel $LN52+1113
	DD	imagerel $unwind$?_DecodeScan@Decoder@Jpeg@@AEAAXXZ
pdata	ENDS
;	COMDAT pdata
pdata	SEGMENT
$pdata$?CF@Decoder@Jpeg@@AEAAEH@Z DD imagerel $LN3
	DD	imagerel $LN3+45
	DD	imagerel $unwind$?CF@Decoder@Jpeg@@AEAAEH@Z
pdata	ENDS
;	COMDAT pdata
pdata	SEGMENT
$pdata$?_UpsampleH@Decoder@Jpeg@@AEAAXPEAUComponent@12@@Z DD imagerel $LN13
	DD	imagerel $LN13+1095
	DD	imagerel $unwind$?_UpsampleH@Decoder@Jpeg@@AEAAXPEAUComponent@12@@Z
pdata	ENDS
;	COMDAT pdata
pdata	SEGMENT
$pdata$?_UpsampleV@Decoder@Jpeg@@AEAAXPEAUComponent@12@@Z DD imagerel $LN13
	DD	imagerel $LN13+1144
	DD	imagerel $unwind$?_UpsampleV@Decoder@Jpeg@@AEAAXPEAUComponent@12@@Z
pdata	ENDS
;	COMDAT pdata
pdata	SEGMENT
$pdata$?_Convert@Decoder@Jpeg@@AEAAXXZ DD imagerel $LN30
	DD	imagerel $LN30+1158
	DD	imagerel $unwind$?_Convert@Decoder@Jpeg@@AEAAXXZ
pdata	ENDS
;	COMDAT pdata
pdata	SEGMENT
$pdata$?_Decode@Decoder@Jpeg@@AEAA?AW4DecodeResult@12@PEBEH@Z DD imagerel $LN23
	DD	imagerel $LN23+563
	DD	imagerel $unwind$?_Decode@Decoder@Jpeg@@AEAA?AW4DecodeResult@12@PEBEH@Z
pdata	ENDS
;	COMDAT pdata
pdata	SEGMENT
$pdata$mp4_h26x_write_init DD imagerel $LN5
	DD	imagerel $LN5+329
	DD	imagerel $unwind$mp4_h26x_write_init
pdata	ENDS
;	COMDAT pdata
pdata	SEGMENT
$pdata$mp4_h26x_write_close DD imagerel $LN11
	DD	imagerel $LN11+171
	DD	imagerel $unwind$mp4_h26x_write_close
pdata	ENDS
;	COMDAT pdata
pdata	SEGMENT
$pdata$mp4_h26x_write_nal DD imagerel $LN27
	DD	imagerel $LN27+1036
	DD	imagerel $unwind$mp4_h26x_write_nal
pdata	ENDS
;	COMDAT pdata
pdata	SEGMENT
$pdata$MP4D_open DD imagerel $LN243
	DD	imagerel $LN243+9196
	DD	imagerel $unwind$MP4D_open
pdata	ENDS
;	COMDAT pdata
pdata	SEGMENT
$pdata$MP4D_frame_offset DD imagerel $LN9
	DD	imagerel $LN9+269
	DD	imagerel $unwind$MP4D_frame_offset
pdata	ENDS
;	COMDAT pdata
pdata	SEGMENT
$pdata$MP4D_close DD imagerel $LN18
	DD	imagerel $LN18+549
	DD	imagerel $unwind$MP4D_close
pdata	ENDS
;	COMDAT pdata
pdata	SEGMENT
$pdata$MP4D_read_sps DD imagerel $LN3
	DD	imagerel $LN3+63
	DD	imagerel $unwind$MP4D_read_sps
pdata	ENDS
;	COMDAT pdata
pdata	SEGMENT
$pdata$MP4D_read_pps DD imagerel $LN3
	DD	imagerel $LN3+66
	DD	imagerel $unwind$MP4D_read_pps
pdata	ENDS
;	COMDAT pdata
pdata	SEGMENT
$pdata$MP4E_open DD imagerel $LN9
	DD	imagerel $LN9+308
	DD	imagerel $unwind$MP4E_open
pdata	ENDS
;	COMDAT pdata
pdata	SEGMENT
$pdata$MP4E_add_track DD imagerel $LN7
	DD	imagerel $LN7+237
	DD	imagerel $unwind$MP4E_add_track
pdata	ENDS
;	COMDAT pdata
pdata	SEGMENT
$pdata$MP4E_put_sample DD imagerel $LN22
	DD	imagerel $LN22+726
	DD	imagerel $unwind$MP4E_put_sample
pdata	ENDS
;	COMDAT pdata
pdata	SEGMENT
$pdata$MP4E_close DD imagerel $LN9
	DD	imagerel $LN9+248
	DD	imagerel $unwind$MP4E_close
pdata	ENDS
;	COMDAT pdata
pdata	SEGMENT
$pdata$MP4E_set_dsi DD imagerel $LN10
	DD	imagerel $LN10+165
	DD	imagerel $unwind$MP4E_set_dsi
pdata	ENDS
;	COMDAT pdata
pdata	SEGMENT
$pdata$MP4E_set_vps DD imagerel $LN8
	DD	imagerel $LN8+138
	DD	imagerel $unwind$MP4E_set_vps
pdata	ENDS
;	COMDAT pdata
pdata	SEGMENT
$pdata$MP4E_set_sps DD imagerel $LN8
	DD	imagerel $LN8+138
	DD	imagerel $unwind$MP4E_set_sps
pdata	ENDS
;	COMDAT pdata
pdata	SEGMENT
$pdata$MP4E_set_pps DD imagerel $LN8
	DD	imagerel $LN8+138
	DD	imagerel $unwind$MP4E_set_pps
pdata	ENDS
;	COMDAT pdata
pdata	SEGMENT
$pdata$MP4E_set_text_comment DD imagerel $LN7
	DD	imagerel $LN7+108
	DD	imagerel $unwind$MP4E_set_text_comment
pdata	ENDS
;	COMDAT pdata
pdata	SEGMENT
$pdata$?minimp4_vector_init@@YAHPEAUminimp4_vector_t@@H@Z DD imagerel ?minimp4_vector_init@@YAHPEAUminimp4_vector_t@@H@Z
	DD	imagerel ?minimp4_vector_init@@YAHPEAUminimp4_vector_t@@H@Z+120
	DD	imagerel $unwind$?minimp4_vector_init@@YAHPEAUminimp4_vector_t@@H@Z
pdata	ENDS
;	COMDAT pdata
pdata	SEGMENT
$pdata$?minimp4_vector_reset@@YAXPEAUminimp4_vector_t@@@Z DD imagerel ?minimp4_vector_reset@@YAXPEAUminimp4_vector_t@@@Z
	DD	imagerel ?minimp4_vector_reset@@YAXPEAUminimp4_vector_t@@@Z+60
	DD	imagerel $unwind$?minimp4_vector_reset@@YAXPEAUminimp4_vector_t@@@Z
pdata	ENDS
;	COMDAT pdata
pdata	SEGMENT
$pdata$?minimp4_vector_grow@@YAHPEAUminimp4_vector_t@@H@Z DD imagerel ?minimp4_vector_grow@@YAHPEAUminimp4_vector_t@@H@Z
	DD	imagerel ?minimp4_vector_grow@@YAHPEAUminimp4_vector_t@@H@Z+133
	DD	imagerel $unwind$?minimp4_vector_grow@@YAHPEAUminimp4_vector_t@@H@Z
pdata	ENDS
;	COMDAT pdata
pdata	SEGMENT
$pdata$?minimp4_vector_alloc_tail@@YAPEAEPEAUminimp4_vector_t@@H@Z DD imagerel ?minimp4_vector_alloc_tail@@YAPEAEPEAUminimp4_vector_t@@H@Z
	DD	imagerel ?minimp4_vector_alloc_tail@@YAPEAEPEAUminimp4_vector_t@@H@Z+212
	DD	imagerel $unwind$?minimp4_vector_alloc_tail@@YAPEAEPEAUminimp4_vector_t@@H@Z
pdata	ENDS
;	COMDAT pdata
pdata	SEGMENT
$pdata$?minimp4_vector_put@@YAPEAEPEAUminimp4_vector_t@@PEBXH@Z DD imagerel ?minimp4_vector_put@@YAPEAEPEAUminimp4_vector_t@@PEBXH@Z
	DD	imagerel ?minimp4_vector_put@@YAPEAEPEAUminimp4_vector_t@@PEBXH@Z+78
	DD	imagerel $unwind$?minimp4_vector_put@@YAPEAEPEAUminimp4_vector_t@@PEBXH@Z
pdata	ENDS
;	COMDAT pdata
pdata	SEGMENT
$pdata$?append_mem@@YAHPEAUminimp4_vector_t@@PEBXH@Z DD imagerel ?append_mem@@YAHPEAUminimp4_vector_t@@PEBXH@Z
	DD	imagerel ?append_mem@@YAHPEAUminimp4_vector_t@@PEBXH@Z+282
	DD	imagerel $unwind$?append_mem@@YAHPEAUminimp4_vector_t@@PEBXH@Z
pdata	ENDS
;	COMDAT pdata
pdata	SEGMENT
$pdata$?items_count@@YAHPEAUminimp4_vector_t@@@Z DD imagerel ?items_count@@YAHPEAUminimp4_vector_t@@@Z
	DD	imagerel ?items_count@@YAHPEAUminimp4_vector_t@@@Z+124
	DD	imagerel $unwind$?items_count@@YAHPEAUminimp4_vector_t@@@Z
pdata	ENDS
;	COMDAT pdata
pdata	SEGMENT
$pdata$?get_duration@@YAIPEBUtrack_t@@@Z DD imagerel ?get_duration@@YAIPEBUtrack_t@@@Z
	DD	imagerel ?get_duration@@YAIPEBUtrack_t@@@Z+122
	DD	imagerel $unwind$?get_duration@@YAIPEBUtrack_t@@@Z
pdata	ENDS
;	COMDAT pdata
pdata	SEGMENT
$pdata$?write_pending_data@@YAHPEAUMP4E_mux_tag@@PEAUtrack_t@@@Z DD imagerel ?write_pending_data@@YAHPEAUMP4E_mux_tag@@PEAUtrack_t@@@Z
	DD	imagerel ?write_pending_data@@YAHPEAUMP4E_mux_tag@@PEAUtrack_t@@@Z+529
	DD	imagerel $unwind$?write_pending_data@@YAHPEAUMP4E_mux_tag@@PEAUtrack_t@@@Z
pdata	ENDS
;	COMDAT pdata
pdata	SEGMENT
$pdata$?add_sample_descriptor@@YAHPEAUMP4E_mux_tag@@PEAUtrack_t@@HHH@Z DD imagerel ?add_sample_descriptor@@YAHPEAUMP4E_mux_tag@@PEAUtrack_t@@HHH@Z
	DD	imagerel ?add_sample_descriptor@@YAHPEAUMP4E_mux_tag@@PEAUtrack_t@@HHH@Z+179
	DD	imagerel $unwind$?add_sample_descriptor@@YAHPEAUMP4E_mux_tag@@PEAUtrack_t@@HHH@Z
pdata	ENDS
;	COMDAT pdata
pdata	SEGMENT
$pdata$?mp4e_flush_index@@YAHPEAUMP4E_mux_tag@@@Z DD imagerel ?mp4e_flush_index@@YAHPEAUMP4E_mux_tag@@@Z
	DD	imagerel ?mp4e_flush_index@@YAHPEAUMP4E_mux_tag@@@Z+35184
	DD	imagerel $unwind$?mp4e_flush_index@@YAHPEAUMP4E_mux_tag@@@Z
pdata	ENDS
;	COMDAT pdata
pdata	SEGMENT
$pdata$?mp4e_write_fragment_header@@YAHPEAUMP4E_mux_tag@@HHHH@Z DD imagerel ?mp4e_write_fragment_header@@YAHPEAUMP4E_mux_tag@@HHHH@Z
	DD	imagerel ?mp4e_write_fragment_header@@YAHPEAUMP4E_mux_tag@@HHHH@Z+5736
	DD	imagerel $unwind$?mp4e_write_fragment_header@@YAHPEAUMP4E_mux_tag@@HHHH@Z
pdata	ENDS
;	COMDAT pdata
pdata	SEGMENT
$pdata$?mp4e_write_mdat_box@@YAHPEAUMP4E_mux_tag@@I@Z DD imagerel ?mp4e_write_mdat_box@@YAHPEAUMP4E_mux_tag@@I@Z
	DD	imagerel ?mp4e_write_mdat_box@@YAHPEAUMP4E_mux_tag@@I@Z+288
	DD	imagerel $unwind$?mp4e_write_mdat_box@@YAHPEAUMP4E_mux_tag@@I@Z
pdata	ENDS
;	COMDAT pdata
pdata	SEGMENT
$pdata$?od_size_of_size@@YAHH@Z DD imagerel ?od_size_of_size@@YAHH@Z
	DD	imagerel ?od_size_of_size@@YAHH@Z+61
	DD	imagerel $unwind$?od_size_of_size@@YAHH@Z
pdata	ENDS
;	COMDAT pdata
pdata	SEGMENT
$pdata$?show_bits@@YAIPEAUbit_reader_t@@H@Z DD imagerel ?show_bits@@YAIPEAUbit_reader_t@@H@Z
	DD	imagerel ?show_bits@@YAIPEAUbit_reader_t@@H@Z+97
	DD	imagerel $unwind$?show_bits@@YAIPEAUbit_reader_t@@H@Z
pdata	ENDS
;	COMDAT pdata
pdata	SEGMENT
$pdata$?flush_bits@@YAXPEAUbit_reader_t@@H@Z DD imagerel ?flush_bits@@YAXPEAUbit_reader_t@@H@Z
	DD	imagerel ?flush_bits@@YAXPEAUbit_reader_t@@H@Z+214
	DD	imagerel $unwind$?flush_bits@@YAXPEAUbit_reader_t@@H@Z
pdata	ENDS
;	COMDAT pdata
pdata	SEGMENT
$pdata$?get_bits@@YAIPEAUbit_reader_t@@H@Z DD imagerel ?get_bits@@YAIPEAUbit_reader_t@@H@Z
	DD	imagerel ?get_bits@@YAIPEAUbit_reader_t@@H@Z+55
	DD	imagerel $unwind$?get_bits@@YAIPEAUbit_reader_t@@H@Z
pdata	ENDS
;	COMDAT pdata
pdata	SEGMENT
$pdata$?set_pos_bits@@YAXPEAUbit_reader_t@@I@Z DD imagerel ?set_pos_bits@@YAXPEAUbit_reader_t@@I@Z
	DD	imagerel ?set_pos_bits@@YAXPEAUbit_reader_t@@I@Z+141
	DD	imagerel $unwind$?set_pos_bits@@YAXPEAUbit_reader_t@@I@Z
pdata	ENDS
;	COMDAT pdata
pdata	SEGMENT
$pdata$?get_pos_bits@@YAIPEBUbit_reader_t@@@Z DD imagerel ?get_pos_bits@@YAIPEBUbit_reader_t@@@Z
	DD	imagerel ?get_pos_bits@@YAIPEBUbit_reader_t@@@Z+109
	DD	imagerel $unwind$?get_pos_bits@@YAIPEBUbit_reader_t@@@Z
pdata	ENDS
;	COMDAT pdata
pdata	SEGMENT
$pdata$?remaining_bits@@YAHPEBUbit_reader_t@@@Z DD imagerel ?remaining_bits@@YAHPEBUbit_reader_t@@@Z
	DD	imagerel ?remaining_bits@@YAHPEBUbit_reader_t@@@Z+50
	DD	imagerel $unwind$?remaining_bits@@YAHPEBUbit_reader_t@@@Z
pdata	ENDS
;	COMDAT pdata
pdata	SEGMENT
$pdata$?init_bits@@YAXPEAUbit_reader_t@@PEBXI@Z DD imagerel ?init_bits@@YAXPEAUbit_reader_t@@PEBXI@Z
	DD	imagerel ?init_bits@@YAXPEAUbit_reader_t@@PEBXI@Z+64
	DD	imagerel $unwind$?init_bits@@YAXPEAUbit_reader_t@@PEBXI@Z
pdata	ENDS
;	COMDAT pdata
pdata	SEGMENT
$pdata$?ue_bits@@YAHPEAUbit_reader_t@@@Z DD imagerel ?ue_bits@@YAHPEAUbit_reader_t@@@Z
	DD	imagerel ?ue_bits@@YAHPEAUbit_reader_t@@@Z+120
	DD	imagerel $unwind$?ue_bits@@YAHPEAUbit_reader_t@@@Z
pdata	ENDS
;	COMDAT pdata
pdata	SEGMENT
$pdata$?h264e_bs_put_bits@@YAXPEAUbs_t@@II@Z DD imagerel ?h264e_bs_put_bits@@YAXPEAUbs_t@@II@Z
	DD	imagerel ?h264e_bs_put_bits@@YAXPEAUbs_t@@II@Z+343
	DD	imagerel $unwind$?h264e_bs_put_bits@@YAXPEAUbs_t@@II@Z
pdata	ENDS
;	COMDAT pdata
pdata	SEGMENT
$pdata$?h264e_bs_flush@@YAXPEAUbs_t@@@Z DD imagerel ?h264e_bs_flush@@YAXPEAUbs_t@@@Z
	DD	imagerel ?h264e_bs_flush@@YAXPEAUbs_t@@@Z+98
	DD	imagerel $unwind$?h264e_bs_flush@@YAXPEAUbs_t@@@Z
pdata	ENDS
;	COMDAT pdata
pdata	SEGMENT
$pdata$?h264e_bs_get_pos_bits@@YAIPEBUbs_t@@@Z DD imagerel ?h264e_bs_get_pos_bits@@YAIPEBUbs_t@@@Z
	DD	imagerel ?h264e_bs_get_pos_bits@@YAIPEBUbs_t@@@Z+110
	DD	imagerel $unwind$?h264e_bs_get_pos_bits@@YAIPEBUbs_t@@@Z
pdata	ENDS
;	COMDAT pdata
pdata	SEGMENT
$pdata$?h264e_bs_byte_align@@YAIPEAUbs_t@@@Z DD imagerel ?h264e_bs_byte_align@@YAIPEAUbs_t@@@Z
	DD	imagerel ?h264e_bs_byte_align@@YAIPEAUbs_t@@@Z+70
	DD	imagerel $unwind$?h264e_bs_byte_align@@YAIPEAUbs_t@@@Z
pdata	ENDS
;	COMDAT pdata
pdata	SEGMENT
$pdata$?h264e_bs_put_golomb@@YAXPEAUbs_t@@I@Z DD imagerel ?h264e_bs_put_golomb@@YAXPEAUbs_t@@I@Z
	DD	imagerel ?h264e_bs_put_golomb@@YAXPEAUbs_t@@I@Z+88
	DD	imagerel $unwind$?h264e_bs_put_golomb@@YAXPEAUbs_t@@I@Z
pdata	ENDS
;	COMDAT pdata
pdata	SEGMENT
$pdata$?h264e_bs_init_bits@@YAXPEAUbs_t@@PEAX@Z DD imagerel ?h264e_bs_init_bits@@YAXPEAUbs_t@@PEAX@Z
	DD	imagerel ?h264e_bs_init_bits@@YAXPEAUbs_t@@PEAX@Z+73
	DD	imagerel $unwind$?h264e_bs_init_bits@@YAXPEAUbs_t@@PEAX@Z
pdata	ENDS
;	COMDAT pdata
pdata	SEGMENT
$pdata$?find_mem_cache@@YAHQEAPEAXQEAHHPEAXH@Z DD imagerel ?find_mem_cache@@YAHQEAPEAXQEAHHPEAXH@Z
	DD	imagerel ?find_mem_cache@@YAHQEAPEAXQEAHHPEAXH@Z+281
	DD	imagerel $unwind$?find_mem_cache@@YAHQEAPEAXQEAHHPEAXH@Z
pdata	ENDS
;	COMDAT pdata
pdata	SEGMENT
$pdata$?remove_nal_escapes@@YAHPEAEPEBEH@Z DD imagerel ?remove_nal_escapes@@YAHPEAEPEBEH@Z
	DD	imagerel ?remove_nal_escapes@@YAHPEAEPEBEH@Z+245
	DD	imagerel $unwind$?remove_nal_escapes@@YAHPEAEPEBEH@Z
pdata	ENDS
;	COMDAT pdata
pdata	SEGMENT
$pdata$?nal_put_esc@@YAHPEAEPEBEH@Z DD imagerel ?nal_put_esc@@YAHPEAEPEBEH@Z
	DD	imagerel ?nal_put_esc@@YAHPEAEPEBEH@Z+255
	DD	imagerel $unwind$?nal_put_esc@@YAHPEAEPEBEH@Z
pdata	ENDS
;	COMDAT pdata
pdata	SEGMENT
$pdata$?copy_bits@@YAXPEAUbit_reader_t@@PEAUbs_t@@@Z DD imagerel ?copy_bits@@YAXPEAUbit_reader_t@@PEAUbs_t@@@Z
	DD	imagerel ?copy_bits@@YAXPEAUbit_reader_t@@PEAUbs_t@@@Z+200
	DD	imagerel $unwind$?copy_bits@@YAXPEAUbit_reader_t@@PEAUbs_t@@@Z
pdata	ENDS
;	COMDAT pdata
pdata	SEGMENT
$pdata$?change_sps_id@@YAHPEAUbit_reader_t@@PEAUbs_t@@HPEAH@Z DD imagerel ?change_sps_id@@YAHPEAUbit_reader_t@@PEAUbs_t@@HPEAH@Z
	DD	imagerel ?change_sps_id@@YAHPEAUbit_reader_t@@PEAUbs_t@@HPEAH@Z+223
	DD	imagerel $unwind$?change_sps_id@@YAHPEAUbit_reader_t@@PEAUbs_t@@HPEAH@Z
pdata	ENDS
;	COMDAT pdata
pdata	SEGMENT
$pdata$?patch_pps@@YAHPEAUh264_sps_id_patcher_t@@PEAUbit_reader_t@@PEAUbs_t@@HPEAH@Z DD imagerel ?patch_pps@@YAHPEAUh264_sps_id_patcher_t@@PEAUbit_reader_t@@PEAUbs_t@@HPEAH@Z
	DD	imagerel ?patch_pps@@YAHPEAUh264_sps_id_patcher_t@@PEAUbit_reader_t@@PEAUbs_t@@HPEAH@Z+234
	DD	imagerel $unwind$?patch_pps@@YAHPEAUh264_sps_id_patcher_t@@PEAUbit_reader_t@@PEAUbs_t@@HPEAH@Z
pdata	ENDS
;	COMDAT pdata
pdata	SEGMENT
$pdata$?patch_slice_header@@YAXPEAUh264_sps_id_patcher_t@@PEAUbit_reader_t@@PEAUbs_t@@@Z DD imagerel ?patch_slice_header@@YAXPEAUh264_sps_id_patcher_t@@PEAUbit_reader_t@@PEAUbs_t@@@Z
	DD	imagerel ?patch_slice_header@@YAXPEAUh264_sps_id_patcher_t@@PEAUbit_reader_t@@PEAUbs_t@@@Z+169
	DD	imagerel $unwind$?patch_slice_header@@YAXPEAUh264_sps_id_patcher_t@@PEAUbit_reader_t@@PEAUbs_t@@@Z
pdata	ENDS
;	COMDAT pdata
pdata	SEGMENT
$pdata$?transcode_nalu@@YAHPEAUh264_sps_id_patcher_t@@PEBEHPEAE@Z DD imagerel ?transcode_nalu@@YAHPEAUh264_sps_id_patcher_t@@PEBEHPEAE@Z
	DD	imagerel ?transcode_nalu@@YAHPEAUh264_sps_id_patcher_t@@PEBEHPEAE@Z+750
	DD	imagerel $unwind$?transcode_nalu@@YAHPEAUh264_sps_id_patcher_t@@PEBEHPEAE@Z
pdata	ENDS
;	COMDAT pdata
pdata	SEGMENT
$pdata$?find_start_code@@YAPEBEPEBEHPEAH@Z DD imagerel ?find_start_code@@YAPEBEPEBEHPEAH@Z
	DD	imagerel ?find_start_code@@YAPEBEPEBEHPEAH@Z+287
	DD	imagerel $unwind$?find_start_code@@YAPEBEPEBEHPEAH@Z
pdata	ENDS
;	COMDAT pdata
pdata	SEGMENT
$pdata$?find_nal_unit@@YAPEBEPEBEHPEAH@Z DD imagerel ?find_nal_unit@@YAPEBEPEBEHPEAH@Z
	DD	imagerel ?find_nal_unit@@YAPEBEPEBEHPEAH@Z+197
	DD	imagerel $unwind$?find_nal_unit@@YAPEBEPEBEHPEAH@Z
pdata	ENDS
;	COMDAT pdata
pdata	SEGMENT
$pdata$?mp4_h265_write_nal@@YAHPEAUmp4_h26x_writer_tag@@PEBEHI@Z DD imagerel ?mp4_h265_write_nal@@YAHPEAUmp4_h26x_writer_tag@@PEBEHI@Z
	DD	imagerel ?mp4_h265_write_nal@@YAHPEAUmp4_h26x_writer_tag@@PEBEHI@Z+679
	DD	imagerel $unwind$?mp4_h265_write_nal@@YAHPEAUmp4_h26x_writer_tag@@PEBEHI@Z
pdata	ENDS
;	COMDAT pdata
pdata	SEGMENT
$pdata$?minimp4_fgets@@YAHPEAUMP4D_demux_tag@@@Z DD imagerel ?minimp4_fgets@@YAHPEAUMP4D_demux_tag@@@Z
	DD	imagerel ?minimp4_fgets@@YAHPEAUMP4D_demux_tag@@@Z+85
	DD	imagerel $unwind$?minimp4_fgets@@YAHPEAUMP4D_demux_tag@@@Z
pdata	ENDS
;	COMDAT pdata
pdata	SEGMENT
$pdata$?minimp4_read@@YAIPEAUMP4D_demux_tag@@HPEAH@Z DD imagerel ?minimp4_read@@YAIPEAUMP4D_demux_tag@@HPEAH@Z
	DD	imagerel ?minimp4_read@@YAIPEAUMP4D_demux_tag@@HPEAH@Z+196
	DD	imagerel $unwind$?minimp4_read@@YAIPEAUMP4D_demux_tag@@HPEAH@Z
pdata	ENDS
;	COMDAT pdata
pdata	SEGMENT
$pdata$?read_payload@@YAIPEAUMP4D_demux_tag@@IPEA_KPEAH@Z DD imagerel ?read_payload@@YAIPEAUMP4D_demux_tag@@IPEA_KPEAH@Z
	DD	imagerel ?read_payload@@YAIPEAUMP4D_demux_tag@@IPEA_KPEAH@Z+105
	DD	imagerel $unwind$?read_payload@@YAIPEAUMP4D_demux_tag@@IPEA_KPEAH@Z
pdata	ENDS
;	COMDAT pdata
pdata	SEGMENT
$pdata$?my_fseek@@YAXPEAUMP4D_demux_tag@@_KPEAH@Z DD imagerel ?my_fseek@@YAXPEAUMP4D_demux_tag@@_KPEAH@Z
	DD	imagerel ?my_fseek@@YAXPEAUMP4D_demux_tag@@_KPEAH@Z+74
	DD	imagerel $unwind$?my_fseek@@YAXPEAUMP4D_demux_tag@@_KPEAH@Z
pdata	ENDS
;	COMDAT pdata
pdata	SEGMENT
$pdata$?sample_to_chunk@@YAHPEAUMP4D_track_t@@IPEAI@Z DD imagerel ?sample_to_chunk@@YAHPEAUMP4D_track_t@@IPEAI@Z
	DD	imagerel ?sample_to_chunk@@YAHPEAUMP4D_track_t@@IPEAI@Z+199
	DD	imagerel $unwind$?sample_to_chunk@@YAHPEAUMP4D_track_t@@IPEAI@Z
pdata	ENDS
;	COMDAT pdata
pdata	SEGMENT
$pdata$?skip_spspps@@YAHPEBEHH@Z DD imagerel ?skip_spspps@@YAHPEBEHH@Z
	DD	imagerel ?skip_spspps@@YAHPEBEHH@Z+135
	DD	imagerel $unwind$?skip_spspps@@YAHPEBEHH@Z
pdata	ENDS
;	COMDAT pdata
pdata	SEGMENT
$pdata$?MP4D_read_spspps@@YAPEBXPEBUMP4D_demux_tag@@IHHPEAH@Z DD imagerel ?MP4D_read_spspps@@YAPEBXPEBUMP4D_demux_tag@@IHHPEAH@Z
	DD	imagerel ?MP4D_read_spspps@@YAPEBXPEBUMP4D_demux_tag@@IHHPEAH@Z+404
	DD	imagerel $unwind$?MP4D_read_spspps@@YAPEBXPEBUMP4D_demux_tag@@IHHPEAH@Z
pdata	ENDS
;	COMDAT pdata
pdata	SEGMENT
$pdata$?RegisterSound@@YAXXZ DD imagerel $LN3
	DD	imagerel $LN3+94
	DD	imagerel $unwind$?RegisterSound@@YAXXZ
pdata	ENDS
;	COMDAT pdata
pdata	SEGMENT
$pdata$?PlayerThread@@YAXXZ DD imagerel $LN9
	DD	imagerel $LN9+181
	DD	imagerel $unwind$?PlayerThread@@YAXXZ
pdata	ENDS
;	COMDAT pdata
pdata	SEGMENT
$pdata$?WindowHandleMessage@@YAXPEAU_post_event_@@@Z DD imagerel $LN11
	DD	imagerel $LN11+371
	DD	imagerel $unwind$?WindowHandleMessage@@YAXPEAU_post_event_@@@Z
pdata	ENDS
;	COMDAT pdata
pdata	SEGMENT
$pdata$?AboutClicked@@YAXPEAU_ChWidget_@@PEAU_chwin_@@@Z DD imagerel $LN3
	DD	imagerel $LN3+76
	DD	imagerel $unwind$?AboutClicked@@YAXPEAU_ChWidget_@@PEAU_chwin_@@@Z
pdata	ENDS
;	COMDAT pdata
pdata	SEGMENT
$pdata$?ExitItemClicked@@YAXPEAU_ChWidget_@@PEAU_chwin_@@@Z DD imagerel $LN3
	DD	imagerel $LN3+38
	DD	imagerel $unwind$?ExitItemClicked@@YAXPEAU_ChWidget_@@PEAU_chwin_@@@Z
pdata	ENDS
;	COMDAT pdata
pdata	SEGMENT
$pdata$?DrawWallpaper@@YAXPEAU_ChCanvas_@@PEADHH@Z DD imagerel $LN15
	DD	imagerel $LN15+670
	DD	imagerel $unwind$?DrawWallpaper@@YAXPEAU_ChCanvas_@@PEADHH@Z
pdata	ENDS
;	COMDAT pdata
pdata	SEGMENT
$pdata$?UpdateHomeUI@@YAXXZ DD imagerel $LN3
	DD	imagerel $LN3+122
	DD	imagerel $unwind$?UpdateHomeUI@@YAXXZ
pdata	ENDS
;	COMDAT pdata
pdata	SEGMENT
$pdata$?UpdateBrowserUI@@YAXXZ DD imagerel $LN3
	DD	imagerel $LN3+122
	DD	imagerel $unwind$?UpdateBrowserUI@@YAXXZ
pdata	ENDS
;	COMDAT pdata
pdata	SEGMENT
$pdata$?BrowseMenuActionHandler@@YAXPEAU_ChWidget_@@PEAU_chwin_@@@Z DD imagerel $LN5
	DD	imagerel $LN5+283
	DD	imagerel $unwind$?BrowseMenuActionHandler@@YAXPEAU_ChWidget_@@PEAU_chwin_@@@Z
pdata	ENDS
;	COMDAT pdata
pdata	SEGMENT
$pdata$?SelectButtonActionHandler@@YAXPEAU_ChWidget_@@PEAU_chwin_@@@Z DD imagerel $LN4
	DD	imagerel $LN4+89
	DD	imagerel $unwind$?SelectButtonActionHandler@@YAXPEAU_ChWidget_@@PEAU_chwin_@@@Z
pdata	ENDS
;	COMDAT pdata
pdata	SEGMENT
$pdata$?MusicPrepareLibrary@@YAXPEAU_list_view_@@@Z DD imagerel $LN8
	DD	imagerel $LN8+190
	DD	imagerel $unwind$?MusicPrepareLibrary@@YAXPEAU_list_view_@@@Z
pdata	ENDS
;	COMDAT pdata
pdata	SEGMENT
$pdata$?PlayPauseButtonAction@@YAXPEAU_ChWidget_@@PEAU_chwin_@@@Z DD imagerel $LN5
	DD	imagerel $LN5+199
	DD	imagerel $unwind$?PlayPauseButtonAction@@YAXPEAU_ChWidget_@@PEAU_chwin_@@@Z
pdata	ENDS
;	COMDAT pdata
pdata	SEGMENT
$pdata$?PrepareBrowserUI@@YAXXZ DD imagerel $LN3
	DD	imagerel $LN3+393
	DD	imagerel $unwind$?PrepareBrowserUI@@YAXXZ
pdata	ENDS
;	COMDAT pdata
pdata	SEGMENT
$pdata$?AudioPlayerClose@@YAXPEAU_chwin_@@@Z DD imagerel $LN9
	DD	imagerel $LN9+177
	DD	imagerel $unwind$?AudioPlayerClose@@YAXPEAU_chwin_@@@Z
pdata	ENDS
;	COMDAT pdata
pdata	SEGMENT
$pdata$main DD	imagerel $LN7
	DD	imagerel $LN7+1098
	DD	imagerel $unwind$main
pdata	ENDS
;	COMDAT ??_C@_0BB@DKIANJEB@?1icons?1media?4bmp@
CONST	SEGMENT
??_C@_0BB@DKIANJEB@?1icons?1media?4bmp@ DB '/icons/media.bmp', 00H ; `string'
CONST	ENDS
;	COMDAT ??_C@_0N@MEOKKLLB@?1musicbk?4jpg@
CONST	SEGMENT
??_C@_0N@MEOKKLLB@?1musicbk?4jpg@ DB '/musicbk.jpg', 00H ; `string'
CONST	ENDS
;	COMDAT ??_C@_04MDFHGMOB@Next@
CONST	SEGMENT
??_C@_04MDFHGMOB@Next@ DB 'Next', 00H			; `string'
CONST	ENDS
;	COMDAT ??_C@_0L@FMOPGOKP@Play?1Pause@
CONST	SEGMENT
??_C@_0L@FMOPGOKP@Play?1Pause@ DB 'Play/Pause', 00H	; `string'
CONST	ENDS
;	COMDAT ??_C@_08CAGLMDLD@Previous@
CONST	SEGMENT
??_C@_08CAGLMDLD@Previous@ DB 'Previous', 00H		; `string'
CONST	ENDS
;	COMDAT ??_C@_05BDOHFCKE@About@
CONST	SEGMENT
??_C@_05BDOHFCKE@About@ DB 'About', 00H			; `string'
CONST	ENDS
;	COMDAT ??_C@_04LBABLPF@Exit@
CONST	SEGMENT
??_C@_04LBABLPF@Exit@ DB 'Exit', 00H			; `string'
CONST	ENDS
;	COMDAT ??_C@_0P@OJOJALEH@Select?5Song?4?4?4@
CONST	SEGMENT
??_C@_0P@OJOJALEH@Select?5Song?4?4?4@ DB 'Select Song...', 00H ; `string'
CONST	ENDS
;	COMDAT ??_C@_04DDFEFHOJ@Help@
CONST	SEGMENT
??_C@_04DDFEFHOJ@Help@ DB 'Help', 00H			; `string'
CONST	ENDS
;	COMDAT ??_C@_04PBAHLACE@File@
CONST	SEGMENT
??_C@_04PBAHLACE@File@ DB 'File', 00H			; `string'
CONST	ENDS
;	COMDAT ??_C@_06NFPPHDMM@Accent@
CONST	SEGMENT
??_C@_06NFPPHDMM@Accent@ DB 'Accent', 00H		; `string'
CONST	ENDS
;	COMDAT ??_C@_06HJGPBJLE@Select@
CONST	SEGMENT
??_C@_06HJGPBJLE@Select@ DB 'Select', 00H		; `string'
CONST	ENDS
;	COMDAT ??_C@_0BB@KNPGACAJ@?1icons?1music?4bmp@
CONST	SEGMENT
??_C@_0BB@KNPGACAJ@?1icons?1music?4bmp@ DB '/icons/music.bmp', 00H ; `string'
CONST	ENDS
;	COMDAT ??_C@_0BH@KIDONKAP@selected?5File?5?9?$DO?5?$CFs?5?$AN?6@
CONST	SEGMENT
??_C@_0BH@KIDONKAP@selected?5File?5?9?$DO?5?$CFs?5?$AN?6@ DB 'selected Fi'
	DB	'le -> %s ', 0dH, 0aH, 00H			; `string'
CONST	ENDS
;	COMDAT ??_C@_0P@JFAFLHF@_file?5?9?$DO?5?$CFd?5?$AN?6@
CONST	SEGMENT
??_C@_0P@JFAFLHF@_file?5?9?$DO?5?$CFd?5?$AN?6@ DB '_file -> %d ', 0dH, 0aH
	DB	00H						; `string'
CONST	ENDS
;	COMDAT ??_C@_0BH@GHLPKOEP@Selected?5file?5?9?$DO?5?$CFs?5?$AN?6@
CONST	SEGMENT
??_C@_0BH@GHLPKOEP@Selected?5file?5?9?$DO?5?$CFs?5?$AN?6@ DB 'Selected fi'
	DB	'le -> %s ', 0dH, 0aH, 00H			; `string'
CONST	ENDS
;	COMDAT ??_C@_07DKHLHEMJ@?1MUSIC?1@
CONST	SEGMENT
??_C@_07DKHLHEMJ@?1MUSIC?1@ DB '/MUSIC/', 00H		; `string'
CONST	ENDS
;	COMDAT ??_C@_06KOGCNNHG@?1music@
CONST	SEGMENT
??_C@_06KOGCNNHG@?1music@ DB '/music', 00H		; `string'
CONST	ENDS
;	COMDAT ??_C@_0BJ@PIBNCIDG@Updating?5the?5browsing?5?$AN?6@
CONST	SEGMENT
??_C@_0BJ@PIBNCIDG@Updating?5the?5browsing?5?$AN?6@ DB 'Updating the brow'
	DB	'sing ', 0dH, 0aH, 00H			; `string'
CONST	ENDS
;	COMDAT ??_C@_0BI@HGBDFOPG@Your?5Music?5library?4?4?4?4?4@
CONST	SEGMENT
??_C@_0BI@HGBDFOPG@Your?5Music?5library?4?4?4?4?4@ DB 'Your Music library'
	DB	'.....', 00H					; `string'
CONST	ENDS
;	COMDAT ??_C@_0BA@IGPHAPNL@Decoder?5error?5?6@
CONST	SEGMENT
??_C@_0BA@IGPHAPNL@Decoder?5error?5?6@ DB 'Decoder error ', 0aH, 00H ; `string'
CONST	ENDS
;	COMDAT ??_C@_0M@MDIENNJL@Accent?5v1?40@
CONST	SEGMENT
??_C@_0M@MDIENNJL@Accent?5v1?40@ DB 'Accent v1.0', 00H	; `string'
CONST	ENDS
;	COMDAT ??_C@_0CD@CCPBHJID@Accent?5Player?5v1?40?5for?5XenevaOS@
CONST	SEGMENT
??_C@_0CD@CCPBHJID@Accent?5Player?5v1?40?5for?5XenevaOS@ DB 'Accent Playe'
	DB	'r v1.0 for XenevaOS !!', 00H		; `string'
CONST	ENDS
;	COMDAT ??_C@_0L@JFMDADFF@?1dev?1sound@
CONST	SEGMENT
??_C@_0L@JFMDADFF@?1dev?1sound@ DB '/dev/sound', 00H	; `string'
CONST	ENDS
;	COMDAT ??_C@_0N@BDBGBIBJ@VideoHandler@
CONST	SEGMENT
??_C@_0N@BDBGBIBJ@VideoHandler@ DB 'VideoHandler', 00H	; `string'
CONST	ENDS
;	COMDAT ??_C@_0N@PEMJHAML@SoundHandler@
CONST	SEGMENT
??_C@_0N@PEMJHAML@SoundHandler@ DB 'SoundHandler', 00H	; `string'
CONST	ENDS
;	COMDAT xdata
xdata	SEGMENT
$unwind$main DD	045041601H
	DD	01114316H
	DD	0500a0032H
xdata	ENDS
;	COMDAT xdata
xdata	SEGMENT
$unwind$?AudioPlayerClose@@YAXPEAU_chwin_@@@Z DD 025030f01H
	DD	0d20a230fH
	DD	05006H
xdata	ENDS
;	COMDAT xdata
xdata	SEGMENT
$unwind$?PrepareBrowserUI@@YAXXZ DD 035030e01H
	DD	0f209330eH
	DD	05002H
xdata	ENDS
;	COMDAT xdata
xdata	SEGMENT
$unwind$?PlayPauseButtonAction@@YAXPEAU_ChWidget_@@PEAU_chwin_@@@Z DD 025031701H
	DD	0f2122317H
	DD	0500bH
xdata	ENDS
;	COMDAT xdata
xdata	SEGMENT
$unwind$?MusicPrepareLibrary@@YAXPEAU_list_view_@@@Z DD 025031201H
	DD	0f20d2312H
	DD	05006H
xdata	ENDS
;	COMDAT xdata
xdata	SEGMENT
$unwind$?SelectButtonActionHandler@@YAXPEAU_ChWidget_@@PEAU_chwin_@@@Z DD 025031401H
	DD	0d20f2314H
	DD	0500bH
xdata	ENDS
;	COMDAT xdata
xdata	SEGMENT
$unwind$?BrowseMenuActionHandler@@YAXPEAU_ChWidget_@@PEAU_chwin_@@@Z DD 045031701H
	DD	0f2124317H
	DD	0500bH
xdata	ENDS
;	COMDAT xdata
xdata	SEGMENT
$unwind$?UpdateBrowserUI@@YAXXZ DD 045030e01H
	DD	0f209430eH
	DD	05002H
xdata	ENDS
;	COMDAT xdata
xdata	SEGMENT
$unwind$?UpdateHomeUI@@YAXXZ DD 045030e01H
	DD	0f209430eH
	DD	05002H
xdata	ENDS
;	COMDAT xdata
xdata	SEGMENT
$unwind$?DrawWallpaper@@YAXPEAU_ChCanvas_@@PEADHH@Z DD 035042101H
	DD	011c3321H
	DD	05015001eH
xdata	ENDS
;	COMDAT xdata
xdata	SEGMENT
$unwind$?ExitItemClicked@@YAXPEAU_ChWidget_@@PEAU_chwin_@@@Z DD 025031401H
	DD	0b20f2314H
	DD	0500bH
xdata	ENDS
;	COMDAT xdata
xdata	SEGMENT
$unwind$?AboutClicked@@YAXPEAU_ChWidget_@@PEAU_chwin_@@@Z DD 035031701H
	DD	0f2123317H
	DD	0500bH
xdata	ENDS
;	COMDAT xdata
xdata	SEGMENT
$unwind$?WindowHandleMessage@@YAXPEAU_post_event_@@@Z DD 025041201H
	DD	010d2312H
	DD	050060014H
xdata	ENDS
;	COMDAT xdata
xdata	SEGMENT
$unwind$?PlayerThread@@YAXXZ DD 025040e01H
	DD	0109230eH
	DD	050020012H
xdata	ENDS
;	COMDAT xdata
xdata	SEGMENT
$unwind$?RegisterSound@@YAXXZ DD 025040e01H
	DD	0109230eH
	DD	050020012H
xdata	ENDS
;	COMDAT xdata
xdata	SEGMENT
$unwind$?MP4D_read_spspps@@YAPEBXPEBUMP4D_demux_tag@@IHHPEAH@Z DD 025032001H
	DD	0f21b2320H
	DD	05014H
xdata	ENDS
;	COMDAT xdata
xdata	SEGMENT
$unwind$?skip_spspps@@YAHPEBEHH@Z DD 05031601H
	DD	092130316H
	DD	0500fH
xdata	ENDS
;	COMDAT xdata
xdata	SEGMENT
$unwind$?sample_to_chunk@@YAHPEAUMP4D_track_t@@IPEAI@Z DD 05031601H
	DD	092130316H
	DD	0500fH
xdata	ENDS
;	COMDAT xdata
xdata	SEGMENT
$unwind$?my_fseek@@YAXPEAUMP4D_demux_tag@@_KPEAH@Z DD 05031701H
	DD	072140317H
	DD	05010H
xdata	ENDS
;	COMDAT xdata
xdata	SEGMENT
$unwind$?read_payload@@YAIPEAUMP4D_demux_tag@@IPEA_KPEAH@Z DD 025031d01H
	DD	0b218231dH
	DD	05014H
xdata	ENDS
;	COMDAT xdata
xdata	SEGMENT
$unwind$?minimp4_read@@YAIPEAUMP4D_demux_tag@@HPEAH@Z DD 025031801H
	DD	0d2132318H
	DD	0500fH
xdata	ENDS
;	COMDAT xdata
xdata	SEGMENT
$unwind$?minimp4_fgets@@YAHPEAUMP4D_demux_tag@@@Z DD 025030f01H
	DD	0d20a230fH
	DD	05006H
xdata	ENDS
;	COMDAT xdata
xdata	SEGMENT
$unwind$?mp4_h265_write_nal@@YAHPEAUmp4_h26x_writer_tag@@PEBEHI@Z DD 035042101H
	DD	011c3321H
	DD	050150012H
xdata	ENDS
;	COMDAT xdata
xdata	SEGMENT
$unwind$?find_nal_unit@@YAPEBEPEBEHPEAH@Z DD 025031b01H
	DD	0f216231bH
	DD	0500fH
xdata	ENDS
;	COMDAT xdata
xdata	SEGMENT
$unwind$?find_start_code@@YAPEBEPEBEHPEAH@Z DD 025041b01H
	DD	0116231bH
	DD	0500f0012H
xdata	ENDS
;	COMDAT xdata
xdata	SEGMENT
$unwind$?transcode_nalu@@YAHPEAUh264_sps_id_patcher_t@@PEBEHPEAE@Z DD 035042101H
	DD	011c3321H
	DD	050150022H
xdata	ENDS
;	COMDAT xdata
xdata	SEGMENT
$unwind$?patch_slice_header@@YAXPEAUh264_sps_id_patcher_t@@PEAUbit_reader_t@@PEAUbs_t@@@Z DD 025031901H
	DD	0d2142319H
	DD	05010H
xdata	ENDS
;	COMDAT xdata
xdata	SEGMENT
$unwind$?patch_pps@@YAHPEAUh264_sps_id_patcher_t@@PEAUbit_reader_t@@PEAUbs_t@@HPEAH@Z DD 025031e01H
	DD	0d219231eH
	DD	05015H
xdata	ENDS
;	COMDAT xdata
xdata	SEGMENT
$unwind$?change_sps_id@@YAHPEAUbit_reader_t@@PEAUbs_t@@HPEAH@Z DD 025032101H
	DD	0f21c2321H
	DD	05015H
xdata	ENDS
;	COMDAT xdata
xdata	SEGMENT
$unwind$?copy_bits@@YAXPEAUbit_reader_t@@PEAUbs_t@@@Z DD 025031401H
	DD	0d20f2314H
	DD	0500bH
xdata	ENDS
;	COMDAT xdata
xdata	SEGMENT
$unwind$?nal_put_esc@@YAHPEAEPEBEH@Z DD 05031701H
	DD	092140317H
	DD	05010H
xdata	ENDS
;	COMDAT xdata
xdata	SEGMENT
$unwind$?remove_nal_escapes@@YAHPEAEPEBEH@Z DD 05031701H
	DD	092140317H
	DD	05010H
xdata	ENDS
;	COMDAT xdata
xdata	SEGMENT
$unwind$?find_mem_cache@@YAHQEAPEAXQEAHHPEAXH@Z DD 025031e01H
	DD	0d219231eH
	DD	05015H
xdata	ENDS
;	COMDAT xdata
xdata	SEGMENT
$unwind$?h264e_bs_init_bits@@YAXPEAUbs_t@@PEAX@Z DD 05031201H
	DD	0720f0312H
	DD	0500bH
xdata	ENDS
;	COMDAT xdata
xdata	SEGMENT
$unwind$?h264e_bs_put_golomb@@YAXPEAUbs_t@@I@Z DD 025031301H
	DD	0d20e2313H
	DD	0500aH
xdata	ENDS
;	COMDAT xdata
xdata	SEGMENT
$unwind$?h264e_bs_byte_align@@YAIPEAUbs_t@@@Z DD 025030f01H
	DD	0d20a230fH
	DD	05006H
xdata	ENDS
;	COMDAT xdata
xdata	SEGMENT
$unwind$?h264e_bs_get_pos_bits@@YAIPEBUbs_t@@@Z DD 025030f01H
	DD	0d20a230fH
	DD	05006H
xdata	ENDS
;	COMDAT xdata
xdata	SEGMENT
$unwind$?h264e_bs_flush@@YAXPEAUbs_t@@@Z DD 05030d01H
	DD	0720a030dH
	DD	05006H
xdata	ENDS
;	COMDAT xdata
xdata	SEGMENT
$unwind$?h264e_bs_put_bits@@YAXPEAUbs_t@@II@Z DD 025031801H
	DD	0d2132318H
	DD	0500fH
xdata	ENDS
;	COMDAT xdata
xdata	SEGMENT
$unwind$?ue_bits@@YAHPEAUbit_reader_t@@@Z DD 025030f01H
	DD	0d20a230fH
	DD	05006H
xdata	ENDS
;	COMDAT xdata
xdata	SEGMENT
$unwind$?init_bits@@YAXPEAUbit_reader_t@@PEBXI@Z DD 025031901H
	DD	0b2142319H
	DD	05010H
xdata	ENDS
;	COMDAT xdata
xdata	SEGMENT
$unwind$?remaining_bits@@YAHPEBUbit_reader_t@@@Z DD 025030f01H
	DD	0d20a230fH
	DD	05006H
xdata	ENDS
;	COMDAT xdata
xdata	SEGMENT
$unwind$?get_pos_bits@@YAIPEBUbit_reader_t@@@Z DD 025030f01H
	DD	0d20a230fH
	DD	05006H
xdata	ENDS
;	COMDAT xdata
xdata	SEGMENT
$unwind$?set_pos_bits@@YAXPEAUbit_reader_t@@I@Z DD 025031301H
	DD	0d20e2313H
	DD	0500aH
xdata	ENDS
;	COMDAT xdata
xdata	SEGMENT
$unwind$?get_bits@@YAIPEAUbit_reader_t@@H@Z DD 025031301H
	DD	0d20e2313H
	DD	0500aH
xdata	ENDS
;	COMDAT xdata
xdata	SEGMENT
$unwind$?flush_bits@@YAXPEAUbit_reader_t@@H@Z DD 025031301H
	DD	0d20e2313H
	DD	0500aH
xdata	ENDS
;	COMDAT xdata
xdata	SEGMENT
$unwind$?show_bits@@YAIPEAUbit_reader_t@@H@Z DD 025031301H
	DD	0d20e2313H
	DD	0500aH
xdata	ENDS
;	COMDAT xdata
xdata	SEGMENT
$unwind$?od_size_of_size@@YAHH@Z DD 05030c01H
	DD	09209030cH
	DD	05005H
xdata	ENDS
;	COMDAT xdata
xdata	SEGMENT
$unwind$?mp4e_write_mdat_box@@YAHPEAUMP4E_mux_tag@@I@Z DD 025031601H
	DD	0f2112316H
	DD	0500aH
xdata	ENDS
;	COMDAT xdata
xdata	SEGMENT
$unwind$?mp4e_write_fragment_header@@YAHPEAUMP4E_mux_tag@@HHHH@Z DD 025042001H
	DD	011b2320H
	DD	0501400a8H
xdata	ENDS
;	COMDAT xdata
xdata	SEGMENT
$unwind$?mp4e_flush_index@@YAHPEAUMP4E_mux_tag@@@Z DD 025041201H
	DD	010d2312H
	DD	05006003cH
xdata	ENDS
;	COMDAT xdata
xdata	SEGMENT
$unwind$?add_sample_descriptor@@YAHPEAUMP4E_mux_tag@@PEAUtrack_t@@HHH@Z DD 025032101H
	DD	0f21c2321H
	DD	05015H
xdata	ENDS
;	COMDAT xdata
xdata	SEGMENT
$unwind$?write_pending_data@@YAHPEAUMP4E_mux_tag@@PEAUtrack_t@@@Z DD 025031701H
	DD	0f2122317H
	DD	0500bH
xdata	ENDS
;	COMDAT xdata
xdata	SEGMENT
$unwind$?get_duration@@YAIPEBUtrack_t@@@Z DD 05030d01H
	DD	0b20a030dH
	DD	05006H
xdata	ENDS
;	COMDAT xdata
xdata	SEGMENT
$unwind$?items_count@@YAHPEAUminimp4_vector_t@@@Z DD 05030d01H
	DD	0b20a030dH
	DD	05006H
xdata	ENDS
;	COMDAT xdata
xdata	SEGMENT
$unwind$?append_mem@@YAHPEAUminimp4_vector_t@@PEBXH@Z DD 025031c01H
	DD	0f217231cH
	DD	05010H
xdata	ENDS
;	COMDAT xdata
xdata	SEGMENT
$unwind$?minimp4_vector_put@@YAPEAEPEAUminimp4_vector_t@@PEBXH@Z DD 025031901H
	DD	0d2142319H
	DD	05010H
xdata	ENDS
;	COMDAT xdata
xdata	SEGMENT
$unwind$?minimp4_vector_alloc_tail@@YAPEAEPEAUminimp4_vector_t@@H@Z DD 025031301H
	DD	0d20e2313H
	DD	0500aH
xdata	ENDS
;	COMDAT xdata
xdata	SEGMENT
$unwind$?minimp4_vector_grow@@YAHPEAUminimp4_vector_t@@H@Z DD 025031301H
	DD	0d20e2313H
	DD	0500aH
xdata	ENDS
;	COMDAT xdata
xdata	SEGMENT
$unwind$?minimp4_vector_reset@@YAXPEAUminimp4_vector_t@@@Z DD 025030f01H
	DD	0b20a230fH
	DD	05006H
xdata	ENDS
;	COMDAT xdata
xdata	SEGMENT
$unwind$?minimp4_vector_init@@YAHPEAUminimp4_vector_t@@H@Z DD 025031301H
	DD	0d20e2313H
	DD	0500aH
xdata	ENDS
;	COMDAT xdata
xdata	SEGMENT
$unwind$MP4E_set_text_comment DD 025031401H
	DD	0b20f2314H
	DD	0500bH
xdata	ENDS
;	COMDAT xdata
xdata	SEGMENT
$unwind$MP4E_set_pps DD 025031d01H
	DD	0d218231dH
	DD	05014H
xdata	ENDS
;	COMDAT xdata
xdata	SEGMENT
$unwind$MP4E_set_sps DD 025031d01H
	DD	0d218231dH
	DD	05014H
xdata	ENDS
;	COMDAT xdata
xdata	SEGMENT
$unwind$MP4E_set_vps DD 025031d01H
	DD	0d218231dH
	DD	05014H
xdata	ENDS
;	COMDAT xdata
xdata	SEGMENT
$unwind$MP4E_set_dsi DD 025031d01H
	DD	0d218231dH
	DD	05014H
xdata	ENDS
;	COMDAT xdata
xdata	SEGMENT
$unwind$MP4E_close DD 025031201H
	DD	0f20d2312H
	DD	05006H
xdata	ENDS
;	COMDAT xdata
xdata	SEGMENT
$unwind$MP4E_put_sample DD 035042001H
	DD	011b3320H
	DD	050140014H
xdata	ENDS
;	COMDAT xdata
xdata	SEGMENT
$unwind$MP4E_add_track DD 025031401H
	DD	0d20f2314H
	DD	0500bH
xdata	ENDS
;	COMDAT xdata
xdata	SEGMENT
$unwind$MP4E_open DD 025031c01H
	DD	0d217231cH
	DD	05013H
xdata	ENDS
;	COMDAT xdata
xdata	SEGMENT
$unwind$MP4D_read_pps DD 035031d01H
	DD	0d218331dH
	DD	05014H
xdata	ENDS
;	COMDAT xdata
xdata	SEGMENT
$unwind$MP4D_read_sps DD 035031d01H
	DD	0d218331dH
	DD	05014H
xdata	ENDS
;	COMDAT xdata
xdata	SEGMENT
$unwind$MP4D_close DD 025030f01H
	DD	0d20a230fH
	DD	05006H
xdata	ENDS
;	COMDAT xdata
xdata	SEGMENT
$unwind$MP4D_frame_offset DD 025032001H
	DD	0f21b2320H
	DD	05014H
xdata	ENDS
;	COMDAT xdata
xdata	SEGMENT
$unwind$MP4D_open DD 025042101H
	DD	011c2321H
	DD	0501500ccH
xdata	ENDS
;	COMDAT xdata
xdata	SEGMENT
$unwind$mp4_h26x_write_nal DD 035042101H
	DD	011c3321H
	DD	05015001aH
xdata	ENDS
;	COMDAT xdata
xdata	SEGMENT
$unwind$mp4_h26x_write_close DD 025030f01H
	DD	0d20a230fH
	DD	05006H
xdata	ENDS
;	COMDAT xdata
xdata	SEGMENT
$unwind$mp4_h26x_write_init DD 025042101H
	DD	011c2321H
	DD	050150012H
xdata	ENDS
;	COMDAT xdata
xdata	SEGMENT
$unwind$?_Decode@Decoder@Jpeg@@AEAA?AW4DecodeResult@12@PEBEH@Z DD 025031901H
	DD	0d2142319H
	DD	05010H
xdata	ENDS
;	COMDAT xdata
xdata	SEGMENT
$unwind$?_Convert@Decoder@Jpeg@@AEAAXXZ DD 025041201H
	DD	010d2312H
	DD	050060018H
xdata	ENDS
;	COMDAT xdata
xdata	SEGMENT
$unwind$?_UpsampleV@Decoder@Jpeg@@AEAAXPEAUComponent@12@@Z DD 025041701H
	DD	01122317H
	DD	0500b0012H
xdata	ENDS
;	COMDAT xdata
xdata	SEGMENT
$unwind$?_UpsampleH@Decoder@Jpeg@@AEAAXPEAUComponent@12@@Z DD 025041701H
	DD	01122317H
	DD	0500b0012H
xdata	ENDS
;	COMDAT xdata
xdata	SEGMENT
$unwind$?CF@Decoder@Jpeg@@AEAAEH@Z DD 025031301H
	DD	0b20e2313H
	DD	0500aH
xdata	ENDS
;	COMDAT xdata
xdata	SEGMENT
$unwind$?_DecodeScan@Decoder@Jpeg@@AEAAXXZ DD 025041201H
	DD	010d2312H
	DD	050060012H
xdata	ENDS
;	COMDAT xdata
xdata	SEGMENT
$unwind$?_DecodeBlock@Decoder@Jpeg@@AEAAXPEAUComponent@12@PEAE@Z DD 025031901H
	DD	0d2142319H
	DD	05010H
xdata	ENDS
;	COMDAT xdata
xdata	SEGMENT
$unwind$?_GetVLC@Decoder@Jpeg@@AEAAHPEAUVlcCode@12@PEAE@Z DD 025031901H
	DD	0d2142319H
	DD	05010H
xdata	ENDS
;	COMDAT xdata
xdata	SEGMENT
$unwind$?_DecodeDRI@Decoder@Jpeg@@AEAAXXZ DD 025030f01H
	DD	0b20a230fH
	DD	05006H
xdata	ENDS
;	COMDAT xdata
xdata	SEGMENT
$unwind$?_DecodeDQT@Decoder@Jpeg@@AEAAXXZ DD 025031201H
	DD	0f20d2312H
	DD	05006H
xdata	ENDS
;	COMDAT xdata
xdata	SEGMENT
$unwind$?_DecodeDHT@Decoder@Jpeg@@AEAAXXZ DD 025041201H
	DD	010d2312H
	DD	050060014H
xdata	ENDS
;	COMDAT xdata
xdata	SEGMENT
$unwind$?_DecodeSOF@Decoder@Jpeg@@AEAAXXZ DD 025041201H
	DD	010d2312H
	DD	050060012H
xdata	ENDS
;	COMDAT xdata
xdata	SEGMENT
$unwind$?_SkipMarker@Decoder@Jpeg@@AEAAXXZ DD 025030f01H
	DD	0b20a230fH
	DD	05006H
xdata	ENDS
;	COMDAT xdata
xdata	SEGMENT
$unwind$?_DecodeLength@Decoder@Jpeg@@AEAAXXZ DD 025030f01H
	DD	0b20a230fH
	DD	05006H
xdata	ENDS
;	COMDAT xdata
xdata	SEGMENT
$unwind$?_Decode16@Decoder@Jpeg@@AEAAGPEBE@Z DD 05031201H
	DD	0720f0312H
	DD	0500bH
xdata	ENDS
;	COMDAT xdata
xdata	SEGMENT
$unwind$?_Skip@Decoder@Jpeg@@AEAAXH@Z DD 05031101H
	DD	0720e0311H
	DD	0500aH
xdata	ENDS
;	COMDAT xdata
xdata	SEGMENT
$unwind$?_ByteAlign@Decoder@Jpeg@@AEAAXXZ DD 05030d01H
	DD	0720a030dH
	DD	05006H
xdata	ENDS
;	COMDAT xdata
xdata	SEGMENT
$unwind$?_GetBits@Decoder@Jpeg@@AEAAHH@Z DD 025031301H
	DD	0d20e2313H
	DD	0500aH
xdata	ENDS
;	COMDAT xdata
xdata	SEGMENT
$unwind$?_SkipBits@Decoder@Jpeg@@AEAAXH@Z DD 025031301H
	DD	0b20e2313H
	DD	0500aH
xdata	ENDS
;	COMDAT xdata
xdata	SEGMENT
$unwind$?_ShowBits@Decoder@Jpeg@@AEAAHH@Z DD 05031101H
	DD	0920e0311H
	DD	0500aH
xdata	ENDS
;	COMDAT xdata
xdata	SEGMENT
$unwind$?_ColIDCT@Decoder@Jpeg@@AEAAXPEBHPEAEH@Z DD 025042101H
	DD	011c2321H
	DD	050150012H
xdata	ENDS
;	COMDAT xdata
xdata	SEGMENT
$unwind$?_RowIDCT@Decoder@Jpeg@@AEAAXPEAH@Z DD 05031201H
	DD	0d20f0312H
	DD	0500bH
xdata	ENDS
;	COMDAT xdata
xdata	SEGMENT
$unwind$?_Clip@Decoder@Jpeg@@AEAAEH@Z DD 05031101H
	DD	0920e0311H
	DD	0500aH
xdata	ENDS
;	COMDAT xdata
xdata	SEGMENT
$unwind$?GetImage@Decoder@Jpeg@@QEBAPEAEXZ DD 05030d01H
	DD	0920a030dH
	DD	05006H
xdata	ENDS
;	COMDAT xdata
xdata	SEGMENT
$unwind$?GetHeight@Decoder@Jpeg@@QEBAHXZ DD 05030d01H
	DD	0720a030dH
	DD	05006H
xdata	ENDS
;	COMDAT xdata
xdata	SEGMENT
$unwind$?GetWidth@Decoder@Jpeg@@QEBAHXZ DD 05030d01H
	DD	0720a030dH
	DD	05006H
xdata	ENDS
;	COMDAT xdata
xdata	SEGMENT
$unwind$?GetResult@Decoder@Jpeg@@QEBA?AW4DecodeResult@12@XZ DD 05030d01H
	DD	0720a030dH
	DD	05006H
xdata	ENDS
;	COMDAT xdata
xdata	SEGMENT
$unwind$??0Decoder@Jpeg@@QEAA@PEBEIP6APEAXI@ZP6AXPEAX@Z@Z DD 025042101H
	DD	011c2321H
	DD	050150014H
xdata	ENDS
; Function compile flags: /Odtp /ZI
; File C:\Users\paras\source\repos\grep-name\XenevaOS\Process\AudioPlayer\main.cpp
;	COMDAT main
_TEXT	SEGMENT
file$ = 0
edit$ = 8
pm$ = 16
browse$ = 24
item$ = 32
help$ = 40
about$ = 48
prevbutt$ = 56
playbutt$ = 64
nextbutt$ = 72
e$ = 80
err$1 = 256
tv170 = 324
argc$ = 352
argv$ = 360
main	PROC						; COMDAT

; 351  : int main(int argc, char* argv[]){

$LN7:
	mov	QWORD PTR [rsp+16], rdx
	mov	DWORD PTR [rsp+8], ecx
	push	rbp
	sub	rsp, 400				; 00000190H
	lea	rbp, QWORD PTR [rsp+64]

; 352  : 
; 353  : 	app = ChitralekhaStartApp(argc, argv);

	mov	rdx, QWORD PTR argv$[rbp]
	mov	ecx, DWORD PTR argc$[rbp]
	call	ChitralekhaStartApp
	mov	QWORD PTR ?app@@3PEAU_ChApp_@@EA, rax	; app

; 354  : 	mainWin = ChCreateWindow(app, WINDOW_FLAG_MOVABLE, "Accent", 100, 100, CHITRALEKHA_DEFAULT_WIN_WIDTH, 

	mov	DWORD PTR [rsp+48], 500			; 000001f4H
	mov	DWORD PTR [rsp+40], 400			; 00000190H
	mov	DWORD PTR [rsp+32], 100			; 00000064H
	mov	r9d, 100				; 00000064H
	lea	r8, OFFSET FLAT:??_C@_06NFPPHDMM@Accent@
	mov	dx, 1
	mov	rcx, QWORD PTR ?app@@3PEAU_ChApp_@@EA	; app
	call	ChCreateWindow
	mov	QWORD PTR ?mainWin@@3PEAU_chwin_@@EA, rax ; mainWin

; 355  : 		500);
; 356  : 
; 357  : 	_music_library_drawn = false;

	mov	BYTE PTR ?_music_library_drawn@@3DA, 0	; _music_library_drawn

; 358  : 	_start_player = false;

	mov	BYTE PTR ?_start_player@@3DA, 0		; _start_player

; 359  : 	selectedFile = NULL;

	mov	QWORD PTR ?selectedFile@@3PEADEA, 0	; selectedFile

; 360  : 
; 361  : 	if (argc > 1) {

	cmp	DWORD PTR argc$[rbp], 1
	jle	SHORT $LN4@main

; 362  : 		selectedFile = argv[1];

	mov	eax, 8
	imul	rax, rax, 1
	mov	rcx, QWORD PTR argv$[rbp]
	mov	rax, QWORD PTR [rcx+rax]
	mov	QWORD PTR ?selectedFile@@3PEADEA, rax	; selectedFile

; 363  : 		_auto_start = true;

	mov	BYTE PTR ?_auto_start@@3DA, 1		; _auto_start

; 364  : 		_file = _KeOpenFile(selectedFile, FILE_OPEN_READ_ONLY);

	mov	edx, 2
	mov	rcx, QWORD PTR ?selectedFile@@3PEADEA	; selectedFile
	call	_KeOpenFile
	mov	DWORD PTR ?_file@@3HA, eax		; _file

; 365  : 		_start_player = true;

	mov	BYTE PTR ?_start_player@@3DA, 1		; _start_player
$LN4@main:

; 366  : 	}
; 367  : 	
; 368  : 	mainWin->ChCloseWin = AudioPlayerClose;

	mov	rax, QWORD PTR ?mainWin@@3PEAU_chwin_@@EA ; mainWin
	lea	rcx, OFFSET FLAT:?AudioPlayerClose@@YAXPEAU_chwin_@@@Z ; AudioPlayerClose
	mov	QWORD PTR [rax+216], rcx

; 369  : 
; 370  : 	mainMenubar = ChCreateMenubar(mainWin);

	mov	rcx, QWORD PTR ?mainWin@@3PEAU_chwin_@@EA ; mainWin
	call	ChCreateMenubar
	mov	QWORD PTR ?mainMenubar@@3PEAU_menubar_@@EA, rax ; mainMenubar

; 371  : 
; 372  : 	ChMenuButton *file = ChCreateMenubutton(mainMenubar, "File");

	lea	rdx, OFFSET FLAT:??_C@_04PBAHLACE@File@
	mov	rcx, QWORD PTR ?mainMenubar@@3PEAU_menubar_@@EA ; mainMenubar
	call	ChCreateMenubutton
	mov	QWORD PTR file$[rbp], rax

; 373  : 	ChMenubarAddButton(mainMenubar, file);

	mov	rdx, QWORD PTR file$[rbp]
	mov	rcx, QWORD PTR ?mainMenubar@@3PEAU_menubar_@@EA ; mainMenubar
	call	ChMenubarAddButton

; 374  : 	ChMenuButton *edit = ChCreateMenubutton(mainMenubar, "Help");

	lea	rdx, OFFSET FLAT:??_C@_04DDFEFHOJ@Help@
	mov	rcx, QWORD PTR ?mainMenubar@@3PEAU_menubar_@@EA ; mainMenubar
	call	ChCreateMenubutton
	mov	QWORD PTR edit$[rbp], rax

; 375  : 	ChMenubarAddButton(mainMenubar, edit);

	mov	rdx, QWORD PTR edit$[rbp]
	mov	rcx, QWORD PTR ?mainMenubar@@3PEAU_menubar_@@EA ; mainMenubar
	call	ChMenubarAddButton

; 376  : 
; 377  : 	ChPopupMenu* pm = ChCreatePopupMenu(mainWin,NULL);

	xor	edx, edx
	mov	rcx, QWORD PTR ?mainWin@@3PEAU_chwin_@@EA ; mainWin
	call	ChCreatePopupMenu
	mov	QWORD PTR pm$[rbp], rax

; 378  : 	ChMenuItem* browse = ChCreateMenuItem("Select Song...", pm);

	mov	rdx, QWORD PTR pm$[rbp]
	lea	rcx, OFFSET FLAT:??_C@_0P@OJOJALEH@Select?5Song?4?4?4@
	call	ChCreateMenuItem
	mov	QWORD PTR browse$[rbp], rax

; 379  : 	browse->wid.ChActionHandler = BrowseMenuActionHandler;

	mov	rax, QWORD PTR browse$[rbp]
	lea	rcx, OFFSET FLAT:?BrowseMenuActionHandler@@YAXPEAU_ChWidget_@@PEAU_chwin_@@@Z ; BrowseMenuActionHandler
	mov	QWORD PTR [rax+32], rcx

; 380  : 	ChMenuItem* item = ChCreateMenuItem("Exit", pm);

	mov	rdx, QWORD PTR pm$[rbp]
	lea	rcx, OFFSET FLAT:??_C@_04LBABLPF@Exit@
	call	ChCreateMenuItem
	mov	QWORD PTR item$[rbp], rax

; 381  : 	item->wid.ChActionHandler = ExitItemClicked;

	mov	rax, QWORD PTR item$[rbp]
	lea	rcx, OFFSET FLAT:?ExitItemClicked@@YAXPEAU_ChWidget_@@PEAU_chwin_@@@Z ; ExitItemClicked
	mov	QWORD PTR [rax+32], rcx

; 382  : 	ChMenuButtonAddMenu(file, pm);

	mov	rdx, QWORD PTR pm$[rbp]
	mov	rcx, QWORD PTR file$[rbp]
	call	ChMenuButtonAddMenu

; 383  : 
; 384  : 	ChPopupMenu* help = ChCreatePopupMenu(mainWin, NULL);

	xor	edx, edx
	mov	rcx, QWORD PTR ?mainWin@@3PEAU_chwin_@@EA ; mainWin
	call	ChCreatePopupMenu
	mov	QWORD PTR help$[rbp], rax

; 385  : 	ChMenuItem* about = ChCreateMenuItem("About", help);

	mov	rdx, QWORD PTR help$[rbp]
	lea	rcx, OFFSET FLAT:??_C@_05BDOHFCKE@About@
	call	ChCreateMenuItem
	mov	QWORD PTR about$[rbp], rax

; 386  : 	about->wid.ChActionHandler = AboutClicked;

	mov	rax, QWORD PTR about$[rbp]
	lea	rcx, OFFSET FLAT:?AboutClicked@@YAXPEAU_ChWidget_@@PEAU_chwin_@@@Z ; AboutClicked
	mov	QWORD PTR [rax+32], rcx

; 387  : 	ChMenuButtonAddMenu(edit, help);

	mov	rdx, QWORD PTR help$[rbp]
	mov	rcx, QWORD PTR edit$[rbp]
	call	ChMenuButtonAddMenu

; 388  : 
; 389  : 	ChWindowAddWidget(mainWin, (ChWidget*)mainMenubar);

	mov	rdx, QWORD PTR ?mainMenubar@@3PEAU_menubar_@@EA ; mainMenubar
	mov	rcx, QWORD PTR ?mainWin@@3PEAU_chwin_@@EA ; mainWin
	call	ChWindowAddWidget

; 390  : 
; 391  : 	
; 392  : 	ChButton *prevbutt = ChCreateButton(10, mainWin->info->height - 100, 100,65, "Previous");

	mov	rax, QWORD PTR ?mainWin@@3PEAU_chwin_@@EA ; mainWin
	mov	rax, QWORD PTR [rax+40]
	mov	eax, DWORD PTR [rax+4116]
	sub	eax, 100				; 00000064H
	lea	rcx, OFFSET FLAT:??_C@_08CAGLMDLD@Previous@
	mov	QWORD PTR [rsp+32], rcx
	mov	r9d, 65					; 00000041H
	mov	r8d, 100				; 00000064H
	mov	edx, eax
	mov	ecx, 10
	call	ChCreateButton
	mov	QWORD PTR prevbutt$[rbp], rax

; 393  : 	ChWindowAddWidget(mainWin, (ChWidget*)prevbutt);

	mov	rdx, QWORD PTR prevbutt$[rbp]
	mov	rcx, QWORD PTR ?mainWin@@3PEAU_chwin_@@EA ; mainWin
	call	ChWindowAddWidget

; 394  : 
; 395  : 	ChButton *playbutt = ChCreateButton(mainWin->info->width / 2 - 140/2, mainWin->info->height - 100, 140, 65, "Play/Pause");

	mov	rax, QWORD PTR ?mainWin@@3PEAU_chwin_@@EA ; mainWin
	mov	rax, QWORD PTR [rax+40]
	mov	eax, DWORD PTR [rax+4116]
	sub	eax, 100				; 00000064H
	mov	DWORD PTR tv170[rbp], eax
	mov	rcx, QWORD PTR ?mainWin@@3PEAU_chwin_@@EA ; mainWin
	mov	rcx, QWORD PTR [rcx+40]
	mov	eax, DWORD PTR [rcx+4112]
	cdq
	sub	eax, edx
	sar	eax, 1
	sub	eax, 70					; 00000046H
	lea	rcx, OFFSET FLAT:??_C@_0L@FMOPGOKP@Play?1Pause@
	mov	QWORD PTR [rsp+32], rcx
	mov	r9d, 65					; 00000041H
	mov	r8d, 140				; 0000008cH
	mov	ecx, DWORD PTR tv170[rbp]
	mov	edx, ecx
	mov	ecx, eax
	call	ChCreateButton
	mov	QWORD PTR playbutt$[rbp], rax

; 396  : 	playbutt->base.ChActionHandler = PlayPauseButtonAction;

	mov	rax, QWORD PTR playbutt$[rbp]
	lea	rcx, OFFSET FLAT:?PlayPauseButtonAction@@YAXPEAU_ChWidget_@@PEAU_chwin_@@@Z ; PlayPauseButtonAction
	mov	QWORD PTR [rax+32], rcx

; 397  : 	ChWindowAddWidget(mainWin, (ChWidget*)playbutt);

	mov	rdx, QWORD PTR playbutt$[rbp]
	mov	rcx, QWORD PTR ?mainWin@@3PEAU_chwin_@@EA ; mainWin
	call	ChWindowAddWidget

; 398  : 
; 399  : 	ChButton *nextbutt = ChCreateButton((playbutt->base.x + playbutt->base.w) + 18, mainWin->info->height - 100, 100, 65, "Next");

	mov	rax, QWORD PTR ?mainWin@@3PEAU_chwin_@@EA ; mainWin
	mov	rax, QWORD PTR [rax+40]
	mov	eax, DWORD PTR [rax+4116]
	sub	eax, 100				; 00000064H
	mov	rcx, QWORD PTR playbutt$[rbp]
	mov	ecx, DWORD PTR [rcx]
	mov	rdx, QWORD PTR playbutt$[rbp]
	mov	edx, DWORD PTR [rdx+8]
	lea	ecx, DWORD PTR [rcx+rdx+18]
	lea	rdx, OFFSET FLAT:??_C@_04MDFHGMOB@Next@
	mov	QWORD PTR [rsp+32], rdx
	mov	r9d, 65					; 00000041H
	mov	r8d, 100				; 00000064H
	mov	edx, eax
	call	ChCreateButton
	mov	QWORD PTR nextbutt$[rbp], rax

; 400  : 	ChWindowAddWidget(mainWin, (ChWidget*)nextbutt);

	mov	rdx, QWORD PTR nextbutt$[rbp]
	mov	rcx, QWORD PTR ?mainWin@@3PEAU_chwin_@@EA ; mainWin
	call	ChWindowAddWidget

; 401  : 
; 402  : 	ChWindowPaint(mainWin);

	mov	rcx, QWORD PTR ?mainWin@@3PEAU_chwin_@@EA ; mainWin
	call	ChWindowPaint

; 403  : 
; 404  : 	DrawWallpaper(mainWin->canv, "/musicbk.jpg", 10, 64);

	mov	r9d, 64					; 00000040H
	mov	r8d, 10
	lea	rdx, OFFSET FLAT:??_C@_0N@MEOKKLLB@?1musicbk?4jpg@
	mov	rax, QWORD PTR ?mainWin@@3PEAU_chwin_@@EA ; mainWin
	mov	rcx, QWORD PTR [rax+24]
	call	?DrawWallpaper@@YAXPEAU_ChCanvas_@@PEADHH@Z ; DrawWallpaper

; 405  : 	ChWindowUpdate(mainWin, 0, 0, mainWin->info->width,

	mov	rax, QWORD PTR ?mainWin@@3PEAU_chwin_@@EA ; mainWin
	mov	rax, QWORD PTR [rax+40]
	mov	rcx, QWORD PTR ?mainWin@@3PEAU_chwin_@@EA ; mainWin
	mov	rcx, QWORD PTR [rcx+40]
	mov	BYTE PTR [rsp+48], 0
	mov	BYTE PTR [rsp+40], 1
	mov	eax, DWORD PTR [rax+4116]
	mov	DWORD PTR [rsp+32], eax
	mov	r9d, DWORD PTR [rcx+4112]
	xor	r8d, r8d
	xor	edx, edx
	mov	rcx, QWORD PTR ?mainWin@@3PEAU_chwin_@@EA ; mainWin
	call	ChWindowUpdate

; 406  : 	mainWin->info->height, 1, 0);
; 407  : 	
; 408  : 	mainCanvas = mainWin->canv;

	mov	rax, QWORD PTR ?mainWin@@3PEAU_chwin_@@EA ; mainWin
	mov	rax, QWORD PTR [rax+24]
	mov	QWORD PTR ?mainCanvas@@3PEAU_ChCanvas_@@EA, rax ; mainCanvas

; 409  : 
; 410  : 	soundbuff = malloc(4096);

	mov	ecx, 4096				; 00001000H
	call	malloc
	mov	QWORD PTR ?soundbuff@@3PEAXEA, rax	; soundbuff

; 411  : 	memset(soundbuff, 0, 4096);

	mov	r8d, 4096				; 00001000H
	xor	edx, edx
	mov	rcx, QWORD PTR ?soundbuff@@3PEAXEA	; soundbuff
	call	memset

; 412  : 
; 413  : 
; 414  : 	/* prepare the browser UI*/
; 415  : 	PrepareBrowserUI();

	call	?PrepareBrowserUI@@YAXXZ		; PrepareBrowserUI

; 416  : 
; 417  : 	//int threadIdx = _KeCreateThread(PlayerThread,"accent");
; 418  : 
; 419  : 	PostEvent e;
; 420  : 	memset(&e, 0, sizeof(PostEvent));

	mov	r8d, 176				; 000000b0H
	xor	edx, edx
	lea	rcx, QWORD PTR e$[rbp]
	call	memset

; 421  : 
; 422  : 	ChWindowBroadcastIcon(app, "/icons/media.bmp");

	lea	rdx, OFFSET FLAT:??_C@_0BB@DKIANJEB@?1icons?1media?4bmp@
	mov	rcx, QWORD PTR ?app@@3PEAU_ChApp_@@EA	; app
	call	ChWindowBroadcastIcon

; 423  : 
; 424  : 	setjmp(mainWin->jump);

	mov	rax, QWORD PTR ?mainWin@@3PEAU_chwin_@@EA ; mainWin
	add	rax, 136				; 00000088H
	mov	rcx, rax
	call	setjmp
$LN2@main:

; 425  : 	while (1) {

	xor	eax, eax
	cmp	eax, 1
	je	SHORT $LN3@main

; 426  : 		int err = _KeFileIoControl(app->postboxfd, POSTBOX_GET_EVENT, &e);

	lea	r8, QWORD PTR e$[rbp]
	mov	edx, 404				; 00000194H
	mov	rax, QWORD PTR ?app@@3PEAU_ChApp_@@EA	; app
	mov	ecx, DWORD PTR [rax]
	call	_KeFileIoControl
	mov	DWORD PTR err$1[rbp], eax

; 427  : 		WindowHandleMessage(&e);

	lea	rcx, QWORD PTR e$[rbp]
	call	?WindowHandleMessage@@YAXPEAU_post_event_@@@Z ; WindowHandleMessage

; 428  : 		if (err == POSTBOX_NO_EVENT)

	cmp	DWORD PTR err$1[rbp], -1
	jne	SHORT $LN5@main

; 429  : 			_KePauseThread();

	call	_KePauseThread
$LN5@main:

; 430  : 	}

	jmp	SHORT $LN2@main
$LN3@main:

; 431  : }

	lea	rsp, QWORD PTR [rbp+336]
	pop	rbp
	ret	0
main	ENDP
_TEXT	ENDS
; Function compile flags: /Odtp /ZI
; File C:\Users\paras\source\repos\grep-name\XenevaOS\Process\AudioPlayer\main.cpp
;	COMDAT ?AudioPlayerClose@@YAXPEAU_chwin_@@@Z
_TEXT	SEGMENT
i$1 = 0
wid$2 = 8
win$ = 96
?AudioPlayerClose@@YAXPEAU_chwin_@@@Z PROC		; AudioPlayerClose, COMDAT

; 331  : void AudioPlayerClose(ChWindow* win) {

$LN9:
	mov	QWORD PTR [rsp+8], rcx
	push	rbp
	sub	rsp, 112				; 00000070H
	lea	rbp, QWORD PTR [rsp+32]

; 332  : 	for (int i = 0; i < browserWidgetList->pointer; i++) {

	mov	DWORD PTR i$1[rbp], 0
	jmp	SHORT $LN4@AudioPlaye
$LN2@AudioPlaye:
	mov	eax, DWORD PTR i$1[rbp]
	inc	eax
	mov	DWORD PTR i$1[rbp], eax
$LN4@AudioPlaye:
	mov	rax, QWORD PTR ?browserWidgetList@@3PEAU_list_@@EA ; browserWidgetList
	mov	eax, DWORD PTR [rax]
	cmp	DWORD PTR i$1[rbp], eax
	jae	SHORT $LN3@AudioPlaye

; 333  : 		ChWidget* wid = (ChWidget*)list_get_at(browserWidgetList, i);

	mov	edx, DWORD PTR i$1[rbp]
	mov	rcx, QWORD PTR ?browserWidgetList@@3PEAU_list_@@EA ; browserWidgetList
	call	list_get_at
	mov	QWORD PTR wid$2[rbp], rax

; 334  : 		if (wid == (ChWidget*)mainMenubar){

	mov	rax, QWORD PTR ?mainMenubar@@3PEAU_menubar_@@EA ; mainMenubar
	cmp	QWORD PTR wid$2[rbp], rax
	jne	SHORT $LN5@AudioPlaye

; 335  : 			list_remove(browserWidgetList, i);

	mov	edx, DWORD PTR i$1[rbp]
	mov	rcx, QWORD PTR ?browserWidgetList@@3PEAU_list_@@EA ; browserWidgetList
	call	list_remove

; 336  : 		}

	jmp	SHORT $LN6@AudioPlaye
$LN5@AudioPlaye:

; 337  : 		else {
; 338  : 			if (wid->ChDestroy)

	mov	rax, QWORD PTR wid$2[rbp]
	cmp	QWORD PTR [rax+72], 0
	je	SHORT $LN7@AudioPlaye

; 339  : 				wid->ChDestroy(wid, win);

	mov	rdx, QWORD PTR win$[rbp]
	mov	rcx, QWORD PTR wid$2[rbp]
	mov	rax, QWORD PTR wid$2[rbp]
	call	QWORD PTR [rax+72]
$LN7@AudioPlaye:
$LN6@AudioPlaye:

; 340  : 		}
; 341  : 	}

	jmp	SHORT $LN2@AudioPlaye
$LN3@AudioPlaye:

; 342  : 	list_clear_all(browserWidgetList);

	mov	rcx, QWORD PTR ?browserWidgetList@@3PEAU_list_@@EA ; browserWidgetList
	call	list_clear_all

; 343  : 	free(browserWidgetList);

	mov	rcx, QWORD PTR ?browserWidgetList@@3PEAU_list_@@EA ; browserWidgetList
	call	free

; 344  : 	ChDeAllocateBuffer(browserCanvas);

	mov	rcx, QWORD PTR ?browserCanvas@@3PEAU_ChCanvas_@@EA ; browserCanvas
	call	ChDeAllocateBuffer

; 345  : 	free(browserCanvas);

	mov	rcx, QWORD PTR ?browserCanvas@@3PEAU_ChCanvas_@@EA ; browserCanvas
	call	free

; 346  : }

	lea	rsp, QWORD PTR [rbp+80]
	pop	rbp
	ret	0
?AudioPlayerClose@@YAXPEAU_chwin_@@@Z ENDP		; AudioPlayerClose
_TEXT	ENDS
; Function compile flags: /Odtp /ZI
; File C:\Users\paras\source\repos\grep-name\XenevaOS\Process\AudioPlayer\main.cpp
;	COMDAT ?PrepareBrowserUI@@YAXXZ
_TEXT	SEGMENT
sp$ = 0
selectButt$ = 8
?PrepareBrowserUI@@YAXXZ PROC				; PrepareBrowserUI, COMDAT

; 300  : void PrepareBrowserUI(){

$LN3:
	push	rbp
	sub	rsp, 128				; 00000080H
	lea	rbp, QWORD PTR [rsp+48]

; 301  : 	/* allocate the browser canvas */
; 302  : 	browserCanvas = ChCreateCanvas(mainWin->canv->canvasWidth, mainWin->canv->canvasHeight);

	mov	rax, QWORD PTR ?mainWin@@3PEAU_chwin_@@EA ; mainWin
	mov	rax, QWORD PTR [rax+24]
	mov	rcx, QWORD PTR ?mainWin@@3PEAU_chwin_@@EA ; mainWin
	mov	rcx, QWORD PTR [rcx+24]
	mov	edx, DWORD PTR [rax+28]
	mov	ecx, DWORD PTR [rcx+24]
	call	ChCreateCanvas
	mov	QWORD PTR ?browserCanvas@@3PEAU_ChCanvas_@@EA, rax ; browserCanvas

; 303  : 	ChAllocateBuffer(browserCanvas);

	mov	rcx, QWORD PTR ?browserCanvas@@3PEAU_ChCanvas_@@EA ; browserCanvas
	call	ChAllocateBuffer

; 304  : 	mainWidgetList = mainWin->widgets;

	mov	rax, QWORD PTR ?mainWin@@3PEAU_chwin_@@EA ; mainWin
	mov	rax, QWORD PTR [rax+80]
	mov	QWORD PTR ?mainWidgetList@@3PEAU_list_@@EA, rax ; mainWidgetList

; 305  : 	browserWidgetList = initialize_list();

	call	initialize_list
	mov	QWORD PTR ?browserWidgetList@@3PEAU_list_@@EA, rax ; browserWidgetList

; 306  : 
; 307  : 	musicIcon = ChCreateIcon();

	call	ChCreateIcon
	mov	QWORD PTR ?musicIcon@@3PEAU_icon_@@EA, rax ; musicIcon

; 308  : 	ChIconOpen(musicIcon, "/icons/music.bmp");

	lea	rdx, OFFSET FLAT:??_C@_0BB@KNPGACAJ@?1icons?1music?4bmp@
	mov	rcx, QWORD PTR ?musicIcon@@3PEAU_icon_@@EA ; musicIcon
	call	ChIconOpen

; 309  : 	ChIconRead(musicIcon);

	mov	rcx, QWORD PTR ?musicIcon@@3PEAU_icon_@@EA ; musicIcon
	call	ChIconRead

; 310  : 
; 311  : 	ChScrollPane* sp = ChCreateScrollPane(mainWin, 10, 64, 100, 380);

	mov	DWORD PTR [rsp+32], 380			; 0000017cH
	mov	r9d, 100				; 00000064H
	mov	r8d, 64					; 00000040H
	mov	edx, 10
	mov	rcx, QWORD PTR ?mainWin@@3PEAU_chwin_@@EA ; mainWin
	call	ChCreateScrollPane
	mov	QWORD PTR sp$[rbp], rax

; 312  : 	browseList = ChCreateListView(10, 100, 380, 380);

	mov	r9d, 380				; 0000017cH
	mov	r8d, 380				; 0000017cH
	mov	edx, 100				; 00000064H
	mov	ecx, 10
	call	ChCreateListView
	mov	QWORD PTR ?browseList@@3PEAU_list_view_@@EA, rax ; browseList

; 313  : 	ChListViewSetScrollpane(browseList, sp);

	mov	rdx, QWORD PTR sp$[rbp]
	mov	rcx, QWORD PTR ?browseList@@3PEAU_list_view_@@EA ; browseList
	call	ChListViewSetScrollpane

; 314  : 
; 315  : 	MusicPrepareLibrary(browseList);

	mov	rcx, QWORD PTR ?browseList@@3PEAU_list_view_@@EA ; browseList
	call	?MusicPrepareLibrary@@YAXPEAU_list_view_@@@Z ; MusicPrepareLibrary

; 316  : 
; 317  : 	ChButton *selectButt = ChCreateButton(mainWin->info->width - 75, 36, 65, 35, "Select");

	mov	rax, QWORD PTR ?mainWin@@3PEAU_chwin_@@EA ; mainWin
	mov	rax, QWORD PTR [rax+40]
	mov	eax, DWORD PTR [rax+4112]
	sub	eax, 75					; 0000004bH
	lea	rcx, OFFSET FLAT:??_C@_06HJGPBJLE@Select@
	mov	QWORD PTR [rsp+32], rcx
	mov	r9d, 35					; 00000023H
	mov	r8d, 65					; 00000041H
	mov	edx, 36					; 00000024H
	mov	ecx, eax
	call	ChCreateButton
	mov	QWORD PTR selectButt$[rbp], rax

; 318  : 	selectButt->base.ChActionHandler = SelectButtonActionHandler;

	mov	rax, QWORD PTR selectButt$[rbp]
	lea	rcx, OFFSET FLAT:?SelectButtonActionHandler@@YAXPEAU_ChWidget_@@PEAU_chwin_@@@Z ; SelectButtonActionHandler
	mov	QWORD PTR [rax+32], rcx

; 319  : 	list_add(browserWidgetList, mainMenubar);

	mov	rdx, QWORD PTR ?mainMenubar@@3PEAU_menubar_@@EA ; mainMenubar
	mov	rcx, QWORD PTR ?browserWidgetList@@3PEAU_list_@@EA ; browserWidgetList
	call	list_add

; 320  : 	list_add(browserWidgetList, browseList);

	mov	rdx, QWORD PTR ?browseList@@3PEAU_list_view_@@EA ; browseList
	mov	rcx, QWORD PTR ?browserWidgetList@@3PEAU_list_@@EA ; browserWidgetList
	call	list_add

; 321  : 	list_add(browserWidgetList, sp);

	mov	rdx, QWORD PTR sp$[rbp]
	mov	rcx, QWORD PTR ?browserWidgetList@@3PEAU_list_@@EA ; browserWidgetList
	call	list_add

; 322  : 	list_add(browserWidgetList, selectButt);

	mov	rdx, QWORD PTR selectButt$[rbp]
	mov	rcx, QWORD PTR ?browserWidgetList@@3PEAU_list_@@EA ; browserWidgetList
	call	list_add

; 323  : }

	lea	rsp, QWORD PTR [rbp+80]
	pop	rbp
	ret	0
?PrepareBrowserUI@@YAXXZ ENDP				; PrepareBrowserUI
_TEXT	ENDS
; Function compile flags: /Odtp /ZI
; File C:\Users\paras\source\repos\grep-name\XenevaOS\Process\AudioPlayer\main.cpp
;	COMDAT ?PlayPauseButtonAction@@YAXPEAU_ChWidget_@@PEAU_chwin_@@@Z
_TEXT	SEGMENT
path$1 = 0
wid$ = 112
mainWin$ = 120
?PlayPauseButtonAction@@YAXPEAU_ChWidget_@@PEAU_chwin_@@@Z PROC ; PlayPauseButtonAction, COMDAT

; 283  : void PlayPauseButtonAction(ChWidget* wid, ChWindow* mainWin) {

$LN5:
	mov	QWORD PTR [rsp+16], rdx
	mov	QWORD PTR [rsp+8], rcx
	push	rbp
	sub	rsp, 128				; 00000080H
	lea	rbp, QWORD PTR [rsp+32]

; 284  : 	if (selectedFile != NULL) {

	cmp	QWORD PTR ?selectedFile@@3PEADEA, 0	; selectedFile
	je	$LN2@PlayPauseB

; 285  : 		if (!_auto_start) {

	movsx	eax, BYTE PTR ?_auto_start@@3DA		; _auto_start
	test	eax, eax
	jne	SHORT $LN3@PlayPauseB

; 286  : 			char path[32];
; 287  : 			memset(path, 0, 32);

	mov	r8d, 32					; 00000020H
	xor	edx, edx
	lea	rcx, QWORD PTR path$1[rbp]
	call	memset

; 288  : 			strcpy(path, "/MUSIC/");

	lea	rdx, OFFSET FLAT:??_C@_07DKHLHEMJ@?1MUSIC?1@
	lea	rcx, QWORD PTR path$1[rbp]
	call	strcpy

; 289  : 			strcpy(path + strlen("/MUSIC/"), selectedFile);

	lea	rcx, OFFSET FLAT:??_C@_07DKHLHEMJ@?1MUSIC?1@
	call	strlen
	lea	rax, QWORD PTR path$1[rbp+rax]
	mov	rdx, QWORD PTR ?selectedFile@@3PEADEA	; selectedFile
	mov	rcx, rax
	call	strcpy

; 290  : 			_KePrint("Selected file -> %s \r\n", path);

	lea	rdx, QWORD PTR path$1[rbp]
	lea	rcx, OFFSET FLAT:??_C@_0BH@GHLPKOEP@Selected?5file?5?9?$DO?5?$CFs?5?$AN?6@
	call	_KePrint

; 291  : 			_file = _KeOpenFile(path, FILE_OPEN_READ_ONLY);

	mov	edx, 2
	lea	rcx, QWORD PTR path$1[rbp]
	call	_KeOpenFile
	mov	DWORD PTR ?_file@@3HA, eax		; _file

; 292  : 			_KePrint("_file -> %d \r\n", _file);

	mov	edx, DWORD PTR ?_file@@3HA		; _file
	lea	rcx, OFFSET FLAT:??_C@_0P@JFAFLHF@_file?5?9?$DO?5?$CFd?5?$AN?6@
	call	_KePrint

; 293  : 			_start_player = 1;

	mov	BYTE PTR ?_start_player@@3DA, 1		; _start_player
$LN3@PlayPauseB:

; 294  : 		}
; 295  : 		_KePrint("selected File -> %s \r\n", selectedFile);

	mov	rdx, QWORD PTR ?selectedFile@@3PEADEA	; selectedFile
	lea	rcx, OFFSET FLAT:??_C@_0BH@KIDONKAP@selected?5File?5?9?$DO?5?$CFs?5?$AN?6@
	call	_KePrint
$LN2@PlayPauseB:

; 296  : 	}
; 297  : }

	lea	rsp, QWORD PTR [rbp+96]
	pop	rbp
	ret	0
?PlayPauseButtonAction@@YAXPEAU_ChWidget_@@PEAU_chwin_@@@Z ENDP ; PlayPauseButtonAction
_TEXT	ENDS
; Function compile flags: /Odtp /ZI
; File C:\Users\paras\source\repos\grep-name\XenevaOS\Process\AudioPlayer\main.cpp
;	COMDAT ?MusicPrepareLibrary@@YAXPEAU_list_view_@@@Z
_TEXT	SEGMENT
dirfd$ = 0
dirent$ = 8
code$1 = 16
li$2 = 24
lv$ = 112
?MusicPrepareLibrary@@YAXPEAU_list_view_@@@Z PROC	; MusicPrepareLibrary, COMDAT

; 264  : void MusicPrepareLibrary(ChListView *lv) {

$LN8:
	mov	QWORD PTR [rsp+8], rcx
	push	rbp
	sub	rsp, 128				; 00000080H
	lea	rbp, QWORD PTR [rsp+32]

; 265  : 	int dirfd = _KeOpenDir("/music");

	lea	rcx, OFFSET FLAT:??_C@_06KOGCNNHG@?1music@
	call	_KeOpenDir
	mov	DWORD PTR dirfd$[rbp], eax

; 266  : 	XEDirectoryEntry* dirent = (XEDirectoryEntry*)malloc(sizeof(XEDirectoryEntry));

	mov	ecx, 52					; 00000034H
	call	malloc
	mov	QWORD PTR dirent$[rbp], rax

; 267  : 	memset(dirent, 0, sizeof(XEDirectoryEntry));

	mov	r8d, 52					; 00000034H
	xor	edx, edx
	mov	rcx, QWORD PTR dirent$[rbp]
	call	memset
$LN2@MusicPrepa:

; 268  : 	while (1) {

	xor	eax, eax
	cmp	eax, 1
	je	SHORT $LN3@MusicPrepa

; 269  : 		if (dirent->index == -1)

	mov	rax, QWORD PTR dirent$[rbp]
	cmp	DWORD PTR [rax+32], -1
	jne	SHORT $LN4@MusicPrepa

; 270  : 			break;

	jmp	SHORT $LN3@MusicPrepa
$LN4@MusicPrepa:

; 271  : 		int code = _KeReadDir(dirfd, dirent);

	mov	rdx, QWORD PTR dirent$[rbp]
	mov	ecx, DWORD PTR dirfd$[rbp]
	call	_KeReadDir
	mov	DWORD PTR code$1[rbp], eax

; 272  : 		if (code != -1) {

	cmp	DWORD PTR code$1[rbp], -1
	je	SHORT $LN5@MusicPrepa

; 273  : 			if (dirent->flags & FILE_GENERAL){

	mov	rax, QWORD PTR dirent$[rbp]
	movzx	eax, BYTE PTR [rax+48]
	and	eax, 4
	test	eax, eax
	je	SHORT $LN6@MusicPrepa

; 274  : 				ChListItem*li = ChListViewAddItem(mainWin, lv, dirent->filename);

	mov	rax, QWORD PTR dirent$[rbp]
	mov	r8, rax
	mov	rdx, QWORD PTR lv$[rbp]
	mov	rcx, QWORD PTR ?mainWin@@3PEAU_chwin_@@EA ; mainWin
	call	ChListViewAddItem
	mov	QWORD PTR li$2[rbp], rax

; 275  : 				ChListViewSetListItemIcon(li, musicIcon);

	mov	rdx, QWORD PTR ?musicIcon@@3PEAU_icon_@@EA ; musicIcon
	mov	rcx, QWORD PTR li$2[rbp]
	call	ChListViewSetListItemIcon
$LN6@MusicPrepa:
$LN5@MusicPrepa:

; 276  : 			}
; 277  : 
; 278  : 		}
; 279  : 		memset(dirent->filename, 0, 32);

	mov	rax, QWORD PTR dirent$[rbp]
	mov	r8d, 32					; 00000020H
	xor	edx, edx
	mov	rcx, rax
	call	memset

; 280  : 	}

	jmp	SHORT $LN2@MusicPrepa
$LN3@MusicPrepa:

; 281  : }

	lea	rsp, QWORD PTR [rbp+96]
	pop	rbp
	ret	0
?MusicPrepareLibrary@@YAXPEAU_list_view_@@@Z ENDP	; MusicPrepareLibrary
_TEXT	ENDS
; Function compile flags: /Odtp /ZI
; File C:\Users\paras\source\repos\grep-name\XenevaOS\Process\AudioPlayer\main.cpp
;	COMDAT ?SelectButtonActionHandler@@YAXPEAU_ChWidget_@@PEAU_chwin_@@@Z
_TEXT	SEGMENT
li$ = 0
wid$ = 96
win$ = 104
?SelectButtonActionHandler@@YAXPEAU_ChWidget_@@PEAU_chwin_@@@Z PROC ; SelectButtonActionHandler, COMDAT

; 253  : void SelectButtonActionHandler(ChWidget* wid, ChWindow* win) {

$LN4:
	mov	QWORD PTR [rsp+16], rdx
	mov	QWORD PTR [rsp+8], rcx
	push	rbp
	sub	rsp, 112				; 00000070H
	lea	rbp, QWORD PTR [rsp+32]

; 254  : 	ChListItem* li = ChListViewGetSelectedItem(browseList);

	mov	rcx, QWORD PTR ?browseList@@3PEAU_list_view_@@EA ; browseList
	call	ChListViewGetSelectedItem
	mov	QWORD PTR li$[rbp], rax

; 255  : 	if (li) {

	cmp	QWORD PTR li$[rbp], 0
	je	SHORT $LN2@SelectButt

; 256  : 		selectedFile = li->itemText;

	mov	rax, QWORD PTR li$[rbp]
	mov	rax, QWORD PTR [rax+32]
	mov	QWORD PTR ?selectedFile@@3PEADEA, rax	; selectedFile
$LN2@SelectButt:

; 257  : 	}
; 258  : 	_KeProcessSleep(100);

	mov	ecx, 100				; 00000064H
	call	_KeProcessSleep

; 259  : 	UpdateHomeUI();

	call	?UpdateHomeUI@@YAXXZ			; UpdateHomeUI

; 260  : 	_KeProcessSleep(100);

	mov	ecx, 100				; 00000064H
	call	_KeProcessSleep

; 261  : }

	lea	rsp, QWORD PTR [rbp+80]
	pop	rbp
	ret	0
?SelectButtonActionHandler@@YAXPEAU_ChWidget_@@PEAU_chwin_@@@Z ENDP ; SelectButtonActionHandler
_TEXT	ENDS
; Function compile flags: /Odtp /ZI
; File C:\Users\paras\source\repos\grep-name\XenevaOS\Process\AudioPlayer\main.cpp
;	COMDAT ?BrowseMenuActionHandler@@YAXPEAU_ChWidget_@@PEAU_chwin_@@@Z
_TEXT	SEGMENT
wid$ = 80
win$ = 88
?BrowseMenuActionHandler@@YAXPEAU_ChWidget_@@PEAU_chwin_@@@Z PROC ; BrowseMenuActionHandler, COMDAT

; 233  : void BrowseMenuActionHandler(ChWidget* wid, ChWindow* win) {

$LN5:
	mov	QWORD PTR [rsp+16], rdx
	mov	QWORD PTR [rsp+8], rcx
	push	rbp
	sub	rsp, 128				; 00000080H
	lea	rbp, QWORD PTR [rsp+64]

; 234  : 	if (_music_library_drawn == false){

	movsx	eax, BYTE PTR ?_music_library_drawn@@3DA ; _music_library_drawn
	test	eax, eax
	jne	$LN2@BrowseMenu

; 235  : 		mainWin->widgets = browserWidgetList;

	mov	rax, QWORD PTR ?mainWin@@3PEAU_chwin_@@EA ; mainWin
	mov	rcx, QWORD PTR ?browserWidgetList@@3PEAU_list_@@EA ; browserWidgetList
	mov	QWORD PTR [rax+80], rcx

; 236  : 		mainWin->canv = browserCanvas;

	mov	rax, QWORD PTR ?mainWin@@3PEAU_chwin_@@EA ; mainWin
	mov	rcx, QWORD PTR ?browserCanvas@@3PEAU_ChCanvas_@@EA ; browserCanvas
	mov	QWORD PTR [rax+24], rcx

; 237  : 		ChWindowPaint(mainWin);

	mov	rcx, QWORD PTR ?mainWin@@3PEAU_chwin_@@EA ; mainWin
	call	ChWindowPaint

; 238  : 
; 239  : 		ChFontSetSize(mainWin->app->baseFont, 18);

	mov	rax, QWORD PTR ?mainWin@@3PEAU_chwin_@@EA ; mainWin
	mov	rax, QWORD PTR [rax+48]
	mov	edx, 18
	mov	rcx, QWORD PTR [rax+48]
	call	ChFontSetSize

; 240  : 		ChFontDrawText(browserCanvas, mainWin->app->baseFont, "Your Music library.....", 10, 88, 18, LIGHTBLACK);

	mov	rax, QWORD PTR ?mainWin@@3PEAU_chwin_@@EA ; mainWin
	mov	rax, QWORD PTR [rax+48]
	mov	DWORD PTR [rsp+48], -12698050		; ff3e3e3eH
	mov	DWORD PTR [rsp+40], 18
	mov	DWORD PTR [rsp+32], 88			; 00000058H
	mov	r9d, 10
	lea	r8, OFFSET FLAT:??_C@_0BI@HGBDFOPG@Your?5Music?5library?4?4?4?4?4@
	mov	rdx, QWORD PTR [rax+48]
	mov	rcx, QWORD PTR ?browserCanvas@@3PEAU_ChCanvas_@@EA ; browserCanvas
	call	ChFontDrawText

; 241  : 
; 242  : 		ChWindowUpdate(mainWin, 0, 0, mainWin->info->width, mainWin->info->height, 1, 0);

	mov	rax, QWORD PTR ?mainWin@@3PEAU_chwin_@@EA ; mainWin
	mov	rax, QWORD PTR [rax+40]
	mov	rcx, QWORD PTR ?mainWin@@3PEAU_chwin_@@EA ; mainWin
	mov	rcx, QWORD PTR [rcx+40]
	mov	BYTE PTR [rsp+48], 0
	mov	BYTE PTR [rsp+40], 1
	mov	eax, DWORD PTR [rax+4116]
	mov	DWORD PTR [rsp+32], eax
	mov	r9d, DWORD PTR [rcx+4112]
	xor	r8d, r8d
	xor	edx, edx
	mov	rcx, QWORD PTR ?mainWin@@3PEAU_chwin_@@EA ; mainWin
	call	ChWindowUpdate

; 243  : 		_music_library_drawn = true;

	mov	BYTE PTR ?_music_library_drawn@@3DA, 1	; _music_library_drawn

; 244  : 	}

	jmp	SHORT $LN3@BrowseMenu
$LN2@BrowseMenu:

; 245  : 	else{
; 246  : 		_KePrint("Updating the browsing \r\n");

	lea	rcx, OFFSET FLAT:??_C@_0BJ@PIBNCIDG@Updating?5the?5browsing?5?$AN?6@
	call	_KePrint

; 247  : 		UpdateBrowserUI();

	call	?UpdateBrowserUI@@YAXXZ			; UpdateBrowserUI

; 248  : 		_KeProcessSleep(100);

	mov	ecx, 100				; 00000064H
	call	_KeProcessSleep
$LN3@BrowseMenu:

; 249  : 	}
; 250  : }

	lea	rsp, QWORD PTR [rbp+64]
	pop	rbp
	ret	0
?BrowseMenuActionHandler@@YAXPEAU_ChWidget_@@PEAU_chwin_@@@Z ENDP ; BrowseMenuActionHandler
_TEXT	ENDS
; Function compile flags: /Odtp /ZI
; File C:\Users\paras\source\repos\grep-name\XenevaOS\Process\AudioPlayer\main.cpp
;	COMDAT ?UpdateBrowserUI@@YAXXZ
_TEXT	SEGMENT
?UpdateBrowserUI@@YAXXZ PROC				; UpdateBrowserUI, COMDAT

; 226  : void UpdateBrowserUI() {

$LN3:
	push	rbp
	sub	rsp, 128				; 00000080H
	lea	rbp, QWORD PTR [rsp+64]

; 227  : 	mainWin->canv = browserCanvas;

	mov	rax, QWORD PTR ?mainWin@@3PEAU_chwin_@@EA ; mainWin
	mov	rcx, QWORD PTR ?browserCanvas@@3PEAU_ChCanvas_@@EA ; browserCanvas
	mov	QWORD PTR [rax+24], rcx

; 228  : 	mainWin->widgets = browserWidgetList;

	mov	rax, QWORD PTR ?mainWin@@3PEAU_chwin_@@EA ; mainWin
	mov	rcx, QWORD PTR ?browserWidgetList@@3PEAU_list_@@EA ; browserWidgetList
	mov	QWORD PTR [rax+80], rcx

; 229  : 	ChWindowUpdate(mainWin, 0, 0, mainWin->info->width, mainWin->info->height, 1, 0);

	mov	rax, QWORD PTR ?mainWin@@3PEAU_chwin_@@EA ; mainWin
	mov	rax, QWORD PTR [rax+40]
	mov	rcx, QWORD PTR ?mainWin@@3PEAU_chwin_@@EA ; mainWin
	mov	rcx, QWORD PTR [rcx+40]
	mov	BYTE PTR [rsp+48], 0
	mov	BYTE PTR [rsp+40], 1
	mov	eax, DWORD PTR [rax+4116]
	mov	DWORD PTR [rsp+32], eax
	mov	r9d, DWORD PTR [rcx+4112]
	xor	r8d, r8d
	xor	edx, edx
	mov	rcx, QWORD PTR ?mainWin@@3PEAU_chwin_@@EA ; mainWin
	call	ChWindowUpdate

; 230  : }

	lea	rsp, QWORD PTR [rbp+64]
	pop	rbp
	ret	0
?UpdateBrowserUI@@YAXXZ ENDP				; UpdateBrowserUI
_TEXT	ENDS
; Function compile flags: /Odtp /ZI
; File C:\Users\paras\source\repos\grep-name\XenevaOS\Process\AudioPlayer\main.cpp
;	COMDAT ?UpdateHomeUI@@YAXXZ
_TEXT	SEGMENT
?UpdateHomeUI@@YAXXZ PROC				; UpdateHomeUI, COMDAT

; 220  : void UpdateHomeUI() {

$LN3:
	push	rbp
	sub	rsp, 128				; 00000080H
	lea	rbp, QWORD PTR [rsp+64]

; 221  : 	mainWin->canv = mainCanvas;

	mov	rax, QWORD PTR ?mainWin@@3PEAU_chwin_@@EA ; mainWin
	mov	rcx, QWORD PTR ?mainCanvas@@3PEAU_ChCanvas_@@EA ; mainCanvas
	mov	QWORD PTR [rax+24], rcx

; 222  : 	mainWin->widgets = mainWidgetList;

	mov	rax, QWORD PTR ?mainWin@@3PEAU_chwin_@@EA ; mainWin
	mov	rcx, QWORD PTR ?mainWidgetList@@3PEAU_list_@@EA ; mainWidgetList
	mov	QWORD PTR [rax+80], rcx

; 223  : 	ChWindowUpdate(mainWin, 0, 0, mainWin->info->width, mainWin->info->height, 1, 0);

	mov	rax, QWORD PTR ?mainWin@@3PEAU_chwin_@@EA ; mainWin
	mov	rax, QWORD PTR [rax+40]
	mov	rcx, QWORD PTR ?mainWin@@3PEAU_chwin_@@EA ; mainWin
	mov	rcx, QWORD PTR [rcx+40]
	mov	BYTE PTR [rsp+48], 0
	mov	BYTE PTR [rsp+40], 1
	mov	eax, DWORD PTR [rax+4116]
	mov	DWORD PTR [rsp+32], eax
	mov	r9d, DWORD PTR [rcx+4112]
	xor	r8d, r8d
	xor	edx, edx
	mov	rcx, QWORD PTR ?mainWin@@3PEAU_chwin_@@EA ; mainWin
	call	ChWindowUpdate

; 224  : }

	lea	rsp, QWORD PTR [rbp+64]
	pop	rbp
	ret	0
?UpdateHomeUI@@YAXXZ ENDP				; UpdateHomeUI
_TEXT	ENDS
; Function compile flags: /Odtp /ZI
; File C:\Users\paras\source\repos\grep-name\XenevaOS\Process\AudioPlayer\main.cpp
;	COMDAT ?DrawWallpaper@@YAXPEAU_ChCanvas_@@PEADHH@Z
_TEXT	SEGMENT
image$ = 0
stat$ = 8
data_$ = 48
data1$ = 56
decor$ = 64
w$ = 72
h$ = 76
data$ = 80
i$1 = 88
k$2 = 92
j$3 = 96
r$4 = 100
g$5 = 101
b$6 = 102
rgba$7 = 104
$T8 = 176
tv142 = 184
canv$ = 208
filename$ = 216
x$ = 224
y$ = 232
?DrawWallpaper@@YAXPEAU_ChCanvas_@@PEADHH@Z PROC	; DrawWallpaper, COMDAT

; 183  : void DrawWallpaper(ChCanvas *canv, char* filename, int x, int y) {

$LN15:
	mov	DWORD PTR [rsp+32], r9d
	mov	DWORD PTR [rsp+24], r8d
	mov	QWORD PTR [rsp+16], rdx
	mov	QWORD PTR [rsp+8], rcx
	push	rbp
	sub	rsp, 240				; 000000f0H
	lea	rbp, QWORD PTR [rsp+48]

; 184  : 	int image = _KeOpenFile(filename, FILE_OPEN_READ_ONLY);

	mov	edx, 2
	mov	rcx, QWORD PTR filename$[rbp]
	call	_KeOpenFile
	mov	DWORD PTR image$[rbp], eax

; 185  : 	XEFileStatus stat;
; 186  : 	memset(&stat, 0, sizeof(XEFileStatus));

	mov	r8d, 40					; 00000028H
	xor	edx, edx
	lea	rcx, QWORD PTR stat$[rbp]
	call	memset

; 187  : 	_KeFileStat(image, &stat);

	lea	rdx, QWORD PTR stat$[rbp]
	mov	ecx, DWORD PTR image$[rbp]
	call	_KeFileStat

; 188  : 	void* data_ = _KeMemMap(NULL, stat.size, 0, 0, -1, 0);

	mov	QWORD PTR [rsp+40], 0
	mov	DWORD PTR [rsp+32], -1
	xor	r9d, r9d
	xor	r8d, r8d
	mov	rdx, QWORD PTR stat$[rbp+8]
	xor	ecx, ecx
	call	_KeMemMap
	mov	QWORD PTR data_$[rbp], rax

; 189  : 	memset(data_, 0, ALIGN_UP(stat.size, 4096));

	mov	rax, QWORD PTR stat$[rbp+8]
	add	rax, 4095				; 00000fffH
	xor	edx, edx
	mov	ecx, 4096				; 00001000H
	div	rcx
	imul	rax, rax, 4096				; 00001000H
	mov	r8, rax
	xor	edx, edx
	mov	rcx, QWORD PTR data_$[rbp]
	call	memset

; 190  : 	_KeReadFile(image, data_, ALIGN_UP(stat.size, 4096));

	mov	rax, QWORD PTR stat$[rbp+8]
	add	rax, 4095				; 00000fffH
	xor	edx, edx
	mov	ecx, 4096				; 00001000H
	div	rcx
	imul	rax, rax, 4096				; 00001000H
	mov	r8, rax
	mov	rdx, QWORD PTR data_$[rbp]
	mov	ecx, DWORD PTR image$[rbp]
	call	_KeReadFile

; 191  : 
; 192  : 	uint8_t* data1 = (uint8_t*)data_;

	mov	rax, QWORD PTR data_$[rbp]
	mov	QWORD PTR data1$[rbp], rax

; 193  : 
; 194  : 	Jpeg::Decoder *decor = new Jpeg::Decoder((uint8_t*)data1, ALIGN_UP(stat.size, 4096), malloc, free);

	mov	ecx, 525104				; 00080330H
	call	??2@YAPEAX_K@Z				; operator new
	mov	QWORD PTR $T8[rbp], rax
	cmp	QWORD PTR $T8[rbp], 0
	je	SHORT $LN13@DrawWallpa
	mov	rax, QWORD PTR stat$[rbp+8]
	add	rax, 4095				; 00000fffH
	xor	edx, edx
	mov	ecx, 4096				; 00001000H
	div	rcx
	imul	rax, rax, 4096				; 00001000H
	lea	rcx, OFFSET FLAT:free
	mov	QWORD PTR [rsp+32], rcx
	lea	r9, OFFSET FLAT:malloc
	mov	r8d, eax
	mov	rdx, QWORD PTR data1$[rbp]
	mov	rcx, QWORD PTR $T8[rbp]
	call	??0Decoder@Jpeg@@QEAA@PEBEIP6APEAXI@ZP6AXPEAX@Z@Z ; Jpeg::Decoder::Decoder
	mov	QWORD PTR tv142[rbp], rax
	jmp	SHORT $LN14@DrawWallpa
$LN13@DrawWallpa:
	mov	QWORD PTR tv142[rbp], 0
$LN14@DrawWallpa:
	mov	rax, QWORD PTR tv142[rbp]
	mov	QWORD PTR decor$[rbp], rax

; 195  : 	if (decor->GetResult() != Jpeg::Decoder::OK) {

	mov	rcx, QWORD PTR decor$[rbp]
	call	?GetResult@Decoder@Jpeg@@QEBA?AW4DecodeResult@12@XZ ; Jpeg::Decoder::GetResult
	test	eax, eax
	je	SHORT $LN11@DrawWallpa

; 196  : 		_KePrint("Decoder error \n");

	lea	rcx, OFFSET FLAT:??_C@_0BA@IGPHAPNL@Decoder?5error?5?6@
	call	_KePrint
$LN2@DrawWallpa:

; 197  : 		for (;;);

	jmp	SHORT $LN2@DrawWallpa

; 198  : 		return;

	jmp	$LN1@DrawWallpa
$LN11@DrawWallpa:

; 199  : 	}
; 200  : 	int w = decor->GetWidth();

	mov	rcx, QWORD PTR decor$[rbp]
	call	?GetWidth@Decoder@Jpeg@@QEBAHXZ		; Jpeg::Decoder::GetWidth
	mov	DWORD PTR w$[rbp], eax

; 201  : 	int h = decor->GetHeight();

	mov	rcx, QWORD PTR decor$[rbp]
	call	?GetHeight@Decoder@Jpeg@@QEBAHXZ	; Jpeg::Decoder::GetHeight
	mov	DWORD PTR h$[rbp], eax

; 202  : 	uint8_t* data = decor->GetImage();

	mov	rcx, QWORD PTR decor$[rbp]
	call	?GetImage@Decoder@Jpeg@@QEBAPEAEXZ	; Jpeg::Decoder::GetImage
	mov	QWORD PTR data$[rbp], rax

; 203  : 	for (int i = 0; i < h; i++) {

	mov	DWORD PTR i$1[rbp], 0
	jmp	SHORT $LN7@DrawWallpa
$LN5@DrawWallpa:
	mov	eax, DWORD PTR i$1[rbp]
	inc	eax
	mov	DWORD PTR i$1[rbp], eax
$LN7@DrawWallpa:
	mov	eax, DWORD PTR h$[rbp]
	cmp	DWORD PTR i$1[rbp], eax
	jge	$LN6@DrawWallpa

; 204  : 		for (int k = 0; k < w; k++) {

	mov	DWORD PTR k$2[rbp], 0
	jmp	SHORT $LN10@DrawWallpa
$LN8@DrawWallpa:
	mov	eax, DWORD PTR k$2[rbp]
	inc	eax
	mov	DWORD PTR k$2[rbp], eax
$LN10@DrawWallpa:
	mov	eax, DWORD PTR w$[rbp]
	cmp	DWORD PTR k$2[rbp], eax
	jge	$LN9@DrawWallpa

; 205  : 			int j = k + i * w;

	mov	eax, DWORD PTR i$1[rbp]
	imul	eax, DWORD PTR w$[rbp]
	mov	ecx, DWORD PTR k$2[rbp]
	add	ecx, eax
	mov	eax, ecx
	mov	DWORD PTR j$3[rbp], eax

; 206  : 			uint8_t r = data[j * 3];

	imul	eax, DWORD PTR j$3[rbp], 3
	cdqe
	mov	rcx, QWORD PTR data$[rbp]
	movzx	eax, BYTE PTR [rcx+rax]
	mov	BYTE PTR r$4[rbp], al

; 207  : 			uint8_t g = data[j * 3 + 1];

	imul	eax, DWORD PTR j$3[rbp], 3
	inc	eax
	cdqe
	mov	rcx, QWORD PTR data$[rbp]
	movzx	eax, BYTE PTR [rcx+rax]
	mov	BYTE PTR g$5[rbp], al

; 208  : 			uint8_t b = data[j * 3 + 2];

	imul	eax, DWORD PTR j$3[rbp], 3
	add	eax, 2
	cdqe
	mov	rcx, QWORD PTR data$[rbp]
	movzx	eax, BYTE PTR [rcx+rax]
	mov	BYTE PTR b$6[rbp], al

; 209  : 			uint32_t rgba = ((r << 16) | (g << 8) | (b)) & 0x00ffffff;

	movzx	eax, BYTE PTR r$4[rbp]
	shl	eax, 16
	movzx	ecx, BYTE PTR g$5[rbp]
	shl	ecx, 8
	or	eax, ecx
	movzx	ecx, BYTE PTR b$6[rbp]
	or	eax, ecx
	and	eax, 16777215				; 00ffffffH
	mov	DWORD PTR rgba$7[rbp], eax

; 210  : 			rgba = rgba | 0xff000000;

	mov	eax, DWORD PTR rgba$7[rbp]
	or	eax, -16777216				; ff000000H
	mov	DWORD PTR rgba$7[rbp], eax

; 211  : 			ChDrawPixel(canv, x + k, y + i, rgba);

	mov	eax, DWORD PTR i$1[rbp]
	mov	ecx, DWORD PTR y$[rbp]
	add	ecx, eax
	mov	eax, ecx
	mov	ecx, DWORD PTR k$2[rbp]
	mov	edx, DWORD PTR x$[rbp]
	add	edx, ecx
	mov	ecx, edx
	mov	r9d, DWORD PTR rgba$7[rbp]
	mov	r8d, eax
	mov	edx, ecx
	mov	rcx, QWORD PTR canv$[rbp]
	call	ChDrawPixel

; 212  : 			j++;

	mov	eax, DWORD PTR j$3[rbp]
	inc	eax
	mov	DWORD PTR j$3[rbp], eax

; 213  : 		}

	jmp	$LN8@DrawWallpa
$LN9@DrawWallpa:

; 214  : 	}

	jmp	$LN5@DrawWallpa
$LN6@DrawWallpa:

; 215  : 	
; 216  : 	_KeMemUnmap(data_, stat.size);

	mov	rdx, QWORD PTR stat$[rbp+8]
	mov	rcx, QWORD PTR data_$[rbp]
	call	_KeMemUnmap

; 217  : 	_KeCloseFile(image);

	mov	ecx, DWORD PTR image$[rbp]
	call	_KeCloseFile
$LN1@DrawWallpa:

; 218  : }

	lea	rsp, QWORD PTR [rbp+192]
	pop	rbp
	ret	0
?DrawWallpaper@@YAXPEAU_ChCanvas_@@PEADHH@Z ENDP	; DrawWallpaper
_TEXT	ENDS
; Function compile flags: /Odtp /ZI
; File C:\Users\paras\source\repos\grep-name\XenevaOS\Process\AudioPlayer\main.cpp
;	COMDAT ?ExitItemClicked@@YAXPEAU_ChWidget_@@PEAU_chwin_@@@Z
_TEXT	SEGMENT
wid$ = 80
win$ = 88
?ExitItemClicked@@YAXPEAU_ChWidget_@@PEAU_chwin_@@@Z PROC ; ExitItemClicked, COMDAT

; 176  : void ExitItemClicked(ChWidget* wid, ChWindow* win) {

$LN3:
	mov	QWORD PTR [rsp+16], rdx
	mov	QWORD PTR [rsp+8], rcx
	push	rbp
	sub	rsp, 96					; 00000060H
	lea	rbp, QWORD PTR [rsp+32]

; 177  : 	ChWindowCloseWindow(mainWin);

	mov	rcx, QWORD PTR ?mainWin@@3PEAU_chwin_@@EA ; mainWin
	call	ChWindowCloseWindow

; 178  : }

	lea	rsp, QWORD PTR [rbp+64]
	pop	rbp
	ret	0
?ExitItemClicked@@YAXPEAU_ChWidget_@@PEAU_chwin_@@@Z ENDP ; ExitItemClicked
_TEXT	ENDS
; Function compile flags: /Odtp /ZI
; File C:\Users\paras\source\repos\grep-name\XenevaOS\Process\AudioPlayer\main.cpp
;	COMDAT ?AboutClicked@@YAXPEAU_ChWidget_@@PEAU_chwin_@@@Z
_TEXT	SEGMENT
mb$ = 0
wid$ = 96
win$ = 104
?AboutClicked@@YAXPEAU_ChWidget_@@PEAU_chwin_@@@Z PROC	; AboutClicked, COMDAT

; 166  : void AboutClicked(ChWidget* wid, ChWindow* win) {

$LN3:
	mov	QWORD PTR [rsp+16], rdx
	mov	QWORD PTR [rsp+8], rcx
	push	rbp
	sub	rsp, 128				; 00000080H
	lea	rbp, QWORD PTR [rsp+48]

; 167  : 	ChMessageBox* mb = ChCreateMessageBox(mainWin, "Accent v1.0", "Accent Player v1.0 for XenevaOS !!", MSGBOX_TYPE_ONLYCLOSE, MSGBOX_ICON_SUCCESS);

	mov	BYTE PTR [rsp+32], 101			; 00000065H
	mov	r9b, 4
	lea	r8, OFFSET FLAT:??_C@_0CD@CCPBHJID@Accent?5Player?5v1?40?5for?5XenevaOS@
	lea	rdx, OFFSET FLAT:??_C@_0M@MDIENNJL@Accent?5v1?40@
	mov	rcx, QWORD PTR ?mainWin@@3PEAU_chwin_@@EA ; mainWin
	call	ChCreateMessageBox
	mov	QWORD PTR mb$[rbp], rax

; 168  : 	ChMessageBoxShow(mb);

	mov	rcx, QWORD PTR mb$[rbp]
	call	ChMessageBoxShow

; 169  : }

	lea	rsp, QWORD PTR [rbp+80]
	pop	rbp
	ret	0
?AboutClicked@@YAXPEAU_ChWidget_@@PEAU_chwin_@@@Z ENDP	; AboutClicked
_TEXT	ENDS
; Function compile flags: /Odtp /ZI
; File C:\Users\paras\source\repos\grep-name\XenevaOS\Process\AudioPlayer\main.cpp
;	COMDAT ?WindowHandleMessage@@YAXPEAU_post_event_@@@Z
_TEXT	SEGMENT
handle$1 = 0
mouseWin$2 = 8
pw$3 = 16
code$4 = 24
focus_val$5 = 28
handle$6 = 32
focWin$7 = 40
tv66 = 112
e$ = 144
?WindowHandleMessage@@YAXPEAU_post_event_@@@Z PROC	; WindowHandleMessage, COMDAT

; 133  : void WindowHandleMessage(PostEvent *e) {

$LN11:
	mov	QWORD PTR [rsp+8], rcx
	push	rbp
	sub	rsp, 160				; 000000a0H
	lea	rbp, QWORD PTR [rsp+32]

; 134  : 	switch (e->type) {

	mov	rax, QWORD PTR e$[rbp]
	movzx	eax, BYTE PTR [rax]
	mov	BYTE PTR tv66[rbp], al
	cmp	BYTE PTR tv66[rbp], 151			; 00000097H
	je	SHORT $LN4@WindowHand
	cmp	BYTE PTR tv66[rbp], 152			; 00000098H
	je	$LN8@WindowHand
	cmp	BYTE PTR tv66[rbp], 154			; 0000009aH
	je	$LN9@WindowHand
	jmp	$LN2@WindowHand
$LN4@WindowHand:

; 135  : 	/* handle mouse event from deodhai */
; 136  : 	case DEODHAI_REPLY_MOUSE_EVENT:{
; 137  : 									   int handle = e->dword4;

	mov	rax, QWORD PTR e$[rbp]
	mov	eax, DWORD PTR [rax+20]
	mov	DWORD PTR handle$1[rbp], eax

; 138  : 									   if (e->dword5 == WINDOW_HANDLE_TYPE_NORMAL){

	mov	rax, QWORD PTR e$[rbp]
	cmp	DWORD PTR [rax+24], 1
	jne	SHORT $LN5@WindowHand

; 139  : 										   ChWindow* mouseWin = ChGetWindowByHandle(mainWin, handle);

	mov	edx, DWORD PTR handle$1[rbp]
	mov	rcx, QWORD PTR ?mainWin@@3PEAU_chwin_@@EA ; mainWin
	call	ChGetWindowByHandle
	mov	QWORD PTR mouseWin$2[rbp], rax

; 140  : 										   ChWindowHandleMouse(mouseWin, e->dword, e->dword2, e->dword3);

	mov	rax, QWORD PTR e$[rbp]
	mov	r9d, DWORD PTR [rax+16]
	mov	rax, QWORD PTR e$[rbp]
	mov	r8d, DWORD PTR [rax+12]
	mov	rax, QWORD PTR e$[rbp]
	mov	edx, DWORD PTR [rax+8]
	mov	rcx, QWORD PTR mouseWin$2[rbp]
	call	ChWindowHandleMouse

; 141  : 									   }

	jmp	SHORT $LN6@WindowHand
$LN5@WindowHand:

; 142  : 									   else if (e->dword5 == WINDOW_HANDLE_TYPE_POPUP) {

	mov	rax, QWORD PTR e$[rbp]
	cmp	DWORD PTR [rax+24], 2
	jne	SHORT $LN7@WindowHand

; 143  : 										   ChWindow* pw = ChGetPopupWindowByHandle(mainWin, handle);

	mov	edx, DWORD PTR handle$1[rbp]
	mov	rcx, QWORD PTR ?mainWin@@3PEAU_chwin_@@EA ; mainWin
	call	ChGetPopupWindowByHandle
	mov	QWORD PTR pw$3[rbp], rax

; 144  : 										   ChPopupWindowHandleMouse(pw, e->dword, e->dword2, e->dword3);

	mov	rax, QWORD PTR e$[rbp]
	mov	r9d, DWORD PTR [rax+16]
	mov	rax, QWORD PTR e$[rbp]
	mov	r8d, DWORD PTR [rax+12]
	mov	rax, QWORD PTR e$[rbp]
	mov	edx, DWORD PTR [rax+8]
	mov	rcx, QWORD PTR pw$3[rbp]
	call	ChPopupWindowHandleMouse
$LN7@WindowHand:
$LN6@WindowHand:

; 145  : 									   }
; 146  : 									   memset(e, 0, sizeof(PostEvent));

	mov	r8d, 176				; 000000b0H
	xor	edx, edx
	mov	rcx, QWORD PTR e$[rbp]
	call	memset

; 147  : 									   break;

	jmp	SHORT $LN2@WindowHand
$LN8@WindowHand:

; 148  : 	}
; 149  : 		/* handle key events from deodhai */
; 150  : 	case DEODHAI_REPLY_KEY_EVENT:{
; 151  : 									 int code = e->dword;

	mov	rax, QWORD PTR e$[rbp]
	mov	eax, DWORD PTR [rax+8]
	mov	DWORD PTR code$4[rbp], eax

; 152  : 									 memset(e, 0, sizeof(PostEvent));

	mov	r8d, 176				; 000000b0H
	xor	edx, edx
	mov	rcx, QWORD PTR e$[rbp]
	call	memset

; 153  : 									 break;

	jmp	SHORT $LN2@WindowHand
$LN9@WindowHand:

; 154  : 	}
; 155  : 	case DEODHAI_REPLY_FOCUS_CHANGED:{
; 156  : 										 int focus_val = e->dword;

	mov	rax, QWORD PTR e$[rbp]
	mov	eax, DWORD PTR [rax+8]
	mov	DWORD PTR focus_val$5[rbp], eax

; 157  : 										 int handle = e->dword2;

	mov	rax, QWORD PTR e$[rbp]
	mov	eax, DWORD PTR [rax+12]
	mov	DWORD PTR handle$6[rbp], eax

; 158  : 										 ChWindow* focWin = ChGetWindowByHandle(mainWin, handle);

	mov	edx, DWORD PTR handle$6[rbp]
	mov	rcx, QWORD PTR ?mainWin@@3PEAU_chwin_@@EA ; mainWin
	call	ChGetWindowByHandle
	mov	QWORD PTR focWin$7[rbp], rax

; 159  : 										 ChWindowHandleFocus(focWin, focus_val, handle);

	mov	r8d, DWORD PTR handle$6[rbp]
	movzx	edx, BYTE PTR focus_val$5[rbp]
	mov	rcx, QWORD PTR focWin$7[rbp]
	call	ChWindowHandleFocus

; 160  : 										 memset(e, 0, sizeof(PostEvent));

	mov	r8d, 176				; 000000b0H
	xor	edx, edx
	mov	rcx, QWORD PTR e$[rbp]
	call	memset
$LN2@WindowHand:

; 161  : 										 break;
; 162  : 	}
; 163  : 	}
; 164  : }

	lea	rsp, QWORD PTR [rbp+128]
	pop	rbp
	ret	0
?WindowHandleMessage@@YAXPEAU_post_event_@@@Z ENDP	; WindowHandleMessage
_TEXT	ENDS
; Function compile flags: /Odtp /ZI
; File C:\Users\paras\source\repos\grep-name\XenevaOS\Process\AudioPlayer\main.cpp
;	COMDAT ?PlayerThread@@YAXXZ
_TEXT	SEGMENT
stat$ = 0
?PlayerThread@@YAXXZ PROC				; PlayerThread, COMDAT

; 101  : void PlayerThread() {

$LN9:
	push	rbp
	sub	rsp, 144				; 00000090H
	lea	rbp, QWORD PTR [rsp+32]

; 102  : 	/* register the sound */
; 103  : 	RegisterSound();

	call	?RegisterSound@@YAXXZ			; RegisterSound

; 104  : 	XEFileStatus stat;
; 105  : 	memset(&stat, 0, sizeof(XEFileStatus));

	mov	r8d, 40					; 00000028H
	xor	edx, edx
	lea	rcx, QWORD PTR stat$[rbp]
	call	memset
$LN2@PlayerThre:

; 106  : 	while (1) {

	xor	eax, eax
	cmp	eax, 1
	je	$LN3@PlayerThre

; 107  : 		/*
; 108  : 		 * _start_player expects its sound file to be
; 109  : 		 * ready i.e its already opened 
; 110  : 		 */
; 111  : 		if (_start_player) {

	movsx	eax, BYTE PTR ?_start_player@@3DA	; _start_player
	test	eax, eax
	je	SHORT $LN4@PlayerThre

; 112  : 			_KeFileStat(_file, &stat);

	lea	rdx, QWORD PTR stat$[rbp]
	mov	ecx, DWORD PTR ?_file@@3HA		; _file
	call	_KeFileStat

; 113  : 			if (stat.eof) {

	movzx	eax, BYTE PTR stat$[rbp+36]
	test	eax, eax
	je	SHORT $LN5@PlayerThre

; 114  : 				_KeCloseFile(_file);

	mov	ecx, DWORD PTR ?_file@@3HA		; _file
	call	_KeCloseFile

; 115  : 				_start_player = false;

	mov	BYTE PTR ?_start_player@@3DA, 0		; _start_player

; 116  : 			}

	jmp	SHORT $LN6@PlayerThre
$LN5@PlayerThre:

; 117  : 			else{
; 118  : 				_KeReadFile(_file, soundbuff, 4096);

	mov	r8d, 4096				; 00001000H
	mov	rdx, QWORD PTR ?soundbuff@@3PEAXEA	; soundbuff
	mov	ecx, DWORD PTR ?_file@@3HA		; _file
	call	_KeReadFile

; 119  : 				_KeWriteFile(snd, soundbuff, 4096);

	mov	r8d, 4096				; 00001000H
	mov	rdx, QWORD PTR ?soundbuff@@3PEAXEA	; soundbuff
	mov	ecx, DWORD PTR ?snd@@3HA		; snd
	call	_KeWriteFile
$LN6@PlayerThre:
$LN4@PlayerThre:

; 120  : 			}
; 121  : 		}
; 122  : 
; 123  : 		if (!_start_player) 

	movsx	eax, BYTE PTR ?_start_player@@3DA	; _start_player
	test	eax, eax
	jne	SHORT $LN7@PlayerThre

; 124  : 			_KeProcessSleep(1000);

	mov	ecx, 1000				; 000003e8H
	call	_KeProcessSleep
$LN7@PlayerThre:

; 125  : 	}

	jmp	$LN2@PlayerThre
$LN3@PlayerThre:

; 126  : }

	lea	rsp, QWORD PTR [rbp+112]
	pop	rbp
	ret	0
?PlayerThread@@YAXXZ ENDP				; PlayerThread
_TEXT	ENDS
; Function compile flags: /Odtp /ZI
; File C:\Users\paras\source\repos\grep-name\XenevaOS\Process\AudioPlayer\main.cpp
;	COMDAT ?RegisterSound@@YAXXZ
_TEXT	SEGMENT
ioctl$ = 8
?RegisterSound@@YAXXZ PROC				; RegisterSound, COMDAT

; 75   : void RegisterSound() {

$LN3:
	push	rbp
	sub	rsp, 144				; 00000090H
	lea	rbp, QWORD PTR [rsp+32]

; 76   : 
; 77   : 	/* open the sound device-file, it is in /dev directory */
; 78   : 	snd = _KeOpenFile("/dev/sound", FILE_OPEN_WRITE);

	mov	edx, 4
	lea	rcx, OFFSET FLAT:??_C@_0L@JFMDADFF@?1dev?1sound@
	call	_KeOpenFile
	mov	DWORD PTR ?snd@@3HA, eax		; snd

; 79   : 
; 80   : 	char test[2];
; 81   : 	/* allocate an ioctl structure where required information
; 82   : 	* will be putted */
; 83   : 	XEFileIOControl ioctl;
; 84   : 	
; 85   : 	memset(&ioctl, 0, sizeof(XEFileIOControl));

	mov	r8d, 40					; 00000028H
	xor	edx, edx
	lea	rcx, QWORD PTR ioctl$[rbp]
	call	memset

; 86   : 
; 87   : 	/* uint_1 holds the millisecond to sleep after
; 88   : 	* one frame playback */
; 89   : 	ioctl.uint_1 = 0;

	mov	DWORD PTR ioctl$[rbp+12], 0

; 90   : 
; 91   : 	/* most important aurora_syscall_magic number, without
; 92   : 	* this, iocontrol system call will not work */
; 93   : 	ioctl.syscall_magic = AURORA_SYSCALL_MAGIC;

	mov	DWORD PTR ioctl$[rbp], 352722979	; 15062023H

; 94   : 
; 95   : 	/* register the app to sound layer, as it will create
; 96   : 	* a private dsp-box for this app */
; 97   : 	_KeFileIoControl(snd, SOUND_REGISTER_SNDPLR, &ioctl);

	lea	r8, QWORD PTR ioctl$[rbp]
	mov	edx, 100				; 00000064H
	mov	ecx, DWORD PTR ?snd@@3HA		; snd
	call	_KeFileIoControl

; 98   : }

	lea	rsp, QWORD PTR [rbp+112]
	pop	rbp
	ret	0
?RegisterSound@@YAXXZ ENDP				; RegisterSound
_TEXT	ENDS
; Function compile flags: /Odtp /ZI
; File C:\Users\paras\source\repos\grep-name\XenevaOS\Process\AudioPlayer\minimp4.h
;	COMDAT ?MP4D_read_spspps@@YAPEBXPEBUMP4D_demux_tag@@IHHPEAH@Z
_TEXT	SEGMENT
sps_count$ = 0
skip_bytes$ = 4
bytepos$ = 8
p$ = 16
mp4$ = 112
ntrack$ = 120
pps_flag$ = 128
nsps$ = 136
sps_bytes$ = 144
?MP4D_read_spspps@@YAPEBXPEBUMP4D_demux_tag@@IHHPEAH@Z PROC ; MP4D_read_spspps, COMDAT

; 3349 : {

	mov	DWORD PTR [rsp+32], r9d
	mov	DWORD PTR [rsp+24], r8d
	mov	DWORD PTR [rsp+16], edx
	mov	QWORD PTR [rsp+8], rcx
	push	rbp
	sub	rsp, 128				; 00000080H
	lea	rbp, QWORD PTR [rsp+32]

; 3350 :     int sps_count, skip_bytes;
; 3351 :     int bytepos = 0;

	mov	DWORD PTR bytepos$[rbp], 0

; 3352 :     unsigned char* p = mp4->track[ntrack].dsi;

	mov	eax, DWORD PTR ntrack$[rbp]
	imul	rax, rax, 120				; 00000078H
	mov	rcx, QWORD PTR mp4$[rbp]
	mov	rcx, QWORD PTR [rcx+16]
	mov	rax, QWORD PTR [rcx+rax+8]
	mov	QWORD PTR p$[rbp], rax

; 3353 :     if (ntrack >= mp4->track_count)

	mov	rax, QWORD PTR mp4$[rbp]
	mov	eax, DWORD PTR [rax+40]
	cmp	DWORD PTR ntrack$[rbp], eax
	jb	SHORT $LN2@MP4D_read_

; 3354 :         return NULL;

	xor	eax, eax
	jmp	$LN1@MP4D_read_
$LN2@MP4D_read_:

; 3355 :     if (mp4->track[ntrack].object_type_indication != MP4_OBJECT_TYPE_AVC)

	mov	eax, DWORD PTR ntrack$[rbp]
	imul	rax, rax, 120				; 00000078H
	mov	rcx, QWORD PTR mp4$[rbp]
	mov	rcx, QWORD PTR [rcx+16]
	cmp	DWORD PTR [rcx+rax+20], 33		; 00000021H
	je	SHORT $LN3@MP4D_read_

; 3356 :         return NULL;    // SPS/PPS are specific for AVC format only

	xor	eax, eax
	jmp	$LN1@MP4D_read_
$LN3@MP4D_read_:

; 3357 : 
; 3358 :     if (pps_flag)

	cmp	DWORD PTR pps_flag$[rbp], 0
	je	SHORT $LN4@MP4D_read_

; 3359 :     {
; 3360 :         // Skip all SPS
; 3361 :         sps_count = p[bytepos++];

	movsxd	rax, DWORD PTR bytepos$[rbp]
	mov	rcx, QWORD PTR p$[rbp]
	movzx	eax, BYTE PTR [rcx+rax]
	mov	DWORD PTR sps_count$[rbp], eax
	mov	eax, DWORD PTR bytepos$[rbp]
	inc	eax
	mov	DWORD PTR bytepos$[rbp], eax

; 3362 :         skip_bytes = skip_spspps(p + bytepos, mp4->track[ntrack].dsi_bytes - bytepos, sps_count);

	mov	eax, DWORD PTR ntrack$[rbp]
	imul	rax, rax, 120				; 00000078H
	mov	rcx, QWORD PTR mp4$[rbp]
	mov	rcx, QWORD PTR [rcx+16]
	mov	edx, DWORD PTR bytepos$[rbp]
	mov	eax, DWORD PTR [rcx+rax+16]
	sub	eax, edx
	movsxd	rcx, DWORD PTR bytepos$[rbp]
	mov	rdx, QWORD PTR p$[rbp]
	add	rdx, rcx
	mov	rcx, rdx
	mov	r8d, DWORD PTR sps_count$[rbp]
	mov	edx, eax
	call	?skip_spspps@@YAHPEBEHH@Z		; skip_spspps
	mov	DWORD PTR skip_bytes$[rbp], eax

; 3363 :         if (skip_bytes < 0)

	cmp	DWORD PTR skip_bytes$[rbp], 0
	jge	SHORT $LN5@MP4D_read_

; 3364 :             return NULL;

	xor	eax, eax
	jmp	$LN1@MP4D_read_
$LN5@MP4D_read_:

; 3365 :         bytepos += skip_bytes;

	mov	eax, DWORD PTR skip_bytes$[rbp]
	mov	ecx, DWORD PTR bytepos$[rbp]
	add	ecx, eax
	mov	eax, ecx
	mov	DWORD PTR bytepos$[rbp], eax
$LN4@MP4D_read_:

; 3366 :     }
; 3367 : 
; 3368 :     // Skip sps/pps before the given target
; 3369 :     sps_count = p[bytepos++];

	movsxd	rax, DWORD PTR bytepos$[rbp]
	mov	rcx, QWORD PTR p$[rbp]
	movzx	eax, BYTE PTR [rcx+rax]
	mov	DWORD PTR sps_count$[rbp], eax
	mov	eax, DWORD PTR bytepos$[rbp]
	inc	eax
	mov	DWORD PTR bytepos$[rbp], eax

; 3370 :     if (nsps >= sps_count)

	mov	eax, DWORD PTR sps_count$[rbp]
	cmp	DWORD PTR nsps$[rbp], eax
	jl	SHORT $LN6@MP4D_read_

; 3371 :         return NULL;

	xor	eax, eax
	jmp	$LN1@MP4D_read_
$LN6@MP4D_read_:

; 3372 :     skip_bytes = skip_spspps(p + bytepos, mp4->track[ntrack].dsi_bytes - bytepos, nsps);

	mov	eax, DWORD PTR ntrack$[rbp]
	imul	rax, rax, 120				; 00000078H
	mov	rcx, QWORD PTR mp4$[rbp]
	mov	rcx, QWORD PTR [rcx+16]
	mov	edx, DWORD PTR bytepos$[rbp]
	mov	eax, DWORD PTR [rcx+rax+16]
	sub	eax, edx
	movsxd	rcx, DWORD PTR bytepos$[rbp]
	mov	rdx, QWORD PTR p$[rbp]
	add	rdx, rcx
	mov	rcx, rdx
	mov	r8d, DWORD PTR nsps$[rbp]
	mov	edx, eax
	call	?skip_spspps@@YAHPEBEHH@Z		; skip_spspps
	mov	DWORD PTR skip_bytes$[rbp], eax

; 3373 :     if (skip_bytes < 0)

	cmp	DWORD PTR skip_bytes$[rbp], 0
	jge	SHORT $LN7@MP4D_read_

; 3374 :         return NULL;

	xor	eax, eax
	jmp	SHORT $LN1@MP4D_read_
$LN7@MP4D_read_:

; 3375 :     bytepos += skip_bytes;

	mov	eax, DWORD PTR skip_bytes$[rbp]
	mov	ecx, DWORD PTR bytepos$[rbp]
	add	ecx, eax
	mov	eax, ecx
	mov	DWORD PTR bytepos$[rbp], eax

; 3376 :     *sps_bytes = p[bytepos] * 256 + p[bytepos + 1];

	movsxd	rax, DWORD PTR bytepos$[rbp]
	mov	rcx, QWORD PTR p$[rbp]
	movzx	eax, BYTE PTR [rcx+rax]
	imul	eax, eax, 256				; 00000100H
	mov	ecx, DWORD PTR bytepos$[rbp]
	inc	ecx
	movsxd	rcx, ecx
	mov	rdx, QWORD PTR p$[rbp]
	movzx	ecx, BYTE PTR [rdx+rcx]
	add	eax, ecx
	mov	rcx, QWORD PTR sps_bytes$[rbp]
	mov	DWORD PTR [rcx], eax

; 3377 :     return p + bytepos + 2;

	movsxd	rax, DWORD PTR bytepos$[rbp]
	mov	rcx, QWORD PTR p$[rbp]
	lea	rax, QWORD PTR [rcx+rax+2]
$LN1@MP4D_read_:

; 3378 : }

	lea	rsp, QWORD PTR [rbp+96]
	pop	rbp
	ret	0
?MP4D_read_spspps@@YAPEBXPEBUMP4D_demux_tag@@IHHPEAH@Z ENDP ; MP4D_read_spspps
_TEXT	ENDS
; Function compile flags: /Odtp /ZI
; File C:\Users\paras\source\repos\grep-name\XenevaOS\Process\AudioPlayer\minimp4.h
;	COMDAT ?skip_spspps@@YAHPEBEHH@Z
_TEXT	SEGMENT
i$ = 0
k$ = 4
segmbytes$1 = 8
p$ = 96
nbytes$ = 104
nskip$ = 112
?skip_spspps@@YAHPEBEHH@Z PROC				; skip_spspps, COMDAT

; 3335 : {

	mov	DWORD PTR [rsp+24], r8d
	mov	DWORD PTR [rsp+16], edx
	mov	QWORD PTR [rsp+8], rcx
	push	rbp
	sub	rsp, 80					; 00000050H
	mov	rbp, rsp

; 3336 :     int i, k = 0;

	mov	DWORD PTR k$[rbp], 0

; 3337 :     for (i = 0; i < nskip; i++)

	mov	DWORD PTR i$[rbp], 0
	jmp	SHORT $LN4@skip_spspp
$LN2@skip_spspp:
	mov	eax, DWORD PTR i$[rbp]
	inc	eax
	mov	DWORD PTR i$[rbp], eax
$LN4@skip_spspp:
	mov	eax, DWORD PTR nskip$[rbp]
	cmp	DWORD PTR i$[rbp], eax
	jge	SHORT $LN3@skip_spspp

; 3338 :     {
; 3339 :         unsigned segmbytes;
; 3340 :         if (k > nbytes - 2)

	mov	eax, DWORD PTR nbytes$[rbp]
	sub	eax, 2
	cmp	DWORD PTR k$[rbp], eax
	jle	SHORT $LN5@skip_spspp

; 3341 :             return -1;

	mov	eax, -1
	jmp	SHORT $LN1@skip_spspp
$LN5@skip_spspp:

; 3342 :         segmbytes = p[k] * 256 + p[k + 1];

	movsxd	rax, DWORD PTR k$[rbp]
	mov	rcx, QWORD PTR p$[rbp]
	movzx	eax, BYTE PTR [rcx+rax]
	imul	eax, eax, 256				; 00000100H
	mov	ecx, DWORD PTR k$[rbp]
	inc	ecx
	movsxd	rcx, ecx
	mov	rdx, QWORD PTR p$[rbp]
	movzx	ecx, BYTE PTR [rdx+rcx]
	add	eax, ecx
	mov	DWORD PTR segmbytes$1[rbp], eax

; 3343 :         k += 2 + segmbytes;

	mov	eax, DWORD PTR k$[rbp]
	mov	ecx, DWORD PTR segmbytes$1[rbp]
	lea	eax, DWORD PTR [rax+rcx+2]
	mov	DWORD PTR k$[rbp], eax

; 3344 :     }

	jmp	SHORT $LN2@skip_spspp
$LN3@skip_spspp:

; 3345 :     return k;

	mov	eax, DWORD PTR k$[rbp]
$LN1@skip_spspp:

; 3346 : }

	lea	rsp, QWORD PTR [rbp+80]
	pop	rbp
	ret	0
?skip_spspps@@YAHPEBEHH@Z ENDP				; skip_spspps
_TEXT	ENDS
; Function compile flags: /Odtp /ZI
; File C:\Users\paras\source\repos\grep-name\XenevaOS\Process\AudioPlayer\minimp4.h
;	COMDAT ?sample_to_chunk@@YAHPEAUMP4D_track_t@@IPEAI@Z
_TEXT	SEGMENT
chunk_group$ = 0
nc$ = 4
sum$ = 8
tr$ = 96
nsample$ = 104
nfirst_sample_in_chunk$ = 112
?sample_to_chunk@@YAHPEAUMP4D_track_t@@IPEAI@Z PROC	; sample_to_chunk, COMDAT

; 3237 : {

	mov	QWORD PTR [rsp+24], r8
	mov	DWORD PTR [rsp+16], edx
	mov	QWORD PTR [rsp+8], rcx
	push	rbp
	sub	rsp, 80					; 00000050H
	mov	rbp, rsp

; 3238 :     unsigned chunk_group = 0, nc;

	mov	DWORD PTR chunk_group$[rbp], 0

; 3239 :     unsigned sum = 0;

	mov	DWORD PTR sum$[rbp], 0

; 3240 :     *nfirst_sample_in_chunk = 0;

	mov	rax, QWORD PTR nfirst_sample_in_chunk$[rbp]
	mov	DWORD PTR [rax], 0

; 3241 :     if (tr->chunk_count <= 1)

	mov	rax, QWORD PTR tr$[rbp]
	cmp	DWORD PTR [rax+88], 1
	ja	SHORT $LN5@sample_to_

; 3242 :     {
; 3243 :         return 0;

	xor	eax, eax
	jmp	$LN1@sample_to_
$LN5@sample_to_:

; 3244 :     }
; 3245 :     for (nc = 0; nc < tr->chunk_count; nc++)

	mov	DWORD PTR nc$[rbp], 0
	jmp	SHORT $LN4@sample_to_
$LN2@sample_to_:
	mov	eax, DWORD PTR nc$[rbp]
	inc	eax
	mov	DWORD PTR nc$[rbp], eax
$LN4@sample_to_:
	mov	rax, QWORD PTR tr$[rbp]
	mov	eax, DWORD PTR [rax+88]
	cmp	DWORD PTR nc$[rbp], eax
	jae	SHORT $LN3@sample_to_

; 3246 :     {
; 3247 :         if (chunk_group + 1 < tr->sample_to_chunk_count     // stuck at last entry till EOF
; 3248 :             && nc + 1 ==    // Chunks counted starting with '1'

	mov	eax, DWORD PTR chunk_group$[rbp]
	inc	eax
	mov	rcx, QWORD PTR tr$[rbp]
	cmp	eax, DWORD PTR [rcx+72]
	jae	SHORT $LN6@sample_to_
	mov	eax, DWORD PTR nc$[rbp]
	inc	eax
	mov	ecx, DWORD PTR chunk_group$[rbp]
	inc	ecx
	mov	ecx, ecx
	mov	rdx, QWORD PTR tr$[rbp]
	mov	rdx, QWORD PTR [rdx+80]
	cmp	eax, DWORD PTR [rdx+rcx*8]
	jne	SHORT $LN6@sample_to_

; 3249 :             tr->sample_to_chunk[chunk_group + 1].first_chunk)    // next group?
; 3250 :         {
; 3251 :             chunk_group++;

	mov	eax, DWORD PTR chunk_group$[rbp]
	inc	eax
	mov	DWORD PTR chunk_group$[rbp], eax
$LN6@sample_to_:

; 3252 :         }
; 3253 : 
; 3254 :         sum += tr->sample_to_chunk[chunk_group].samples_per_chunk;

	mov	eax, DWORD PTR chunk_group$[rbp]
	mov	rcx, QWORD PTR tr$[rbp]
	mov	rcx, QWORD PTR [rcx+80]
	mov	eax, DWORD PTR [rcx+rax*8+4]
	mov	ecx, DWORD PTR sum$[rbp]
	add	ecx, eax
	mov	eax, ecx
	mov	DWORD PTR sum$[rbp], eax

; 3255 :         if (nsample < sum)

	mov	eax, DWORD PTR sum$[rbp]
	cmp	DWORD PTR nsample$[rbp], eax
	jae	SHORT $LN7@sample_to_

; 3256 :             return nc;

	mov	eax, DWORD PTR nc$[rbp]
	jmp	SHORT $LN1@sample_to_
$LN7@sample_to_:

; 3257 : 
; 3258 :         // TODO: this can be calculated once per file
; 3259 :         *nfirst_sample_in_chunk = sum;

	mov	rax, QWORD PTR nfirst_sample_in_chunk$[rbp]
	mov	ecx, DWORD PTR sum$[rbp]
	mov	DWORD PTR [rax], ecx

; 3260 :     }

	jmp	SHORT $LN2@sample_to_
$LN3@sample_to_:

; 3261 :     return -1;

	mov	eax, -1
$LN1@sample_to_:

; 3262 : }

	lea	rsp, QWORD PTR [rbp+80]
	pop	rbp
	ret	0
?sample_to_chunk@@YAHPEAUMP4D_track_t@@IPEAI@Z ENDP	; sample_to_chunk
_TEXT	ENDS
; Function compile flags: /Odtp /ZI
; File C:\Users\paras\source\repos\grep-name\XenevaOS\Process\AudioPlayer\minimp4.h
;	COMDAT ?my_fseek@@YAXPEAUMP4D_demux_tag@@_KPEAH@Z
_TEXT	SEGMENT
mp4$ = 80
pos$ = 88
eof_flag$ = 96
?my_fseek@@YAXPEAUMP4D_demux_tag@@_KPEAH@Z PROC		; my_fseek, COMDAT

; 2538 : {

	mov	QWORD PTR [rsp+24], r8
	mov	QWORD PTR [rsp+16], rdx
	mov	QWORD PTR [rsp+8], rcx
	push	rbp
	sub	rsp, 64					; 00000040H
	mov	rbp, rsp

; 2539 :     mp4->read_pos += pos;

	mov	rax, QWORD PTR mp4$[rbp]
	mov	rax, QWORD PTR [rax]
	add	rax, QWORD PTR pos$[rbp]
	mov	rcx, QWORD PTR mp4$[rbp]
	mov	QWORD PTR [rcx], rax

; 2540 :     if (mp4->read_pos >= mp4->read_size)

	mov	rax, QWORD PTR mp4$[rbp]
	mov	rcx, QWORD PTR mp4$[rbp]
	mov	rcx, QWORD PTR [rcx+8]
	cmp	QWORD PTR [rax], rcx
	jl	SHORT $LN2@my_fseek

; 2541 :         *eof_flag = 1;

	mov	rax, QWORD PTR eof_flag$[rbp]
	mov	DWORD PTR [rax], 1
$LN2@my_fseek:

; 2542 : }

	lea	rsp, QWORD PTR [rbp+64]
	pop	rbp
	ret	0
?my_fseek@@YAXPEAUMP4D_demux_tag@@_KPEAH@Z ENDP		; my_fseek
_TEXT	ENDS
; Function compile flags: /Odtp /ZI
; File C:\Users\paras\source\repos\grep-name\XenevaOS\Process\AudioPlayer\minimp4.h
;	COMDAT ?read_payload@@YAIPEAUMP4D_demux_tag@@IPEA_KPEAH@Z
_TEXT	SEGMENT
mp4$ = 80
nb$ = 88
payload_bytes$ = 96
eof_flag$ = 104
?read_payload@@YAIPEAUMP4D_demux_tag@@IPEA_KPEAH@Z PROC	; read_payload, COMDAT

; 2522 : {

	mov	QWORD PTR [rsp+32], r9
	mov	QWORD PTR [rsp+24], r8
	mov	DWORD PTR [rsp+16], edx
	mov	QWORD PTR [rsp+8], rcx
	push	rbp
	sub	rsp, 96					; 00000060H
	lea	rbp, QWORD PTR [rsp+32]

; 2523 :     if (*payload_bytes < nb)

	mov	eax, DWORD PTR nb$[rbp]
	mov	rcx, QWORD PTR payload_bytes$[rbp]
	cmp	QWORD PTR [rcx], rax
	jae	SHORT $LN2@read_paylo

; 2524 :     {
; 2525 :         *eof_flag = 1;

	mov	rax, QWORD PTR eof_flag$[rbp]
	mov	DWORD PTR [rax], 1

; 2526 :         nb = (int)*payload_bytes;

	mov	rax, QWORD PTR payload_bytes$[rbp]
	mov	eax, DWORD PTR [rax]
	mov	DWORD PTR nb$[rbp], eax
$LN2@read_paylo:

; 2527 :     }
; 2528 :     *payload_bytes -= nb;

	mov	eax, DWORD PTR nb$[rbp]
	mov	rcx, QWORD PTR payload_bytes$[rbp]
	mov	rcx, QWORD PTR [rcx]
	sub	rcx, rax
	mov	rax, rcx
	mov	rcx, QWORD PTR payload_bytes$[rbp]
	mov	QWORD PTR [rcx], rax

; 2529 : 
; 2530 :     return minimp4_read(mp4, nb, eof_flag);

	mov	r8, QWORD PTR eof_flag$[rbp]
	mov	edx, DWORD PTR nb$[rbp]
	mov	rcx, QWORD PTR mp4$[rbp]
	call	?minimp4_read@@YAIPEAUMP4D_demux_tag@@HPEAH@Z ; minimp4_read

; 2531 : }

	lea	rsp, QWORD PTR [rbp+64]
	pop	rbp
	ret	0
?read_payload@@YAIPEAUMP4D_demux_tag@@IPEA_KPEAH@Z ENDP	; read_payload
_TEXT	ENDS
; Function compile flags: /Odtp /ZI
; File C:\Users\paras\source\repos\grep-name\XenevaOS\Process\AudioPlayer\minimp4.h
;	COMDAT ?minimp4_read@@YAIPEAUMP4D_demux_tag@@HPEAH@Z
_TEXT	SEGMENT
v$ = 0
last_byte$ = 4
tv73 = 72
tv69 = 72
tv65 = 72
tv64 = 72
mp4$ = 96
nb$ = 104
eof_flag$ = 112
?minimp4_read@@YAIPEAUMP4D_demux_tag@@HPEAH@Z PROC	; minimp4_read, COMDAT

; 2500 : {

	mov	QWORD PTR [rsp+24], r8
	mov	DWORD PTR [rsp+16], edx
	mov	QWORD PTR [rsp+8], rcx
	push	rbp
	sub	rsp, 112				; 00000070H
	lea	rbp, QWORD PTR [rsp+32]

; 2501 :     uint32_t v = 0; int last_byte;

	mov	DWORD PTR v$[rbp], 0

; 2502 :     switch (nb)

	mov	eax, DWORD PTR nb$[rbp]
	mov	DWORD PTR tv64[rbp], eax
	cmp	DWORD PTR tv64[rbp], 1
	je	SHORT $LN8@minimp4_re
	cmp	DWORD PTR tv64[rbp], 2
	je	SHORT $LN6@minimp4_re
	cmp	DWORD PTR tv64[rbp], 3
	je	SHORT $LN5@minimp4_re
	cmp	DWORD PTR tv64[rbp], 4
	je	SHORT $LN4@minimp4_re
	jmp	SHORT $LN7@minimp4_re
$LN4@minimp4_re:

; 2503 :     {
; 2504 :     case 4: v = (v << 8) | minimp4_fgets(mp4);

	mov	eax, DWORD PTR v$[rbp]
	shl	eax, 8
	mov	DWORD PTR tv65[rbp], eax
	mov	rcx, QWORD PTR mp4$[rbp]
	call	?minimp4_fgets@@YAHPEAUMP4D_demux_tag@@@Z ; minimp4_fgets
	mov	ecx, DWORD PTR tv65[rbp]
	or	ecx, eax
	mov	eax, ecx
	mov	DWORD PTR v$[rbp], eax
$LN5@minimp4_re:

; 2505 :     case 3: v = (v << 8) | minimp4_fgets(mp4);

	mov	eax, DWORD PTR v$[rbp]
	shl	eax, 8
	mov	DWORD PTR tv69[rbp], eax
	mov	rcx, QWORD PTR mp4$[rbp]
	call	?minimp4_fgets@@YAHPEAUMP4D_demux_tag@@@Z ; minimp4_fgets
	mov	ecx, DWORD PTR tv69[rbp]
	or	ecx, eax
	mov	eax, ecx
	mov	DWORD PTR v$[rbp], eax
$LN6@minimp4_re:

; 2506 :     case 2: v = (v << 8) | minimp4_fgets(mp4);

	mov	eax, DWORD PTR v$[rbp]
	shl	eax, 8
	mov	DWORD PTR tv73[rbp], eax
	mov	rcx, QWORD PTR mp4$[rbp]
	call	?minimp4_fgets@@YAHPEAUMP4D_demux_tag@@@Z ; minimp4_fgets
	mov	ecx, DWORD PTR tv73[rbp]
	or	ecx, eax
	mov	eax, ecx
	mov	DWORD PTR v$[rbp], eax
$LN7@minimp4_re:
$LN8@minimp4_re:

; 2507 :     default:
; 2508 :     case 1: v = (v << 8) | (last_byte = minimp4_fgets(mp4));

	mov	rcx, QWORD PTR mp4$[rbp]
	call	?minimp4_fgets@@YAHPEAUMP4D_demux_tag@@@Z ; minimp4_fgets
	mov	DWORD PTR last_byte$[rbp], eax
	mov	eax, DWORD PTR v$[rbp]
	shl	eax, 8
	or	eax, DWORD PTR last_byte$[rbp]
	mov	DWORD PTR v$[rbp], eax

; 2509 :     }
; 2510 :     if (last_byte < 0)

	cmp	DWORD PTR last_byte$[rbp], 0
	jge	SHORT $LN9@minimp4_re

; 2511 :     {
; 2512 :         *eof_flag = 1;

	mov	rax, QWORD PTR eof_flag$[rbp]
	mov	DWORD PTR [rax], 1
$LN9@minimp4_re:

; 2513 :     }
; 2514 :     return v;

	mov	eax, DWORD PTR v$[rbp]

; 2515 : }

	lea	rsp, QWORD PTR [rbp+80]
	pop	rbp
	ret	0
?minimp4_read@@YAIPEAUMP4D_demux_tag@@HPEAH@Z ENDP	; minimp4_read
_TEXT	ENDS
; Function compile flags: /Odtp /ZI
; File C:\Users\paras\source\repos\grep-name\XenevaOS\Process\AudioPlayer\minimp4.h
;	COMDAT ?minimp4_fgets@@YAHPEAUMP4D_demux_tag@@@Z
_TEXT	SEGMENT
c$ = 0
mp4$ = 96
?minimp4_fgets@@YAHPEAUMP4D_demux_tag@@@Z PROC		; minimp4_fgets, COMDAT

; 2487 : {

	mov	QWORD PTR [rsp+8], rcx
	push	rbp
	sub	rsp, 112				; 00000070H
	lea	rbp, QWORD PTR [rsp+32]

; 2488 :     uint8_t c;
; 2489 :     if (mp4->read_callback(mp4->read_pos, &c, 1, mp4->token))

	mov	rax, QWORD PTR mp4$[rbp]
	mov	r9, QWORD PTR [rax+32]
	mov	r8d, 1
	lea	rdx, QWORD PTR c$[rbp]
	mov	rax, QWORD PTR mp4$[rbp]
	mov	rcx, QWORD PTR [rax]
	mov	rax, QWORD PTR mp4$[rbp]
	call	QWORD PTR [rax+24]
	test	eax, eax
	je	SHORT $LN2@minimp4_fg

; 2490 :         return -1;

	mov	eax, -1
	jmp	SHORT $LN1@minimp4_fg
$LN2@minimp4_fg:

; 2491 :     mp4->read_pos++;

	mov	rax, QWORD PTR mp4$[rbp]
	mov	rax, QWORD PTR [rax]
	inc	rax
	mov	rcx, QWORD PTR mp4$[rbp]
	mov	QWORD PTR [rcx], rax

; 2492 :     return c;

	movzx	eax, BYTE PTR c$[rbp]
$LN1@minimp4_fg:

; 2493 : }

	lea	rsp, QWORD PTR [rbp+80]
	pop	rbp
	ret	0
?minimp4_fgets@@YAHPEAUMP4D_demux_tag@@@Z ENDP		; minimp4_fgets
_TEXT	ENDS
; Function compile flags: /Odtp /ZI
; File C:\Users\paras\source\repos\grep-name\XenevaOS\Process\AudioPlayer\minimp4.h
;	COMDAT ?mp4_h265_write_nal@@YAHPEAUmp4_h26x_writer_tag@@PEBEHI@Z
_TEXT	SEGMENT
payload_type$ = 0
is_intra$ = 4
err$ = 8
tmp$1 = 16
sample_kind$2 = 24
tv80 = 92
tv71 = 92
h$ = 112
nal$ = 120
sizeof_nal$ = 128
timeStamp90kHz_next$ = 136
?mp4_h265_write_nal@@YAHPEAUmp4_h26x_writer_tag@@PEBEHI@Z PROC ; mp4_h265_write_nal, COMDAT

; 2297 : {

	mov	DWORD PTR [rsp+32], r9d
	mov	DWORD PTR [rsp+24], r8d
	mov	QWORD PTR [rsp+16], rdx
	mov	QWORD PTR [rsp+8], rcx
	push	rbp
	sub	rsp, 144				; 00000090H
	lea	rbp, QWORD PTR [rsp+48]

; 2298 :     int payload_type = (nal[0] >> 1) & 0x3f;

	mov	eax, 1
	imul	rax, rax, 0
	mov	rcx, QWORD PTR nal$[rbp]
	movzx	eax, BYTE PTR [rcx+rax]
	sar	eax, 1
	and	eax, 63					; 0000003fH
	mov	DWORD PTR payload_type$[rbp], eax

; 2299 :     int is_intra = payload_type >= HEVC_NAL_BLA_W_LP && payload_type <= HEVC_NAL_CRA_NUT;

	cmp	DWORD PTR payload_type$[rbp], 16
	jl	SHORT $LN14@mp4_h265_w
	cmp	DWORD PTR payload_type$[rbp], 21
	jg	SHORT $LN14@mp4_h265_w
	mov	DWORD PTR tv71[rbp], 1
	jmp	SHORT $LN15@mp4_h265_w
$LN14@mp4_h265_w:
	mov	DWORD PTR tv71[rbp], 0
$LN15@mp4_h265_w:
	mov	eax, DWORD PTR tv71[rbp]
	mov	DWORD PTR is_intra$[rbp], eax

; 2300 :     int err = MP4E_STATUS_OK;

	mov	DWORD PTR err$[rbp], 0

; 2301 :     //printf("payload_type=%d, intra=%d\n", payload_type, is_intra);
; 2302 : 
; 2303 :     if (is_intra && !h->need_sps && !h->need_pps && !h->need_vps)

	cmp	DWORD PTR is_intra$[rbp], 0
	je	SHORT $LN4@mp4_h265_w
	mov	rax, QWORD PTR h$[rbp]
	cmp	DWORD PTR [rax+4628], 0
	jne	SHORT $LN4@mp4_h265_w
	mov	rax, QWORD PTR h$[rbp]
	cmp	DWORD PTR [rax+4632], 0
	jne	SHORT $LN4@mp4_h265_w
	mov	rax, QWORD PTR h$[rbp]
	cmp	DWORD PTR [rax+4624], 0
	jne	SHORT $LN4@mp4_h265_w

; 2304 :         h->need_idr = 0;

	mov	rax, QWORD PTR h$[rbp]
	mov	DWORD PTR [rax+4636], 0
$LN4@mp4_h265_w:

; 2305 :     switch (payload_type)

	mov	eax, DWORD PTR payload_type$[rbp]
	mov	DWORD PTR tv80[rbp], eax
	cmp	DWORD PTR tv80[rbp], 32			; 00000020H
	je	SHORT $LN5@mp4_h265_w
	cmp	DWORD PTR tv80[rbp], 33			; 00000021H
	je	SHORT $LN6@mp4_h265_w
	cmp	DWORD PTR tv80[rbp], 34			; 00000022H
	je	SHORT $LN7@mp4_h265_w
	jmp	$LN8@mp4_h265_w
$LN5@mp4_h265_w:

; 2306 :     {
; 2307 :     case HEVC_NAL_VPS:
; 2308 :         MP4E_set_vps(h->mux, h->mux_track_id, nal, sizeof_nal);

	mov	r9d, DWORD PTR sizeof_nal$[rbp]
	mov	r8, QWORD PTR nal$[rbp]
	mov	rax, QWORD PTR h$[rbp]
	mov	edx, DWORD PTR [rax+4616]
	mov	rax, QWORD PTR h$[rbp]
	mov	rcx, QWORD PTR [rax+4608]
	call	MP4E_set_vps

; 2309 :         h->need_vps = 0;

	mov	rax, QWORD PTR h$[rbp]
	mov	DWORD PTR [rax+4624], 0

; 2310 :         break;

	jmp	$LN2@mp4_h265_w
$LN6@mp4_h265_w:

; 2311 :     case HEVC_NAL_SPS:
; 2312 :         MP4E_set_sps(h->mux, h->mux_track_id, nal, sizeof_nal);

	mov	r9d, DWORD PTR sizeof_nal$[rbp]
	mov	r8, QWORD PTR nal$[rbp]
	mov	rax, QWORD PTR h$[rbp]
	mov	edx, DWORD PTR [rax+4616]
	mov	rax, QWORD PTR h$[rbp]
	mov	rcx, QWORD PTR [rax+4608]
	call	MP4E_set_sps

; 2313 :         h->need_sps = 0;

	mov	rax, QWORD PTR h$[rbp]
	mov	DWORD PTR [rax+4628], 0

; 2314 :         break;

	jmp	$LN2@mp4_h265_w
$LN7@mp4_h265_w:

; 2315 :     case HEVC_NAL_PPS:
; 2316 :         MP4E_set_pps(h->mux, h->mux_track_id, nal, sizeof_nal);

	mov	r9d, DWORD PTR sizeof_nal$[rbp]
	mov	r8, QWORD PTR nal$[rbp]
	mov	rax, QWORD PTR h$[rbp]
	mov	edx, DWORD PTR [rax+4616]
	mov	rax, QWORD PTR h$[rbp]
	mov	rcx, QWORD PTR [rax+4608]
	call	MP4E_set_pps

; 2317 :         h->need_pps = 0;

	mov	rax, QWORD PTR h$[rbp]
	mov	DWORD PTR [rax+4632], 0

; 2318 :         break;

	jmp	$LN2@mp4_h265_w
$LN8@mp4_h265_w:

; 2319 :     default:
; 2320 :         if (h->need_vps || h->need_sps || h->need_pps || h->need_idr)

	mov	rax, QWORD PTR h$[rbp]
	cmp	DWORD PTR [rax+4624], 0
	jne	SHORT $LN10@mp4_h265_w
	mov	rax, QWORD PTR h$[rbp]
	cmp	DWORD PTR [rax+4628], 0
	jne	SHORT $LN10@mp4_h265_w
	mov	rax, QWORD PTR h$[rbp]
	cmp	DWORD PTR [rax+4632], 0
	jne	SHORT $LN10@mp4_h265_w
	mov	rax, QWORD PTR h$[rbp]
	cmp	DWORD PTR [rax+4636], 0
	je	SHORT $LN9@mp4_h265_w
$LN10@mp4_h265_w:

; 2321 :             return MP4E_STATUS_BAD_ARGUMENTS;

	mov	eax, -1
	jmp	$LN1@mp4_h265_w
$LN9@mp4_h265_w:

; 2322 :         {
; 2323 :             unsigned char* tmp = (unsigned char*)malloc(4 + sizeof_nal);

	mov	eax, DWORD PTR sizeof_nal$[rbp]
	add	eax, 4
	mov	ecx, eax
	call	malloc
	mov	QWORD PTR tmp$1[rbp], rax

; 2324 :             if (!tmp)

	cmp	QWORD PTR tmp$1[rbp], 0
	jne	SHORT $LN11@mp4_h265_w

; 2325 :                 return MP4E_STATUS_NO_MEMORY;

	mov	eax, -2
	jmp	$LN1@mp4_h265_w
$LN11@mp4_h265_w:

; 2326 :             int sample_kind = MP4E_SAMPLE_DEFAULT;

	mov	DWORD PTR sample_kind$2[rbp], 0

; 2327 :             tmp[0] = (unsigned char)(sizeof_nal >> 24);

	mov	eax, DWORD PTR sizeof_nal$[rbp]
	sar	eax, 24
	mov	ecx, 1
	imul	rcx, rcx, 0
	mov	rdx, QWORD PTR tmp$1[rbp]
	mov	BYTE PTR [rdx+rcx], al

; 2328 :             tmp[1] = (unsigned char)(sizeof_nal >> 16);

	mov	eax, DWORD PTR sizeof_nal$[rbp]
	sar	eax, 16
	mov	ecx, 1
	imul	rcx, rcx, 1
	mov	rdx, QWORD PTR tmp$1[rbp]
	mov	BYTE PTR [rdx+rcx], al

; 2329 :             tmp[2] = (unsigned char)(sizeof_nal >> 8);

	mov	eax, DWORD PTR sizeof_nal$[rbp]
	sar	eax, 8
	mov	ecx, 1
	imul	rcx, rcx, 2
	mov	rdx, QWORD PTR tmp$1[rbp]
	mov	BYTE PTR [rdx+rcx], al

; 2330 :             tmp[3] = (unsigned char)(sizeof_nal);

	mov	eax, 1
	imul	rax, rax, 3
	mov	rcx, QWORD PTR tmp$1[rbp]
	movzx	edx, BYTE PTR sizeof_nal$[rbp]
	mov	BYTE PTR [rcx+rax], dl

; 2331 :             memcpy(tmp + 4,(void*) nal, sizeof_nal);

	movsxd	rax, DWORD PTR sizeof_nal$[rbp]
	mov	rcx, QWORD PTR tmp$1[rbp]
	add	rcx, 4
	mov	r8, rax
	mov	rdx, QWORD PTR nal$[rbp]
	call	memcpy

; 2332 :             if (is_intra)

	cmp	DWORD PTR is_intra$[rbp], 0
	je	SHORT $LN12@mp4_h265_w

; 2333 :                 sample_kind = MP4E_SAMPLE_RANDOM_ACCESS;

	mov	DWORD PTR sample_kind$2[rbp], 1
$LN12@mp4_h265_w:

; 2334 :             err = MP4E_put_sample(h->mux, h->mux_track_id, tmp, 4 + sizeof_nal, timeStamp90kHz_next, sample_kind);

	mov	eax, DWORD PTR sizeof_nal$[rbp]
	add	eax, 4
	mov	ecx, DWORD PTR sample_kind$2[rbp]
	mov	DWORD PTR [rsp+40], ecx
	mov	ecx, DWORD PTR timeStamp90kHz_next$[rbp]
	mov	DWORD PTR [rsp+32], ecx
	mov	r9d, eax
	mov	r8, QWORD PTR tmp$1[rbp]
	mov	rax, QWORD PTR h$[rbp]
	mov	edx, DWORD PTR [rax+4616]
	mov	rax, QWORD PTR h$[rbp]
	mov	rcx, QWORD PTR [rax+4608]
	call	MP4E_put_sample
	mov	DWORD PTR err$[rbp], eax

; 2335 :             free(tmp);

	mov	rcx, QWORD PTR tmp$1[rbp]
	call	free
$LN2@mp4_h265_w:

; 2336 :         }
; 2337 :         break;
; 2338 :     }
; 2339 :     return err;

	mov	eax, DWORD PTR err$[rbp]
$LN1@mp4_h265_w:

; 2340 : }

	lea	rsp, QWORD PTR [rbp+96]
	pop	rbp
	ret	0
?mp4_h265_write_nal@@YAHPEAUmp4_h26x_writer_tag@@PEBEHI@Z ENDP ; mp4_h265_write_nal
_TEXT	ENDS
; Function compile flags: /Odtp /ZI
; File C:\Users\paras\source\repos\grep-name\XenevaOS\Process\AudioPlayer\minimp4.h
;	COMDAT ?find_nal_unit@@YAPEBEPEBEHPEAH@Z
_TEXT	SEGMENT
eof$ = 0
zcount$ = 8
start$ = 16
stop$ = 24
h264_data$ = 112
h264_data_bytes$ = 120
pnal_unit_bytes$ = 128
?find_nal_unit@@YAPEBEPEBEHPEAH@Z PROC			; find_nal_unit, COMDAT

; 2232 : {

	mov	QWORD PTR [rsp+24], r8
	mov	DWORD PTR [rsp+16], edx
	mov	QWORD PTR [rsp+8], rcx
	push	rbp
	sub	rsp, 128				; 00000080H
	lea	rbp, QWORD PTR [rsp+32]

; 2233 :     const uint8_t* eof = h264_data + h264_data_bytes;

	movsxd	rax, DWORD PTR h264_data_bytes$[rbp]
	mov	rcx, QWORD PTR h264_data$[rbp]
	add	rcx, rax
	mov	rax, rcx
	mov	QWORD PTR eof$[rbp], rax

; 2234 :     int zcount;
; 2235 :     const uint8_t* start = find_start_code(h264_data, h264_data_bytes, &zcount);

	lea	r8, QWORD PTR zcount$[rbp]
	mov	edx, DWORD PTR h264_data_bytes$[rbp]
	mov	rcx, QWORD PTR h264_data$[rbp]
	call	?find_start_code@@YAPEBEPEBEHPEAH@Z	; find_start_code
	mov	QWORD PTR start$[rbp], rax

; 2236 :     const uint8_t* stop = start;

	mov	rax, QWORD PTR start$[rbp]
	mov	QWORD PTR stop$[rbp], rax

; 2237 :     if (start)

	cmp	QWORD PTR start$[rbp], 0
	je	SHORT $LN4@find_nal_u

; 2238 :     {
; 2239 :         stop = find_start_code(start, (int)(eof - start), &zcount);

	mov	rax, QWORD PTR start$[rbp]
	mov	rcx, QWORD PTR eof$[rbp]
	sub	rcx, rax
	mov	rax, rcx
	lea	r8, QWORD PTR zcount$[rbp]
	mov	edx, eax
	mov	rcx, QWORD PTR start$[rbp]
	call	?find_start_code@@YAPEBEPEBEHPEAH@Z	; find_start_code
	mov	QWORD PTR stop$[rbp], rax
$LN2@find_nal_u:

; 2240 :         while (stop > start && !stop[-1])

	mov	rax, QWORD PTR start$[rbp]
	cmp	QWORD PTR stop$[rbp], rax
	jbe	SHORT $LN3@find_nal_u
	mov	eax, 1
	imul	rax, rax, -1
	mov	rcx, QWORD PTR stop$[rbp]
	movzx	eax, BYTE PTR [rcx+rax]
	test	eax, eax
	jne	SHORT $LN3@find_nal_u

; 2241 :         {
; 2242 :             stop--;

	mov	rax, QWORD PTR stop$[rbp]
	dec	rax
	mov	QWORD PTR stop$[rbp], rax

; 2243 :         }

	jmp	SHORT $LN2@find_nal_u
$LN3@find_nal_u:
$LN4@find_nal_u:

; 2244 :     }
; 2245 : 
; 2246 :     *pnal_unit_bytes = (int)(stop - start - zcount);

	mov	rax, QWORD PTR start$[rbp]
	mov	rcx, QWORD PTR stop$[rbp]
	sub	rcx, rax
	mov	rax, rcx
	movsxd	rcx, DWORD PTR zcount$[rbp]
	sub	rax, rcx
	mov	rcx, QWORD PTR pnal_unit_bytes$[rbp]
	mov	DWORD PTR [rcx], eax

; 2247 :     return start;

	mov	rax, QWORD PTR start$[rbp]

; 2248 : }

	lea	rsp, QWORD PTR [rbp+96]
	pop	rbp
	ret	0
?find_nal_unit@@YAPEBEPEBEHPEAH@Z ENDP			; find_nal_unit
_TEXT	ENDS
; Function compile flags: /Odtp /ZI
; File C:\Users\paras\source\repos\grep-name\XenevaOS\Process\AudioPlayer\minimp4.h
;	COMDAT ?find_start_code@@YAPEBEPEBEHPEAH@Z
_TEXT	SEGMENT
eof$ = 0
p$ = 8
zero_cnt$1 = 16
found$2 = 24
tv72 = 96
h264_data$ = 128
h264_data_bytes$ = 136
zcount$ = 144
?find_start_code@@YAPEBEPEBEHPEAH@Z PROC		; find_start_code, COMDAT

; 2208 : {

	mov	QWORD PTR [rsp+24], r8
	mov	DWORD PTR [rsp+16], edx
	mov	QWORD PTR [rsp+8], rcx
	push	rbp
	sub	rsp, 144				; 00000090H
	lea	rbp, QWORD PTR [rsp+32]

; 2209 :     const uint8_t* eof = h264_data + h264_data_bytes;

	movsxd	rax, DWORD PTR h264_data_bytes$[rbp]
	mov	rcx, QWORD PTR h264_data$[rbp]
	add	rcx, rax
	mov	rax, rcx
	mov	QWORD PTR eof$[rbp], rax

; 2210 :     const uint8_t* p = h264_data;

	mov	rax, QWORD PTR h264_data$[rbp]
	mov	QWORD PTR p$[rbp], rax
$LN4@find_start:

; 2211 :     do
; 2212 :     {
; 2213 :         int zero_cnt = 1;

	mov	DWORD PTR zero_cnt$1[rbp], 1

; 2214 :         const uint8_t* found = (uint8_t*)memchr(p, 0, eof - p);

	mov	rax, QWORD PTR p$[rbp]
	mov	rcx, QWORD PTR eof$[rbp]
	sub	rcx, rax
	mov	rax, rcx
	mov	r8, rax
	xor	edx, edx
	mov	rcx, QWORD PTR p$[rbp]
	call	memchr
	mov	QWORD PTR found$2[rbp], rax

; 2215 :         p = found ? found : eof;

	cmp	QWORD PTR found$2[rbp], 0
	je	SHORT $LN9@find_start
	mov	rax, QWORD PTR found$2[rbp]
	mov	QWORD PTR tv72[rbp], rax
	jmp	SHORT $LN10@find_start
$LN9@find_start:
	mov	rax, QWORD PTR eof$[rbp]
	mov	QWORD PTR tv72[rbp], rax
$LN10@find_start:
	mov	rax, QWORD PTR tv72[rbp]
	mov	QWORD PTR p$[rbp], rax
$LN5@find_start:

; 2216 :         while (p + zero_cnt < eof && !p[zero_cnt]) zero_cnt++;

	movsxd	rax, DWORD PTR zero_cnt$1[rbp]
	mov	rcx, QWORD PTR p$[rbp]
	add	rcx, rax
	mov	rax, rcx
	cmp	rax, QWORD PTR eof$[rbp]
	jae	SHORT $LN6@find_start
	movsxd	rax, DWORD PTR zero_cnt$1[rbp]
	mov	rcx, QWORD PTR p$[rbp]
	movzx	eax, BYTE PTR [rcx+rax]
	test	eax, eax
	jne	SHORT $LN6@find_start
	mov	eax, DWORD PTR zero_cnt$1[rbp]
	inc	eax
	mov	DWORD PTR zero_cnt$1[rbp], eax
	jmp	SHORT $LN5@find_start
$LN6@find_start:

; 2217 :         if (zero_cnt >= 2 && p[zero_cnt] == 1)

	cmp	DWORD PTR zero_cnt$1[rbp], 2
	jl	SHORT $LN7@find_start
	movsxd	rax, DWORD PTR zero_cnt$1[rbp]
	mov	rcx, QWORD PTR p$[rbp]
	movzx	eax, BYTE PTR [rcx+rax]
	cmp	eax, 1
	jne	SHORT $LN7@find_start

; 2218 :         {
; 2219 :             *zcount = zero_cnt + 1;

	mov	eax, DWORD PTR zero_cnt$1[rbp]
	inc	eax
	mov	rcx, QWORD PTR zcount$[rbp]
	mov	DWORD PTR [rcx], eax

; 2220 :             return p + zero_cnt + 1;

	movsxd	rax, DWORD PTR zero_cnt$1[rbp]
	mov	rcx, QWORD PTR p$[rbp]
	lea	rax, QWORD PTR [rcx+rax+1]
	jmp	SHORT $LN1@find_start
$LN7@find_start:

; 2221 :         }
; 2222 :         p += zero_cnt;

	movsxd	rax, DWORD PTR zero_cnt$1[rbp]
	mov	rcx, QWORD PTR p$[rbp]
	add	rcx, rax
	mov	rax, rcx
	mov	QWORD PTR p$[rbp], rax

; 2223 :     } while (p < eof);

	mov	rax, QWORD PTR eof$[rbp]
	cmp	QWORD PTR p$[rbp], rax
	jb	$LN4@find_start

; 2224 :     *zcount = 0;

	mov	rax, QWORD PTR zcount$[rbp]
	mov	DWORD PTR [rax], 0

; 2225 :     return eof;

	mov	rax, QWORD PTR eof$[rbp]
$LN1@find_start:

; 2226 : }

	lea	rsp, QWORD PTR [rbp+112]
	pop	rbp
	ret	0
?find_start_code@@YAPEBEPEBEHPEAH@Z ENDP		; find_start_code
_TEXT	ENDS
; Function compile flags: /Odtp /ZI
; File C:\Users\paras\source\repos\grep-name\XenevaOS\Process\AudioPlayer\minimp4.h
;	COMDAT ?transcode_nalu@@YAHPEAUh264_sps_id_patcher_t@@PEBEHPEAE@Z
_TEXT	SEGMENT
old_id$ = 0
bst$ = 8
bdt$ = 40
bs$ = 64
bd$ = 96
payload_type$ = 120
cb$1 = 124
id$2 = 128
cb$3 = 132
id$4 = 136
tv84 = 204
tv153 = 208
tv129 = 208
h$ = 240
src$ = 248
nalu_bytes$ = 256
dst$ = 264
?transcode_nalu@@YAHPEAUh264_sps_id_patcher_t@@PEBEHPEAE@Z PROC ; transcode_nalu, COMDAT

; 2143 : {

	mov	QWORD PTR [rsp+32], r9
	mov	DWORD PTR [rsp+24], r8d
	mov	QWORD PTR [rsp+16], rdx
	mov	QWORD PTR [rsp+8], rcx
	push	rbp
	sub	rsp, 272				; 00000110H
	lea	rbp, QWORD PTR [rsp+48]

; 2144 :     int old_id;
; 2145 : 
; 2146 :     bit_reader_t bst[1];
; 2147 :     bs_t bdt[1];
; 2148 : 
; 2149 :     bit_reader_t bs[1];
; 2150 :     bs_t bd[1];
; 2151 :     int payload_type = src[0] & 31;

	mov	eax, 1
	imul	rax, rax, 0
	mov	rcx, QWORD PTR src$[rbp]
	movzx	eax, BYTE PTR [rcx+rax]
	and	eax, 31
	mov	DWORD PTR payload_type$[rbp], eax

; 2152 : 
; 2153 :     *dst = *src;

	mov	rax, QWORD PTR dst$[rbp]
	mov	rcx, QWORD PTR src$[rbp]
	movzx	ecx, BYTE PTR [rcx]
	mov	BYTE PTR [rax], cl

; 2154 :     h264e_bs_init_bits(bd, dst + 1);

	mov	rax, QWORD PTR dst$[rbp]
	inc	rax
	mov	rdx, rax
	lea	rcx, QWORD PTR bd$[rbp]
	call	?h264e_bs_init_bits@@YAXPEAUbs_t@@PEAX@Z ; h264e_bs_init_bits

; 2155 :     init_bits(bs, src + 1, nalu_bytes - 1);

	mov	eax, DWORD PTR nalu_bytes$[rbp]
	dec	eax
	mov	rcx, QWORD PTR src$[rbp]
	inc	rcx
	mov	r8d, eax
	mov	rdx, rcx
	lea	rcx, QWORD PTR bs$[rbp]
	call	?init_bits@@YAXPEAUbit_reader_t@@PEBXI@Z ; init_bits

; 2156 :     h264e_bs_init_bits(bdt, dst + 1);

	mov	rax, QWORD PTR dst$[rbp]
	inc	rax
	mov	rdx, rax
	lea	rcx, QWORD PTR bdt$[rbp]
	call	?h264e_bs_init_bits@@YAXPEAUbs_t@@PEAX@Z ; h264e_bs_init_bits

; 2157 :     init_bits(bst, src + 1, nalu_bytes - 1);

	mov	eax, DWORD PTR nalu_bytes$[rbp]
	dec	eax
	mov	rcx, QWORD PTR src$[rbp]
	inc	rcx
	mov	r8d, eax
	mov	rdx, rcx
	lea	rcx, QWORD PTR bst$[rbp]
	call	?init_bits@@YAXPEAUbit_reader_t@@PEBXI@Z ; init_bits

; 2158 : 
; 2159 :     switch (payload_type)

	mov	eax, DWORD PTR payload_type$[rbp]
	mov	DWORD PTR tv84[rbp], eax
	cmp	DWORD PTR tv84[rbp], 1
	je	$LN8@transcode_
	cmp	DWORD PTR tv84[rbp], 2
	je	$LN9@transcode_
	cmp	DWORD PTR tv84[rbp], 5
	je	$LN10@transcode_
	cmp	DWORD PTR tv84[rbp], 7
	je	SHORT $LN4@transcode_
	cmp	DWORD PTR tv84[rbp], 8
	je	$LN6@transcode_
	jmp	$LN11@transcode_
$LN4@transcode_:

; 2160 :     {
; 2161 :     case 7:
; 2162 :     {
; 2163 :         int cb = change_sps_id(bst, bdt, 0, &old_id);

	lea	r9, QWORD PTR old_id$[rbp]
	xor	r8d, r8d
	lea	rdx, QWORD PTR bdt$[rbp]
	lea	rcx, QWORD PTR bst$[rbp]
	call	?change_sps_id@@YAHPEAUbit_reader_t@@PEAUbs_t@@HPEAH@Z ; change_sps_id
	mov	DWORD PTR cb$1[rbp], eax

; 2164 :         int id = find_mem_cache(h->sps_cache, h->sps_bytes, MINIMP4_MAX_SPS, dst + 1, cb);

	mov	rax, QWORD PTR dst$[rbp]
	inc	rax
	mov	rcx, QWORD PTR h$[rbp]
	add	rcx, 2304				; 00000900H
	mov	rdx, QWORD PTR h$[rbp]
	mov	QWORD PTR tv129[rbp], rdx
	mov	r8d, DWORD PTR cb$1[rbp]
	mov	DWORD PTR [rsp+32], r8d
	mov	r9, rax
	mov	r8d, 32					; 00000020H
	mov	rdx, rcx
	mov	rax, QWORD PTR tv129[rbp]
	mov	rcx, rax
	call	?find_mem_cache@@YAHQEAPEAXQEAHHPEAXH@Z	; find_mem_cache
	mov	DWORD PTR id$2[rbp], eax

; 2165 :         if (id == -1)

	cmp	DWORD PTR id$2[rbp], -1
	jne	SHORT $LN5@transcode_

; 2166 :             return 0;

	xor	eax, eax
	jmp	$LN1@transcode_
$LN5@transcode_:

; 2167 :         h->map_sps[old_id] = id;

	movsxd	rax, DWORD PTR old_id$[rbp]
	mov	rcx, QWORD PTR h$[rbp]
	mov	edx, DWORD PTR id$2[rbp]
	mov	DWORD PTR [rcx+rax*4+3456], edx

; 2168 :         change_sps_id(bs, bd, id, &old_id);

	lea	r9, QWORD PTR old_id$[rbp]
	mov	r8d, DWORD PTR id$2[rbp]
	lea	rdx, QWORD PTR bd$[rbp]
	lea	rcx, QWORD PTR bs$[rbp]
	call	?change_sps_id@@YAHPEAUbit_reader_t@@PEAUbs_t@@HPEAH@Z ; change_sps_id

; 2169 :     }
; 2170 :     break;

	jmp	$LN2@transcode_
$LN6@transcode_:

; 2171 :     case 8:
; 2172 :     {
; 2173 :         int cb = patch_pps(h, bst, bdt, 0, &old_id);

	lea	rax, QWORD PTR old_id$[rbp]
	mov	QWORD PTR [rsp+32], rax
	xor	r9d, r9d
	lea	r8, QWORD PTR bdt$[rbp]
	lea	rdx, QWORD PTR bst$[rbp]
	mov	rcx, QWORD PTR h$[rbp]
	call	?patch_pps@@YAHPEAUh264_sps_id_patcher_t@@PEAUbit_reader_t@@PEAUbs_t@@HPEAH@Z ; patch_pps
	mov	DWORD PTR cb$3[rbp], eax

; 2174 :         int id = find_mem_cache(h->pps_cache, h->pps_bytes, MINIMP4_MAX_PPS, dst + 1, cb);

	mov	rax, QWORD PTR dst$[rbp]
	inc	rax
	mov	rcx, QWORD PTR h$[rbp]
	add	rcx, 2432				; 00000980H
	mov	rdx, QWORD PTR h$[rbp]
	add	rdx, 256				; 00000100H
	mov	QWORD PTR tv153[rbp], rdx
	mov	r8d, DWORD PTR cb$3[rbp]
	mov	DWORD PTR [rsp+32], r8d
	mov	r9, rax
	mov	r8d, 256				; 00000100H
	mov	rdx, rcx
	mov	rax, QWORD PTR tv153[rbp]
	mov	rcx, rax
	call	?find_mem_cache@@YAHQEAPEAXQEAHHPEAXH@Z	; find_mem_cache
	mov	DWORD PTR id$4[rbp], eax

; 2175 :         if (id == -1)

	cmp	DWORD PTR id$4[rbp], -1
	jne	SHORT $LN7@transcode_

; 2176 :             return 0;

	xor	eax, eax
	jmp	$LN1@transcode_
$LN7@transcode_:

; 2177 :         h->map_pps[old_id] = id;

	movsxd	rax, DWORD PTR old_id$[rbp]
	mov	rcx, QWORD PTR h$[rbp]
	mov	edx, DWORD PTR id$4[rbp]
	mov	DWORD PTR [rcx+rax*4+3584], edx

; 2178 :         patch_pps(h, bs, bd, id, &old_id);

	lea	rax, QWORD PTR old_id$[rbp]
	mov	QWORD PTR [rsp+32], rax
	mov	r9d, DWORD PTR id$4[rbp]
	lea	r8, QWORD PTR bd$[rbp]
	lea	rdx, QWORD PTR bs$[rbp]
	mov	rcx, QWORD PTR h$[rbp]
	call	?patch_pps@@YAHPEAUh264_sps_id_patcher_t@@PEAUbit_reader_t@@PEAUbs_t@@HPEAH@Z ; patch_pps

; 2179 :     }
; 2180 :     break;

	jmp	SHORT $LN2@transcode_
$LN8@transcode_:
$LN9@transcode_:
$LN10@transcode_:

; 2181 :     case 1:
; 2182 :     case 2:
; 2183 :     case 5:
; 2184 :         patch_slice_header(h, bs, bd);

	lea	r8, QWORD PTR bd$[rbp]
	lea	rdx, QWORD PTR bs$[rbp]
	mov	rcx, QWORD PTR h$[rbp]
	call	?patch_slice_header@@YAXPEAUh264_sps_id_patcher_t@@PEAUbit_reader_t@@PEAUbs_t@@@Z ; patch_slice_header

; 2185 :         break;

	jmp	SHORT $LN2@transcode_
$LN11@transcode_:

; 2186 :     default:
; 2187 :         memcpy(dst, (void*)src, nalu_bytes);

	movsxd	rax, DWORD PTR nalu_bytes$[rbp]
	mov	r8, rax
	mov	rdx, QWORD PTR src$[rbp]
	mov	rcx, QWORD PTR dst$[rbp]
	call	memcpy

; 2188 :         return nalu_bytes;

	mov	eax, DWORD PTR nalu_bytes$[rbp]
	jmp	SHORT $LN1@transcode_
$LN2@transcode_:

; 2189 :     }
; 2190 : 
; 2191 :     nalu_bytes = 1 + h264e_bs_byte_align(bd) / 8;

	lea	rcx, QWORD PTR bd$[rbp]
	call	?h264e_bs_byte_align@@YAIPEAUbs_t@@@Z	; h264e_bs_byte_align
	xor	edx, edx
	mov	ecx, 8
	div	ecx
	inc	eax
	mov	DWORD PTR nalu_bytes$[rbp], eax

; 2192 :     h264e_bs_flush(bd);

	lea	rcx, QWORD PTR bd$[rbp]
	call	?h264e_bs_flush@@YAXPEAUbs_t@@@Z	; h264e_bs_flush

; 2193 : 
; 2194 :     return nalu_bytes;

	mov	eax, DWORD PTR nalu_bytes$[rbp]
$LN1@transcode_:

; 2195 : }

	lea	rsp, QWORD PTR [rbp+224]
	pop	rbp
	ret	0
?transcode_nalu@@YAHPEAUh264_sps_id_patcher_t@@PEBEHPEAE@Z ENDP ; transcode_nalu
_TEXT	ENDS
; Function compile flags: /Odtp /ZI
; File C:\Users\paras\source\repos\grep-name\XenevaOS\Process\AudioPlayer\minimp4.h
;	COMDAT ?patch_slice_header@@YAXPEAUh264_sps_id_patcher_t@@PEAUbit_reader_t@@PEAUbs_t@@@Z
_TEXT	SEGMENT
first_mb_in_slice$ = 0
slice_type$ = 4
pps_id$ = 8
tv75 = 76
h$ = 96
bs$ = 104
bd$ = 112
?patch_slice_header@@YAXPEAUh264_sps_id_patcher_t@@PEAUbit_reader_t@@PEAUbs_t@@@Z PROC ; patch_slice_header, COMDAT

; 2127 : {

	mov	QWORD PTR [rsp+24], r8
	mov	QWORD PTR [rsp+16], rdx
	mov	QWORD PTR [rsp+8], rcx
	push	rbp
	sub	rsp, 112				; 00000070H
	lea	rbp, QWORD PTR [rsp+32]

; 2128 :     unsigned first_mb_in_slice = ue_bits(bs);

	mov	rcx, QWORD PTR bs$[rbp]
	call	?ue_bits@@YAHPEAUbit_reader_t@@@Z	; ue_bits
	mov	DWORD PTR first_mb_in_slice$[rbp], eax

; 2129 :     unsigned slice_type = ue_bits(bs);

	mov	rcx, QWORD PTR bs$[rbp]
	call	?ue_bits@@YAHPEAUbit_reader_t@@@Z	; ue_bits
	mov	DWORD PTR slice_type$[rbp], eax

; 2130 :     unsigned pps_id = ue_bits(bs);

	mov	rcx, QWORD PTR bs$[rbp]
	call	?ue_bits@@YAHPEAUbit_reader_t@@@Z	; ue_bits
	mov	DWORD PTR pps_id$[rbp], eax

; 2131 : 
; 2132 :     pps_id = h->map_pps[pps_id];

	mov	eax, DWORD PTR pps_id$[rbp]
	mov	rcx, QWORD PTR h$[rbp]
	mov	eax, DWORD PTR [rcx+rax*4+3584]
	mov	DWORD PTR pps_id$[rbp], eax

; 2133 : 
; 2134 :     assert(pps_id <= 255);

	cmp	DWORD PTR pps_id$[rbp], 0
	jne	SHORT $LN4@patch_slic
	mov	DWORD PTR tv75[rbp], 1
	jmp	SHORT $LN5@patch_slic
$LN4@patch_slic:
	mov	DWORD PTR tv75[rbp], 0
$LN5@patch_slic:
	cmp	DWORD PTR tv75[rbp], 255		; 000000ffH
	jg	SHORT $LN2@patch_slic
	call	abort
$LN2@patch_slic:

; 2135 : 
; 2136 :     h264e_bs_put_golomb(bd, first_mb_in_slice);

	mov	edx, DWORD PTR first_mb_in_slice$[rbp]
	mov	rcx, QWORD PTR bd$[rbp]
	call	?h264e_bs_put_golomb@@YAXPEAUbs_t@@I@Z	; h264e_bs_put_golomb

; 2137 :     h264e_bs_put_golomb(bd, slice_type);

	mov	edx, DWORD PTR slice_type$[rbp]
	mov	rcx, QWORD PTR bd$[rbp]
	call	?h264e_bs_put_golomb@@YAXPEAUbs_t@@I@Z	; h264e_bs_put_golomb

; 2138 :     h264e_bs_put_golomb(bd, pps_id);

	mov	edx, DWORD PTR pps_id$[rbp]
	mov	rcx, QWORD PTR bd$[rbp]
	call	?h264e_bs_put_golomb@@YAXPEAUbs_t@@I@Z	; h264e_bs_put_golomb

; 2139 :     copy_bits(bs, bd);

	mov	rdx, QWORD PTR bd$[rbp]
	mov	rcx, QWORD PTR bs$[rbp]
	call	?copy_bits@@YAXPEAUbit_reader_t@@PEAUbs_t@@@Z ; copy_bits

; 2140 : }

	lea	rsp, QWORD PTR [rbp+80]
	pop	rbp
	ret	0
?patch_slice_header@@YAXPEAUh264_sps_id_patcher_t@@PEAUbit_reader_t@@PEAUbs_t@@@Z ENDP ; patch_slice_header
_TEXT	ENDS
; Function compile flags: /Odtp /ZI
; File C:\Users\paras\source\repos\grep-name\XenevaOS\Process\AudioPlayer\minimp4.h
;	COMDAT ?patch_pps@@YAHPEAUh264_sps_id_patcher_t@@PEAUbit_reader_t@@PEAUbs_t@@HPEAH@Z
_TEXT	SEGMENT
bytes$ = 0
pps_id$ = 4
sps_id$ = 8
tv76 = 76
tv73 = 76
h$ = 96
bs$ = 104
bd$ = 112
new_pps_id$ = 120
old_id$ = 128
?patch_pps@@YAHPEAUh264_sps_id_patcher_t@@PEAUbit_reader_t@@PEAUbs_t@@HPEAH@Z PROC ; patch_pps, COMDAT

; 2105 : {

	mov	DWORD PTR [rsp+32], r9d
	mov	QWORD PTR [rsp+24], r8
	mov	QWORD PTR [rsp+16], rdx
	mov	QWORD PTR [rsp+8], rcx
	push	rbp
	sub	rsp, 112				; 00000070H
	lea	rbp, QWORD PTR [rsp+32]

; 2106 :     int bytes;
; 2107 :     unsigned pps_id = ue_bits(bs);  // max = 255

	mov	rcx, QWORD PTR bs$[rbp]
	call	?ue_bits@@YAHPEAUbit_reader_t@@@Z	; ue_bits
	mov	DWORD PTR pps_id$[rbp], eax

; 2108 :     unsigned sps_id = ue_bits(bs);  // max = 31

	mov	rcx, QWORD PTR bs$[rbp]
	call	?ue_bits@@YAHPEAUbit_reader_t@@@Z	; ue_bits
	mov	DWORD PTR sps_id$[rbp], eax

; 2109 : 
; 2110 :     *old_id = pps_id;

	mov	rax, QWORD PTR old_id$[rbp]
	mov	ecx, DWORD PTR pps_id$[rbp]
	mov	DWORD PTR [rax], ecx

; 2111 :     sps_id = h->map_sps[sps_id];

	mov	eax, DWORD PTR sps_id$[rbp]
	mov	rcx, QWORD PTR h$[rbp]
	mov	eax, DWORD PTR [rcx+rax*4+3456]
	mov	DWORD PTR sps_id$[rbp], eax

; 2112 :     pps_id = new_pps_id;

	mov	eax, DWORD PTR new_pps_id$[rbp]
	mov	DWORD PTR pps_id$[rbp], eax

; 2113 : 
; 2114 :     assert(sps_id <= 31);

	cmp	DWORD PTR sps_id$[rbp], 0
	jne	SHORT $LN5@patch_pps
	mov	DWORD PTR tv73[rbp], 1
	jmp	SHORT $LN6@patch_pps
$LN5@patch_pps:
	mov	DWORD PTR tv73[rbp], 0
$LN6@patch_pps:
	cmp	DWORD PTR tv73[rbp], 31
	jg	SHORT $LN2@patch_pps
	call	abort
$LN2@patch_pps:

; 2115 :     assert(pps_id <= 255);

	cmp	DWORD PTR pps_id$[rbp], 0
	jne	SHORT $LN7@patch_pps
	mov	DWORD PTR tv76[rbp], 1
	jmp	SHORT $LN8@patch_pps
$LN7@patch_pps:
	mov	DWORD PTR tv76[rbp], 0
$LN8@patch_pps:
	cmp	DWORD PTR tv76[rbp], 255		; 000000ffH
	jg	SHORT $LN3@patch_pps
	call	abort
$LN3@patch_pps:

; 2116 : 
; 2117 :     h264e_bs_put_golomb(bd, pps_id);

	mov	edx, DWORD PTR pps_id$[rbp]
	mov	rcx, QWORD PTR bd$[rbp]
	call	?h264e_bs_put_golomb@@YAXPEAUbs_t@@I@Z	; h264e_bs_put_golomb

; 2118 :     h264e_bs_put_golomb(bd, sps_id);

	mov	edx, DWORD PTR sps_id$[rbp]
	mov	rcx, QWORD PTR bd$[rbp]
	call	?h264e_bs_put_golomb@@YAXPEAUbs_t@@I@Z	; h264e_bs_put_golomb

; 2119 :     copy_bits(bs, bd);

	mov	rdx, QWORD PTR bd$[rbp]
	mov	rcx, QWORD PTR bs$[rbp]
	call	?copy_bits@@YAXPEAUbit_reader_t@@PEAUbs_t@@@Z ; copy_bits

; 2120 : 
; 2121 :     bytes = h264e_bs_byte_align(bd) / 8;

	mov	rcx, QWORD PTR bd$[rbp]
	call	?h264e_bs_byte_align@@YAIPEAUbs_t@@@Z	; h264e_bs_byte_align
	xor	edx, edx
	mov	ecx, 8
	div	ecx
	mov	DWORD PTR bytes$[rbp], eax

; 2122 :     h264e_bs_flush(bd);

	mov	rcx, QWORD PTR bd$[rbp]
	call	?h264e_bs_flush@@YAXPEAUbs_t@@@Z	; h264e_bs_flush

; 2123 :     return bytes;

	mov	eax, DWORD PTR bytes$[rbp]

; 2124 : }

	lea	rsp, QWORD PTR [rbp+80]
	pop	rbp
	ret	0
?patch_pps@@YAHPEAUh264_sps_id_patcher_t@@PEAUbit_reader_t@@PEAUbs_t@@HPEAH@Z ENDP ; patch_pps
_TEXT	ENDS
; Function compile flags: /Odtp /ZI
; File C:\Users\paras\source\repos\grep-name\XenevaOS\Process\AudioPlayer\minimp4.h
;	COMDAT ?change_sps_id@@YAHPEAUbit_reader_t@@PEAUbs_t@@HPEAH@Z
_TEXT	SEGMENT
bits$ = 0
sps_id$ = 4
i$ = 8
bytes$ = 12
tv75 = 80
bs$ = 112
bd$ = 120
new_id$ = 128
old_id$ = 136
?change_sps_id@@YAHPEAUbit_reader_t@@PEAUbs_t@@HPEAH@Z PROC ; change_sps_id, COMDAT

; 2083 : {

	mov	QWORD PTR [rsp+32], r9
	mov	DWORD PTR [rsp+24], r8d
	mov	QWORD PTR [rsp+16], rdx
	mov	QWORD PTR [rsp+8], rcx
	push	rbp
	sub	rsp, 128				; 00000080H
	lea	rbp, QWORD PTR [rsp+32]

; 2084 :     unsigned bits, sps_id, i, bytes;
; 2085 :     for (i = 0; i < 3; i++)

	mov	DWORD PTR i$[rbp], 0
	jmp	SHORT $LN4@change_sps
$LN2@change_sps:
	mov	eax, DWORD PTR i$[rbp]
	inc	eax
	mov	DWORD PTR i$[rbp], eax
$LN4@change_sps:
	cmp	DWORD PTR i$[rbp], 3
	jae	SHORT $LN3@change_sps

; 2086 :     {
; 2087 :         bits = GetBits(8);

	mov	edx, 8
	mov	rcx, QWORD PTR bs$[rbp]
	call	?get_bits@@YAIPEAUbit_reader_t@@H@Z	; get_bits
	mov	DWORD PTR bits$[rbp], eax

; 2088 :         h264e_bs_put_bits(bd, 8, bits);

	mov	r8d, DWORD PTR bits$[rbp]
	mov	edx, 8
	mov	rcx, QWORD PTR bd$[rbp]
	call	?h264e_bs_put_bits@@YAXPEAUbs_t@@II@Z	; h264e_bs_put_bits

; 2089 :     }

	jmp	SHORT $LN2@change_sps
$LN3@change_sps:

; 2090 :     sps_id = ue_bits(bs);               // max = 31

	mov	rcx, QWORD PTR bs$[rbp]
	call	?ue_bits@@YAHPEAUbit_reader_t@@@Z	; ue_bits
	mov	DWORD PTR sps_id$[rbp], eax

; 2091 : 
; 2092 :     *old_id = sps_id;

	mov	rax, QWORD PTR old_id$[rbp]
	mov	ecx, DWORD PTR sps_id$[rbp]
	mov	DWORD PTR [rax], ecx

; 2093 :     sps_id = new_id;

	mov	eax, DWORD PTR new_id$[rbp]
	mov	DWORD PTR sps_id$[rbp], eax

; 2094 :     assert(sps_id <= 31);

	cmp	DWORD PTR sps_id$[rbp], 0
	jne	SHORT $LN7@change_sps
	mov	DWORD PTR tv75[rbp], 1
	jmp	SHORT $LN8@change_sps
$LN7@change_sps:
	mov	DWORD PTR tv75[rbp], 0
$LN8@change_sps:
	cmp	DWORD PTR tv75[rbp], 31
	jg	SHORT $LN5@change_sps
	call	abort
$LN5@change_sps:

; 2095 : 
; 2096 :     h264e_bs_put_golomb(bd, sps_id);

	mov	edx, DWORD PTR sps_id$[rbp]
	mov	rcx, QWORD PTR bd$[rbp]
	call	?h264e_bs_put_golomb@@YAXPEAUbs_t@@I@Z	; h264e_bs_put_golomb

; 2097 :     copy_bits(bs, bd);

	mov	rdx, QWORD PTR bd$[rbp]
	mov	rcx, QWORD PTR bs$[rbp]
	call	?copy_bits@@YAXPEAUbit_reader_t@@PEAUbs_t@@@Z ; copy_bits

; 2098 : 
; 2099 :     bytes = h264e_bs_byte_align(bd) / 8;

	mov	rcx, QWORD PTR bd$[rbp]
	call	?h264e_bs_byte_align@@YAIPEAUbs_t@@@Z	; h264e_bs_byte_align
	xor	edx, edx
	mov	ecx, 8
	div	ecx
	mov	DWORD PTR bytes$[rbp], eax

; 2100 :     h264e_bs_flush(bd);

	mov	rcx, QWORD PTR bd$[rbp]
	call	?h264e_bs_flush@@YAXPEAUbs_t@@@Z	; h264e_bs_flush

; 2101 :     return bytes;

	mov	eax, DWORD PTR bytes$[rbp]

; 2102 : }

	lea	rsp, QWORD PTR [rbp+96]
	pop	rbp
	ret	0
?change_sps_id@@YAHPEAUbit_reader_t@@PEAUbs_t@@HPEAH@Z ENDP ; change_sps_id
_TEXT	ENDS
; Function compile flags: /Odtp /ZI
; File C:\Users\paras\source\repos\grep-name\XenevaOS\Process\AudioPlayer\minimp4.h
;	COMDAT ?copy_bits@@YAXPEAUbit_reader_t@@PEAUbs_t@@@Z
_TEXT	SEGMENT
cb$ = 0
bits$ = 4
bit_count$ = 8
tv70 = 76
bs$ = 96
bd$ = 104
?copy_bits@@YAXPEAUbit_reader_t@@PEAUbs_t@@@Z PROC	; copy_bits, COMDAT

; 2059 : {

	mov	QWORD PTR [rsp+16], rdx
	mov	QWORD PTR [rsp+8], rcx
	push	rbp
	sub	rsp, 112				; 00000070H
	lea	rbp, QWORD PTR [rsp+32]

; 2060 :     unsigned cb, bits;
; 2061 :     int bit_count = remaining_bits(bs);

	mov	rcx, QWORD PTR bs$[rbp]
	call	?remaining_bits@@YAHPEBUbit_reader_t@@@Z ; remaining_bits
	mov	DWORD PTR bit_count$[rbp], eax
$LN2@copy_bits:

; 2062 :     while (bit_count > 7)

	cmp	DWORD PTR bit_count$[rbp], 7
	jle	SHORT $LN3@copy_bits

; 2063 :     {
; 2064 :         cb = MINIMP4_MIN(bit_count - 7, 8);

	mov	eax, DWORD PTR bit_count$[rbp]
	sub	eax, 7
	cmp	eax, 8
	jge	SHORT $LN9@copy_bits
	mov	eax, DWORD PTR bit_count$[rbp]
	sub	eax, 7
	mov	DWORD PTR tv70[rbp], eax
	jmp	SHORT $LN10@copy_bits
$LN9@copy_bits:
	mov	DWORD PTR tv70[rbp], 8
$LN10@copy_bits:
	mov	eax, DWORD PTR tv70[rbp]
	mov	DWORD PTR cb$[rbp], eax

; 2065 :         bits = GetBits(cb);

	mov	edx, DWORD PTR cb$[rbp]
	mov	rcx, QWORD PTR bs$[rbp]
	call	?get_bits@@YAIPEAUbit_reader_t@@H@Z	; get_bits
	mov	DWORD PTR bits$[rbp], eax

; 2066 :         h264e_bs_put_bits(bd, cb, bits);

	mov	r8d, DWORD PTR bits$[rbp]
	mov	edx, DWORD PTR cb$[rbp]
	mov	rcx, QWORD PTR bd$[rbp]
	call	?h264e_bs_put_bits@@YAXPEAUbs_t@@II@Z	; h264e_bs_put_bits

; 2067 :         bit_count -= cb;

	mov	eax, DWORD PTR cb$[rbp]
	mov	ecx, DWORD PTR bit_count$[rbp]
	sub	ecx, eax
	mov	eax, ecx
	mov	DWORD PTR bit_count$[rbp], eax

; 2068 :     }

	jmp	SHORT $LN2@copy_bits
$LN3@copy_bits:

; 2069 : 
; 2070 :     // cut extra zeros after stop-bit
; 2071 :     bits = GetBits(bit_count);

	mov	edx, DWORD PTR bit_count$[rbp]
	mov	rcx, QWORD PTR bs$[rbp]
	call	?get_bits@@YAIPEAUbit_reader_t@@H@Z	; get_bits
	mov	DWORD PTR bits$[rbp], eax

; 2072 :     for (; bit_count && ~bits & 1; bit_count--)

	jmp	SHORT $LN6@copy_bits
$LN4@copy_bits:
	mov	eax, DWORD PTR bit_count$[rbp]
	dec	eax
	mov	DWORD PTR bit_count$[rbp], eax
$LN6@copy_bits:
	cmp	DWORD PTR bit_count$[rbp], 0
	je	SHORT $LN5@copy_bits
	mov	eax, DWORD PTR bits$[rbp]
	not	eax
	and	eax, 1
	test	eax, eax
	je	SHORT $LN5@copy_bits

; 2073 :     {
; 2074 :         bits >>= 1;

	mov	eax, DWORD PTR bits$[rbp]
	shr	eax, 1
	mov	DWORD PTR bits$[rbp], eax

; 2075 :     }

	jmp	SHORT $LN4@copy_bits
$LN5@copy_bits:

; 2076 :     if (bit_count)

	cmp	DWORD PTR bit_count$[rbp], 0
	je	SHORT $LN7@copy_bits

; 2077 :     {
; 2078 :         h264e_bs_put_bits(bd, bit_count, bits);

	mov	r8d, DWORD PTR bits$[rbp]
	mov	edx, DWORD PTR bit_count$[rbp]
	mov	rcx, QWORD PTR bd$[rbp]
	call	?h264e_bs_put_bits@@YAXPEAUbs_t@@II@Z	; h264e_bs_put_bits
$LN7@copy_bits:

; 2079 :     }
; 2080 : }

	lea	rsp, QWORD PTR [rbp+80]
	pop	rbp
	ret	0
?copy_bits@@YAXPEAUbit_reader_t@@PEAUbs_t@@@Z ENDP	; copy_bits
_TEXT	ENDS
; Function compile flags: /Odtp /ZI
; File C:\Users\paras\source\repos\grep-name\XenevaOS\Process\AudioPlayer\minimp4.h
;	COMDAT ?nal_put_esc@@YAHPEAEPEBEH@Z
_TEXT	SEGMENT
i$ = 0
j$ = 4
cntz$ = 8
byte$1 = 12
d$ = 96
s$ = 104
n$ = 112
?nal_put_esc@@YAHPEAEPEBEH@Z PROC			; nal_put_esc, COMDAT

; 2038 : {

	mov	DWORD PTR [rsp+24], r8d
	mov	QWORD PTR [rsp+16], rdx
	mov	QWORD PTR [rsp+8], rcx
	push	rbp
	sub	rsp, 80					; 00000050H
	mov	rbp, rsp

; 2039 :     int i, j = 4, cntz = 0;

	mov	DWORD PTR j$[rbp], 4
	mov	DWORD PTR cntz$[rbp], 0

; 2040 :     d[0] = d[1] = d[2] = 0; d[3] = 1; // start code

	mov	eax, 1
	imul	rax, rax, 2
	mov	rcx, QWORD PTR d$[rbp]
	mov	BYTE PTR [rcx+rax], 0
	mov	eax, 1
	imul	rax, rax, 1
	mov	rcx, QWORD PTR d$[rbp]
	mov	BYTE PTR [rcx+rax], 0
	mov	eax, 1
	imul	rax, rax, 0
	mov	rcx, QWORD PTR d$[rbp]
	mov	BYTE PTR [rcx+rax], 0
	mov	eax, 1
	imul	rax, rax, 3
	mov	rcx, QWORD PTR d$[rbp]
	mov	BYTE PTR [rcx+rax], 1

; 2041 :     for (i = 0; i < n; i++)

	mov	DWORD PTR i$[rbp], 0
	jmp	SHORT $LN4@nal_put_es
$LN2@nal_put_es:
	mov	eax, DWORD PTR i$[rbp]
	inc	eax
	mov	DWORD PTR i$[rbp], eax
$LN4@nal_put_es:
	mov	eax, DWORD PTR n$[rbp]
	cmp	DWORD PTR i$[rbp], eax
	jge	SHORT $LN3@nal_put_es

; 2042 :     {
; 2043 :         uint8_t byte = *s++;

	mov	rax, QWORD PTR s$[rbp]
	movzx	eax, BYTE PTR [rax]
	mov	BYTE PTR byte$1[rbp], al
	mov	rax, QWORD PTR s$[rbp]
	inc	rax
	mov	QWORD PTR s$[rbp], rax

; 2044 :         if (cntz == 2 && byte <= 3)

	cmp	DWORD PTR cntz$[rbp], 2
	jne	SHORT $LN5@nal_put_es
	movzx	eax, BYTE PTR byte$1[rbp]
	cmp	eax, 3
	jg	SHORT $LN5@nal_put_es

; 2045 :         {
; 2046 :             d[j++] = 3;

	movsxd	rax, DWORD PTR j$[rbp]
	mov	rcx, QWORD PTR d$[rbp]
	mov	BYTE PTR [rcx+rax], 3
	mov	eax, DWORD PTR j$[rbp]
	inc	eax
	mov	DWORD PTR j$[rbp], eax

; 2047 :             cntz = 0;

	mov	DWORD PTR cntz$[rbp], 0
$LN5@nal_put_es:

; 2048 :         }
; 2049 :         if (byte)

	movzx	eax, BYTE PTR byte$1[rbp]
	test	eax, eax
	je	SHORT $LN6@nal_put_es

; 2050 :             cntz = 0;

	mov	DWORD PTR cntz$[rbp], 0
	jmp	SHORT $LN7@nal_put_es
$LN6@nal_put_es:

; 2051 :         else
; 2052 :             cntz++;

	mov	eax, DWORD PTR cntz$[rbp]
	inc	eax
	mov	DWORD PTR cntz$[rbp], eax
$LN7@nal_put_es:

; 2053 :         d[j++] = byte;

	movsxd	rax, DWORD PTR j$[rbp]
	mov	rcx, QWORD PTR d$[rbp]
	movzx	edx, BYTE PTR byte$1[rbp]
	mov	BYTE PTR [rcx+rax], dl
	mov	eax, DWORD PTR j$[rbp]
	inc	eax
	mov	DWORD PTR j$[rbp], eax

; 2054 :     }

	jmp	$LN2@nal_put_es
$LN3@nal_put_es:

; 2055 :     return j;

	mov	eax, DWORD PTR j$[rbp]

; 2056 : }

	lea	rsp, QWORD PTR [rbp+80]
	pop	rbp
	ret	0
?nal_put_esc@@YAHPEAEPEBEH@Z ENDP			; nal_put_esc
_TEXT	ENDS
; Function compile flags: /Odtp /ZI
; File C:\Users\paras\source\repos\grep-name\XenevaOS\Process\AudioPlayer\minimp4.h
;	COMDAT ?remove_nal_escapes@@YAHPEAEPEBEH@Z
_TEXT	SEGMENT
i$ = 0
j$ = 4
zero_cnt$ = 8
dst$ = 96
src$ = 104
h264_data_bytes$ = 112
?remove_nal_escapes@@YAHPEAEPEBEH@Z PROC		; remove_nal_escapes, COMDAT

; 1998 : {

	mov	DWORD PTR [rsp+24], r8d
	mov	QWORD PTR [rsp+16], rdx
	mov	QWORD PTR [rsp+8], rcx
	push	rbp
	sub	rsp, 80					; 00000050H
	mov	rbp, rsp

; 1999 :     int i = 0, j = 0, zero_cnt = 0;

	mov	DWORD PTR i$[rbp], 0
	mov	DWORD PTR j$[rbp], 0
	mov	DWORD PTR zero_cnt$[rbp], 0

; 2000 :     for (j = 0; j < h264_data_bytes; j++)

	mov	DWORD PTR j$[rbp], 0
	jmp	SHORT $LN4@remove_nal
$LN2@remove_nal:
	mov	eax, DWORD PTR j$[rbp]
	inc	eax
	mov	DWORD PTR j$[rbp], eax
$LN4@remove_nal:
	mov	eax, DWORD PTR h264_data_bytes$[rbp]
	cmp	DWORD PTR j$[rbp], eax
	jge	$LN3@remove_nal

; 2001 :     {
; 2002 :         if (zero_cnt == 2 && src[j] <= 3)

	cmp	DWORD PTR zero_cnt$[rbp], 2
	jne	SHORT $LN5@remove_nal
	movsxd	rax, DWORD PTR j$[rbp]
	mov	rcx, QWORD PTR src$[rbp]
	movzx	eax, BYTE PTR [rcx+rax]
	cmp	eax, 3
	jg	SHORT $LN5@remove_nal

; 2003 :         {
; 2004 :             if (src[j] == 3)

	movsxd	rax, DWORD PTR j$[rbp]
	mov	rcx, QWORD PTR src$[rbp]
	movzx	eax, BYTE PTR [rcx+rax]
	cmp	eax, 3
	jne	SHORT $LN6@remove_nal

; 2005 :             {
; 2006 :                 if (j == h264_data_bytes - 1)

	mov	eax, DWORD PTR h264_data_bytes$[rbp]
	dec	eax
	cmp	DWORD PTR j$[rbp], eax
	jne	SHORT $LN8@remove_nal

; 2007 :                 {
; 2008 :                     // cabac_zero_word: no action
; 2009 :                 }

	jmp	SHORT $LN9@remove_nal
$LN8@remove_nal:

; 2010 :                 else if (src[j + 1] <= 3)

	mov	eax, DWORD PTR j$[rbp]
	inc	eax
	cdqe
	mov	rcx, QWORD PTR src$[rbp]
	movzx	eax, BYTE PTR [rcx+rax]
	cmp	eax, 3
	jg	SHORT $LN10@remove_nal

; 2011 :                 {
; 2012 :                     j++;

	mov	eax, DWORD PTR j$[rbp]
	inc	eax
	mov	DWORD PTR j$[rbp], eax

; 2013 :                     zero_cnt = 0;

	mov	DWORD PTR zero_cnt$[rbp], 0
$LN10@remove_nal:
$LN9@remove_nal:

; 2014 :                 }
; 2015 :                 else
; 2016 :                 {
; 2017 :                     // TODO: assume end-of-nal
; 2018 :                     //return 0;
; 2019 :                 }
; 2020 :             }

	jmp	SHORT $LN7@remove_nal
$LN6@remove_nal:

; 2021 :             else
; 2022 :                 return 0;

	xor	eax, eax
	jmp	SHORT $LN1@remove_nal
$LN7@remove_nal:
$LN5@remove_nal:

; 2023 :         }
; 2024 :         dst[i++] = src[j];

	movsxd	rax, DWORD PTR j$[rbp]
	movsxd	rcx, DWORD PTR i$[rbp]
	mov	rdx, QWORD PTR dst$[rbp]
	mov	r8, QWORD PTR src$[rbp]
	movzx	eax, BYTE PTR [r8+rax]
	mov	BYTE PTR [rdx+rcx], al
	mov	eax, DWORD PTR i$[rbp]
	inc	eax
	mov	DWORD PTR i$[rbp], eax

; 2025 :         if (src[j])

	movsxd	rax, DWORD PTR j$[rbp]
	mov	rcx, QWORD PTR src$[rbp]
	movzx	eax, BYTE PTR [rcx+rax]
	test	eax, eax
	je	SHORT $LN12@remove_nal

; 2026 :             zero_cnt = 0;

	mov	DWORD PTR zero_cnt$[rbp], 0
	jmp	SHORT $LN13@remove_nal
$LN12@remove_nal:

; 2027 :         else
; 2028 :             zero_cnt++;

	mov	eax, DWORD PTR zero_cnt$[rbp]
	inc	eax
	mov	DWORD PTR zero_cnt$[rbp], eax
$LN13@remove_nal:

; 2029 :     }

	jmp	$LN2@remove_nal
$LN3@remove_nal:

; 2030 :     //while (--j > i) src[j] = 0;
; 2031 :     return i;

	mov	eax, DWORD PTR i$[rbp]
$LN1@remove_nal:

; 2032 : }

	lea	rsp, QWORD PTR [rbp+80]
	pop	rbp
	ret	0
?remove_nal_escapes@@YAHPEAEPEBEH@Z ENDP		; remove_nal_escapes
_TEXT	ENDS
; Function compile flags: /Odtp /ZI
; File C:\Users\paras\source\repos\grep-name\XenevaOS\Process\AudioPlayer\minimp4.h
;	COMDAT ?find_mem_cache@@YAHQEAPEAXQEAHHPEAXH@Z
_TEXT	SEGMENT
i$ = 0
cache$ = 96
cache_bytes$ = 104
cache_size$ = 112
mem$ = 120
bytes$ = 128
?find_mem_cache@@YAHQEAPEAXQEAHHPEAXH@Z PROC		; find_mem_cache, COMDAT

; 1969 : {

	mov	QWORD PTR [rsp+32], r9
	mov	DWORD PTR [rsp+24], r8d
	mov	QWORD PTR [rsp+16], rdx
	mov	QWORD PTR [rsp+8], rcx
	push	rbp
	sub	rsp, 112				; 00000070H
	lea	rbp, QWORD PTR [rsp+32]

; 1970 :     int i;
; 1971 :     if (!bytes)

	cmp	DWORD PTR bytes$[rbp], 0
	jne	SHORT $LN8@find_mem_c

; 1972 :         return -1;

	mov	eax, -1
	jmp	$LN1@find_mem_c
$LN8@find_mem_c:

; 1973 :     for (i = 0; i < cache_size; i++)

	mov	DWORD PTR i$[rbp], 0
	jmp	SHORT $LN4@find_mem_c
$LN2@find_mem_c:
	mov	eax, DWORD PTR i$[rbp]
	inc	eax
	mov	DWORD PTR i$[rbp], eax
$LN4@find_mem_c:
	mov	eax, DWORD PTR cache_size$[rbp]
	cmp	DWORD PTR i$[rbp], eax
	jge	SHORT $LN3@find_mem_c

; 1974 :     {
; 1975 :         if (cache_bytes[i] == bytes && !memcmp(mem, cache[i], bytes))

	movsxd	rax, DWORD PTR i$[rbp]
	mov	rcx, QWORD PTR cache_bytes$[rbp]
	mov	edx, DWORD PTR bytes$[rbp]
	cmp	DWORD PTR [rcx+rax*4], edx
	jne	SHORT $LN9@find_mem_c
	movsxd	rax, DWORD PTR bytes$[rbp]
	movsxd	rcx, DWORD PTR i$[rbp]
	mov	r8, rax
	mov	rax, QWORD PTR cache$[rbp]
	mov	rdx, QWORD PTR [rax+rcx*8]
	mov	rcx, QWORD PTR mem$[rbp]
	call	memcmp
	test	eax, eax
	jne	SHORT $LN9@find_mem_c

; 1976 :             return i;   // found

	mov	eax, DWORD PTR i$[rbp]
	jmp	$LN1@find_mem_c
$LN9@find_mem_c:

; 1977 :     }

	jmp	SHORT $LN2@find_mem_c
$LN3@find_mem_c:

; 1978 :     for (i = 0; i < cache_size; i++)

	mov	DWORD PTR i$[rbp], 0
	jmp	SHORT $LN7@find_mem_c
$LN5@find_mem_c:
	mov	eax, DWORD PTR i$[rbp]
	inc	eax
	mov	DWORD PTR i$[rbp], eax
$LN7@find_mem_c:
	mov	eax, DWORD PTR cache_size$[rbp]
	cmp	DWORD PTR i$[rbp], eax
	jge	SHORT $LN6@find_mem_c

; 1979 :     {
; 1980 :         if (!cache_bytes[i])

	movsxd	rax, DWORD PTR i$[rbp]
	mov	rcx, QWORD PTR cache_bytes$[rbp]
	cmp	DWORD PTR [rcx+rax*4], 0
	jne	SHORT $LN10@find_mem_c

; 1981 :         {
; 1982 :             cache[i] = malloc(bytes);

	mov	ecx, DWORD PTR bytes$[rbp]
	call	malloc
	movsxd	rcx, DWORD PTR i$[rbp]
	mov	rdx, QWORD PTR cache$[rbp]
	mov	QWORD PTR [rdx+rcx*8], rax

; 1983 :             if (cache[i])

	movsxd	rax, DWORD PTR i$[rbp]
	mov	rcx, QWORD PTR cache$[rbp]
	cmp	QWORD PTR [rcx+rax*8], 0
	je	SHORT $LN11@find_mem_c

; 1984 :             {
; 1985 :                 memcpy(cache[i], mem, bytes);

	movsxd	rax, DWORD PTR bytes$[rbp]
	movsxd	rcx, DWORD PTR i$[rbp]
	mov	r8, rax
	mov	rdx, QWORD PTR mem$[rbp]
	mov	rax, QWORD PTR cache$[rbp]
	mov	rcx, QWORD PTR [rax+rcx*8]
	call	memcpy

; 1986 :                 cache_bytes[i] = bytes;

	movsxd	rax, DWORD PTR i$[rbp]
	mov	rcx, QWORD PTR cache_bytes$[rbp]
	mov	edx, DWORD PTR bytes$[rbp]
	mov	DWORD PTR [rcx+rax*4], edx
$LN11@find_mem_c:

; 1987 :             }
; 1988 :             return i;   // put in

	mov	eax, DWORD PTR i$[rbp]
	jmp	SHORT $LN1@find_mem_c
$LN10@find_mem_c:

; 1989 :         }
; 1990 :     }

	jmp	SHORT $LN5@find_mem_c
$LN6@find_mem_c:

; 1991 :     return -1;  // no room

	mov	eax, -1
$LN1@find_mem_c:

; 1992 : }

	lea	rsp, QWORD PTR [rbp+80]
	pop	rbp
	ret	0
?find_mem_cache@@YAHQEAPEAXQEAHHPEAXH@Z ENDP		; find_mem_cache
_TEXT	ENDS
; Function compile flags: /Odtp /ZI
; File C:\Users\paras\source\repos\grep-name\XenevaOS\Process\AudioPlayer\minimp4.h
;	COMDAT ?h264e_bs_init_bits@@YAXPEAUbs_t@@PEAX@Z
_TEXT	SEGMENT
bs$ = 80
data$ = 88
?h264e_bs_init_bits@@YAXPEAUbs_t@@PEAX@Z PROC		; h264e_bs_init_bits, COMDAT

; 1961 : {

	mov	QWORD PTR [rsp+16], rdx
	mov	QWORD PTR [rsp+8], rcx
	push	rbp
	sub	rsp, 64					; 00000040H
	mov	rbp, rsp

; 1962 :     bs->origin = (bs_item_t*)data;

	mov	rax, QWORD PTR bs$[rbp]
	mov	rcx, QWORD PTR data$[rbp]
	mov	QWORD PTR [rax+16], rcx

; 1963 :     bs->buf = bs->origin;

	mov	rax, QWORD PTR bs$[rbp]
	mov	rcx, QWORD PTR bs$[rbp]
	mov	rcx, QWORD PTR [rcx+16]
	mov	QWORD PTR [rax+8], rcx

; 1964 :     bs->shift = BS_BITS;

	mov	rax, QWORD PTR bs$[rbp]
	mov	DWORD PTR [rax], 32			; 00000020H

; 1965 :     bs->cache = 0;

	mov	rax, QWORD PTR bs$[rbp]
	mov	DWORD PTR [rax+4], 0

; 1966 : }

	lea	rsp, QWORD PTR [rbp+64]
	pop	rbp
	ret	0
?h264e_bs_init_bits@@YAXPEAUbs_t@@PEAX@Z ENDP		; h264e_bs_init_bits
_TEXT	ENDS
; Function compile flags: /Odtp /ZI
; File C:\Users\paras\source\repos\grep-name\XenevaOS\Process\AudioPlayer\minimp4.h
;	COMDAT ?h264e_bs_put_golomb@@YAXPEAUbs_t@@I@Z
_TEXT	SEGMENT
size$ = 0
t$ = 4
bs$ = 96
val$ = 104
?h264e_bs_put_golomb@@YAXPEAUbs_t@@I@Z PROC		; h264e_bs_put_golomb, COMDAT

; 1949 : {

	mov	DWORD PTR [rsp+16], edx
	mov	QWORD PTR [rsp+8], rcx
	push	rbp
	sub	rsp, 112				; 00000070H
	lea	rbp, QWORD PTR [rsp+32]

; 1950 :     int size = 0;

	mov	DWORD PTR size$[rbp], 0

; 1951 :     unsigned t = val + 1;

	mov	eax, DWORD PTR val$[rbp]
	inc	eax
	mov	DWORD PTR t$[rbp], eax
$LN4@h264e_bs_p:

; 1952 :     do
; 1953 :     {
; 1954 :         size++;

	mov	eax, DWORD PTR size$[rbp]
	inc	eax
	mov	DWORD PTR size$[rbp], eax

; 1955 :     } while (t >>= 1);

	mov	eax, DWORD PTR t$[rbp]
	shr	eax, 1
	mov	DWORD PTR t$[rbp], eax
	cmp	DWORD PTR t$[rbp], 0
	jne	SHORT $LN4@h264e_bs_p

; 1956 : 
; 1957 :     h264e_bs_put_bits(bs, 2 * size - 1, val + 1);

	mov	eax, DWORD PTR val$[rbp]
	inc	eax
	mov	ecx, DWORD PTR size$[rbp]
	lea	ecx, DWORD PTR [rcx+rcx-1]
	mov	r8d, eax
	mov	edx, ecx
	mov	rcx, QWORD PTR bs$[rbp]
	call	?h264e_bs_put_bits@@YAXPEAUbs_t@@II@Z	; h264e_bs_put_bits

; 1958 : }

	lea	rsp, QWORD PTR [rbp+80]
	pop	rbp
	ret	0
?h264e_bs_put_golomb@@YAXPEAUbs_t@@I@Z ENDP		; h264e_bs_put_golomb
_TEXT	ENDS
; Function compile flags: /Odtp /ZI
; File C:\Users\paras\source\repos\grep-name\XenevaOS\Process\AudioPlayer\minimp4.h
;	COMDAT ?h264e_bs_byte_align@@YAIPEAUbs_t@@@Z
_TEXT	SEGMENT
pos$ = 0
bs$ = 96
?h264e_bs_byte_align@@YAIPEAUbs_t@@@Z PROC		; h264e_bs_byte_align, COMDAT

; 1928 : {

	mov	QWORD PTR [rsp+8], rcx
	push	rbp
	sub	rsp, 112				; 00000070H
	lea	rbp, QWORD PTR [rsp+32]

; 1929 :     int pos = h264e_bs_get_pos_bits(bs);

	mov	rcx, QWORD PTR bs$[rbp]
	call	?h264e_bs_get_pos_bits@@YAIPEBUbs_t@@@Z	; h264e_bs_get_pos_bits
	mov	DWORD PTR pos$[rbp], eax

; 1930 :     h264e_bs_put_bits(bs, -pos & 7, 0);

	mov	eax, DWORD PTR pos$[rbp]
	neg	eax
	and	eax, 7
	xor	r8d, r8d
	mov	edx, eax
	mov	rcx, QWORD PTR bs$[rbp]
	call	?h264e_bs_put_bits@@YAXPEAUbs_t@@II@Z	; h264e_bs_put_bits

; 1931 :     return pos + (-pos & 7);

	mov	eax, DWORD PTR pos$[rbp]
	neg	eax
	and	eax, 7
	mov	ecx, DWORD PTR pos$[rbp]
	add	ecx, eax
	mov	eax, ecx

; 1932 : }

	lea	rsp, QWORD PTR [rbp+80]
	pop	rbp
	ret	0
?h264e_bs_byte_align@@YAIPEAUbs_t@@@Z ENDP		; h264e_bs_byte_align
_TEXT	ENDS
; Function compile flags: /Odtp /ZI
; File C:\Users\paras\source\repos\grep-name\XenevaOS\Process\AudioPlayer\minimp4.h
;	COMDAT ?h264e_bs_get_pos_bits@@YAIPEBUbs_t@@@Z
_TEXT	SEGMENT
pos_bits$ = 0
tv74 = 68
bs$ = 96
?h264e_bs_get_pos_bits@@YAIPEBUbs_t@@@Z PROC		; h264e_bs_get_pos_bits, COMDAT

; 1920 : {

	mov	QWORD PTR [rsp+8], rcx
	push	rbp
	sub	rsp, 112				; 00000070H
	lea	rbp, QWORD PTR [rsp+32]

; 1921 :     unsigned pos_bits = (unsigned)((bs->buf - bs->origin) * BS_BITS);

	mov	rax, QWORD PTR bs$[rbp]
	mov	rcx, QWORD PTR bs$[rbp]
	mov	rcx, QWORD PTR [rcx+16]
	mov	rax, QWORD PTR [rax+8]
	sub	rax, rcx
	sar	rax, 2
	imul	rax, rax, 32				; 00000020H
	mov	DWORD PTR pos_bits$[rbp], eax

; 1922 :     pos_bits += BS_BITS - bs->shift;

	mov	rax, QWORD PTR bs$[rbp]
	mov	ecx, 32					; 00000020H
	sub	ecx, DWORD PTR [rax]
	mov	eax, ecx
	mov	ecx, DWORD PTR pos_bits$[rbp]
	add	ecx, eax
	mov	eax, ecx
	mov	DWORD PTR pos_bits$[rbp], eax

; 1923 :     assert((int)pos_bits >= 0);

	cmp	DWORD PTR pos_bits$[rbp], 0
	jne	SHORT $LN4@h264e_bs_g
	mov	DWORD PTR tv74[rbp], 1
	jmp	SHORT $LN5@h264e_bs_g
$LN4@h264e_bs_g:
	mov	DWORD PTR tv74[rbp], 0
$LN5@h264e_bs_g:
	cmp	DWORD PTR tv74[rbp], 0
	jl	SHORT $LN2@h264e_bs_g
	call	abort
$LN2@h264e_bs_g:

; 1924 :     return pos_bits;

	mov	eax, DWORD PTR pos_bits$[rbp]

; 1925 : }

	lea	rsp, QWORD PTR [rbp+80]
	pop	rbp
	ret	0
?h264e_bs_get_pos_bits@@YAIPEBUbs_t@@@Z ENDP		; h264e_bs_get_pos_bits
_TEXT	ENDS
; Function compile flags: /Odtp /ZI
; File C:\Users\paras\source\repos\grep-name\XenevaOS\Process\AudioPlayer\minimp4.h
;	COMDAT ?h264e_bs_flush@@YAXPEAUbs_t@@@Z
_TEXT	SEGMENT
bs$ = 80
?h264e_bs_flush@@YAXPEAUbs_t@@@Z PROC			; h264e_bs_flush, COMDAT

; 1915 : {

	mov	QWORD PTR [rsp+8], rcx
	push	rbp
	sub	rsp, 64					; 00000040H
	mov	rbp, rsp

; 1916 :     *bs->buf = SWAP32(bs->cache);

	mov	rax, QWORD PTR bs$[rbp]
	mov	eax, DWORD PTR [rax+4]
	shr	eax, 24
	and	eax, 255				; 000000ffH
	mov	rcx, QWORD PTR bs$[rbp]
	mov	ecx, DWORD PTR [rcx+4]
	shr	ecx, 8
	and	ecx, 65280				; 0000ff00H
	or	eax, ecx
	mov	rcx, QWORD PTR bs$[rbp]
	mov	ecx, DWORD PTR [rcx+4]
	shl	ecx, 8
	and	ecx, 16711680				; 00ff0000H
	or	eax, ecx
	mov	rcx, QWORD PTR bs$[rbp]
	mov	ecx, DWORD PTR [rcx+4]
	and	ecx, 255				; 000000ffH
	shl	ecx, 24
	or	eax, ecx
	mov	rcx, QWORD PTR bs$[rbp]
	mov	rcx, QWORD PTR [rcx+8]
	mov	DWORD PTR [rcx], eax

; 1917 : }

	lea	rsp, QWORD PTR [rbp+64]
	pop	rbp
	ret	0
?h264e_bs_flush@@YAXPEAUbs_t@@@Z ENDP			; h264e_bs_flush
_TEXT	ENDS
; Function compile flags: /Odtp /ZI
; File C:\Users\paras\source\repos\grep-name\XenevaOS\Process\AudioPlayer\minimp4.h
;	COMDAT ?h264e_bs_put_bits@@YAXPEAUbs_t@@II@Z
_TEXT	SEGMENT
tv77 = 64
tv70 = 64
bs$ = 96
n$ = 104
val$ = 112
?h264e_bs_put_bits@@YAXPEAUbs_t@@II@Z PROC		; h264e_bs_put_bits, COMDAT

; 1899 : {

	mov	DWORD PTR [rsp+24], r8d
	mov	DWORD PTR [rsp+16], edx
	mov	QWORD PTR [rsp+8], rcx
	push	rbp
	sub	rsp, 112				; 00000070H
	lea	rbp, QWORD PTR [rsp+32]

; 1900 :     assert(!(val >> n));

	mov	eax, DWORD PTR n$[rbp]
	movzx	ecx, al
	mov	eax, DWORD PTR val$[rbp]
	shr	eax, cl
	test	eax, eax
	je	SHORT $LN2@h264e_bs_p
	call	abort
$LN2@h264e_bs_p:

; 1901 :     bs->shift -= n;

	mov	rax, QWORD PTR bs$[rbp]
	mov	ecx, DWORD PTR n$[rbp]
	mov	eax, DWORD PTR [rax]
	sub	eax, ecx
	mov	rcx, QWORD PTR bs$[rbp]
	mov	DWORD PTR [rcx], eax

; 1902 :     assert((unsigned)n <= 32);

	cmp	DWORD PTR n$[rbp], 0
	jne	SHORT $LN7@h264e_bs_p
	mov	DWORD PTR tv70[rbp], 1
	jmp	SHORT $LN8@h264e_bs_p
$LN7@h264e_bs_p:
	mov	DWORD PTR tv70[rbp], 0
$LN8@h264e_bs_p:
	cmp	DWORD PTR tv70[rbp], 32			; 00000020H
	jg	SHORT $LN3@h264e_bs_p
	call	abort
$LN3@h264e_bs_p:

; 1903 :     if (bs->shift < 0)

	mov	rax, QWORD PTR bs$[rbp]
	cmp	DWORD PTR [rax], 0
	jge	$LN4@h264e_bs_p

; 1904 :     {
; 1905 :         assert(-bs->shift < 32);

	mov	rax, QWORD PTR bs$[rbp]
	mov	eax, DWORD PTR [rax]
	neg	eax
	test	eax, eax
	jne	SHORT $LN9@h264e_bs_p
	mov	DWORD PTR tv77[rbp], 1
	jmp	SHORT $LN10@h264e_bs_p
$LN9@h264e_bs_p:
	mov	DWORD PTR tv77[rbp], 0
$LN10@h264e_bs_p:
	cmp	DWORD PTR tv77[rbp], 32			; 00000020H
	jge	SHORT $LN5@h264e_bs_p
	call	abort
$LN5@h264e_bs_p:

; 1906 :         bs->cache |= val >> -bs->shift;

	mov	rax, QWORD PTR bs$[rbp]
	mov	eax, DWORD PTR [rax]
	neg	eax
	movzx	ecx, al
	mov	eax, DWORD PTR val$[rbp]
	shr	eax, cl
	mov	rcx, QWORD PTR bs$[rbp]
	mov	ecx, DWORD PTR [rcx+4]
	or	ecx, eax
	mov	eax, ecx
	mov	rcx, QWORD PTR bs$[rbp]
	mov	DWORD PTR [rcx+4], eax

; 1907 :         *bs->buf++ = SWAP32(bs->cache);

	mov	rax, QWORD PTR bs$[rbp]
	mov	eax, DWORD PTR [rax+4]
	shr	eax, 24
	and	eax, 255				; 000000ffH
	mov	rcx, QWORD PTR bs$[rbp]
	mov	ecx, DWORD PTR [rcx+4]
	shr	ecx, 8
	and	ecx, 65280				; 0000ff00H
	or	eax, ecx
	mov	rcx, QWORD PTR bs$[rbp]
	mov	ecx, DWORD PTR [rcx+4]
	shl	ecx, 8
	and	ecx, 16711680				; 00ff0000H
	or	eax, ecx
	mov	rcx, QWORD PTR bs$[rbp]
	mov	ecx, DWORD PTR [rcx+4]
	and	ecx, 255				; 000000ffH
	shl	ecx, 24
	or	eax, ecx
	mov	rcx, QWORD PTR bs$[rbp]
	mov	rcx, QWORD PTR [rcx+8]
	mov	DWORD PTR [rcx], eax
	mov	rax, QWORD PTR bs$[rbp]
	mov	rax, QWORD PTR [rax+8]
	add	rax, 4
	mov	rcx, QWORD PTR bs$[rbp]
	mov	QWORD PTR [rcx+8], rax

; 1908 :         bs->shift = 32 + bs->shift;

	mov	rax, QWORD PTR bs$[rbp]
	mov	eax, DWORD PTR [rax]
	add	eax, 32					; 00000020H
	mov	rcx, QWORD PTR bs$[rbp]
	mov	DWORD PTR [rcx], eax

; 1909 :         bs->cache = 0;

	mov	rax, QWORD PTR bs$[rbp]
	mov	DWORD PTR [rax+4], 0
$LN4@h264e_bs_p:

; 1910 :     }
; 1911 :     bs->cache |= val << bs->shift;

	mov	rax, QWORD PTR bs$[rbp]
	mov	eax, DWORD PTR [rax]
	movzx	ecx, al
	mov	eax, DWORD PTR val$[rbp]
	shl	eax, cl
	mov	rcx, QWORD PTR bs$[rbp]
	mov	ecx, DWORD PTR [rcx+4]
	or	ecx, eax
	mov	eax, ecx
	mov	rcx, QWORD PTR bs$[rbp]
	mov	DWORD PTR [rcx+4], eax

; 1912 : }

	lea	rsp, QWORD PTR [rbp+80]
	pop	rbp
	ret	0
?h264e_bs_put_bits@@YAXPEAUbs_t@@II@Z ENDP		; h264e_bs_put_bits
_TEXT	ENDS
; Function compile flags: /Odtp /ZI
; File C:\Users\paras\source\repos\grep-name\XenevaOS\Process\AudioPlayer\minimp4.h
;	COMDAT ?ue_bits@@YAHPEAUbit_reader_t@@@Z
_TEXT	SEGMENT
clz$ = 0
val$ = 4
tv75 = 72
tv84 = 76
bs$ = 96
?ue_bits@@YAHPEAUbit_reader_t@@@Z PROC			; ue_bits, COMDAT

; 1874 : {

	mov	QWORD PTR [rsp+8], rcx
	push	rbp
	sub	rsp, 112				; 00000070H
	lea	rbp, QWORD PTR [rsp+32]

; 1875 :     int clz;
; 1876 :     int val;
; 1877 :     for (clz = 0; !get_bits(bs, 1); clz++) {}

	mov	DWORD PTR clz$[rbp], 0
	jmp	SHORT $LN4@ue_bits
$LN2@ue_bits:
	mov	eax, DWORD PTR clz$[rbp]
	inc	eax
	mov	DWORD PTR clz$[rbp], eax
$LN4@ue_bits:
	mov	edx, 1
	mov	rcx, QWORD PTR bs$[rbp]
	call	?get_bits@@YAIPEAUbit_reader_t@@H@Z	; get_bits
	test	eax, eax
	jne	SHORT $LN3@ue_bits
	jmp	SHORT $LN2@ue_bits
$LN3@ue_bits:

; 1878 :     //get_bits(bs, clz + 1);
; 1879 :     val = (1 << clz) - 1 + (clz ? get_bits(bs, clz) : 0);

	cmp	DWORD PTR clz$[rbp], 0
	je	SHORT $LN6@ue_bits
	mov	edx, DWORD PTR clz$[rbp]
	mov	rcx, QWORD PTR bs$[rbp]
	call	?get_bits@@YAIPEAUbit_reader_t@@H@Z	; get_bits
	mov	DWORD PTR tv75[rbp], eax
	jmp	SHORT $LN7@ue_bits
$LN6@ue_bits:
	mov	DWORD PTR tv75[rbp], 0
$LN7@ue_bits:
	mov	eax, DWORD PTR clz$[rbp]
	mov	ecx, 1
	mov	DWORD PTR tv84[rbp], ecx
	movzx	ecx, al
	mov	eax, DWORD PTR tv84[rbp]
	shl	eax, cl
	mov	ecx, DWORD PTR tv75[rbp]
	lea	eax, DWORD PTR [rax+rcx-1]
	mov	DWORD PTR val$[rbp], eax

; 1880 :     return val;

	mov	eax, DWORD PTR val$[rbp]

; 1881 : }

	lea	rsp, QWORD PTR [rbp+80]
	pop	rbp
	ret	0
?ue_bits@@YAHPEAUbit_reader_t@@@Z ENDP			; ue_bits
_TEXT	ENDS
; Function compile flags: /Odtp /ZI
; File C:\Users\paras\source\repos\grep-name\XenevaOS\Process\AudioPlayer\minimp4.h
;	COMDAT ?init_bits@@YAXPEAUbit_reader_t@@PEBXI@Z
_TEXT	SEGMENT
bs$ = 80
data$ = 88
data_bytes$ = 96
?init_bits@@YAXPEAUbit_reader_t@@PEBXI@Z PROC		; init_bits, COMDAT

; 1862 : {

	mov	DWORD PTR [rsp+24], r8d
	mov	QWORD PTR [rsp+16], rdx
	mov	QWORD PTR [rsp+8], rcx
	push	rbp
	sub	rsp, 96					; 00000060H
	lea	rbp, QWORD PTR [rsp+32]

; 1863 :     bs->origin = (const uint16_t*)data;

	mov	rax, QWORD PTR bs$[rbp]
	mov	rcx, QWORD PTR data$[rbp]
	mov	QWORD PTR [rax+16], rcx

; 1864 :     bs->origin_bytes = data_bytes;

	mov	rax, QWORD PTR bs$[rbp]
	mov	ecx, DWORD PTR data_bytes$[rbp]
	mov	DWORD PTR [rax+24], ecx

; 1865 :     set_pos_bits(bs, 0);

	xor	edx, edx
	mov	rcx, QWORD PTR bs$[rbp]
	call	?set_pos_bits@@YAXPEAUbit_reader_t@@I@Z	; set_pos_bits

; 1866 : }

	lea	rsp, QWORD PTR [rbp+64]
	pop	rbp
	ret	0
?init_bits@@YAXPEAUbit_reader_t@@PEBXI@Z ENDP		; init_bits
_TEXT	ENDS
; Function compile flags: /Odtp /ZI
; File C:\Users\paras\source\repos\grep-name\XenevaOS\Process\AudioPlayer\minimp4.h
;	COMDAT ?remaining_bits@@YAHPEBUbit_reader_t@@@Z
_TEXT	SEGMENT
tv65 = 64
bs$ = 96
?remaining_bits@@YAHPEBUbit_reader_t@@@Z PROC		; remaining_bits, COMDAT

; 1857 : {

	mov	QWORD PTR [rsp+8], rcx
	push	rbp
	sub	rsp, 112				; 00000070H
	lea	rbp, QWORD PTR [rsp+32]

; 1858 :     return bs->origin_bytes * 8 - get_pos_bits(bs);

	mov	rax, QWORD PTR bs$[rbp]
	mov	eax, DWORD PTR [rax+24]
	shl	eax, 3
	mov	DWORD PTR tv65[rbp], eax
	mov	rcx, QWORD PTR bs$[rbp]
	call	?get_pos_bits@@YAIPEBUbit_reader_t@@@Z	; get_pos_bits
	mov	ecx, DWORD PTR tv65[rbp]
	sub	ecx, eax
	mov	eax, ecx

; 1859 : }

	lea	rsp, QWORD PTR [rbp+80]
	pop	rbp
	ret	0
?remaining_bits@@YAHPEBUbit_reader_t@@@Z ENDP		; remaining_bits
_TEXT	ENDS
; Function compile flags: /Odtp /ZI
; File C:\Users\paras\source\repos\grep-name\XenevaOS\Process\AudioPlayer\minimp4.h
;	COMDAT ?get_pos_bits@@YAIPEBUbit_reader_t@@@Z
_TEXT	SEGMENT
pos_bits$ = 0
tv74 = 68
bs$ = 96
?get_pos_bits@@YAIPEBUbit_reader_t@@@Z PROC		; get_pos_bits, COMDAT

; 1846 : {

	mov	QWORD PTR [rsp+8], rcx
	push	rbp
	sub	rsp, 112				; 00000070H
	lea	rbp, QWORD PTR [rsp+32]

; 1847 :     // Current bitbuffer position =
; 1848 :     // position of next wobits in the internal buffer
; 1849 :     // minus bs, available in bit cache wobits
; 1850 :     unsigned pos_bits = (unsigned)(bs->buf - bs->origin) * 16;

	mov	rax, QWORD PTR bs$[rbp]
	mov	rcx, QWORD PTR bs$[rbp]
	mov	rcx, QWORD PTR [rcx+16]
	mov	rax, QWORD PTR [rax+8]
	sub	rax, rcx
	sar	rax, 1
	imul	eax, eax, 16
	mov	DWORD PTR pos_bits$[rbp], eax

; 1851 :     pos_bits -= 16 - bs->cache_free_bits;

	mov	rax, QWORD PTR bs$[rbp]
	mov	ecx, 16
	sub	ecx, DWORD PTR [rax+4]
	mov	eax, ecx
	mov	ecx, DWORD PTR pos_bits$[rbp]
	sub	ecx, eax
	mov	eax, ecx
	mov	DWORD PTR pos_bits$[rbp], eax

; 1852 :     assert((int)pos_bits >= 0);

	cmp	DWORD PTR pos_bits$[rbp], 0
	jne	SHORT $LN4@get_pos_bi
	mov	DWORD PTR tv74[rbp], 1
	jmp	SHORT $LN5@get_pos_bi
$LN4@get_pos_bi:
	mov	DWORD PTR tv74[rbp], 0
$LN5@get_pos_bi:
	cmp	DWORD PTR tv74[rbp], 0
	jl	SHORT $LN2@get_pos_bi
	call	abort
$LN2@get_pos_bi:

; 1853 :     return pos_bits;

	mov	eax, DWORD PTR pos_bits$[rbp]

; 1854 : }

	lea	rsp, QWORD PTR [rbp+80]
	pop	rbp
	ret	0
?get_pos_bits@@YAIPEBUbit_reader_t@@@Z ENDP		; get_pos_bits
_TEXT	ENDS
; Function compile flags: /Odtp /ZI
; File C:\Users\paras\source\repos\grep-name\XenevaOS\Process\AudioPlayer\minimp4.h
;	COMDAT ?set_pos_bits@@YAXPEAUbit_reader_t@@I@Z
_TEXT	SEGMENT
tv65 = 64
bs$ = 96
pos_bits$ = 104
?set_pos_bits@@YAXPEAUbit_reader_t@@I@Z PROC		; set_pos_bits, COMDAT

; 1835 : {

	mov	DWORD PTR [rsp+16], edx
	mov	QWORD PTR [rsp+8], rcx
	push	rbp
	sub	rsp, 112				; 00000070H
	lea	rbp, QWORD PTR [rsp+32]

; 1836 :     assert((int)pos_bits >= 0);

	cmp	DWORD PTR pos_bits$[rbp], 0
	jne	SHORT $LN4@set_pos_bi
	mov	DWORD PTR tv65[rbp], 1
	jmp	SHORT $LN5@set_pos_bi
$LN4@set_pos_bi:
	mov	DWORD PTR tv65[rbp], 0
$LN5@set_pos_bi:
	cmp	DWORD PTR tv65[rbp], 0
	jl	SHORT $LN2@set_pos_bi
	call	abort
$LN2@set_pos_bi:

; 1837 : 
; 1838 :     bs->buf = bs->origin + pos_bits / 16;

	xor	edx, edx
	mov	eax, DWORD PTR pos_bits$[rbp]
	mov	ecx, 16
	div	ecx
	mov	eax, eax
	mov	rcx, QWORD PTR bs$[rbp]
	mov	rcx, QWORD PTR [rcx+16]
	lea	rax, QWORD PTR [rcx+rax*2]
	mov	rcx, QWORD PTR bs$[rbp]
	mov	QWORD PTR [rcx+8], rax

; 1839 :     bs->cache = 0;

	mov	rax, QWORD PTR bs$[rbp]
	mov	DWORD PTR [rax], 0

; 1840 :     bs->cache_free_bits = 16;

	mov	rax, QWORD PTR bs$[rbp]
	mov	DWORD PTR [rax+4], 16

; 1841 :     flush_bits(bs, 0);

	xor	edx, edx
	mov	rcx, QWORD PTR bs$[rbp]
	call	?flush_bits@@YAXPEAUbit_reader_t@@H@Z	; flush_bits

; 1842 :     flush_bits(bs, pos_bits & 15);

	mov	eax, DWORD PTR pos_bits$[rbp]
	and	eax, 15
	mov	edx, eax
	mov	rcx, QWORD PTR bs$[rbp]
	call	?flush_bits@@YAXPEAUbit_reader_t@@H@Z	; flush_bits

; 1843 : }

	lea	rsp, QWORD PTR [rbp+80]
	pop	rbp
	ret	0
?set_pos_bits@@YAXPEAUbit_reader_t@@I@Z ENDP		; set_pos_bits
_TEXT	ENDS
; Function compile flags: /Odtp /ZI
; File C:\Users\paras\source\repos\grep-name\XenevaOS\Process\AudioPlayer\minimp4.h
;	COMDAT ?get_bits@@YAIPEAUbit_reader_t@@H@Z
_TEXT	SEGMENT
retval$ = 0
bs$ = 96
n$ = 104
?get_bits@@YAIPEAUbit_reader_t@@H@Z PROC		; get_bits, COMDAT

; 1828 : {

	mov	DWORD PTR [rsp+16], edx
	mov	QWORD PTR [rsp+8], rcx
	push	rbp
	sub	rsp, 112				; 00000070H
	lea	rbp, QWORD PTR [rsp+32]

; 1829 :     unsigned int retval = show_bits(bs, n);

	mov	edx, DWORD PTR n$[rbp]
	mov	rcx, QWORD PTR bs$[rbp]
	call	?show_bits@@YAIPEAUbit_reader_t@@H@Z	; show_bits
	mov	DWORD PTR retval$[rbp], eax

; 1830 :     flush_bits(bs, n);

	mov	edx, DWORD PTR n$[rbp]
	mov	rcx, QWORD PTR bs$[rbp]
	call	?flush_bits@@YAXPEAUbit_reader_t@@H@Z	; flush_bits

; 1831 :     return retval;

	mov	eax, DWORD PTR retval$[rbp]

; 1832 : }

	lea	rsp, QWORD PTR [rbp+80]
	pop	rbp
	ret	0
?get_bits@@YAIPEAUbit_reader_t@@H@Z ENDP		; get_bits
_TEXT	ENDS
; Function compile flags: /Odtp /ZI
; File C:\Users\paras\source\repos\grep-name\XenevaOS\Process\AudioPlayer\minimp4.h
;	COMDAT ?flush_bits@@YAXPEAUbit_reader_t@@H@Z
_TEXT	SEGMENT
tv138 = 64
tv65 = 64
bs$ = 96
n$ = 104
?flush_bits@@YAXPEAUbit_reader_t@@H@Z PROC		; flush_bits, COMDAT

; 1815 : {

	mov	DWORD PTR [rsp+16], edx
	mov	QWORD PTR [rsp+8], rcx
	push	rbp
	sub	rsp, 112				; 00000070H
	lea	rbp, QWORD PTR [rsp+32]

; 1816 :     assert(n >= 0 && n <= 16);

	cmp	DWORD PTR n$[rbp], 0
	jne	SHORT $LN5@flush_bits
	mov	DWORD PTR tv65[rbp], 1
	jmp	SHORT $LN6@flush_bits
$LN5@flush_bits:
	mov	DWORD PTR tv65[rbp], 0
$LN6@flush_bits:
	cmp	DWORD PTR tv65[rbp], 0
	jl	SHORT $LN2@flush_bits
	cmp	DWORD PTR n$[rbp], 16
	jg	SHORT $LN2@flush_bits
	call	abort
$LN2@flush_bits:

; 1817 :     bs->cache <<= n;

	mov	eax, DWORD PTR n$[rbp]
	mov	rcx, QWORD PTR bs$[rbp]
	mov	QWORD PTR tv138[rbp], rcx
	movzx	ecx, al
	mov	rax, QWORD PTR tv138[rbp]
	mov	eax, DWORD PTR [rax]
	shl	eax, cl
	mov	rcx, QWORD PTR bs$[rbp]
	mov	DWORD PTR [rcx], eax

; 1818 :     bs->cache_free_bits += n;

	mov	rax, QWORD PTR bs$[rbp]
	mov	eax, DWORD PTR [rax+4]
	add	eax, DWORD PTR n$[rbp]
	mov	rcx, QWORD PTR bs$[rbp]
	mov	DWORD PTR [rcx+4], eax

; 1819 :     if (bs->cache_free_bits >= 0)

	mov	rax, QWORD PTR bs$[rbp]
	cmp	DWORD PTR [rax+4], 0
	jl	SHORT $LN3@flush_bits

; 1820 :     {
; 1821 :         bs->cache |= ((uint32_t)LOAD_SHORT(*bs->buf)) << bs->cache_free_bits;

	mov	rax, QWORD PTR bs$[rbp]
	mov	rax, QWORD PTR [rax+8]
	movzx	eax, WORD PTR [rax]
	shl	eax, 8
	movzx	eax, ax
	mov	rcx, QWORD PTR bs$[rbp]
	mov	rcx, QWORD PTR [rcx+8]
	movzx	ecx, WORD PTR [rcx]
	sar	ecx, 8
	or	eax, ecx
	mov	rcx, QWORD PTR bs$[rbp]
	mov	ecx, DWORD PTR [rcx+4]
	shl	eax, cl
	mov	rcx, QWORD PTR bs$[rbp]
	mov	ecx, DWORD PTR [rcx]
	or	ecx, eax
	mov	eax, ecx
	mov	rcx, QWORD PTR bs$[rbp]
	mov	DWORD PTR [rcx], eax

; 1822 :         bs->buf++;

	mov	rax, QWORD PTR bs$[rbp]
	mov	rax, QWORD PTR [rax+8]
	add	rax, 2
	mov	rcx, QWORD PTR bs$[rbp]
	mov	QWORD PTR [rcx+8], rax

; 1823 :         bs->cache_free_bits -= 16;

	mov	rax, QWORD PTR bs$[rbp]
	mov	eax, DWORD PTR [rax+4]
	sub	eax, 16
	mov	rcx, QWORD PTR bs$[rbp]
	mov	DWORD PTR [rcx+4], eax
$LN3@flush_bits:

; 1824 :     }
; 1825 : }

	lea	rsp, QWORD PTR [rbp+80]
	pop	rbp
	ret	0
?flush_bits@@YAXPEAUbit_reader_t@@H@Z ENDP		; flush_bits
_TEXT	ENDS
; Function compile flags: /Odtp /ZI
; File C:\Users\paras\source\repos\grep-name\XenevaOS\Process\AudioPlayer\minimp4.h
;	COMDAT ?show_bits@@YAIPEAUbit_reader_t@@H@Z
_TEXT	SEGMENT
retval$ = 0
tv65 = 68
tv75 = 72
bs$ = 96
n$ = 104
?show_bits@@YAIPEAUbit_reader_t@@H@Z PROC		; show_bits, COMDAT

; 1807 : {

	mov	DWORD PTR [rsp+16], edx
	mov	QWORD PTR [rsp+8], rcx
	push	rbp
	sub	rsp, 112				; 00000070H
	lea	rbp, QWORD PTR [rsp+32]

; 1808 :     unsigned int retval;
; 1809 :     assert(n > 0 && n <= 16);

	cmp	DWORD PTR n$[rbp], 0
	jne	SHORT $LN4@show_bits
	mov	DWORD PTR tv65[rbp], 1
	jmp	SHORT $LN5@show_bits
$LN4@show_bits:
	mov	DWORD PTR tv65[rbp], 0
$LN5@show_bits:
	cmp	DWORD PTR tv65[rbp], 0
	jle	SHORT $LN2@show_bits
	cmp	DWORD PTR n$[rbp], 16
	jg	SHORT $LN2@show_bits
	call	abort
$LN2@show_bits:

; 1810 :     retval = (unsigned int)(bs->cache >> (32 - n));

	mov	eax, 32					; 00000020H
	sub	eax, DWORD PTR n$[rbp]
	mov	rcx, QWORD PTR bs$[rbp]
	mov	QWORD PTR tv75[rbp], rcx
	movzx	ecx, al
	mov	rax, QWORD PTR tv75[rbp]
	mov	eax, DWORD PTR [rax]
	shr	eax, cl
	mov	DWORD PTR retval$[rbp], eax

; 1811 :     return retval;

	mov	eax, DWORD PTR retval$[rbp]

; 1812 : }

	lea	rsp, QWORD PTR [rbp+80]
	pop	rbp
	ret	0
?show_bits@@YAIPEAUbit_reader_t@@H@Z ENDP		; show_bits
_TEXT	ENDS
; Function compile flags: /Odtp /ZI
; File C:\Users\paras\source\repos\grep-name\XenevaOS\Process\AudioPlayer\minimp4.h
;	COMDAT ?od_size_of_size@@YAHH@Z
_TEXT	SEGMENT
i$ = 0
size_of_size$ = 4
size$ = 96
?od_size_of_size@@YAHH@Z PROC				; od_size_of_size, COMDAT

; 1167 : {

	mov	DWORD PTR [rsp+8], ecx
	push	rbp
	sub	rsp, 80					; 00000050H
	mov	rbp, rsp

; 1168 :     int i, size_of_size = 1;

	mov	DWORD PTR size_of_size$[rbp], 1

; 1169 :     for (i = size; i > 0x7F; i -= 0x7F)

	mov	eax, DWORD PTR size$[rbp]
	mov	DWORD PTR i$[rbp], eax
	jmp	SHORT $LN4@od_size_of
$LN2@od_size_of:
	mov	eax, DWORD PTR i$[rbp]
	sub	eax, 127				; 0000007fH
	mov	DWORD PTR i$[rbp], eax
$LN4@od_size_of:
	cmp	DWORD PTR i$[rbp], 127			; 0000007fH
	jle	SHORT $LN3@od_size_of

; 1170 :         size_of_size++;

	mov	eax, DWORD PTR size_of_size$[rbp]
	inc	eax
	mov	DWORD PTR size_of_size$[rbp], eax
	jmp	SHORT $LN2@od_size_of
$LN3@od_size_of:

; 1171 :     return size_of_size;

	mov	eax, DWORD PTR size_of_size$[rbp]

; 1172 : }

	lea	rsp, QWORD PTR [rbp+80]
	pop	rbp
	ret	0
?od_size_of_size@@YAHH@Z ENDP				; od_size_of_size
_TEXT	ENDS
; Function compile flags: /Odtp /ZI
; File C:\Users\paras\source\repos\grep-name\XenevaOS\Process\AudioPlayer\minimp4.h
;	COMDAT ?mp4e_write_mdat_box@@YAHPEAUMP4E_mux_tag@@I@Z
_TEXT	SEGMENT
base$ = 0
p$ = 8
err$1 = 16
mux$ = 112
size$ = 120
?mp4e_write_mdat_box@@YAHPEAUMP4E_mux_tag@@I@Z PROC	; mp4e_write_mdat_box, COMDAT

; 1090 : {

	mov	DWORD PTR [rsp+16], edx
	mov	QWORD PTR [rsp+8], rcx
	push	rbp
	sub	rsp, 128				; 00000080H
	lea	rbp, QWORD PTR [rsp+32]

; 1091 :     unsigned char base[8], * p = base;

	lea	rax, QWORD PTR base$[rbp]
	mov	QWORD PTR p$[rbp], rax

; 1092 :     WRITE_4(size);

	mov	eax, DWORD PTR size$[rbp]
	shr	eax, 24
	mov	rcx, QWORD PTR p$[rbp]
	mov	BYTE PTR [rcx], al
	mov	rax, QWORD PTR p$[rbp]
	inc	rax
	mov	QWORD PTR p$[rbp], rax
	mov	eax, DWORD PTR size$[rbp]
	shr	eax, 16
	mov	rcx, QWORD PTR p$[rbp]
	mov	BYTE PTR [rcx], al
	mov	rax, QWORD PTR p$[rbp]
	inc	rax
	mov	QWORD PTR p$[rbp], rax
	mov	eax, DWORD PTR size$[rbp]
	shr	eax, 8
	mov	rcx, QWORD PTR p$[rbp]
	mov	BYTE PTR [rcx], al
	mov	rax, QWORD PTR p$[rbp]
	inc	rax
	mov	QWORD PTR p$[rbp], rax
	mov	rax, QWORD PTR p$[rbp]
	movzx	ecx, BYTE PTR size$[rbp]
	mov	BYTE PTR [rax], cl
	mov	rax, QWORD PTR p$[rbp]
	inc	rax
	mov	QWORD PTR p$[rbp], rax

; 1093 :     WRITE_4(BOX_mdat);

	mov	rax, QWORD PTR p$[rbp]
	mov	BYTE PTR [rax], 109			; 0000006dH
	mov	rax, QWORD PTR p$[rbp]
	inc	rax
	mov	QWORD PTR p$[rbp], rax
	mov	rax, QWORD PTR p$[rbp]
	mov	BYTE PTR [rax], 100			; 00000064H
	mov	rax, QWORD PTR p$[rbp]
	inc	rax
	mov	QWORD PTR p$[rbp], rax
	mov	rax, QWORD PTR p$[rbp]
	mov	BYTE PTR [rax], 97			; 00000061H
	mov	rax, QWORD PTR p$[rbp]
	inc	rax
	mov	QWORD PTR p$[rbp], rax
	mov	rax, QWORD PTR p$[rbp]
	mov	BYTE PTR [rax], 116			; 00000074H
	mov	rax, QWORD PTR p$[rbp]
	inc	rax
	mov	QWORD PTR p$[rbp], rax

; 1094 :     ERR(mux->write_callback(mux->write_pos, base, p - base, mux->token));

	lea	rax, QWORD PTR base$[rbp]
	mov	rcx, QWORD PTR p$[rbp]
	sub	rcx, rax
	mov	rax, rcx
	mov	rcx, QWORD PTR mux$[rbp]
	mov	r9, QWORD PTR [rcx+32]
	mov	r8, rax
	lea	rdx, QWORD PTR base$[rbp]
	mov	rax, QWORD PTR mux$[rbp]
	mov	rcx, QWORD PTR [rax+16]
	mov	rax, QWORD PTR mux$[rbp]
	call	QWORD PTR [rax+24]
	mov	DWORD PTR err$1[rbp], eax
	cmp	DWORD PTR err$1[rbp], 0
	je	SHORT $LN2@mp4e_write
	mov	eax, DWORD PTR err$1[rbp]
	jmp	SHORT $LN1@mp4e_write
$LN2@mp4e_write:

; 1095 :     mux->write_pos += p - base;

	lea	rax, QWORD PTR base$[rbp]
	mov	rcx, QWORD PTR p$[rbp]
	sub	rcx, rax
	mov	rax, rcx
	mov	rcx, QWORD PTR mux$[rbp]
	add	rax, QWORD PTR [rcx+16]
	mov	rcx, QWORD PTR mux$[rbp]
	mov	QWORD PTR [rcx+16], rax

; 1096 :     return MP4E_STATUS_OK;

	xor	eax, eax
$LN1@mp4e_write:

; 1097 : }

	lea	rsp, QWORD PTR [rbp+96]
	pop	rbp
	ret	0
?mp4e_write_mdat_box@@YAHPEAUMP4E_mux_tag@@I@Z ENDP	; mp4e_write_mdat_box
_TEXT	ENDS
; Function compile flags: /Odtp /ZI
; File C:\Users\paras\source\repos\grep-name\XenevaOS\Process\AudioPlayer\minimp4.h
;	COMDAT ?mp4e_write_fragment_header@@YAHPEAUMP4E_mux_tag@@HHHH@Z
_TEXT	SEGMENT
base$ = 0
p$ = 896
stack_base$ = 912
stack$ = 1072
pdata_offset$ = 1080
flags$ = 1088
tr$ = 1096
err$1 = 1104
tv165 = 1300
mux$ = 1328
track_num$ = 1336
data_bytes$ = 1344
duration$ = 1352
kind$ = 1360
?mp4e_write_fragment_header@@YAHPEAUMP4E_mux_tag@@HHHH@Z PROC ; mp4e_write_fragment_header, COMDAT

; 998  : {

	mov	DWORD PTR [rsp+32], r9d
	mov	DWORD PTR [rsp+24], r8d
	mov	DWORD PTR [rsp+16], edx
	mov	QWORD PTR [rsp+8], rcx
	push	rbp
	sub	rsp, 1344				; 00000540H
	lea	rbp, QWORD PTR [rsp+32]

; 999  :     unsigned char base[888], * p = base;

	lea	rax, QWORD PTR base$[rbp]
	mov	QWORD PTR p$[rbp], rax

; 1000 :     unsigned char* stack_base[20]; // atoms nesting stack
; 1001 :     unsigned char** stack = stack_base;

	lea	rax, QWORD PTR stack_base$[rbp]
	mov	QWORD PTR stack$[rbp], rax

; 1002 :     unsigned char* pdata_offset;
; 1003 :     unsigned flags;
; 1004 :     enum
; 1005 :     {
; 1006 :         default_sample_duration_present = 0x000008,
; 1007 :         default_sample_flags_present = 0x000020,
; 1008 :     } e;
; 1009 : 
; 1010 :     track_t* tr = ((track_t*)mux->tracks.data) + track_num;

	movsxd	rax, DWORD PTR track_num$[rbp]
	imul	rax, rax, 112				; 00000070H
	mov	rcx, QWORD PTR mux$[rbp]
	add	rax, QWORD PTR [rcx]
	mov	QWORD PTR tr$[rbp], rax

; 1011 : 
; 1012 :     ATOM(BOX_moof)

	mov	rax, QWORD PTR stack$[rbp]
	mov	rcx, QWORD PTR p$[rbp]
	mov	QWORD PTR [rax], rcx
	mov	rax, QWORD PTR stack$[rbp]
	add	rax, 8
	mov	QWORD PTR stack$[rbp], rax
	mov	rax, QWORD PTR p$[rbp]
	add	rax, 4
	mov	QWORD PTR p$[rbp], rax
	mov	rax, QWORD PTR p$[rbp]
	mov	BYTE PTR [rax], 109			; 0000006dH
	mov	rax, QWORD PTR p$[rbp]
	inc	rax
	mov	QWORD PTR p$[rbp], rax
	mov	rax, QWORD PTR p$[rbp]
	mov	BYTE PTR [rax], 111			; 0000006fH
	mov	rax, QWORD PTR p$[rbp]
	inc	rax
	mov	QWORD PTR p$[rbp], rax
	mov	rax, QWORD PTR p$[rbp]
	mov	BYTE PTR [rax], 111			; 0000006fH
	mov	rax, QWORD PTR p$[rbp]
	inc	rax
	mov	QWORD PTR p$[rbp], rax
	mov	rax, QWORD PTR p$[rbp]
	mov	BYTE PTR [rax], 102			; 00000066H
	mov	rax, QWORD PTR p$[rbp]
	inc	rax
	mov	QWORD PTR p$[rbp], rax

; 1013 :         ATOM_FULL(BOX_mfhd, 0)

	mov	rax, QWORD PTR stack$[rbp]
	mov	rcx, QWORD PTR p$[rbp]
	mov	QWORD PTR [rax], rcx
	mov	rax, QWORD PTR stack$[rbp]
	add	rax, 8
	mov	QWORD PTR stack$[rbp], rax
	mov	rax, QWORD PTR p$[rbp]
	add	rax, 4
	mov	QWORD PTR p$[rbp], rax
	mov	rax, QWORD PTR p$[rbp]
	mov	BYTE PTR [rax], 109			; 0000006dH
	mov	rax, QWORD PTR p$[rbp]
	inc	rax
	mov	QWORD PTR p$[rbp], rax
	mov	rax, QWORD PTR p$[rbp]
	mov	BYTE PTR [rax], 102			; 00000066H
	mov	rax, QWORD PTR p$[rbp]
	inc	rax
	mov	QWORD PTR p$[rbp], rax
	mov	rax, QWORD PTR p$[rbp]
	mov	BYTE PTR [rax], 104			; 00000068H
	mov	rax, QWORD PTR p$[rbp]
	inc	rax
	mov	QWORD PTR p$[rbp], rax
	mov	rax, QWORD PTR p$[rbp]
	mov	BYTE PTR [rax], 100			; 00000064H
	mov	rax, QWORD PTR p$[rbp]
	inc	rax
	mov	QWORD PTR p$[rbp], rax
	mov	rax, QWORD PTR p$[rbp]
	mov	BYTE PTR [rax], 0
	mov	rax, QWORD PTR p$[rbp]
	inc	rax
	mov	QWORD PTR p$[rbp], rax
	mov	rax, QWORD PTR p$[rbp]
	mov	BYTE PTR [rax], 0
	mov	rax, QWORD PTR p$[rbp]
	inc	rax
	mov	QWORD PTR p$[rbp], rax
	mov	rax, QWORD PTR p$[rbp]
	mov	BYTE PTR [rax], 0
	mov	rax, QWORD PTR p$[rbp]
	inc	rax
	mov	QWORD PTR p$[rbp], rax
	mov	rax, QWORD PTR p$[rbp]
	mov	BYTE PTR [rax], 0
	mov	rax, QWORD PTR p$[rbp]
	inc	rax
	mov	QWORD PTR p$[rbp], rax

; 1014 :         WRITE_4(mux->fragments_count);  // start from 1

	mov	rax, QWORD PTR mux$[rbp]
	mov	eax, DWORD PTR [rax+56]
	sar	eax, 24
	mov	rcx, QWORD PTR p$[rbp]
	mov	BYTE PTR [rcx], al
	mov	rax, QWORD PTR p$[rbp]
	inc	rax
	mov	QWORD PTR p$[rbp], rax
	mov	rax, QWORD PTR mux$[rbp]
	mov	eax, DWORD PTR [rax+56]
	sar	eax, 16
	mov	rcx, QWORD PTR p$[rbp]
	mov	BYTE PTR [rcx], al
	mov	rax, QWORD PTR p$[rbp]
	inc	rax
	mov	QWORD PTR p$[rbp], rax
	mov	rax, QWORD PTR mux$[rbp]
	mov	eax, DWORD PTR [rax+56]
	sar	eax, 8
	mov	rcx, QWORD PTR p$[rbp]
	mov	BYTE PTR [rcx], al
	mov	rax, QWORD PTR p$[rbp]
	inc	rax
	mov	QWORD PTR p$[rbp], rax
	mov	rax, QWORD PTR p$[rbp]
	mov	rcx, QWORD PTR mux$[rbp]
	movzx	ecx, BYTE PTR [rcx+56]
	mov	BYTE PTR [rax], cl
	mov	rax, QWORD PTR p$[rbp]
	inc	rax
	mov	QWORD PTR p$[rbp], rax

; 1015 :     END_ATOM

	mov	rax, QWORD PTR stack$[rbp]
	sub	rax, 8
	mov	QWORD PTR stack$[rbp], rax
	mov	rax, QWORD PTR stack$[rbp]
	mov	rax, QWORD PTR [rax]
	mov	rcx, QWORD PTR p$[rbp]
	sub	rcx, rax
	mov	rax, rcx
	sar	rax, 24
	mov	ecx, 1
	imul	rcx, rcx, 0
	mov	rdx, QWORD PTR stack$[rbp]
	mov	rdx, QWORD PTR [rdx]
	mov	BYTE PTR [rcx+rdx], al
	mov	rax, QWORD PTR stack$[rbp]
	mov	rax, QWORD PTR [rax]
	mov	rcx, QWORD PTR p$[rbp]
	sub	rcx, rax
	mov	rax, rcx
	sar	rax, 16
	mov	ecx, 1
	imul	rcx, rcx, 1
	mov	rdx, QWORD PTR stack$[rbp]
	mov	rdx, QWORD PTR [rdx]
	mov	BYTE PTR [rcx+rdx], al
	mov	rax, QWORD PTR stack$[rbp]
	mov	rax, QWORD PTR [rax]
	mov	rcx, QWORD PTR p$[rbp]
	sub	rcx, rax
	mov	rax, rcx
	sar	rax, 8
	mov	ecx, 1
	imul	rcx, rcx, 2
	mov	rdx, QWORD PTR stack$[rbp]
	mov	rdx, QWORD PTR [rdx]
	mov	BYTE PTR [rcx+rdx], al
	mov	rax, QWORD PTR stack$[rbp]
	mov	rax, QWORD PTR [rax]
	mov	rcx, QWORD PTR p$[rbp]
	sub	rcx, rax
	mov	rax, rcx
	mov	ecx, 1
	imul	rcx, rcx, 3
	mov	rdx, QWORD PTR stack$[rbp]
	mov	rdx, QWORD PTR [rdx]
	mov	BYTE PTR [rcx+rdx], al

; 1016 :         ATOM(BOX_traf)

	mov	rax, QWORD PTR stack$[rbp]
	mov	rcx, QWORD PTR p$[rbp]
	mov	QWORD PTR [rax], rcx
	mov	rax, QWORD PTR stack$[rbp]
	add	rax, 8
	mov	QWORD PTR stack$[rbp], rax
	mov	rax, QWORD PTR p$[rbp]
	add	rax, 4
	mov	QWORD PTR p$[rbp], rax
	mov	rax, QWORD PTR p$[rbp]
	mov	BYTE PTR [rax], 116			; 00000074H
	mov	rax, QWORD PTR p$[rbp]
	inc	rax
	mov	QWORD PTR p$[rbp], rax
	mov	rax, QWORD PTR p$[rbp]
	mov	BYTE PTR [rax], 114			; 00000072H
	mov	rax, QWORD PTR p$[rbp]
	inc	rax
	mov	QWORD PTR p$[rbp], rax
	mov	rax, QWORD PTR p$[rbp]
	mov	BYTE PTR [rax], 97			; 00000061H
	mov	rax, QWORD PTR p$[rbp]
	inc	rax
	mov	QWORD PTR p$[rbp], rax
	mov	rax, QWORD PTR p$[rbp]
	mov	BYTE PTR [rax], 102			; 00000066H
	mov	rax, QWORD PTR p$[rbp]
	inc	rax
	mov	QWORD PTR p$[rbp], rax

; 1017 :         flags = 0;

	mov	DWORD PTR flags$[rbp], 0

; 1018 :     if (tr->info.track_media_kind == e_video)

	mov	rax, QWORD PTR tr$[rbp]
	cmp	DWORD PTR [rax+8], 1
	jne	SHORT $LN2@mp4e_write

; 1019 :         flags |= 0x20;          // default-sample-flags-present

	mov	eax, DWORD PTR flags$[rbp]
	or	eax, 32					; 00000020H
	mov	DWORD PTR flags$[rbp], eax
	jmp	SHORT $LN3@mp4e_write
$LN2@mp4e_write:

; 1020 :     else
; 1021 :         flags |= 0x08;          // default-sample-duration-present

	mov	eax, DWORD PTR flags$[rbp]
	or	eax, 8
	mov	DWORD PTR flags$[rbp], eax
$LN3@mp4e_write:

; 1022 :     flags = (tr->info.track_media_kind == e_video) ? 0x20020 : 0x20008;

	mov	rax, QWORD PTR tr$[rbp]
	cmp	DWORD PTR [rax+8], 1
	jne	SHORT $LN12@mp4e_write
	mov	DWORD PTR tv165[rbp], 131104		; 00020020H
	jmp	SHORT $LN13@mp4e_write
$LN12@mp4e_write:
	mov	DWORD PTR tv165[rbp], 131080		; 00020008H
$LN13@mp4e_write:
	mov	eax, DWORD PTR tv165[rbp]
	mov	DWORD PTR flags$[rbp], eax

; 1023 : 
; 1024 :     ATOM_FULL(BOX_tfhd, flags)

	mov	rax, QWORD PTR stack$[rbp]
	mov	rcx, QWORD PTR p$[rbp]
	mov	QWORD PTR [rax], rcx
	mov	rax, QWORD PTR stack$[rbp]
	add	rax, 8
	mov	QWORD PTR stack$[rbp], rax
	mov	rax, QWORD PTR p$[rbp]
	add	rax, 4
	mov	QWORD PTR p$[rbp], rax
	mov	rax, QWORD PTR p$[rbp]
	mov	BYTE PTR [rax], 116			; 00000074H
	mov	rax, QWORD PTR p$[rbp]
	inc	rax
	mov	QWORD PTR p$[rbp], rax
	mov	rax, QWORD PTR p$[rbp]
	mov	BYTE PTR [rax], 102			; 00000066H
	mov	rax, QWORD PTR p$[rbp]
	inc	rax
	mov	QWORD PTR p$[rbp], rax
	mov	rax, QWORD PTR p$[rbp]
	mov	BYTE PTR [rax], 104			; 00000068H
	mov	rax, QWORD PTR p$[rbp]
	inc	rax
	mov	QWORD PTR p$[rbp], rax
	mov	rax, QWORD PTR p$[rbp]
	mov	BYTE PTR [rax], 100			; 00000064H
	mov	rax, QWORD PTR p$[rbp]
	inc	rax
	mov	QWORD PTR p$[rbp], rax
	mov	eax, DWORD PTR flags$[rbp]
	shr	eax, 24
	mov	rcx, QWORD PTR p$[rbp]
	mov	BYTE PTR [rcx], al
	mov	rax, QWORD PTR p$[rbp]
	inc	rax
	mov	QWORD PTR p$[rbp], rax
	mov	eax, DWORD PTR flags$[rbp]
	shr	eax, 16
	mov	rcx, QWORD PTR p$[rbp]
	mov	BYTE PTR [rcx], al
	mov	rax, QWORD PTR p$[rbp]
	inc	rax
	mov	QWORD PTR p$[rbp], rax
	mov	eax, DWORD PTR flags$[rbp]
	shr	eax, 8
	mov	rcx, QWORD PTR p$[rbp]
	mov	BYTE PTR [rcx], al
	mov	rax, QWORD PTR p$[rbp]
	inc	rax
	mov	QWORD PTR p$[rbp], rax
	mov	rax, QWORD PTR p$[rbp]
	movzx	ecx, BYTE PTR flags$[rbp]
	mov	BYTE PTR [rax], cl
	mov	rax, QWORD PTR p$[rbp]
	inc	rax
	mov	QWORD PTR p$[rbp], rax

; 1025 :         WRITE_4(track_num + 1); // track_ID

	mov	eax, DWORD PTR track_num$[rbp]
	inc	eax
	sar	eax, 24
	mov	rcx, QWORD PTR p$[rbp]
	mov	BYTE PTR [rcx], al
	mov	rax, QWORD PTR p$[rbp]
	inc	rax
	mov	QWORD PTR p$[rbp], rax
	mov	eax, DWORD PTR track_num$[rbp]
	inc	eax
	sar	eax, 16
	mov	rcx, QWORD PTR p$[rbp]
	mov	BYTE PTR [rcx], al
	mov	rax, QWORD PTR p$[rbp]
	inc	rax
	mov	QWORD PTR p$[rbp], rax
	mov	eax, DWORD PTR track_num$[rbp]
	inc	eax
	sar	eax, 8
	mov	rcx, QWORD PTR p$[rbp]
	mov	BYTE PTR [rcx], al
	mov	rax, QWORD PTR p$[rbp]
	inc	rax
	mov	QWORD PTR p$[rbp], rax
	mov	eax, DWORD PTR track_num$[rbp]
	inc	eax
	mov	rcx, QWORD PTR p$[rbp]
	mov	BYTE PTR [rcx], al
	mov	rax, QWORD PTR p$[rbp]
	inc	rax
	mov	QWORD PTR p$[rbp], rax

; 1026 :     if (tr->info.track_media_kind == e_video)

	mov	rax, QWORD PTR tr$[rbp]
	cmp	DWORD PTR [rax+8], 1
	jne	SHORT $LN4@mp4e_write

; 1027 :     {
; 1028 :         WRITE_4(0x1010000); // default_sample_flags

	mov	rax, QWORD PTR p$[rbp]
	mov	BYTE PTR [rax], 1
	mov	rax, QWORD PTR p$[rbp]
	inc	rax
	mov	QWORD PTR p$[rbp], rax
	mov	rax, QWORD PTR p$[rbp]
	mov	BYTE PTR [rax], 1
	mov	rax, QWORD PTR p$[rbp]
	inc	rax
	mov	QWORD PTR p$[rbp], rax
	mov	rax, QWORD PTR p$[rbp]
	mov	BYTE PTR [rax], 0
	mov	rax, QWORD PTR p$[rbp]
	inc	rax
	mov	QWORD PTR p$[rbp], rax
	mov	rax, QWORD PTR p$[rbp]
	mov	BYTE PTR [rax], 0
	mov	rax, QWORD PTR p$[rbp]
	inc	rax
	mov	QWORD PTR p$[rbp], rax

; 1029 :     }

	jmp	$LN5@mp4e_write
$LN4@mp4e_write:

; 1030 :     else
; 1031 :     {
; 1032 :         WRITE_4(duration);

	mov	eax, DWORD PTR duration$[rbp]
	sar	eax, 24
	mov	rcx, QWORD PTR p$[rbp]
	mov	BYTE PTR [rcx], al
	mov	rax, QWORD PTR p$[rbp]
	inc	rax
	mov	QWORD PTR p$[rbp], rax
	mov	eax, DWORD PTR duration$[rbp]
	sar	eax, 16
	mov	rcx, QWORD PTR p$[rbp]
	mov	BYTE PTR [rcx], al
	mov	rax, QWORD PTR p$[rbp]
	inc	rax
	mov	QWORD PTR p$[rbp], rax
	mov	eax, DWORD PTR duration$[rbp]
	sar	eax, 8
	mov	rcx, QWORD PTR p$[rbp]
	mov	BYTE PTR [rcx], al
	mov	rax, QWORD PTR p$[rbp]
	inc	rax
	mov	QWORD PTR p$[rbp], rax
	mov	rax, QWORD PTR p$[rbp]
	movzx	ecx, BYTE PTR duration$[rbp]
	mov	BYTE PTR [rax], cl
	mov	rax, QWORD PTR p$[rbp]
	inc	rax
	mov	QWORD PTR p$[rbp], rax
$LN5@mp4e_write:

; 1033 :     }
; 1034 :     END_ATOM

	mov	rax, QWORD PTR stack$[rbp]
	sub	rax, 8
	mov	QWORD PTR stack$[rbp], rax
	mov	rax, QWORD PTR stack$[rbp]
	mov	rax, QWORD PTR [rax]
	mov	rcx, QWORD PTR p$[rbp]
	sub	rcx, rax
	mov	rax, rcx
	sar	rax, 24
	mov	ecx, 1
	imul	rcx, rcx, 0
	mov	rdx, QWORD PTR stack$[rbp]
	mov	rdx, QWORD PTR [rdx]
	mov	BYTE PTR [rcx+rdx], al
	mov	rax, QWORD PTR stack$[rbp]
	mov	rax, QWORD PTR [rax]
	mov	rcx, QWORD PTR p$[rbp]
	sub	rcx, rax
	mov	rax, rcx
	sar	rax, 16
	mov	ecx, 1
	imul	rcx, rcx, 1
	mov	rdx, QWORD PTR stack$[rbp]
	mov	rdx, QWORD PTR [rdx]
	mov	BYTE PTR [rcx+rdx], al
	mov	rax, QWORD PTR stack$[rbp]
	mov	rax, QWORD PTR [rax]
	mov	rcx, QWORD PTR p$[rbp]
	sub	rcx, rax
	mov	rax, rcx
	sar	rax, 8
	mov	ecx, 1
	imul	rcx, rcx, 2
	mov	rdx, QWORD PTR stack$[rbp]
	mov	rdx, QWORD PTR [rdx]
	mov	BYTE PTR [rcx+rdx], al
	mov	rax, QWORD PTR stack$[rbp]
	mov	rax, QWORD PTR [rax]
	mov	rcx, QWORD PTR p$[rbp]
	sub	rcx, rax
	mov	rax, rcx
	mov	ecx, 1
	imul	rcx, rcx, 3
	mov	rdx, QWORD PTR stack$[rbp]
	mov	rdx, QWORD PTR [rdx]
	mov	BYTE PTR [rcx+rdx], al

; 1035 : #if MP4D_TFDT_SUPPORT
; 1036 :         ATOM_FULL(BOX_tfdt, 0x01000000) // version 1
; 1037 :         WRITE_4(timestamp >> 32); // upper timestamp
; 1038 :     WRITE_4(timestamp & 0xffffffff); // lower timestamp
; 1039 :     END_ATOM
; 1040 : #endif
; 1041 :         if (tr->info.track_media_kind == e_audio)

	mov	rax, QWORD PTR tr$[rbp]
	cmp	DWORD PTR [rax+8], 0
	jne	$LN6@mp4e_write

; 1042 :         {
; 1043 :             flags = 0;

	mov	DWORD PTR flags$[rbp], 0

; 1044 :             flags |= 0x001;         // data-offset-present

	mov	eax, DWORD PTR flags$[rbp]
	or	eax, 1
	mov	DWORD PTR flags$[rbp], eax

; 1045 :             flags |= 0x200;         // sample-size-present

	mov	eax, DWORD PTR flags$[rbp]
	bts	eax, 9
	mov	DWORD PTR flags$[rbp], eax

; 1046 :             ATOM_FULL(BOX_trun, flags)

	mov	rax, QWORD PTR stack$[rbp]
	mov	rcx, QWORD PTR p$[rbp]
	mov	QWORD PTR [rax], rcx
	mov	rax, QWORD PTR stack$[rbp]
	add	rax, 8
	mov	QWORD PTR stack$[rbp], rax
	mov	rax, QWORD PTR p$[rbp]
	add	rax, 4
	mov	QWORD PTR p$[rbp], rax
	mov	rax, QWORD PTR p$[rbp]
	mov	BYTE PTR [rax], 116			; 00000074H
	mov	rax, QWORD PTR p$[rbp]
	inc	rax
	mov	QWORD PTR p$[rbp], rax
	mov	rax, QWORD PTR p$[rbp]
	mov	BYTE PTR [rax], 114			; 00000072H
	mov	rax, QWORD PTR p$[rbp]
	inc	rax
	mov	QWORD PTR p$[rbp], rax
	mov	rax, QWORD PTR p$[rbp]
	mov	BYTE PTR [rax], 117			; 00000075H
	mov	rax, QWORD PTR p$[rbp]
	inc	rax
	mov	QWORD PTR p$[rbp], rax
	mov	rax, QWORD PTR p$[rbp]
	mov	BYTE PTR [rax], 110			; 0000006eH
	mov	rax, QWORD PTR p$[rbp]
	inc	rax
	mov	QWORD PTR p$[rbp], rax
	mov	eax, DWORD PTR flags$[rbp]
	shr	eax, 24
	mov	rcx, QWORD PTR p$[rbp]
	mov	BYTE PTR [rcx], al
	mov	rax, QWORD PTR p$[rbp]
	inc	rax
	mov	QWORD PTR p$[rbp], rax
	mov	eax, DWORD PTR flags$[rbp]
	shr	eax, 16
	mov	rcx, QWORD PTR p$[rbp]
	mov	BYTE PTR [rcx], al
	mov	rax, QWORD PTR p$[rbp]
	inc	rax
	mov	QWORD PTR p$[rbp], rax
	mov	eax, DWORD PTR flags$[rbp]
	shr	eax, 8
	mov	rcx, QWORD PTR p$[rbp]
	mov	BYTE PTR [rcx], al
	mov	rax, QWORD PTR p$[rbp]
	inc	rax
	mov	QWORD PTR p$[rbp], rax
	mov	rax, QWORD PTR p$[rbp]
	movzx	ecx, BYTE PTR flags$[rbp]
	mov	BYTE PTR [rax], cl
	mov	rax, QWORD PTR p$[rbp]
	inc	rax
	mov	QWORD PTR p$[rbp], rax

; 1047 :                 WRITE_4(1);         // sample_count

	mov	rax, QWORD PTR p$[rbp]
	mov	BYTE PTR [rax], 0
	mov	rax, QWORD PTR p$[rbp]
	inc	rax
	mov	QWORD PTR p$[rbp], rax
	mov	rax, QWORD PTR p$[rbp]
	mov	BYTE PTR [rax], 0
	mov	rax, QWORD PTR p$[rbp]
	inc	rax
	mov	QWORD PTR p$[rbp], rax
	mov	rax, QWORD PTR p$[rbp]
	mov	BYTE PTR [rax], 0
	mov	rax, QWORD PTR p$[rbp]
	inc	rax
	mov	QWORD PTR p$[rbp], rax
	mov	rax, QWORD PTR p$[rbp]
	mov	BYTE PTR [rax], 1
	mov	rax, QWORD PTR p$[rbp]
	inc	rax
	mov	QWORD PTR p$[rbp], rax

; 1048 :             pdata_offset = p; p += 4;  // save ptr to data_offset

	mov	rax, QWORD PTR p$[rbp]
	mov	QWORD PTR pdata_offset$[rbp], rax
	mov	rax, QWORD PTR p$[rbp]
	add	rax, 4
	mov	QWORD PTR p$[rbp], rax

; 1049 :             WRITE_4(data_bytes);// sample_size

	mov	eax, DWORD PTR data_bytes$[rbp]
	sar	eax, 24
	mov	rcx, QWORD PTR p$[rbp]
	mov	BYTE PTR [rcx], al
	mov	rax, QWORD PTR p$[rbp]
	inc	rax
	mov	QWORD PTR p$[rbp], rax
	mov	eax, DWORD PTR data_bytes$[rbp]
	sar	eax, 16
	mov	rcx, QWORD PTR p$[rbp]
	mov	BYTE PTR [rcx], al
	mov	rax, QWORD PTR p$[rbp]
	inc	rax
	mov	QWORD PTR p$[rbp], rax
	mov	eax, DWORD PTR data_bytes$[rbp]
	sar	eax, 8
	mov	rcx, QWORD PTR p$[rbp]
	mov	BYTE PTR [rcx], al
	mov	rax, QWORD PTR p$[rbp]
	inc	rax
	mov	QWORD PTR p$[rbp], rax
	mov	rax, QWORD PTR p$[rbp]
	movzx	ecx, BYTE PTR data_bytes$[rbp]
	mov	BYTE PTR [rax], cl
	mov	rax, QWORD PTR p$[rbp]
	inc	rax
	mov	QWORD PTR p$[rbp], rax

; 1050 :             END_ATOM

	mov	rax, QWORD PTR stack$[rbp]
	sub	rax, 8
	mov	QWORD PTR stack$[rbp], rax
	mov	rax, QWORD PTR stack$[rbp]
	mov	rax, QWORD PTR [rax]
	mov	rcx, QWORD PTR p$[rbp]
	sub	rcx, rax
	mov	rax, rcx
	sar	rax, 24
	mov	ecx, 1
	imul	rcx, rcx, 0
	mov	rdx, QWORD PTR stack$[rbp]
	mov	rdx, QWORD PTR [rdx]
	mov	BYTE PTR [rcx+rdx], al
	mov	rax, QWORD PTR stack$[rbp]
	mov	rax, QWORD PTR [rax]
	mov	rcx, QWORD PTR p$[rbp]
	sub	rcx, rax
	mov	rax, rcx
	sar	rax, 16
	mov	ecx, 1
	imul	rcx, rcx, 1
	mov	rdx, QWORD PTR stack$[rbp]
	mov	rdx, QWORD PTR [rdx]
	mov	BYTE PTR [rcx+rdx], al
	mov	rax, QWORD PTR stack$[rbp]
	mov	rax, QWORD PTR [rax]
	mov	rcx, QWORD PTR p$[rbp]
	sub	rcx, rax
	mov	rax, rcx
	sar	rax, 8
	mov	ecx, 1
	imul	rcx, rcx, 2
	mov	rdx, QWORD PTR stack$[rbp]
	mov	rdx, QWORD PTR [rdx]
	mov	BYTE PTR [rcx+rdx], al
	mov	rax, QWORD PTR stack$[rbp]
	mov	rax, QWORD PTR [rax]
	mov	rcx, QWORD PTR p$[rbp]
	sub	rcx, rax
	mov	rax, rcx
	mov	ecx, 1
	imul	rcx, rcx, 3
	mov	rdx, QWORD PTR stack$[rbp]
	mov	rdx, QWORD PTR [rdx]
	mov	BYTE PTR [rcx+rdx], al

; 1051 :         }

	jmp	$LN7@mp4e_write
$LN6@mp4e_write:

; 1052 :         else if (kind == MP4E_SAMPLE_RANDOM_ACCESS)

	cmp	DWORD PTR kind$[rbp], 1
	jne	$LN8@mp4e_write

; 1053 :         {
; 1054 :             flags = 0;

	mov	DWORD PTR flags$[rbp], 0

; 1055 :             flags |= 0x001;         // data-offset-present

	mov	eax, DWORD PTR flags$[rbp]
	or	eax, 1
	mov	DWORD PTR flags$[rbp], eax

; 1056 :             flags |= 0x004;         // first-sample-flags-present

	mov	eax, DWORD PTR flags$[rbp]
	or	eax, 4
	mov	DWORD PTR flags$[rbp], eax

; 1057 :             flags |= 0x100;         // sample-duration-present

	mov	eax, DWORD PTR flags$[rbp]
	bts	eax, 8
	mov	DWORD PTR flags$[rbp], eax

; 1058 :             flags |= 0x200;         // sample-size-present

	mov	eax, DWORD PTR flags$[rbp]
	bts	eax, 9
	mov	DWORD PTR flags$[rbp], eax

; 1059 :             ATOM_FULL(BOX_trun, flags)

	mov	rax, QWORD PTR stack$[rbp]
	mov	rcx, QWORD PTR p$[rbp]
	mov	QWORD PTR [rax], rcx
	mov	rax, QWORD PTR stack$[rbp]
	add	rax, 8
	mov	QWORD PTR stack$[rbp], rax
	mov	rax, QWORD PTR p$[rbp]
	add	rax, 4
	mov	QWORD PTR p$[rbp], rax
	mov	rax, QWORD PTR p$[rbp]
	mov	BYTE PTR [rax], 116			; 00000074H
	mov	rax, QWORD PTR p$[rbp]
	inc	rax
	mov	QWORD PTR p$[rbp], rax
	mov	rax, QWORD PTR p$[rbp]
	mov	BYTE PTR [rax], 114			; 00000072H
	mov	rax, QWORD PTR p$[rbp]
	inc	rax
	mov	QWORD PTR p$[rbp], rax
	mov	rax, QWORD PTR p$[rbp]
	mov	BYTE PTR [rax], 117			; 00000075H
	mov	rax, QWORD PTR p$[rbp]
	inc	rax
	mov	QWORD PTR p$[rbp], rax
	mov	rax, QWORD PTR p$[rbp]
	mov	BYTE PTR [rax], 110			; 0000006eH
	mov	rax, QWORD PTR p$[rbp]
	inc	rax
	mov	QWORD PTR p$[rbp], rax
	mov	eax, DWORD PTR flags$[rbp]
	shr	eax, 24
	mov	rcx, QWORD PTR p$[rbp]
	mov	BYTE PTR [rcx], al
	mov	rax, QWORD PTR p$[rbp]
	inc	rax
	mov	QWORD PTR p$[rbp], rax
	mov	eax, DWORD PTR flags$[rbp]
	shr	eax, 16
	mov	rcx, QWORD PTR p$[rbp]
	mov	BYTE PTR [rcx], al
	mov	rax, QWORD PTR p$[rbp]
	inc	rax
	mov	QWORD PTR p$[rbp], rax
	mov	eax, DWORD PTR flags$[rbp]
	shr	eax, 8
	mov	rcx, QWORD PTR p$[rbp]
	mov	BYTE PTR [rcx], al
	mov	rax, QWORD PTR p$[rbp]
	inc	rax
	mov	QWORD PTR p$[rbp], rax
	mov	rax, QWORD PTR p$[rbp]
	movzx	ecx, BYTE PTR flags$[rbp]
	mov	BYTE PTR [rax], cl
	mov	rax, QWORD PTR p$[rbp]
	inc	rax
	mov	QWORD PTR p$[rbp], rax

; 1060 :                 WRITE_4(1);         // sample_count

	mov	rax, QWORD PTR p$[rbp]
	mov	BYTE PTR [rax], 0
	mov	rax, QWORD PTR p$[rbp]
	inc	rax
	mov	QWORD PTR p$[rbp], rax
	mov	rax, QWORD PTR p$[rbp]
	mov	BYTE PTR [rax], 0
	mov	rax, QWORD PTR p$[rbp]
	inc	rax
	mov	QWORD PTR p$[rbp], rax
	mov	rax, QWORD PTR p$[rbp]
	mov	BYTE PTR [rax], 0
	mov	rax, QWORD PTR p$[rbp]
	inc	rax
	mov	QWORD PTR p$[rbp], rax
	mov	rax, QWORD PTR p$[rbp]
	mov	BYTE PTR [rax], 1
	mov	rax, QWORD PTR p$[rbp]
	inc	rax
	mov	QWORD PTR p$[rbp], rax

; 1061 :             pdata_offset = p; p += 4;   // save ptr to data_offset

	mov	rax, QWORD PTR p$[rbp]
	mov	QWORD PTR pdata_offset$[rbp], rax
	mov	rax, QWORD PTR p$[rbp]
	add	rax, 4
	mov	QWORD PTR p$[rbp], rax

; 1062 :             WRITE_4(0x2000000); // first_sample_flags

	mov	rax, QWORD PTR p$[rbp]
	mov	BYTE PTR [rax], 2
	mov	rax, QWORD PTR p$[rbp]
	inc	rax
	mov	QWORD PTR p$[rbp], rax
	mov	rax, QWORD PTR p$[rbp]
	mov	BYTE PTR [rax], 0
	mov	rax, QWORD PTR p$[rbp]
	inc	rax
	mov	QWORD PTR p$[rbp], rax
	mov	rax, QWORD PTR p$[rbp]
	mov	BYTE PTR [rax], 0
	mov	rax, QWORD PTR p$[rbp]
	inc	rax
	mov	QWORD PTR p$[rbp], rax
	mov	rax, QWORD PTR p$[rbp]
	mov	BYTE PTR [rax], 0
	mov	rax, QWORD PTR p$[rbp]
	inc	rax
	mov	QWORD PTR p$[rbp], rax

; 1063 :             WRITE_4(duration);  // sample_duration

	mov	eax, DWORD PTR duration$[rbp]
	sar	eax, 24
	mov	rcx, QWORD PTR p$[rbp]
	mov	BYTE PTR [rcx], al
	mov	rax, QWORD PTR p$[rbp]
	inc	rax
	mov	QWORD PTR p$[rbp], rax
	mov	eax, DWORD PTR duration$[rbp]
	sar	eax, 16
	mov	rcx, QWORD PTR p$[rbp]
	mov	BYTE PTR [rcx], al
	mov	rax, QWORD PTR p$[rbp]
	inc	rax
	mov	QWORD PTR p$[rbp], rax
	mov	eax, DWORD PTR duration$[rbp]
	sar	eax, 8
	mov	rcx, QWORD PTR p$[rbp]
	mov	BYTE PTR [rcx], al
	mov	rax, QWORD PTR p$[rbp]
	inc	rax
	mov	QWORD PTR p$[rbp], rax
	mov	rax, QWORD PTR p$[rbp]
	movzx	ecx, BYTE PTR duration$[rbp]
	mov	BYTE PTR [rax], cl
	mov	rax, QWORD PTR p$[rbp]
	inc	rax
	mov	QWORD PTR p$[rbp], rax

; 1064 :             WRITE_4(data_bytes);// sample_size

	mov	eax, DWORD PTR data_bytes$[rbp]
	sar	eax, 24
	mov	rcx, QWORD PTR p$[rbp]
	mov	BYTE PTR [rcx], al
	mov	rax, QWORD PTR p$[rbp]
	inc	rax
	mov	QWORD PTR p$[rbp], rax
	mov	eax, DWORD PTR data_bytes$[rbp]
	sar	eax, 16
	mov	rcx, QWORD PTR p$[rbp]
	mov	BYTE PTR [rcx], al
	mov	rax, QWORD PTR p$[rbp]
	inc	rax
	mov	QWORD PTR p$[rbp], rax
	mov	eax, DWORD PTR data_bytes$[rbp]
	sar	eax, 8
	mov	rcx, QWORD PTR p$[rbp]
	mov	BYTE PTR [rcx], al
	mov	rax, QWORD PTR p$[rbp]
	inc	rax
	mov	QWORD PTR p$[rbp], rax
	mov	rax, QWORD PTR p$[rbp]
	movzx	ecx, BYTE PTR data_bytes$[rbp]
	mov	BYTE PTR [rax], cl
	mov	rax, QWORD PTR p$[rbp]
	inc	rax
	mov	QWORD PTR p$[rbp], rax

; 1065 :             END_ATOM

	mov	rax, QWORD PTR stack$[rbp]
	sub	rax, 8
	mov	QWORD PTR stack$[rbp], rax
	mov	rax, QWORD PTR stack$[rbp]
	mov	rax, QWORD PTR [rax]
	mov	rcx, QWORD PTR p$[rbp]
	sub	rcx, rax
	mov	rax, rcx
	sar	rax, 24
	mov	ecx, 1
	imul	rcx, rcx, 0
	mov	rdx, QWORD PTR stack$[rbp]
	mov	rdx, QWORD PTR [rdx]
	mov	BYTE PTR [rcx+rdx], al
	mov	rax, QWORD PTR stack$[rbp]
	mov	rax, QWORD PTR [rax]
	mov	rcx, QWORD PTR p$[rbp]
	sub	rcx, rax
	mov	rax, rcx
	sar	rax, 16
	mov	ecx, 1
	imul	rcx, rcx, 1
	mov	rdx, QWORD PTR stack$[rbp]
	mov	rdx, QWORD PTR [rdx]
	mov	BYTE PTR [rcx+rdx], al
	mov	rax, QWORD PTR stack$[rbp]
	mov	rax, QWORD PTR [rax]
	mov	rcx, QWORD PTR p$[rbp]
	sub	rcx, rax
	mov	rax, rcx
	sar	rax, 8
	mov	ecx, 1
	imul	rcx, rcx, 2
	mov	rdx, QWORD PTR stack$[rbp]
	mov	rdx, QWORD PTR [rdx]
	mov	BYTE PTR [rcx+rdx], al
	mov	rax, QWORD PTR stack$[rbp]
	mov	rax, QWORD PTR [rax]
	mov	rcx, QWORD PTR p$[rbp]
	sub	rcx, rax
	mov	rax, rcx
	mov	ecx, 1
	imul	rcx, rcx, 3
	mov	rdx, QWORD PTR stack$[rbp]
	mov	rdx, QWORD PTR [rdx]
	mov	BYTE PTR [rcx+rdx], al

; 1066 :         }

	jmp	$LN9@mp4e_write
$LN8@mp4e_write:

; 1067 :         else
; 1068 :         {
; 1069 :             flags = 0;

	mov	DWORD PTR flags$[rbp], 0

; 1070 :             flags |= 0x001;         // data-offset-present

	mov	eax, DWORD PTR flags$[rbp]
	or	eax, 1
	mov	DWORD PTR flags$[rbp], eax

; 1071 :             flags |= 0x100;         // sample-duration-present

	mov	eax, DWORD PTR flags$[rbp]
	bts	eax, 8
	mov	DWORD PTR flags$[rbp], eax

; 1072 :             flags |= 0x200;         // sample-size-present

	mov	eax, DWORD PTR flags$[rbp]
	bts	eax, 9
	mov	DWORD PTR flags$[rbp], eax

; 1073 :             ATOM_FULL(BOX_trun, flags)

	mov	rax, QWORD PTR stack$[rbp]
	mov	rcx, QWORD PTR p$[rbp]
	mov	QWORD PTR [rax], rcx
	mov	rax, QWORD PTR stack$[rbp]
	add	rax, 8
	mov	QWORD PTR stack$[rbp], rax
	mov	rax, QWORD PTR p$[rbp]
	add	rax, 4
	mov	QWORD PTR p$[rbp], rax
	mov	rax, QWORD PTR p$[rbp]
	mov	BYTE PTR [rax], 116			; 00000074H
	mov	rax, QWORD PTR p$[rbp]
	inc	rax
	mov	QWORD PTR p$[rbp], rax
	mov	rax, QWORD PTR p$[rbp]
	mov	BYTE PTR [rax], 114			; 00000072H
	mov	rax, QWORD PTR p$[rbp]
	inc	rax
	mov	QWORD PTR p$[rbp], rax
	mov	rax, QWORD PTR p$[rbp]
	mov	BYTE PTR [rax], 117			; 00000075H
	mov	rax, QWORD PTR p$[rbp]
	inc	rax
	mov	QWORD PTR p$[rbp], rax
	mov	rax, QWORD PTR p$[rbp]
	mov	BYTE PTR [rax], 110			; 0000006eH
	mov	rax, QWORD PTR p$[rbp]
	inc	rax
	mov	QWORD PTR p$[rbp], rax
	mov	eax, DWORD PTR flags$[rbp]
	shr	eax, 24
	mov	rcx, QWORD PTR p$[rbp]
	mov	BYTE PTR [rcx], al
	mov	rax, QWORD PTR p$[rbp]
	inc	rax
	mov	QWORD PTR p$[rbp], rax
	mov	eax, DWORD PTR flags$[rbp]
	shr	eax, 16
	mov	rcx, QWORD PTR p$[rbp]
	mov	BYTE PTR [rcx], al
	mov	rax, QWORD PTR p$[rbp]
	inc	rax
	mov	QWORD PTR p$[rbp], rax
	mov	eax, DWORD PTR flags$[rbp]
	shr	eax, 8
	mov	rcx, QWORD PTR p$[rbp]
	mov	BYTE PTR [rcx], al
	mov	rax, QWORD PTR p$[rbp]
	inc	rax
	mov	QWORD PTR p$[rbp], rax
	mov	rax, QWORD PTR p$[rbp]
	movzx	ecx, BYTE PTR flags$[rbp]
	mov	BYTE PTR [rax], cl
	mov	rax, QWORD PTR p$[rbp]
	inc	rax
	mov	QWORD PTR p$[rbp], rax

; 1074 :                 WRITE_4(1);         // sample_count

	mov	rax, QWORD PTR p$[rbp]
	mov	BYTE PTR [rax], 0
	mov	rax, QWORD PTR p$[rbp]
	inc	rax
	mov	QWORD PTR p$[rbp], rax
	mov	rax, QWORD PTR p$[rbp]
	mov	BYTE PTR [rax], 0
	mov	rax, QWORD PTR p$[rbp]
	inc	rax
	mov	QWORD PTR p$[rbp], rax
	mov	rax, QWORD PTR p$[rbp]
	mov	BYTE PTR [rax], 0
	mov	rax, QWORD PTR p$[rbp]
	inc	rax
	mov	QWORD PTR p$[rbp], rax
	mov	rax, QWORD PTR p$[rbp]
	mov	BYTE PTR [rax], 1
	mov	rax, QWORD PTR p$[rbp]
	inc	rax
	mov	QWORD PTR p$[rbp], rax

; 1075 :             pdata_offset = p; p += 4;   // save ptr to data_offset

	mov	rax, QWORD PTR p$[rbp]
	mov	QWORD PTR pdata_offset$[rbp], rax
	mov	rax, QWORD PTR p$[rbp]
	add	rax, 4
	mov	QWORD PTR p$[rbp], rax

; 1076 :             WRITE_4(duration);  // sample_duration

	mov	eax, DWORD PTR duration$[rbp]
	sar	eax, 24
	mov	rcx, QWORD PTR p$[rbp]
	mov	BYTE PTR [rcx], al
	mov	rax, QWORD PTR p$[rbp]
	inc	rax
	mov	QWORD PTR p$[rbp], rax
	mov	eax, DWORD PTR duration$[rbp]
	sar	eax, 16
	mov	rcx, QWORD PTR p$[rbp]
	mov	BYTE PTR [rcx], al
	mov	rax, QWORD PTR p$[rbp]
	inc	rax
	mov	QWORD PTR p$[rbp], rax
	mov	eax, DWORD PTR duration$[rbp]
	sar	eax, 8
	mov	rcx, QWORD PTR p$[rbp]
	mov	BYTE PTR [rcx], al
	mov	rax, QWORD PTR p$[rbp]
	inc	rax
	mov	QWORD PTR p$[rbp], rax
	mov	rax, QWORD PTR p$[rbp]
	movzx	ecx, BYTE PTR duration$[rbp]
	mov	BYTE PTR [rax], cl
	mov	rax, QWORD PTR p$[rbp]
	inc	rax
	mov	QWORD PTR p$[rbp], rax

; 1077 :             WRITE_4(data_bytes);// sample_size

	mov	eax, DWORD PTR data_bytes$[rbp]
	sar	eax, 24
	mov	rcx, QWORD PTR p$[rbp]
	mov	BYTE PTR [rcx], al
	mov	rax, QWORD PTR p$[rbp]
	inc	rax
	mov	QWORD PTR p$[rbp], rax
	mov	eax, DWORD PTR data_bytes$[rbp]
	sar	eax, 16
	mov	rcx, QWORD PTR p$[rbp]
	mov	BYTE PTR [rcx], al
	mov	rax, QWORD PTR p$[rbp]
	inc	rax
	mov	QWORD PTR p$[rbp], rax
	mov	eax, DWORD PTR data_bytes$[rbp]
	sar	eax, 8
	mov	rcx, QWORD PTR p$[rbp]
	mov	BYTE PTR [rcx], al
	mov	rax, QWORD PTR p$[rbp]
	inc	rax
	mov	QWORD PTR p$[rbp], rax
	mov	rax, QWORD PTR p$[rbp]
	movzx	ecx, BYTE PTR data_bytes$[rbp]
	mov	BYTE PTR [rax], cl
	mov	rax, QWORD PTR p$[rbp]
	inc	rax
	mov	QWORD PTR p$[rbp], rax

; 1078 :             END_ATOM

	mov	rax, QWORD PTR stack$[rbp]
	sub	rax, 8
	mov	QWORD PTR stack$[rbp], rax
	mov	rax, QWORD PTR stack$[rbp]
	mov	rax, QWORD PTR [rax]
	mov	rcx, QWORD PTR p$[rbp]
	sub	rcx, rax
	mov	rax, rcx
	sar	rax, 24
	mov	ecx, 1
	imul	rcx, rcx, 0
	mov	rdx, QWORD PTR stack$[rbp]
	mov	rdx, QWORD PTR [rdx]
	mov	BYTE PTR [rcx+rdx], al
	mov	rax, QWORD PTR stack$[rbp]
	mov	rax, QWORD PTR [rax]
	mov	rcx, QWORD PTR p$[rbp]
	sub	rcx, rax
	mov	rax, rcx
	sar	rax, 16
	mov	ecx, 1
	imul	rcx, rcx, 1
	mov	rdx, QWORD PTR stack$[rbp]
	mov	rdx, QWORD PTR [rdx]
	mov	BYTE PTR [rcx+rdx], al
	mov	rax, QWORD PTR stack$[rbp]
	mov	rax, QWORD PTR [rax]
	mov	rcx, QWORD PTR p$[rbp]
	sub	rcx, rax
	mov	rax, rcx
	sar	rax, 8
	mov	ecx, 1
	imul	rcx, rcx, 2
	mov	rdx, QWORD PTR stack$[rbp]
	mov	rdx, QWORD PTR [rdx]
	mov	BYTE PTR [rcx+rdx], al
	mov	rax, QWORD PTR stack$[rbp]
	mov	rax, QWORD PTR [rax]
	mov	rcx, QWORD PTR p$[rbp]
	sub	rcx, rax
	mov	rax, rcx
	mov	ecx, 1
	imul	rcx, rcx, 3
	mov	rdx, QWORD PTR stack$[rbp]
	mov	rdx, QWORD PTR [rdx]
	mov	BYTE PTR [rcx+rdx], al
$LN9@mp4e_write:
$LN7@mp4e_write:

; 1079 :         }
; 1080 :     END_ATOM

	mov	rax, QWORD PTR stack$[rbp]
	sub	rax, 8
	mov	QWORD PTR stack$[rbp], rax
	mov	rax, QWORD PTR stack$[rbp]
	mov	rax, QWORD PTR [rax]
	mov	rcx, QWORD PTR p$[rbp]
	sub	rcx, rax
	mov	rax, rcx
	sar	rax, 24
	mov	ecx, 1
	imul	rcx, rcx, 0
	mov	rdx, QWORD PTR stack$[rbp]
	mov	rdx, QWORD PTR [rdx]
	mov	BYTE PTR [rcx+rdx], al
	mov	rax, QWORD PTR stack$[rbp]
	mov	rax, QWORD PTR [rax]
	mov	rcx, QWORD PTR p$[rbp]
	sub	rcx, rax
	mov	rax, rcx
	sar	rax, 16
	mov	ecx, 1
	imul	rcx, rcx, 1
	mov	rdx, QWORD PTR stack$[rbp]
	mov	rdx, QWORD PTR [rdx]
	mov	BYTE PTR [rcx+rdx], al
	mov	rax, QWORD PTR stack$[rbp]
	mov	rax, QWORD PTR [rax]
	mov	rcx, QWORD PTR p$[rbp]
	sub	rcx, rax
	mov	rax, rcx
	sar	rax, 8
	mov	ecx, 1
	imul	rcx, rcx, 2
	mov	rdx, QWORD PTR stack$[rbp]
	mov	rdx, QWORD PTR [rdx]
	mov	BYTE PTR [rcx+rdx], al
	mov	rax, QWORD PTR stack$[rbp]
	mov	rax, QWORD PTR [rax]
	mov	rcx, QWORD PTR p$[rbp]
	sub	rcx, rax
	mov	rax, rcx
	mov	ecx, 1
	imul	rcx, rcx, 3
	mov	rdx, QWORD PTR stack$[rbp]
	mov	rdx, QWORD PTR [rdx]
	mov	BYTE PTR [rcx+rdx], al

; 1081 :         END_ATOM

	mov	rax, QWORD PTR stack$[rbp]
	sub	rax, 8
	mov	QWORD PTR stack$[rbp], rax
	mov	rax, QWORD PTR stack$[rbp]
	mov	rax, QWORD PTR [rax]
	mov	rcx, QWORD PTR p$[rbp]
	sub	rcx, rax
	mov	rax, rcx
	sar	rax, 24
	mov	ecx, 1
	imul	rcx, rcx, 0
	mov	rdx, QWORD PTR stack$[rbp]
	mov	rdx, QWORD PTR [rdx]
	mov	BYTE PTR [rcx+rdx], al
	mov	rax, QWORD PTR stack$[rbp]
	mov	rax, QWORD PTR [rax]
	mov	rcx, QWORD PTR p$[rbp]
	sub	rcx, rax
	mov	rax, rcx
	sar	rax, 16
	mov	ecx, 1
	imul	rcx, rcx, 1
	mov	rdx, QWORD PTR stack$[rbp]
	mov	rdx, QWORD PTR [rdx]
	mov	BYTE PTR [rcx+rdx], al
	mov	rax, QWORD PTR stack$[rbp]
	mov	rax, QWORD PTR [rax]
	mov	rcx, QWORD PTR p$[rbp]
	sub	rcx, rax
	mov	rax, rcx
	sar	rax, 8
	mov	ecx, 1
	imul	rcx, rcx, 2
	mov	rdx, QWORD PTR stack$[rbp]
	mov	rdx, QWORD PTR [rdx]
	mov	BYTE PTR [rcx+rdx], al
	mov	rax, QWORD PTR stack$[rbp]
	mov	rax, QWORD PTR [rax]
	mov	rcx, QWORD PTR p$[rbp]
	sub	rcx, rax
	mov	rax, rcx
	mov	ecx, 1
	imul	rcx, rcx, 3
	mov	rdx, QWORD PTR stack$[rbp]
	mov	rdx, QWORD PTR [rdx]
	mov	BYTE PTR [rcx+rdx], al

; 1082 :         WR4(pdata_offset, (p - base) + 8);

	lea	rax, QWORD PTR base$[rbp]
	mov	rcx, QWORD PTR p$[rbp]
	sub	rcx, rax
	mov	rax, rcx
	add	rax, 8
	sar	rax, 24
	mov	ecx, 1
	imul	rcx, rcx, 0
	mov	rdx, QWORD PTR pdata_offset$[rbp]
	mov	BYTE PTR [rdx+rcx], al
	lea	rax, QWORD PTR base$[rbp]
	mov	rcx, QWORD PTR p$[rbp]
	sub	rcx, rax
	mov	rax, rcx
	add	rax, 8
	sar	rax, 16
	mov	ecx, 1
	imul	rcx, rcx, 1
	mov	rdx, QWORD PTR pdata_offset$[rbp]
	mov	BYTE PTR [rdx+rcx], al
	lea	rax, QWORD PTR base$[rbp]
	mov	rcx, QWORD PTR p$[rbp]
	sub	rcx, rax
	mov	rax, rcx
	add	rax, 8
	sar	rax, 8
	mov	ecx, 1
	imul	rcx, rcx, 2
	mov	rdx, QWORD PTR pdata_offset$[rbp]
	mov	BYTE PTR [rdx+rcx], al
	lea	rax, QWORD PTR base$[rbp]
	mov	rcx, QWORD PTR p$[rbp]
	sub	rcx, rax
	mov	rax, rcx
	add	rax, 8
	mov	ecx, 1
	imul	rcx, rcx, 3
	mov	rdx, QWORD PTR pdata_offset$[rbp]
	mov	BYTE PTR [rdx+rcx], al

; 1083 : 
; 1084 :     ERR(mux->write_callback(mux->write_pos, base, p - base, mux->token));

	lea	rax, QWORD PTR base$[rbp]
	mov	rcx, QWORD PTR p$[rbp]
	sub	rcx, rax
	mov	rax, rcx
	mov	rcx, QWORD PTR mux$[rbp]
	mov	r9, QWORD PTR [rcx+32]
	mov	r8, rax
	lea	rdx, QWORD PTR base$[rbp]
	mov	rax, QWORD PTR mux$[rbp]
	mov	rcx, QWORD PTR [rax+16]
	mov	rax, QWORD PTR mux$[rbp]
	call	QWORD PTR [rax+24]
	mov	DWORD PTR err$1[rbp], eax
	cmp	DWORD PTR err$1[rbp], 0
	je	SHORT $LN10@mp4e_write
	mov	eax, DWORD PTR err$1[rbp]
	jmp	SHORT $LN1@mp4e_write
$LN10@mp4e_write:

; 1085 :     mux->write_pos += p - base;

	lea	rax, QWORD PTR base$[rbp]
	mov	rcx, QWORD PTR p$[rbp]
	sub	rcx, rax
	mov	rax, rcx
	mov	rcx, QWORD PTR mux$[rbp]
	add	rax, QWORD PTR [rcx+16]
	mov	rcx, QWORD PTR mux$[rbp]
	mov	QWORD PTR [rcx+16], rax

; 1086 :     return MP4E_STATUS_OK;

	xor	eax, eax
$LN1@mp4e_write:

; 1087 : }

	lea	rsp, QWORD PTR [rbp+1312]
	pop	rbp
	ret	0
?mp4e_write_fragment_header@@YAHPEAUMP4E_mux_tag@@HHHH@Z ENDP ; mp4e_write_fragment_header
_TEXT	ENDS
; Function compile flags: /Odtp /ZI
; File C:\Users\paras\source\repos\grep-name\XenevaOS\Process\AudioPlayer\minimp4.h
;	COMDAT ?mp4e_flush_index@@YAHPEAUMP4E_mux_tag@@@Z
_TEXT	SEGMENT
stack_base$ = 0
stack$ = 160
base$ = 168
p$ = 176
ntr$ = 184
index_bytes$ = 188
ntracks$ = 192
i$ = 196
err$ = 200
tr$1 = 208
err$2 = 216
size$3 = 224
size_limit$4 = 232
err$5 = 240
tr$6 = 248
duration$7 = 256
tr$8 = 264
duration$9 = 272
samples_count$10 = 276
sample$11 = 280
handler_type$12 = 288
handler_ascii$13 = 296
lang_code$14 = 304
dsi_bytes$15 = 308
dsi_size_size$16 = 312
dcd_bytes$17 = 316
dcd_size_size$18 = 320
esd_bytes$19 = 324
numOfSequenceParameterSets$20 = 328
numOfPictureParameterSets$21 = 332
numOfVPS$22 = 336
pentry_count$23 = 344
cnt$24 = 352
entry_count$25 = 356
is_64_bit$26 = 360
ra_count$27 = 364
tr$28 = 368
movie_duration$29 = 376
tv2447 = 444
tv1934 = 444
tv404 = 444
mux$ = 464
?mp4e_flush_index@@YAHPEAUMP4E_mux_tag@@@Z PROC		; mp4e_flush_index, COMDAT

; 1196 : {

	mov	QWORD PTR [rsp+8], rcx
	push	rbp
	sub	rsp, 480				; 000001e0H
	lea	rbp, QWORD PTR [rsp+32]

; 1197 :     unsigned char* stack_base[20]; // atoms nesting stack
; 1198 :     unsigned char** stack = stack_base;

	lea	rax, QWORD PTR stack_base$[rbp]
	mov	QWORD PTR stack$[rbp], rax

; 1199 :     unsigned char* base, * p;
; 1200 :     unsigned int ntr, index_bytes, ntracks = mux->tracks.bytes / sizeof(track_t);

	mov	rax, QWORD PTR mux$[rbp]
	movsxd	rax, DWORD PTR [rax+8]
	xor	edx, edx
	mov	ecx, 112				; 00000070H
	div	rcx
	mov	DWORD PTR ntracks$[rbp], eax

; 1201 :     int i, err;
; 1202 : 
; 1203 :     // How much memory needed for indexes
; 1204 :     // Experimental data:
; 1205 :     // file with 1 track = 560 bytes
; 1206 :     // file with 2 tracks = 972 bytes
; 1207 :     // track size = 412 bytes;
; 1208 :     // file header size = 148 bytes
; 1209 : #define FILE_HEADER_BYTES 256
; 1210 : #define TRACK_HEADER_BYTES 512
; 1211 :     index_bytes = FILE_HEADER_BYTES;

	mov	DWORD PTR index_bytes$[rbp], 256	; 00000100H

; 1212 :     if (mux->text_comment)

	mov	rax, QWORD PTR mux$[rbp]
	cmp	QWORD PTR [rax+40], 0
	je	SHORT $LN67@mp4e_flush

; 1213 :         index_bytes += 128 + strlen(mux->text_comment);

	mov	rax, QWORD PTR mux$[rbp]
	mov	rcx, QWORD PTR [rax+40]
	call	strlen
	mov	ecx, DWORD PTR index_bytes$[rbp]
	lea	rax, QWORD PTR [rcx+rax+128]
	mov	DWORD PTR index_bytes$[rbp], eax
$LN67@mp4e_flush:

; 1214 :     for (ntr = 0; ntr < ntracks; ntr++)

	mov	DWORD PTR ntr$[rbp], 0
	jmp	SHORT $LN4@mp4e_flush
$LN2@mp4e_flush:
	mov	eax, DWORD PTR ntr$[rbp]
	inc	eax
	mov	DWORD PTR ntr$[rbp], eax
$LN4@mp4e_flush:
	mov	eax, DWORD PTR ntracks$[rbp]
	cmp	DWORD PTR ntr$[rbp], eax
	jae	$LN3@mp4e_flush

; 1215 :     {
; 1216 :         track_t* tr = ((track_t*)mux->tracks.data) + ntr;

	mov	eax, DWORD PTR ntr$[rbp]
	imul	rax, rax, 112				; 00000070H
	mov	rcx, QWORD PTR mux$[rbp]
	add	rax, QWORD PTR [rcx]
	mov	QWORD PTR tr$1[rbp], rax

; 1217 :         index_bytes += TRACK_HEADER_BYTES;          // fixed amount (implementation-dependent)

	mov	eax, DWORD PTR index_bytes$[rbp]
	add	eax, 512				; 00000200H
	mov	DWORD PTR index_bytes$[rbp], eax

; 1218 :         // may need extra 4 bytes for duration field + 4 bytes for worst-case random access box
; 1219 :         index_bytes += tr->smpl.bytes * (sizeof(sample_t) + 4 + 4) / sizeof(sample_t);

	mov	rax, QWORD PTR tr$1[rbp]
	movsxd	rax, DWORD PTR [rax+40]
	imul	rax, rax, 32				; 00000020H
	xor	edx, edx
	mov	ecx, 24
	div	rcx
	mov	ecx, DWORD PTR index_bytes$[rbp]
	add	rcx, rax
	mov	rax, rcx
	mov	DWORD PTR index_bytes$[rbp], eax

; 1220 :         index_bytes += tr->vsps.bytes;

	mov	rax, QWORD PTR tr$1[rbp]
	mov	eax, DWORD PTR [rax+72]
	mov	ecx, DWORD PTR index_bytes$[rbp]
	add	ecx, eax
	mov	eax, ecx
	mov	DWORD PTR index_bytes$[rbp], eax

; 1221 :         index_bytes += tr->vpps.bytes;

	mov	rax, QWORD PTR tr$1[rbp]
	mov	eax, DWORD PTR [rax+88]
	mov	ecx, DWORD PTR index_bytes$[rbp]
	add	ecx, eax
	mov	eax, ecx
	mov	DWORD PTR index_bytes$[rbp], eax

; 1222 : 
; 1223 :         ERR(write_pending_data(mux, tr));

	mov	rdx, QWORD PTR tr$1[rbp]
	mov	rcx, QWORD PTR mux$[rbp]
	call	?write_pending_data@@YAHPEAUMP4E_mux_tag@@PEAUtrack_t@@@Z ; write_pending_data
	mov	DWORD PTR err$2[rbp], eax
	cmp	DWORD PTR err$2[rbp], 0
	je	SHORT $LN68@mp4e_flush
	mov	eax, DWORD PTR err$2[rbp]
	jmp	$LN1@mp4e_flush
$LN68@mp4e_flush:

; 1224 :     }

	jmp	$LN2@mp4e_flush
$LN3@mp4e_flush:

; 1225 : 
; 1226 :     base = (unsigned char*)malloc(index_bytes);

	mov	ecx, DWORD PTR index_bytes$[rbp]
	call	malloc
	mov	QWORD PTR base$[rbp], rax

; 1227 :     if (!base)

	cmp	QWORD PTR base$[rbp], 0
	jne	SHORT $LN69@mp4e_flush

; 1228 :         return MP4E_STATUS_NO_MEMORY;

	mov	eax, -2
	jmp	$LN1@mp4e_flush
$LN69@mp4e_flush:

; 1229 :     p = base;

	mov	rax, QWORD PTR base$[rbp]
	mov	QWORD PTR p$[rbp], rax

; 1230 : 
; 1231 :     if (!mux->sequential_mode_flag)

	mov	rax, QWORD PTR mux$[rbp]
	cmp	DWORD PTR [rax+48], 0
	jne	$LN70@mp4e_flush

; 1232 :     {
; 1233 :         // update size of mdat box.
; 1234 :         // One of 2 points, which requires random file access.
; 1235 :         // Second is optional duration update at beginning of file in fragmentation mode.
; 1236 :         // This can be avoided using "till eof" size code, but in this case indexes must be
; 1237 :         // written before the mdat....
; 1238 :         int64_t size = mux->write_pos - sizeof(box_ftyp);

	mov	rax, QWORD PTR mux$[rbp]
	mov	rax, QWORD PTR [rax+16]
	sub	rax, 24
	mov	QWORD PTR size$3[rbp], rax

; 1239 :         const int64_t size_limit = (int64_t)(uint64_t)0xfffffffe;

	mov	eax, -2
	mov	QWORD PTR size_limit$4[rbp], rax

; 1240 :         if (size > size_limit)

	mov	eax, -2
	cmp	QWORD PTR size$3[rbp], rax
	jle	$LN71@mp4e_flush

; 1241 :         {
; 1242 :             WRITE_4(1);

	mov	rax, QWORD PTR p$[rbp]
	mov	BYTE PTR [rax], 0
	mov	rax, QWORD PTR p$[rbp]
	inc	rax
	mov	QWORD PTR p$[rbp], rax
	mov	rax, QWORD PTR p$[rbp]
	mov	BYTE PTR [rax], 0
	mov	rax, QWORD PTR p$[rbp]
	inc	rax
	mov	QWORD PTR p$[rbp], rax
	mov	rax, QWORD PTR p$[rbp]
	mov	BYTE PTR [rax], 0
	mov	rax, QWORD PTR p$[rbp]
	inc	rax
	mov	QWORD PTR p$[rbp], rax
	mov	rax, QWORD PTR p$[rbp]
	mov	BYTE PTR [rax], 1
	mov	rax, QWORD PTR p$[rbp]
	inc	rax
	mov	QWORD PTR p$[rbp], rax

; 1243 :             WRITE_4(BOX_mdat);

	mov	rax, QWORD PTR p$[rbp]
	mov	BYTE PTR [rax], 109			; 0000006dH
	mov	rax, QWORD PTR p$[rbp]
	inc	rax
	mov	QWORD PTR p$[rbp], rax
	mov	rax, QWORD PTR p$[rbp]
	mov	BYTE PTR [rax], 100			; 00000064H
	mov	rax, QWORD PTR p$[rbp]
	inc	rax
	mov	QWORD PTR p$[rbp], rax
	mov	rax, QWORD PTR p$[rbp]
	mov	BYTE PTR [rax], 97			; 00000061H
	mov	rax, QWORD PTR p$[rbp]
	inc	rax
	mov	QWORD PTR p$[rbp], rax
	mov	rax, QWORD PTR p$[rbp]
	mov	BYTE PTR [rax], 116			; 00000074H
	mov	rax, QWORD PTR p$[rbp]
	inc	rax
	mov	QWORD PTR p$[rbp], rax

; 1244 :             WRITE_4((size >> 32) & 0xffffffff);

	mov	rax, QWORD PTR size$3[rbp]
	sar	rax, 32					; 00000020H
	mov	ecx, -1
	and	rax, rcx
	sar	rax, 24
	mov	rcx, QWORD PTR p$[rbp]
	mov	BYTE PTR [rcx], al
	mov	rax, QWORD PTR p$[rbp]
	inc	rax
	mov	QWORD PTR p$[rbp], rax
	mov	rax, QWORD PTR size$3[rbp]
	sar	rax, 32					; 00000020H
	mov	ecx, -1
	and	rax, rcx
	sar	rax, 16
	mov	rcx, QWORD PTR p$[rbp]
	mov	BYTE PTR [rcx], al
	mov	rax, QWORD PTR p$[rbp]
	inc	rax
	mov	QWORD PTR p$[rbp], rax
	mov	rax, QWORD PTR size$3[rbp]
	sar	rax, 32					; 00000020H
	mov	ecx, -1
	and	rax, rcx
	sar	rax, 8
	mov	rcx, QWORD PTR p$[rbp]
	mov	BYTE PTR [rcx], al
	mov	rax, QWORD PTR p$[rbp]
	inc	rax
	mov	QWORD PTR p$[rbp], rax
	mov	rax, QWORD PTR size$3[rbp]
	sar	rax, 32					; 00000020H
	mov	ecx, -1
	and	rax, rcx
	mov	rcx, QWORD PTR p$[rbp]
	mov	BYTE PTR [rcx], al
	mov	rax, QWORD PTR p$[rbp]
	inc	rax
	mov	QWORD PTR p$[rbp], rax

; 1245 :             WRITE_4(size & 0xffffffff);

	mov	eax, -1
	mov	rcx, QWORD PTR size$3[rbp]
	and	rcx, rax
	mov	rax, rcx
	sar	rax, 24
	mov	rcx, QWORD PTR p$[rbp]
	mov	BYTE PTR [rcx], al
	mov	rax, QWORD PTR p$[rbp]
	inc	rax
	mov	QWORD PTR p$[rbp], rax
	mov	eax, -1
	mov	rcx, QWORD PTR size$3[rbp]
	and	rcx, rax
	mov	rax, rcx
	sar	rax, 16
	mov	rcx, QWORD PTR p$[rbp]
	mov	BYTE PTR [rcx], al
	mov	rax, QWORD PTR p$[rbp]
	inc	rax
	mov	QWORD PTR p$[rbp], rax
	mov	eax, -1
	mov	rcx, QWORD PTR size$3[rbp]
	and	rcx, rax
	mov	rax, rcx
	sar	rax, 8
	mov	rcx, QWORD PTR p$[rbp]
	mov	BYTE PTR [rcx], al
	mov	rax, QWORD PTR p$[rbp]
	inc	rax
	mov	QWORD PTR p$[rbp], rax
	mov	eax, -1
	mov	rcx, QWORD PTR size$3[rbp]
	and	rcx, rax
	mov	rax, rcx
	mov	rcx, QWORD PTR p$[rbp]
	mov	BYTE PTR [rcx], al
	mov	rax, QWORD PTR p$[rbp]
	inc	rax
	mov	QWORD PTR p$[rbp], rax

; 1246 :         }

	jmp	$LN72@mp4e_flush
$LN71@mp4e_flush:

; 1247 :         else
; 1248 :         {
; 1249 :             WRITE_4(8);

	mov	rax, QWORD PTR p$[rbp]
	mov	BYTE PTR [rax], 0
	mov	rax, QWORD PTR p$[rbp]
	inc	rax
	mov	QWORD PTR p$[rbp], rax
	mov	rax, QWORD PTR p$[rbp]
	mov	BYTE PTR [rax], 0
	mov	rax, QWORD PTR p$[rbp]
	inc	rax
	mov	QWORD PTR p$[rbp], rax
	mov	rax, QWORD PTR p$[rbp]
	mov	BYTE PTR [rax], 0
	mov	rax, QWORD PTR p$[rbp]
	inc	rax
	mov	QWORD PTR p$[rbp], rax
	mov	rax, QWORD PTR p$[rbp]
	mov	BYTE PTR [rax], 8
	mov	rax, QWORD PTR p$[rbp]
	inc	rax
	mov	QWORD PTR p$[rbp], rax

; 1250 :             WRITE_4(BOX_free);

	mov	rax, QWORD PTR p$[rbp]
	mov	BYTE PTR [rax], 102			; 00000066H
	mov	rax, QWORD PTR p$[rbp]
	inc	rax
	mov	QWORD PTR p$[rbp], rax
	mov	rax, QWORD PTR p$[rbp]
	mov	BYTE PTR [rax], 114			; 00000072H
	mov	rax, QWORD PTR p$[rbp]
	inc	rax
	mov	QWORD PTR p$[rbp], rax
	mov	rax, QWORD PTR p$[rbp]
	mov	BYTE PTR [rax], 101			; 00000065H
	mov	rax, QWORD PTR p$[rbp]
	inc	rax
	mov	QWORD PTR p$[rbp], rax
	mov	rax, QWORD PTR p$[rbp]
	mov	BYTE PTR [rax], 101			; 00000065H
	mov	rax, QWORD PTR p$[rbp]
	inc	rax
	mov	QWORD PTR p$[rbp], rax

; 1251 :             WRITE_4(size - 8);

	mov	rax, QWORD PTR size$3[rbp]
	sub	rax, 8
	sar	rax, 24
	mov	rcx, QWORD PTR p$[rbp]
	mov	BYTE PTR [rcx], al
	mov	rax, QWORD PTR p$[rbp]
	inc	rax
	mov	QWORD PTR p$[rbp], rax
	mov	rax, QWORD PTR size$3[rbp]
	sub	rax, 8
	sar	rax, 16
	mov	rcx, QWORD PTR p$[rbp]
	mov	BYTE PTR [rcx], al
	mov	rax, QWORD PTR p$[rbp]
	inc	rax
	mov	QWORD PTR p$[rbp], rax
	mov	rax, QWORD PTR size$3[rbp]
	sub	rax, 8
	sar	rax, 8
	mov	rcx, QWORD PTR p$[rbp]
	mov	BYTE PTR [rcx], al
	mov	rax, QWORD PTR p$[rbp]
	inc	rax
	mov	QWORD PTR p$[rbp], rax
	mov	rax, QWORD PTR size$3[rbp]
	sub	rax, 8
	mov	rcx, QWORD PTR p$[rbp]
	mov	BYTE PTR [rcx], al
	mov	rax, QWORD PTR p$[rbp]
	inc	rax
	mov	QWORD PTR p$[rbp], rax

; 1252 :             WRITE_4(BOX_mdat);

	mov	rax, QWORD PTR p$[rbp]
	mov	BYTE PTR [rax], 109			; 0000006dH
	mov	rax, QWORD PTR p$[rbp]
	inc	rax
	mov	QWORD PTR p$[rbp], rax
	mov	rax, QWORD PTR p$[rbp]
	mov	BYTE PTR [rax], 100			; 00000064H
	mov	rax, QWORD PTR p$[rbp]
	inc	rax
	mov	QWORD PTR p$[rbp], rax
	mov	rax, QWORD PTR p$[rbp]
	mov	BYTE PTR [rax], 97			; 00000061H
	mov	rax, QWORD PTR p$[rbp]
	inc	rax
	mov	QWORD PTR p$[rbp], rax
	mov	rax, QWORD PTR p$[rbp]
	mov	BYTE PTR [rax], 116			; 00000074H
	mov	rax, QWORD PTR p$[rbp]
	inc	rax
	mov	QWORD PTR p$[rbp], rax
$LN72@mp4e_flush:

; 1253 :         }
; 1254 :         ERR(mux->write_callback(sizeof(box_ftyp), base, p - base, mux->token));

	mov	rax, QWORD PTR base$[rbp]
	mov	rcx, QWORD PTR p$[rbp]
	sub	rcx, rax
	mov	rax, rcx
	mov	rcx, QWORD PTR mux$[rbp]
	mov	r9, QWORD PTR [rcx+32]
	mov	r8, rax
	mov	rdx, QWORD PTR base$[rbp]
	mov	ecx, 24
	mov	rax, QWORD PTR mux$[rbp]
	call	QWORD PTR [rax+24]
	mov	DWORD PTR err$5[rbp], eax
	cmp	DWORD PTR err$5[rbp], 0
	je	SHORT $LN73@mp4e_flush
	mov	eax, DWORD PTR err$5[rbp]
	jmp	$LN1@mp4e_flush
$LN73@mp4e_flush:

; 1255 :         p = base;

	mov	rax, QWORD PTR base$[rbp]
	mov	QWORD PTR p$[rbp], rax
$LN70@mp4e_flush:

; 1256 :     }
; 1257 : 
; 1258 :     // Write index atoms; order taken from Table 1 of [1]
; 1259 : #define MOOV_TIMESCALE 1000
; 1260 :     ATOM(BOX_moov);

	mov	rax, QWORD PTR stack$[rbp]
	mov	rcx, QWORD PTR p$[rbp]
	mov	QWORD PTR [rax], rcx
	mov	rax, QWORD PTR stack$[rbp]
	add	rax, 8
	mov	QWORD PTR stack$[rbp], rax
	mov	rax, QWORD PTR p$[rbp]
	add	rax, 4
	mov	QWORD PTR p$[rbp], rax
	mov	rax, QWORD PTR p$[rbp]
	mov	BYTE PTR [rax], 109			; 0000006dH
	mov	rax, QWORD PTR p$[rbp]
	inc	rax
	mov	QWORD PTR p$[rbp], rax
	mov	rax, QWORD PTR p$[rbp]
	mov	BYTE PTR [rax], 111			; 0000006fH
	mov	rax, QWORD PTR p$[rbp]
	inc	rax
	mov	QWORD PTR p$[rbp], rax
	mov	rax, QWORD PTR p$[rbp]
	mov	BYTE PTR [rax], 111			; 0000006fH
	mov	rax, QWORD PTR p$[rbp]
	inc	rax
	mov	QWORD PTR p$[rbp], rax
	mov	rax, QWORD PTR p$[rbp]
	mov	BYTE PTR [rax], 118			; 00000076H
	mov	rax, QWORD PTR p$[rbp]
	inc	rax
	mov	QWORD PTR p$[rbp], rax

; 1261 :     ATOM_FULL(BOX_mvhd, 0);

	mov	rax, QWORD PTR stack$[rbp]
	mov	rcx, QWORD PTR p$[rbp]
	mov	QWORD PTR [rax], rcx
	mov	rax, QWORD PTR stack$[rbp]
	add	rax, 8
	mov	QWORD PTR stack$[rbp], rax
	mov	rax, QWORD PTR p$[rbp]
	add	rax, 4
	mov	QWORD PTR p$[rbp], rax
	mov	rax, QWORD PTR p$[rbp]
	mov	BYTE PTR [rax], 109			; 0000006dH
	mov	rax, QWORD PTR p$[rbp]
	inc	rax
	mov	QWORD PTR p$[rbp], rax
	mov	rax, QWORD PTR p$[rbp]
	mov	BYTE PTR [rax], 118			; 00000076H
	mov	rax, QWORD PTR p$[rbp]
	inc	rax
	mov	QWORD PTR p$[rbp], rax
	mov	rax, QWORD PTR p$[rbp]
	mov	BYTE PTR [rax], 104			; 00000068H
	mov	rax, QWORD PTR p$[rbp]
	inc	rax
	mov	QWORD PTR p$[rbp], rax
	mov	rax, QWORD PTR p$[rbp]
	mov	BYTE PTR [rax], 100			; 00000064H
	mov	rax, QWORD PTR p$[rbp]
	inc	rax
	mov	QWORD PTR p$[rbp], rax
	mov	rax, QWORD PTR p$[rbp]
	mov	BYTE PTR [rax], 0
	mov	rax, QWORD PTR p$[rbp]
	inc	rax
	mov	QWORD PTR p$[rbp], rax
	mov	rax, QWORD PTR p$[rbp]
	mov	BYTE PTR [rax], 0
	mov	rax, QWORD PTR p$[rbp]
	inc	rax
	mov	QWORD PTR p$[rbp], rax
	mov	rax, QWORD PTR p$[rbp]
	mov	BYTE PTR [rax], 0
	mov	rax, QWORD PTR p$[rbp]
	inc	rax
	mov	QWORD PTR p$[rbp], rax
	mov	rax, QWORD PTR p$[rbp]
	mov	BYTE PTR [rax], 0
	mov	rax, QWORD PTR p$[rbp]
	inc	rax
	mov	QWORD PTR p$[rbp], rax

; 1262 :     WRITE_4(0); // creation_time

	mov	rax, QWORD PTR p$[rbp]
	mov	BYTE PTR [rax], 0
	mov	rax, QWORD PTR p$[rbp]
	inc	rax
	mov	QWORD PTR p$[rbp], rax
	mov	rax, QWORD PTR p$[rbp]
	mov	BYTE PTR [rax], 0
	mov	rax, QWORD PTR p$[rbp]
	inc	rax
	mov	QWORD PTR p$[rbp], rax
	mov	rax, QWORD PTR p$[rbp]
	mov	BYTE PTR [rax], 0
	mov	rax, QWORD PTR p$[rbp]
	inc	rax
	mov	QWORD PTR p$[rbp], rax
	mov	rax, QWORD PTR p$[rbp]
	mov	BYTE PTR [rax], 0
	mov	rax, QWORD PTR p$[rbp]
	inc	rax
	mov	QWORD PTR p$[rbp], rax

; 1263 :     WRITE_4(0); // modification_time

	mov	rax, QWORD PTR p$[rbp]
	mov	BYTE PTR [rax], 0
	mov	rax, QWORD PTR p$[rbp]
	inc	rax
	mov	QWORD PTR p$[rbp], rax
	mov	rax, QWORD PTR p$[rbp]
	mov	BYTE PTR [rax], 0
	mov	rax, QWORD PTR p$[rbp]
	inc	rax
	mov	QWORD PTR p$[rbp], rax
	mov	rax, QWORD PTR p$[rbp]
	mov	BYTE PTR [rax], 0
	mov	rax, QWORD PTR p$[rbp]
	inc	rax
	mov	QWORD PTR p$[rbp], rax
	mov	rax, QWORD PTR p$[rbp]
	mov	BYTE PTR [rax], 0
	mov	rax, QWORD PTR p$[rbp]
	inc	rax
	mov	QWORD PTR p$[rbp], rax

; 1264 : 
; 1265 :     if (ntracks)

	cmp	DWORD PTR ntracks$[rbp], 0
	je	$LN74@mp4e_flush

; 1266 :     {
; 1267 :         track_t* tr = ((track_t*)mux->tracks.data) + 0;    // take 1st track

	mov	rax, QWORD PTR mux$[rbp]
	mov	rax, QWORD PTR [rax]
	mov	QWORD PTR tr$6[rbp], rax

; 1268 :         unsigned duration = get_duration(tr);

	mov	rcx, QWORD PTR tr$6[rbp]
	call	?get_duration@@YAIPEBUtrack_t@@@Z	; get_duration
	mov	DWORD PTR duration$7[rbp], eax

; 1269 :         duration = (unsigned)(duration * 1LL * MOOV_TIMESCALE / tr->info.time_scale);

	mov	eax, DWORD PTR duration$7[rbp]
	imul	rax, rax, 1000				; 000003e8H
	mov	rcx, QWORD PTR tr$6[rbp]
	mov	ecx, DWORD PTR [rcx+12]
	cdq
	idiv	rcx
	mov	DWORD PTR duration$7[rbp], eax

; 1270 :         WRITE_4(MOOV_TIMESCALE); // duration

	mov	rax, QWORD PTR p$[rbp]
	mov	BYTE PTR [rax], 0
	mov	rax, QWORD PTR p$[rbp]
	inc	rax
	mov	QWORD PTR p$[rbp], rax
	mov	rax, QWORD PTR p$[rbp]
	mov	BYTE PTR [rax], 0
	mov	rax, QWORD PTR p$[rbp]
	inc	rax
	mov	QWORD PTR p$[rbp], rax
	mov	rax, QWORD PTR p$[rbp]
	mov	BYTE PTR [rax], 3
	mov	rax, QWORD PTR p$[rbp]
	inc	rax
	mov	QWORD PTR p$[rbp], rax
	mov	rax, QWORD PTR p$[rbp]
	mov	BYTE PTR [rax], 232			; 000000e8H
	mov	rax, QWORD PTR p$[rbp]
	inc	rax
	mov	QWORD PTR p$[rbp], rax

; 1271 :         WRITE_4(duration); // duration

	mov	eax, DWORD PTR duration$7[rbp]
	shr	eax, 24
	mov	rcx, QWORD PTR p$[rbp]
	mov	BYTE PTR [rcx], al
	mov	rax, QWORD PTR p$[rbp]
	inc	rax
	mov	QWORD PTR p$[rbp], rax
	mov	eax, DWORD PTR duration$7[rbp]
	shr	eax, 16
	mov	rcx, QWORD PTR p$[rbp]
	mov	BYTE PTR [rcx], al
	mov	rax, QWORD PTR p$[rbp]
	inc	rax
	mov	QWORD PTR p$[rbp], rax
	mov	eax, DWORD PTR duration$7[rbp]
	shr	eax, 8
	mov	rcx, QWORD PTR p$[rbp]
	mov	BYTE PTR [rcx], al
	mov	rax, QWORD PTR p$[rbp]
	inc	rax
	mov	QWORD PTR p$[rbp], rax
	mov	rax, QWORD PTR p$[rbp]
	movzx	ecx, BYTE PTR duration$7[rbp]
	mov	BYTE PTR [rax], cl
	mov	rax, QWORD PTR p$[rbp]
	inc	rax
	mov	QWORD PTR p$[rbp], rax
$LN74@mp4e_flush:

; 1272 :     }
; 1273 : 
; 1274 :     WRITE_4(0x00010000); // rate

	mov	rax, QWORD PTR p$[rbp]
	mov	BYTE PTR [rax], 0
	mov	rax, QWORD PTR p$[rbp]
	inc	rax
	mov	QWORD PTR p$[rbp], rax
	mov	rax, QWORD PTR p$[rbp]
	mov	BYTE PTR [rax], 1
	mov	rax, QWORD PTR p$[rbp]
	inc	rax
	mov	QWORD PTR p$[rbp], rax
	mov	rax, QWORD PTR p$[rbp]
	mov	BYTE PTR [rax], 0
	mov	rax, QWORD PTR p$[rbp]
	inc	rax
	mov	QWORD PTR p$[rbp], rax
	mov	rax, QWORD PTR p$[rbp]
	mov	BYTE PTR [rax], 0
	mov	rax, QWORD PTR p$[rbp]
	inc	rax
	mov	QWORD PTR p$[rbp], rax

; 1275 :     WRITE_2(0x0100); // volume

	mov	rax, QWORD PTR p$[rbp]
	mov	BYTE PTR [rax], 1
	mov	rax, QWORD PTR p$[rbp]
	inc	rax
	mov	QWORD PTR p$[rbp], rax
	mov	rax, QWORD PTR p$[rbp]
	mov	BYTE PTR [rax], 0
	mov	rax, QWORD PTR p$[rbp]
	inc	rax
	mov	QWORD PTR p$[rbp], rax

; 1276 :     WRITE_2(0); // reserved

	mov	rax, QWORD PTR p$[rbp]
	mov	BYTE PTR [rax], 0
	mov	rax, QWORD PTR p$[rbp]
	inc	rax
	mov	QWORD PTR p$[rbp], rax
	mov	rax, QWORD PTR p$[rbp]
	mov	BYTE PTR [rax], 0
	mov	rax, QWORD PTR p$[rbp]
	inc	rax
	mov	QWORD PTR p$[rbp], rax

; 1277 :     WRITE_4(0); // reserved

	mov	rax, QWORD PTR p$[rbp]
	mov	BYTE PTR [rax], 0
	mov	rax, QWORD PTR p$[rbp]
	inc	rax
	mov	QWORD PTR p$[rbp], rax
	mov	rax, QWORD PTR p$[rbp]
	mov	BYTE PTR [rax], 0
	mov	rax, QWORD PTR p$[rbp]
	inc	rax
	mov	QWORD PTR p$[rbp], rax
	mov	rax, QWORD PTR p$[rbp]
	mov	BYTE PTR [rax], 0
	mov	rax, QWORD PTR p$[rbp]
	inc	rax
	mov	QWORD PTR p$[rbp], rax
	mov	rax, QWORD PTR p$[rbp]
	mov	BYTE PTR [rax], 0
	mov	rax, QWORD PTR p$[rbp]
	inc	rax
	mov	QWORD PTR p$[rbp], rax

; 1278 :     WRITE_4(0); // reserved

	mov	rax, QWORD PTR p$[rbp]
	mov	BYTE PTR [rax], 0
	mov	rax, QWORD PTR p$[rbp]
	inc	rax
	mov	QWORD PTR p$[rbp], rax
	mov	rax, QWORD PTR p$[rbp]
	mov	BYTE PTR [rax], 0
	mov	rax, QWORD PTR p$[rbp]
	inc	rax
	mov	QWORD PTR p$[rbp], rax
	mov	rax, QWORD PTR p$[rbp]
	mov	BYTE PTR [rax], 0
	mov	rax, QWORD PTR p$[rbp]
	inc	rax
	mov	QWORD PTR p$[rbp], rax
	mov	rax, QWORD PTR p$[rbp]
	mov	BYTE PTR [rax], 0
	mov	rax, QWORD PTR p$[rbp]
	inc	rax
	mov	QWORD PTR p$[rbp], rax

; 1279 : 
; 1280 :     // matrix[9]
; 1281 :     WRITE_4(0x00010000); WRITE_4(0); WRITE_4(0);

	mov	rax, QWORD PTR p$[rbp]
	mov	BYTE PTR [rax], 0
	mov	rax, QWORD PTR p$[rbp]
	inc	rax
	mov	QWORD PTR p$[rbp], rax
	mov	rax, QWORD PTR p$[rbp]
	mov	BYTE PTR [rax], 1
	mov	rax, QWORD PTR p$[rbp]
	inc	rax
	mov	QWORD PTR p$[rbp], rax
	mov	rax, QWORD PTR p$[rbp]
	mov	BYTE PTR [rax], 0
	mov	rax, QWORD PTR p$[rbp]
	inc	rax
	mov	QWORD PTR p$[rbp], rax
	mov	rax, QWORD PTR p$[rbp]
	mov	BYTE PTR [rax], 0
	mov	rax, QWORD PTR p$[rbp]
	inc	rax
	mov	QWORD PTR p$[rbp], rax
	mov	rax, QWORD PTR p$[rbp]
	mov	BYTE PTR [rax], 0
	mov	rax, QWORD PTR p$[rbp]
	inc	rax
	mov	QWORD PTR p$[rbp], rax
	mov	rax, QWORD PTR p$[rbp]
	mov	BYTE PTR [rax], 0
	mov	rax, QWORD PTR p$[rbp]
	inc	rax
	mov	QWORD PTR p$[rbp], rax
	mov	rax, QWORD PTR p$[rbp]
	mov	BYTE PTR [rax], 0
	mov	rax, QWORD PTR p$[rbp]
	inc	rax
	mov	QWORD PTR p$[rbp], rax
	mov	rax, QWORD PTR p$[rbp]
	mov	BYTE PTR [rax], 0
	mov	rax, QWORD PTR p$[rbp]
	inc	rax
	mov	QWORD PTR p$[rbp], rax
	mov	rax, QWORD PTR p$[rbp]
	mov	BYTE PTR [rax], 0
	mov	rax, QWORD PTR p$[rbp]
	inc	rax
	mov	QWORD PTR p$[rbp], rax
	mov	rax, QWORD PTR p$[rbp]
	mov	BYTE PTR [rax], 0
	mov	rax, QWORD PTR p$[rbp]
	inc	rax
	mov	QWORD PTR p$[rbp], rax
	mov	rax, QWORD PTR p$[rbp]
	mov	BYTE PTR [rax], 0
	mov	rax, QWORD PTR p$[rbp]
	inc	rax
	mov	QWORD PTR p$[rbp], rax
	mov	rax, QWORD PTR p$[rbp]
	mov	BYTE PTR [rax], 0
	mov	rax, QWORD PTR p$[rbp]
	inc	rax
	mov	QWORD PTR p$[rbp], rax

; 1282 :     WRITE_4(0); WRITE_4(0x00010000); WRITE_4(0);

	mov	rax, QWORD PTR p$[rbp]
	mov	BYTE PTR [rax], 0
	mov	rax, QWORD PTR p$[rbp]
	inc	rax
	mov	QWORD PTR p$[rbp], rax
	mov	rax, QWORD PTR p$[rbp]
	mov	BYTE PTR [rax], 0
	mov	rax, QWORD PTR p$[rbp]
	inc	rax
	mov	QWORD PTR p$[rbp], rax
	mov	rax, QWORD PTR p$[rbp]
	mov	BYTE PTR [rax], 0
	mov	rax, QWORD PTR p$[rbp]
	inc	rax
	mov	QWORD PTR p$[rbp], rax
	mov	rax, QWORD PTR p$[rbp]
	mov	BYTE PTR [rax], 0
	mov	rax, QWORD PTR p$[rbp]
	inc	rax
	mov	QWORD PTR p$[rbp], rax
	mov	rax, QWORD PTR p$[rbp]
	mov	BYTE PTR [rax], 0
	mov	rax, QWORD PTR p$[rbp]
	inc	rax
	mov	QWORD PTR p$[rbp], rax
	mov	rax, QWORD PTR p$[rbp]
	mov	BYTE PTR [rax], 1
	mov	rax, QWORD PTR p$[rbp]
	inc	rax
	mov	QWORD PTR p$[rbp], rax
	mov	rax, QWORD PTR p$[rbp]
	mov	BYTE PTR [rax], 0
	mov	rax, QWORD PTR p$[rbp]
	inc	rax
	mov	QWORD PTR p$[rbp], rax
	mov	rax, QWORD PTR p$[rbp]
	mov	BYTE PTR [rax], 0
	mov	rax, QWORD PTR p$[rbp]
	inc	rax
	mov	QWORD PTR p$[rbp], rax
	mov	rax, QWORD PTR p$[rbp]
	mov	BYTE PTR [rax], 0
	mov	rax, QWORD PTR p$[rbp]
	inc	rax
	mov	QWORD PTR p$[rbp], rax
	mov	rax, QWORD PTR p$[rbp]
	mov	BYTE PTR [rax], 0
	mov	rax, QWORD PTR p$[rbp]
	inc	rax
	mov	QWORD PTR p$[rbp], rax
	mov	rax, QWORD PTR p$[rbp]
	mov	BYTE PTR [rax], 0
	mov	rax, QWORD PTR p$[rbp]
	inc	rax
	mov	QWORD PTR p$[rbp], rax
	mov	rax, QWORD PTR p$[rbp]
	mov	BYTE PTR [rax], 0
	mov	rax, QWORD PTR p$[rbp]
	inc	rax
	mov	QWORD PTR p$[rbp], rax

; 1283 :     WRITE_4(0); WRITE_4(0); WRITE_4(0x40000000);

	mov	rax, QWORD PTR p$[rbp]
	mov	BYTE PTR [rax], 0
	mov	rax, QWORD PTR p$[rbp]
	inc	rax
	mov	QWORD PTR p$[rbp], rax
	mov	rax, QWORD PTR p$[rbp]
	mov	BYTE PTR [rax], 0
	mov	rax, QWORD PTR p$[rbp]
	inc	rax
	mov	QWORD PTR p$[rbp], rax
	mov	rax, QWORD PTR p$[rbp]
	mov	BYTE PTR [rax], 0
	mov	rax, QWORD PTR p$[rbp]
	inc	rax
	mov	QWORD PTR p$[rbp], rax
	mov	rax, QWORD PTR p$[rbp]
	mov	BYTE PTR [rax], 0
	mov	rax, QWORD PTR p$[rbp]
	inc	rax
	mov	QWORD PTR p$[rbp], rax
	mov	rax, QWORD PTR p$[rbp]
	mov	BYTE PTR [rax], 0
	mov	rax, QWORD PTR p$[rbp]
	inc	rax
	mov	QWORD PTR p$[rbp], rax
	mov	rax, QWORD PTR p$[rbp]
	mov	BYTE PTR [rax], 0
	mov	rax, QWORD PTR p$[rbp]
	inc	rax
	mov	QWORD PTR p$[rbp], rax
	mov	rax, QWORD PTR p$[rbp]
	mov	BYTE PTR [rax], 0
	mov	rax, QWORD PTR p$[rbp]
	inc	rax
	mov	QWORD PTR p$[rbp], rax
	mov	rax, QWORD PTR p$[rbp]
	mov	BYTE PTR [rax], 0
	mov	rax, QWORD PTR p$[rbp]
	inc	rax
	mov	QWORD PTR p$[rbp], rax
	mov	rax, QWORD PTR p$[rbp]
	mov	BYTE PTR [rax], 64			; 00000040H
	mov	rax, QWORD PTR p$[rbp]
	inc	rax
	mov	QWORD PTR p$[rbp], rax
	mov	rax, QWORD PTR p$[rbp]
	mov	BYTE PTR [rax], 0
	mov	rax, QWORD PTR p$[rbp]
	inc	rax
	mov	QWORD PTR p$[rbp], rax
	mov	rax, QWORD PTR p$[rbp]
	mov	BYTE PTR [rax], 0
	mov	rax, QWORD PTR p$[rbp]
	inc	rax
	mov	QWORD PTR p$[rbp], rax
	mov	rax, QWORD PTR p$[rbp]
	mov	BYTE PTR [rax], 0
	mov	rax, QWORD PTR p$[rbp]
	inc	rax
	mov	QWORD PTR p$[rbp], rax

; 1284 : 
; 1285 :     // pre_defined[6]
; 1286 :     WRITE_4(0); WRITE_4(0); WRITE_4(0);

	mov	rax, QWORD PTR p$[rbp]
	mov	BYTE PTR [rax], 0
	mov	rax, QWORD PTR p$[rbp]
	inc	rax
	mov	QWORD PTR p$[rbp], rax
	mov	rax, QWORD PTR p$[rbp]
	mov	BYTE PTR [rax], 0
	mov	rax, QWORD PTR p$[rbp]
	inc	rax
	mov	QWORD PTR p$[rbp], rax
	mov	rax, QWORD PTR p$[rbp]
	mov	BYTE PTR [rax], 0
	mov	rax, QWORD PTR p$[rbp]
	inc	rax
	mov	QWORD PTR p$[rbp], rax
	mov	rax, QWORD PTR p$[rbp]
	mov	BYTE PTR [rax], 0
	mov	rax, QWORD PTR p$[rbp]
	inc	rax
	mov	QWORD PTR p$[rbp], rax
	mov	rax, QWORD PTR p$[rbp]
	mov	BYTE PTR [rax], 0
	mov	rax, QWORD PTR p$[rbp]
	inc	rax
	mov	QWORD PTR p$[rbp], rax
	mov	rax, QWORD PTR p$[rbp]
	mov	BYTE PTR [rax], 0
	mov	rax, QWORD PTR p$[rbp]
	inc	rax
	mov	QWORD PTR p$[rbp], rax
	mov	rax, QWORD PTR p$[rbp]
	mov	BYTE PTR [rax], 0
	mov	rax, QWORD PTR p$[rbp]
	inc	rax
	mov	QWORD PTR p$[rbp], rax
	mov	rax, QWORD PTR p$[rbp]
	mov	BYTE PTR [rax], 0
	mov	rax, QWORD PTR p$[rbp]
	inc	rax
	mov	QWORD PTR p$[rbp], rax
	mov	rax, QWORD PTR p$[rbp]
	mov	BYTE PTR [rax], 0
	mov	rax, QWORD PTR p$[rbp]
	inc	rax
	mov	QWORD PTR p$[rbp], rax
	mov	rax, QWORD PTR p$[rbp]
	mov	BYTE PTR [rax], 0
	mov	rax, QWORD PTR p$[rbp]
	inc	rax
	mov	QWORD PTR p$[rbp], rax
	mov	rax, QWORD PTR p$[rbp]
	mov	BYTE PTR [rax], 0
	mov	rax, QWORD PTR p$[rbp]
	inc	rax
	mov	QWORD PTR p$[rbp], rax
	mov	rax, QWORD PTR p$[rbp]
	mov	BYTE PTR [rax], 0
	mov	rax, QWORD PTR p$[rbp]
	inc	rax
	mov	QWORD PTR p$[rbp], rax

; 1287 :     WRITE_4(0); WRITE_4(0); WRITE_4(0);

	mov	rax, QWORD PTR p$[rbp]
	mov	BYTE PTR [rax], 0
	mov	rax, QWORD PTR p$[rbp]
	inc	rax
	mov	QWORD PTR p$[rbp], rax
	mov	rax, QWORD PTR p$[rbp]
	mov	BYTE PTR [rax], 0
	mov	rax, QWORD PTR p$[rbp]
	inc	rax
	mov	QWORD PTR p$[rbp], rax
	mov	rax, QWORD PTR p$[rbp]
	mov	BYTE PTR [rax], 0
	mov	rax, QWORD PTR p$[rbp]
	inc	rax
	mov	QWORD PTR p$[rbp], rax
	mov	rax, QWORD PTR p$[rbp]
	mov	BYTE PTR [rax], 0
	mov	rax, QWORD PTR p$[rbp]
	inc	rax
	mov	QWORD PTR p$[rbp], rax
	mov	rax, QWORD PTR p$[rbp]
	mov	BYTE PTR [rax], 0
	mov	rax, QWORD PTR p$[rbp]
	inc	rax
	mov	QWORD PTR p$[rbp], rax
	mov	rax, QWORD PTR p$[rbp]
	mov	BYTE PTR [rax], 0
	mov	rax, QWORD PTR p$[rbp]
	inc	rax
	mov	QWORD PTR p$[rbp], rax
	mov	rax, QWORD PTR p$[rbp]
	mov	BYTE PTR [rax], 0
	mov	rax, QWORD PTR p$[rbp]
	inc	rax
	mov	QWORD PTR p$[rbp], rax
	mov	rax, QWORD PTR p$[rbp]
	mov	BYTE PTR [rax], 0
	mov	rax, QWORD PTR p$[rbp]
	inc	rax
	mov	QWORD PTR p$[rbp], rax
	mov	rax, QWORD PTR p$[rbp]
	mov	BYTE PTR [rax], 0
	mov	rax, QWORD PTR p$[rbp]
	inc	rax
	mov	QWORD PTR p$[rbp], rax
	mov	rax, QWORD PTR p$[rbp]
	mov	BYTE PTR [rax], 0
	mov	rax, QWORD PTR p$[rbp]
	inc	rax
	mov	QWORD PTR p$[rbp], rax
	mov	rax, QWORD PTR p$[rbp]
	mov	BYTE PTR [rax], 0
	mov	rax, QWORD PTR p$[rbp]
	inc	rax
	mov	QWORD PTR p$[rbp], rax
	mov	rax, QWORD PTR p$[rbp]
	mov	BYTE PTR [rax], 0
	mov	rax, QWORD PTR p$[rbp]
	inc	rax
	mov	QWORD PTR p$[rbp], rax

; 1288 : 
; 1289 :     //next_track_ID is a non-zero integer that indicates a value to use for the track ID of the next track to be
; 1290 :     //added to this presentation. Zero is not a valid track ID value. The value of next_track_ID shall be
; 1291 :     //larger than the largest track-ID in use.
; 1292 :     WRITE_4(ntracks + 1);

	mov	eax, DWORD PTR ntracks$[rbp]
	inc	eax
	shr	eax, 24
	mov	rcx, QWORD PTR p$[rbp]
	mov	BYTE PTR [rcx], al
	mov	rax, QWORD PTR p$[rbp]
	inc	rax
	mov	QWORD PTR p$[rbp], rax
	mov	eax, DWORD PTR ntracks$[rbp]
	inc	eax
	shr	eax, 16
	mov	rcx, QWORD PTR p$[rbp]
	mov	BYTE PTR [rcx], al
	mov	rax, QWORD PTR p$[rbp]
	inc	rax
	mov	QWORD PTR p$[rbp], rax
	mov	eax, DWORD PTR ntracks$[rbp]
	inc	eax
	shr	eax, 8
	mov	rcx, QWORD PTR p$[rbp]
	mov	BYTE PTR [rcx], al
	mov	rax, QWORD PTR p$[rbp]
	inc	rax
	mov	QWORD PTR p$[rbp], rax
	mov	eax, DWORD PTR ntracks$[rbp]
	inc	eax
	mov	rcx, QWORD PTR p$[rbp]
	mov	BYTE PTR [rcx], al
	mov	rax, QWORD PTR p$[rbp]
	inc	rax
	mov	QWORD PTR p$[rbp], rax

; 1293 :     END_ATOM;

	mov	rax, QWORD PTR stack$[rbp]
	sub	rax, 8
	mov	QWORD PTR stack$[rbp], rax
	mov	rax, QWORD PTR stack$[rbp]
	mov	rax, QWORD PTR [rax]
	mov	rcx, QWORD PTR p$[rbp]
	sub	rcx, rax
	mov	rax, rcx
	sar	rax, 24
	mov	ecx, 1
	imul	rcx, rcx, 0
	mov	rdx, QWORD PTR stack$[rbp]
	mov	rdx, QWORD PTR [rdx]
	mov	BYTE PTR [rcx+rdx], al
	mov	rax, QWORD PTR stack$[rbp]
	mov	rax, QWORD PTR [rax]
	mov	rcx, QWORD PTR p$[rbp]
	sub	rcx, rax
	mov	rax, rcx
	sar	rax, 16
	mov	ecx, 1
	imul	rcx, rcx, 1
	mov	rdx, QWORD PTR stack$[rbp]
	mov	rdx, QWORD PTR [rdx]
	mov	BYTE PTR [rcx+rdx], al
	mov	rax, QWORD PTR stack$[rbp]
	mov	rax, QWORD PTR [rax]
	mov	rcx, QWORD PTR p$[rbp]
	sub	rcx, rax
	mov	rax, rcx
	sar	rax, 8
	mov	ecx, 1
	imul	rcx, rcx, 2
	mov	rdx, QWORD PTR stack$[rbp]
	mov	rdx, QWORD PTR [rdx]
	mov	BYTE PTR [rcx+rdx], al
	mov	rax, QWORD PTR stack$[rbp]
	mov	rax, QWORD PTR [rax]
	mov	rcx, QWORD PTR p$[rbp]
	sub	rcx, rax
	mov	rax, rcx
	mov	ecx, 1
	imul	rcx, rcx, 3
	mov	rdx, QWORD PTR stack$[rbp]
	mov	rdx, QWORD PTR [rdx]
	mov	BYTE PTR [rcx+rdx], al

; 1294 : 
; 1295 :     for (ntr = 0; ntr < ntracks; ntr++)

	mov	DWORD PTR ntr$[rbp], 0
	jmp	SHORT $LN7@mp4e_flush
$LN5@mp4e_flush:
	mov	eax, DWORD PTR ntr$[rbp]
	inc	eax
	mov	DWORD PTR ntr$[rbp], eax
$LN7@mp4e_flush:
	mov	eax, DWORD PTR ntracks$[rbp]
	cmp	DWORD PTR ntr$[rbp], eax
	jae	$LN6@mp4e_flush

; 1296 :     {
; 1297 :         track_t* tr = ((track_t*)mux->tracks.data) + ntr;

	mov	eax, DWORD PTR ntr$[rbp]
	imul	rax, rax, 112				; 00000070H
	mov	rcx, QWORD PTR mux$[rbp]
	add	rax, QWORD PTR [rcx]
	mov	QWORD PTR tr$8[rbp], rax

; 1298 :         unsigned duration = get_duration(tr);

	mov	rcx, QWORD PTR tr$8[rbp]
	call	?get_duration@@YAIPEBUtrack_t@@@Z	; get_duration
	mov	DWORD PTR duration$9[rbp], eax

; 1299 :         int samples_count = tr->smpl.bytes / sizeof(sample_t);

	mov	rax, QWORD PTR tr$8[rbp]
	movsxd	rax, DWORD PTR [rax+40]
	xor	edx, edx
	mov	ecx, 24
	div	rcx
	mov	DWORD PTR samples_count$10[rbp], eax

; 1300 :         const sample_t* sample = (const sample_t*)tr->smpl.data;

	mov	rax, QWORD PTR tr$8[rbp]
	mov	rax, QWORD PTR [rax+32]
	mov	QWORD PTR sample$11[rbp], rax

; 1301 :         unsigned handler_type;
; 1302 :         const char* handler_ascii = NULL;

	mov	QWORD PTR handler_ascii$13[rbp], 0

; 1303 : 
; 1304 :         if (mux->enable_fragmentation)

	mov	rax, QWORD PTR mux$[rbp]
	cmp	DWORD PTR [rax+52], 0
	je	SHORT $LN75@mp4e_flush

; 1305 :             samples_count = 0;

	mov	DWORD PTR samples_count$10[rbp], 0
	jmp	SHORT $LN76@mp4e_flush
$LN75@mp4e_flush:

; 1306 :         else if (samples_count <= 0)

	cmp	DWORD PTR samples_count$10[rbp], 0
	jg	SHORT $LN77@mp4e_flush

; 1307 :             continue;   // skip empty track

	jmp	$LN5@mp4e_flush
$LN77@mp4e_flush:
$LN76@mp4e_flush:

; 1308 : 
; 1309 :         switch (tr->info.track_media_kind)

	mov	rax, QWORD PTR tr$8[rbp]
	mov	eax, DWORD PTR [rax+8]
	mov	DWORD PTR tv404[rbp], eax
	cmp	DWORD PTR tv404[rbp], 0
	je	SHORT $LN78@mp4e_flush
	cmp	DWORD PTR tv404[rbp], 1
	je	SHORT $LN79@mp4e_flush
	cmp	DWORD PTR tv404[rbp], 2
	je	SHORT $LN80@mp4e_flush
	jmp	SHORT $LN81@mp4e_flush
$LN78@mp4e_flush:

; 1310 :         {
; 1311 :         case e_audio:
; 1312 :             handler_type = MP4E_HANDLER_TYPE_SOUN;

	mov	DWORD PTR handler_type$12[rbp], 1936684398 ; 736f756eH

; 1313 :             handler_ascii = "SoundHandler";

	lea	rax, OFFSET FLAT:??_C@_0N@PEMJHAML@SoundHandler@
	mov	QWORD PTR handler_ascii$13[rbp], rax

; 1314 :             break;

	jmp	SHORT $LN8@mp4e_flush
$LN79@mp4e_flush:

; 1315 :         case e_video:
; 1316 :             handler_type = MP4E_HANDLER_TYPE_VIDE;

	mov	DWORD PTR handler_type$12[rbp], 1986618469 ; 76696465H

; 1317 :             handler_ascii = "VideoHandler";

	lea	rax, OFFSET FLAT:??_C@_0N@BDBGBIBJ@VideoHandler@
	mov	QWORD PTR handler_ascii$13[rbp], rax

; 1318 :             break;

	jmp	SHORT $LN8@mp4e_flush
$LN80@mp4e_flush:

; 1319 :         case e_private:
; 1320 :             handler_type = MP4E_HANDLER_TYPE_GESM;

	mov	DWORD PTR handler_type$12[rbp], 1734701933 ; 6765736dH

; 1321 :             break;

	jmp	SHORT $LN8@mp4e_flush
$LN81@mp4e_flush:

; 1322 :         default:
; 1323 :             return MP4E_STATUS_BAD_ARGUMENTS;

	mov	eax, -1
	jmp	$LN1@mp4e_flush
$LN8@mp4e_flush:

; 1324 :         }
; 1325 : 
; 1326 :         ATOM(BOX_trak);

	mov	rax, QWORD PTR stack$[rbp]
	mov	rcx, QWORD PTR p$[rbp]
	mov	QWORD PTR [rax], rcx
	mov	rax, QWORD PTR stack$[rbp]
	add	rax, 8
	mov	QWORD PTR stack$[rbp], rax
	mov	rax, QWORD PTR p$[rbp]
	add	rax, 4
	mov	QWORD PTR p$[rbp], rax
	mov	rax, QWORD PTR p$[rbp]
	mov	BYTE PTR [rax], 116			; 00000074H
	mov	rax, QWORD PTR p$[rbp]
	inc	rax
	mov	QWORD PTR p$[rbp], rax
	mov	rax, QWORD PTR p$[rbp]
	mov	BYTE PTR [rax], 114			; 00000072H
	mov	rax, QWORD PTR p$[rbp]
	inc	rax
	mov	QWORD PTR p$[rbp], rax
	mov	rax, QWORD PTR p$[rbp]
	mov	BYTE PTR [rax], 97			; 00000061H
	mov	rax, QWORD PTR p$[rbp]
	inc	rax
	mov	QWORD PTR p$[rbp], rax
	mov	rax, QWORD PTR p$[rbp]
	mov	BYTE PTR [rax], 107			; 0000006bH
	mov	rax, QWORD PTR p$[rbp]
	inc	rax
	mov	QWORD PTR p$[rbp], rax

; 1327 :         ATOM_FULL(BOX_tkhd, 7); // flag: 1=trak enabled; 2=track in movie; 4=track in preview

	mov	rax, QWORD PTR stack$[rbp]
	mov	rcx, QWORD PTR p$[rbp]
	mov	QWORD PTR [rax], rcx
	mov	rax, QWORD PTR stack$[rbp]
	add	rax, 8
	mov	QWORD PTR stack$[rbp], rax
	mov	rax, QWORD PTR p$[rbp]
	add	rax, 4
	mov	QWORD PTR p$[rbp], rax
	mov	rax, QWORD PTR p$[rbp]
	mov	BYTE PTR [rax], 116			; 00000074H
	mov	rax, QWORD PTR p$[rbp]
	inc	rax
	mov	QWORD PTR p$[rbp], rax
	mov	rax, QWORD PTR p$[rbp]
	mov	BYTE PTR [rax], 107			; 0000006bH
	mov	rax, QWORD PTR p$[rbp]
	inc	rax
	mov	QWORD PTR p$[rbp], rax
	mov	rax, QWORD PTR p$[rbp]
	mov	BYTE PTR [rax], 104			; 00000068H
	mov	rax, QWORD PTR p$[rbp]
	inc	rax
	mov	QWORD PTR p$[rbp], rax
	mov	rax, QWORD PTR p$[rbp]
	mov	BYTE PTR [rax], 100			; 00000064H
	mov	rax, QWORD PTR p$[rbp]
	inc	rax
	mov	QWORD PTR p$[rbp], rax
	mov	rax, QWORD PTR p$[rbp]
	mov	BYTE PTR [rax], 0
	mov	rax, QWORD PTR p$[rbp]
	inc	rax
	mov	QWORD PTR p$[rbp], rax
	mov	rax, QWORD PTR p$[rbp]
	mov	BYTE PTR [rax], 0
	mov	rax, QWORD PTR p$[rbp]
	inc	rax
	mov	QWORD PTR p$[rbp], rax
	mov	rax, QWORD PTR p$[rbp]
	mov	BYTE PTR [rax], 0
	mov	rax, QWORD PTR p$[rbp]
	inc	rax
	mov	QWORD PTR p$[rbp], rax
	mov	rax, QWORD PTR p$[rbp]
	mov	BYTE PTR [rax], 7
	mov	rax, QWORD PTR p$[rbp]
	inc	rax
	mov	QWORD PTR p$[rbp], rax

; 1328 :         WRITE_4(0);             // creation_time

	mov	rax, QWORD PTR p$[rbp]
	mov	BYTE PTR [rax], 0
	mov	rax, QWORD PTR p$[rbp]
	inc	rax
	mov	QWORD PTR p$[rbp], rax
	mov	rax, QWORD PTR p$[rbp]
	mov	BYTE PTR [rax], 0
	mov	rax, QWORD PTR p$[rbp]
	inc	rax
	mov	QWORD PTR p$[rbp], rax
	mov	rax, QWORD PTR p$[rbp]
	mov	BYTE PTR [rax], 0
	mov	rax, QWORD PTR p$[rbp]
	inc	rax
	mov	QWORD PTR p$[rbp], rax
	mov	rax, QWORD PTR p$[rbp]
	mov	BYTE PTR [rax], 0
	mov	rax, QWORD PTR p$[rbp]
	inc	rax
	mov	QWORD PTR p$[rbp], rax

; 1329 :         WRITE_4(0);             // modification_time

	mov	rax, QWORD PTR p$[rbp]
	mov	BYTE PTR [rax], 0
	mov	rax, QWORD PTR p$[rbp]
	inc	rax
	mov	QWORD PTR p$[rbp], rax
	mov	rax, QWORD PTR p$[rbp]
	mov	BYTE PTR [rax], 0
	mov	rax, QWORD PTR p$[rbp]
	inc	rax
	mov	QWORD PTR p$[rbp], rax
	mov	rax, QWORD PTR p$[rbp]
	mov	BYTE PTR [rax], 0
	mov	rax, QWORD PTR p$[rbp]
	inc	rax
	mov	QWORD PTR p$[rbp], rax
	mov	rax, QWORD PTR p$[rbp]
	mov	BYTE PTR [rax], 0
	mov	rax, QWORD PTR p$[rbp]
	inc	rax
	mov	QWORD PTR p$[rbp], rax

; 1330 :         WRITE_4(ntr + 1);       // track_ID

	mov	eax, DWORD PTR ntr$[rbp]
	inc	eax
	shr	eax, 24
	mov	rcx, QWORD PTR p$[rbp]
	mov	BYTE PTR [rcx], al
	mov	rax, QWORD PTR p$[rbp]
	inc	rax
	mov	QWORD PTR p$[rbp], rax
	mov	eax, DWORD PTR ntr$[rbp]
	inc	eax
	shr	eax, 16
	mov	rcx, QWORD PTR p$[rbp]
	mov	BYTE PTR [rcx], al
	mov	rax, QWORD PTR p$[rbp]
	inc	rax
	mov	QWORD PTR p$[rbp], rax
	mov	eax, DWORD PTR ntr$[rbp]
	inc	eax
	shr	eax, 8
	mov	rcx, QWORD PTR p$[rbp]
	mov	BYTE PTR [rcx], al
	mov	rax, QWORD PTR p$[rbp]
	inc	rax
	mov	QWORD PTR p$[rbp], rax
	mov	eax, DWORD PTR ntr$[rbp]
	inc	eax
	mov	rcx, QWORD PTR p$[rbp]
	mov	BYTE PTR [rcx], al
	mov	rax, QWORD PTR p$[rbp]
	inc	rax
	mov	QWORD PTR p$[rbp], rax

; 1331 :         WRITE_4(0);             // reserved

	mov	rax, QWORD PTR p$[rbp]
	mov	BYTE PTR [rax], 0
	mov	rax, QWORD PTR p$[rbp]
	inc	rax
	mov	QWORD PTR p$[rbp], rax
	mov	rax, QWORD PTR p$[rbp]
	mov	BYTE PTR [rax], 0
	mov	rax, QWORD PTR p$[rbp]
	inc	rax
	mov	QWORD PTR p$[rbp], rax
	mov	rax, QWORD PTR p$[rbp]
	mov	BYTE PTR [rax], 0
	mov	rax, QWORD PTR p$[rbp]
	inc	rax
	mov	QWORD PTR p$[rbp], rax
	mov	rax, QWORD PTR p$[rbp]
	mov	BYTE PTR [rax], 0
	mov	rax, QWORD PTR p$[rbp]
	inc	rax
	mov	QWORD PTR p$[rbp], rax

; 1332 :         WRITE_4((unsigned)(duration * 1LL * MOOV_TIMESCALE / tr->info.time_scale));

	mov	eax, DWORD PTR duration$9[rbp]
	imul	rax, rax, 1000				; 000003e8H
	mov	rcx, QWORD PTR tr$8[rbp]
	mov	ecx, DWORD PTR [rcx+12]
	cdq
	idiv	rcx
	shr	eax, 24
	mov	rcx, QWORD PTR p$[rbp]
	mov	BYTE PTR [rcx], al
	mov	rax, QWORD PTR p$[rbp]
	inc	rax
	mov	QWORD PTR p$[rbp], rax
	mov	eax, DWORD PTR duration$9[rbp]
	imul	rax, rax, 1000				; 000003e8H
	mov	rcx, QWORD PTR tr$8[rbp]
	mov	ecx, DWORD PTR [rcx+12]
	cdq
	idiv	rcx
	shr	eax, 16
	mov	rcx, QWORD PTR p$[rbp]
	mov	BYTE PTR [rcx], al
	mov	rax, QWORD PTR p$[rbp]
	inc	rax
	mov	QWORD PTR p$[rbp], rax
	mov	eax, DWORD PTR duration$9[rbp]
	imul	rax, rax, 1000				; 000003e8H
	mov	rcx, QWORD PTR tr$8[rbp]
	mov	ecx, DWORD PTR [rcx+12]
	cdq
	idiv	rcx
	shr	eax, 8
	mov	rcx, QWORD PTR p$[rbp]
	mov	BYTE PTR [rcx], al
	mov	rax, QWORD PTR p$[rbp]
	inc	rax
	mov	QWORD PTR p$[rbp], rax
	mov	eax, DWORD PTR duration$9[rbp]
	imul	rax, rax, 1000				; 000003e8H
	mov	rcx, QWORD PTR tr$8[rbp]
	mov	ecx, DWORD PTR [rcx+12]
	cdq
	idiv	rcx
	mov	rcx, QWORD PTR p$[rbp]
	mov	BYTE PTR [rcx], al
	mov	rax, QWORD PTR p$[rbp]
	inc	rax
	mov	QWORD PTR p$[rbp], rax

; 1333 :         WRITE_4(0); WRITE_4(0); // reserved[2]

	mov	rax, QWORD PTR p$[rbp]
	mov	BYTE PTR [rax], 0
	mov	rax, QWORD PTR p$[rbp]
	inc	rax
	mov	QWORD PTR p$[rbp], rax
	mov	rax, QWORD PTR p$[rbp]
	mov	BYTE PTR [rax], 0
	mov	rax, QWORD PTR p$[rbp]
	inc	rax
	mov	QWORD PTR p$[rbp], rax
	mov	rax, QWORD PTR p$[rbp]
	mov	BYTE PTR [rax], 0
	mov	rax, QWORD PTR p$[rbp]
	inc	rax
	mov	QWORD PTR p$[rbp], rax
	mov	rax, QWORD PTR p$[rbp]
	mov	BYTE PTR [rax], 0
	mov	rax, QWORD PTR p$[rbp]
	inc	rax
	mov	QWORD PTR p$[rbp], rax
	mov	rax, QWORD PTR p$[rbp]
	mov	BYTE PTR [rax], 0
	mov	rax, QWORD PTR p$[rbp]
	inc	rax
	mov	QWORD PTR p$[rbp], rax
	mov	rax, QWORD PTR p$[rbp]
	mov	BYTE PTR [rax], 0
	mov	rax, QWORD PTR p$[rbp]
	inc	rax
	mov	QWORD PTR p$[rbp], rax
	mov	rax, QWORD PTR p$[rbp]
	mov	BYTE PTR [rax], 0
	mov	rax, QWORD PTR p$[rbp]
	inc	rax
	mov	QWORD PTR p$[rbp], rax
	mov	rax, QWORD PTR p$[rbp]
	mov	BYTE PTR [rax], 0
	mov	rax, QWORD PTR p$[rbp]
	inc	rax
	mov	QWORD PTR p$[rbp], rax

; 1334 :         WRITE_2(0);             // layer

	mov	rax, QWORD PTR p$[rbp]
	mov	BYTE PTR [rax], 0
	mov	rax, QWORD PTR p$[rbp]
	inc	rax
	mov	QWORD PTR p$[rbp], rax
	mov	rax, QWORD PTR p$[rbp]
	mov	BYTE PTR [rax], 0
	mov	rax, QWORD PTR p$[rbp]
	inc	rax
	mov	QWORD PTR p$[rbp], rax

; 1335 :         WRITE_2(0);             // alternate_group

