; Listing generated by Microsoft (R) Optimizing Compiler Version 19.29.30159.0 

include listing.inc

INCLUDELIB LIBCMT
INCLUDELIB OLDNAMES

PUBLIC	?app@@3PEAU_ChApp_@@EA				; app
PUBLIC	?mainWin@@3PEAU_chwin_@@EA			; mainWin
PUBLIC	?mainCanvas@@3PEAU_ChCanvas_@@EA		; mainCanvas
PUBLIC	?browserCanvas@@3PEAU_ChCanvas_@@EA		; browserCanvas
PUBLIC	?mainWidgetList@@3PEAU_list_@@EA		; mainWidgetList
PUBLIC	?browserWidgetList@@3PEAU_list_@@EA		; browserWidgetList
PUBLIC	?browseList@@3PEAU_list_view_@@EA		; browseList
PUBLIC	?musicIcon@@3PEAU_icon_@@EA			; musicIcon
PUBLIC	?mainMenubar@@3PEAU_menubar_@@EA		; mainMenubar
PUBLIC	?_music_library_drawn@@3DA			; _music_library_drawn
PUBLIC	?selectedFile@@3PEADEA				; selectedFile
PUBLIC	?snd@@3HA					; snd
PUBLIC	?_file@@3HA					; _file
PUBLIC	?_start_player@@3DA				; _start_player
PUBLIC	?soundbuff@@3PEAXEA				; soundbuff
PUBLIC	?filebuff@@3PEAXEA				; filebuff
PUBLIC	?_auto_start@@3DA				; _auto_start
_BSS	SEGMENT
?app@@3PEAU_ChApp_@@EA DQ 01H DUP (?)			; app
?mainWin@@3PEAU_chwin_@@EA DQ 01H DUP (?)		; mainWin
?mainCanvas@@3PEAU_ChCanvas_@@EA DQ 01H DUP (?)		; mainCanvas
?browserCanvas@@3PEAU_ChCanvas_@@EA DQ 01H DUP (?)	; browserCanvas
?mainWidgetList@@3PEAU_list_@@EA DQ 01H DUP (?)		; mainWidgetList
?browserWidgetList@@3PEAU_list_@@EA DQ 01H DUP (?)	; browserWidgetList
?browseList@@3PEAU_list_view_@@EA DQ 01H DUP (?)	; browseList
?musicIcon@@3PEAU_icon_@@EA DQ 01H DUP (?)		; musicIcon
?mainMenubar@@3PEAU_menubar_@@EA DQ 01H DUP (?)		; mainMenubar
?_music_library_drawn@@3DA DB 01H DUP (?)		; _music_library_drawn
	ALIGN	8

?selectedFile@@3PEADEA DQ 01H DUP (?)			; selectedFile
?snd@@3HA DD	01H DUP (?)				; snd
?_file@@3HA DD	01H DUP (?)				; _file
?_start_player@@3DA DB 01H DUP (?)			; _start_player
	ALIGN	8

?soundbuff@@3PEAXEA DQ 01H DUP (?)			; soundbuff
?filebuff@@3PEAXEA DQ 01H DUP (?)			; filebuff
?_auto_start@@3DA DB 01H DUP (?)			; _auto_start
_BSS	ENDS
CONST	SEGMENT
?box_ftyp@@3QBEB DB 00H					; box_ftyp
	DB	00H
	DB	00H
	DB	018H
	DB	066H
	DB	074H
	DB	079H
	DB	070H
	DB	06dH
	DB	070H
	DB	034H
	DB	032H
	DB	00H
	DB	00H
	DB	00H
	DB	00H
	DB	06dH
	DB	070H
	DB	034H
	DB	032H
	DB	069H
	DB	073H
	DB	06fH
	DB	06dH
	ORG $+8
?g_fullbox@?6??MP4D_open@@9@4QBU<unnamed-type-g_fullbox>@?6??1@YAHPEAUMP4D_demux_tag@@P6AH_JPEAX_K2@Z21@Z@B DD 06d646864H ; `MP4D_open'::`7'::g_fullbox
	DD	01H
	DD	01H
	DD	06d766864H
	DD	01H
	DD	00H
	DD	068646c72H
	DD	00H
	DD	00H
	DD	06d657461H
	DD	00H
	DD	00H
	DD	073747473H
	DD	00H
	DD	00H
	DD	063747473H
	DD	00H
	DD	00H
	DD	073747a32H
	DD	00H
	DD	01H
	DD	07374737aH
	DD	00H
	DD	01H
	DD	073747363H
	DD	00H
	DD	01H
	DD	07374636fH
	DD	00H
	DD	01H
	DD	0636f3634H
	DD	00H
	DD	01H
	DD	073747364H
	DD	00H
	DD	00H
	DD	065736473H
	DD	00H
	DD	01H
	ORG $+4
?g_envelope_box@?6??MP4D_open@@9@4QBU<unnamed-type-g_envelope_box>@?6??1@YAHPEAUMP4D_demux_tag@@P6AH_JPEAX_K2@Z21@Z@B DD 065736473H ; `MP4D_open'::`7'::g_envelope_box
	DD	01H
	DD	024242433H
	DD	01H
	DD	024242434H
	DD	01H
	DD	024242435H
	DD	01H
	DD	07472616bH
	DD	00H
	DD	06d6f6f76H
	DD	00H
	DD	06d646961H
	DD	00H
	DD	074726566H
	DD	00H
	DD	06d696e66H
	DD	00H
	DD	064696e66H
	DD	00H
	DD	07374626cH
	DD	00H
	DD	073747364H
	DD	00H
	DD	06d703461H
	DD	00H
	DD	06d703473H
	DD	00H
	DD	06d703476H
	DD	00H
	DD	061766331H
	DD	00H
	DD	068766331H
	DD	00H
	DD	075647461H
	DD	00H
	DD	06d657461H
	DD	00H
	DD	0696c7374H
	DD	00H
CONST	ENDS
PUBLIC	??0Decoder@Jpeg@@QEAA@PEBEIP6APEAXI@ZP6AXPEAX@Z@Z ; Jpeg::Decoder::Decoder
PUBLIC	?GetResult@Decoder@Jpeg@@QEBA?AW4DecodeResult@12@XZ ; Jpeg::Decoder::GetResult
PUBLIC	?GetWidth@Decoder@Jpeg@@QEBAHXZ			; Jpeg::Decoder::GetWidth
PUBLIC	?GetHeight@Decoder@Jpeg@@QEBAHXZ		; Jpeg::Decoder::GetHeight
PUBLIC	?GetImage@Decoder@Jpeg@@QEBAPEAEXZ		; Jpeg::Decoder::GetImage
PUBLIC	?_Clip@Decoder@Jpeg@@AEAAEH@Z			; Jpeg::Decoder::_Clip
PUBLIC	?_RowIDCT@Decoder@Jpeg@@AEAAXPEAH@Z		; Jpeg::Decoder::_RowIDCT
PUBLIC	?_ColIDCT@Decoder@Jpeg@@AEAAXPEBHPEAEH@Z	; Jpeg::Decoder::_ColIDCT
PUBLIC	?_ShowBits@Decoder@Jpeg@@AEAAHH@Z		; Jpeg::Decoder::_ShowBits
PUBLIC	?_SkipBits@Decoder@Jpeg@@AEAAXH@Z		; Jpeg::Decoder::_SkipBits
PUBLIC	?_GetBits@Decoder@Jpeg@@AEAAHH@Z		; Jpeg::Decoder::_GetBits
PUBLIC	?_ByteAlign@Decoder@Jpeg@@AEAAXXZ		; Jpeg::Decoder::_ByteAlign
PUBLIC	?_Skip@Decoder@Jpeg@@AEAAXH@Z			; Jpeg::Decoder::_Skip
PUBLIC	?_Decode16@Decoder@Jpeg@@AEAAGPEBE@Z		; Jpeg::Decoder::_Decode16
PUBLIC	?_DecodeLength@Decoder@Jpeg@@AEAAXXZ		; Jpeg::Decoder::_DecodeLength
PUBLIC	?_SkipMarker@Decoder@Jpeg@@AEAAXXZ		; Jpeg::Decoder::_SkipMarker
PUBLIC	?_DecodeSOF@Decoder@Jpeg@@AEAAXXZ		; Jpeg::Decoder::_DecodeSOF
PUBLIC	?_DecodeDHT@Decoder@Jpeg@@AEAAXXZ		; Jpeg::Decoder::_DecodeDHT
PUBLIC	?_DecodeDQT@Decoder@Jpeg@@AEAAXXZ		; Jpeg::Decoder::_DecodeDQT
PUBLIC	?_DecodeDRI@Decoder@Jpeg@@AEAAXXZ		; Jpeg::Decoder::_DecodeDRI
PUBLIC	?_GetVLC@Decoder@Jpeg@@AEAAHPEAUVlcCode@12@PEAE@Z ; Jpeg::Decoder::_GetVLC
PUBLIC	?_DecodeBlock@Decoder@Jpeg@@AEAAXPEAUComponent@12@PEAE@Z ; Jpeg::Decoder::_DecodeBlock
PUBLIC	?_DecodeScan@Decoder@Jpeg@@AEAAXXZ		; Jpeg::Decoder::_DecodeScan
PUBLIC	?CF@Decoder@Jpeg@@AEAAEH@Z			; Jpeg::Decoder::CF
PUBLIC	?_UpsampleH@Decoder@Jpeg@@AEAAXPEAUComponent@12@@Z ; Jpeg::Decoder::_UpsampleH
PUBLIC	?_UpsampleV@Decoder@Jpeg@@AEAAXPEAUComponent@12@@Z ; Jpeg::Decoder::_UpsampleV
PUBLIC	?_Convert@Decoder@Jpeg@@AEAAXXZ			; Jpeg::Decoder::_Convert
PUBLIC	?_Decode@Decoder@Jpeg@@AEAA?AW4DecodeResult@12@PEBEH@Z ; Jpeg::Decoder::_Decode
PUBLIC	mp4_h26x_write_init
PUBLIC	mp4_h26x_write_close
PUBLIC	mp4_h26x_write_nal
PUBLIC	MP4D_open
PUBLIC	MP4D_frame_offset
PUBLIC	MP4D_close
PUBLIC	MP4D_read_sps
PUBLIC	MP4D_read_pps
PUBLIC	MP4E_open
PUBLIC	MP4E_add_track
PUBLIC	MP4E_put_sample
PUBLIC	MP4E_close
PUBLIC	MP4E_set_dsi
PUBLIC	MP4E_set_vps
PUBLIC	MP4E_set_sps
PUBLIC	MP4E_set_pps
PUBLIC	MP4E_set_text_comment
PUBLIC	?RegisterSound@@YAXXZ				; RegisterSound
PUBLIC	?PlayerThread@@YAXXZ				; PlayerThread
PUBLIC	?WindowHandleMessage@@YAXPEAU_post_event_@@@Z	; WindowHandleMessage
PUBLIC	?AboutClicked@@YAXPEAU_ChWidget_@@PEAU_chwin_@@@Z ; AboutClicked
PUBLIC	?ExitItemClicked@@YAXPEAU_ChWidget_@@PEAU_chwin_@@@Z ; ExitItemClicked
PUBLIC	?DrawWallpaper@@YAXPEAU_ChCanvas_@@PEADHH@Z	; DrawWallpaper
PUBLIC	?UpdateHomeUI@@YAXXZ				; UpdateHomeUI
PUBLIC	?UpdateBrowserUI@@YAXXZ				; UpdateBrowserUI
PUBLIC	?BrowseMenuActionHandler@@YAXPEAU_ChWidget_@@PEAU_chwin_@@@Z ; BrowseMenuActionHandler
PUBLIC	?SelectButtonActionHandler@@YAXPEAU_ChWidget_@@PEAU_chwin_@@@Z ; SelectButtonActionHandler
PUBLIC	?MusicPrepareLibrary@@YAXPEAU_list_view_@@@Z	; MusicPrepareLibrary
PUBLIC	?PlayPauseButtonAction@@YAXPEAU_ChWidget_@@PEAU_chwin_@@@Z ; PlayPauseButtonAction
PUBLIC	?PrepareBrowserUI@@YAXXZ			; PrepareBrowserUI
PUBLIC	?AudioPlayerClose@@YAXPEAU_chwin_@@@Z		; AudioPlayerClose
PUBLIC	main
PUBLIC	??_C@_0N@PEMJHAML@SoundHandler@			; `string'
PUBLIC	??_C@_0N@BDBGBIBJ@VideoHandler@			; `string'
PUBLIC	??_C@_0L@JFMDADFF@?1dev?1sound@			; `string'
PUBLIC	??_C@_0CD@CCPBHJID@Accent?5Player?5v1?40?5for?5XenevaOS@ ; `string'
PUBLIC	??_C@_0M@MDIENNJL@Accent?5v1?40@		; `string'
PUBLIC	??_C@_0BA@IGPHAPNL@Decoder?5error?5?6@		; `string'
PUBLIC	??_C@_0BI@HGBDFOPG@Your?5Music?5library?4?4?4?4?4@ ; `string'
PUBLIC	??_C@_0BJ@PIBNCIDG@Updating?5the?5browsing?5?$AN?6@ ; `string'
PUBLIC	??_C@_06KOGCNNHG@?1music@			; `string'
PUBLIC	??_C@_07DKHLHEMJ@?1MUSIC?1@			; `string'
PUBLIC	??_C@_0BH@GHLPKOEP@Selected?5file?5?9?$DO?5?$CFs?5?$AN?6@ ; `string'
PUBLIC	??_C@_0P@JFAFLHF@_file?5?9?$DO?5?$CFd?5?$AN?6@	; `string'
PUBLIC	??_C@_0BH@KIDONKAP@selected?5File?5?9?$DO?5?$CFs?5?$AN?6@ ; `string'
PUBLIC	??_C@_0BB@KNPGACAJ@?1icons?1music?4bmp@		; `string'
PUBLIC	??_C@_06HJGPBJLE@Select@			; `string'
PUBLIC	??_C@_06NFPPHDMM@Accent@			; `string'
PUBLIC	??_C@_04PBAHLACE@File@				; `string'
PUBLIC	??_C@_04DDFEFHOJ@Help@				; `string'
PUBLIC	??_C@_0P@OJOJALEH@Select?5Song?4?4?4@		; `string'
PUBLIC	??_C@_04LBABLPF@Exit@				; `string'
PUBLIC	??_C@_05BDOHFCKE@About@				; `string'
PUBLIC	??_C@_08CAGLMDLD@Previous@			; `string'
PUBLIC	??_C@_0L@FMOPGOKP@Play?1Pause@			; `string'
PUBLIC	??_C@_04MDFHGMOB@Next@				; `string'
PUBLIC	??_C@_0N@MEOKKLLB@?1musicbk?4jpg@		; `string'
PUBLIC	??_C@_0BB@DKIANJEB@?1icons?1media?4bmp@		; `string'
EXTRN	??2@YAPEAX_K@Z:PROC				; operator new
EXTRN	_KePrint:PROC
EXTRN	_KePauseThread:PROC
EXTRN	_KeProcessSleep:PROC
EXTRN	_KeOpenFile:PROC
EXTRN	_KeReadFile:PROC
EXTRN	_KeWriteFile:PROC
EXTRN	_KeCloseFile:PROC
EXTRN	_KeFileIoControl:PROC
EXTRN	_KeFileStat:PROC
EXTRN	_KeOpenDir:PROC
EXTRN	_KeReadDir:PROC
EXTRN	ChCreateCanvas:PROC
EXTRN	ChAllocateBuffer:PROC
EXTRN	ChDeAllocateBuffer:PROC
EXTRN	ChDrawPixel:PROC
EXTRN	strcpy:PROC
EXTRN	strlen:PROC
EXTRN	strdup:PROC
EXTRN	memset:PROC
EXTRN	memcpy:PROC
EXTRN	memcmp:PROC
EXTRN	memchr:PROC
EXTRN	malloc:PROC
EXTRN	free:PROC
EXTRN	realloc:PROC
EXTRN	abort:PROC
EXTRN	setjmp:PROC
EXTRN	ChFontSetSize:PROC
EXTRN	ChFontDrawText:PROC
EXTRN	ChitralekhaStartApp:PROC
EXTRN	initialize_list:PROC
EXTRN	list_add:PROC
EXTRN	list_remove:PROC
EXTRN	list_get_at:PROC
EXTRN	list_clear_all:PROC
EXTRN	ChCreateWindow:PROC
EXTRN	ChWindowBroadcastIcon:PROC
EXTRN	ChWindowPaint:PROC
EXTRN	ChWindowUpdate:PROC
EXTRN	ChWindowHandleMouse:PROC
EXTRN	ChWindowHandleFocus:PROC
EXTRN	ChWindowAddWidget:PROC
EXTRN	ChGetWindowByHandle:PROC
EXTRN	ChGetPopupWindowByHandle:PROC
EXTRN	ChPopupWindowHandleMouse:PROC
EXTRN	ChWindowCloseWindow:PROC
EXTRN	ChCreateButton:PROC
EXTRN	ChCreatePopupMenu:PROC
EXTRN	ChCreateMenuItem:PROC
EXTRN	ChCreateMenubar:PROC
EXTRN	ChCreateMenubutton:PROC
EXTRN	ChMenubarAddButton:PROC
EXTRN	ChMenuButtonAddMenu:PROC
EXTRN	ChCreateIcon:PROC
EXTRN	ChIconOpen:PROC
EXTRN	ChIconRead:PROC
EXTRN	ChCreateMessageBox:PROC
EXTRN	ChMessageBoxShow:PROC
EXTRN	ChCreateScrollPane:PROC
EXTRN	ChCreateListView:PROC
EXTRN	ChListViewSetScrollpane:PROC
EXTRN	ChListViewAddItem:PROC
EXTRN	ChListViewSetListItemIcon:PROC
EXTRN	ChListViewGetSelectedItem:PROC
EXTRN	_KeMemMap:PROC
EXTRN	_KeMemUnmap:PROC
EXTRN	__ImageBase:BYTE
;	COMDAT pdata
pdata	SEGMENT
$pdata$??0Decoder@Jpeg@@QEAA@PEBEIP6APEAXI@ZP6AXPEAX@Z@Z DD imagerel $LN3
	DD	imagerel $LN3+427
	DD	imagerel $unwind$??0Decoder@Jpeg@@QEAA@PEBEIP6APEAXI@ZP6AXPEAX@Z@Z
pdata	ENDS
;	COMDAT pdata
pdata	SEGMENT
$pdata$?GetResult@Decoder@Jpeg@@QEBA?AW4DecodeResult@12@XZ DD imagerel $LN3
	DD	imagerel $LN3+25
	DD	imagerel $unwind$?GetResult@Decoder@Jpeg@@QEBA?AW4DecodeResult@12@XZ
pdata	ENDS
;	COMDAT pdata
pdata	SEGMENT
$pdata$?GetWidth@Decoder@Jpeg@@QEBAHXZ DD imagerel $LN3
	DD	imagerel $LN3+26
	DD	imagerel $unwind$?GetWidth@Decoder@Jpeg@@QEBAHXZ
pdata	ENDS
;	COMDAT pdata
pdata	SEGMENT
$pdata$?GetHeight@Decoder@Jpeg@@QEBAHXZ DD imagerel $LN3
	DD	imagerel $LN3+26
	DD	imagerel $unwind$?GetHeight@Decoder@Jpeg@@QEBAHXZ
pdata	ENDS
;	COMDAT pdata
pdata	SEGMENT
$pdata$?GetImage@Decoder@Jpeg@@QEBAPEAEXZ DD imagerel $LN5
	DD	imagerel $LN5+72
	DD	imagerel $unwind$?GetImage@Decoder@Jpeg@@QEBAPEAEXZ
pdata	ENDS
;	COMDAT pdata
pdata	SEGMENT
$pdata$?_Clip@Decoder@Jpeg@@AEAAEH@Z DD imagerel $LN7
	DD	imagerel $LN7+73
	DD	imagerel $unwind$?_Clip@Decoder@Jpeg@@AEAAEH@Z
pdata	ENDS
;	COMDAT pdata
pdata	SEGMENT
$pdata$?_RowIDCT@Decoder@Jpeg@@AEAAXPEAH@Z DD imagerel $LN4
	DD	imagerel $LN4+1049
	DD	imagerel $unwind$?_RowIDCT@Decoder@Jpeg@@AEAAXPEAH@Z
pdata	ENDS
;	COMDAT pdata
pdata	SEGMENT
$pdata$?_ColIDCT@Decoder@Jpeg@@AEAAXPEBHPEAEH@Z DD imagerel $LN7
	DD	imagerel $LN7+1262
	DD	imagerel $unwind$?_ColIDCT@Decoder@Jpeg@@AEAAXPEBHPEAEH@Z
pdata	ENDS
;	COMDAT pdata
pdata	SEGMENT
$pdata$?_ShowBits@Decoder@Jpeg@@AEAAHH@Z DD imagerel $LN18
	DD	imagerel $LN18+484
	DD	imagerel $unwind$?_ShowBits@Decoder@Jpeg@@AEAAHH@Z
pdata	ENDS
;	COMDAT pdata
pdata	SEGMENT
$pdata$?_SkipBits@Decoder@Jpeg@@AEAAXH@Z DD imagerel $LN4
	DD	imagerel $LN4+77
	DD	imagerel $unwind$?_SkipBits@Decoder@Jpeg@@AEAAXH@Z
pdata	ENDS
;	COMDAT pdata
pdata	SEGMENT
$pdata$?_GetBits@Decoder@Jpeg@@AEAAHH@Z DD imagerel $LN3
	DD	imagerel $LN3+55
	DD	imagerel $unwind$?_GetBits@Decoder@Jpeg@@AEAAHH@Z
pdata	ENDS
;	COMDAT pdata
pdata	SEGMENT
$pdata$?_ByteAlign@Decoder@Jpeg@@AEAAXXZ DD imagerel $LN3
	DD	imagerel $LN3+44
	DD	imagerel $unwind$?_ByteAlign@Decoder@Jpeg@@AEAAXXZ
pdata	ENDS
;	COMDAT pdata
pdata	SEGMENT
$pdata$?_Skip@Decoder@Jpeg@@AEAAXH@Z DD imagerel $LN4
	DD	imagerel $LN4+101
	DD	imagerel $unwind$?_Skip@Decoder@Jpeg@@AEAAXH@Z
pdata	ENDS
;	COMDAT pdata
pdata	SEGMENT
$pdata$?_Decode16@Decoder@Jpeg@@AEAAGPEBE@Z DD imagerel $LN3
	DD	imagerel $LN3+63
	DD	imagerel $unwind$?_Decode16@Decoder@Jpeg@@AEAAGPEBE@Z
pdata	ENDS
;	COMDAT pdata
pdata	SEGMENT
$pdata$?_DecodeLength@Decoder@Jpeg@@AEAAXXZ DD imagerel $LN11
	DD	imagerel $LN11+124
	DD	imagerel $unwind$?_DecodeLength@Decoder@Jpeg@@AEAAXXZ
pdata	ENDS
;	COMDAT pdata
pdata	SEGMENT
$pdata$?_SkipMarker@Decoder@Jpeg@@AEAAXXZ DD imagerel $LN3
	DD	imagerel $LN3+46
	DD	imagerel $unwind$?_SkipMarker@Decoder@Jpeg@@AEAAXXZ
pdata	ENDS
;	COMDAT pdata
pdata	SEGMENT
$pdata$?_DecodeSOF@Decoder@Jpeg@@AEAAXXZ DD imagerel $LN66
	DD	imagerel $LN66+1595
	DD	imagerel $unwind$?_DecodeSOF@Decoder@Jpeg@@AEAAXXZ
pdata	ENDS
;	COMDAT pdata
pdata	SEGMENT
$pdata$?_DecodeDHT@Decoder@Jpeg@@AEAAXXZ DD imagerel $LN40
	DD	imagerel $LN40+659
	DD	imagerel $unwind$?_DecodeDHT@Decoder@Jpeg@@AEAAXXZ
pdata	ENDS
;	COMDAT pdata
pdata	SEGMENT
$pdata$?_DecodeDQT@Decoder@Jpeg@@AEAAXXZ DD imagerel $LN16
	DD	imagerel $LN16+286
	DD	imagerel $unwind$?_DecodeDQT@Decoder@Jpeg@@AEAAXXZ
pdata	ENDS
;	COMDAT pdata
pdata	SEGMENT
$pdata$?_DecodeDRI@Decoder@Jpeg@@AEAAXXZ DD imagerel $LN7
	DD	imagerel $LN7+104
	DD	imagerel $unwind$?_DecodeDRI@Decoder@Jpeg@@AEAAXXZ
pdata	ENDS
;	COMDAT pdata
pdata	SEGMENT
$pdata$?_GetVLC@Decoder@Jpeg@@AEAAHPEAUVlcCode@12@PEAE@Z DD imagerel $LN7
	DD	imagerel $LN7+223
	DD	imagerel $unwind$?_GetVLC@Decoder@Jpeg@@AEAAHPEAUVlcCode@12@PEAE@Z
pdata	ENDS
;	COMDAT pdata
pdata	SEGMENT
$pdata$?_DecodeBlock@Decoder@Jpeg@@AEAAXPEAUComponent@12@PEAE@Z DD imagerel $LN21
	DD	imagerel $LN21+569
	DD	imagerel $unwind$?_DecodeBlock@Decoder@Jpeg@@AEAAXPEAUComponent@12@PEAE@Z
pdata	ENDS
;	COMDAT pdata
pdata	SEGMENT
$pdata$?_DecodeScan@Decoder@Jpeg@@AEAAXXZ DD imagerel $LN52
	DD	imagerel $LN52+1113
	DD	imagerel $unwind$?_DecodeScan@Decoder@Jpeg@@AEAAXXZ
pdata	ENDS
;	COMDAT pdata
pdata	SEGMENT
$pdata$?CF@Decoder@Jpeg@@AEAAEH@Z DD imagerel $LN3
	DD	imagerel $LN3+45
	DD	imagerel $unwind$?CF@Decoder@Jpeg@@AEAAEH@Z
pdata	ENDS
;	COMDAT pdata
pdata	SEGMENT
$pdata$?_UpsampleH@Decoder@Jpeg@@AEAAXPEAUComponent@12@@Z DD imagerel $LN13
	DD	imagerel $LN13+1095
	DD	imagerel $unwind$?_UpsampleH@Decoder@Jpeg@@AEAAXPEAUComponent@12@@Z
pdata	ENDS
;	COMDAT pdata
pdata	SEGMENT
$pdata$?_UpsampleV@Decoder@Jpeg@@AEAAXPEAUComponent@12@@Z DD imagerel $LN13
	DD	imagerel $LN13+1144
	DD	imagerel $unwind$?_UpsampleV@Decoder@Jpeg@@AEAAXPEAUComponent@12@@Z
pdata	ENDS
;	COMDAT pdata
pdata	SEGMENT
$pdata$?_Convert@Decoder@Jpeg@@AEAAXXZ DD imagerel $LN30
	DD	imagerel $LN30+1158
	DD	imagerel $unwind$?_Convert@Decoder@Jpeg@@AEAAXXZ
pdata	ENDS
;	COMDAT pdata
pdata	SEGMENT
$pdata$?_Decode@Decoder@Jpeg@@AEAA?AW4DecodeResult@12@PEBEH@Z DD imagerel $LN23
	DD	imagerel $LN23+563
	DD	imagerel $unwind$?_Decode@Decoder@Jpeg@@AEAA?AW4DecodeResult@12@PEBEH@Z
pdata	ENDS
;	COMDAT pdata
pdata	SEGMENT
$pdata$mp4_h26x_write_init DD imagerel $LN5
	DD	imagerel $LN5+329
	DD	imagerel $unwind$mp4_h26x_write_init
pdata	ENDS
;	COMDAT pdata
pdata	SEGMENT
$pdata$mp4_h26x_write_close DD imagerel $LN11
	DD	imagerel $LN11+171
	DD	imagerel $unwind$mp4_h26x_write_close
pdata	ENDS
;	COMDAT pdata
pdata	SEGMENT
$pdata$mp4_h26x_write_nal DD imagerel $LN27
	DD	imagerel $LN27+1036
	DD	imagerel $unwind$mp4_h26x_write_nal
pdata	ENDS
;	COMDAT pdata
pdata	SEGMENT
$pdata$MP4D_open DD imagerel $LN243
	DD	imagerel $LN243+9196
	DD	imagerel $unwind$MP4D_open
pdata	ENDS
;	COMDAT pdata
pdata	SEGMENT
$pdata$MP4D_frame_offset DD imagerel $LN9
	DD	imagerel $LN9+269
	DD	imagerel $unwind$MP4D_frame_offset
pdata	ENDS
;	COMDAT pdata
pdata	SEGMENT
$pdata$MP4D_close DD imagerel $LN18
	DD	imagerel $LN18+549
	DD	imagerel $unwind$MP4D_close
pdata	ENDS
;	COMDAT pdata
pdata	SEGMENT
$pdata$MP4D_read_sps DD imagerel $LN3
	DD	imagerel $LN3+63
	DD	imagerel $unwind$MP4D_read_sps
pdata	ENDS
;	COMDAT pdata
pdata	SEGMENT
$pdata$MP4D_read_pps DD imagerel $LN3
	DD	imagerel $LN3+66
	DD	imagerel $unwind$MP4D_read_pps
pdata	ENDS
;	COMDAT pdata
pdata	SEGMENT
$pdata$MP4E_open DD imagerel $LN9
	DD	imagerel $LN9+308
	DD	imagerel $unwind$MP4E_open
pdata	ENDS
;	COMDAT pdata
pdata	SEGMENT
$pdata$MP4E_add_track DD imagerel $LN7
	DD	imagerel $LN7+237
	DD	imagerel $unwind$MP4E_add_track
pdata	ENDS
;	COMDAT pdata
pdata	SEGMENT
$pdata$MP4E_put_sample DD imagerel $LN22
	DD	imagerel $LN22+726
	DD	imagerel $unwind$MP4E_put_sample
pdata	ENDS
;	COMDAT pdata
pdata	SEGMENT
$pdata$MP4E_close DD imagerel $LN9
	DD	imagerel $LN9+248
	DD	imagerel $unwind$MP4E_close
pdata	ENDS
;	COMDAT pdata
pdata	SEGMENT
$pdata$MP4E_set_dsi DD imagerel $LN10
	DD	imagerel $LN10+165
	DD	imagerel $unwind$MP4E_set_dsi
pdata	ENDS
;	COMDAT pdata
pdata	SEGMENT
$pdata$MP4E_set_vps DD imagerel $LN8
	DD	imagerel $LN8+138
	DD	imagerel $unwind$MP4E_set_vps
pdata	ENDS
;	COMDAT pdata
pdata	SEGMENT
$pdata$MP4E_set_sps DD imagerel $LN8
	DD	imagerel $LN8+138
	DD	imagerel $unwind$MP4E_set_sps
pdata	ENDS
;	COMDAT pdata
pdata	SEGMENT
$pdata$MP4E_set_pps DD imagerel $LN8
	DD	imagerel $LN8+138
	DD	imagerel $unwind$MP4E_set_pps
pdata	ENDS
;	COMDAT pdata
pdata	SEGMENT
$pdata$MP4E_set_text_comment DD imagerel $LN7
	DD	imagerel $LN7+108
	DD	imagerel $unwind$MP4E_set_text_comment
pdata	ENDS
;	COMDAT pdata
pdata	SEGMENT
$pdata$?minimp4_vector_init@@YAHPEAUminimp4_vector_t@@H@Z DD imagerel ?minimp4_vector_init@@YAHPEAUminimp4_vector_t@@H@Z
	DD	imagerel ?minimp4_vector_init@@YAHPEAUminimp4_vector_t@@H@Z+120
	DD	imagerel $unwind$?minimp4_vector_init@@YAHPEAUminimp4_vector_t@@H@Z
pdata	ENDS
;	COMDAT pdata
pdata	SEGMENT
$pdata$?minimp4_vector_reset@@YAXPEAUminimp4_vector_t@@@Z DD imagerel ?minimp4_vector_reset@@YAXPEAUminimp4_vector_t@@@Z
	DD	imagerel ?minimp4_vector_reset@@YAXPEAUminimp4_vector_t@@@Z+60
	DD	imagerel $unwind$?minimp4_vector_reset@@YAXPEAUminimp4_vector_t@@@Z
pdata	ENDS
;	COMDAT pdata
pdata	SEGMENT
$pdata$?minimp4_vector_grow@@YAHPEAUminimp4_vector_t@@H@Z DD imagerel ?minimp4_vector_grow@@YAHPEAUminimp4_vector_t@@H@Z
	DD	imagerel ?minimp4_vector_grow@@YAHPEAUminimp4_vector_t@@H@Z+133
	DD	imagerel $unwind$?minimp4_vector_grow@@YAHPEAUminimp4_vector_t@@H@Z
pdata	ENDS
;	COMDAT pdata
pdata	SEGMENT
$pdata$?minimp4_vector_alloc_tail@@YAPEAEPEAUminimp4_vector_t@@H@Z DD imagerel ?minimp4_vector_alloc_tail@@YAPEAEPEAUminimp4_vector_t@@H@Z
	DD	imagerel ?minimp4_vector_alloc_tail@@YAPEAEPEAUminimp4_vector_t@@H@Z+212
	DD	imagerel $unwind$?minimp4_vector_alloc_tail@@YAPEAEPEAUminimp4_vector_t@@H@Z
pdata	ENDS
;	COMDAT pdata
pdata	SEGMENT
$pdata$?minimp4_vector_put@@YAPEAEPEAUminimp4_vector_t@@PEBXH@Z DD imagerel ?minimp4_vector_put@@YAPEAEPEAUminimp4_vector_t@@PEBXH@Z
	DD	imagerel ?minimp4_vector_put@@YAPEAEPEAUminimp4_vector_t@@PEBXH@Z+78
	DD	imagerel $unwind$?minimp4_vector_put@@YAPEAEPEAUminimp4_vector_t@@PEBXH@Z
pdata	ENDS
;	COMDAT pdata
pdata	SEGMENT
$pdata$?append_mem@@YAHPEAUminimp4_vector_t@@PEBXH@Z DD imagerel ?append_mem@@YAHPEAUminimp4_vector_t@@PEBXH@Z
	DD	imagerel ?append_mem@@YAHPEAUminimp4_vector_t@@PEBXH@Z+282
	DD	imagerel $unwind$?append_mem@@YAHPEAUminimp4_vector_t@@PEBXH@Z
pdata	ENDS
;	COMDAT pdata
pdata	SEGMENT
$pdata$?items_count@@YAHPEAUminimp4_vector_t@@@Z DD imagerel ?items_count@@YAHPEAUminimp4_vector_t@@@Z
	DD	imagerel ?items_count@@YAHPEAUminimp4_vector_t@@@Z+124
	DD	imagerel $unwind$?items_count@@YAHPEAUminimp4_vector_t@@@Z
pdata	ENDS
;	COMDAT pdata
pdata	SEGMENT
$pdata$?get_duration@@YAIPEBUtrack_t@@@Z DD imagerel ?get_duration@@YAIPEBUtrack_t@@@Z
	DD	imagerel ?get_duration@@YAIPEBUtrack_t@@@Z+122
	DD	imagerel $unwind$?get_duration@@YAIPEBUtrack_t@@@Z
pdata	ENDS
;	COMDAT pdata
pdata	SEGMENT
$pdata$?write_pending_data@@YAHPEAUMP4E_mux_tag@@PEAUtrack_t@@@Z DD imagerel ?write_pending_data@@YAHPEAUMP4E_mux_tag@@PEAUtrack_t@@@Z
	DD	imagerel ?write_pending_data@@YAHPEAUMP4E_mux_tag@@PEAUtrack_t@@@Z+529
	DD	imagerel $unwind$?write_pending_data@@YAHPEAUMP4E_mux_tag@@PEAUtrack_t@@@Z
pdata	ENDS
;	COMDAT pdata
pdata	SEGMENT
$pdata$?add_sample_descriptor@@YAHPEAUMP4E_mux_tag@@PEAUtrack_t@@HHH@Z DD imagerel ?add_sample_descriptor@@YAHPEAUMP4E_mux_tag@@PEAUtrack_t@@HHH@Z
	DD	imagerel ?add_sample_descriptor@@YAHPEAUMP4E_mux_tag@@PEAUtrack_t@@HHH@Z+179
	DD	imagerel $unwind$?add_sample_descriptor@@YAHPEAUMP4E_mux_tag@@PEAUtrack_t@@HHH@Z
pdata	ENDS
;	COMDAT pdata
pdata	SEGMENT
$pdata$?mp4e_flush_index@@YAHPEAUMP4E_mux_tag@@@Z DD imagerel ?mp4e_flush_index@@YAHPEAUMP4E_mux_tag@@@Z
	DD	imagerel ?mp4e_flush_index@@YAHPEAUMP4E_mux_tag@@@Z+35184
	DD	imagerel $unwind$?mp4e_flush_index@@YAHPEAUMP4E_mux_tag@@@Z
pdata	ENDS
;	COMDAT pdata
pdata	SEGMENT
$pdata$?mp4e_write_fragment_header@@YAHPEAUMP4E_mux_tag@@HHHH@Z DD imagerel ?mp4e_write_fragment_header@@YAHPEAUMP4E_mux_tag@@HHHH@Z
	DD	imagerel ?mp4e_write_fragment_header@@YAHPEAUMP4E_mux_tag@@HHHH@Z+5736
	DD	imagerel $unwind$?mp4e_write_fragment_header@@YAHPEAUMP4E_mux_tag@@HHHH@Z
pdata	ENDS
;	COMDAT pdata
pdata	SEGMENT
$pdata$?mp4e_write_mdat_box@@YAHPEAUMP4E_mux_tag@@I@Z DD imagerel ?mp4e_write_mdat_box@@YAHPEAUMP4E_mux_tag@@I@Z
	DD	imagerel ?mp4e_write_mdat_box@@YAHPEAUMP4E_mux_tag@@I@Z+288
	DD	imagerel $unwind$?mp4e_write_mdat_box@@YAHPEAUMP4E_mux_tag@@I@Z
pdata	ENDS
;	COMDAT pdata
pdata	SEGMENT
$pdata$?od_size_of_size@@YAHH@Z DD imagerel ?od_size_of_size@@YAHH@Z
	DD	imagerel ?od_size_of_size@@YAHH@Z+61
	DD	imagerel $unwind$?od_size_of_size@@YAHH@Z
pdata	ENDS
;	COMDAT pdata
pdata	SEGMENT
$pdata$?show_bits@@YAIPEAUbit_reader_t@@H@Z DD imagerel ?show_bits@@YAIPEAUbit_reader_t@@H@Z
	DD	imagerel ?show_bits@@YAIPEAUbit_reader_t@@H@Z+97
	DD	imagerel $unwind$?show_bits@@YAIPEAUbit_reader_t@@H@Z
pdata	ENDS
;	COMDAT pdata
pdata	SEGMENT
$pdata$?flush_bits@@YAXPEAUbit_reader_t@@H@Z DD imagerel ?flush_bits@@YAXPEAUbit_reader_t@@H@Z
	DD	imagerel ?flush_bits@@YAXPEAUbit_reader_t@@H@Z+214
	DD	imagerel $unwind$?flush_bits@@YAXPEAUbit_reader_t@@H@Z
pdata	ENDS
;	COMDAT pdata
pdata	SEGMENT
$pdata$?get_bits@@YAIPEAUbit_reader_t@@H@Z DD imagerel ?get_bits@@YAIPEAUbit_reader_t@@H@Z
	DD	imagerel ?get_bits@@YAIPEAUbit_reader_t@@H@Z+55
	DD	imagerel $unwind$?get_bits@@YAIPEAUbit_reader_t@@H@Z
pdata	ENDS
;	COMDAT pdata
pdata	SEGMENT
$pdata$?set_pos_bits@@YAXPEAUbit_reader_t@@I@Z DD imagerel ?set_pos_bits@@YAXPEAUbit_reader_t@@I@Z
	DD	imagerel ?set_pos_bits@@YAXPEAUbit_reader_t@@I@Z+141
	DD	imagerel $unwind$?set_pos_bits@@YAXPEAUbit_reader_t@@I@Z
pdata	ENDS
;	COMDAT pdata
pdata	SEGMENT
$pdata$?get_pos_bits@@YAIPEBUbit_reader_t@@@Z DD imagerel ?get_pos_bits@@YAIPEBUbit_reader_t@@@Z
	DD	imagerel ?get_pos_bits@@YAIPEBUbit_reader_t@@@Z+109
	DD	imagerel $unwind$?get_pos_bits@@YAIPEBUbit_reader_t@@@Z
pdata	ENDS
;	COMDAT pdata
pdata	SEGMENT
$pdata$?remaining_bits@@YAHPEBUbit_reader_t@@@Z DD imagerel ?remaining_bits@@YAHPEBUbit_reader_t@@@Z
	DD	imagerel ?remaining_bits@@YAHPEBUbit_reader_t@@@Z+50
	DD	imagerel $unwind$?remaining_bits@@YAHPEBUbit_reader_t@@@Z
pdata	ENDS
;	COMDAT pdata
pdata	SEGMENT
$pdata$?init_bits@@YAXPEAUbit_reader_t@@PEBXI@Z DD imagerel ?init_bits@@YAXPEAUbit_reader_t@@PEBXI@Z
	DD	imagerel ?init_bits@@YAXPEAUbit_reader_t@@PEBXI@Z+64
	DD	imagerel $unwind$?init_bits@@YAXPEAUbit_reader_t@@PEBXI@Z
pdata	ENDS
;	COMDAT pdata
pdata	SEGMENT
$pdata$?ue_bits@@YAHPEAUbit_reader_t@@@Z DD imagerel ?ue_bits@@YAHPEAUbit_reader_t@@@Z
	DD	imagerel ?ue_bits@@YAHPEAUbit_reader_t@@@Z+120
	DD	imagerel $unwind$?ue_bits@@YAHPEAUbit_reader_t@@@Z
pdata	ENDS
;	COMDAT pdata
pdata	SEGMENT
$pdata$?h264e_bs_put_bits@@YAXPEAUbs_t@@II@Z DD imagerel ?h264e_bs_put_bits@@YAXPEAUbs_t@@II@Z
	DD	imagerel ?h264e_bs_put_bits@@YAXPEAUbs_t@@II@Z+343
	DD	imagerel $unwind$?h264e_bs_put_bits@@YAXPEAUbs_t@@II@Z
pdata	ENDS
;	COMDAT pdata
pdata	SEGMENT
$pdata$?h264e_bs_flush@@YAXPEAUbs_t@@@Z DD imagerel ?h264e_bs_flush@@YAXPEAUbs_t@@@Z
	DD	imagerel ?h264e_bs_flush@@YAXPEAUbs_t@@@Z+98
	DD	imagerel $unwind$?h264e_bs_flush@@YAXPEAUbs_t@@@Z
pdata	ENDS
;	COMDAT pdata
pdata	SEGMENT
$pdata$?h264e_bs_get_pos_bits@@YAIPEBUbs_t@@@Z DD imagerel ?h264e_bs_get_pos_bits@@YAIPEBUbs_t@@@Z
	DD	imagerel ?h264e_bs_get_pos_bits@@YAIPEBUbs_t@@@Z+110
	DD	imagerel $unwind$?h264e_bs_get_pos_bits@@YAIPEBUbs_t@@@Z
pdata	ENDS
;	COMDAT pdata
pdata	SEGMENT
$pdata$?h264e_bs_byte_align@@YAIPEAUbs_t@@@Z DD imagerel ?h264e_bs_byte_align@@YAIPEAUbs_t@@@Z
	DD	imagerel ?h264e_bs_byte_align@@YAIPEAUbs_t@@@Z+70
	DD	imagerel $unwind$?h264e_bs_byte_align@@YAIPEAUbs_t@@@Z
pdata	ENDS
;	COMDAT pdata
pdata	SEGMENT
$pdata$?h264e_bs_put_golomb@@YAXPEAUbs_t@@I@Z DD imagerel ?h264e_bs_put_golomb@@YAXPEAUbs_t@@I@Z
	DD	imagerel ?h264e_bs_put_golomb@@YAXPEAUbs_t@@I@Z+88
	DD	imagerel $unwind$?h264e_bs_put_golomb@@YAXPEAUbs_t@@I@Z
pdata	ENDS
;	COMDAT pdata
pdata	SEGMENT
$pdata$?h264e_bs_init_bits@@YAXPEAUbs_t@@PEAX@Z DD imagerel ?h264e_bs_init_bits@@YAXPEAUbs_t@@PEAX@Z
	DD	imagerel ?h264e_bs_init_bits@@YAXPEAUbs_t@@PEAX@Z+73
	DD	imagerel $unwind$?h264e_bs_init_bits@@YAXPEAUbs_t@@PEAX@Z
pdata	ENDS
;	COMDAT pdata
pdata	SEGMENT
$pdata$?find_mem_cache@@YAHQEAPEAXQEAHHPEAXH@Z DD imagerel ?find_mem_cache@@YAHQEAPEAXQEAHHPEAXH@Z
	DD	imagerel ?find_mem_cache@@YAHQEAPEAXQEAHHPEAXH@Z+281
	DD	imagerel $unwind$?find_mem_cache@@YAHQEAPEAXQEAHHPEAXH@Z
pdata	ENDS
;	COMDAT pdata
pdata	SEGMENT
$pdata$?remove_nal_escapes@@YAHPEAEPEBEH@Z DD imagerel ?remove_nal_escapes@@YAHPEAEPEBEH@Z
	DD	imagerel ?remove_nal_escapes@@YAHPEAEPEBEH@Z+245
	DD	imagerel $unwind$?remove_nal_escapes@@YAHPEAEPEBEH@Z
pdata	ENDS
;	COMDAT pdata
pdata	SEGMENT
$pdata$?nal_put_esc@@YAHPEAEPEBEH@Z DD imagerel ?nal_put_esc@@YAHPEAEPEBEH@Z
	DD	imagerel ?nal_put_esc@@YAHPEAEPEBEH@Z+255
	DD	imagerel $unwind$?nal_put_esc@@YAHPEAEPEBEH@Z
pdata	ENDS
;	COMDAT pdata
pdata	SEGMENT
$pdata$?copy_bits@@YAXPEAUbit_reader_t@@PEAUbs_t@@@Z DD imagerel ?copy_bits@@YAXPEAUbit_reader_t@@PEAUbs_t@@@Z
	DD	imagerel ?copy_bits@@YAXPEAUbit_reader_t@@PEAUbs_t@@@Z+200
	DD	imagerel $unwind$?copy_bits@@YAXPEAUbit_reader_t@@PEAUbs_t@@@Z
pdata	ENDS
;	COMDAT pdata
pdata	SEGMENT
$pdata$?change_sps_id@@YAHPEAUbit_reader_t@@PEAUbs_t@@HPEAH@Z DD imagerel ?change_sps_id@@YAHPEAUbit_reader_t@@PEAUbs_t@@HPEAH@Z
	DD	imagerel ?change_sps_id@@YAHPEAUbit_reader_t@@PEAUbs_t@@HPEAH@Z+223
	DD	imagerel $unwind$?change_sps_id@@YAHPEAUbit_reader_t@@PEAUbs_t@@HPEAH@Z
pdata	ENDS
;	COMDAT pdata
pdata	SEGMENT
$pdata$?patch_pps@@YAHPEAUh264_sps_id_patcher_t@@PEAUbit_reader_t@@PEAUbs_t@@HPEAH@Z DD imagerel ?patch_pps@@YAHPEAUh264_sps_id_patcher_t@@PEAUbit_reader_t@@PEAUbs_t@@HPEAH@Z
	DD	imagerel ?patch_pps@@YAHPEAUh264_sps_id_patcher_t@@PEAUbit_reader_t@@PEAUbs_t@@HPEAH@Z+234
	DD	imagerel $unwind$?patch_pps@@YAHPEAUh264_sps_id_patcher_t@@PEAUbit_reader_t@@PEAUbs_t@@HPEAH@Z
pdata	ENDS
;	COMDAT pdata
pdata	SEGMENT
$pdata$?patch_slice_header@@YAXPEAUh264_sps_id_patcher_t@@PEAUbit_reader_t@@PEAUbs_t@@@Z DD imagerel ?patch_slice_header@@YAXPEAUh264_sps_id_patcher_t@@PEAUbit_reader_t@@PEAUbs_t@@@Z
	DD	imagerel ?patch_slice_header@@YAXPEAUh264_sps_id_patcher_t@@PEAUbit_reader_t@@PEAUbs_t@@@Z+169
	DD	imagerel $unwind$?patch_slice_header@@YAXPEAUh264_sps_id_patcher_t@@PEAUbit_reader_t@@PEAUbs_t@@@Z
pdata	ENDS
;	COMDAT pdata
pdata	SEGMENT
$pdata$?transcode_nalu@@YAHPEAUh264_sps_id_patcher_t@@PEBEHPEAE@Z DD imagerel ?transcode_nalu@@YAHPEAUh264_sps_id_patcher_t@@PEBEHPEAE@Z
	DD	imagerel ?transcode_nalu@@YAHPEAUh264_sps_id_patcher_t@@PEBEHPEAE@Z+750
	DD	imagerel $unwind$?transcode_nalu@@YAHPEAUh264_sps_id_patcher_t@@PEBEHPEAE@Z
pdata	ENDS
;	COMDAT pdata
pdata	SEGMENT
$pdata$?find_start_code@@YAPEBEPEBEHPEAH@Z DD imagerel ?find_start_code@@YAPEBEPEBEHPEAH@Z
	DD	imagerel ?find_start_code@@YAPEBEPEBEHPEAH@Z+287
	DD	imagerel $unwind$?find_start_code@@YAPEBEPEBEHPEAH@Z
pdata	ENDS
;	COMDAT pdata
pdata	SEGMENT
$pdata$?find_nal_unit@@YAPEBEPEBEHPEAH@Z DD imagerel ?find_nal_unit@@YAPEBEPEBEHPEAH@Z
	DD	imagerel ?find_nal_unit@@YAPEBEPEBEHPEAH@Z+197
	DD	imagerel $unwind$?find_nal_unit@@YAPEBEPEBEHPEAH@Z
pdata	ENDS
;	COMDAT pdata
pdata	SEGMENT
$pdata$?mp4_h265_write_nal@@YAHPEAUmp4_h26x_writer_tag@@PEBEHI@Z DD imagerel ?mp4_h265_write_nal@@YAHPEAUmp4_h26x_writer_tag@@PEBEHI@Z
	DD	imagerel ?mp4_h265_write_nal@@YAHPEAUmp4_h26x_writer_tag@@PEBEHI@Z+679
	DD	imagerel $unwind$?mp4_h265_write_nal@@YAHPEAUmp4_h26x_writer_tag@@PEBEHI@Z
pdata	ENDS
;	COMDAT pdata
pdata	SEGMENT
$pdata$?minimp4_fgets@@YAHPEAUMP4D_demux_tag@@@Z DD imagerel ?minimp4_fgets@@YAHPEAUMP4D_demux_tag@@@Z
	DD	imagerel ?minimp4_fgets@@YAHPEAUMP4D_demux_tag@@@Z+85
	DD	imagerel $unwind$?minimp4_fgets@@YAHPEAUMP4D_demux_tag@@@Z
pdata	ENDS
;	COMDAT pdata
pdata	SEGMENT
$pdata$?minimp4_read@@YAIPEAUMP4D_demux_tag@@HPEAH@Z DD imagerel ?minimp4_read@@YAIPEAUMP4D_demux_tag@@HPEAH@Z
	DD	imagerel ?minimp4_read@@YAIPEAUMP4D_demux_tag@@HPEAH@Z+196
	DD	imagerel $unwind$?minimp4_read@@YAIPEAUMP4D_demux_tag@@HPEAH@Z
pdata	ENDS
;	COMDAT pdata
pdata	SEGMENT
$pdata$?read_payload@@YAIPEAUMP4D_demux_tag@@IPEA_KPEAH@Z DD imagerel ?read_payload@@YAIPEAUMP4D_demux_tag@@IPEA_KPEAH@Z
	DD	imagerel ?read_payload@@YAIPEAUMP4D_demux_tag@@IPEA_KPEAH@Z+105
	DD	imagerel $unwind$?read_payload@@YAIPEAUMP4D_demux_tag@@IPEA_KPEAH@Z
pdata	ENDS
;	COMDAT pdata
pdata	SEGMENT
$pdata$?my_fseek@@YAXPEAUMP4D_demux_tag@@_KPEAH@Z DD imagerel ?my_fseek@@YAXPEAUMP4D_demux_tag@@_KPEAH@Z
	DD	imagerel ?my_fseek@@YAXPEAUMP4D_demux_tag@@_KPEAH@Z+74
	DD	imagerel $unwind$?my_fseek@@YAXPEAUMP4D_demux_tag@@_KPEAH@Z
pdata	ENDS
;	COMDAT pdata
pdata	SEGMENT
$pdata$?sample_to_chunk@@YAHPEAUMP4D_track_t@@IPEAI@Z DD imagerel ?sample_to_chunk@@YAHPEAUMP4D_track_t@@IPEAI@Z
	DD	imagerel ?sample_to_chunk@@YAHPEAUMP4D_track_t@@IPEAI@Z+199
	DD	imagerel $unwind$?sample_to_chunk@@YAHPEAUMP4D_track_t@@IPEAI@Z
pdata	ENDS
;	COMDAT pdata
pdata	SEGMENT
$pdata$?skip_spspps@@YAHPEBEHH@Z DD imagerel ?skip_spspps@@YAHPEBEHH@Z
	DD	imagerel ?skip_spspps@@YAHPEBEHH@Z+135
	DD	imagerel $unwind$?skip_spspps@@YAHPEBEHH@Z
pdata	ENDS
;	COMDAT pdata
pdata	SEGMENT
$pdata$?MP4D_read_spspps@@YAPEBXPEBUMP4D_demux_tag@@IHHPEAH@Z DD imagerel ?MP4D_read_spspps@@YAPEBXPEBUMP4D_demux_tag@@IHHPEAH@Z
	DD	imagerel ?MP4D_read_spspps@@YAPEBXPEBUMP4D_demux_tag@@IHHPEAH@Z+404
	DD	imagerel $unwind$?MP4D_read_spspps@@YAPEBXPEBUMP4D_demux_tag@@IHHPEAH@Z
pdata	ENDS
;	COMDAT pdata
pdata	SEGMENT
$pdata$?RegisterSound@@YAXXZ DD imagerel $LN3
	DD	imagerel $LN3+94
	DD	imagerel $unwind$?RegisterSound@@YAXXZ
pdata	ENDS
;	COMDAT pdata
pdata	SEGMENT
$pdata$?PlayerThread@@YAXXZ DD imagerel $LN9
	DD	imagerel $LN9+181
	DD	imagerel $unwind$?PlayerThread@@YAXXZ
pdata	ENDS
;	COMDAT pdata
pdata	SEGMENT
$pdata$?WindowHandleMessage@@YAXPEAU_post_event_@@@Z DD imagerel $LN11
	DD	imagerel $LN11+371
	DD	imagerel $unwind$?WindowHandleMessage@@YAXPEAU_post_event_@@@Z
pdata	ENDS
;	COMDAT pdata
pdata	SEGMENT
$pdata$?AboutClicked@@YAXPEAU_ChWidget_@@PEAU_chwin_@@@Z DD imagerel $LN3
	DD	imagerel $LN3+76
	DD	imagerel $unwind$?AboutClicked@@YAXPEAU_ChWidget_@@PEAU_chwin_@@@Z
pdata	ENDS
;	COMDAT pdata
pdata	SEGMENT
$pdata$?ExitItemClicked@@YAXPEAU_ChWidget_@@PEAU_chwin_@@@Z DD imagerel $LN3
	DD	imagerel $LN3+38
	DD	imagerel $unwind$?ExitItemClicked@@YAXPEAU_ChWidget_@@PEAU_chwin_@@@Z
pdata	ENDS
;	COMDAT pdata
pdata	SEGMENT
$pdata$?DrawWallpaper@@YAXPEAU_ChCanvas_@@PEADHH@Z DD imagerel $LN15
	DD	imagerel $LN15+670
	DD	imagerel $unwind$?DrawWallpaper@@YAXPEAU_ChCanvas_@@PEADHH@Z
pdata	ENDS
;	COMDAT pdata
pdata	SEGMENT
$pdata$?UpdateHomeUI@@YAXXZ DD imagerel $LN3
	DD	imagerel $LN3+122
	DD	imagerel $unwind$?UpdateHomeUI@@YAXXZ
pdata	ENDS
;	COMDAT pdata
pdata	SEGMENT
$pdata$?UpdateBrowserUI@@YAXXZ DD imagerel $LN3
	DD	imagerel $LN3+122
	DD	imagerel $unwind$?UpdateBrowserUI@@YAXXZ
pdata	ENDS
;	COMDAT pdata
pdata	SEGMENT
$pdata$?BrowseMenuActionHandler@@YAXPEAU_ChWidget_@@PEAU_chwin_@@@Z DD imagerel $LN5
	DD	imagerel $LN5+283
	DD	imagerel $unwind$?BrowseMenuActionHandler@@YAXPEAU_ChWidget_@@PEAU_chwin_@@@Z
pdata	ENDS
;	COMDAT pdata
pdata	SEGMENT
$pdata$?SelectButtonActionHandler@@YAXPEAU_ChWidget_@@PEAU_chwin_@@@Z DD imagerel $LN4
	DD	imagerel $LN4+89
	DD	imagerel $unwind$?SelectButtonActionHandler@@YAXPEAU_ChWidget_@@PEAU_chwin_@@@Z
pdata	ENDS
;	COMDAT pdata
pdata	SEGMENT
$pdata$?MusicPrepareLibrary@@YAXPEAU_list_view_@@@Z DD imagerel $LN8
	DD	imagerel $LN8+190
	DD	imagerel $unwind$?MusicPrepareLibrary@@YAXPEAU_list_view_@@@Z
pdata	ENDS
;	COMDAT pdata
pdata	SEGMENT
$pdata$?PlayPauseButtonAction@@YAXPEAU_ChWidget_@@PEAU_chwin_@@@Z DD imagerel $LN5
	DD	imagerel $LN5+199
	DD	imagerel $unwind$?PlayPauseButtonAction@@YAXPEAU_ChWidget_@@PEAU_chwin_@@@Z
pdata	ENDS
;	COMDAT pdata
pdata	SEGMENT
$pdata$?PrepareBrowserUI@@YAXXZ DD imagerel $LN3
	DD	imagerel $LN3+393
	DD	imagerel $unwind$?PrepareBrowserUI@@YAXXZ
pdata	ENDS
;	COMDAT pdata
pdata	SEGMENT
$pdata$?AudioPlayerClose@@YAXPEAU_chwin_@@@Z DD imagerel $LN9
	DD	imagerel $LN9+177
	DD	imagerel $unwind$?AudioPlayerClose@@YAXPEAU_chwin_@@@Z
pdata	ENDS
;	COMDAT pdata
pdata	SEGMENT
$pdata$main DD	imagerel $LN7
	DD	imagerel $LN7+1098
	DD	imagerel $unwind$main
pdata	ENDS
;	COMDAT ??_C@_0BB@DKIANJEB@?1icons?1media?4bmp@
CONST	SEGMENT
??_C@_0BB@DKIANJEB@?1icons?1media?4bmp@ DB '/icons/media.bmp', 00H ; `string'
CONST	ENDS
;	COMDAT ??_C@_0N@MEOKKLLB@?1musicbk?4jpg@
CONST	SEGMENT
??_C@_0N@MEOKKLLB@?1musicbk?4jpg@ DB '/musicbk.jpg', 00H ; `string'
CONST	ENDS
;	COMDAT ??_C@_04MDFHGMOB@Next@
CONST	SEGMENT
??_C@_04MDFHGMOB@Next@ DB 'Next', 00H			; `string'
CONST	ENDS
;	COMDAT ??_C@_0L@FMOPGOKP@Play?1Pause@
CONST	SEGMENT
??_C@_0L@FMOPGOKP@Play?1Pause@ DB 'Play/Pause', 00H	; `string'
CONST	ENDS
;	COMDAT ??_C@_08CAGLMDLD@Previous@
CONST	SEGMENT
??_C@_08CAGLMDLD@Previous@ DB 'Previous', 00H		; `string'
CONST	ENDS
;	COMDAT ??_C@_05BDOHFCKE@About@
CONST	SEGMENT
??_C@_05BDOHFCKE@About@ DB 'About', 00H			; `string'
CONST	ENDS
;	COMDAT ??_C@_04LBABLPF@Exit@
CONST	SEGMENT
??_C@_04LBABLPF@Exit@ DB 'Exit', 00H			; `string'
CONST	ENDS
;	COMDAT ??_C@_0P@OJOJALEH@Select?5Song?4?4?4@
CONST	SEGMENT
??_C@_0P@OJOJALEH@Select?5Song?4?4?4@ DB 'Select Song...', 00H ; `string'
CONST	ENDS
;	COMDAT ??_C@_04DDFEFHOJ@Help@
CONST	SEGMENT
??_C@_04DDFEFHOJ@Help@ DB 'Help', 00H			; `string'
CONST	ENDS
;	COMDAT ??_C@_04PBAHLACE@File@
CONST	SEGMENT
??_C@_04PBAHLACE@File@ DB 'File', 00H			; `string'
CONST	ENDS
;	COMDAT ??_C@_06NFPPHDMM@Accent@
CONST	SEGMENT
??_C@_06NFPPHDMM@Accent@ DB 'Accent', 00H		; `string'
CONST	ENDS
;	COMDAT ??_C@_06HJGPBJLE@Select@
CONST	SEGMENT
??_C@_06HJGPBJLE@Select@ DB 'Select', 00H		; `string'
CONST	ENDS
;	COMDAT ??_C@_0BB@KNPGACAJ@?1icons?1music?4bmp@
CONST	SEGMENT
??_C@_0BB@KNPGACAJ@?1icons?1music?4bmp@ DB '/icons/music.bmp', 00H ; `string'
CONST	ENDS
;	COMDAT ??_C@_0BH@KIDONKAP@selected?5File?5?9?$DO?5?$CFs?5?$AN?6@
CONST	SEGMENT
??_C@_0BH@KIDONKAP@selected?5File?5?9?$DO?5?$CFs?5?$AN?6@ DB 'selected Fi'
	DB	'le -> %s ', 0dH, 0aH, 00H			; `string'
CONST	ENDS
;	COMDAT ??_C@_0P@JFAFLHF@_file?5?9?$DO?5?$CFd?5?$AN?6@
CONST	SEGMENT
??_C@_0P@JFAFLHF@_file?5?9?$DO?5?$CFd?5?$AN?6@ DB '_file -> %d ', 0dH, 0aH
	DB	00H						; `string'
CONST	ENDS
;	COMDAT ??_C@_0BH@GHLPKOEP@Selected?5file?5?9?$DO?5?$CFs?5?$AN?6@
CONST	SEGMENT
??_C@_0BH@GHLPKOEP@Selected?5file?5?9?$DO?5?$CFs?5?$AN?6@ DB 'Selected fi'
	DB	'le -> %s ', 0dH, 0aH, 00H			; `string'
CONST	ENDS
;	COMDAT ??_C@_07DKHLHEMJ@?1MUSIC?1@
CONST	SEGMENT
??_C@_07DKHLHEMJ@?1MUSIC?1@ DB '/MUSIC/', 00H		; `string'
CONST	ENDS
;	COMDAT ??_C@_06KOGCNNHG@?1music@
CONST	SEGMENT
??_C@_06KOGCNNHG@?1music@ DB '/music', 00H		; `string'
CONST	ENDS
;	COMDAT ??_C@_0BJ@PIBNCIDG@Updating?5the?5browsing?5?$AN?6@
CONST	SEGMENT
??_C@_0BJ@PIBNCIDG@Updating?5the?5browsing?5?$AN?6@ DB 'Updating the brow'
	DB	'sing ', 0dH, 0aH, 00H			; `string'
CONST	ENDS
;	COMDAT ??_C@_0BI@HGBDFOPG@Your?5Music?5library?4?4?4?4?4@
CONST	SEGMENT
??_C@_0BI@HGBDFOPG@Your?5Music?5library?4?4?4?4?4@ DB 'Your Music library'
	DB	'.....', 00H					; `string'
CONST	ENDS
;	COMDAT ??_C@_0BA@IGPHAPNL@Decoder?5error?5?6@
CONST	SEGMENT
??_C@_0BA@IGPHAPNL@Decoder?5error?5?6@ DB 'Decoder error ', 0aH, 00H ; `string'
CONST	ENDS
;	COMDAT ??_C@_0M@MDIENNJL@Accent?5v1?40@
CONST	SEGMENT
??_C@_0M@MDIENNJL@Accent?5v1?40@ DB 'Accent v1.0', 00H	; `string'
CONST	ENDS
;	COMDAT ??_C@_0CD@CCPBHJID@Accent?5Player?5v1?40?5for?5XenevaOS@
CONST	SEGMENT
??_C@_0CD@CCPBHJID@Accent?5Player?5v1?40?5for?5XenevaOS@ DB 'Accent Playe'
	DB	'r v1.0 for XenevaOS !!', 00H		; `string'
CONST	ENDS
;	COMDAT ??_C@_0L@JFMDADFF@?1dev?1sound@
CONST	SEGMENT
??_C@_0L@JFMDADFF@?1dev?1sound@ DB '/dev/sound', 00H	; `string'
CONST	ENDS
;	COMDAT ??_C@_0N@BDBGBIBJ@VideoHandler@
CONST	SEGMENT
??_C@_0N@BDBGBIBJ@VideoHandler@ DB 'VideoHandler', 00H	; `string'
CONST	ENDS
;	COMDAT ??_C@_0N@PEMJHAML@SoundHandler@
CONST	SEGMENT
??_C@_0N@PEMJHAML@SoundHandler@ DB 'SoundHandler', 00H	; `string'
CONST	ENDS
;	COMDAT xdata
xdata	SEGMENT
$unwind$main DD	045041601H
	DD	01114316H
	DD	0500a0032H
xdata	ENDS
;	COMDAT xdata
xdata	SEGMENT
$unwind$?AudioPlayerClose@@YAXPEAU_chwin_@@@Z DD 025030f01H
	DD	0d20a230fH
	DD	05006H
xdata	ENDS
;	COMDAT xdata
xdata	SEGMENT
$unwind$?PrepareBrowserUI@@YAXXZ DD 035030e01H
	DD	0f209330eH
	DD	05002H
xdata	ENDS
;	COMDAT xdata
xdata	SEGMENT
$unwind$?PlayPauseButtonAction@@YAXPEAU_ChWidget_@@PEAU_chwin_@@@Z DD 025031701H
	DD	0f2122317H
	DD	0500bH
xdata	ENDS
;	COMDAT xdata
xdata	SEGMENT
$unwind$?MusicPrepareLibrary@@YAXPEAU_list_view_@@@Z DD 025031201H
	DD	0f20d2312H
	DD	05006H
xdata	ENDS
;	COMDAT xdata
xdata	SEGMENT
$unwind$?SelectButtonActionHandler@@YAXPEAU_ChWidget_@@PEAU_chwin_@@@Z DD 025031401H
	DD	0d20f2314H
	DD	0500bH
xdata	ENDS
;	COMDAT xdata
xdata	SEGMENT
$unwind$?BrowseMenuActionHandler@@YAXPEAU_ChWidget_@@PEAU_chwin_@@@Z DD 045031701H
	DD	0f2124317H
	DD	0500bH
xdata	ENDS
;	COMDAT xdata
xdata	SEGMENT
$unwind$?UpdateBrowserUI@@YAXXZ DD 045030e01H
	DD	0f209430eH
	DD	05002H
xdata	ENDS
;	COMDAT xdata
xdata	SEGMENT
$unwind$?UpdateHomeUI@@YAXXZ DD 045030e01H
	DD	0f209430eH
	DD	05002H
xdata	ENDS
;	COMDAT xdata
xdata	SEGMENT
$unwind$?DrawWallpaper@@YAXPEAU_ChCanvas_@@PEADHH@Z DD 035042101H
	DD	011c3321H
	DD	05015001eH
xdata	ENDS
;	COMDAT xdata
xdata	SEGMENT
$unwind$?ExitItemClicked@@YAXPEAU_ChWidget_@@PEAU_chwin_@@@Z DD 025031401H
	DD	0b20f2314H
	DD	0500bH
xdata	ENDS
;	COMDAT xdata
xdata	SEGMENT
$unwind$?AboutClicked@@YAXPEAU_ChWidget_@@PEAU_chwin_@@@Z DD 035031701H
	DD	0f2123317H
	DD	0500bH
xdata	ENDS
;	COMDAT xdata
xdata	SEGMENT
$unwind$?WindowHandleMessage@@YAXPEAU_post_event_@@@Z DD 025041201H
	DD	010d2312H
	DD	050060014H
xdata	ENDS
;	COMDAT xdata
xdata	SEGMENT
$unwind$?PlayerThread@@YAXXZ DD 025040e01H
	DD	0109230eH
	DD	050020012H
xdata	ENDS
;	COMDAT xdata
xdata	SEGMENT
$unwind$?RegisterSound@@YAXXZ DD 025040e01H
	DD	0109230eH
	DD	050020012H
xdata	ENDS
;	COMDAT xdata
xdata	SEGMENT
$unwind$?MP4D_read_spspps@@YAPEBXPEBUMP4D_demux_tag@@IHHPEAH@Z DD 025032001H
	DD	0f21b2320H
	DD	05014H
xdata	ENDS
;	COMDAT xdata
xdata	SEGMENT
$unwind$?skip_spspps@@YAHPEBEHH@Z DD 05031601H
	DD	092130316H
	DD	0500fH
xdata	ENDS
;	COMDAT xdata
xdata	SEGMENT
$unwind$?sample_to_chunk@@YAHPEAUMP4D_track_t@@IPEAI@Z DD 05031601H
	DD	092130316H
	DD	0500fH
xdata	ENDS
;	COMDAT xdata
xdata	SEGMENT
$unwind$?my_fseek@@YAXPEAUMP4D_demux_tag@@_KPEAH@Z DD 05031701H
	DD	072140317H
	DD	05010H
xdata	ENDS
;	COMDAT xdata
xdata	SEGMENT
$unwind$?read_payload@@YAIPEAUMP4D_demux_tag@@IPEA_KPEAH@Z DD 025031d01H
	DD	0b218231dH
	DD	05014H
xdata	ENDS
;	COMDAT xdata
xdata	SEGMENT
$unwind$?minimp4_read@@YAIPEAUMP4D_demux_tag@@HPEAH@Z DD 025031801H
	DD	0d2132318H
	DD	0500fH
xdata	ENDS
;	COMDAT xdata
xdata	SEGMENT
$unwind$?minimp4_fgets@@YAHPEAUMP4D_demux_tag@@@Z DD 025030f01H
	DD	0d20a230fH
	DD	05006H
xdata	ENDS
;	COMDAT xdata
xdata	SEGMENT
$unwind$?mp4_h265_write_nal@@YAHPEAUmp4_h26x_writer_tag@@PEBEHI@Z DD 035042101H
	DD	011c3321H
	DD	050150012H
xdata	ENDS
;	COMDAT xdata
xdata	SEGMENT
$unwind$?find_nal_unit@@YAPEBEPEBEHPEAH@Z DD 025031b01H
	DD	0f216231bH
	DD	0500fH
xdata	ENDS
;	COMDAT xdata
xdata	SEGMENT
$unwind$?find_start_code@@YAPEBEPEBEHPEAH@Z DD 025041b01H
	DD	0116231bH
	DD	0500f0012H
xdata	ENDS
;	COMDAT xdata
xdata	SEGMENT
$unwind$?transcode_nalu@@YAHPEAUh264_sps_id_patcher_t@@PEBEHPEAE@Z DD 035042101H
	DD	011c3321H
	DD	050150022H
xdata	ENDS
;	COMDAT xdata
xdata	SEGMENT
$unwind$?patch_slice_header@@YAXPEAUh264_sps_id_patcher_t@@PEAUbit_reader_t@@PEAUbs_t@@@Z DD 025031901H
	DD	0d2142319H
	DD	05010H
xdata	ENDS
;	COMDAT xdata
xdata	SEGMENT
$unwind$?patch_pps@@YAHPEAUh264_sps_id_patcher_t@@PEAUbit_reader_t@@PEAUbs_t@@HPEAH@Z DD 025031e01H
	DD	0d219231eH
	DD	05015H
xdata	ENDS
;	COMDAT xdata
xdata	SEGMENT
$unwind$?change_sps_id@@YAHPEAUbit_reader_t@@PEAUbs_t@@HPEAH@Z DD 025032101H
	DD	0f21c2321H
	DD	05015H
xdata	ENDS
;	COMDAT xdata
xdata	SEGMENT
$unwind$?copy_bits@@YAXPEAUbit_reader_t@@PEAUbs_t@@@Z DD 025031401H
	DD	0d20f2314H
	DD	0500bH
xdata	ENDS
;	COMDAT xdata
xdata	SEGMENT
$unwind$?nal_put_esc@@YAHPEAEPEBEH@Z DD 05031701H
	DD	092140317H
	DD	05010H
xdata	ENDS
;	COMDAT xdata
xdata	SEGMENT
$unwind$?remove_nal_escapes@@YAHPEAEPEBEH@Z DD 05031701H
	DD	092140317H
	DD	05010H
xdata	ENDS
;	COMDAT xdata
xdata	SEGMENT
$unwind$?find_mem_cache@@YAHQEAPEAXQEAHHPEAXH@Z DD 025031e01H
	DD	0d219231eH
	DD	05015H
xdata	ENDS
;	COMDAT xdata
xdata	SEGMENT
$unwind$?h264e_bs_init_bits@@YAXPEAUbs_t@@PEAX@Z DD 05031201H
	DD	0720f0312H
	DD	0500bH
xdata	ENDS
;	COMDAT xdata
xdata	SEGMENT
$unwind$?h264e_bs_put_golomb@@YAXPEAUbs_t@@I@Z DD 025031301H
	DD	0d20e2313H
	DD	0500aH
xdata	ENDS
;	COMDAT xdata
xdata	SEGMENT
$unwind$?h264e_bs_byte_align@@YAIPEAUbs_t@@@Z DD 025030f01H
	DD	0d20a230fH
	DD	05006H
xdata	ENDS
;	COMDAT xdata
xdata	SEGMENT
$unwind$?h264e_bs_get_pos_bits@@YAIPEBUbs_t@@@Z DD 025030f01H
	DD	0d20a230fH
	DD	05006H
xdata	ENDS
;	COMDAT xdata
xdata	SEGMENT
$unwind$?h264e_bs_flush@@YAXPEAUbs_t@@@Z DD 05030d01H
	DD	0720a030dH
	DD	05006H
xdata	ENDS
;	COMDAT xdata
xdata	SEGMENT
$unwind$?h264e_bs_put_bits@@YAXPEAUbs_t@@II@Z DD 025031801H
	DD	0d2132318H
	DD	0500fH
xdata	ENDS
;	COMDAT xdata
xdata	SEGMENT
$unwind$?ue_bits@@YAHPEAUbit_reader_t@@@Z DD 025030f01H
	DD	0d20a230fH
	DD	05006H
xdata	ENDS
;	COMDAT xdata
xdata	SEGMENT
$unwind$?init_bits@@YAXPEAUbit_reader_t@@PEBXI@Z DD 025031901H
	DD	0b2142319H
	DD	05010H
xdata	ENDS
;	COMDAT xdata
xdata	SEGMENT
$unwind$?remaining_bits@@YAHPEBUbit_reader_t@@@Z DD 025030f01H
	DD	0d20a230fH
	DD	05006H
xdata	ENDS
;	COMDAT xdata
xdata	SEGMENT
$unwind$?get_pos_bits@@YAIPEBUbit_reader_t@@@Z DD 025030f01H
	DD	0d20a230fH
	DD	05006H
xdata	ENDS
;	COMDAT xdata
xdata	SEGMENT
$unwind$?set_pos_bits@@YAXPEAUbit_reader_t@@I@Z DD 025031301H
	DD	0d20e2313H
	DD	0500aH
xdata	ENDS
;	COMDAT xdata
xdata	SEGMENT
$unwind$?get_bits@@YAIPEAUbit_reader_t@@H@Z DD 025031301H
	DD	0d20e2313H
	DD	0500aH
xdata	ENDS
;	COMDAT xdata
xdata	SEGMENT
$unwind$?flush_bits@@YAXPEAUbit_reader_t@@H@Z DD 025031301H
	DD	0d20e2313H
	DD	0500aH
xdata	ENDS
;	COMDAT xdata
xdata	SEGMENT
$unwind$?show_bits@@YAIPEAUbit_reader_t@@H@Z DD 025031301H
	DD	0d20e2313H
	DD	0500aH
xdata	ENDS
;	COMDAT xdata
xdata	SEGMENT
$unwind$?od_size_of_size@@YAHH@Z DD 05030c01H
	DD	09209030cH
	DD	05005H
xdata	ENDS
;	COMDAT xdata
xdata	SEGMENT
$unwind$?mp4e_write_mdat_box@@YAHPEAUMP4E_mux_tag@@I@Z DD 025031601H
	DD	0f2112316H
	DD	0500aH
xdata	ENDS
;	COMDAT xdata
xdata	SEGMENT
$unwind$?mp4e_write_fragment_header@@YAHPEAUMP4E_mux_tag@@HHHH@Z DD 025042001H
	DD	011b2320H
	DD	0501400a8H
xdata	ENDS
;	COMDAT xdata
xdata	SEGMENT
$unwind$?mp4e_flush_index@@YAHPEAUMP4E_mux_tag@@@Z DD 025041201H
	DD	010d2312H
	DD	05006003cH
xdata	ENDS
;	COMDAT xdata
xdata	SEGMENT
$unwind$?add_sample_descriptor@@YAHPEAUMP4E_mux_tag@@PEAUtrack_t@@HHH@Z DD 025032101H
	DD	0f21c2321H
	DD	05015H
xdata	ENDS
;	COMDAT xdata
xdata	SEGMENT
$unwind$?write_pending_data@@YAHPEAUMP4E_mux_tag@@PEAUtrack_t@@@Z DD 025031701H
	DD	0f2122317H
	DD	0500bH
xdata	ENDS
;	COMDAT xdata
xdata	SEGMENT
$unwind$?get_duration@@YAIPEBUtrack_t@@@Z DD 05030d01H
	DD	0b20a030dH
	DD	05006H
xdata	ENDS
;	COMDAT xdata
xdata	SEGMENT
$unwind$?items_count@@YAHPEAUminimp4_vector_t@@@Z DD 05030d01H
	DD	0b20a030dH
	DD	05006H
xdata	ENDS
;	COMDAT xdata
xdata	SEGMENT
$unwind$?append_mem@@YAHPEAUminimp4_vector_t@@PEBXH@Z DD 025031c01H
	DD	0f217231cH
	DD	05010H
xdata	ENDS
;	COMDAT xdata
xdata	SEGMENT
$unwind$?minimp4_vector_put@@YAPEAEPEAUminimp4_vector_t@@PEBXH@Z DD 025031901H
	DD	0d2142319H
	DD	05010H
xdata	ENDS
;	COMDAT xdata
xdata	SEGMENT
$unwind$?minimp4_vector_alloc_tail@@YAPEAEPEAUminimp4_vector_t@@H@Z DD 025031301H
	DD	0d20e2313H
	DD	0500aH
xdata	ENDS
;	COMDAT xdata
xdata	SEGMENT
$unwind$?minimp4_vector_grow@@YAHPEAUminimp4_vector_t@@H@Z DD 025031301H
	DD	0d20e2313H
	DD	0500aH
xdata	ENDS
;	COMDAT xdata
xdata	SEGMENT
$unwind$?minimp4_vector_reset@@YAXPEAUminimp4_vector_t@@@Z DD 025030f01H
	DD	0b20a230fH
	DD	05006H
xdata	ENDS
;	COMDAT xdata
xdata	SEGMENT
$unwind$?minimp4_vector_init@@YAHPEAUminimp4_vector_t@@H@Z DD 025031301H
	DD	0d20e2313H
	DD	0500aH
xdata	ENDS
;	COMDAT xdata
xdata	SEGMENT
$unwind$MP4E_set_text_comment DD 025031401H
	DD	0b20f2314H
	DD	0500bH
xdata	ENDS
;	COMDAT xdata
xdata	SEGMENT
$unwind$MP4E_set_pps DD 025031d01H
	DD	0d218231dH
	DD	05014H
xdata	ENDS
;	COMDAT xdata
xdata	SEGMENT
$unwind$MP4E_set_sps DD 025031d01H
	DD	0d218231dH
	DD	05014H
xdata	ENDS
;	COMDAT xdata
xdata	SEGMENT
$unwind$MP4E_set_vps DD 025031d01H
	DD	0d218231dH
	DD	05014H
xdata	ENDS
;	COMDAT xdata
xdata	SEGMENT
$unwind$MP4E_set_dsi DD 025031d01H
	DD	0d218231dH
	DD	05014H
xdata	ENDS
;	COMDAT xdata
xdata	SEGMENT
$unwind$MP4E_close DD 025031201H
	DD	0f20d2312H
	DD	05006H
xdata	ENDS
;	COMDAT xdata
xdata	SEGMENT
$unwind$MP4E_put_sample DD 035042001H
	DD	011b3320H
	DD	050140014H
xdata	ENDS
;	COMDAT xdata
xdata	SEGMENT
$unwind$MP4E_add_track DD 025031401H
	DD	0d20f2314H
	DD	0500bH
xdata	ENDS
;	COMDAT xdata
xdata	SEGMENT
$unwind$MP4E_open DD 025031c01H
	DD	0d217231cH
	DD	05013H
xdata	ENDS
;	COMDAT xdata
xdata	SEGMENT
$unwind$MP4D_read_pps DD 035031d01H
	DD	0d218331dH
	DD	05014H
xdata	ENDS
;	COMDAT xdata
xdata	SEGMENT
$unwind$MP4D_read_sps DD 035031d01H
	DD	0d218331dH
	DD	05014H
xdata	ENDS
;	COMDAT xdata
xdata	SEGMENT
$unwind$MP4D_close DD 025030f01H
	DD	0d20a230fH
	DD	05006H
xdata	ENDS
;	COMDAT xdata
xdata	SEGMENT
$unwind$MP4D_frame_offset DD 025032001H
	DD	0f21b2320H
	DD	05014H
xdata	ENDS
;	COMDAT xdata
xdata	SEGMENT
$unwind$MP4D_open DD 025042101H
	DD	011c2321H
	DD	0501500ccH
xdata	ENDS
;	COMDAT xdata
xdata	SEGMENT
$unwind$mp4_h26x_write_nal DD 035042101H
	DD	011c3321H
	DD	05015001aH
xdata	ENDS
;	COMDAT xdata
xdata	SEGMENT
$unwind$mp4_h26x_write_close DD 025030f01H
	DD	0d20a230fH
	DD	05006H
xdata	ENDS
;	COMDAT xdata
xdata	SEGMENT
$unwind$mp4_h26x_write_init DD 025042101H
	DD	011c2321H
	DD	050150012H
xdata	ENDS
;	COMDAT xdata
xdata	SEGMENT
$unwind$?_Decode@Decoder@Jpeg@@AEAA?AW4DecodeResult@12@PEBEH@Z DD 025031901H
	DD	0d2142319H
	DD	05010H
xdata	ENDS
;	COMDAT xdata
xdata	SEGMENT
$unwind$?_Convert@Decoder@Jpeg@@AEAAXXZ DD 025041201H
	DD	010d2312H
	DD	050060018H
xdata	ENDS
;	COMDAT xdata
xdata	SEGMENT
$unwind$?_UpsampleV@Decoder@Jpeg@@AEAAXPEAUComponent@12@@Z DD 025041701H
	DD	01122317H
	DD	0500b0012H
xdata	ENDS
;	COMDAT xdata
xdata	SEGMENT
$unwind$?_UpsampleH@Decoder@Jpeg@@AEAAXPEAUComponent@12@@Z DD 025041701H
	DD	01122317H
	DD	0500b0012H
xdata	ENDS
;	COMDAT xdata
xdata	SEGMENT
$unwind$?CF@Decoder@Jpeg@@AEAAEH@Z DD 025031301H
	DD	0b20e2313H
	DD	0500aH
xdata	ENDS
;	COMDAT xdata
xdata	SEGMENT
$unwind$?_DecodeScan@Decoder@Jpeg@@AEAAXXZ DD 025041201H
	DD	010d2312H
	DD	050060012H
xdata	ENDS
;	COMDAT xdata
xdata	SEGMENT
$unwind$?_DecodeBlock@Decoder@Jpeg@@AEAAXPEAUComponent@12@PEAE@Z DD 025031901H
	DD	0d2142319H
	DD	05010H
xdata	ENDS
;	COMDAT xdata
xdata	SEGMENT
$unwind$?_GetVLC@Decoder@Jpeg@@AEAAHPEAUVlcCode@12@PEAE@Z DD 025031901H
	DD	0d2142319H
	DD	05010H
xdata	ENDS
;	COMDAT xdata
xdata	SEGMENT
$unwind$?_DecodeDRI@Decoder@Jpeg@@AEAAXXZ DD 025030f01H
	DD	0b20a230fH
	DD	05006H
xdata	ENDS
;	COMDAT xdata
xdata	SEGMENT
$unwind$?_DecodeDQT@Decoder@Jpeg@@AEAAXXZ DD 025031201H
	DD	0f20d2312H
	DD	05006H
xdata	ENDS
;	COMDAT xdata
xdata	SEGMENT
$unwind$?_DecodeDHT@Decoder@Jpeg@@AEAAXXZ DD 025041201H
	DD	010d2312H
	DD	050060014H
xdata	ENDS
;	COMDAT xdata
xdata	SEGMENT
$unwind$?_DecodeSOF@Decoder@Jpeg@@AEAAXXZ DD 025041201H
	DD	010d2312H
	DD	050060012H
xdata	ENDS
;	COMDAT xdata
xdata	SEGMENT
$unwind$?_SkipMarker@Decoder@Jpeg@@AEAAXXZ DD 025030f01H
	DD	0b20a230fH
	DD	05006H
xdata	ENDS
;	COMDAT xdata
xdata	SEGMENT
$unwind$?_DecodeLength@Decoder@Jpeg@@AEAAXXZ DD 025030f01H
	DD	0b20a230fH
	DD	05006H
xdata	ENDS
;	COMDAT xdata
xdata	SEGMENT
$unwind$?_Decode16@Decoder@Jpeg@@AEAAGPEBE@Z DD 05031201H
	DD	0720f0312H
	DD	0500bH
xdata	ENDS
;	COMDAT xdata
xdata	SEGMENT
$unwind$?_Skip@Decoder@Jpeg@@AEAAXH@Z DD 05031101H
	DD	0720e0311H
	DD	0500aH
xdata	ENDS
;	COMDAT xdata
xdata	SEGMENT
$unwind$?_ByteAlign@Decoder@Jpeg@@AEAAXXZ DD 05030d01H
	DD	0720a030dH
	DD	05006H
xdata	ENDS
;	COMDAT xdata
xdata	SEGMENT
$unwind$?_GetBits@Decoder@Jpeg@@AEAAHH@Z DD 025031301H
	DD	0d20e2313H
	DD	0500aH
xdata	ENDS
;	COMDAT xdata
xdata	SEGMENT
$unwind$?_SkipBits@Decoder@Jpeg@@AEAAXH@Z DD 025031301H
	DD	0b20e2313H
	DD	0500aH
xdata	ENDS
;	COMDAT xdata
xdata	SEGMENT
$unwind$?_ShowBits@Decoder@Jpeg@@AEAAHH@Z DD 05031101H
	DD	0920e0311H
	DD	0500aH
xdata	ENDS
;	COMDAT xdata
xdata	SEGMENT
$unwind$?_ColIDCT@Decoder@Jpeg@@AEAAXPEBHPEAEH@Z DD 025042101H
	DD	011c2321H
	DD	050150012H
xdata	ENDS
;	COMDAT xdata
xdata	SEGMENT
$unwind$?_RowIDCT@Decoder@Jpeg@@AEAAXPEAH@Z DD 05031201H
	DD	0d20f0312H
	DD	0500bH
xdata	ENDS
;	COMDAT xdata
xdata	SEGMENT
$unwind$?_Clip@Decoder@Jpeg@@AEAAEH@Z DD 05031101H
	DD	0920e0311H
	DD	0500aH
xdata	ENDS
;	COMDAT xdata
xdata	SEGMENT
$unwind$?GetImage@Decoder@Jpeg@@QEBAPEAEXZ DD 05030d01H
	DD	0920a030dH
	DD	05006H
xdata	ENDS
;	COMDAT xdata
xdata	SEGMENT
$unwind$?GetHeight@Decoder@Jpeg@@QEBAHXZ DD 05030d01H
	DD	0720a030dH
	DD	05006H
xdata	ENDS
;	COMDAT xdata
xdata	SEGMENT
$unwind$?GetWidth@Decoder@Jpeg@@QEBAHXZ DD 05030d01H
	DD	0720a030dH
	DD	05006H
xdata	ENDS
;	COMDAT xdata
xdata	SEGMENT
$unwind$?GetResult@Decoder@Jpeg@@QEBA?AW4DecodeResult@12@XZ DD 05030d01H
	DD	0720a030dH
	DD	05006H
xdata	ENDS
;	COMDAT xdata
xdata	SEGMENT
$unwind$??0Decoder@Jpeg@@QEAA@PEBEIP6APEAXI@ZP6AXPEAX@Z@Z DD 025042101H
	DD	011c2321H
	DD	050150014H
xdata	ENDS
; Function compile flags: /Odtp /ZI
; File C:\Users\paras\source\repos\grep-name\XenevaOS\Process\AudioPlayer\main.cpp
;	COMDAT main
_TEXT	SEGMENT
file$ = 0
edit$ = 8
pm$ = 16
browse$ = 24
item$ = 32
help$ = 40
about$ = 48
prevbutt$ = 56
playbutt$ = 64
nextbutt$ = 72
e$ = 80
err$1 = 256
tv170 = 324
argc$ = 352
argv$ = 360
main	PROC						; COMDAT

; 351  : int main(int argc, char* argv[]){

$LN7:
	mov	QWORD PTR [rsp+16], rdx
	mov	DWORD PTR [rsp+8], ecx
	push	rbp
	sub	rsp, 400				; 00000190H
	lea	rbp, QWORD PTR [rsp+64]

; 352  : 
; 353  : 	app = ChitralekhaStartApp(argc, argv);

	mov	rdx, QWORD PTR argv$[rbp]
	mov	ecx, DWORD PTR argc$[rbp]
	call	ChitralekhaStartApp
	mov	QWORD PTR ?app@@3PEAU_ChApp_@@EA, rax	; app

; 354  : 	mainWin = ChCreateWindow(app, WINDOW_FLAG_MOVABLE, "Accent", 100, 100, CHITRALEKHA_DEFAULT_WIN_WIDTH, 

	mov	DWORD PTR [rsp+48], 500			; 000001f4H
	mov	DWORD PTR [rsp+40], 400			; 00000190H
	mov	DWORD PTR [rsp+32], 100			; 00000064H
	mov	r9d, 100				; 00000064H
	lea	r8, OFFSET FLAT:??_C@_06NFPPHDMM@Accent@
	mov	dx, 1
	mov	rcx, QWORD PTR ?app@@3PEAU_ChApp_@@EA	; app
	call	ChCreateWindow
	mov	QWORD PTR ?mainWin@@3PEAU_chwin_@@EA, rax ; mainWin

; 355  : 		500);
; 356  : 
; 357  : 	_music_library_drawn = false;

	mov	BYTE PTR ?_music_library_drawn@@3DA, 0	; _music_library_drawn

; 358  : 	_start_player = false;

	mov	BYTE PTR ?_start_player@@3DA, 0		; _start_player

; 359  : 	selectedFile = NULL;

	mov	QWORD PTR ?selectedFile@@3PEADEA, 0	; selectedFile

; 360  : 
; 361  : 	if (argc > 1) {

	cmp	DWORD PTR argc$[rbp], 1
	jle	SHORT $LN4@main

; 362  : 		selectedFile = argv[1];

	mov	eax, 8
	imul	rax, rax, 1
	mov	rcx, QWORD PTR argv$[rbp]
	mov	rax, QWORD PTR [rcx+rax]
	mov	QWORD PTR ?selectedFile@@3PEADEA, rax	; selectedFile

; 363  : 		_auto_start = true;

	mov	BYTE PTR ?_auto_start@@3DA, 1		; _auto_start

; 364  : 		_file = _KeOpenFile(selectedFile, FILE_OPEN_READ_ONLY);

	mov	edx, 2
	mov	rcx, QWORD PTR ?selectedFile@@3PEADEA	; selectedFile
	call	_KeOpenFile
	mov	DWORD PTR ?_file@@3HA, eax		; _file

; 365  : 		_start_player = true;

	mov	BYTE PTR ?_start_player@@3DA, 1		; _start_player
$LN4@main:

; 366  : 	}
; 367  : 	
; 368  : 	mainWin->ChCloseWin = AudioPlayerClose;

	mov	rax, QWORD PTR ?mainWin@@3PEAU_chwin_@@EA ; mainWin
	lea	rcx, OFFSET FLAT:?AudioPlayerClose@@YAXPEAU_chwin_@@@Z ; AudioPlayerClose
	mov	QWORD PTR [rax+216], rcx

; 369  : 
; 370  : 	mainMenubar = ChCreateMenubar(mainWin);

	mov	rcx, QWORD PTR ?mainWin@@3PEAU_chwin_@@EA ; mainWin
	call	ChCreateMenubar
	mov	QWORD PTR ?mainMenubar@@3PEAU_menubar_@@EA, rax ; mainMenubar

; 371  : 
; 372  : 	ChMenuButton *file = ChCreateMenubutton(mainMenubar, "File");

	lea	rdx, OFFSET FLAT:??_C@_04PBAHLACE@File@
	mov	rcx, QWORD PTR ?mainMenubar@@3PEAU_menubar_@@EA ; mainMenubar
	call	ChCreateMenubutton
	mov	QWORD PTR file$[rbp], rax

; 373  : 	ChMenubarAddButton(mainMenubar, file);

	mov	rdx, QWORD PTR file$[rbp]
	mov	rcx, QWORD PTR ?mainMenubar@@3PEAU_menubar_@@EA ; mainMenubar
	call	ChMenubarAddButton

; 374  : 	ChMenuButton *edit = ChCreateMenubutton(mainMenubar, "Help");

	lea	rdx, OFFSET FLAT:??_C@_04DDFEFHOJ@Help@
	mov	rcx, QWORD PTR ?mainMenubar@@3PEAU_menubar_@@EA ; mainMenubar
	call	ChCreateMenubutton
	mov	QWORD PTR edit$[rbp], rax

; 375  : 	ChMenubarAddButton(mainMenubar, edit);

	mov	rdx, QWORD PTR edit$[rbp]
	mov	rcx, QWORD PTR ?mainMenubar@@3PEAU_menubar_@@EA ; mainMenubar
	call	ChMenubarAddButton

; 376  : 
; 377  : 	ChPopupMenu* pm = ChCreatePopupMenu(mainWin,NULL);

	xor	edx, edx
	mov	rcx, QWORD PTR ?mainWin@@3PEAU_chwin_@@EA ; mainWin
	call	ChCreatePopupMenu
	mov	QWORD PTR pm$[rbp], rax

; 378  : 	ChMenuItem* browse = ChCreateMenuItem("Select Song...", pm);

	mov	rdx, QWORD PTR pm$[rbp]
	lea	rcx, OFFSET FLAT:??_C@_0P@OJOJALEH@Select?5Song?4?4?4@
	call	ChCreateMenuItem
	mov	QWORD PTR browse$[rbp], rax

; 379  : 	browse->wid.ChActionHandler = BrowseMenuActionHandler;

	mov	rax, QWORD PTR browse$[rbp]
	lea	rcx, OFFSET FLAT:?BrowseMenuActionHandler@@YAXPEAU_ChWidget_@@PEAU_chwin_@@@Z ; BrowseMenuActionHandler
	mov	QWORD PTR [rax+32], rcx

; 380  : 	ChMenuItem* item = ChCreateMenuItem("Exit", pm);

	mov	rdx, QWORD PTR pm$[rbp]
	lea	rcx, OFFSET FLAT:??_C@_04LBABLPF@Exit@
	call	ChCreateMenuItem
	mov	QWORD PTR item$[rbp], rax

; 381  : 	item->wid.ChActionHandler = ExitItemClicked;

	mov	rax, QWORD PTR item$[rbp]
	lea	rcx, OFFSET FLAT:?ExitItemClicked@@YAXPEAU_ChWidget_@@PEAU_chwin_@@@Z ; ExitItemClicked
	mov	QWORD PTR [rax+32], rcx

; 382  : 	ChMenuButtonAddMenu(file, pm);

	mov	rdx, QWORD PTR pm$[rbp]
	mov	rcx, QWORD PTR file$[rbp]
	call	ChMenuButtonAddMenu

; 383  : 
; 384  : 	ChPopupMenu* help = ChCreatePopupMenu(mainWin, NULL);

	xor	edx, edx
	mov	rcx, QWORD PTR ?mainWin@@3PEAU_chwin_@@EA ; mainWin
	call	ChCreatePopupMenu
	mov	QWORD PTR help$[rbp], rax

; 385  : 	ChMenuItem* about = ChCreateMenuItem("About", help);

	mov	rdx, QWORD PTR help$[rbp]
	lea	rcx, OFFSET FLAT:??_C@_05BDOHFCKE@About@
	call	ChCreateMenuItem
	mov	QWORD PTR about$[rbp], rax

; 386  : 	about->wid.ChActionHandler = AboutClicked;

	mov	rax, QWORD PTR about$[rbp]
	lea	rcx, OFFSET FLAT:?AboutClicked@@YAXPEAU_ChWidget_@@PEAU_chwin_@@@Z ; AboutClicked
	mov	QWORD PTR [rax+32], rcx

; 387  : 	ChMenuButtonAddMenu(edit, help);

	mov	rdx, QWORD PTR help$[rbp]
	mov	rcx, QWORD PTR edit$[rbp]
	call	ChMenuButtonAddMenu

; 388  : 
; 389  : 	ChWindowAddWidget(mainWin, (ChWidget*)mainMenubar);

	mov	rdx, QWORD PTR ?mainMenubar@@3PEAU_menubar_@@EA ; mainMenubar
	mov	rcx, QWORD PTR ?mainWin@@3PEAU_chwin_@@EA ; mainWin
	call	ChWindowAddWidget

; 390  : 
; 391  : 	
; 392  : 	ChButton *prevbutt = ChCreateButton(10, mainWin->info->height - 100, 100,65, "Previous");

	mov	rax, QWORD PTR ?mainWin@@3PEAU_chwin_@@EA ; mainWin
	mov	rax, QWORD PTR [rax+40]
	mov	eax, DWORD PTR [rax+4116]
	sub	eax, 100				; 00000064H
	lea	rcx, OFFSET FLAT:??_C@_08CAGLMDLD@Previous@
	mov	QWORD PTR [rsp+32], rcx
	mov	r9d, 65					; 00000041H
	mov	r8d, 100				; 00000064H
	mov	edx, eax
	mov	ecx, 10
	call	ChCreateButton
	mov	QWORD PTR prevbutt$[rbp], rax

; 393  : 	ChWindowAddWidget(mainWin, (ChWidget*)prevbutt);

	mov	rdx, QWORD PTR prevbutt$[rbp]
	mov	rcx, QWORD PTR ?mainWin@@3PEAU_chwin_@@EA ; mainWin
	call	ChWindowAddWidget

; 394  : 
; 395  : 	ChButton *playbutt = ChCreateButton(mainWin->info->width / 2 - 140/2, mainWin->info->height - 100, 140, 65, "Play/Pause");

	mov	rax, QWORD PTR ?mainWin@@3PEAU_chwin_@@EA ; mainWin
	mov	rax, QWORD PTR [rax+40]
	mov	eax, DWORD PTR [rax+4116]
	sub	eax, 100				; 00000064H
	mov	DWORD PTR tv170[rbp], eax
	mov	rcx, QWORD PTR ?mainWin@@3PEAU_chwin_@@EA ; mainWin
	mov	rcx, QWORD PTR [rcx+40]
	mov	eax, DWORD PTR [rcx+4112]
	cdq
	sub	eax, edx
	sar	eax, 1
	sub	eax, 70					; 00000046H
	lea	rcx, OFFSET FLAT:??_C@_0L@FMOPGOKP@Play?1Pause@
	mov	QWORD PTR [rsp+32], rcx
	mov	r9d, 65					; 00000041H
	mov	r8d, 140				; 0000008cH
	mov	ecx, DWORD PTR tv170[rbp]
	mov	edx, ecx
	mov	ecx, eax
	call	ChCreateButton
	mov	QWORD PTR playbutt$[rbp], rax

; 396  : 	playbutt->base.ChActionHandler = PlayPauseButtonAction;

	mov	rax, QWORD PTR playbutt$[rbp]
	lea	rcx, OFFSET FLAT:?PlayPauseButtonAction@@YAXPEAU_ChWidget_@@PEAU_chwin_@@@Z ; PlayPauseButtonAction
	mov	QWORD PTR [rax+32], rcx

; 397  : 	ChWindowAddWidget(mainWin, (ChWidget*)playbutt);

	mov	rdx, QWORD PTR playbutt$[rbp]
	mov	rcx, QWORD PTR ?mainWin@@3PEAU_chwin_@@EA ; mainWin
	call	ChWindowAddWidget

; 398  : 
; 399  : 	ChButton *nextbutt = ChCreateButton((playbutt->base.x + playbutt->base.w) + 18, mainWin->info->height - 100, 100, 65, "Next");

	mov	rax, QWORD PTR ?mainWin@@3PEAU_chwin_@@EA ; mainWin
	mov	rax, QWORD PTR [rax+40]
	mov	eax, DWORD PTR [rax+4116]
	sub	eax, 100				; 00000064H
	mov	rcx, QWORD PTR playbutt$[rbp]
	mov	ecx, DWORD PTR [rcx]
	mov	rdx, QWORD PTR playbutt$[rbp]
	mov	edx, DWORD PTR [rdx+8]
	lea	ecx, DWORD PTR [rcx+rdx+18]
	lea	rdx, OFFSET FLAT:??_C@_04MDFHGMOB@Next@
	mov	QWORD PTR [rsp+32], rdx
	mov	r9d, 65					; 00000041H
	mov	r8d, 100				; 00000064H
	mov	edx, eax
	call	ChCreateButton
	mov	QWORD PTR nextbutt$[rbp], rax

; 400  : 	ChWindowAddWidget(mainWin, (ChWidget*)nextbutt);

	mov	rdx, QWORD PTR nextbutt$[rbp]
	mov	rcx, QWORD PTR ?mainWin@@3PEAU_chwin_@@EA ; mainWin
	call	ChWindowAddWidget

; 401  : 
; 402  : 	ChWindowPaint(mainWin);

	mov	rcx, QWORD PTR ?mainWin@@3PEAU_chwin_@@EA ; mainWin
	call	ChWindowPaint

; 403  : 
; 404  : 	DrawWallpaper(mainWin->canv, "/musicbk.jpg", 10, 64);

	mov	r9d, 64					; 00000040H
	mov	r8d, 10
	lea	rdx, OFFSET FLAT:??_C@_0N@MEOKKLLB@?1musicbk?4jpg@
	mov	rax, QWORD PTR ?mainWin@@3PEAU_chwin_@@EA ; mainWin
	mov	rcx, QWORD PTR [rax+24]
	call	?DrawWallpaper@@YAXPEAU_ChCanvas_@@PEADHH@Z ; DrawWallpaper

; 405  : 	ChWindowUpdate(mainWin, 0, 0, mainWin->info->width,

	mov	rax, QWORD PTR ?mainWin@@3PEAU_chwin_@@EA ; mainWin
	mov	rax, QWORD PTR [rax+40]
	mov	rcx, QWORD PTR ?mainWin@@3PEAU_chwin_@@EA ; mainWin
	mov	rcx, QWORD PTR [rcx+40]
	mov	BYTE PTR [rsp+48], 0
	mov	BYTE PTR [rsp+40], 1
	mov	eax, DWORD PTR [rax+4116]
	mov	DWORD PTR [rsp+32], eax
	mov	r9d, DWORD PTR [rcx+4112]
	xor	r8d, r8d
	xor	edx, edx
	mov	rcx, QWORD PTR ?mainWin@@3PEAU_chwin_@@EA ; mainWin
	call	ChWindowUpdate

; 406  : 	mainWin->info->height, 1, 0);
; 407  : 	
; 408  : 	mainCanvas = mainWin->canv;

	mov	rax, QWORD PTR ?mainWin@@3PEAU_chwin_@@EA ; mainWin
	mov	rax, QWORD PTR [rax+24]
	mov	QWORD PTR ?mainCanvas@@3PEAU_ChCanvas_@@EA, rax ; mainCanvas

; 409  : 
; 410  : 	soundbuff = malloc(4096);

	mov	ecx, 4096				; 00001000H
	call	malloc
	mov	QWORD PTR ?soundbuff@@3PEAXEA, rax	; soundbuff

; 411  : 	memset(soundbuff, 0, 4096);

	mov	r8d, 4096				; 00001000H
	xor	edx, edx
	mov	rcx, QWORD PTR ?soundbuff@@3PEAXEA	; soundbuff
	call	memset

; 412  : 
; 413  : 
; 414  : 	/* prepare the browser UI*/
; 415  : 	PrepareBrowserUI();

	call	?PrepareBrowserUI@@YAXXZ		; PrepareBrowserUI

; 416  : 
; 417  : 	//int threadIdx = _KeCreateThread(PlayerThread,"accent");
; 418  : 
; 419  : 	PostEvent e;
; 420  : 	memset(&e, 0, sizeof(PostEvent));

	mov	r8d, 176				; 000000b0H
	xor	edx, edx
	lea	rcx, QWORD PTR e$[rbp]
	call	memset

; 421  : 
; 422  : 	ChWindowBroadcastIcon(app, "/icons/media.bmp");

	lea	rdx, OFFSET FLAT:??_C@_0BB@DKIANJEB@?1icons?1media?4bmp@
	mov	rcx, QWORD PTR ?app@@3PEAU_ChApp_@@EA	; app
	call	ChWindowBroadcastIcon

; 423  : 
; 424  : 	setjmp(mainWin->jump);

	mov	rax, QWORD PTR ?mainWin@@3PEAU_chwin_@@EA ; mainWin
	add	rax, 136				; 00000088H
	mov	rcx, rax
	call	setjmp
$LN2@main:

; 425  : 	while (1) {

	xor	eax, eax
	cmp	eax, 1
	je	SHORT $LN3@main

; 426  : 		int err = _KeFileIoControl(app->postboxfd, POSTBOX_GET_EVENT, &e);

	lea	r8, QWORD PTR e$[rbp]
	mov	edx, 404				; 00000194H
	mov	rax, QWORD PTR ?app@@3PEAU_ChApp_@@EA	; app
	mov	ecx, DWORD PTR [rax]
	call	_KeFileIoControl
	mov	DWORD PTR err$1[rbp], eax

; 427  : 		WindowHandleMessage(&e);

	lea	rcx, QWORD PTR e$[rbp]
	call	?WindowHandleMessage@@YAXPEAU_post_event_@@@Z ; WindowHandleMessage

; 428  : 		if (err == POSTBOX_NO_EVENT)

	cmp	DWORD PTR err$1[rbp], -1
	jne	SHORT $LN5@main

; 429  : 			_KePauseThread();

	call	_KePauseThread
$LN5@main:

; 430  : 	}

	jmp	SHORT $LN2@main
$LN3@main:

; 431  : }

	lea	rsp, QWORD PTR [rbp+336]
	pop	rbp
	ret	0
main	ENDP
_TEXT	ENDS
; Function compile flags: /Odtp /ZI
; File C:\Users\paras\source\repos\grep-name\XenevaOS\Process\AudioPlayer\main.cpp
;	COMDAT ?AudioPlayerClose@@YAXPEAU_chwin_@@@Z
_TEXT	SEGMENT
i$1 = 0
wid$2 = 8
win$ = 96
?AudioPlayerClose@@YAXPEAU_chwin_@@@Z PROC		; AudioPlayerClose, COMDAT

; 331  : void AudioPlayerClose(ChWindow* win) {

$LN9:
	mov	QWORD PTR [rsp+8], rcx
	push	rbp
	sub	rsp, 112				; 00000070H
	lea	rbp, QWORD PTR [rsp+32]

; 332  : 	for (int i = 0; i < browserWidgetList->pointer; i++) {

	mov	DWORD PTR i$1[rbp], 0
	jmp	SHORT $LN4@AudioPlaye
$LN2@AudioPlaye:
	mov	eax, DWORD PTR i$1[rbp]
	inc	eax
	mov	DWORD PTR i$1[rbp], eax
$LN4@AudioPlaye:
	mov	rax, QWORD PTR ?browserWidgetList@@3PEAU_list_@@EA ; browserWidgetList
	mov	eax, DWORD PTR [rax]
	cmp	DWORD PTR i$1[rbp], eax
	jae	SHORT $LN3@AudioPlaye

; 333  : 		ChWidget* wid = (ChWidget*)list_get_at(browserWidgetList, i);

	mov	edx, DWORD PTR i$1[rbp]
	mov	rcx, QWORD PTR ?browserWidgetList@@3PEAU_list_@@EA ; browserWidgetList
	call	list_get_at
	mov	QWORD PTR wid$2[rbp], rax

; 334  : 		if (wid == (ChWidget*)mainMenubar){

	mov	rax, QWORD PTR ?mainMenubar@@3PEAU_menubar_@@EA ; mainMenubar
	cmp	QWORD PTR wid$2[rbp], rax
	jne	SHORT $LN5@AudioPlaye

; 335  : 			list_remove(browserWidgetList, i);

	mov	edx, DWORD PTR i$1[rbp]
	mov	rcx, QWORD PTR ?browserWidgetList@@3PEAU_list_@@EA ; browserWidgetList
	call	list_remove

; 336  : 		}

	jmp	SHORT $LN6@AudioPlaye
$LN5@AudioPlaye:

; 337  : 		else {
; 338  : 			if (wid->ChDestroy)

	mov	rax, QWORD PTR wid$2[rbp]
	cmp	QWORD PTR [rax+72], 0
	je	SHORT $LN7@AudioPlaye

; 339  : 				wid->ChDestroy(wid, win);

	mov	rdx, QWORD PTR win$[rbp]
	mov	rcx, QWORD PTR wid$2[rbp]
	mov	rax, QWORD PTR wid$2[rbp]
	call	QWORD PTR [rax+72]
$LN7@AudioPlaye:
$LN6@AudioPlaye:

; 340  : 		}
; 341  : 	}

	jmp	SHORT $LN2@AudioPlaye
$LN3@AudioPlaye:

; 342  : 	list_clear_all(browserWidgetList);

	mov	rcx, QWORD PTR ?browserWidgetList@@3PEAU_list_@@EA ; browserWidgetList
	call	list_clear_all

; 343  : 	free(browserWidgetList);

	mov	rcx, QWORD PTR ?browserWidgetList@@3PEAU_list_@@EA ; browserWidgetList
	call	free

; 344  : 	ChDeAllocateBuffer(browserCanvas);

	mov	rcx, QWORD PTR ?browserCanvas@@3PEAU_ChCanvas_@@EA ; browserCanvas
	call	ChDeAllocateBuffer

; 345  : 	free(browserCanvas);

	mov	rcx, QWORD PTR ?browserCanvas@@3PEAU_ChCanvas_@@EA ; browserCanvas
	call	free

; 346  : }

	lea	rsp, QWORD PTR [rbp+80]
	pop	rbp
	ret	0
?AudioPlayerClose@@YAXPEAU_chwin_@@@Z ENDP		; AudioPlayerClose
_TEXT	ENDS
; Function compile flags: /Odtp /ZI
; File C:\Users\paras\source\repos\grep-name\XenevaOS\Process\AudioPlayer\main.cpp
;	COMDAT ?PrepareBrowserUI@@YAXXZ
_TEXT	SEGMENT
sp$ = 0
selectButt$ = 8
?PrepareBrowserUI@@YAXXZ PROC				; PrepareBrowserUI, COMDAT

; 300  : void PrepareBrowserUI(){

$LN3:
	push	rbp
	sub	rsp, 128				; 00000080H
	lea	rbp, QWORD PTR [rsp+48]

; 301  : 	/* allocate the browser canvas */
; 302  : 	browserCanvas = ChCreateCanvas(mainWin->canv->canvasWidth, mainWin->canv->canvasHeight);

	mov	rax, QWORD PTR ?mainWin@@3PEAU_chwin_@@EA ; mainWin
	mov	rax, QWORD PTR [rax+24]
	mov	rcx, QWORD PTR ?mainWin@@3PEAU_chwin_@@EA ; mainWin
	mov	rcx, QWORD PTR [rcx+24]
	mov	edx, DWORD PTR [rax+28]
	mov	ecx, DWORD PTR [rcx+24]
	call	ChCreateCanvas
	mov	QWORD PTR ?browserCanvas@@3PEAU_ChCanvas_@@EA, rax ; browserCanvas

; 303  : 	ChAllocateBuffer(browserCanvas);

	mov	rcx, QWORD PTR ?browserCanvas@@3PEAU_ChCanvas_@@EA ; browserCanvas
	call	ChAllocateBuffer

; 304  : 	mainWidgetList = mainWin->widgets;

	mov	rax, QWORD PTR ?mainWin@@3PEAU_chwin_@@EA ; mainWin
	mov	rax, QWORD PTR [rax+80]
	mov	QWORD PTR ?mainWidgetList@@3PEAU_list_@@EA, rax ; mainWidgetList

; 305  : 	browserWidgetList = initialize_list();

	call	initialize_list
	mov	QWORD PTR ?browserWidgetList@@3PEAU_list_@@EA, rax ; browserWidgetList

; 306  : 
; 307  : 	musicIcon = ChCreateIcon();

	call	ChCreateIcon
	mov	QWORD PTR ?musicIcon@@3PEAU_icon_@@EA, rax ; musicIcon

; 308  : 	ChIconOpen(musicIcon, "/icons/music.bmp");

	lea	rdx, OFFSET FLAT:??_C@_0BB@KNPGACAJ@?1icons?1music?4bmp@
	mov	rcx, QWORD PTR ?musicIcon@@3PEAU_icon_@@EA ; musicIcon
	call	ChIconOpen

; 309  : 	ChIconRead(musicIcon);

	mov	rcx, QWORD PTR ?musicIcon@@3PEAU_icon_@@EA ; musicIcon
	call	ChIconRead

; 310  : 
; 311  : 	ChScrollPane* sp = ChCreateScrollPane(mainWin, 10, 64, 100, 380);

	mov	DWORD PTR [rsp+32], 380			; 0000017cH
	mov	r9d, 100				; 00000064H
	mov	r8d, 64					; 00000040H
	mov	edx, 10
	mov	rcx, QWORD PTR ?mainWin@@3PEAU_chwin_@@EA ; mainWin
	call	ChCreateScrollPane
	mov	QWORD PTR sp$[rbp], rax

; 312  : 	browseList = ChCreateListView(10, 100, 380, 380);

	mov	r9d, 380				; 0000017cH
	mov	r8d, 380				; 0000017cH
	mov	edx, 100				; 00000064H
	mov	ecx, 10
	call	ChCreateListView
	mov	QWORD PTR ?browseList@@3PEAU_list_view_@@EA, rax ; browseList

; 313  : 	ChListViewSetScrollpane(browseList, sp);

	mov	rdx, QWORD PTR sp$[rbp]
	mov	rcx, QWORD PTR ?browseList@@3PEAU_list_view_@@EA ; browseList
	call	ChListViewSetScrollpane

; 314  : 
; 315  : 	MusicPrepareLibrary(browseList);

	mov	rcx, QWORD PTR ?browseList@@3PEAU_list_view_@@EA ; browseList
	call	?MusicPrepareLibrary@@YAXPEAU_list_view_@@@Z ; MusicPrepareLibrary

; 316  : 
; 317  : 	ChButton *selectButt = ChCreateButton(mainWin->info->width - 75, 36, 65, 35, "Select");

	mov	rax, QWORD PTR ?mainWin@@3PEAU_chwin_@@EA ; mainWin
	mov	rax, QWORD PTR [rax+40]
	mov	eax, DWORD PTR [rax+4112]
	sub	eax, 75					; 0000004bH
	lea	rcx, OFFSET FLAT:??_C@_06HJGPBJLE@Select@
	mov	QWORD PTR [rsp+32], rcx
	mov	r9d, 35					; 00000023H
	mov	r8d, 65					; 00000041H
	mov	edx, 36					; 00000024H
	mov	ecx, eax
	call	ChCreateButton
	mov	QWORD PTR selectButt$[rbp], rax

; 318  : 	selectButt->base.ChActionHandler = SelectButtonActionHandler;

	mov	rax, QWORD PTR selectButt$[rbp]
	lea	rcx, OFFSET FLAT:?SelectButtonActionHandler@@YAXPEAU_ChWidget_@@PEAU_chwin_@@@Z ; SelectButtonActionHandler
	mov	QWORD PTR [rax+32], rcx

; 319  : 	list_add(browserWidgetList, mainMenubar);

	mov	rdx, QWORD PTR ?mainMenubar@@3PEAU_menubar_@@EA ; mainMenubar
	mov	rcx, QWORD PTR ?browserWidgetList@@3PEAU_list_@@EA ; browserWidgetList
	call	list_add

; 320  : 	list_add(browserWidgetList, browseList);

	mov	rdx, QWORD PTR ?browseList@@3PEAU_list_view_@@EA ; browseList
	mov	rcx, QWORD PTR ?browserWidgetList@@3PEAU_list_@@EA ; browserWidgetList
	call	list_add

; 321  : 	list_add(browserWidgetList, sp);

	mov	rdx, QWORD PTR sp$[rbp]
	mov	rcx, QWORD PTR ?browserWidgetList@@3PEAU_list_@@EA ; browserWidgetList
	call	list_add

; 322  : 	list_add(browserWidgetList, selectButt);

	mov	rdx, QWORD PTR selectButt$[rbp]
	mov	rcx, QWORD PTR ?browserWidgetList@@3PEAU_list_@@EA ; browserWidgetList
	call	list_add

; 323  : }

	lea	rsp, QWORD PTR [rbp+80]
	pop	rbp
	ret	0
?PrepareBrowserUI@@YAXXZ ENDP				; PrepareBrowserUI
_TEXT	ENDS
; Function compile flags: /Odtp /ZI
; File C:\Users\paras\source\repos\grep-name\XenevaOS\Process\AudioPlayer\main.cpp
;	COMDAT ?PlayPauseButtonAction@@YAXPEAU_ChWidget_@@PEAU_chwin_@@@Z
_TEXT	SEGMENT
path$1 = 0
wid$ = 112
mainWin$ = 120
?PlayPauseButtonAction@@YAXPEAU_ChWidget_@@PEAU_chwin_@@@Z PROC ; PlayPauseButtonAction, COMDAT

; 283  : void PlayPauseButtonAction(ChWidget* wid, ChWindow* mainWin) {

$LN5:
	mov	QWORD PTR [rsp+16], rdx
	mov	QWORD PTR [rsp+8], rcx
	push	rbp
	sub	rsp, 128				; 00000080H
	lea	rbp, QWORD PTR [rsp+32]

; 284  : 	if (selectedFile != NULL) {

	cmp	QWORD PTR ?selectedFile@@3PEADEA, 0	; selectedFile
	je	$LN2@PlayPauseB

; 285  : 		if (!_auto_start) {

	movsx	eax, BYTE PTR ?_auto_start@@3DA		; _auto_start
	test	eax, eax
	jne	SHORT $LN3@PlayPauseB

; 286  : 			char path[32];
; 287  : 			memset(path, 0, 32);

	mov	r8d, 32					; 00000020H
	xor	edx, edx
	lea	rcx, QWORD PTR path$1[rbp]
	call	memset

; 288  : 			strcpy(path, "/MUSIC/");

	lea	rdx, OFFSET FLAT:??_C@_07DKHLHEMJ@?1MUSIC?1@
	lea	rcx, QWORD PTR path$1[rbp]
	call	strcpy

; 289  : 			strcpy(path + strlen("/MUSIC/"), selectedFile);

	lea	rcx, OFFSET FLAT:??_C@_07DKHLHEMJ@?1MUSIC?1@
	call	strlen
	lea	rax, QWORD PTR path$1[rbp+rax]
	mov	rdx, QWORD PTR ?selectedFile@@3PEADEA	; selectedFile
	mov	rcx, rax
	call	strcpy

; 290  : 			_KePrint("Selected file -> %s \r\n", path);

	lea	rdx, QWORD PTR path$1[rbp]
	lea	rcx, OFFSET FLAT:??_C@_0BH@GHLPKOEP@Selected?5file?5?9?$DO?5?$CFs?5?$AN?6@
	call	_KePrint

; 291  : 			_file = _KeOpenFile(path, FILE_OPEN_READ_ONLY);

	mov	edx, 2
	lea	rcx, QWORD PTR path$1[rbp]
	call	_KeOpenFile
	mov	DWORD PTR ?_file@@3HA, eax		; _file

; 292  : 			_KePrint("_file -> %d \r\n", _file);

	mov	edx, DWORD PTR ?_file@@3HA		; _file
	lea	rcx, OFFSET FLAT:??_C@_0P@JFAFLHF@_file?5?9?$DO?5?$CFd?5?$AN?6@
	call	_KePrint

; 293  : 			_start_player = 1;

	mov	BYTE PTR ?_start_player@@3DA, 1		; _start_player
$LN3@PlayPauseB:

; 294  : 		}
; 295  : 		_KePrint("selected File -> %s \r\n", selectedFile);

	mov	rdx, QWORD PTR ?selectedFile@@3PEADEA	; selectedFile
	lea	rcx, OFFSET FLAT:??_C@_0BH@KIDONKAP@selected?5File?5?9?$DO?5?$CFs?5?$AN?6@
	call	_KePrint
$LN2@PlayPauseB:

; 296  : 	}
; 297  : }

	lea	rsp, QWORD PTR [rbp+96]
	pop	rbp
	ret	0
?PlayPauseButtonAction@@YAXPEAU_ChWidget_@@PEAU_chwin_@@@Z ENDP ; PlayPauseButtonAction
_TEXT	ENDS
; Function compile flags: /Odtp /ZI
; File C:\Users\paras\source\repos\grep-name\XenevaOS\Process\AudioPlayer\main.cpp
;	COMDAT ?MusicPrepareLibrary@@YAXPEAU_list_view_@@@Z
_TEXT	SEGMENT
dirfd$ = 0
dirent$ = 8
code$1 = 16
li$2 = 24
lv$ = 112
?MusicPrepareLibrary@@YAXPEAU_list_view_@@@Z PROC	; MusicPrepareLibrary, COMDAT

; 264  : void MusicPrepareLibrary(ChListView *lv) {

$LN8:
	mov	QWORD PTR [rsp+8], rcx
	push	rbp
	sub	rsp, 128				; 00000080H
	lea	rbp, QWORD PTR [rsp+32]

; 265  : 	int dirfd = _KeOpenDir("/music");

	lea	rcx, OFFSET FLAT:??_C@_06KOGCNNHG@?1music@
	call	_KeOpenDir
	mov	DWORD PTR dirfd$[rbp], eax

; 266  : 	XEDirectoryEntry* dirent = (XEDirectoryEntry*)malloc(sizeof(XEDirectoryEntry));

	mov	ecx, 52					; 00000034H
	call	malloc
	mov	QWORD PTR dirent$[rbp], rax

; 267  : 	memset(dirent, 0, sizeof(XEDirectoryEntry));

	mov	r8d, 52					; 00000034H
	xor	edx, edx
	mov	rcx, QWORD PTR dirent$[rbp]
	call	memset
$LN2@MusicPrepa:

; 268  : 	while (1) {

	xor	eax, eax
	cmp	eax, 1
	je	SHORT $LN3@MusicPrepa

; 269  : 		if (dirent->index == -1)

	mov	rax, QWORD PTR dirent$[rbp]
	cmp	DWORD PTR [rax+32], -1
	jne	SHORT $LN4@MusicPrepa

; 270  : 			break;

	jmp	SHORT $LN3@MusicPrepa
$LN4@MusicPrepa:

; 271  : 		int code = _KeReadDir(dirfd, dirent);

	mov	rdx, QWORD PTR dirent$[rbp]
	mov	ecx, DWORD PTR dirfd$[rbp]
	call	_KeReadDir
	mov	DWORD PTR code$1[rbp], eax

; 272  : 		if (code != -1) {

	cmp	DWORD PTR code$1[rbp], -1
	je	SHORT $LN5@MusicPrepa

; 273  : 			if (dirent->flags & FILE_GENERAL){

	mov	rax, QWORD PTR dirent$[rbp]
	movzx	eax, BYTE PTR [rax+48]
	and	eax, 4
	test	eax, eax
	je	SHORT $LN6@MusicPrepa

; 274  : 				ChListItem*li = ChListViewAddItem(mainWin, lv, dirent->filename);

	mov	rax, QWORD PTR dirent$[rbp]
	mov	r8, rax
	mov	rdx, QWORD PTR lv$[rbp]
	mov	rcx, QWORD PTR ?mainWin@@3PEAU_chwin_@@EA ; mainWin
	call	ChListViewAddItem
	mov	QWORD PTR li$2[rbp], rax

; 275  : 				ChListViewSetListItemIcon(li, musicIcon);

	mov	rdx, QWORD PTR ?musicIcon@@3PEAU_icon_@@EA ; musicIcon
	mov	rcx, QWORD PTR li$2[rbp]
	call	ChListViewSetListItemIcon
$LN6@MusicPrepa:
$LN5@MusicPrepa:

; 276  : 			}
; 277  : 
; 278  : 		}
; 279  : 		memset(dirent->filename, 0, 32);

	mov	rax, QWORD PTR dirent$[rbp]
	mov	r8d, 32					; 00000020H
	xor	edx, edx
	mov	rcx, rax
	call	memset

; 280  : 	}

	jmp	SHORT $LN2@MusicPrepa
$LN3@MusicPrepa:

; 281  : }

	lea	rsp, QWORD PTR [rbp+96]
	pop	rbp
	ret	0
?MusicPrepareLibrary@@YAXPEAU_list_view_@@@Z ENDP	; MusicPrepareLibrary
_TEXT	ENDS
; Function compile flags: /Odtp /ZI
; File C:\Users\paras\source\repos\grep-name\XenevaOS\Process\AudioPlayer\main.cpp
;	COMDAT ?SelectButtonActionHandler@@YAXPEAU_ChWidget_@@PEAU_chwin_@@@Z
_TEXT	SEGMENT
li$ = 0
wid$ = 96
win$ = 104
?SelectButtonActionHandler@@YAXPEAU_ChWidget_@@PEAU_chwin_@@@Z PROC ; SelectButtonActionHandler, COMDAT

; 253  : void SelectButtonActionHandler(ChWidget* wid, ChWindow* win) {

$LN4:
	mov	QWORD PTR [rsp+16], rdx
	mov	QWORD PTR [rsp+8], rcx
	push	rbp
	sub	rsp, 112				; 00000070H
	lea	rbp, QWORD PTR [rsp+32]

; 254  : 	ChListItem* li = ChListViewGetSelectedItem(browseList);

	mov	rcx, QWORD PTR ?browseList@@3PEAU_list_view_@@EA ; browseList
	call	ChListViewGetSelectedItem
	mov	QWORD PTR li$[rbp], rax

; 255  : 	if (li) {

	cmp	QWORD PTR li$[rbp], 0
	je	SHORT $LN2@SelectButt

; 256  : 		selectedFile = li->itemText;

	mov	rax, QWORD PTR li$[rbp]
	mov	rax, QWORD PTR [rax+32]
	mov	QWORD PTR ?selectedFile@@3PEADEA, rax	; selectedFile
$LN2@SelectButt:

; 257  : 	}
; 258  : 	_KeProcessSleep(100);

	mov	ecx, 100				; 00000064H
	call	_KeProcessSleep

; 259  : 	UpdateHomeUI();

	call	?UpdateHomeUI@@YAXXZ			; UpdateHomeUI

; 260  : 	_KeProcessSleep(100);

	mov	ecx, 100				; 00000064H
	call	_KeProcessSleep

; 261  : }

	lea	rsp, QWORD PTR [rbp+80]
	pop	rbp
	ret	0
?SelectButtonActionHandler@@YAXPEAU_ChWidget_@@PEAU_chwin_@@@Z ENDP ; SelectButtonActionHandler
_TEXT	ENDS
; Function compile flags: /Odtp /ZI
; File C:\Users\paras\source\repos\grep-name\XenevaOS\Process\AudioPlayer\main.cpp
;	COMDAT ?BrowseMenuActionHandler@@YAXPEAU_ChWidget_@@PEAU_chwin_@@@Z
_TEXT	SEGMENT
wid$ = 80
win$ = 88
?BrowseMenuActionHandler@@YAXPEAU_ChWidget_@@PEAU_chwin_@@@Z PROC ; BrowseMenuActionHandler, COMDAT

; 233  : void BrowseMenuActionHandler(ChWidget* wid, ChWindow* win) {

$LN5:
	mov	QWORD PTR [rsp+16], rdx
	mov	QWORD PTR [rsp+8], rcx
	push	rbp
	sub	rsp, 128				; 00000080H
	lea	rbp, QWORD PTR [rsp+64]

; 234  : 	if (_music_library_drawn == false){

	movsx	eax, BYTE PTR ?_music_library_drawn@@3DA ; _music_library_drawn
	test	eax, eax
	jne	$LN2@BrowseMenu

; 235  : 		mainWin->widgets = browserWidgetList;

	mov	rax, QWORD PTR ?mainWin@@3PEAU_chwin_@@EA ; mainWin
	mov	rcx, QWORD PTR ?browserWidgetList@@3PEAU_list_@@EA ; browserWidgetList
	mov	QWORD PTR [rax+80], rcx

; 236  : 		mainWin->canv = browserCanvas;

	mov	rax, QWORD PTR ?mainWin@@3PEAU_chwin_@@EA ; mainWin
	mov	rcx, QWORD PTR ?browserCanvas@@3PEAU_ChCanvas_@@EA ; browserCanvas
	mov	QWORD PTR [rax+24], rcx

; 237  : 		ChWindowPaint(mainWin);

	mov	rcx, QWORD PTR ?mainWin@@3PEAU_chwin_@@EA ; mainWin
	call	ChWindowPaint

; 238  : 
; 239  : 		ChFontSetSize(mainWin->app->baseFont, 18);

	mov	rax, QWORD PTR ?mainWin@@3PEAU_chwin_@@EA ; mainWin
	mov	rax, QWORD PTR [rax+48]
	mov	edx, 18
	mov	rcx, QWORD PTR [rax+48]
	call	ChFontSetSize

; 240  : 		ChFontDrawText(browserCanvas, mainWin->app->baseFont, "Your Music library.....", 10, 88, 18, LIGHTBLACK);

	mov	rax, QWORD PTR ?mainWin@@3PEAU_chwin_@@EA ; mainWin
	mov	rax, QWORD PTR [rax+48]
	mov	DWORD PTR [rsp+48], -12698050		; ff3e3e3eH
	mov	DWORD PTR [rsp+40], 18
	mov	DWORD PTR [rsp+32], 88			; 00000058H
	mov	r9d, 10
	lea	r8, OFFSET FLAT:??_C@_0BI@HGBDFOPG@Your?5Music?5library?4?4?4?4?4@
	mov	rdx, QWORD PTR [rax+48]
	mov	rcx, QWORD PTR ?browserCanvas@@3PEAU_ChCanvas_@@EA ; browserCanvas
	call	ChFontDrawText

; 241  : 
; 242  : 		ChWindowUpdate(mainWin, 0, 0, mainWin->info->width, mainWin->info->height, 1, 0);

	mov	rax, QWORD PTR ?mainWin@@3PEAU_chwin_@@EA ; mainWin
	mov	rax, QWORD PTR [rax+40]
	mov	rcx, QWORD PTR ?mainWin@@3PEAU_chwin_@@EA ; mainWin
	mov	rcx, QWORD PTR [rcx+40]
	mov	BYTE PTR [rsp+48], 0
	mov	BYTE PTR [rsp+40], 1
	mov	eax, DWORD PTR [rax+4116]
	mov	DWORD PTR [rsp+32], eax
	mov	r9d, DWORD PTR [rcx+4112]
	xor	r8d, r8d
	xor	edx, edx
	mov	rcx, QWORD PTR ?mainWin@@3PEAU_chwin_@@EA ; mainWin
	call	ChWindowUpdate

; 243  : 		_music_library_drawn = true;

	mov	BYTE PTR ?_music_library_drawn@@3DA, 1	; _music_library_drawn

; 244  : 	}

	jmp	SHORT $LN3@BrowseMenu
$LN2@BrowseMenu:

; 245  : 	else{
; 246  : 		_KePrint("Updating the browsing \r\n");

	lea	rcx, OFFSET FLAT:??_C@_0BJ@PIBNCIDG@Updating?5the?5browsing?5?$AN?6@
	call	_KePrint

; 247  : 		UpdateBrowserUI();

	call	?UpdateBrowserUI@@YAXXZ			; UpdateBrowserUI

; 248  : 		_KeProcessSleep(100);

	mov	ecx, 100				; 00000064H
	call	_KeProcessSleep
$LN3@BrowseMenu:

; 249  : 	}
; 250  : }

	lea	rsp, QWORD PTR [rbp+64]
	pop	rbp
	ret	0
?BrowseMenuActionHandler@@YAXPEAU_ChWidget_@@PEAU_chwin_@@@Z ENDP ; BrowseMenuActionHandler
_TEXT	ENDS
; Function compile flags: /Odtp /ZI
; File C:\Users\paras\source\repos\grep-name\XenevaOS\Process\AudioPlayer\main.cpp
;	COMDAT ?UpdateBrowserUI@@YAXXZ
_TEXT	SEGMENT
?UpdateBrowserUI@@YAXXZ PROC				; UpdateBrowserUI, COMDAT

; 226  : void UpdateBrowserUI() {

$LN3:
	push	rbp
	sub	rsp, 128				; 00000080H
	lea	rbp, QWORD PTR [rsp+64]

; 227  : 	mainWin->canv = browserCanvas;

	mov	rax, QWORD PTR ?mainWin@@3PEAU_chwin_@@EA ; mainWin
	mov	rcx, QWORD PTR ?browserCanvas@@3PEAU_ChCanvas_@@EA ; browserCanvas
	mov	QWORD PTR [rax+24], rcx

; 228  : 	mainWin->widgets = browserWidgetList;

	mov	rax, QWORD PTR ?mainWin@@3PEAU_chwin_@@EA ; mainWin
	mov	rcx, QWORD PTR ?browserWidgetList@@3PEAU_list_@@EA ; browserWidgetList
	mov	QWORD PTR [rax+80], rcx

; 229  : 	ChWindowUpdate(mainWin, 0, 0, mainWin->info->width, mainWin->info->height, 1, 0);

	mov	rax, QWORD PTR ?mainWin@@3PEAU_chwin_@@EA ; mainWin
	mov	rax, QWORD PTR [rax+40]
	mov	rcx, QWORD PTR ?mainWin@@3PEAU_chwin_@@EA ; mainWin
	mov	rcx, QWORD PTR [rcx+40]
	mov	BYTE PTR [rsp+48], 0
	mov	BYTE PTR [rsp+40], 1
	mov	eax, DWORD PTR [rax+4116]
	mov	DWORD PTR [rsp+32], eax
	mov	r9d, DWORD PTR [rcx+4112]
	xor	r8d, r8d
	xor	edx, edx
	mov	rcx, QWORD PTR ?mainWin@@3PEAU_chwin_@@EA ; mainWin
	call	ChWindowUpdate

; 230  : }

	lea	rsp, QWORD PTR [rbp+64]
	pop	rbp
	ret	0
?UpdateBrowserUI@@YAXXZ ENDP				; UpdateBrowserUI
_TEXT	ENDS
; Function compile flags: /Odtp /ZI
; File C:\Users\paras\source\repos\grep-name\XenevaOS\Process\AudioPlayer\main.cpp
;	COMDAT ?UpdateHomeUI@@YAXXZ
_TEXT	SEGMENT
?UpdateHomeUI@@YAXXZ PROC				; UpdateHomeUI, COMDAT

; 220  : void UpdateHomeUI() {

$LN3:
	push	rbp
	sub	rsp, 128				; 00000080H
	lea	rbp, QWORD PTR [rsp+64]

; 221  : 	mainWin->canv = mainCanvas;

	mov	rax, QWORD PTR ?mainWin@@3PEAU_chwin_@@EA ; mainWin
	mov	rcx, QWORD PTR ?mainCanvas@@3PEAU_ChCanvas_@@EA ; mainCanvas
	mov	QWORD PTR [rax+24], rcx

; 222  : 	mainWin->widgets = mainWidgetList;

	mov	rax, QWORD PTR ?mainWin@@3PEAU_chwin_@@EA ; mainWin
	mov	rcx, QWORD PTR ?mainWidgetList@@3PEAU_list_@@EA ; mainWidgetList
	mov	QWORD PTR [rax+80], rcx

; 223  : 	ChWindowUpdate(mainWin, 0, 0, mainWin->info->width, mainWin->info->height, 1, 0);

	mov	rax, QWORD PTR ?mainWin@@3PEAU_chwin_@@EA ; mainWin
	mov	rax, QWORD PTR [rax+40]
	mov	rcx, QWORD PTR ?mainWin@@3PEAU_chwin_@@EA ; mainWin
	mov	rcx, QWORD PTR [rcx+40]
	mov	BYTE PTR [rsp+48], 0
	mov	BYTE PTR [rsp+40], 1
	mov	eax, DWORD PTR [rax+4116]
	mov	DWORD PTR [rsp+32], eax
	mov	r9d, DWORD PTR [rcx+4112]
	xor	r8d, r8d
	xor	edx, edx
	mov	rcx, QWORD PTR ?mainWin@@3PEAU_chwin_@@EA ; mainWin
	call	ChWindowUpdate

; 224  : }

	lea	rsp, QWORD PTR [rbp+64]
	pop	rbp
	ret	0
?UpdateHomeUI@@YAXXZ ENDP				; UpdateHomeUI
_TEXT	ENDS
; Function compile flags: /Odtp /ZI
; File C:\Users\paras\source\repos\grep-name\XenevaOS\Process\AudioPlayer\main.cpp
;	COMDAT ?DrawWallpaper@@YAXPEAU_ChCanvas_@@PEADHH@Z
_TEXT	SEGMENT
image$ = 0
stat$ = 8
data_$ = 48
data1$ = 56
decor$ = 64
w$ = 72
h$ = 76
data$ = 80
i$1 = 88
k$2 = 92
j$3 = 96
r$4 = 100
g$5 = 101
b$6 = 102
rgba$7 = 104
$T8 = 176
tv142 = 184
canv$ = 208
filename$ = 216
x$ = 224
y$ = 232
?DrawWallpaper@@YAXPEAU_ChCanvas_@@PEADHH@Z PROC	; DrawWallpaper, COMDAT

; 183  : void DrawWallpaper(ChCanvas *canv, char* filename, int x, int y) {

$LN15:
	mov	DWORD PTR [rsp+32], r9d
	mov	DWORD PTR [rsp+24], r8d
	mov	QWORD PTR [rsp+16], rdx
	mov	QWORD PTR [rsp+8], rcx
	push	rbp
	sub	rsp, 240				; 000000f0H
	lea	rbp, QWORD PTR [rsp+48]

; 184  : 	int image = _KeOpenFile(filename, FILE_OPEN_READ_ONLY);

	mov	edx, 2
	mov	rcx, QWORD PTR filename$[rbp]
	call	_KeOpenFile
	mov	DWORD PTR image$[rbp], eax

; 185  : 	XEFileStatus stat;
; 186  : 	memset(&stat, 0, sizeof(XEFileStatus));

	mov	r8d, 40					; 00000028H
	xor	edx, edx
	lea	rcx, QWORD PTR stat$[rbp]
	call	memset

; 187  : 	_KeFileStat(image, &stat);

	lea	rdx, QWORD PTR stat$[rbp]
	mov	ecx, DWORD PTR image$[rbp]
	call	_KeFileStat

; 188  : 	void* data_ = _KeMemMap(NULL, stat.size, 0, 0, -1, 0);

	mov	QWORD PTR [rsp+40], 0
	mov	DWORD PTR [rsp+32], -1
	xor	r9d, r9d
	xor	r8d, r8d
	mov	rdx, QWORD PTR stat$[rbp+8]
	xor	ecx, ecx
	call	_KeMemMap
	mov	QWORD PTR data_$[rbp], rax

; 189  : 	memset(data_, 0, ALIGN_UP(stat.size, 4096));

	mov	rax, QWORD PTR stat$[rbp+8]
	add	rax, 4095				; 00000fffH
	xor	edx, edx
	mov	ecx, 4096				; 00001000H
	div	rcx
	imul	rax, rax, 4096				; 00001000H
	mov	r8, rax
	xor	edx, edx
	mov	rcx, QWORD PTR data_$[rbp]
	call	memset

; 190  : 	_KeReadFile(image, data_, ALIGN_UP(stat.size, 4096));

	mov	rax, QWORD PTR stat$[rbp+8]
	add	rax, 4095				; 00000fffH
	xor	edx, edx
	mov	ecx, 4096				; 00001000H
	div	rcx
	imul	rax, rax, 4096				; 00001000H
	mov	r8, rax
	mov	rdx, QWORD PTR data_$[rbp]
	mov	ecx, DWORD PTR image$[rbp]
	call	_KeReadFile

; 191  : 
; 192  : 	uint8_t* data1 = (uint8_t*)data_;

	mov	rax, QWORD PTR data_$[rbp]
	mov	QWORD PTR data1$[rbp], rax

; 193  : 
; 194  : 	Jpeg::Decoder *decor = new Jpeg::Decoder((uint8_t*)data1, ALIGN_UP(stat.size, 4096), malloc, free);

	mov	ecx, 525104				; 00080330H
	call	??2@YAPEAX_K@Z				; operator new
	mov	QWORD PTR $T8[rbp], rax
	cmp	QWORD PTR $T8[rbp], 0
	je	SHORT $LN13@DrawWallpa
	mov	rax, QWORD PTR stat$[rbp+8]
	add	rax, 4095				; 00000fffH
	xor	edx, edx
	mov	ecx, 4096				; 00001000H
	div	rcx
	imul	rax, rax, 4096				; 00001000H
	lea	rcx, OFFSET FLAT:free
	mov	QWORD PTR [rsp+32], rcx
	lea	r9, OFFSET FLAT:malloc
	mov	r8d, eax
	mov	rdx, QWORD PTR data1$[rbp]
	mov	rcx, QWORD PTR $T8[rbp]
	call	??0Decoder@Jpeg@@QEAA@PEBEIP6APEAXI@ZP6AXPEAX@Z@Z ; Jpeg::Decoder::Decoder
	mov	QWORD PTR tv142[rbp], rax
	jmp	SHORT $LN14@DrawWallpa
$LN13@DrawWallpa:
	mov	QWORD PTR tv142[rbp], 0
$LN14@DrawWallpa:
	mov	rax, QWORD PTR tv142[rbp]
	mov	QWORD PTR decor$[rbp], rax

; 195  : 	if (decor->GetResult() != Jpeg::Decoder::OK) {

	mov	rcx, QWORD PTR decor$[rbp]
	call	?GetResult@Decoder@Jpeg@@QEBA?AW4DecodeResult@12@XZ ; Jpeg::Decoder::GetResult
	test	eax, eax
	je	SHORT $LN11@DrawWallpa

; 196  : 		_KePrint("Decoder error \n");

	lea	rcx, OFFSET FLAT:??_C@_0BA@IGPHAPNL@Decoder?5error?5?6@
	call	_KePrint
$LN2@DrawWallpa:

; 197  : 		for (;;);

	jmp	SHORT $LN2@DrawWallpa

; 198  : 		return;

	jmp	$LN1@DrawWallpa
$LN11@DrawWallpa:

; 199  : 	}
; 200  : 	int w = decor->GetWidth();

	mov	rcx, QWORD PTR decor$[rbp]
	call	?GetWidth@Decoder@Jpeg@@QEBAHXZ		; Jpeg::Decoder::GetWidth
	mov	DWORD PTR w$[rbp], eax

; 201  : 	int h = decor->GetHeight();

	mov	rcx, QWORD PTR decor$[rbp]
	call	?GetHeight@Decoder@Jpeg@@QEBAHXZ	; Jpeg::Decoder::GetHeight
	mov	DWORD PTR h$[rbp], eax

; 202  : 	uint8_t* data = decor->GetImage();

	mov	rcx, QWORD PTR decor$[rbp]
	call	?GetImage@Decoder@Jpeg@@QEBAPEAEXZ	; Jpeg::Decoder::GetImage
	mov	QWORD PTR data$[rbp], rax

; 203  : 	for (int i = 0; i < h; i++) {

	mov	DWORD PTR i$1[rbp], 0
	jmp	SHORT $LN7@DrawWallpa
$LN5@DrawWallpa:
	mov	eax, DWORD PTR i$1[rbp]
	inc	eax
	mov	DWORD PTR i$1[rbp], eax
$LN7@DrawWallpa:
	mov	eax, DWORD PTR h$[rbp]
	cmp	DWORD PTR i$1[rbp], eax
	jge	$LN6@DrawWallpa

; 204  : 		for (int k = 0; k < w; k++) {

	mov	DWORD PTR k$2[rbp], 0
	jmp	SHORT $LN10@DrawWallpa
$LN8@DrawWallpa:
	mov	eax, DWORD PTR k$2[rbp]
	inc	eax
	mov	DWORD PTR k$2[rbp], eax
$LN10@DrawWallpa:
	mov	eax, DWORD PTR w$[rbp]
	cmp	DWORD PTR k$2[rbp], eax
	jge	$LN9@DrawWallpa

; 205  : 			int j = k + i * w;

	mov	eax, DWORD PTR i$1[rbp]
	imul	eax, DWORD PTR w$[rbp]
	mov	ecx, DWORD PTR k$2[rbp]
	add	ecx, eax
	mov	eax, ecx
	mov	DWORD PTR j$3[rbp], eax

; 206  : 			uint8_t r = data[j * 3];

	imul	eax, DWORD PTR j$3[rbp], 3
	cdqe
	mov	rcx, QWORD PTR data$[rbp]
	movzx	eax, BYTE PTR [rcx+rax]
	mov	BYTE PTR r$4[rbp], al

; 207  : 			uint8_t g = data[j * 3 + 1];

	imul	eax, DWORD PTR j$3[rbp], 3
	inc	eax
	cdqe
	mov	rcx, QWORD PTR data$[rbp]
	movzx	eax, BYTE PTR [rcx+rax]
	mov	BYTE PTR g$5[rbp], al

; 208  : 			uint8_t b = data[j * 3 + 2];

	imul	eax, DWORD PTR j$3[rbp], 3
	add	eax, 2
	cdqe
	mov	rcx, QWORD PTR data$[rbp]
	movzx	eax, BYTE PTR [rcx+rax]
	mov	BYTE PTR b$6[rbp], al

; 209  : 			uint32_t rgba = ((r << 16) | (g << 8) | (b)) & 0x00ffffff;

	movzx	eax, BYTE PTR r$4[rbp]
	shl	eax, 16
	movzx	ecx, BYTE PTR g$5[rbp]
	shl	ecx, 8
	or	eax, ecx
	movzx	ecx, BYTE PTR b$6[rbp]
	or	eax, ecx
	and	eax, 16777215				; 00ffffffH
	mov	DWORD PTR rgba$7[rbp], eax

; 210  : 			rgba = rgba | 0xff000000;

	mov	eax, DWORD PTR rgba$7[rbp]
	or	eax, -16777216				; ff000000H
	mov	DWORD PTR rgba$7[rbp], eax

; 211  : 			ChDrawPixel(canv, x + k, y + i, rgba);

	mov	eax, DWORD PTR i$1[rbp]
	mov	ecx, DWORD PTR y$[rbp]
	add	ecx, eax
	mov	eax, ecx
	mov	ecx, DWORD PTR k$2[rbp]
	mov	edx, DWORD PTR x$[rbp]
	add	edx, ecx
	mov	ecx, edx
	mov	r9d, DWORD PTR rgba$7[rbp]
	mov	r8d, eax
	mov	edx, ecx
	mov	rcx, QWORD PTR canv$[rbp]
	call	ChDrawPixel

; 212  : 			j++;

	mov	eax, DWORD PTR j$3[rbp]
	inc	eax
	mov	DWORD PTR j$3[rbp], eax

; 213  : 		}

	jmp	$LN8@DrawWallpa
$LN9@DrawWallpa:

; 214  : 	}

	jmp	$LN5@DrawWallpa
$LN6@DrawWallpa:

; 215  : 	
; 216  : 	_KeMemUnmap(data_, stat.size);

	mov	rdx, QWORD PTR stat$[rbp+8]
	mov	rcx, QWORD PTR data_$[rbp]
	call	_KeMemUnmap

; 217  : 	_KeCloseFile(image);

	mov	ecx, DWORD PTR image$[rbp]
	call	_KeCloseFile
$LN1@DrawWallpa:

; 218  : }

	lea	rsp, QWORD PTR [rbp+192]
	pop	rbp
	ret	0
?DrawWallpaper@@YAXPEAU_ChCanvas_@@PEADHH@Z ENDP	; DrawWallpaper
_TEXT	ENDS
; Function compile flags: /Odtp /ZI
; File C:\Users\paras\source\repos\grep-name\XenevaOS\Process\AudioPlayer\main.cpp
;	COMDAT ?ExitItemClicked@@YAXPEAU_ChWidget_@@PEAU_chwin_@@@Z
_TEXT	SEGMENT
wid$ = 80
win$ = 88
?ExitItemClicked@@YAXPEAU_ChWidget_@@PEAU_chwin_@@@Z PROC ; ExitItemClicked, COMDAT

; 176  : void ExitItemClicked(ChWidget* wid, ChWindow* win) {

$LN3:
	mov	QWORD PTR [rsp+16], rdx
	mov	QWORD PTR [rsp+8], rcx
	push	rbp
	sub	rsp, 96					; 00000060H
	lea	rbp, QWORD PTR [rsp+32]

; 177  : 	ChWindowCloseWindow(mainWin);

	mov	rcx, QWORD PTR ?mainWin@@3PEAU_chwin_@@EA ; mainWin
	call	ChWindowCloseWindow

; 178  : }

	lea	rsp, QWORD PTR [rbp+64]
	pop	rbp
	ret	0
?ExitItemClicked@@YAXPEAU_ChWidget_@@PEAU_chwin_@@@Z ENDP ; ExitItemClicked
_TEXT	ENDS
; Function compile flags: /Odtp /ZI
; File C:\Users\paras\source\repos\grep-name\XenevaOS\Process\AudioPlayer\main.cpp
;	COMDAT ?AboutClicked@@YAXPEAU_ChWidget_@@PEAU_chwin_@@@Z
_TEXT	SEGMENT
mb$ = 0
wid$ = 96
win$ = 104
?AboutClicked@@YAXPEAU_ChWidget_@@PEAU_chwin_@@@Z PROC	; AboutClicked, COMDAT

; 166  : void AboutClicked(ChWidget* wid, ChWindow* win) {

$LN3:
	mov	QWORD PTR [rsp+16], rdx
	mov	QWORD PTR [rsp+8], rcx
	push	rbp
	sub	rsp, 128				; 00000080H
	lea	rbp, QWORD PTR [rsp+48]

; 167  : 	ChMessageBox* mb = ChCreateMessageBox(mainWin, "Accent v1.0", "Accent Player v1.0 for XenevaOS !!", MSGBOX_TYPE_ONLYCLOSE, MSGBOX_ICON_SUCCESS);

	mov	BYTE PTR [rsp+32], 101			; 00000065H
	mov	r9b, 4
	lea	r8, OFFSET FLAT:??_C@_0CD@CCPBHJID@Accent?5Player?5v1?40?5for?5XenevaOS@
	lea	rdx, OFFSET FLAT:??_C@_0M@MDIENNJL@Accent?5v1?40@
	mov	rcx, QWORD PTR ?mainWin@@3PEAU_chwin_@@EA ; mainWin
	call	ChCreateMessageBox
	mov	QWORD PTR mb$[rbp], rax

; 168  : 	ChMessageBoxShow(mb);

	mov	rcx, QWORD PTR mb$[rbp]
	call	ChMessageBoxShow

; 169  : }

	lea	rsp, QWORD PTR [rbp+80]
	pop	rbp
	ret	0
?AboutClicked@@YAXPEAU_ChWidget_@@PEAU_chwin_@@@Z ENDP	; AboutClicked
_TEXT	ENDS
; Function compile flags: /Odtp /ZI
; File C:\Users\paras\source\repos\grep-name\XenevaOS\Process\AudioPlayer\main.cpp
;	COMDAT ?WindowHandleMessage@@YAXPEAU_post_event_@@@Z
_TEXT	SEGMENT
handle$1 = 0
mouseWin$2 = 8
pw$3 = 16
code$4 = 24
focus_val$5 = 28
handle$6 = 32
focWin$7 = 40
tv66 = 112
e$ = 144
?WindowHandleMessage@@YAXPEAU_post_event_@@@Z PROC	; WindowHandleMessage, COMDAT

; 133  : void WindowHandleMessage(PostEvent *e) {

$LN11:
	mov	QWORD PTR [rsp+8], rcx
	push	rbp
	sub	rsp, 160				; 000000a0H
	lea	rbp, QWORD PTR [rsp+32]

; 134  : 	switch (e->type) {

	mov	rax, QWORD PTR e$[rbp]
	movzx	eax, BYTE PTR [rax]
	mov	BYTE PTR tv66[rbp], al
	cmp	BYTE PTR tv66[rbp], 151			; 00000097H
	je	SHORT $LN4@WindowHand
	cmp	BYTE PTR tv66[rbp], 152			; 00000098H
	je	$LN8@WindowHand
	cmp	BYTE PTR tv66[rbp], 154			; 0000009aH
	je	$LN9@WindowHand
	jmp	$LN2@WindowHand
$LN4@WindowHand:

; 135  : 	/* handle mouse event from deodhai */
; 136  : 	case DEODHAI_REPLY_MOUSE_EVENT:{
; 137  : 									   int handle = e->dword4;

	mov	rax, QWORD PTR e$[rbp]
	mov	eax, DWORD PTR [rax+20]
	mov	DWORD PTR handle$1[rbp], eax

; 138  : 									   if (e->dword5 == WINDOW_HANDLE_TYPE_NORMAL){

	mov	rax, QWORD PTR e$[rbp]
	cmp	DWORD PTR [rax+24], 1
	jne	SHORT $LN5@WindowHand

; 139  : 										   ChWindow* mouseWin = ChGetWindowByHandle(mainWin, handle);

	mov	edx, DWORD PTR handle$1[rbp]
	mov	rcx, QWORD PTR ?mainWin@@3PEAU_chwin_@@EA ; mainWin
	call	ChGetWindowByHandle
	mov	QWORD PTR mouseWin$2[rbp], rax

; 140  : 										   ChWindowHandleMouse(mouseWin, e->dword, e->dword2, e->dword3);

	mov	rax, QWORD PTR e$[rbp]
	mov	r9d, DWORD PTR [rax+16]
	mov	rax, QWORD PTR e$[rbp]
	mov	r8d, DWORD PTR [rax+12]
	mov	rax, QWORD PTR e$[rbp]
	mov	edx, DWORD PTR [rax+8]
	mov	rcx, QWORD PTR mouseWin$2[rbp]
	call	ChWindowHandleMouse

; 141  : 									   }

	jmp	SHORT $LN6@WindowHand
$LN5@WindowHand:

; 142  : 									   else if (e->dword5 == WINDOW_HANDLE_TYPE_POPUP) {

	mov	rax, QWORD PTR e$[rbp]
	cmp	DWORD PTR [rax+24], 2
	jne	SHORT $LN7@WindowHand

; 143  : 										   ChWindow* pw = ChGetPopupWindowByHandle(mainWin, handle);

	mov	edx, DWORD PTR handle$1[rbp]
	mov	rcx, QWORD PTR ?mainWin@@3PEAU_chwin_@@EA ; mainWin
	call	ChGetPopupWindowByHandle
	mov	QWORD PTR pw$3[rbp], rax

; 144  : 										   ChPopupWindowHandleMouse(pw, e->dword, e->dword2, e->dword3);

	mov	rax, QWORD PTR e$[rbp]
	mov	r9d, DWORD PTR [rax+16]
	mov	rax, QWORD PTR e$[rbp]
	mov	r8d, DWORD PTR [rax+12]
	mov	rax, QWORD PTR e$[rbp]
	mov	edx, DWORD PTR [rax+8]
	mov	rcx, QWORD PTR pw$3[rbp]
	call	ChPopupWindowHandleMouse
$LN7@WindowHand:
$LN6@WindowHand:

; 145  : 									   }
; 146  : 									   memset(e, 0, sizeof(PostEvent));

	mov	r8d, 176				; 000000b0H
	xor	edx, edx
	mov	rcx, QWORD PTR e$[rbp]
	call	memset

; 147  : 									   break;

	jmp	SHORT $LN2@WindowHand
$LN8@WindowHand:

; 148  : 	}
; 149  : 		/* handle key events from deodhai */
; 150  : 	case DEODHAI_REPLY_KEY_EVENT:{
; 151  : 									 int code = e->dword;

	mov	rax, QWORD PTR e$[rbp]
	mov	eax, DWORD PTR [rax+8]
	mov	DWORD PTR code$4[rbp], eax

; 152  : 									 memset(e, 0, sizeof(PostEvent));

	mov	r8d, 176				; 000000b0H
	xor	edx, edx
	mov	rcx, QWORD PTR e$[rbp]
	call	memset

; 153  : 									 break;

	jmp	SHORT $LN2@WindowHand
$LN9@WindowHand:

; 154  : 	}
; 155  : 	case DEODHAI_REPLY_FOCUS_CHANGED:{
; 156  : 										 int focus_val = e->dword;

	mov	rax, QWORD PTR e$[rbp]
	mov	eax, DWORD PTR [rax+8]
	mov	DWORD PTR focus_val$5[rbp], eax

; 157  : 										 int handle = e->dword2;

	mov	rax, QWORD PTR e$[rbp]
	mov	eax, DWORD PTR [rax+12]
	mov	DWORD PTR handle$6[rbp], eax

; 158  : 										 ChWindow* focWin = ChGetWindowByHandle(mainWin, handle);

	mov	edx, DWORD PTR handle$6[rbp]
	mov	rcx, QWORD PTR ?mainWin@@3PEAU_chwin_@@EA ; mainWin
	call	ChGetWindowByHandle
	mov	QWORD PTR focWin$7[rbp], rax

; 159  : 										 ChWindowHandleFocus(focWin, focus_val, handle);

	mov	r8d, DWORD PTR handle$6[rbp]
	movzx	edx, BYTE PTR focus_val$5[rbp]
	mov	rcx, QWORD PTR focWin$7[rbp]
	call	ChWindowHandleFocus

; 160  : 										 memset(e, 0, sizeof(PostEvent));

	mov	r8d, 176				; 000000b0H
	xor	edx, edx
	mov	rcx, QWORD PTR e$[rbp]
	call	memset
$LN2@WindowHand:

; 161  : 										 break;
; 162  : 	}
; 163  : 	}
; 164  : }

	lea	rsp, QWORD PTR [rbp+128]
	pop	rbp
	ret	0
?WindowHandleMessage@@YAXPEAU_post_event_@@@Z ENDP	; WindowHandleMessage
_TEXT	ENDS
; Function compile flags: /Odtp /ZI
; File C:\Users\paras\source\repos\grep-name\XenevaOS\Process\AudioPlayer\main.cpp
;	COMDAT ?PlayerThread@@YAXXZ
_TEXT	SEGMENT
stat$ = 0
?PlayerThread@@YAXXZ PROC				; PlayerThread, COMDAT

; 101  : void PlayerThread() {

$LN9:
	push	rbp
	sub	rsp, 144				; 00000090H
	lea	rbp, QWORD PTR [rsp+32]

; 102  : 	/* register the sound */
; 103  : 	RegisterSound();

	call	?RegisterSound@@YAXXZ			; RegisterSound

; 104  : 	XEFileStatus stat;
; 105  : 	memset(&stat, 0, sizeof(XEFileStatus));

	mov	r8d, 40					; 00000028H
	xor	edx, edx
	lea	rcx, QWORD PTR stat$[rbp]
	call	memset
$LN2@PlayerThre:

; 106  : 	while (1) {

	xor	eax, eax
	cmp	eax, 1
	je	$LN3@PlayerThre

; 107  : 		/*
; 108  : 		 * _start_player expects its sound file to be
; 109  : 		 * ready i.e its already opened 
; 110  : 		 */
; 111  : 		if (_start_player) {

	movsx	eax, BYTE PTR ?_start_player@@3DA	; _start_player
	test	eax, eax
	je	SHORT $LN4@PlayerThre

; 112  : 			_KeFileStat(_file, &stat);

	lea	rdx, QWORD PTR stat$[rbp]
	mov	ecx, DWORD PTR ?_file@@3HA		; _file
	call	_KeFileStat

; 113  : 			if (stat.eof) {

	movzx	eax, BYTE PTR stat$[rbp+36]
	test	eax, eax
	je	SHORT $LN5@PlayerThre

; 114  : 				_KeCloseFile(_file);

	mov	ecx, DWORD PTR ?_file@@3HA		; _file
	call	_KeCloseFile

; 115  : 				_start_player = false;

	mov	BYTE PTR ?_start_player@@3DA, 0		; _start_player

; 116  : 			}

	jmp	SHORT $LN6@PlayerThre
$LN5@PlayerThre:

; 117  : 			else{
; 118  : 				_KeReadFile(_file, soundbuff, 4096);

	mov	r8d, 4096				; 00001000H
	mov	rdx, QWORD PTR ?soundbuff@@3PEAXEA	; soundbuff
	mov	ecx, DWORD PTR ?_file@@3HA		; _file
	call	_KeReadFile

; 119  : 				_KeWriteFile(snd, soundbuff, 4096);

	mov	r8d, 4096				; 00001000H
	mov	rdx, QWORD PTR ?soundbuff@@3PEAXEA	; soundbuff
	mov	ecx, DWORD PTR ?snd@@3HA		; snd
	call	_KeWriteFile
$LN6@PlayerThre:
$LN4@PlayerThre:

; 120  : 			}
; 121  : 		}
; 122  : 
; 123  : 		if (!_start_player) 

	movsx	eax, BYTE PTR ?_start_player@@3DA	; _start_player
	test	eax, eax
	jne	SHORT $LN7@PlayerThre

; 124  : 			_KeProcessSleep(1000);

	mov	ecx, 1000				; 000003e8H
	call	_KeProcessSleep
$LN7@PlayerThre:

; 125  : 	}

	jmp	$LN2@PlayerThre
$LN3@PlayerThre:

; 126  : }

	lea	rsp, QWORD PTR [rbp+112]
	pop	rbp
	ret	0
?PlayerThread@@YAXXZ ENDP				; PlayerThread
_TEXT	ENDS
; Function compile flags: /Odtp /ZI
; File C:\Users\paras\source\repos\grep-name\XenevaOS\Process\AudioPlayer\main.cpp
;	COMDAT ?RegisterSound@@YAXXZ
_TEXT	SEGMENT
ioctl$ = 8
?RegisterSound@@YAXXZ PROC				; RegisterSound, COMDAT

; 75   : void RegisterSound() {

$LN3:
	push	rbp
	sub	rsp, 144				; 00000090H
	lea	rbp, QWORD PTR [rsp+32]

; 76   : 
; 77   : 	/* open the sound device-file, it is in /dev directory */
; 78   : 	snd = _KeOpenFile("/dev/sound", FILE_OPEN_WRITE);

	mov	edx, 4
	lea	rcx, OFFSET FLAT:??_C@_0L@JFMDADFF@?1dev?1sound@
	call	_KeOpenFile
	mov	DWORD PTR ?snd@@3HA, eax		; snd

; 79   : 
; 80   : 	char test[2];
; 81   : 	/* allocate an ioctl structure where required information
; 82   : 	* will be putted */
; 83   : 	XEFileIOControl ioctl;
; 84   : 	
; 85   : 	memset(&ioctl, 0, sizeof(XEFileIOControl));

	mov	r8d, 40					; 00000028H
	xor	edx, edx
	lea	rcx, QWORD PTR ioctl$[rbp]
	call	memset

; 86   : 
; 87   : 	/* uint_1 holds the millisecond to sleep after
; 88   : 	* one frame playback */
; 89   : 	ioctl.uint_1 = 0;

	mov	DWORD PTR ioctl$[rbp+12], 0

; 90   : 
; 91   : 	/* most important aurora_syscall_magic number, without
; 92   : 	* this, iocontrol system call will not work */
; 93   : 	ioctl.syscall_magic = AURORA_SYSCALL_MAGIC;

	mov	DWORD PTR ioctl$[rbp], 352722979	; 15062023H

; 94   : 
; 95   : 	/* register the app to sound layer, as it will create
; 96   : 	* a private dsp-box for this app */
; 97   : 	_KeFileIoControl(snd, SOUND_REGISTER_SNDPLR, &ioctl);

	lea	r8, QWORD PTR ioctl$[rbp]
	mov	edx, 100				; 00000064H
	mov	ecx, DWORD PTR ?snd@@3HA		; snd
	call	_KeFileIoControl

; 98   : }

	lea	rsp, QWORD PTR [rbp+112]
	pop	rbp
	ret	0
?RegisterSound@@YAXXZ ENDP				; RegisterSound
_TEXT	ENDS
; Function compile flags: /Odtp /ZI
; File C:\Users\paras\source\repos\grep-name\XenevaOS\Process\AudioPlayer\minimp4.h
;	COMDAT ?MP4D_read_spspps@@YAPEBXPEBUMP4D_demux_tag@@IHHPEAH@Z
_TEXT	SEGMENT
sps_count$ = 0
skip_bytes$ = 4
bytepos$ = 8
p$ = 16
mp4$ = 112
ntrack$ = 120
pps_flag$ = 128
nsps$ = 136
sps_bytes$ = 144
?MP4D_read_spspps@@YAPEBXPEBUMP4D_demux_tag@@IHHPEAH@Z PROC ; MP4D_read_spspps, COMDAT

; 3349 : {

	mov	DWORD PTR [rsp+32], r9d
	mov	DWORD PTR [rsp+24], r8d
	mov	DWORD PTR [rsp+16], edx
	mov	QWORD PTR [rsp+8], rcx
	push	rbp
	sub	rsp, 128				; 00000080H
	lea	rbp, QWORD PTR [rsp+32]

; 3350 :     int sps_count, skip_bytes;
; 3351 :     int bytepos = 0;

	mov	DWORD PTR bytepos$[rbp], 0

; 3352 :     unsigned char* p = mp4->track[ntrack].dsi;

	mov	eax, DWORD PTR ntrack$[rbp]
	imul	rax, rax, 120				; 00000078H
	mov	rcx, QWORD PTR mp4$[rbp]
	mov	rcx, QWORD PTR [rcx+16]
	mov	rax, QWORD PTR [rcx+rax+8]
	mov	QWORD PTR p$[rbp], rax

; 3353 :     if (ntrack >= mp4->track_count)

	mov	rax, QWORD PTR mp4$[rbp]
	mov	eax, DWORD PTR [rax+40]
	cmp	DWORD PTR ntrack$[rbp], eax
	jb	SHORT $LN2@MP4D_read_

; 3354 :         return NULL;

	xor	eax, eax
	jmp	$LN1@MP4D_read_
$LN2@MP4D_read_:

; 3355 :     if (mp4->track[ntrack].object_type_indication != MP4_OBJECT_TYPE_AVC)

	mov	eax, DWORD PTR ntrack$[rbp]
	imul	rax, rax, 120				; 00000078H
	mov	rcx, QWORD PTR mp4$[rbp]
	mov	rcx, QWORD PTR [rcx+16]
	cmp	DWORD PTR [rcx+rax+20], 33		; 00000021H
	je	SHORT $LN3@MP4D_read_

; 3356 :         return NULL;    // SPS/PPS are specific for AVC format only

	xor	eax, eax
	jmp	$LN1@MP4D_read_
$LN3@MP4D_read_:

; 3357 : 
; 3358 :     if (pps_flag)

	cmp	DWORD PTR pps_flag$[rbp], 0
	je	SHORT $LN4@MP4D_read_

; 3359 :     {
; 3360 :         // Skip all SPS
; 3361 :         sps_count = p[bytepos++];

	movsxd	rax, DWORD PTR bytepos$[rbp]
	mov	rcx, QWORD PTR p$[rbp]
	movzx	eax, BYTE PTR [rcx+rax]
	mov	DWORD PTR sps_count$[rbp], eax
	mov	eax, DWORD PTR bytepos$[rbp]
	inc	eax
	mov	DWORD PTR bytepos$[rbp], eax

; 3362 :         skip_bytes = skip_spspps(p + bytepos, mp4->track[ntrack].dsi_bytes - bytepos, sps_count);

	mov	eax, DWORD PTR ntrack$[rbp]
	imul	rax, rax, 120				; 00000078H
	mov	rcx, QWORD PTR mp4$[rbp]
	mov	rcx, QWORD PTR [rcx+16]
	mov	edx, DWORD PTR bytepos$[rbp]
	mov	eax, DWORD PTR [rcx+rax+16]
	sub	eax, edx
	movsxd	rcx, DWORD PTR bytepos$[rbp]
	mov	rdx, QWORD PTR p$[rbp]
	add	rdx, rcx
	mov	rcx, rdx
	mov	r8d, DWORD PTR sps_count$[rbp]
	mov	edx, eax
	call	?skip_spspps@@YAHPEBEHH@Z		; skip_spspps
	mov	DWORD PTR skip_bytes$[rbp], eax

; 3363 :         if (skip_bytes < 0)

	cmp	DWORD PTR skip_bytes$[rbp], 0
	jge	SHORT $LN5@MP4D_read_

; 3364 :             return NULL;

	xor	eax, eax
	jmp	$LN1@MP4D_read_
$LN5@MP4D_read_:

; 3365 :         bytepos += skip_bytes;

	mov	eax, DWORD PTR skip_bytes$[rbp]
	mov	ecx, DWORD PTR bytepos$[rbp]
	add	ecx, eax
	mov	eax, ecx
	mov	DWORD PTR bytepos$[rbp], eax
$LN4@MP4D_read_:

; 3366 :     }
; 3367 : 
; 3368 :     // Skip sps/pps before the given target
; 3369 :     sps_count = p[bytepos++];

	movsxd	rax, DWORD PTR bytepos$[rbp]
	mov	rcx, QWORD PTR p$[rbp]
	movzx	eax, BYTE PTR [rcx+rax]
	mov	DWORD PTR sps_count$[rbp], eax
	mov	eax, DWORD PTR bytepos$[rbp]
	inc	eax
	mov	DWORD PTR bytepos$[rbp], eax

; 3370 :     if (nsps >= sps_count)

	mov	eax, DWORD PTR sps_count$[rbp]
	cmp	DWORD PTR nsps$[rbp], eax
	jl	SHORT $LN6@MP4D_read_

; 3371 :         return NULL;

	xor	eax, eax
	jmp	$LN1@MP4D_read_
$LN6@MP4D_read_:

; 3372 :     skip_bytes = skip_spspps(p + bytepos, mp4->track[ntrack].dsi_bytes - bytepos, nsps);

	mov	eax, DWORD PTR ntrack$[rbp]
	imul	rax, rax, 120				; 00000078H
	mov	rcx, QWORD PTR mp4$[rbp]
	mov	rcx, QWORD PTR [rcx+16]
	mov	edx, DWORD PTR bytepos$[rbp]
	mov	eax, DWORD PTR [rcx+rax+16]
	sub	eax, edx
	movsxd	rcx, DWORD PTR bytepos$[rbp]
	mov	rdx, QWORD PTR p$[rbp]
	add	rdx, rcx
	mov	rcx, rdx
	mov	r8d, DWORD PTR nsps$[rbp]
	mov	edx, eax
	call	?skip_spspps@@YAHPEBEHH@Z		; skip_spspps
	mov	DWORD PTR skip_bytes$[rbp], eax

; 3373 :     if (skip_bytes < 0)

	cmp	DWORD PTR skip_bytes$[rbp], 0
	jge	SHORT $LN7@MP4D_read_

; 3374 :         return NULL;

	xor	eax, eax
	jmp	SHORT $LN1@MP4D_read_
$LN7@MP4D_read_:

; 3375 :     bytepos += skip_bytes;

	mov	eax, DWORD PTR skip_bytes$[rbp]
	mov	ecx, DWORD PTR bytepos$[rbp]
	add	ecx, eax
	mov	eax, ecx
	mov	DWORD PTR bytepos$[rbp], eax

; 3376 :     *sps_bytes = p[bytepos] * 256 + p[bytepos + 1];

	movsxd	rax, DWORD PTR bytepos$[rbp]
	mov	rcx, QWORD PTR p$[rbp]
	movzx	eax, BYTE PTR [rcx+rax]
	imul	eax, eax, 256				; 00000100H
	mov	ecx, DWORD PTR bytepos$[rbp]
	inc	ecx
	movsxd	rcx, ecx
	mov	rdx, QWORD PTR p$[rbp]
	movzx	ecx, BYTE PTR [rdx+rcx]
	add	eax, ecx
	mov	rcx, QWORD PTR sps_bytes$[rbp]
	mov	DWORD PTR [rcx], eax

; 3377 :     return p + bytepos + 2;

	movsxd	rax, DWORD PTR bytepos$[rbp]
	mov	rcx, QWORD PTR p$[rbp]
	lea	rax, QWORD PTR [rcx+rax+2]
$LN1@MP4D_read_:

; 3378 : }

	lea	rsp, QWORD PTR [rbp+96]
	pop	rbp
	ret	0
?MP4D_read_spspps@@YAPEBXPEBUMP4D_demux_tag@@IHHPEAH@Z ENDP ; MP4D_read_spspps
_TEXT	ENDS
; Function compile flags: /Odtp /ZI
; File C:\Users\paras\source\repos\grep-name\XenevaOS\Process\AudioPlayer\minimp4.h
;	COMDAT ?skip_spspps@@YAHPEBEHH@Z
_TEXT	SEGMENT
i$ = 0
k$ = 4
segmbytes$1 = 8
p$ = 96
nbytes$ = 104
nskip$ = 112
?skip_spspps@@YAHPEBEHH@Z PROC				; skip_spspps, COMDAT

; 3335 : {

	mov	DWORD PTR [rsp+24], r8d
	mov	DWORD PTR [rsp+16], edx
	mov	QWORD PTR [rsp+8], rcx
	push	rbp
	sub	rsp, 80					; 00000050H
	mov	rbp, rsp

; 3336 :     int i, k = 0;

	mov	DWORD PTR k$[rbp], 0

; 3337 :     for (i = 0; i < nskip; i++)

	mov	DWORD PTR i$[rbp], 0
	jmp	SHORT $LN4@skip_spspp
$LN2@skip_spspp:
	mov	eax, DWORD PTR i$[rbp]
	inc	eax
	mov	DWORD PTR i$[rbp], eax
$LN4@skip_spspp:
	mov	eax, DWORD PTR nskip$[rbp]
	cmp	DWORD PTR i$[rbp], eax
	jge	SHORT $LN3@skip_spspp

; 3338 :     {
; 3339 :         unsigned segmbytes;
; 3340 :         if (k > nbytes - 2)

	mov	eax, DWORD PTR nbytes$[rbp]
	sub	eax, 2
	cmp	DWORD PTR k$[rbp], eax
	jle	SHORT $LN5@skip_spspp

; 3341 :             return -1;

	mov	eax, -1
	jmp	SHORT $LN1@skip_spspp
$LN5@skip_spspp:

; 3342 :         segmbytes = p[k] * 256 + p[k + 1];

	movsxd	rax, DWORD PTR k$[rbp]
	mov	rcx, QWORD PTR p$[rbp]
	movzx	eax, BYTE PTR [rcx+rax]
	imul	eax, eax, 256				; 00000100H
	mov	ecx, DWORD PTR k$[rbp]
	inc	ecx
	movsxd	rcx, ecx
	mov	rdx, QWORD PTR p$[rbp]
	movzx	ecx, BYTE PTR [rdx+rcx]
	add	eax, ecx
	mov	DWORD PTR segmbytes$1[rbp], eax

; 3343 :         k += 2 + segmbytes;

	mov	eax, DWORD PTR k$[rbp]
	mov	ecx, DWORD PTR segmbytes$1[rbp]
	lea	eax, DWORD PTR [rax+rcx+2]
	mov	DWORD PTR k$[rbp], eax

; 3344 :     }

	jmp	SHORT $LN2@skip_spspp
$LN3@skip_spspp:

; 3345 :     return k;

	mov	eax, DWORD PTR k$[rbp]
$LN1@skip_spspp:

; 3346 : }

	lea	rsp, QWORD PTR [rbp+80]
	pop	rbp
	ret	0
?skip_spspps@@YAHPEBEHH@Z ENDP				; skip_spspps
_TEXT	ENDS
; Function compile flags: /Odtp /ZI
; File C:\Users\paras\source\repos\grep-name\XenevaOS\Process\AudioPlayer\minimp4.h
;	COMDAT ?sample_to_chunk@@YAHPEAUMP4D_track_t@@IPEAI@Z
_TEXT	SEGMENT
chunk_group$ = 0
nc$ = 4
sum$ = 8
tr$ = 96
nsample$ = 104
nfirst_sample_in_chunk$ = 112
?sample_to_chunk@@YAHPEAUMP4D_track_t@@IPEAI@Z PROC	; sample_to_chunk, COMDAT

; 3237 : {

	mov	QWORD PTR [rsp+24], r8
	mov	DWORD PTR [rsp+16], edx
	mov	QWORD PTR [rsp+8], rcx
	push	rbp
	sub	rsp, 80					; 00000050H
	mov	rbp, rsp

; 3238 :     unsigned chunk_group = 0, nc;

	mov	DWORD PTR chunk_group$[rbp], 0

; 3239 :     unsigned sum = 0;

	mov	DWORD PTR sum$[rbp], 0

; 3240 :     *nfirst_sample_in_chunk = 0;

	mov	rax, QWORD PTR nfirst_sample_in_chunk$[rbp]
	mov	DWORD PTR [rax], 0

; 3241 :     if (tr->chunk_count <= 1)

	mov	rax, QWORD PTR tr$[rbp]
	cmp	DWORD PTR [rax+88], 1
	ja	SHORT $LN5@sample_to_

; 3242 :     {
; 3243 :         return 0;

	xor	eax, eax
	jmp	$LN1@sample_to_
$LN5@sample_to_:

; 3244 :     }
; 3245 :     for (nc = 0; nc < tr->chunk_count; nc++)

	mov	DWORD PTR nc$[rbp], 0
	jmp	SHORT $LN4@sample_to_
$LN2@sample_to_:
	mov	eax, DWORD PTR nc$[rbp]
	inc	eax
	mov	DWORD PTR nc$[rbp], eax
$LN4@sample_to_:
	mov	rax, QWORD PTR tr$[rbp]
	mov	eax, DWORD PTR [rax+88]
	cmp	DWORD PTR nc$[rbp], eax
	jae	SHORT $LN3@sample_to_

; 3246 :     {
; 3247 :         if (chunk_group + 1 < tr->sample_to_chunk_count     // stuck at last entry till EOF
; 3248 :             && nc + 1 ==    // Chunks counted starting with '1'

	mov	eax, DWORD PTR chunk_group$[rbp]
	inc	eax
	mov	rcx, QWORD PTR tr$[rbp]
	cmp	eax, DWORD PTR [rcx+72]
	jae	SHORT $LN6@sample_to_
	mov	eax, DWORD PTR nc$[rbp]
	inc	eax
	mov	ecx, DWORD PTR chunk_group$[rbp]
	inc	ecx
	mov	ecx, ecx
	mov	rdx, QWORD PTR tr$[rbp]
	mov	rdx, QWORD PTR [rdx+80]
	cmp	eax, DWORD PTR [rdx+rcx*8]
	jne	SHORT $LN6@sample_to_

; 3249 :             tr->sample_to_chunk[chunk_group + 1].first_chunk)    // next group?
; 3250 :         {
; 3251 :             chunk_group++;

	mov	eax, DWORD PTR chunk_group$[rbp]
	inc	eax
	mov	DWORD PTR chunk_group$[rbp], eax
$LN6@sample_to_:

; 3252 :         }
; 3253 : 
; 3254 :         sum += tr->sample_to_chunk[chunk_group].samples_per_chunk;

	mov	eax, DWORD PTR chunk_group$[rbp]
	mov	rcx, QWORD PTR tr$[rbp]
	mov	rcx, QWORD PTR [rcx+80]
	mov	eax, DWORD PTR [rcx+rax*8+4]
	mov	ecx, DWORD PTR sum$[rbp]
	add	ecx, eax
	mov	eax, ecx
	mov	DWORD PTR sum$[rbp], eax

; 3255 :         if (nsample < sum)

	mov	eax, DWORD PTR sum$[rbp]
	cmp	DWORD PTR nsample$[rbp], eax
	jae	SHORT $LN7@sample_to_

; 3256 :             return nc;

	mov	eax, DWORD PTR nc$[rbp]
	jmp	SHORT $LN1@sample_to_
$LN7@sample_to_:

; 3257 : 
; 3258 :         // TODO: this can be calculated once per file
; 3259 :         *nfirst_sample_in_chunk = sum;

	mov	rax, QWORD PTR nfirst_sample_in_chunk$[rbp]
	mov	ecx, DWORD PTR sum$[rbp]
	mov	DWORD PTR [rax], ecx

; 3260 :     }

	jmp	SHORT $LN2@sample_to_
$LN3@sample_to_:

; 3261 :     return -1;

	mov	eax, -1
$LN1@sample_to_:

; 3262 : }

	lea	rsp, QWORD PTR [rbp+80]
	pop	rbp
	ret	0
?sample_to_chunk@@YAHPEAUMP4D_track_t@@IPEAI@Z ENDP	; sample_to_chunk
_TEXT	ENDS
; Function compile flags: /Odtp /ZI
; File C:\Users\paras\source\repos\grep-name\XenevaOS\Process\AudioPlayer\minimp4.h
;	COMDAT ?my_fseek@@YAXPEAUMP4D_demux_tag@@_KPEAH@Z
_TEXT	SEGMENT
mp4$ = 80
pos$ = 88
eof_flag$ = 96
?my_fseek@@YAXPEAUMP4D_demux_tag@@_KPEAH@Z PROC		; my_fseek, COMDAT

; 2538 : {

	mov	QWORD PTR [rsp+24], r8
	mov	QWORD PTR [rsp+16], rdx
	mov	QWORD PTR [rsp+8], rcx
	push	rbp
	sub	rsp, 64					; 00000040H
	mov	rbp, rsp

; 2539 :     mp4->read_pos += pos;

	mov	rax, QWORD PTR mp4$[rbp]
	mov	rax, QWORD PTR [rax]
	add	rax, QWORD PTR pos$[rbp]
	mov	rcx, QWORD PTR mp4$[rbp]
	mov	QWORD PTR [rcx], rax

; 2540 :     if (mp4->read_pos >= mp4->read_size)

	mov	rax, QWORD PTR mp4$[rbp]
	mov	rcx, QWORD PTR mp4$[rbp]
	mov	rcx, QWORD PTR [rcx+8]
	cmp	QWORD PTR [rax], rcx
	jl	SHORT $LN2@my_fseek

; 2541 :         *eof_flag = 1;

	mov	rax, QWORD PTR eof_flag$[rbp]
	mov	DWORD PTR [rax], 1
$LN2@my_fseek:

; 2542 : }

	lea	rsp, QWORD PTR [rbp+64]
	pop	rbp
	ret	0
?my_fseek@@YAXPEAUMP4D_demux_tag@@_KPEAH@Z ENDP		; my_fseek
_TEXT	ENDS
; Function compile flags: /Odtp /ZI
; File C:\Users\paras\source\repos\grep-name\XenevaOS\Process\AudioPlayer\minimp4.h
;	COMDAT ?read_payload@@YAIPEAUMP4D_demux_tag@@IPEA_KPEAH@Z
_TEXT	SEGMENT
mp4$ = 80
nb$ = 88
payload_bytes$ = 96
eof_flag$ = 104
?read_payload@@YAIPEAUMP4D_demux_tag@@IPEA_KPEAH@Z PROC	; read_payload, COMDAT

; 2522 : {

	mov	QWORD PTR [rsp+32], r9
	mov	QWORD PTR [rsp+24], r8
	mov	DWORD PTR [rsp+16], edx
	mov	QWORD PTR [rsp+8], rcx
	push	rbp
	sub	rsp, 96					; 00000060H
	lea	rbp, QWORD PTR [rsp+32]

; 2523 :     if (*payload_bytes < nb)

	mov	eax, DWORD PTR nb$[rbp]
	mov	rcx, QWORD PTR payload_bytes$[rbp]
	cmp	QWORD PTR [rcx], rax
	jae	SHORT $LN2@read_paylo

; 2524 :     {
; 2525 :         *eof_flag = 1;

	mov	rax, QWORD PTR eof_flag$[rbp]
	mov	DWORD PTR [rax], 1

; 2526 :         nb = (int)*payload_bytes;

	mov	rax, QWORD PTR payload_bytes$[rbp]
	mov	eax, DWORD PTR [rax]
	mov	DWORD PTR nb$[rbp], eax
$LN2@read_paylo:

; 2527 :     }
; 2528 :     *payload_bytes -= nb;

	mov	eax, DWORD PTR nb$[rbp]
	mov	rcx, QWORD PTR payload_bytes$[rbp]
	mov	rcx, QWORD PTR [rcx]
	sub	rcx, rax
	mov	rax, rcx
	mov	rcx, QWORD PTR payload_bytes$[rbp]
	mov	QWORD PTR [rcx], rax

; 2529 : 
; 2530 :     return minimp4_read(mp4, nb, eof_flag);

	mov	r8, QWORD PTR eof_flag$[rbp]
	mov	edx, DWORD PTR nb$[rbp]
	mov	rcx, QWORD PTR mp4$[rbp]
	call	?minimp4_read@@YAIPEAUMP4D_demux_tag@@HPEAH@Z ; minimp4_read

; 2531 : }

	lea	rsp, QWORD PTR [rbp+64]
	pop	rbp
	ret	0
?read_payload@@YAIPEAUMP4D_demux_tag@@IPEA_KPEAH@Z ENDP	; read_payload
_TEXT	ENDS
; Function compile flags: /Odtp /ZI
; File C:\Users\paras\source\repos\grep-name\XenevaOS\Process\AudioPlayer\minimp4.h
;	COMDAT ?minimp4_read@@YAIPEAUMP4D_demux_tag@@HPEAH@Z
_TEXT	SEGMENT
v$ = 0
last_byte$ = 4
tv73 = 72
tv69 = 72
tv65 = 72
tv64 = 72
mp4$ = 96
nb$ = 104
eof_flag$ = 112
?minimp4_read@@YAIPEAUMP4D_demux_tag@@HPEAH@Z PROC	; minimp4_read, COMDAT

; 2500 : {

	mov	QWORD PTR [rsp+24], r8
	mov	DWORD PTR [rsp+16], edx
	mov	QWORD PTR [rsp+8], rcx
	push	rbp
	sub	rsp, 112				; 00000070H
	lea	rbp, QWORD PTR [rsp+32]

; 2501 :     uint32_t v = 0; int last_byte;

	mov	DWORD PTR v$[rbp], 0

; 2502 :     switch (nb)

	mov	eax, DWORD PTR nb$[rbp]
	mov	DWORD PTR tv64[rbp], eax
	cmp	DWORD PTR tv64[rbp], 1
	je	SHORT $LN8@minimp4_re
	cmp	DWORD PTR tv64[rbp], 2
	je	SHORT $LN6@minimp4_re
	cmp	DWORD PTR tv64[rbp], 3
	je	SHORT $LN5@minimp4_re
	cmp	DWORD PTR tv64[rbp], 4
	je	SHORT $LN4@minimp4_re
	jmp	SHORT $LN7@minimp4_re
$LN4@minimp4_re:

; 2503 :     {
; 2504 :     case 4: v = (v << 8) | minimp4_fgets(mp4);

	mov	eax, DWORD PTR v$[rbp]
	shl	eax, 8
	mov	DWORD PTR tv65[rbp], eax
	mov	rcx, QWORD PTR mp4$[rbp]
	call	?minimp4_fgets@@YAHPEAUMP4D_demux_tag@@@Z ; minimp4_fgets
	mov	ecx, DWORD PTR tv65[rbp]
	or	ecx, eax
	mov	eax, ecx
	mov	DWORD PTR v$[rbp], eax
$LN5@minimp4_re:

; 2505 :     case 3: v = (v << 8) | minimp4_fgets(mp4);

	mov	eax, DWORD PTR v$[rbp]
	shl	eax, 8
	mov	DWORD PTR tv69[rbp], eax
	mov	rcx, QWORD PTR mp4$[rbp]
	call	?minimp4_fgets@@YAHPEAUMP4D_demux_tag@@@Z ; minimp4_fgets
	mov	ecx, DWORD PTR tv69[rbp]
	or	ecx, eax
	mov	eax, ecx
	mov	DWORD PTR v$[rbp], eax
$LN6@minimp4_re:

; 2506 :     case 2: v = (v << 8) | minimp4_fgets(mp4);

	mov	eax, DWORD PTR v$[rbp]
	shl	eax, 8
	mov	DWORD PTR tv73[rbp], eax
	mov	rcx, QWORD PTR mp4$[rbp]
	call	?minimp4_fgets@@YAHPEAUMP4D_demux_tag@@@Z ; minimp4_fgets
	mov	ecx, DWORD PTR tv73[rbp]
	or	ecx, eax
	mov	eax, ecx
	mov	DWORD PTR v$[rbp], eax
$LN7@minimp4_re:
$LN8@minimp4_re:

; 2507 :     default:
; 2508 :     case 1: v = (v << 8) | (last_byte = minimp4_fgets(mp4));

	mov	rcx, QWORD PTR mp4$[rbp]
	call	?minimp4_fgets@@YAHPEAUMP4D_demux_tag@@@Z ; minimp4_fgets
	mov	DWORD PTR last_byte$[rbp], eax
	mov	eax, DWORD PTR v$[rbp]
	shl	eax, 8
	or	eax, DWORD PTR last_byte$[rbp]
	mov	DWORD PTR v$[rbp], eax

; 2509 :     }
; 2510 :     if (last_byte < 0)

	cmp	DWORD PTR last_byte$[rbp], 0
	jge	SHORT $LN9@minimp4_re

; 2511 :     {
; 2512 :         *eof_flag = 1;

	mov	rax, QWORD PTR eof_flag$[rbp]
	mov	DWORD PTR [rax], 1
$LN9@minimp4_re:

; 2513 :     }
; 2514 :     return v;

	mov	eax, DWORD PTR v$[rbp]

; 2515 : }

	lea	rsp, QWORD PTR [rbp+80]
	pop	rbp
	ret	0
?minimp4_read@@YAIPEAUMP4D_demux_tag@@HPEAH@Z ENDP	; minimp4_read
_TEXT	ENDS
; Function compile flags: /Odtp /ZI
; File C:\Users\paras\source\repos\grep-name\XenevaOS\Process\AudioPlayer\minimp4.h
;	COMDAT ?minimp4_fgets@@YAHPEAUMP4D_demux_tag@@@Z
_TEXT	SEGMENT
c$ = 0
mp4$ = 96
?minimp4_fgets@@YAHPEAUMP4D_demux_tag@@@Z PROC		; minimp4_fgets, COMDAT

; 2487 : {

	mov	QWORD PTR [rsp+8], rcx
	push	rbp
	sub	rsp, 112				; 00000070H
	lea	rbp, QWORD PTR [rsp+32]

; 2488 :     uint8_t c;
; 2489 :     if (mp4->read_callback(mp4->read_pos, &c, 1, mp4->token))

	mov	rax, QWORD PTR mp4$[rbp]
	mov	r9, QWORD PTR [rax+32]
	mov	r8d, 1
	lea	rdx, QWORD PTR c$[rbp]
	mov	rax, QWORD PTR mp4$[rbp]
	mov	rcx, QWORD PTR [rax]
	mov	rax, QWORD PTR mp4$[rbp]
	call	QWORD PTR [rax+24]
	test	eax, eax
	je	SHORT $LN2@minimp4_fg

; 2490 :         return -1;

	mov	eax, -1
	jmp	SHORT $LN1@minimp4_fg
$LN2@minimp4_fg:

; 2491 :     mp4->read_pos++;

	mov	rax, QWORD PTR mp4$[rbp]
	mov	rax, QWORD PTR [rax]
	inc	rax
	mov	rcx, QWORD PTR mp4$[rbp]
	mov	QWORD PTR [rcx], rax

; 2492 :     return c;

	movzx	eax, BYTE PTR c$[rbp]
$LN1@minimp4_fg:

; 2493 : }

	lea	rsp, QWORD PTR [rbp+80]
	pop	rbp
	ret	0
?minimp4_fgets@@YAHPEAUMP4D_demux_tag@@@Z ENDP		; minimp4_fgets
_TEXT	ENDS
; Function compile flags: /Odtp /ZI
; File C:\Users\paras\source\repos\grep-name\XenevaOS\Process\AudioPlayer\minimp4.h
;	COMDAT ?mp4_h265_write_nal@@YAHPEAUmp4_h26x_writer_tag@@PEBEHI@Z
_TEXT	SEGMENT
payload_type$ = 0
is_intra$ = 4
err$ = 8
tmp$1 = 16
sample_kind$2 = 24
tv80 = 92
tv71 = 92
h$ = 112
nal$ = 120
sizeof_nal$ = 128
timeStamp90kHz_next$ = 136
?mp4_h265_write_nal@@YAHPEAUmp4_h26x_writer_tag@@PEBEHI@Z PROC ; mp4_h265_write_nal, COMDAT

; 2297 : {

	mov	DWORD PTR [rsp+32], r9d
	mov	DWORD PTR [rsp+24], r8d
	mov	QWORD PTR [rsp+16], rdx
	mov	QWORD PTR [rsp+8], rcx
	push	rbp
	sub	rsp, 144				; 00000090H
	lea	rbp, QWORD PTR [rsp+48]

; 2298 :     int payload_type = (nal[0] >> 1) & 0x3f;

	mov	eax, 1
	imul	rax, rax, 0
	mov	rcx, QWORD PTR nal$[rbp]
	movzx	eax, BYTE PTR [rcx+rax]
	sar	eax, 1
	and	eax, 63					; 0000003fH
	mov	DWORD PTR payload_type$[rbp], eax

; 2299 :     int is_intra = payload_type >= HEVC_NAL_BLA_W_LP && payload_type <= HEVC_NAL_CRA_NUT;

	cmp	DWORD PTR payload_type$[rbp], 16
	jl	SHORT $LN14@mp4_h265_w
	cmp	DWORD PTR payload_type$[rbp], 21
	jg	SHORT $LN14@mp4_h265_w
	mov	DWORD PTR tv71[rbp], 1
	jmp	SHORT $LN15@mp4_h265_w
$LN14@mp4_h265_w:
	mov	DWORD PTR tv71[rbp], 0
$LN15@mp4_h265_w:
	mov	eax, DWORD PTR tv71[rbp]
	mov	DWORD PTR is_intra$[rbp], eax

; 2300 :     int err = MP4E_STATUS_OK;

	mov	DWORD PTR err$[rbp], 0

; 2301 :     //printf("payload_type=%d, intra=%d\n", payload_type, is_intra);
; 2302 : 
; 2303 :     if (is_intra && !h->need_sps && !h->need_pps && !h->need_vps)

	cmp	DWORD PTR is_intra$[rbp], 0
	je	SHORT $LN4@mp4_h265_w
	mov	rax, QWORD PTR h$[rbp]
	cmp	DWORD PTR [rax+4628], 0
	jne	SHORT $LN4@mp4_h265_w
	mov	rax, QWORD PTR h$[rbp]
	cmp	DWORD PTR [rax+4632], 0
	jne	SHORT $LN4@mp4_h265_w
	mov	rax, QWORD PTR h$[rbp]
	cmp	DWORD PTR [rax+4624], 0
	jne	SHORT $LN4@mp4_h265_w

; 2304 :         h->need_idr = 0;

	mov	rax, QWORD PTR h$[rbp]
	mov	DWORD PTR [rax+4636], 0
$LN4@mp4_h265_w:

; 2305 :     switch (payload_type)

	mov	eax, DWORD PTR payload_type$[rbp]
	mov	DWORD PTR tv80[rbp], eax
	cmp	DWORD PTR tv80[rbp], 32			; 00000020H
	je	SHORT $LN5@mp4_h265_w
	cmp	DWORD PTR tv80[rbp], 33			; 00000021H
	je	SHORT $LN6@mp4_h265_w
	cmp	DWORD PTR tv80[rbp], 34			; 00000022H
	je	SHORT $LN7@mp4_h265_w
	jmp	$LN8@mp4_h265_w
$LN5@mp4_h265_w:

; 2306 :     {
; 2307 :     case HEVC_NAL_VPS:
; 2308 :         MP4E_set_vps(h->mux, h->mux_track_id, nal, sizeof_nal);

	mov	r9d, DWORD PTR sizeof_nal$[rbp]
	mov	r8, QWORD PTR nal$[rbp]
	mov	rax, QWORD PTR h$[rbp]
	mov	edx, DWORD PTR [rax+4616]
	mov	rax, QWORD PTR h$[rbp]
	mov	rcx, QWORD PTR [rax+4608]
	call	MP4E_set_vps

; 2309 :         h->need_vps = 0;

	mov	rax, QWORD PTR h$[rbp]
	mov	DWORD PTR [rax+4624], 0

; 2310 :         break;

	jmp	$LN2@mp4_h265_w
$LN6@mp4_h265_w:

; 2311 :     case HEVC_NAL_SPS:
; 2312 :         MP4E_set_sps(h->mux, h->mux_track_id, nal, sizeof_nal);

	mov	r9d, DWORD PTR sizeof_nal$[rbp]
	mov	r8, QWORD PTR nal$[rbp]
	mov	rax, QWORD PTR h$[rbp]
	mov	edx, DWORD PTR [rax+4616]
	mov	rax, QWORD PTR h$[rbp]
	mov	rcx, QWORD PTR [rax+4608]
	call	MP4E_set_sps

; 2313 :         h->need_sps = 0;

	mov	rax, QWORD PTR h$[rbp]
	mov	DWORD PTR [rax+4628], 0

; 2314 :         break;

	jmp	$LN2@mp4_h265_w
$LN7@mp4_h265_w:

; 2315 :     case HEVC_NAL_PPS:
; 2316 :         MP4E_set_pps(h->mux, h->mux_track_id, nal, sizeof_nal);

	mov	r9d, DWORD PTR sizeof_nal$[rbp]
	mov	r8, QWORD PTR nal$[rbp]
	mov	rax, QWORD PTR h$[rbp]
	mov	edx, DWORD PTR [rax+4616]
	mov	rax, QWORD PTR h$[rbp]
	mov	rcx, QWORD PTR [rax+4608]
	call	MP4E_set_pps

; 2317 :         h->need_pps = 0;

	mov	rax, QWORD PTR h$[rbp]
	mov	DWORD PTR [rax+4632], 0

; 2318 :         break;

	jmp	$LN2@mp4_h265_w
$LN8@mp4_h265_w:

; 2319 :     default:
; 2320 :         if (h->need_vps || h->need_sps || h->need_pps || h->need_idr)

	mov	rax, QWORD PTR h$[rbp]
	cmp	DWORD PTR [rax+4624], 0
	jne	SHORT $LN10@mp4_h265_w
	mov	rax, QWORD PTR h$[rbp]
	cmp	DWORD PTR [rax+4628], 0
	jne	SHORT $LN10@mp4_h265_w
	mov	rax, QWORD PTR h$[rbp]
	cmp	DWORD PTR [rax+4632], 0
	jne	SHORT $LN10@mp4_h265_w
	mov	rax, QWORD PTR h$[rbp]
	cmp	DWORD PTR [rax+4636], 0
	je	SHORT $LN9@mp4_h265_w
$LN10@mp4_h265_w:

; 2321 :             return MP4E_STATUS_BAD_ARGUMENTS;

	mov	eax, -1
	jmp	$LN1@mp4_h265_w
$LN9@mp4_h265_w:

; 2322 :         {
; 2323 :             unsigned char* tmp = (unsigned char*)malloc(4 + sizeof_nal);

	mov	eax, DWORD PTR sizeof_nal$[rbp]
	add	eax, 4
	mov	ecx, eax
	call	malloc
	mov	QWORD PTR tmp$1[rbp], rax

; 2324 :             if (!tmp)

	cmp	QWORD PTR tmp$1[rbp], 0
	jne	SHORT $LN11@mp4_h265_w

; 2325 :                 return MP4E_STATUS_NO_MEMORY;

	mov	eax, -2
	jmp	$LN1@mp4_h265_w
$LN11@mp4_h265_w:

; 2326 :             int sample_kind = MP4E_SAMPLE_DEFAULT;

	mov	DWORD PTR sample_kind$2[rbp], 0

; 2327 :             tmp[0] = (unsigned char)(sizeof_nal >> 24);

	mov	eax, DWORD PTR sizeof_nal$[rbp]
	sar	eax, 24
	mov	ecx, 1
	imul	rcx, rcx, 0
	mov	rdx, QWORD PTR tmp$1[rbp]
	mov	BYTE PTR [rdx+rcx], al

; 2328 :             tmp[1] = (unsigned char)(sizeof_nal >> 16);

	mov	eax, DWORD PTR sizeof_nal$[rbp]
	sar	eax, 16
	mov	ecx, 1
	imul	rcx, rcx, 1
	mov	rdx, QWORD PTR tmp$1[rbp]
	mov	BYTE PTR [rdx+rcx], al

; 2329 :             tmp[2] = (unsigned char)(sizeof_nal >> 8);

	mov	eax, DWORD PTR sizeof_nal$[rbp]
	sar	eax, 8
	mov	ecx, 1
	imul	rcx, rcx, 2
	mov	rdx, QWORD PTR tmp$1[rbp]
	mov	BYTE PTR [rdx+rcx], al

; 2330 :             tmp[3] = (unsigned char)(sizeof_nal);

	mov	eax, 1
	imul	rax, rax, 3
	mov	rcx, QWORD PTR tmp$1[rbp]
	movzx	edx, BYTE PTR sizeof_nal$[rbp]
	mov	BYTE PTR [rcx+rax], dl

; 2331 :             memcpy(tmp + 4,(void*) nal, sizeof_nal);

	movsxd	rax, DWORD PTR sizeof_nal$[rbp]
	mov	rcx, QWORD PTR tmp$1[rbp]
	add	rcx, 4
	mov	r8, rax
	mov	rdx, QWORD PTR nal$[rbp]
	call	memcpy

; 2332 :             if (is_intra)

	cmp	DWORD PTR is_intra$[rbp], 0
	je	SHORT $LN12@mp4_h265_w

; 2333 :                 sample_kind = MP4E_SAMPLE_RANDOM_ACCESS;

	mov	DWORD PTR sample_kind$2[rbp], 1
$LN12@mp4_h265_w:

; 2334 :             err = MP4E_put_sample(h->mux, h->mux_track_id, tmp, 4 + sizeof_nal, timeStamp90kHz_next, sample_kind);

	mov	eax, DWORD PTR sizeof_nal$[rbp]
	add	eax, 4
	mov	ecx, DWORD PTR sample_kind$2[rbp]
	mov	DWORD PTR [rsp+40], ecx
	mov	ecx, DWORD PTR timeStamp90kHz_next$[rbp]
	mov	DWORD PTR [rsp+32], ecx
	mov	r9d, eax
	mov	r8, QWORD PTR tmp$1[rbp]
	mov	rax, QWORD PTR h$[rbp]
	mov	edx, DWORD PTR [rax+4616]
	mov	rax, QWORD PTR h$[rbp]
	mov	rcx, QWORD PTR [rax+4608]
	call	MP4E_put_sample
	mov	DWORD PTR err$[rbp], eax

; 2335 :             free(tmp);

	mov	rcx, QWORD PTR tmp$1[rbp]
	call	free
$LN2@mp4_h265_w:

; 2336 :         }
; 2337 :         break;
; 2338 :     }
; 2339 :     return err;

	mov	eax, DWORD PTR err$[rbp]
$LN1@mp4_h265_w:

; 2340 : }

	lea	rsp, QWORD PTR [rbp+96]
	pop	rbp
	ret	0
?mp4_h265_write_nal@@YAHPEAUmp4_h26x_writer_tag@@PEBEHI@Z ENDP ; mp4_h265_write_nal
_TEXT	ENDS
; Function compile flags: /Odtp /ZI
; File C:\Users\paras\source\repos\grep-name\XenevaOS\Process\AudioPlayer\minimp4.h
;	COMDAT ?find_nal_unit@@YAPEBEPEBEHPEAH@Z
_TEXT	SEGMENT
eof$ = 0
zcount$ = 8
start$ = 16
stop$ = 24
h264_data$ = 112
h264_data_bytes$ = 120
pnal_unit_bytes$ = 128
?find_nal_unit@@YAPEBEPEBEHPEAH@Z PROC			; find_nal_unit, COMDAT

; 2232 : {

	mov	QWORD PTR [rsp+24], r8
	mov	DWORD PTR [rsp+16], edx
	mov	QWORD PTR [rsp+8], rcx
	push	rbp
	sub	rsp, 128				; 00000080H
	lea	rbp, QWORD PTR [rsp+32]

; 2233 :     const uint8_t* eof = h264_data + h264_data_bytes;

	movsxd	rax, DWORD PTR h264_data_bytes$[rbp]
	mov	rcx, QWORD PTR h264_data$[rbp]
	add	rcx, rax
	mov	rax, rcx
	mov	QWORD PTR eof$[rbp], rax

; 2234 :     int zcount;
; 2235 :     const uint8_t* start = find_start_code(h264_data, h264_data_bytes, &zcount);

	lea	r8, QWORD PTR zcount$[rbp]
	mov	edx, DWORD PTR h264_data_bytes$[rbp]
	mov	rcx, QWORD PTR h264_data$[rbp]
	call	?find_start_code@@YAPEBEPEBEHPEAH@Z	; find_start_code
	mov	QWORD PTR start$[rbp], rax

; 2236 :     const uint8_t* stop = start;

	mov	rax, QWORD PTR start$[rbp]
	mov	QWORD PTR stop$[rbp], rax

; 2237 :     if (start)

	cmp	QWORD PTR start$[rbp], 0
	je	SHORT $LN4@find_nal_u

; 2238 :     {
; 2239 :         stop = find_start_code(start, (int)(eof - start), &zcount);

	mov	rax, QWORD PTR start$[rbp]
	mov	rcx, QWORD PTR eof$[rbp]
	sub	rcx, rax
	mov	rax, rcx
	lea	r8, QWORD PTR zcount$[rbp]
	mov	edx, eax
	mov	rcx, QWORD PTR start$[rbp]
	call	?find_start_code@@YAPEBEPEBEHPEAH@Z	; find_start_code
	mov	QWORD PTR stop$[rbp], rax
$LN2@find_nal_u:

; 2240 :         while (stop > start && !stop[-1])

	mov	rax, QWORD PTR start$[rbp]
	cmp	QWORD PTR stop$[rbp], rax
	jbe	SHORT $LN3@find_nal_u
	mov	eax, 1
	imul	rax, rax, -1
	mov	rcx, QWORD PTR stop$[rbp]
	movzx	eax, BYTE PTR [rcx+rax]
	test	eax, eax
	jne	SHORT $LN3@find_nal_u

; 2241 :         {
; 2242 :             stop--;

	mov	rax, QWORD PTR stop$[rbp]
	dec	rax
	mov	QWORD PTR stop$[rbp], rax

; 2243 :         }

	jmp	SHORT $LN2@find_nal_u
$LN3@find_nal_u:
$LN4@find_nal_u:

; 2244 :     }
; 2245 : 
; 2246 :     *pnal_unit_bytes = (int)(stop - start - zcount);

	mov	rax, QWORD PTR start$[rbp]
	mov	rcx, QWORD PTR stop$[rbp]
	sub	rcx, rax
	mov	rax, rcx
	movsxd	rcx, DWORD PTR zcount$[rbp]
	sub	rax, rcx
	mov	rcx, QWORD PTR pnal_unit_bytes$[rbp]
	mov	DWORD PTR [rcx], eax

; 2247 :     return start;

	mov	rax, QWORD PTR start$[rbp]

; 2248 : }

	lea	rsp, QWORD PTR [rbp+96]
	pop	rbp
	ret	0
?find_nal_unit@@YAPEBEPEBEHPEAH@Z ENDP			; find_nal_unit
_TEXT	ENDS
; Function compile flags: /Odtp /ZI
; File C:\Users\paras\source\repos\grep-name\XenevaOS\Process\AudioPlayer\minimp4.h
;	COMDAT ?find_start_code@@YAPEBEPEBEHPEAH@Z
_TEXT	SEGMENT
eof$ = 0
p$ = 8
zero_cnt$1 = 16
found$2 = 24
tv72 = 96
h264_data$ = 128
h264_data_bytes$ = 136
zcount$ = 144
?find_start_code@@YAPEBEPEBEHPEAH@Z PROC		; find_start_code, COMDAT

; 2208 : {

	mov	QWORD PTR [rsp+24], r8
	mov	DWORD PTR [rsp+16], edx
	mov	QWORD PTR [rsp+8], rcx
	push	rbp
	sub	rsp, 144				; 00000090H
	lea	rbp, QWORD PTR [rsp+32]

; 2209 :     const uint8_t* eof = h264_data + h264_data_bytes;

	movsxd	rax, DWORD PTR h264_data_bytes$[rbp]
	mov	rcx, QWORD PTR h264_data$[rbp]
	add	rcx, rax
	mov	rax, rcx
	mov	QWORD PTR eof$[rbp], rax

; 2210 :     const uint8_t* p = h264_data;

	mov	rax, QWORD PTR h264_data$[rbp]
	mov	QWORD PTR p$[rbp], rax
$LN4@find_start:

; 2211 :     do
; 2212 :     {
; 2213 :         int zero_cnt = 1;

	mov	DWORD PTR zero_cnt$1[rbp], 1

; 2214 :         const uint8_t* found = (uint8_t*)memchr(p, 0, eof - p);

	mov	rax, QWORD PTR p$[rbp]
	mov	rcx, QWORD PTR eof$[rbp]
	sub	rcx, rax
	mov	rax, rcx
	mov	r8, rax
	xor	edx, edx
	mov	rcx, QWORD PTR p$[rbp]
	call	memchr
	mov	QWORD PTR found$2[rbp], rax

; 2215 :         p = found ? found : eof;

	cmp	QWORD PTR found$2[rbp], 0
	je	SHORT $LN9@find_start
	mov	rax, QWORD PTR found$2[rbp]
	mov	QWORD PTR tv72[rbp], rax
	jmp	SHORT $LN10@find_start
$LN9@find_start:
	mov	rax, QWORD PTR eof$[rbp]
	mov	QWORD PTR tv72[rbp], rax
$LN10@find_start:
	mov	rax, QWORD PTR tv72[rbp]
	mov	QWORD PTR p$[rbp], rax
$LN5@find_start:

; 2216 :         while (p + zero_cnt < eof && !p[zero_cnt]) zero_cnt++;

	movsxd	rax, DWORD PTR zero_cnt$1[rbp]
	mov	rcx, QWORD PTR p$[rbp]
	add	rcx, rax
	mov	rax, rcx
	cmp	rax, QWORD PTR eof$[rbp]
	jae	SHORT $LN6@find_start
	movsxd	rax, DWORD PTR zero_cnt$1[rbp]
	mov	rcx, QWORD PTR p$[rbp]
	movzx	eax, BYTE PTR [rcx+rax]
	test	eax, eax
	jne	SHORT $LN6@find_start
	mov	eax, DWORD PTR zero_cnt$1[rbp]
	inc	eax
	mov	DWORD PTR zero_cnt$1[rbp], eax
	jmp	SHORT $LN5@find_start
$LN6@find_start:

; 2217 :         if (zero_cnt >= 2 && p[zero_cnt] == 1)

	cmp	DWORD PTR zero_cnt$1[rbp], 2
	jl	SHORT $LN7@find_start
	movsxd	rax, DWORD PTR zero_cnt$1[rbp]
	mov	rcx, QWORD PTR p$[rbp]
	movzx	eax, BYTE PTR [rcx+rax]
	cmp	eax, 1
	jne	SHORT $LN7@find_start

; 2218 :         {
; 2219 :             *zcount = zero_cnt + 1;

	mov	eax, DWORD PTR zero_cnt$1[rbp]
	inc	eax
	mov	rcx, QWORD PTR zcount$[rbp]
	mov	DWORD PTR [rcx], eax

; 2220 :             return p + zero_cnt + 1;

	movsxd	rax, DWORD PTR zero_cnt$1[rbp]
	mov	rcx, QWORD PTR p$[rbp]
	lea	rax, QWORD PTR [rcx+rax+1]
	jmp	SHORT $LN1@find_start
$LN7@find_start:

; 2221 :         }
; 2222 :         p += zero_cnt;

	movsxd	rax, DWORD PTR zero_cnt$1[rbp]
	mov	rcx, QWORD PTR p$[rbp]
	add	rcx, rax
	mov	rax, rcx
	mov	QWORD PTR p$[rbp], rax

; 2223 :     } while (p < eof);

	mov	rax, QWORD PTR eof$[rbp]
	cmp	QWORD PTR p$[rbp], rax
	jb	$LN4@find_start

; 2224 :     *zcount = 0;

	mov	rax, QWORD PTR zcount$[rbp]
	mov	DWORD PTR [rax], 0

; 2225 :     return eof;

	mov	rax, QWORD PTR eof$[rbp]
$LN1@find_start:

; 2226 : }

	lea	rsp, QWORD PTR [rbp+112]
	pop	rbp
	ret	0
?find_start_code@@YAPEBEPEBEHPEAH@Z ENDP		; find_start_code
_TEXT	ENDS
; Function compile flags: /Odtp /ZI
; File C:\Users\paras\source\repos\grep-name\XenevaOS\Process\AudioPlayer\minimp4.h
;	COMDAT ?transcode_nalu@@YAHPEAUh264_sps_id_patcher_t@@PEBEHPEAE@Z
_TEXT	SEGMENT
old_id$ = 0
bst$ = 8
bdt$ = 40
bs$ = 64
bd$ = 96
payload_type$ = 120
cb$1 = 124
id$2 = 128
cb$3 = 132
id$4 = 136
tv84 = 204
tv153 = 208
tv129 = 208
h$ = 240
src$ = 248
nalu_bytes$ = 256
dst$ = 264
?transcode_nalu@@YAHPEAUh264_sps_id_patcher_t@@PEBEHPEAE@Z PROC ; transcode_nalu, COMDAT

; 2143 : {

	mov	QWORD PTR [rsp+32], r9
	mov	DWORD PTR [rsp+24], r8d
	mov	QWORD PTR [rsp+16], rdx
	mov	QWORD PTR [rsp+8], rcx
	push	rbp
	sub	rsp, 272				; 00000110H
	lea	rbp, QWORD PTR [rsp+48]

; 2144 :     int old_id;
; 2145 : 
; 2146 :     bit_reader_t bst[1];
; 2147 :     bs_t bdt[1];
; 2148 : 
; 2149 :     bit_reader_t bs[1];
; 2150 :     bs_t bd[1];
; 2151 :     int payload_type = src[0] & 31;

	mov	eax, 1
	imul	rax, rax, 0
	mov	rcx, QWORD PTR src$[rbp]
	movzx	eax, BYTE PTR [rcx+rax]
	and	eax, 31
	mov	DWORD PTR payload_type$[rbp], eax

; 2152 : 
; 2153 :     *dst = *src;

	mov	rax, QWORD PTR dst$[rbp]
	mov	rcx, QWORD PTR src$[rbp]
	movzx	ecx, BYTE PTR [rcx]
	mov	BYTE PTR [rax], cl

; 2154 :     h264e_bs_init_bits(bd, dst + 1);

	mov	rax, QWORD PTR dst$[rbp]
	inc	rax
	mov	rdx, rax
	lea	rcx, QWORD PTR bd$[rbp]
	call	?h264e_bs_init_bits@@YAXPEAUbs_t@@PEAX@Z ; h264e_bs_init_bits

; 2155 :     init_bits(bs, src + 1, nalu_bytes - 1);

	mov	eax, DWORD PTR nalu_bytes$[rbp]
	dec	eax
	mov	rcx, QWORD PTR src$[rbp]
	inc	rcx
	mov	r8d, eax
	mov	rdx, rcx
	lea	rcx, QWORD PTR bs$[rbp]
	call	?init_bits@@YAXPEAUbit_reader_t@@PEBXI@Z ; init_bits

; 2156 :     h264e_bs_init_bits(bdt, dst + 1);

	mov	rax, QWORD PTR dst$[rbp]
	inc	rax
	mov	rdx, rax
	lea	rcx, QWORD PTR bdt$[rbp]
	call	?h264e_bs_init_bits@@YAXPEAUbs_t@@PEAX@Z ; h264e_bs_init_bits

; 2157 :     init_bits(bst, src + 1, nalu_bytes - 1);

	mov	eax, DWORD PTR nalu_bytes$[rbp]
	dec	eax
	mov	rcx, QWORD PTR src$[rbp]
	inc	rcx
	mov	r8d, eax
	mov	rdx, rcx
	lea	rcx, QWORD PTR bst$[rbp]
	call	?init_bits@@YAXPEAUbit_reader_t@@PEBXI@Z ; init_bits

; 2158 : 
; 2159 :     switch (payload_type)

	mov	eax, DWORD PTR payload_type$[rbp]
	mov	DWORD PTR tv84[rbp], eax
	cmp	DWORD PTR tv84[rbp], 1
	je	$LN8@transcode_
	cmp	DWORD PTR tv84[rbp], 2
	je	$LN9@transcode_
	cmp	DWORD PTR tv84[rbp], 5
	je	$LN10@transcode_
	cmp	DWORD PTR tv84[rbp], 7
	je	SHORT $LN4@transcode_
	cmp	DWORD PTR tv84[rbp], 8
	je	$LN6@transcode_
	jmp	$LN11@transcode_
$LN4@transcode_:

; 2160 :     {
; 2161 :     case 7:
; 2162 :     {
; 2163 :         int cb = change_sps_id(bst, bdt, 0, &old_id);

	lea	r9, QWORD PTR old_id$[rbp]
	xor	r8d, r8d
	lea	rdx, QWORD PTR bdt$[rbp]
	lea	rcx, QWORD PTR bst$[rbp]
	call	?change_sps_id@@YAHPEAUbit_reader_t@@PEAUbs_t@@HPEAH@Z ; change_sps_id
	mov	DWORD PTR cb$1[rbp], eax

; 2164 :         int id = find_mem_cache(h->sps_cache, h->sps_bytes, MINIMP4_MAX_SPS, dst + 1, cb);

	mov	rax, QWORD PTR dst$[rbp]
	inc	rax
	mov	rcx, QWORD PTR h$[rbp]
	add	rcx, 2304				; 00000900H
	mov	rdx, QWORD PTR h$[rbp]
	mov	QWORD PTR tv129[rbp], rdx
	mov	r8d, DWORD PTR cb$1[rbp]
	mov	DWORD PTR [rsp+32], r8d
	mov	r9, rax
	mov	r8d, 32					; 00000020H
	mov	rdx, rcx
	mov	rax, QWORD PTR tv129[rbp]
	mov	rcx, rax
	call	?find_mem_cache@@YAHQEAPEAXQEAHHPEAXH@Z	; find_mem_cache
	mov	DWORD PTR id$2[rbp], eax

; 2165 :         if (id == -1)

	cmp	DWORD PTR id$2[rbp], -1
	jne	SHORT $LN5@transcode_

; 2166 :             return 0;

	xor	eax, eax
	jmp	$LN1@transcode_
$LN5@transcode_:

; 2167 :         h->map_sps[old_id] = id;

	movsxd	rax, DWORD PTR old_id$[rbp]
	mov	rcx, QWORD PTR h$[rbp]
	mov	edx, DWORD PTR id$2[rbp]
	mov	DWORD PTR [rcx+rax*4+3456], edx

; 2168 :         change_sps_id(bs, bd, id, &old_id);

	lea	r9, QWORD PTR old_id$[rbp]
	mov	r8d, DWORD PTR id$2[rbp]
	lea	rdx, QWORD PTR bd$[rbp]
	lea	rcx, QWORD PTR bs$[rbp]
	call	?change_sps_id@@YAHPEAUbit_reader_t@@PEAUbs_t@@HPEAH@Z ; change_sps_id

; 2169 :     }
; 2170 :     break;

	jmp	$LN2@transcode_
$LN6@transcode_:

; 2171 :     case 8:
; 2172 :     {
; 2173 :         int cb = patch_pps(h, bst, bdt, 0, &old_id);

	lea	rax, QWORD PTR old_id$[rbp]
	mov	QWORD PTR [rsp+32], rax
	xor	r9d, r9d
	lea	r8, QWORD PTR bdt$[rbp]
	lea	rdx, QWORD PTR bst$[rbp]
	mov	rcx, QWORD PTR h$[rbp]
	call	?patch_pps@@YAHPEAUh264_sps_id_patcher_t@@PEAUbit_reader_t@@PEAUbs_t@@HPEAH@Z ; patch_pps
	mov	DWORD PTR cb$3[rbp], eax

; 2174 :         int id = find_mem_cache(h->pps_cache, h->pps_bytes, MINIMP4_MAX_PPS, dst + 1, cb);

	mov	rax, QWORD PTR dst$[rbp]
	inc	rax
	mov	rcx, QWORD PTR h$[rbp]
	add	rcx, 2432				; 00000980H
	mov	rdx, QWORD PTR h$[rbp]
	add	rdx, 256				; 00000100H
	mov	QWORD PTR tv153[rbp], rdx
	mov	r8d, DWORD PTR cb$3[rbp]
	mov	DWORD PTR [rsp+32], r8d
	mov	r9, rax
	mov	r8d, 256				; 00000100H
	mov	rdx, rcx
	mov	rax, QWORD PTR tv153[rbp]
	mov	rcx, rax
	call	?find_mem_cache@@YAHQEAPEAXQEAHHPEAXH@Z	; find_mem_cache
	mov	DWORD PTR id$4[rbp], eax

; 2175 :         if (id == -1)

	cmp	DWORD PTR id$4[rbp], -1
	jne	SHORT $LN7@transcode_

; 2176 :             return 0;

	xor	eax, eax
	jmp	$LN1@transcode_
$LN7@transcode_:

; 2177 :         h->map_pps[old_id] = id;

	movsxd	rax, DWORD PTR old_id$[rbp]
	mov	rcx, QWORD PTR h$[rbp]
	mov	edx, DWORD PTR id$4[rbp]
	mov	DWORD PTR [rcx+rax*4+3584], edx

; 2178 :         patch_pps(h, bs, bd, id, &old_id);

	lea	rax, QWORD PTR old_id$[rbp]
	mov	QWORD PTR [rsp+32], rax
	mov	r9d, DWORD PTR id$4[rbp]
	lea	r8, QWORD PTR bd$[rbp]
	lea	rdx, QWORD PTR bs$[rbp]
	mov	rcx, QWORD PTR h$[rbp]
	call	?patch_pps@@YAHPEAUh264_sps_id_patcher_t@@PEAUbit_reader_t@@PEAUbs_t@@HPEAH@Z ; patch_pps

; 2179 :     }
; 2180 :     break;

	jmp	SHORT $LN2@transcode_
$LN8@transcode_:
$LN9@transcode_:
$LN10@transcode_:

; 2181 :     case 1:
; 2182 :     case 2:
; 2183 :     case 5:
; 2184 :         patch_slice_header(h, bs, bd);

	lea	r8, QWORD PTR bd$[rbp]
	lea	rdx, QWORD PTR bs$[rbp]
	mov	rcx, QWORD PTR h$[rbp]
	call	?patch_slice_header@@YAXPEAUh264_sps_id_patcher_t@@PEAUbit_reader_t@@PEAUbs_t@@@Z ; patch_slice_header

; 2185 :         break;

	jmp	SHORT $LN2@transcode_
$LN11@transcode_:

; 2186 :     default:
; 2187 :         memcpy(dst, (void*)src, nalu_bytes);

	movsxd	rax, DWORD PTR nalu_bytes$[rbp]
	mov	r8, rax
	mov	rdx, QWORD PTR src$[rbp]
	mov	rcx, QWORD PTR dst$[rbp]
	call	memcpy

; 2188 :         return nalu_bytes;

	mov	eax, DWORD PTR nalu_bytes$[rbp]
	jmp	SHORT $LN1@transcode_
$LN2@transcode_:

; 2189 :     }
; 2190 : 
; 2191 :     nalu_bytes = 1 + h264e_bs_byte_align(bd) / 8;

	lea	rcx, QWORD PTR bd$[rbp]
	call	?h264e_bs_byte_align@@YAIPEAUbs_t@@@Z	; h264e_bs_byte_align
	xor	edx, edx
	mov	ecx, 8
	div	ecx
	inc	eax
	mov	DWORD PTR nalu_bytes$[rbp], eax

; 2192 :     h264e_bs_flush(bd);

	lea	rcx, QWORD PTR bd$[rbp]
	call	?h264e_bs_flush@@YAXPEAUbs_t@@@Z	; h264e_bs_flush

; 2193 : 
; 2194 :     return nalu_bytes;

	mov	eax, DWORD PTR nalu_bytes$[rbp]
$LN1@transcode_:

; 2195 : }

	lea	rsp, QWORD PTR [rbp+224]
	pop	rbp
	ret	0
?transcode_nalu@@YAHPEAUh264_sps_id_patcher_t@@PEBEHPEAE@Z ENDP ; transcode_nalu
_TEXT	ENDS
; Function compile flags: /Odtp /ZI
; File C:\Users\paras\source\repos\grep-name\XenevaOS\Process\AudioPlayer\minimp4.h
;	COMDAT ?patch_slice_header@@YAXPEAUh264_sps_id_patcher_t@@PEAUbit_reader_t@@PEAUbs_t@@@Z
_TEXT	SEGMENT
first_mb_in_slice$ = 0
slice_type$ = 4
pps_id$ = 8
tv75 = 76
h$ = 96
bs$ = 104
bd$ = 112
?patch_slice_header@@YAXPEAUh264_sps_id_patcher_t@@PEAUbit_reader_t@@PEAUbs_t@@@Z PROC ; patch_slice_header, COMDAT

; 2127 : {

	mov	QWORD PTR [rsp+24], r8
	mov	QWORD PTR [rsp+16], rdx
	mov	QWORD PTR [rsp+8], rcx
	push	rbp
	sub	rsp, 112				; 00000070H
	lea	rbp, QWORD PTR [rsp+32]

; 2128 :     unsigned first_mb_in_slice = ue_bits(bs);

	mov	rcx, QWORD PTR bs$[rbp]
	call	?ue_bits@@YAHPEAUbit_reader_t@@@Z	; ue_bits
	mov	DWORD PTR first_mb_in_slice$[rbp], eax

; 2129 :     unsigned slice_type = ue_bits(bs);

	mov	rcx, QWORD PTR bs$[rbp]
	call	?ue_bits@@YAHPEAUbit_reader_t@@@Z	; ue_bits
	mov	DWORD PTR slice_type$[rbp], eax

; 2130 :     unsigned pps_id = ue_bits(bs);

	mov	rcx, QWORD PTR bs$[rbp]
	call	?ue_bits@@YAHPEAUbit_reader_t@@@Z	; ue_bits
	mov	DWORD PTR pps_id$[rbp], eax

; 2131 : 
; 2132 :     pps_id = h->map_pps[pps_id];

	mov	eax, DWORD PTR pps_id$[rbp]
	mov	rcx, QWORD PTR h$[rbp]
	mov	eax, DWORD PTR [rcx+rax*4+3584]
	mov	DWORD PTR pps_id$[rbp], eax

; 2133 : 
; 2134 :     assert(pps_id <= 255);

	cmp	DWORD PTR pps_id$[rbp], 0
	jne	SHORT $LN4@patch_slic
	mov	DWORD PTR tv75[rbp], 1
	jmp	SHORT $LN5@patch_slic
$LN4@patch_slic:
	mov	DWORD PTR tv75[rbp], 0
$LN5@patch_slic:
	cmp	DWORD PTR tv75[rbp], 255		; 000000ffH
	jg	SHORT $LN2@patch_slic
	call	abort
$LN2@patch_slic:

; 2135 : 
; 2136 :     h264e_bs_put_golomb(bd, first_mb_in_slice);

	mov	edx, DWORD PTR first_mb_in_slice$[rbp]
	mov	rcx, QWORD PTR bd$[rbp]
	call	?h264e_bs_put_golomb@@YAXPEAUbs_t@@I@Z	; h264e_bs_put_golomb

; 2137 :     h264e_bs_put_golomb(bd, slice_type);

	mov	edx, DWORD PTR slice_type$[rbp]
	mov	rcx, QWORD PTR bd$[rbp]
	call	?h264e_bs_put_golomb@@YAXPEAUbs_t@@I@Z	; h264e_bs_put_golomb

; 2138 :     h264e_bs_put_golomb(bd, pps_id);

	mov	edx, DWORD PTR pps_id$[rbp]
	mov	rcx, QWORD PTR bd$[rbp]
	call	?h264e_bs_put_golomb@@YAXPEAUbs_t@@I@Z	; h264e_bs_put_golomb

; 2139 :     copy_bits(bs, bd);

	mov	rdx, QWORD PTR bd$[rbp]
	mov	rcx, QWORD PTR bs$[rbp]
	call	?copy_bits@@YAXPEAUbit_reader_t@@PEAUbs_t@@@Z ; copy_bits

; 2140 : }

	lea	rsp, QWORD PTR [rbp+80]
	pop	rbp
	ret	0
?patch_slice_header@@YAXPEAUh264_sps_id_patcher_t@@PEAUbit_reader_t@@PEAUbs_t@@@Z ENDP ; patch_slice_header
_TEXT	ENDS
; Function compile flags: /Odtp /ZI
; File C:\Users\paras\source\repos\grep-name\XenevaOS\Process\AudioPlayer\minimp4.h
;	COMDAT ?patch_pps@@YAHPEAUh264_sps_id_patcher_t@@PEAUbit_reader_t@@PEAUbs_t@@HPEAH@Z
_TEXT	SEGMENT
bytes$ = 0
pps_id$ = 4
sps_id$ = 8
tv76 = 76
tv73 = 76
h$ = 96
bs$ = 104
bd$ = 112
new_pps_id$ = 120
old_id$ = 128
?patch_pps@@YAHPEAUh264_sps_id_patcher_t@@PEAUbit_reader_t@@PEAUbs_t@@HPEAH@Z PROC ; patch_pps, COMDAT

; 2105 : {

	mov	DWORD PTR [rsp+32], r9d
	mov	QWORD PTR [rsp+24], r8
	mov	QWORD PTR [rsp+16], rdx
	mov	QWORD PTR [rsp+8], rcx
	push	rbp
	sub	rsp, 112				; 00000070H
	lea	rbp, QWORD PTR [rsp+32]

; 2106 :     int bytes;
; 2107 :     unsigned pps_id = ue_bits(bs);  // max = 255

	mov	rcx, QWORD PTR bs$[rbp]
	call	?ue_bits@@YAHPEAUbit_reader_t@@@Z	; ue_bits
	mov	DWORD PTR pps_id$[rbp], eax

; 2108 :     unsigned sps_id = ue_bits(bs);  // max = 31

	mov	rcx, QWORD PTR bs$[rbp]
	call	?ue_bits@@YAHPEAUbit_reader_t@@@Z	; ue_bits
	mov	DWORD PTR sps_id$[rbp], eax

; 2109 : 
; 2110 :     *old_id = pps_id;

	mov	rax, QWORD PTR old_id$[rbp]
	mov	ecx, DWORD PTR pps_id$[rbp]
	mov	DWORD PTR [rax], ecx

; 2111 :     sps_id = h->map_sps[sps_id];

	mov	eax, DWORD PTR sps_id$[rbp]
	mov	rcx, QWORD PTR h$[rbp]
	mov	eax, DWORD PTR [rcx+rax*4+3456]
	mov	DWORD PTR sps_id$[rbp], eax

; 2112 :     pps_id = new_pps_id;

	mov	eax, DWORD PTR new_pps_id$[rbp]
	mov	DWORD PTR pps_id$[rbp], eax

; 2113 : 
; 2114 :     assert(sps_id <= 31);

	cmp	DWORD PTR sps_id$[rbp], 0
	jne	SHORT $LN5@patch_pps
	mov	DWORD PTR tv73[rbp], 1
	jmp	SHORT $LN6@patch_pps
$LN5@patch_pps:
	mov	DWORD PTR tv73[rbp], 0
$LN6@patch_pps:
	cmp	DWORD PTR tv73[rbp], 31
	jg	SHORT $LN2@patch_pps
	call	abort
$LN2@patch_pps:

; 2115 :     assert(pps_id <= 255);

	cmp	DWORD PTR pps_id$[rbp], 0
	jne	SHORT $LN7@patch_pps
	mov	DWORD PTR tv76[rbp], 1
	jmp	SHORT $LN8@patch_pps
$LN7@patch_pps:
	mov	DWORD PTR tv76[rbp], 0
$LN8@patch_pps:
	cmp	DWORD PTR tv76[rbp], 255		; 000000ffH
	jg	SHORT $LN3@patch_pps
	call	abort
$LN3@patch_pps:

; 2116 : 
; 2117 :     h264e_bs_put_golomb(bd, pps_id);

	mov	edx, DWORD PTR pps_id$[rbp]
	mov	rcx, QWORD PTR bd$[rbp]
	call	?h264e_bs_put_golomb@@YAXPEAUbs_t@@I@Z	; h264e_bs_put_golomb

; 2118 :     h264e_bs_put_golomb(bd, sps_id);

	mov	edx, DWORD PTR sps_id$[rbp]
	mov	rcx, QWORD PTR bd$[rbp]
	call	?h264e_bs_put_golomb@@YAXPEAUbs_t@@I@Z	; h264e_bs_put_golomb

; 2119 :     copy_bits(bs, bd);

	mov	rdx, QWORD PTR bd$[rbp]
	mov	rcx, QWORD PTR bs$[rbp]
	call	?copy_bits@@YAXPEAUbit_reader_t@@PEAUbs_t@@@Z ; copy_bits

; 2120 : 
; 2121 :     bytes = h264e_bs_byte_align(bd) / 8;

	mov	rcx, QWORD PTR bd$[rbp]
	call	?h264e_bs_byte_align@@YAIPEAUbs_t@@@Z	; h264e_bs_byte_align
	xor	edx, edx
	mov	ecx, 8
	div	ecx
	mov	DWORD PTR bytes$[rbp], eax

; 2122 :     h264e_bs_flush(bd);

	mov	rcx, QWORD PTR bd$[rbp]
	call	?h264e_bs_flush@@YAXPEAUbs_t@@@Z	; h264e_bs_flush

; 2123 :     return bytes;

	mov	eax, DWORD PTR bytes$[rbp]

; 2124 : }

	lea	rsp, QWORD PTR [rbp+80]
	pop	rbp
	ret	0
?patch_pps@@YAHPEAUh264_sps_id_patcher_t@@PEAUbit_reader_t@@PEAUbs_t@@HPEAH@Z ENDP ; patch_pps
_TEXT	ENDS
; Function compile flags: /Odtp /ZI
; File C:\Users\paras\source\repos\grep-name\XenevaOS\Process\AudioPlayer\minimp4.h
;	COMDAT ?change_sps_id@@YAHPEAUbit_reader_t@@PEAUbs_t@@HPEAH@Z
_TEXT	SEGMENT
bits$ = 0
sps_id$ = 4
i$ = 8
bytes$ = 12
tv75 = 80
bs$ = 112
bd$ = 120
new_id$ = 128
old_id$ = 136
?change_sps_id@@YAHPEAUbit_reader_t@@PEAUbs_t@@HPEAH@Z PROC ; change_sps_id, COMDAT

; 2083 : {

	mov	QWORD PTR [rsp+32], r9
	mov	DWORD PTR [rsp+24], r8d
	mov	QWORD PTR [rsp+16], rdx
	mov	QWORD PTR [rsp+8], rcx
	push	rbp
	sub	rsp, 128				; 00000080H
	lea	rbp, QWORD PTR [rsp+32]

; 2084 :     unsigned bits, sps_id, i, bytes;
; 2085 :     for (i = 0; i < 3; i++)

	mov	DWORD PTR i$[rbp], 0
	jmp	SHORT $LN4@change_sps
$LN2@change_sps:
	mov	eax, DWORD PTR i$[rbp]
	inc	eax
	mov	DWORD PTR i$[rbp], eax
$LN4@change_sps:
	cmp	DWORD PTR i$[rbp], 3
	jae	SHORT $LN3@change_sps

; 2086 :     {
; 2087 :         bits = GetBits(8);

	mov	edx, 8
	mov	rcx, QWORD PTR bs$[rbp]
	call	?get_bits@@YAIPEAUbit_reader_t@@H@Z	; get_bits
	mov	DWORD PTR bits$[rbp], eax

; 2088 :         h264e_bs_put_bits(bd, 8, bits);

	mov	r8d, DWORD PTR bits$[rbp]
	mov	edx, 8
	mov	rcx, QWORD PTR bd$[rbp]
	call	?h264e_bs_put_bits@@YAXPEAUbs_t@@II@Z	; h264e_bs_put_bits

; 2089 :     }

	jmp	SHORT $LN2@change_sps
$LN3@change_sps:

; 2090 :     sps_id = ue_bits(bs);               // max = 31

	mov	rcx, QWORD PTR bs$[rbp]
	call	?ue_bits@@YAHPEAUbit_reader_t@@@Z	; ue_bits
	mov	DWORD PTR sps_id$[rbp], eax

; 2091 : 
; 2092 :     *old_id = sps_id;

	mov	rax, QWORD PTR old_id$[rbp]
	mov	ecx, DWORD PTR sps_id$[rbp]
	mov	DWORD PTR [rax], ecx

; 2093 :     sps_id = new_id;

	mov	eax, DWORD PTR new_id$[rbp]
	mov	DWORD PTR sps_id$[rbp], eax

; 2094 :     assert(sps_id <= 31);

	cmp	DWORD PTR sps_id$[rbp], 0
	jne	SHORT $LN7@change_sps
	mov	DWORD PTR tv75[rbp], 1
	jmp	SHORT $LN8@change_sps
$LN7@change_sps:
	mov	DWORD PTR tv75[rbp], 0
$LN8@change_sps:
	cmp	DWORD PTR tv75[rbp], 31
	jg	SHORT $LN5@change_sps
	call	abort
$LN5@change_sps:

; 2095 : 
; 2096 :     h264e_bs_put_golomb(bd, sps_id);

	mov	edx, DWORD PTR sps_id$[rbp]
	mov	rcx, QWORD PTR bd$[rbp]
	call	?h264e_bs_put_golomb@@YAXPEAUbs_t@@I@Z	; h264e_bs_put_golomb

; 2097 :     copy_bits(bs, bd);

	mov	rdx, QWORD PTR bd$[rbp]
	mov	rcx, QWORD PTR bs$[rbp]
	call	?copy_bits@@YAXPEAUbit_reader_t@@PEAUbs_t@@@Z ; copy_bits

; 2098 : 
; 2099 :     bytes = h264e_bs_byte_align(bd) / 8;

	mov	rcx, QWORD PTR bd$[rbp]
	call	?h264e_bs_byte_align@@YAIPEAUbs_t@@@Z	; h264e_bs_byte_align
	xor	edx, edx
	mov	ecx, 8
	div	ecx
	mov	DWORD PTR bytes$[rbp], eax

; 2100 :     h264e_bs_flush(bd);

	mov	rcx, QWORD PTR bd$[rbp]
	call	?h264e_bs_flush@@YAXPEAUbs_t@@@Z	; h264e_bs_flush

; 2101 :     return bytes;

	mov	eax, DWORD PTR bytes$[rbp]

; 2102 : }

	lea	rsp, QWORD PTR [rbp+96]
	pop	rbp
	ret	0
?change_sps_id@@YAHPEAUbit_reader_t@@PEAUbs_t@@HPEAH@Z ENDP ; change_sps_id
_TEXT	ENDS
; Function compile flags: /Odtp /ZI
; File C:\Users\paras\source\repos\grep-name\XenevaOS\Process\AudioPlayer\minimp4.h
;	COMDAT ?copy_bits@@YAXPEAUbit_reader_t@@PEAUbs_t@@@Z
_TEXT	SEGMENT
cb$ = 0
bits$ = 4
bit_count$ = 8
tv70 = 76
bs$ = 96
bd$ = 104
?copy_bits@@YAXPEAUbit_reader_t@@PEAUbs_t@@@Z PROC	; copy_bits, COMDAT

; 2059 : {

	mov	QWORD PTR [rsp+16], rdx
	mov	QWORD PTR [rsp+8], rcx
	push	rbp
	sub	rsp, 112				; 00000070H
	lea	rbp, QWORD PTR [rsp+32]

; 2060 :     unsigned cb, bits;
; 2061 :     int bit_count = remaining_bits(bs);

	mov	rcx, QWORD PTR bs$[rbp]
	call	?remaining_bits@@YAHPEBUbit_reader_t@@@Z ; remaining_bits
	mov	DWORD PTR bit_count$[rbp], eax
$LN2@copy_bits:

; 2062 :     while (bit_count > 7)

	cmp	DWORD PTR bit_count$[rbp], 7
	jle	SHORT $LN3@copy_bits

; 2063 :     {
; 2064 :         cb = MINIMP4_MIN(bit_count - 7, 8);

	mov	eax, DWORD PTR bit_count$[rbp]
	sub	eax, 7
	cmp	eax, 8
	jge	SHORT $LN9@copy_bits
	mov	eax, DWORD PTR bit_count$[rbp]
	sub	eax, 7
	mov	DWORD PTR tv70[rbp], eax
	jmp	SHORT $LN10@copy_bits
$LN9@copy_bits:
	mov	DWORD PTR tv70[rbp], 8
$LN10@copy_bits:
	mov	eax, DWORD PTR tv70[rbp]
	mov	DWORD PTR cb$[rbp], eax

; 2065 :         bits = GetBits(cb);

	mov	edx, DWORD PTR cb$[rbp]
	mov	rcx, QWORD PTR bs$[rbp]
	call	?get_bits@@YAIPEAUbit_reader_t@@H@Z	; get_bits
	mov	DWORD PTR bits$[rbp], eax

; 2066 :         h264e_bs_put_bits(bd, cb, bits);

	mov	r8d, DWORD PTR bits$[rbp]
	mov	edx, DWORD PTR cb$[rbp]
	mov	rcx, QWORD PTR bd$[rbp]
	call	?h264e_bs_put_bits@@YAXPEAUbs_t@@II@Z	; h264e_bs_put_bits

; 2067 :         bit_count -= cb;

	mov	eax, DWORD PTR cb$[rbp]
	mov	ecx, DWORD PTR bit_count$[rbp]
	sub	ecx, eax
	mov	eax, ecx
	mov	DWORD PTR bit_count$[rbp], eax

; 2068 :     }

	jmp	SHORT $LN2@copy_bits
$LN3@copy_bits:

; 2069 : 
; 2070 :     // cut extra zeros after stop-bit
; 2071 :     bits = GetBits(bit_count);

	mov	edx, DWORD PTR bit_count$[rbp]
	mov	rcx, QWORD PTR bs$[rbp]
	call	?get_bits@@YAIPEAUbit_reader_t@@H@Z	; get_bits
	mov	DWORD PTR bits$[rbp], eax

; 2072 :     for (; bit_count && ~bits & 1; bit_count--)

	jmp	SHORT $LN6@copy_bits
$LN4@copy_bits:
	mov	eax, DWORD PTR bit_count$[rbp]
	dec	eax
	mov	DWORD PTR bit_count$[rbp], eax
$LN6@copy_bits:
	cmp	DWORD PTR bit_count$[rbp], 0
	je	SHORT $LN5@copy_bits
	mov	eax, DWORD PTR bits$[rbp]
	not	eax
	and	eax, 1
	test	eax, eax
	je	SHORT $LN5@copy_bits

; 2073 :     {
; 2074 :         bits >>= 1;

	mov	eax, DWORD PTR bits$[rbp]
	shr	eax, 1
	mov	DWORD PTR bits$[rbp], eax

; 2075 :     }

	jmp	SHORT $LN4@copy_bits
$LN5@copy_bits:

; 2076 :     if (bit_count)

	cmp	DWORD PTR bit_count$[rbp], 0
	je	SHORT $LN7@copy_bits

; 2077 :     {
; 2078 :         h264e_bs_put_bits(bd, bit_count, bits);

	mov	r8d, DWORD PTR bits$[rbp]
	mov	edx, DWORD PTR bit_count$[rbp]
	mov	rcx, QWORD PTR bd$[rbp]
	call	?h264e_bs_put_bits@@YAXPEAUbs_t@@II@Z	; h264e_bs_put_bits
$LN7@copy_bits:

; 2079 :     }
; 2080 : }

	lea	rsp, QWORD PTR [rbp+80]
	pop	rbp
	ret	0
?copy_bits@@YAXPEAUbit_reader_t@@PEAUbs_t@@@Z ENDP	; copy_bits
_TEXT	ENDS
; Function compile flags: /Odtp /ZI
; File C:\Users\paras\source\repos\grep-name\XenevaOS\Process\AudioPlayer\minimp4.h
;	COMDAT ?nal_put_esc@@YAHPEAEPEBEH@Z
_TEXT	SEGMENT
i$ = 0
j$ = 4
cntz$ = 8
byte$1 = 12
d$ = 96
s$ = 104
n$ = 112
?nal_put_esc@@YAHPEAEPEBEH@Z PROC			; nal_put_esc, COMDAT

; 2038 : {

	mov	DWORD PTR [rsp+24], r8d
	mov	QWORD PTR [rsp+16], rdx
	mov	QWORD PTR [rsp+8], rcx
	push	rbp
	sub	rsp, 80					; 00000050H
	mov	rbp, rsp

; 2039 :     int i, j = 4, cntz = 0;

	mov	DWORD PTR j$[rbp], 4
	mov	DWORD PTR cntz$[rbp], 0

; 2040 :     d[0] = d[1] = d[2] = 0; d[3] = 1; // start code

	mov	eax, 1
	imul	rax, rax, 2
	mov	rcx, QWORD PTR d$[rbp]
	mov	BYTE PTR [rcx+rax], 0
	mov	eax, 1
	imul	rax, rax, 1
	mov	rcx, QWORD PTR d$[rbp]
	mov	BYTE PTR [rcx+rax], 0
	mov	eax, 1
	imul	rax, rax, 0
	mov	rcx, QWORD PTR d$[rbp]
	mov	BYTE PTR [rcx+rax], 0
	mov	eax, 1
	imul	rax, rax, 3
	mov	rcx, QWORD PTR d$[rbp]
	mov	BYTE PTR [rcx+rax], 1

; 2041 :     for (i = 0; i < n; i++)

	mov	DWORD PTR i$[rbp], 0
	jmp	SHORT $LN4@nal_put_es
$LN2@nal_put_es:
	mov	eax, DWORD PTR i$[rbp]
	inc	eax
	mov	DWORD PTR i$[rbp], eax
$LN4@nal_put_es:
	mov	eax, DWORD PTR n$[rbp]
	cmp	DWORD PTR i$[rbp], eax
	jge	SHORT $LN3@nal_put_es

; 2042 :     {
; 2043 :         uint8_t byte = *s++;

	mov	rax, QWORD PTR s$[rbp]
	movzx	eax, BYTE PTR [rax]
	mov	BYTE PTR byte$1[rbp], al
	mov	rax, QWORD PTR s$[rbp]
	inc	rax
	mov	QWORD PTR s$[rbp], rax

; 2044 :         if (cntz == 2 && byte <= 3)

	cmp	DWORD PTR cntz$[rbp], 2
	jne	SHORT $LN5@nal_put_es
	movzx	eax, BYTE PTR byte$1[rbp]
	cmp	eax, 3
	jg	SHORT $LN5@nal_put_es

; 2045 :         {
; 2046 :             d[j++] = 3;

	movsxd	rax, DWORD PTR j$[rbp]
	mov	rcx, QWORD PTR d$[rbp]
	mov	BYTE PTR [rcx+rax], 3
	mov	eax, DWORD PTR j$[rbp]
	inc	eax
	mov	DWORD PTR j$[rbp], eax

; 2047 :             cntz = 0;

	mov	DWORD PTR cntz$[rbp], 0
$LN5@nal_put_es:

; 2048 :         }
; 2049 :         if (byte)

	movzx	eax, BYTE PTR byte$1[rbp]
	test	eax, eax
	je	SHORT $LN6@nal_put_es

; 2050 :             cntz = 0;

	mov	DWORD PTR cntz$[rbp], 0
	jmp	SHORT $LN7@nal_put_es
$LN6@nal_put_es:

; 2051 :         else
; 2052 :             cntz++;

	mov	eax, DWORD PTR cntz$[rbp]
	inc	eax
	mov	DWORD PTR cntz$[rbp], eax
$LN7@nal_put_es:

; 2053 :         d[j++] = byte;

	movsxd	rax, DWORD PTR j$[rbp]
	mov	rcx, QWORD PTR d$[rbp]
	movzx	edx, BYTE PTR byte$1[rbp]
	mov	BYTE PTR [rcx+rax], dl
	mov	eax, DWORD PTR j$[rbp]
	inc	eax
	mov	DWORD PTR j$[rbp], eax

; 2054 :     }

	jmp	$LN2@nal_put_es
$LN3@nal_put_es:

; 2055 :     return j;

	mov	eax, DWORD PTR j$[rbp]

; 2056 : }

	lea	rsp, QWORD PTR [rbp+80]
	pop	rbp
	ret	0
?nal_put_esc@@YAHPEAEPEBEH@Z ENDP			; nal_put_esc
_TEXT	ENDS
; Function compile flags: /Odtp /ZI
; File C:\Users\paras\source\repos\grep-name\XenevaOS\Process\AudioPlayer\minimp4.h
;	COMDAT ?remove_nal_escapes@@YAHPEAEPEBEH@Z
_TEXT	SEGMENT
i$ = 0
j$ = 4
zero_cnt$ = 8
dst$ = 96
src$ = 104
h264_data_bytes$ = 112
?remove_nal_escapes@@YAHPEAEPEBEH@Z PROC		; remove_nal_escapes, COMDAT

; 1998 : {

	mov	DWORD PTR [rsp+24], r8d
	mov	QWORD PTR [rsp+16], rdx
	mov	QWORD PTR [rsp+8], rcx
	push	rbp
	sub	rsp, 80					; 00000050H
	mov	rbp, rsp

; 1999 :     int i = 0, j = 0, zero_cnt = 0;

	mov	DWORD PTR i$[rbp], 0
	mov	DWORD PTR j$[rbp], 0
	mov	DWORD PTR zero_cnt$[rbp], 0

; 2000 :     for (j = 0; j < h264_data_bytes; j++)

	mov	DWORD PTR j$[rbp], 0
	jmp	SHORT $LN4@remove_nal
$LN2@remove_nal:
	mov	eax, DWORD PTR j$[rbp]
	inc	eax
	mov	DWORD PTR j$[rbp], eax
$LN4@remove_nal:
	mov	eax, DWORD PTR h264_data_bytes$[rbp]
	cmp	DWORD PTR j$[rbp], eax
	jge	$LN3@remove_nal

; 2001 :     {
; 2002 :         if (zero_cnt == 2 && src[j] <= 3)

	cmp	DWORD PTR zero_cnt$[rbp], 2
	jne	SHORT $LN5@remove_nal
	movsxd	rax, DWORD PTR j$[rbp]
	mov	rcx, QWORD PTR src$[rbp]
	movzx	eax, BYTE PTR [rcx+rax]
	cmp	eax, 3
	jg	SHORT $LN5@remove_nal

; 2003 :         {
; 2004 :             if (src[j] == 3)

	movsxd	rax, DWORD PTR j$[rbp]
	mov	rcx, QWORD PTR src$[rbp]
	movzx	eax, BYTE PTR [rcx+rax]
	cmp	eax, 3
	jne	SHORT $LN6@remove_nal

; 2005 :             {
; 2006 :                 if (j == h264_data_bytes - 1)

	mov	eax, DWORD PTR h264_data_bytes$[rbp]
	dec	eax
	cmp	DWORD PTR j$[rbp], eax
	jne	SHORT $LN8@remove_nal

; 2007 :                 {
; 2008 :                     // cabac_zero_word: no action
; 2009 :                 }

	jmp	SHORT $LN9@remove_nal
$LN8@remove_nal:

; 2010 :                 else if (src[j + 1] <= 3)

	mov	eax, DWORD PTR j$[rbp]
	inc	eax
	cdqe
	mov	rcx, QWORD PTR src$[rbp]
	movzx	eax, BYTE PTR [rcx+rax]
	cmp	eax, 3
	jg	SHORT $LN10@remove_nal

; 2011 :                 {
; 2012 :                     j++;

	mov	eax, DWORD PTR j$[rbp]
	inc	eax
	mov	DWORD PTR j$[rbp], eax

; 2013 :                     zero_cnt = 0;

	mov	DWORD PTR zero_cnt$[rbp], 0
$LN10@remove_nal:
$LN9@remove_nal:

; 2014 :                 }
; 2015 :                 else
; 2016 :                 {
; 2017 :                     // TODO: assume end-of-nal
; 2018 :                     //return 0;
; 2019 :                 }
; 2020 :             }

	jmp	SHORT $LN7@remove_nal
$LN6@remove_nal:

; 2021 :             else
; 2022 :                 return 0;

	xor	eax, eax
	jmp	SHORT $LN1@remove_nal
$LN7@remove_nal:
$LN5@remove_nal:

; 2023 :         }
; 2024 :         dst[i++] = src[j];

	movsxd	rax, DWORD PTR j$[rbp]
	movsxd	rcx, DWORD PTR i$[rbp]
	mov	rdx, QWORD PTR dst$[rbp]
	mov	r8, QWORD PTR src$[rbp]
	movzx	eax, BYTE PTR [r8+rax]
	mov	BYTE PTR [rdx+rcx], al
	mov	eax, DWORD PTR i$[rbp]
	inc	eax
	mov	DWORD PTR i$[rbp], eax

; 2025 :         if (src[j])

	movsxd	rax, DWORD PTR j$[rbp]
	mov	rcx, QWORD PTR src$[rbp]
	movzx	eax, BYTE PTR [rcx+rax]
	test	eax, eax
	je	SHORT $LN12@remove_nal

; 2026 :             zero_cnt = 0;

	mov	DWORD PTR zero_cnt$[rbp], 0
	jmp	SHORT $LN13@remove_nal
$LN12@remove_nal:

; 2027 :         else
; 2028 :             zero_cnt++;

	mov	eax, DWORD PTR zero_cnt$[rbp]
	inc	eax
	mov	DWORD PTR zero_cnt$[rbp], eax
$LN13@remove_nal:

; 2029 :     }

	jmp	$LN2@remove_nal
$LN3@remove_nal:

; 2030 :     //while (--j > i) src[j] = 0;
; 2031 :     return i;

	mov	eax, DWORD PTR i$[rbp]
$LN1@remove_nal:

; 2032 : }

	lea	rsp, QWORD PTR [rbp+80]
	pop	rbp
	ret	0
?remove_nal_escapes@@YAHPEAEPEBEH@Z ENDP		; remove_nal_escapes
_TEXT	ENDS
; Function compile flags: /Odtp /ZI
; File C:\Users\paras\source\repos\grep-name\XenevaOS\Process\AudioPlayer\minimp4.h
;	COMDAT ?find_mem_cache@@YAHQEAPEAXQEAHHPEAXH@Z
_TEXT	SEGMENT
i$ = 0
cache$ = 96
cache_bytes$ = 104
cache_size$ = 112
mem$ = 120
bytes$ = 128
?find_mem_cache@@YAHQEAPEAXQEAHHPEAXH@Z PROC		; find_mem_cache, COMDAT

; 1969 : {

	mov	QWORD PTR [rsp+32], r9
	mov	DWORD PTR [rsp+24], r8d
	mov	QWORD PTR [rsp+16], rdx
	mov	QWORD PTR [rsp+8], rcx
	push	rbp
	sub	rsp, 112				; 00000070H
	lea	rbp, QWORD PTR [rsp+32]

; 1970 :     int i;
; 1971 :     if (!bytes)

	cmp	DWORD PTR bytes$[rbp], 0
	jne	SHORT $LN8@find_mem_c

; 1972 :         return -1;

	mov	eax, -1
	jmp	$LN1@find_mem_c
$LN8@find_mem_c:

; 1973 :     for (i = 0; i < cache_size; i++)

	mov	DWORD PTR i$[rbp], 0
	jmp	SHORT $LN4@find_mem_c
$LN2@find_mem_c:
	mov	eax, DWORD PTR i$[rbp]
	inc	eax
	mov	DWORD PTR i$[rbp], eax
$LN4@find_mem_c:
	mov	eax, DWORD PTR cache_size$[rbp]
	cmp	DWORD PTR i$[rbp], eax
	jge	SHORT $LN3@find_mem_c

; 1974 :     {
; 1975 :         if (cache_bytes[i] == bytes && !memcmp(mem, cache[i], bytes))

	movsxd	rax, DWORD PTR i$[rbp]
	mov	rcx, QWORD PTR cache_bytes$[rbp]
	mov	edx, DWORD PTR bytes$[rbp]
	cmp	DWORD PTR [rcx+rax*4], edx
	jne	SHORT $LN9@find_mem_c
	movsxd	rax, DWORD PTR bytes$[rbp]
	movsxd	rcx, DWORD PTR i$[rbp]
	mov	r8, rax
	mov	rax, QWORD PTR cache$[rbp]
	mov	rdx, QWORD PTR [rax+rcx*8]
	mov	rcx, QWORD PTR mem$[rbp]
	call	memcmp
	test	eax, eax
	jne	SHORT $LN9@find_mem_c

; 1976 :             return i;   // found

	mov	eax, DWORD PTR i$[rbp]
	jmp	$LN1@find_mem_c
$LN9@find_mem_c:

; 1977 :     }

	jmp	SHORT $LN2@find_mem_c
$LN3@find_mem_c:

; 1978 :     for (i = 0; i < cache_size; i++)

	mov	DWORD PTR i$[rbp], 0
	jmp	SHORT $LN7@find_mem_c
$LN5@find_mem_c:
	mov	eax, DWORD PTR i$[rbp]
	inc	eax
	mov	DWORD PTR i$[rbp], eax
$LN7@find_mem_c:
	mov	eax, DWORD PTR cache_size$[rbp]
	cmp	DWORD PTR i$[rbp], eax
	jge	SHORT $LN6@find_mem_c

; 1979 :     {
; 1980 :         if (!cache_bytes[i])

	movsxd	rax, DWORD PTR i$[rbp]
	mov	rcx, QWORD PTR cache_bytes$[rbp]
	cmp	DWORD PTR [rcx+rax*4], 0
	jne	SHORT $LN10@find_mem_c

; 1981 :         {
; 1982 :             cache[i] = malloc(bytes);

	mov	ecx, DWORD PTR bytes$[rbp]
	call	malloc
	movsxd	rcx, DWORD PTR i$[rbp]
	mov	rdx, QWORD PTR cache$[rbp]
	mov	QWORD PTR [rdx+rcx*8], rax

; 1983 :             if (cache[i])

	movsxd	rax, DWORD PTR i$[rbp]
	mov	rcx, QWORD PTR cache$[rbp]
	cmp	QWORD PTR [rcx+rax*8], 0
	je	SHORT $LN11@find_mem_c

; 1984 :             {
; 1985 :                 memcpy(cache[i], mem, bytes);

	movsxd	rax, DWORD PTR bytes$[rbp]
	movsxd	rcx, DWORD PTR i$[rbp]
	mov	r8, rax
	mov	rdx, QWORD PTR mem$[rbp]
	mov	rax, QWORD PTR cache$[rbp]
	mov	rcx, QWORD PTR [rax+rcx*8]
	call	memcpy

; 1986 :                 cache_bytes[i] = bytes;

	movsxd	rax, DWORD PTR i$[rbp]
	mov	rcx, QWORD PTR cache_bytes$[rbp]
	mov	edx, DWORD PTR bytes$[rbp]
	mov	DWORD PTR [rcx+rax*4], edx
$LN11@find_mem_c:

; 1987 :             }
; 1988 :             return i;   // put in

	mov	eax, DWORD PTR i$[rbp]
	jmp	SHORT $LN1@find_mem_c
$LN10@find_mem_c:

; 1989 :         }
; 1990 :     }

	jmp	SHORT $LN5@find_mem_c
$LN6@find_mem_c:

; 1991 :     return -1;  // no room

	mov	eax, -1
$LN1@find_mem_c:

; 1992 : }

	lea	rsp, QWORD PTR [rbp+80]
	pop	rbp
	ret	0
?find_mem_cache@@YAHQEAPEAXQEAHHPEAXH@Z ENDP		; find_mem_cache
_TEXT	ENDS
; Function compile flags: /Odtp /ZI
; File C:\Users\paras\source\repos\grep-name\XenevaOS\Process\AudioPlayer\minimp4.h
;	COMDAT ?h264e_bs_init_bits@@YAXPEAUbs_t@@PEAX@Z
_TEXT	SEGMENT
bs$ = 80
data$ = 88
?h264e_bs_init_bits@@YAXPEAUbs_t@@PEAX@Z PROC		; h264e_bs_init_bits, COMDAT

; 1961 : {

	mov	QWORD PTR [rsp+16], rdx
	mov	QWORD PTR [rsp+8], rcx
	push	rbp
	sub	rsp, 64					; 00000040H
	mov	rbp, rsp

; 1962 :     bs->origin = (bs_item_t*)data;

	mov	rax, QWORD PTR bs$[rbp]
	mov	rcx, QWORD PTR data$[rbp]
	mov	QWORD PTR [rax+16], rcx

; 1963 :     bs->buf = bs->origin;

	mov	rax, QWORD PTR bs$[rbp]
	mov	rcx, QWORD PTR bs$[rbp]
	mov	rcx, QWORD PTR [rcx+16]
	mov	QWORD PTR [rax+8], rcx

; 1964 :     bs->shift = BS_BITS;

	mov	rax, QWORD PTR bs$[rbp]
	mov	DWORD PTR [rax], 32			; 00000020H

; 1965 :     bs->cache = 0;

	mov	rax, QWORD PTR bs$[rbp]
	mov	DWORD PTR [rax+4], 0

; 1966 : }

	lea	rsp, QWORD PTR [rbp+64]
	pop	rbp
	ret	0
?h264e_bs_init_bits@@YAXPEAUbs_t@@PEAX@Z ENDP		; h264e_bs_init_bits
_TEXT	ENDS
; Function compile flags: /Odtp /ZI
; File C:\Users\paras\source\repos\grep-name\XenevaOS\Process\AudioPlayer\minimp4.h
;	COMDAT ?h264e_bs_put_golomb@@YAXPEAUbs_t@@I@Z
_TEXT	SEGMENT
size$ = 0
t$ = 4
bs$ = 96
val$ = 104
?h264e_bs_put_golomb@@YAXPEAUbs_t@@I@Z PROC		; h264e_bs_put_golomb, COMDAT

; 1949 : {

	mov	DWORD PTR [rsp+16], edx
	mov	QWORD PTR [rsp+8], rcx
	push	rbp
	sub	rsp, 112				; 00000070H
	lea	rbp, QWORD PTR [rsp+32]

; 1950 :     int size = 0;

	mov	DWORD PTR size$[rbp], 0

; 1951 :     unsigned t = val + 1;

	mov	eax, DWORD PTR val$[rbp]
	inc	eax
	mov	DWORD PTR t$[rbp], eax
$LN4@h264e_bs_p:

; 1952 :     do
; 1953 :     {
; 1954 :         size++;

	mov	eax, DWORD PTR size$[rbp]
	inc	eax
	mov	DWORD PTR size$[rbp], eax

; 1955 :     } while (t >>= 1);

	mov	eax, DWORD PTR t$[rbp]
	shr	eax, 1
	mov	DWORD PTR t$[rbp], eax
	cmp	DWORD PTR t$[rbp], 0
	jne	SHORT $LN4@h264e_bs_p

; 1956 : 
; 1957 :     h264e_bs_put_bits(bs, 2 * size - 1, val + 1);

	mov	eax, DWORD PTR val$[rbp]
	inc	eax
	mov	ecx, DWORD PTR size$[rbp]
	lea	ecx, DWORD PTR [rcx+rcx-1]
	mov	r8d, eax
	mov	edx, ecx
	mov	rcx, QWORD PTR bs$[rbp]
	call	?h264e_bs_put_bits@@YAXPEAUbs_t@@II@Z	; h264e_bs_put_bits

; 1958 : }

	lea	rsp, QWORD PTR [rbp+80]
	pop	rbp
	ret	0
?h264e_bs_put_golomb@@YAXPEAUbs_t@@I@Z ENDP		; h264e_bs_put_golomb
_TEXT	ENDS
; Function compile flags: /Odtp /ZI
; File C:\Users\paras\source\repos\grep-name\XenevaOS\Process\AudioPlayer\minimp4.h
;	COMDAT ?h264e_bs_byte_align@@YAIPEAUbs_t@@@Z
_TEXT	SEGMENT
pos$ = 0
bs$ = 96
?h264e_bs_byte_align@@YAIPEAUbs_t@@@Z PROC		; h264e_bs_byte_align, COMDAT

; 1928 : {

	mov	QWORD PTR [rsp+8], rcx
	push	rbp
	sub	rsp, 112				; 00000070H
	lea	rbp, QWORD PTR [rsp+32]

; 1929 :     int pos = h264e_bs_get_pos_bits(bs);

	mov	rcx, QWORD PTR bs$[rbp]
	call	?h264e_bs_get_pos_bits@@YAIPEBUbs_t@@@Z	; h264e_bs_get_pos_bits
	mov	DWORD PTR pos$[rbp], eax

; 1930 :     h264e_bs_put_bits(bs, -pos & 7, 0);

	mov	eax, DWORD PTR pos$[rbp]
	neg	eax
	and	eax, 7
	xor	r8d, r8d
	mov	edx, eax
	mov	rcx, QWORD PTR bs$[rbp]
	call	?h264e_bs_put_bits@@YAXPEAUbs_t@@II@Z	; h264e_bs_put_bits

; 1931 :     return pos + (-pos & 7);

	mov	eax, DWORD PTR pos$[rbp]
	neg	eax
	and	eax, 7
	mov	ecx, DWORD PTR pos$[rbp]
	add	ecx, eax
	mov	eax, ecx

; 1932 : }

	lea	rsp, QWORD PTR [rbp+80]
	pop	rbp
	ret	0
?h264e_bs_byte_align@@YAIPEAUbs_t@@@Z ENDP		; h264e_bs_byte_align
_TEXT	ENDS
; Function compile flags: /Odtp /ZI
; File C:\Users\paras\source\repos\grep-name\XenevaOS\Process\AudioPlayer\minimp4.h
;	COMDAT ?h264e_bs_get_pos_bits@@YAIPEBUbs_t@@@Z
_TEXT	SEGMENT
pos_bits$ = 0
tv74 = 68
bs$ = 96
?h264e_bs_get_pos_bits@@YAIPEBUbs_t@@@Z PROC		; h264e_bs_get_pos_bits, COMDAT

; 1920 : {

	mov	QWORD PTR [rsp+8], rcx
	push	rbp
	sub	rsp, 112				; 00000070H
	lea	rbp, QWORD PTR [rsp+32]

; 1921 :     unsigned pos_bits = (unsigned)((bs->buf - bs->origin) * BS_BITS);

	mov	rax, QWORD PTR bs$[rbp]
	mov	rcx, QWORD PTR bs$[rbp]
	mov	rcx, QWORD PTR [rcx+16]
	mov	rax, QWORD PTR [rax+8]
	sub	rax, rcx
	sar	rax, 2
	imul	rax, rax, 32				; 00000020H
	mov	DWORD PTR pos_bits$[rbp], eax

; 1922 :     pos_bits += BS_BITS - bs->shift;

	mov	rax, QWORD PTR bs$[rbp]
	mov	ecx, 32					; 00000020H
	sub	ecx, DWORD PTR [rax]
	mov	eax, ecx
	mov	ecx, DWORD PTR pos_bits$[rbp]
	add	ecx, eax
	mov	eax, ecx
	mov	DWORD PTR pos_bits$[rbp], eax

; 1923 :     assert((int)pos_bits >= 0);

	cmp	DWORD PTR pos_bits$[rbp], 0
	jne	SHORT $LN4@h264e_bs_g
	mov	DWORD PTR tv74[rbp], 1
	jmp	SHORT $LN5@h264e_bs_g
$LN4@h264e_bs_g:
	mov	DWORD PTR tv74[rbp], 0
$LN5@h264e_bs_g:
	cmp	DWORD PTR tv74[rbp], 0
	jl	SHORT $LN2@h264e_bs_g
	call	abort
$LN2@h264e_bs_g:

; 1924 :     return pos_bits;

	mov	eax, DWORD PTR pos_bits$[rbp]

; 1925 : }

	lea	rsp, QWORD PTR [rbp+80]
	pop	rbp
	ret	0
?h264e_bs_get_pos_bits@@YAIPEBUbs_t@@@Z ENDP		; h264e_bs_get_pos_bits
_TEXT	ENDS
; Function compile flags: /Odtp /ZI
; File C:\Users\paras\source\repos\grep-name\XenevaOS\Process\AudioPlayer\minimp4.h
;	COMDAT ?h264e_bs_flush@@YAXPEAUbs_t@@@Z
_TEXT	SEGMENT
bs$ = 80
?h264e_bs_flush@@YAXPEAUbs_t@@@Z PROC			; h264e_bs_flush, COMDAT

; 1915 : {

	mov	QWORD PTR [rsp+8], rcx
	push	rbp
	sub	rsp, 64					; 00000040H
	mov	rbp, rsp

; 1916 :     *bs->buf = SWAP32(bs->cache);

	mov	rax, QWORD PTR bs$[rbp]
	mov	eax, DWORD PTR [rax+4]
	shr	eax, 24
	and	eax, 255				; 000000ffH
	mov	rcx, QWORD PTR bs$[rbp]
	mov	ecx, DWORD PTR [rcx+4]
	shr	ecx, 8
	and	ecx, 65280				; 0000ff00H
	or	eax, ecx
	mov	rcx, QWORD PTR bs$[rbp]
	mov	ecx, DWORD PTR [rcx+4]
	shl	ecx, 8
	and	ecx, 16711680				; 00ff0000H
	or	eax, ecx
	mov	rcx, QWORD PTR bs$[rbp]
	mov	ecx, DWORD PTR [rcx+4]
	and	ecx, 255				; 000000ffH
	shl	ecx, 24
	or	eax, ecx
	mov	rcx, QWORD PTR bs$[rbp]
	mov	rcx, QWORD PTR [rcx+8]
	mov	DWORD PTR [rcx], eax

; 1917 : }

	lea	rsp, QWORD PTR [rbp+64]
	pop	rbp
	ret	0
?h264e_bs_flush@@YAXPEAUbs_t@@@Z ENDP			; h264e_bs_flush
_TEXT	ENDS
; Function compile flags: /Odtp /ZI
; File C:\Users\paras\source\repos\grep-name\XenevaOS\Process\AudioPlayer\minimp4.h
;	COMDAT ?h264e_bs_put_bits@@YAXPEAUbs_t@@II@Z
_TEXT	SEGMENT
tv77 = 64
tv70 = 64
bs$ = 96
n$ = 104
val$ = 112
?h264e_bs_put_bits@@YAXPEAUbs_t@@II@Z PROC		; h264e_bs_put_bits, COMDAT

; 1899 : {

	mov	DWORD PTR [rsp+24], r8d
	mov	DWORD PTR [rsp+16], edx
	mov	QWORD PTR [rsp+8], rcx
	push	rbp
	sub	rsp, 112				; 00000070H
	lea	rbp, QWORD PTR [rsp+32]

; 1900 :     assert(!(val >> n));

	mov	eax, DWORD PTR n$[rbp]
	movzx	ecx, al
	mov	eax, DWORD PTR val$[rbp]
	shr	eax, cl
	test	eax, eax
	je	SHORT $LN2@h264e_bs_p
	call	abort
$LN2@h264e_bs_p:

; 1901 :     bs->shift -= n;

	mov	rax, QWORD PTR bs$[rbp]
	mov	ecx, DWORD PTR n$[rbp]
	mov	eax, DWORD PTR [rax]
	sub	eax, ecx
	mov	rcx, QWORD PTR bs$[rbp]
	mov	DWORD PTR [rcx], eax

; 1902 :     assert((unsigned)n <= 32);

	cmp	DWORD PTR n$[rbp], 0
	jne	SHORT $LN7@h264e_bs_p
	mov	DWORD PTR tv70[rbp], 1
	jmp	SHORT $LN8@h264e_bs_p
$LN7@h264e_bs_p:
	mov	DWORD PTR tv70[rbp], 0
$LN8@h264e_bs_p:
	cmp	DWORD PTR tv70[rbp], 32			; 00000020H
	jg	SHORT $LN3@h264e_bs_p
	call	abort
$LN3@h264e_bs_p:

; 1903 :     if (bs->shift < 0)

	mov	rax, QWORD PTR bs$[rbp]
	cmp	DWORD PTR [rax], 0
	jge	$LN4@h264e_bs_p

; 1904 :     {
; 1905 :         assert(-bs->shift < 32);

	mov	rax, QWORD PTR bs$[rbp]
	mov	eax, DWORD PTR [rax]
	neg	eax
	test	eax, eax
	jne	SHORT $LN9@h264e_bs_p
	mov	DWORD PTR tv77[rbp], 1
	jmp	SHORT $LN10@h264e_bs_p
$LN9@h264e_bs_p:
	mov	DWORD PTR tv77[rbp], 0
$LN10@h264e_bs_p:
	cmp	DWORD PTR tv77[rbp], 32			; 00000020H
	jge	SHORT $LN5@h264e_bs_p
	call	abort
$LN5@h264e_bs_p:

; 1906 :         bs->cache |= val >> -bs->shift;

	mov	rax, QWORD PTR bs$[rbp]
	mov	eax, DWORD PTR [rax]
	neg	eax
	movzx	ecx, al
	mov	eax, DWORD PTR val$[rbp]
	shr	eax, cl
	mov	rcx, QWORD PTR bs$[rbp]
	mov	ecx, DWORD PTR [rcx+4]
	or	ecx, eax
	mov	eax, ecx
	mov	rcx, QWORD PTR bs$[rbp]
	mov	DWORD PTR [rcx+4], eax

; 1907 :         *bs->buf++ = SWAP32(bs->cache);

	mov	rax, QWORD PTR bs$[rbp]
	mov	eax, DWORD PTR [rax+4]
	shr	eax, 24
	and	eax, 255				; 000000ffH
	mov	rcx, QWORD PTR bs$[rbp]
	mov	ecx, DWORD PTR [rcx+4]
	shr	ecx, 8
	and	ecx, 65280				; 0000ff00H
	or	eax, ecx
	mov	rcx, QWORD PTR bs$[rbp]
	mov	ecx, DWORD PTR [rcx+4]
	shl	ecx, 8
	and	ecx, 16711680				; 00ff0000H
	or	eax, ecx
	mov	rcx, QWORD PTR bs$[rbp]
	mov	ecx, DWORD PTR [rcx+4]
	and	ecx, 255				; 000000ffH
	shl	ecx, 24
	or	eax, ecx
	mov	rcx, QWORD PTR bs$[rbp]
	mov	rcx, QWORD PTR [rcx+8]
	mov	DWORD PTR [rcx], eax
	mov	rax, QWORD PTR bs$[rbp]
	mov	rax, QWORD PTR [rax+8]
	add	rax, 4
	mov	rcx, QWORD PTR bs$[rbp]
	mov	QWORD PTR [rcx+8], rax

; 1908 :         bs->shift = 32 + bs->shift;

	mov	rax, QWORD PTR bs$[rbp]
	mov	eax, DWORD PTR [rax]
	add	eax, 32					; 00000020H
	mov	rcx, QWORD PTR bs$[rbp]
	mov	DWORD PTR [rcx], eax

; 1909 :         bs->cache = 0;

	mov	rax, QWORD PTR bs$[rbp]
	mov	DWORD PTR [rax+4], 0
$LN4@h264e_bs_p:

; 1910 :     }
; 1911 :     bs->cache |= val << bs->shift;

	mov	rax, QWORD PTR bs$[rbp]
	mov	eax, DWORD PTR [rax]
	movzx	ecx, al
	mov	eax, DWORD PTR val$[rbp]
	shl	eax, cl
	mov	rcx, QWORD PTR bs$[rbp]
	mov	ecx, DWORD PTR [rcx+4]
	or	ecx, eax
	mov	eax, ecx
	mov	rcx, QWORD PTR bs$[rbp]
	mov	DWORD PTR [rcx+4], eax

; 1912 : }

	lea	rsp, QWORD PTR [rbp+80]
	pop	rbp
	ret	0
?h264e_bs_put_bits@@YAXPEAUbs_t@@II@Z ENDP		; h264e_bs_put_bits
_TEXT	ENDS
; Function compile flags: /Odtp /ZI
; File C:\Users\paras\source\repos\grep-name\XenevaOS\Process\AudioPlayer\minimp4.h
;	COMDAT ?ue_bits@@YAHPEAUbit_reader_t@@@Z
_TEXT	SEGMENT
clz$ = 0
val$ = 4
tv75 = 72
tv84 = 76
bs$ = 96
?ue_bits@@YAHPEAUbit_reader_t@@@Z PROC			; ue_bits, COMDAT

; 1874 : {

	mov	QWORD PTR [rsp+8], rcx
	push	rbp
	sub	rsp, 112				; 00000070H
	lea	rbp, QWORD PTR [rsp+32]

; 1875 :     int clz;
; 1876 :     int val;
; 1877 :     for (clz = 0; !get_bits(bs, 1); clz++) {}

	mov	DWORD PTR clz$[rbp], 0
	jmp	SHORT $LN4@ue_bits
$LN2@ue_bits:
	mov	eax, DWORD PTR clz$[rbp]
	inc	eax
	mov	DWORD PTR clz$[rbp], eax
$LN4@ue_bits:
	mov	edx, 1
	mov	rcx, QWORD PTR bs$[rbp]
	call	?get_bits@@YAIPEAUbit_reader_t@@H@Z	; get_bits
	test	eax, eax
	jne	SHORT $LN3@ue_bits
	jmp	SHORT $LN2@ue_bits
$LN3@ue_bits:

; 1878 :     //get_bits(bs, clz + 1);
; 1879 :     val = (1 << clz) - 1 + (clz ? get_bits(bs, clz) : 0);

	cmp	DWORD PTR clz$[rbp], 0
	je	SHORT $LN6@ue_bits
	mov	edx, DWORD PTR clz$[rbp]
	mov	rcx, QWORD PTR bs$[rbp]
	call	?get_bits@@YAIPEAUbit_reader_t@@H@Z	; get_bits
	mov	DWORD PTR tv75[rbp], eax
	jmp	SHORT $LN7@ue_bits
$LN6@ue_bits:
	mov	DWORD PTR tv75[rbp], 0
$LN7@ue_bits:
	mov	eax, DWORD PTR clz$[rbp]
	mov	ecx, 1
	mov	DWORD PTR tv84[rbp], ecx
	movzx	ecx, al
	mov	eax, DWORD PTR tv84[rbp]
	shl	eax, cl
	mov	ecx, DWORD PTR tv75[rbp]
	lea	eax, DWORD PTR [rax+rcx-1]
	mov	DWORD PTR val$[rbp], eax

; 1880 :     return val;

	mov	eax, DWORD PTR val$[rbp]

; 1881 : }

	lea	rsp, QWORD PTR [rbp+80]
	pop	rbp
	ret	0
?ue_bits@@YAHPEAUbit_reader_t@@@Z ENDP			; ue_bits
_TEXT	ENDS
; Function compile flags: /Odtp /ZI
; File C:\Users\paras\source\repos\grep-name\XenevaOS\Process\AudioPlayer\minimp4.h
;	COMDAT ?init_bits@@YAXPEAUbit_reader_t@@PEBXI@Z
_TEXT	SEGMENT
bs$ = 80
data$ = 88
data_bytes$ = 96
?init_bits@@YAXPEAUbit_reader_t@@PEBXI@Z PROC		; init_bits, COMDAT

; 1862 : {

	mov	DWORD PTR [rsp+24], r8d
	mov	QWORD PTR [rsp+16], rdx
	mov	QWORD PTR [rsp+8], rcx
	push	rbp
	sub	rsp, 96					; 00000060H
	lea	rbp, QWORD PTR [rsp+32]

; 1863 :     bs->origin = (const uint16_t*)data;

	mov	rax, QWORD PTR bs$[rbp]
	mov	rcx, QWORD PTR data$[rbp]
	mov	QWORD PTR [rax+16], rcx

; 1864 :     bs->origin_bytes = data_bytes;

	mov	rax, QWORD PTR bs$[rbp]
	mov	ecx, DWORD PTR data_bytes$[rbp]
	mov	DWORD PTR [rax+24], ecx

; 1865 :     set_pos_bits(bs, 0);

	xor	edx, edx
	mov	rcx, QWORD PTR bs$[rbp]
	call	?set_pos_bits@@YAXPEAUbit_reader_t@@I@Z	; set_pos_bits

; 1866 : }

	lea	rsp, QWORD PTR [rbp+64]
	pop	rbp
	ret	0
?init_bits@@YAXPEAUbit_reader_t@@PEBXI@Z ENDP		; init_bits
_TEXT	ENDS
; Function compile flags: /Odtp /ZI
; File C:\Users\paras\source\repos\grep-name\XenevaOS\Process\AudioPlayer\minimp4.h
;	COMDAT ?remaining_bits@@YAHPEBUbit_reader_t@@@Z
_TEXT	SEGMENT
tv65 = 64
bs$ = 96
?remaining_bits@@YAHPEBUbit_reader_t@@@Z PROC		; remaining_bits, COMDAT

; 1857 : {

	mov	QWORD PTR [rsp+8], rcx
	push	rbp
	sub	rsp, 112				; 00000070H
	lea	rbp, QWORD PTR [rsp+32]

; 1858 :     return bs->origin_bytes * 8 - get_pos_bits(bs);

	mov	rax, QWORD PTR bs$[rbp]
	mov	eax, DWORD PTR [rax+24]
	shl	eax, 3
	mov	DWORD PTR tv65[rbp], eax
	mov	rcx, QWORD PTR bs$[rbp]
	call	?get_pos_bits@@YAIPEBUbit_reader_t@@@Z	; get_pos_bits
	mov	ecx, DWORD PTR tv65[rbp]
	sub	ecx, eax
	mov	eax, ecx

; 1859 : }

	lea	rsp, QWORD PTR [rbp+80]
	pop	rbp
	ret	0
?remaining_bits@@YAHPEBUbit_reader_t@@@Z ENDP		; remaining_bits
_TEXT	ENDS
; Function compile flags: /Odtp /ZI
; File C:\Users\paras\source\repos\grep-name\XenevaOS\Process\AudioPlayer\minimp4.h
;	COMDAT ?get_pos_bits@@YAIPEBUbit_reader_t@@@Z
_TEXT	SEGMENT
pos_bits$ = 0
tv74 = 68
bs$ = 96
?get_pos_bits@@YAIPEBUbit_reader_t@@@Z PROC		; get_pos_bits, COMDAT

; 1846 : {

	mov	QWORD PTR [rsp+8], rcx
	push	rbp
	sub	rsp, 112				; 00000070H
	lea	rbp, QWORD PTR [rsp+32]

; 1847 :     // Current bitbuffer position =
; 1848 :     // position of next wobits in the internal buffer
; 1849 :     // minus bs, available in bit cache wobits
; 1850 :     unsigned pos_bits = (unsigned)(bs->buf - bs->origin) * 16;

	mov	rax, QWORD PTR bs$[rbp]
	mov	rcx, QWORD PTR bs$[rbp]
	mov	rcx, QWORD PTR [rcx+16]
	mov	rax, QWORD PTR [rax+8]
	sub	rax, rcx
	sar	rax, 1
	imul	eax, eax, 16
	mov	DWORD PTR pos_bits$[rbp], eax

; 1851 :     pos_bits -= 16 - bs->cache_free_bits;

	mov	rax, QWORD PTR bs$[rbp]
	mov	ecx, 16
	sub	ecx, DWORD PTR [rax+4]
	mov	eax, ecx
	mov	ecx, DWORD PTR pos_bits$[rbp]
	sub	ecx, eax
	mov	eax, ecx
	mov	DWORD PTR pos_bits$[rbp], eax

; 1852 :     assert((int)pos_bits >= 0);

	cmp	DWORD PTR pos_bits$[rbp], 0
	jne	SHORT $LN4@get_pos_bi
	mov	DWORD PTR tv74[rbp], 1
	jmp	SHORT $LN5@get_pos_bi
$LN4@get_pos_bi:
	mov	DWORD PTR tv74[rbp], 0
$LN5@get_pos_bi:
	cmp	DWORD PTR tv74[rbp], 0
	jl	SHORT $LN2@get_pos_bi
	call	abort
$LN2@get_pos_bi:

; 1853 :     return pos_bits;

	mov	eax, DWORD PTR pos_bits$[rbp]

; 1854 : }

	lea	rsp, QWORD PTR [rbp+80]
	pop	rbp
	ret	0
?get_pos_bits@@YAIPEBUbit_reader_t@@@Z ENDP		; get_pos_bits
_TEXT	ENDS
; Function compile flags: /Odtp /ZI
; File C:\Users\paras\source\repos\grep-name\XenevaOS\Process\AudioPlayer\minimp4.h
;	COMDAT ?set_pos_bits@@YAXPEAUbit_reader_t@@I@Z
_TEXT	SEGMENT
tv65 = 64
bs$ = 96
pos_bits$ = 104
?set_pos_bits@@YAXPEAUbit_reader_t@@I@Z PROC		; set_pos_bits, COMDAT

; 1835 : {

	mov	DWORD PTR [rsp+16], edx
	mov	QWORD PTR [rsp+8], rcx
	push	rbp
	sub	rsp, 112				; 00000070H
	lea	rbp, QWORD PTR [rsp+32]

; 1836 :     assert((int)pos_bits >= 0);

	cmp	DWORD PTR pos_bits$[rbp], 0
	jne	SHORT $LN4@set_pos_bi
	mov	DWORD PTR tv65[rbp], 1
	jmp	SHORT $LN5@set_pos_bi
$LN4@set_pos_bi:
	mov	DWORD PTR tv65[rbp], 0
$LN5@set_pos_bi:
	cmp	DWORD PTR tv65[rbp], 0
	jl	SHORT $LN2@set_pos_bi
	call	abort
$LN2@set_pos_bi:

; 1837 : 
; 1838 :     bs->buf = bs->origin + pos_bits / 16;

	xor	edx, edx
	mov	eax, DWORD PTR pos_bits$[rbp]
	mov	ecx, 16
	div	ecx
	mov	eax, eax
	mov	rcx, QWORD PTR bs$[rbp]
	mov	rcx, QWORD PTR [rcx+16]
	lea	rax, QWORD PTR [rcx+rax*2]
	mov	rcx, QWORD PTR bs$[rbp]
	mov	QWORD PTR [rcx+8], rax

; 1839 :     bs->cache = 0;

	mov	rax, QWORD PTR bs$[rbp]
	mov	DWORD PTR [rax], 0

; 1840 :     bs->cache_free_bits = 16;

	mov	rax, QWORD PTR bs$[rbp]
	mov	DWORD PTR [rax+4], 16

; 1841 :     flush_bits(bs, 0);

	xor	edx, edx
	mov	rcx, QWORD PTR bs$[rbp]
	call	?flush_bits@@YAXPEAUbit_reader_t@@H@Z	; flush_bits

; 1842 :     flush_bits(bs, pos_bits & 15);

	mov	eax, DWORD PTR pos_bits$[rbp]
	and	eax, 15
	mov	edx, eax
	mov	rcx, QWORD PTR bs$[rbp]
	call	?flush_bits@@YAXPEAUbit_reader_t@@H@Z	; flush_bits

; 1843 : }

	lea	rsp, QWORD PTR [rbp+80]
	pop	rbp
	ret	0
?set_pos_bits@@YAXPEAUbit_reader_t@@I@Z ENDP		; set_pos_bits
_TEXT	ENDS
; Function compile flags: /Odtp /ZI
; File C:\Users\paras\source\repos\grep-name\XenevaOS\Process\AudioPlayer\minimp4.h
;	COMDAT ?get_bits@@YAIPEAUbit_reader_t@@H@Z
_TEXT	SEGMENT
retval$ = 0
bs$ = 96
n$ = 104
?get_bits@@YAIPEAUbit_reader_t@@H@Z PROC		; get_bits, COMDAT

; 1828 : {

	mov	DWORD PTR [rsp+16], edx
	mov	QWORD PTR [rsp+8], rcx
	push	rbp
	sub	rsp, 112				; 00000070H
	lea	rbp, QWORD PTR [rsp+32]

; 1829 :     unsigned int retval = show_bits(bs, n);

	mov	edx, DWORD PTR n$[rbp]
	mov	rcx, QWORD PTR bs$[rbp]
	call	?show_bits@@YAIPEAUbit_reader_t@@H@Z	; show_bits
	mov	DWORD PTR retval$[rbp], eax

; 1830 :     flush_bits(bs, n);

	mov	edx, DWORD PTR n$[rbp]
	mov	rcx, QWORD PTR bs$[rbp]
	call	?flush_bits@@YAXPEAUbit_reader_t@@H@Z	; flush_bits

; 1831 :     return retval;

	mov	eax, DWORD PTR retval$[rbp]

; 1832 : }

	lea	rsp, QWORD PTR [rbp+80]
	pop	rbp
	ret	0
?get_bits@@YAIPEAUbit_reader_t@@H@Z ENDP		; get_bits
_TEXT	ENDS
; Function compile flags: /Odtp /ZI
; File C:\Users\paras\source\repos\grep-name\XenevaOS\Process\AudioPlayer\minimp4.h
;	COMDAT ?flush_bits@@YAXPEAUbit_reader_t@@H@Z
_TEXT	SEGMENT
tv138 = 64
tv65 = 64
bs$ = 96
n$ = 104
?flush_bits@@YAXPEAUbit_reader_t@@H@Z PROC		; flush_bits, COMDAT

; 1815 : {

	mov	DWORD PTR [rsp+16], edx
	mov	QWORD PTR [rsp+8], rcx
	push	rbp
	sub	rsp, 112				; 00000070H
	lea	rbp, QWORD PTR [rsp+32]

; 1816 :     assert(n >= 0 && n <= 16);

	cmp	DWORD PTR n$[rbp], 0
	jne	SHORT $LN5@flush_bits
	mov	DWORD PTR tv65[rbp], 1
	jmp	SHORT $LN6@flush_bits
$LN5@flush_bits:
	mov	DWORD PTR tv65[rbp], 0
$LN6@flush_bits:
	cmp	DWORD PTR tv65[rbp], 0
	jl	SHORT $LN2@flush_bits
	cmp	DWORD PTR n$[rbp], 16
	jg	SHORT $LN2@flush_bits
	call	abort
$LN2@flush_bits:

; 1817 :     bs->cache <<= n;

	mov	eax, DWORD PTR n$[rbp]
	mov	rcx, QWORD PTR bs$[rbp]
	mov	QWORD PTR tv138[rbp], rcx
	movzx	ecx, al
	mov	rax, QWORD PTR tv138[rbp]
	mov	eax, DWORD PTR [rax]
	shl	eax, cl
	mov	rcx, QWORD PTR bs$[rbp]
	mov	DWORD PTR [rcx], eax

; 1818 :     bs->cache_free_bits += n;

	mov	rax, QWORD PTR bs$[rbp]
	mov	eax, DWORD PTR [rax+4]
	add	eax, DWORD PTR n$[rbp]
	mov	rcx, QWORD PTR bs$[rbp]
	mov	DWORD PTR [rcx+4], eax

; 1819 :     if (bs->cache_free_bits >= 0)

	mov	rax, QWORD PTR bs$[rbp]
	cmp	DWORD PTR [rax+4], 0
	jl	SHORT $LN3@flush_bits

; 1820 :     {
; 1821 :         bs->cache |= ((uint32_t)LOAD_SHORT(*bs->buf)) << bs->cache_free_bits;

	mov	rax, QWORD PTR bs$[rbp]
	mov	rax, QWORD PTR [rax+8]
	movzx	eax, WORD PTR [rax]
	shl	eax, 8
	movzx	eax, ax
	mov	rcx, QWORD PTR bs$[rbp]
	mov	rcx, QWORD PTR [rcx+8]
	movzx	ecx, WORD PTR [rcx]
	sar	ecx, 8
	or	eax, ecx
	mov	rcx, QWORD PTR bs$[rbp]
	mov	ecx, DWORD PTR [rcx+4]
	shl	eax, cl
	mov	rcx, QWORD PTR bs$[rbp]
	mov	ecx, DWORD PTR [rcx]
	or	ecx, eax
	mov	eax, ecx
	mov	rcx, QWORD PTR bs$[rbp]
	mov	DWORD PTR [rcx], eax

; 1822 :         bs->buf++;

	mov	rax, QWORD PTR bs$[rbp]
	mov	rax, QWORD PTR [rax+8]
	add	rax, 2
	mov	rcx, QWORD PTR bs$[rbp]
	mov	QWORD PTR [rcx+8], rax

; 1823 :         bs->cache_free_bits -= 16;

	mov	rax, QWORD PTR bs$[rbp]
	mov	eax, DWORD PTR [rax+4]
	sub	eax, 16
	mov	rcx, QWORD PTR bs$[rbp]
	mov	DWORD PTR [rcx+4], eax
$LN3@flush_bits:

; 1824 :     }
; 1825 : }

	lea	rsp, QWORD PTR [rbp+80]
	pop	rbp
	ret	0
?flush_bits@@YAXPEAUbit_reader_t@@H@Z ENDP		; flush_bits
_TEXT	ENDS
; Function compile flags: /Odtp /ZI
; File C:\Users\paras\source\repos\grep-name\XenevaOS\Process\AudioPlayer\minimp4.h
;	COMDAT ?show_bits@@YAIPEAUbit_reader_t@@H@Z
_TEXT	SEGMENT
retval$ = 0
tv65 = 68
tv75 = 72
bs$ = 96
n$ = 104
?show_bits@@YAIPEAUbit_reader_t@@H@Z PROC		; show_bits, COMDAT

; 1807 : {

	mov	DWORD PTR [rsp+16], edx
	mov	QWORD PTR [rsp+8], rcx
	push	rbp
	sub	rsp, 112				; 00000070H
	lea	rbp, QWORD PTR [rsp+32]

; 1808 :     unsigned int retval;
; 1809 :     assert(n > 0 && n <= 16);

	cmp	DWORD PTR n$[rbp], 0
	jne	SHORT $LN4@show_bits
	mov	DWORD PTR tv65[rbp], 1
	jmp	SHORT $LN5@show_bits
$LN4@show_bits:
	mov	DWORD PTR tv65[rbp], 0
$LN5@show_bits:
	cmp	DWORD PTR tv65[rbp], 0
	jle	SHORT $LN2@show_bits
	cmp	DWORD PTR n$[rbp], 16
	jg	SHORT $LN2@show_bits
	call	abort
$LN2@show_bits:

; 1810 :     retval = (unsigned int)(bs->cache >> (32 - n));

	mov	eax, 32					; 00000020H
	sub	eax, DWORD PTR n$[rbp]
	mov	rcx, QWORD PTR bs$[rbp]
	mov	QWORD PTR tv75[rbp], rcx
	movzx	ecx, al
	mov	rax, QWORD PTR tv75[rbp]
	mov	eax, DWORD PTR [rax]
	shr	eax, cl
	mov	DWORD PTR retval$[rbp], eax

; 1811 :     return retval;

	mov	eax, DWORD PTR retval$[rbp]

; 1812 : }

	lea	rsp, QWORD PTR [rbp+80]
	pop	rbp
	ret	0
?show_bits@@YAIPEAUbit_reader_t@@H@Z ENDP		; show_bits
_TEXT	ENDS
; Function compile flags: /Odtp /ZI
; File C:\Users\paras\source\repos\grep-name\XenevaOS\Process\AudioPlayer\minimp4.h
;	COMDAT ?od_size_of_size@@YAHH@Z
_TEXT	SEGMENT
i$ = 0
size_of_size$ = 4
size$ = 96
?od_size_of_size@@YAHH@Z PROC				; od_size_of_size, COMDAT

; 1167 : {

	mov	DWORD PTR [rsp+8], ecx
	push	rbp
	sub	rsp, 80					; 00000050H
	mov	rbp, rsp

; 1168 :     int i, size_of_size = 1;

	mov	DWORD PTR size_of_size$[rbp], 1

; 1169 :     for (i = size; i > 0x7F; i -= 0x7F)

	mov	eax, DWORD PTR size$[rbp]
	mov	DWORD PTR i$[rbp], eax
	jmp	SHORT $LN4@od_size_of
$LN2@od_size_of:
	mov	eax, DWORD PTR i$[rbp]
	sub	eax, 127				; 0000007fH
	mov	DWORD PTR i$[rbp], eax
$LN4@od_size_of:
	cmp	DWORD PTR i$[rbp], 127			; 0000007fH
	jle	SHORT $LN3@od_size_of

; 1170 :         size_of_size++;

	mov	eax, DWORD PTR size_of_size$[rbp]
	inc	eax
	mov	DWORD PTR size_of_size$[rbp], eax
	jmp	SHORT $LN2@od_size_of
$LN3@od_size_of:

; 1171 :     return size_of_size;

	mov	eax, DWORD PTR size_of_size$[rbp]

; 1172 : }

	lea	rsp, QWORD PTR [rbp+80]
	pop	rbp
	ret	0
?od_size_of_size@@YAHH@Z ENDP				; od_size_of_size
_TEXT	ENDS
; Function compile flags: /Odtp /ZI
; File C:\Users\paras\source\repos\grep-name\XenevaOS\Process\AudioPlayer\minimp4.h
;	COMDAT ?mp4e_write_mdat_box@@YAHPEAUMP4E_mux_tag@@I@Z
_TEXT	SEGMENT
base$ = 0
p$ = 8
err$1 = 16
mux$ = 112
size$ = 120
?mp4e_write_mdat_box@@YAHPEAUMP4E_mux_tag@@I@Z PROC	; mp4e_write_mdat_box, COMDAT

; 1090 : {

	mov	DWORD PTR [rsp+16], edx
	mov	QWORD PTR [rsp+8], rcx
	push	rbp
	sub	rsp, 128				; 00000080H
	lea	rbp, QWORD PTR [rsp+32]

; 1091 :     unsigned char base[8], * p = base;

	lea	rax, QWORD PTR base$[rbp]
	mov	QWORD PTR p$[rbp], rax

; 1092 :     WRITE_4(size);

	mov	eax, DWORD PTR size$[rbp]
	shr	eax, 24
	mov	rcx, QWORD PTR p$[rbp]
	mov	BYTE PTR [rcx], al
	mov	rax, QWORD PTR p$[rbp]
	inc	rax
	mov	QWORD PTR p$[rbp], rax
	mov	eax, DWORD PTR size$[rbp]
	shr	eax, 16
	mov	rcx, QWORD PTR p$[rbp]
	mov	BYTE PTR [rcx], al
	mov	rax, QWORD PTR p$[rbp]
	inc	rax
	mov	QWORD PTR p$[rbp], rax
	mov	eax, DWORD PTR size$[rbp]
	shr	eax, 8
	mov	rcx, QWORD PTR p$[rbp]
	mov	BYTE PTR [rcx], al
	mov	rax, QWORD PTR p$[rbp]
	inc	rax
	mov	QWORD PTR p$[rbp], rax
	mov	rax, QWORD PTR p$[rbp]
	movzx	ecx, BYTE PTR size$[rbp]
	mov	BYTE PTR [rax], cl
	mov	rax, QWORD PTR p$[rbp]
	inc	rax
	mov	QWORD PTR p$[rbp], rax

; 1093 :     WRITE_4(BOX_mdat);

	mov	rax, QWORD PTR p$[rbp]
	mov	BYTE PTR [rax], 109			; 0000006dH
	mov	rax, QWORD PTR p$[rbp]
	inc	rax
	mov	QWORD PTR p$[rbp], rax
	mov	rax, QWORD PTR p$[rbp]
	mov	BYTE PTR [rax], 100			; 00000064H
	mov	rax, QWORD PTR p$[rbp]
	inc	rax
	mov	QWORD PTR p$[rbp], rax
	mov	rax, QWORD PTR p$[rbp]
	mov	BYTE PTR [rax], 97			; 00000061H
	mov	rax, QWORD PTR p$[rbp]
	inc	rax
	mov	QWORD PTR p$[rbp], rax
	mov	rax, QWORD PTR p$[rbp]
	mov	BYTE PTR [rax], 116			; 00000074H
	mov	rax, QWORD PTR p$[rbp]
	inc	rax
	mov	QWORD PTR p$[rbp], rax

; 1094 :     ERR(mux->write_callback(mux->write_pos, base, p - base, mux->token));

	lea	rax, QWORD PTR base$[rbp]
	mov	rcx, QWORD PTR p$[rbp]
	sub	rcx, rax
	mov	rax, rcx
	mov	rcx, QWORD PTR mux$[rbp]
	mov	r9, QWORD PTR [rcx+32]
	mov	r8, rax
	lea	rdx, QWORD PTR base$[rbp]
	mov	rax, QWORD PTR mux$[rbp]
	mov	rcx, QWORD PTR [rax+16]
	mov	rax, QWORD PTR mux$[rbp]
	call	QWORD PTR [rax+24]
	mov	DWORD PTR err$1[rbp], eax
	cmp	DWORD PTR err$1[rbp], 0
	je	SHORT $LN2@mp4e_write
	mov	eax, DWORD PTR err$1[rbp]
	jmp	SHORT $LN1@mp4e_write
$LN2@mp4e_write:

; 1095 :     mux->write_pos += p - base;

	lea	rax, QWORD PTR base$[rbp]
	mov	rcx, QWORD PTR p$[rbp]
	sub	rcx, rax
	mov	rax, rcx
	mov	rcx, QWORD PTR mux$[rbp]
	add	rax, QWORD PTR [rcx+16]
	mov	rcx, QWORD PTR mux$[rbp]
	mov	QWORD PTR [rcx+16], rax

; 1096 :     return MP4E_STATUS_OK;

	xor	eax, eax
$LN1@mp4e_write:

; 1097 : }

	lea	rsp, QWORD PTR [rbp+96]
	pop	rbp
	ret	0
?mp4e_write_mdat_box@@YAHPEAUMP4E_mux_tag@@I@Z ENDP	; mp4e_write_mdat_box
_TEXT	ENDS
; Function compile flags: /Odtp /ZI
; File C:\Users\paras\source\repos\grep-name\XenevaOS\Process\AudioPlayer\minimp4.h
;	COMDAT ?mp4e_write_fragment_header@@YAHPEAUMP4E_mux_tag@@HHHH@Z
_TEXT	SEGMENT
base$ = 0
p$ = 896
stack_base$ = 912
stack$ = 1072
pdata_offset$ = 1080
flags$ = 1088
tr$ = 1096
err$1 = 1104
tv165 = 1300
mux$ = 1328
track_num$ = 1336
data_bytes$ = 1344
duration$ = 1352
kind$ = 1360
?mp4e_write_fragment_header@@YAHPEAUMP4E_mux_tag@@HHHH@Z PROC ; mp4e_write_fragment_header, COMDAT

; 998  : {

	mov	DWORD PTR [rsp+32], r9d
	mov	DWORD PTR [rsp+24], r8d
	mov	DWORD PTR [rsp+16], edx
	mov	QWORD PTR [rsp+8], rcx
	push	rbp
	sub	rsp, 1344				; 00000540H
	lea	rbp, QWORD PTR [rsp+32]

; 999  :     unsigned char base[888], * p = base;

	lea	rax, QWORD PTR base$[rbp]
	mov	QWORD PTR p$[rbp], rax

; 1000 :     unsigned char* stack_base[20]; // atoms nesting stack
; 1001 :     unsigned char** stack = stack_base;

	lea	rax, QWORD PTR stack_base$[rbp]
	mov	QWORD PTR stack$[rbp], rax

; 1002 :     unsigned char* pdata_offset;
; 1003 :     unsigned flags;
; 1004 :     enum
; 1005 :     {
; 1006 :         default_sample_duration_present = 0x000008,
; 1007 :         default_sample_flags_present = 0x000020,
; 1008 :     } e;
; 1009 : 
; 1010 :     track_t* tr = ((track_t*)mux->tracks.data) + track_num;

	movsxd	rax, DWORD PTR track_num$[rbp]
	imul	rax, rax, 112				; 00000070H
	mov	rcx, QWORD PTR mux$[rbp]
	add	rax, QWORD PTR [rcx]
	mov	QWORD PTR tr$[rbp], rax

; 1011 : 
; 1012 :     ATOM(BOX_moof)

	mov	rax, QWORD PTR stack$[rbp]
	mov	rcx, QWORD PTR p$[rbp]
	mov	QWORD PTR [rax], rcx
	mov	rax, QWORD PTR stack$[rbp]
	add	rax, 8
	mov	QWORD PTR stack$[rbp], rax
	mov	rax, QWORD PTR p$[rbp]
	add	rax, 4
	mov	QWORD PTR p$[rbp], rax
	mov	rax, QWORD PTR p$[rbp]
	mov	BYTE PTR [rax], 109			; 0000006dH
	mov	rax, QWORD PTR p$[rbp]
	inc	rax
	mov	QWORD PTR p$[rbp], rax
	mov	rax, QWORD PTR p$[rbp]
	mov	BYTE PTR [rax], 111			; 0000006fH
	mov	rax, QWORD PTR p$[rbp]
	inc	rax
	mov	QWORD PTR p$[rbp], rax
	mov	rax, QWORD PTR p$[rbp]
	mov	BYTE PTR [rax], 111			; 0000006fH
	mov	rax, QWORD PTR p$[rbp]
	inc	rax
	mov	QWORD PTR p$[rbp], rax
	mov	rax, QWORD PTR p$[rbp]
	mov	BYTE PTR [rax], 102			; 00000066H
	mov	rax, QWORD PTR p$[rbp]
	inc	rax
	mov	QWORD PTR p$[rbp], rax

; 1013 :         ATOM_FULL(BOX_mfhd, 0)

	mov	rax, QWORD PTR stack$[rbp]
	mov	rcx, QWORD PTR p$[rbp]
	mov	QWORD PTR [rax], rcx
	mov	rax, QWORD PTR stack$[rbp]
	add	rax, 8
	mov	QWORD PTR stack$[rbp], rax
	mov	rax, QWORD PTR p$[rbp]
	add	rax, 4
	mov	QWORD PTR p$[rbp], rax
	mov	rax, QWORD PTR p$[rbp]
	mov	BYTE PTR [rax], 109			; 0000006dH
	mov	rax, QWORD PTR p$[rbp]
	inc	rax
	mov	QWORD PTR p$[rbp], rax
	mov	rax, QWORD PTR p$[rbp]
	mov	BYTE PTR [rax], 102			; 00000066H
	mov	rax, QWORD PTR p$[rbp]
	inc	rax
	mov	QWORD PTR p$[rbp], rax
	mov	rax, QWORD PTR p$[rbp]
	mov	BYTE PTR [rax], 104			; 00000068H
	mov	rax, QWORD PTR p$[rbp]
	inc	rax
	mov	QWORD PTR p$[rbp], rax
	mov	rax, QWORD PTR p$[rbp]
	mov	BYTE PTR [rax], 100			; 00000064H
	mov	rax, QWORD PTR p$[rbp]
	inc	rax
	mov	QWORD PTR p$[rbp], rax
	mov	rax, QWORD PTR p$[rbp]
	mov	BYTE PTR [rax], 0
	mov	rax, QWORD PTR p$[rbp]
	inc	rax
	mov	QWORD PTR p$[rbp], rax
	mov	rax, QWORD PTR p$[rbp]
	mov	BYTE PTR [rax], 0
	mov	rax, QWORD PTR p$[rbp]
	inc	rax
	mov	QWORD PTR p$[rbp], rax
	mov	rax, QWORD PTR p$[rbp]
	mov	BYTE PTR [rax], 0
	mov	rax, QWORD PTR p$[rbp]
	inc	rax
	mov	QWORD PTR p$[rbp], rax
	mov	rax, QWORD PTR p$[rbp]
	mov	BYTE PTR [rax], 0
	mov	rax, QWORD PTR p$[rbp]
	inc	rax
	mov	QWORD PTR p$[rbp], rax

; 1014 :         WRITE_4(mux->fragments_count);  // start from 1

	mov	rax, QWORD PTR mux$[rbp]
	mov	eax, DWORD PTR [rax+56]
	sar	eax, 24
	mov	rcx, QWORD PTR p$[rbp]
	mov	BYTE PTR [rcx], al
	mov	rax, QWORD PTR p$[rbp]
	inc	rax
	mov	QWORD PTR p$[rbp], rax
	mov	rax, QWORD PTR mux$[rbp]
	mov	eax, DWORD PTR [rax+56]
	sar	eax, 16
	mov	rcx, QWORD PTR p$[rbp]
	mov	BYTE PTR [rcx], al
	mov	rax, QWORD PTR p$[rbp]
	inc	rax
	mov	QWORD PTR p$[rbp], rax
	mov	rax, QWORD PTR mux$[rbp]
	mov	eax, DWORD PTR [rax+56]
	sar	eax, 8
	mov	rcx, QWORD PTR p$[rbp]
	mov	BYTE PTR [rcx], al
	mov	rax, QWORD PTR p$[rbp]
	inc	rax
	mov	QWORD PTR p$[rbp], rax
	mov	rax, QWORD PTR p$[rbp]
	mov	rcx, QWORD PTR mux$[rbp]
	movzx	ecx, BYTE PTR [rcx+56]
	mov	BYTE PTR [rax], cl
	mov	rax, QWORD PTR p$[rbp]
	inc	rax
	mov	QWORD PTR p$[rbp], rax

; 1015 :     END_ATOM

	mov	rax, QWORD PTR stack$[rbp]
	sub	rax, 8
	mov	QWORD PTR stack$[rbp], rax
	mov	rax, QWORD PTR stack$[rbp]
	mov	rax, QWORD PTR [rax]
	mov	rcx, QWORD PTR p$[rbp]
	sub	rcx, rax
	mov	rax, rcx
	sar	rax, 24
	mov	ecx, 1
	imul	rcx, rcx, 0
	mov	rdx, QWORD PTR stack$[rbp]
	mov	rdx, QWORD PTR [rdx]
	mov	BYTE PTR [rcx+rdx], al
	mov	rax, QWORD PTR stack$[rbp]
	mov	rax, QWORD PTR [rax]
	mov	rcx, QWORD PTR p$[rbp]
	sub	rcx, rax
	mov	rax, rcx
	sar	rax, 16
	mov	ecx, 1
	imul	rcx, rcx, 1
	mov	rdx, QWORD PTR stack$[rbp]
	mov	rdx, QWORD PTR [rdx]
	mov	BYTE PTR [rcx+rdx], al
	mov	rax, QWORD PTR stack$[rbp]
	mov	rax, QWORD PTR [rax]
	mov	rcx, QWORD PTR p$[rbp]
	sub	rcx, rax
	mov	rax, rcx
	sar	rax, 8
	mov	ecx, 1
	imul	rcx, rcx, 2
	mov	rdx, QWORD PTR stack$[rbp]
	mov	rdx, QWORD PTR [rdx]
	mov	BYTE PTR [rcx+rdx], al
	mov	rax, QWORD PTR stack$[rbp]
	mov	rax, QWORD PTR [rax]
	mov	rcx, QWORD PTR p$[rbp]
	sub	rcx, rax
	mov	rax, rcx
	mov	ecx, 1
	imul	rcx, rcx, 3
	mov	rdx, QWORD PTR stack$[rbp]
	mov	rdx, QWORD PTR [rdx]
	mov	BYTE PTR [rcx+rdx], al

; 1016 :         ATOM(BOX_traf)

	mov	rax, QWORD PTR stack$[rbp]
	mov	rcx, QWORD PTR p$[rbp]
	mov	QWORD PTR [rax], rcx
	mov	rax, QWORD PTR stack$[rbp]
	add	rax, 8
	mov	QWORD PTR stack$[rbp], rax
	mov	rax, QWORD PTR p$[rbp]
	add	rax, 4
	mov	QWORD PTR p$[rbp], rax
	mov	rax, QWORD PTR p$[rbp]
	mov	BYTE PTR [rax], 116			; 00000074H
	mov	rax, QWORD PTR p$[rbp]
	inc	rax
	mov	QWORD PTR p$[rbp], rax
	mov	rax, QWORD PTR p$[rbp]
	mov	BYTE PTR [rax], 114			; 00000072H
	mov	rax, QWORD PTR p$[rbp]
	inc	rax
	mov	QWORD PTR p$[rbp], rax
	mov	rax, QWORD PTR p$[rbp]
	mov	BYTE PTR [rax], 97			; 00000061H
	mov	rax, QWORD PTR p$[rbp]
	inc	rax
	mov	QWORD PTR p$[rbp], rax
	mov	rax, QWORD PTR p$[rbp]
	mov	BYTE PTR [rax], 102			; 00000066H
	mov	rax, QWORD PTR p$[rbp]
	inc	rax
	mov	QWORD PTR p$[rbp], rax

; 1017 :         flags = 0;

	mov	DWORD PTR flags$[rbp], 0

; 1018 :     if (tr->info.track_media_kind == e_video)

	mov	rax, QWORD PTR tr$[rbp]
	cmp	DWORD PTR [rax+8], 1
	jne	SHORT $LN2@mp4e_write

; 1019 :         flags |= 0x20;          // default-sample-flags-present

	mov	eax, DWORD PTR flags$[rbp]
	or	eax, 32					; 00000020H
	mov	DWORD PTR flags$[rbp], eax
	jmp	SHORT $LN3@mp4e_write
$LN2@mp4e_write:

; 1020 :     else
; 1021 :         flags |= 0x08;          // default-sample-duration-present

	mov	eax, DWORD PTR flags$[rbp]
	or	eax, 8
	mov	DWORD PTR flags$[rbp], eax
$LN3@mp4e_write:

; 1022 :     flags = (tr->info.track_media_kind == e_video) ? 0x20020 : 0x20008;

	mov	rax, QWORD PTR tr$[rbp]
	cmp	DWORD PTR [rax+8], 1
	jne	SHORT $LN12@mp4e_write
	mov	DWORD PTR tv165[rbp], 131104		; 00020020H
	jmp	SHORT $LN13@mp4e_write
$LN12@mp4e_write:
	mov	DWORD PTR tv165[rbp], 131080		; 00020008H
$LN13@mp4e_write:
	mov	eax, DWORD PTR tv165[rbp]
	mov	DWORD PTR flags$[rbp], eax

; 1023 : 
; 1024 :     ATOM_FULL(BOX_tfhd, flags)

	mov	rax, QWORD PTR stack$[rbp]
	mov	rcx, QWORD PTR p$[rbp]
	mov	QWORD PTR [rax], rcx
	mov	rax, QWORD PTR stack$[rbp]
	add	rax, 8
	mov	QWORD PTR stack$[rbp], rax
	mov	rax, QWORD PTR p$[rbp]
	add	rax, 4
	mov	QWORD PTR p$[rbp], rax
	mov	rax, QWORD PTR p$[rbp]
	mov	BYTE PTR [rax], 116			; 00000074H
	mov	rax, QWORD PTR p$[rbp]
	inc	rax
	mov	QWORD PTR p$[rbp], rax
	mov	rax, QWORD PTR p$[rbp]
	mov	BYTE PTR [rax], 102			; 00000066H
	mov	rax, QWORD PTR p$[rbp]
	inc	rax
	mov	QWORD PTR p$[rbp], rax
	mov	rax, QWORD PTR p$[rbp]
	mov	BYTE PTR [rax], 104			; 00000068H
	mov	rax, QWORD PTR p$[rbp]
	inc	rax
	mov	QWORD PTR p$[rbp], rax
	mov	rax, QWORD PTR p$[rbp]
	mov	BYTE PTR [rax], 100			; 00000064H
	mov	rax, QWORD PTR p$[rbp]
	inc	rax
	mov	QWORD PTR p$[rbp], rax
	mov	eax, DWORD PTR flags$[rbp]
	shr	eax, 24
	mov	rcx, QWORD PTR p$[rbp]
	mov	BYTE PTR [rcx], al
	mov	rax, QWORD PTR p$[rbp]
	inc	rax
	mov	QWORD PTR p$[rbp], rax
	mov	eax, DWORD PTR flags$[rbp]
	shr	eax, 16
	mov	rcx, QWORD PTR p$[rbp]
	mov	BYTE PTR [rcx], al
	mov	rax, QWORD PTR p$[rbp]
	inc	rax
	mov	QWORD PTR p$[rbp], rax
	mov	eax, DWORD PTR flags$[rbp]
	shr	eax, 8
	mov	rcx, QWORD PTR p$[rbp]
	mov	BYTE PTR [rcx], al
	mov	rax, QWORD PTR p$[rbp]
	inc	rax
	mov	QWORD PTR p$[rbp], rax
	mov	rax, QWORD PTR p$[rbp]
	movzx	ecx, BYTE PTR flags$[rbp]
	mov	BYTE PTR [rax], cl
	mov	rax, QWORD PTR p$[rbp]
	inc	rax
	mov	QWORD PTR p$[rbp], rax

; 1025 :         WRITE_4(track_num + 1); // track_ID

	mov	eax, DWORD PTR track_num$[rbp]
	inc	eax
	sar	eax, 24
	mov	rcx, QWORD PTR p$[rbp]
	mov	BYTE PTR [rcx], al
	mov	rax, QWORD PTR p$[rbp]
	inc	rax
	mov	QWORD PTR p$[rbp], rax
	mov	eax, DWORD PTR track_num$[rbp]
	inc	eax
	sar	eax, 16
	mov	rcx, QWORD PTR p$[rbp]
	mov	BYTE PTR [rcx], al
	mov	rax, QWORD PTR p$[rbp]
	inc	rax
	mov	QWORD PTR p$[rbp], rax
	mov	eax, DWORD PTR track_num$[rbp]
	inc	eax
	sar	eax, 8
	mov	rcx, QWORD PTR p$[rbp]
	mov	BYTE PTR [rcx], al
	mov	rax, QWORD PTR p$[rbp]
	inc	rax
	mov	QWORD PTR p$[rbp], rax
	mov	eax, DWORD PTR track_num$[rbp]
	inc	eax
	mov	rcx, QWORD PTR p$[rbp]
	mov	BYTE PTR [rcx], al
	mov	rax, QWORD PTR p$[rbp]
	inc	rax
	mov	QWORD PTR p$[rbp], rax

; 1026 :     if (tr->info.track_media_kind == e_video)

	mov	rax, QWORD PTR tr$[rbp]
	cmp	DWORD PTR [rax+8], 1
	jne	SHORT $LN4@mp4e_write

; 1027 :     {
; 1028 :         WRITE_4(0x1010000); // default_sample_flags

	mov	rax, QWORD PTR p$[rbp]
	mov	BYTE PTR [rax], 1
	mov	rax, QWORD PTR p$[rbp]
	inc	rax
	mov	QWORD PTR p$[rbp], rax
	mov	rax, QWORD PTR p$[rbp]
	mov	BYTE PTR [rax], 1
	mov	rax, QWORD PTR p$[rbp]
	inc	rax
	mov	QWORD PTR p$[rbp], rax
	mov	rax, QWORD PTR p$[rbp]
	mov	BYTE PTR [rax], 0
	mov	rax, QWORD PTR p$[rbp]
	inc	rax
	mov	QWORD PTR p$[rbp], rax
	mov	rax, QWORD PTR p$[rbp]
	mov	BYTE PTR [rax], 0
	mov	rax, QWORD PTR p$[rbp]
	inc	rax
	mov	QWORD PTR p$[rbp], rax

; 1029 :     }

	jmp	$LN5@mp4e_write
$LN4@mp4e_write:

; 1030 :     else
; 1031 :     {
; 1032 :         WRITE_4(duration);

	mov	eax, DWORD PTR duration$[rbp]
	sar	eax, 24
	mov	rcx, QWORD PTR p$[rbp]
	mov	BYTE PTR [rcx], al
	mov	rax, QWORD PTR p$[rbp]
	inc	rax
	mov	QWORD PTR p$[rbp], rax
	mov	eax, DWORD PTR duration$[rbp]
	sar	eax, 16
	mov	rcx, QWORD PTR p$[rbp]
	mov	BYTE PTR [rcx], al
	mov	rax, QWORD PTR p$[rbp]
	inc	rax
	mov	QWORD PTR p$[rbp], rax
	mov	eax, DWORD PTR duration$[rbp]
	sar	eax, 8
	mov	rcx, QWORD PTR p$[rbp]
	mov	BYTE PTR [rcx], al
	mov	rax, QWORD PTR p$[rbp]
	inc	rax
	mov	QWORD PTR p$[rbp], rax
	mov	rax, QWORD PTR p$[rbp]
	movzx	ecx, BYTE PTR duration$[rbp]
	mov	BYTE PTR [rax], cl
	mov	rax, QWORD PTR p$[rbp]
	inc	rax
	mov	QWORD PTR p$[rbp], rax
$LN5@mp4e_write:

; 1033 :     }
; 1034 :     END_ATOM

	mov	rax, QWORD PTR stack$[rbp]
	sub	rax, 8
	mov	QWORD PTR stack$[rbp], rax
	mov	rax, QWORD PTR stack$[rbp]
	mov	rax, QWORD PTR [rax]
	mov	rcx, QWORD PTR p$[rbp]
	sub	rcx, rax
	mov	rax, rcx
	sar	rax, 24
	mov	ecx, 1
	imul	rcx, rcx, 0
	mov	rdx, QWORD PTR stack$[rbp]
	mov	rdx, QWORD PTR [rdx]
	mov	BYTE PTR [rcx+rdx], al
	mov	rax, QWORD PTR stack$[rbp]
	mov	rax, QWORD PTR [rax]
	mov	rcx, QWORD PTR p$[rbp]
	sub	rcx, rax
	mov	rax, rcx
	sar	rax, 16
	mov	ecx, 1
	imul	rcx, rcx, 1
	mov	rdx, QWORD PTR stack$[rbp]
	mov	rdx, QWORD PTR [rdx]
	mov	BYTE PTR [rcx+rdx], al
	mov	rax, QWORD PTR stack$[rbp]
	mov	rax, QWORD PTR [rax]
	mov	rcx, QWORD PTR p$[rbp]
	sub	rcx, rax
	mov	rax, rcx
	sar	rax, 8
	mov	ecx, 1
	imul	rcx, rcx, 2
	mov	rdx, QWORD PTR stack$[rbp]
	mov	rdx, QWORD PTR [rdx]
	mov	BYTE PTR [rcx+rdx], al
	mov	rax, QWORD PTR stack$[rbp]
	mov	rax, QWORD PTR [rax]
	mov	rcx, QWORD PTR p$[rbp]
	sub	rcx, rax
	mov	rax, rcx
	mov	ecx, 1
	imul	rcx, rcx, 3
	mov	rdx, QWORD PTR stack$[rbp]
	mov	rdx, QWORD PTR [rdx]
	mov	BYTE PTR [rcx+rdx], al

; 1035 : #if MP4D_TFDT_SUPPORT
; 1036 :         ATOM_FULL(BOX_tfdt, 0x01000000) // version 1
; 1037 :         WRITE_4(timestamp >> 32); // upper timestamp
; 1038 :     WRITE_4(timestamp & 0xffffffff); // lower timestamp
; 1039 :     END_ATOM
; 1040 : #endif
; 1041 :         if (tr->info.track_media_kind == e_audio)

	mov	rax, QWORD PTR tr$[rbp]
	cmp	DWORD PTR [rax+8], 0
	jne	$LN6@mp4e_write

; 1042 :         {
; 1043 :             flags = 0;

	mov	DWORD PTR flags$[rbp], 0

; 1044 :             flags |= 0x001;         // data-offset-present

	mov	eax, DWORD PTR flags$[rbp]
	or	eax, 1
	mov	DWORD PTR flags$[rbp], eax

; 1045 :             flags |= 0x200;         // sample-size-present

	mov	eax, DWORD PTR flags$[rbp]
	bts	eax, 9
	mov	DWORD PTR flags$[rbp], eax

; 1046 :             ATOM_FULL(BOX_trun, flags)

	mov	rax, QWORD PTR stack$[rbp]
	mov	rcx, QWORD PTR p$[rbp]
	mov	QWORD PTR [rax], rcx
	mov	rax, QWORD PTR stack$[rbp]
	add	rax, 8
	mov	QWORD PTR stack$[rbp], rax
	mov	rax, QWORD PTR p$[rbp]
	add	rax, 4
	mov	QWORD PTR p$[rbp], rax
	mov	rax, QWORD PTR p$[rbp]
	mov	BYTE PTR [rax], 116			; 00000074H
	mov	rax, QWORD PTR p$[rbp]
	inc	rax
	mov	QWORD PTR p$[rbp], rax
	mov	rax, QWORD PTR p$[rbp]
	mov	BYTE PTR [rax], 114			; 00000072H
	mov	rax, QWORD PTR p$[rbp]
	inc	rax
	mov	QWORD PTR p$[rbp], rax
	mov	rax, QWORD PTR p$[rbp]
	mov	BYTE PTR [rax], 117			; 00000075H
	mov	rax, QWORD PTR p$[rbp]
	inc	rax
	mov	QWORD PTR p$[rbp], rax
	mov	rax, QWORD PTR p$[rbp]
	mov	BYTE PTR [rax], 110			; 0000006eH
	mov	rax, QWORD PTR p$[rbp]
	inc	rax
	mov	QWORD PTR p$[rbp], rax
	mov	eax, DWORD PTR flags$[rbp]
	shr	eax, 24
	mov	rcx, QWORD PTR p$[rbp]
	mov	BYTE PTR [rcx], al
	mov	rax, QWORD PTR p$[rbp]
	inc	rax
	mov	QWORD PTR p$[rbp], rax
	mov	eax, DWORD PTR flags$[rbp]
	shr	eax, 16
	mov	rcx, QWORD PTR p$[rbp]
	mov	BYTE PTR [rcx], al
	mov	rax, QWORD PTR p$[rbp]
	inc	rax
	mov	QWORD PTR p$[rbp], rax
	mov	eax, DWORD PTR flags$[rbp]
	shr	eax, 8
	mov	rcx, QWORD PTR p$[rbp]
	mov	BYTE PTR [rcx], al
	mov	rax, QWORD PTR p$[rbp]
	inc	rax
	mov	QWORD PTR p$[rbp], rax
	mov	rax, QWORD PTR p$[rbp]
	movzx	ecx, BYTE PTR flags$[rbp]
	mov	BYTE PTR [rax], cl
	mov	rax, QWORD PTR p$[rbp]
	inc	rax
	mov	QWORD PTR p$[rbp], rax

; 1047 :                 WRITE_4(1);         // sample_count

	mov	rax, QWORD PTR p$[rbp]
	mov	BYTE PTR [rax], 0
	mov	rax, QWORD PTR p$[rbp]
	inc	rax
	mov	QWORD PTR p$[rbp], rax
	mov	rax, QWORD PTR p$[rbp]
	mov	BYTE PTR [rax], 0
	mov	rax, QWORD PTR p$[rbp]
	inc	rax
	mov	QWORD PTR p$[rbp], rax
	mov	rax, QWORD PTR p$[rbp]
	mov	BYTE PTR [rax], 0
	mov	rax, QWORD PTR p$[rbp]
	inc	rax
	mov	QWORD PTR p$[rbp], rax
	mov	rax, QWORD PTR p$[rbp]
	mov	BYTE PTR [rax], 1
	mov	rax, QWORD PTR p$[rbp]
	inc	rax
	mov	QWORD PTR p$[rbp], rax

; 1048 :             pdata_offset = p; p += 4;  // save ptr to data_offset

	mov	rax, QWORD PTR p$[rbp]
	mov	QWORD PTR pdata_offset$[rbp], rax
	mov	rax, QWORD PTR p$[rbp]
	add	rax, 4
	mov	QWORD PTR p$[rbp], rax

; 1049 :             WRITE_4(data_bytes);// sample_size

	mov	eax, DWORD PTR data_bytes$[rbp]
	sar	eax, 24
	mov	rcx, QWORD PTR p$[rbp]
	mov	BYTE PTR [rcx], al
	mov	rax, QWORD PTR p$[rbp]
	inc	rax
	mov	QWORD PTR p$[rbp], rax
	mov	eax, DWORD PTR data_bytes$[rbp]
	sar	eax, 16
	mov	rcx, QWORD PTR p$[rbp]
	mov	BYTE PTR [rcx], al
	mov	rax, QWORD PTR p$[rbp]
	inc	rax
	mov	QWORD PTR p$[rbp], rax
	mov	eax, DWORD PTR data_bytes$[rbp]
	sar	eax, 8
	mov	rcx, QWORD PTR p$[rbp]
	mov	BYTE PTR [rcx], al
	mov	rax, QWORD PTR p$[rbp]
	inc	rax
	mov	QWORD PTR p$[rbp], rax
	mov	rax, QWORD PTR p$[rbp]
	movzx	ecx, BYTE PTR data_bytes$[rbp]
	mov	BYTE PTR [rax], cl
	mov	rax, QWORD PTR p$[rbp]
	inc	rax
	mov	QWORD PTR p$[rbp], rax

; 1050 :             END_ATOM

	mov	rax, QWORD PTR stack$[rbp]
	sub	rax, 8
	mov	QWORD PTR stack$[rbp], rax
	mov	rax, QWORD PTR stack$[rbp]
	mov	rax, QWORD PTR [rax]
	mov	rcx, QWORD PTR p$[rbp]
	sub	rcx, rax
	mov	rax, rcx
	sar	rax, 24
	mov	ecx, 1
	imul	rcx, rcx, 0
	mov	rdx, QWORD PTR stack$[rbp]
	mov	rdx, QWORD PTR [rdx]
	mov	BYTE PTR [rcx+rdx], al
	mov	rax, QWORD PTR stack$[rbp]
	mov	rax, QWORD PTR [rax]
	mov	rcx, QWORD PTR p$[rbp]
	sub	rcx, rax
	mov	rax, rcx
	sar	rax, 16
	mov	ecx, 1
	imul	rcx, rcx, 1
	mov	rdx, QWORD PTR stack$[rbp]
	mov	rdx, QWORD PTR [rdx]
	mov	BYTE PTR [rcx+rdx], al
	mov	rax, QWORD PTR stack$[rbp]
	mov	rax, QWORD PTR [rax]
	mov	rcx, QWORD PTR p$[rbp]
	sub	rcx, rax
	mov	rax, rcx
	sar	rax, 8
	mov	ecx, 1
	imul	rcx, rcx, 2
	mov	rdx, QWORD PTR stack$[rbp]
	mov	rdx, QWORD PTR [rdx]
	mov	BYTE PTR [rcx+rdx], al
	mov	rax, QWORD PTR stack$[rbp]
	mov	rax, QWORD PTR [rax]
	mov	rcx, QWORD PTR p$[rbp]
	sub	rcx, rax
	mov	rax, rcx
	mov	ecx, 1
	imul	rcx, rcx, 3
	mov	rdx, QWORD PTR stack$[rbp]
	mov	rdx, QWORD PTR [rdx]
	mov	BYTE PTR [rcx+rdx], al

; 1051 :         }

	jmp	$LN7@mp4e_write
$LN6@mp4e_write:

; 1052 :         else if (kind == MP4E_SAMPLE_RANDOM_ACCESS)

	cmp	DWORD PTR kind$[rbp], 1
	jne	$LN8@mp4e_write

; 1053 :         {
; 1054 :             flags = 0;

	mov	DWORD PTR flags$[rbp], 0

; 1055 :             flags |= 0x001;         // data-offset-present

	mov	eax, DWORD PTR flags$[rbp]
	or	eax, 1
	mov	DWORD PTR flags$[rbp], eax

; 1056 :             flags |= 0x004;         // first-sample-flags-present

	mov	eax, DWORD PTR flags$[rbp]
	or	eax, 4
	mov	DWORD PTR flags$[rbp], eax

; 1057 :             flags |= 0x100;         // sample-duration-present

	mov	eax, DWORD PTR flags$[rbp]
	bts	eax, 8
	mov	DWORD PTR flags$[rbp], eax

; 1058 :             flags |= 0x200;         // sample-size-present

	mov	eax, DWORD PTR flags$[rbp]
	bts	eax, 9
	mov	DWORD PTR flags$[rbp], eax

; 1059 :             ATOM_FULL(BOX_trun, flags)

	mov	rax, QWORD PTR stack$[rbp]
	mov	rcx, QWORD PTR p$[rbp]
	mov	QWORD PTR [rax], rcx
	mov	rax, QWORD PTR stack$[rbp]
	add	rax, 8
	mov	QWORD PTR stack$[rbp], rax
	mov	rax, QWORD PTR p$[rbp]
	add	rax, 4
	mov	QWORD PTR p$[rbp], rax
	mov	rax, QWORD PTR p$[rbp]
	mov	BYTE PTR [rax], 116			; 00000074H
	mov	rax, QWORD PTR p$[rbp]
	inc	rax
	mov	QWORD PTR p$[rbp], rax
	mov	rax, QWORD PTR p$[rbp]
	mov	BYTE PTR [rax], 114			; 00000072H
	mov	rax, QWORD PTR p$[rbp]
	inc	rax
	mov	QWORD PTR p$[rbp], rax
	mov	rax, QWORD PTR p$[rbp]
	mov	BYTE PTR [rax], 117			; 00000075H
	mov	rax, QWORD PTR p$[rbp]
	inc	rax
	mov	QWORD PTR p$[rbp], rax
	mov	rax, QWORD PTR p$[rbp]
	mov	BYTE PTR [rax], 110			; 0000006eH
	mov	rax, QWORD PTR p$[rbp]
	inc	rax
	mov	QWORD PTR p$[rbp], rax
	mov	eax, DWORD PTR flags$[rbp]
	shr	eax, 24
	mov	rcx, QWORD PTR p$[rbp]
	mov	BYTE PTR [rcx], al
	mov	rax, QWORD PTR p$[rbp]
	inc	rax
	mov	QWORD PTR p$[rbp], rax
	mov	eax, DWORD PTR flags$[rbp]
	shr	eax, 16
	mov	rcx, QWORD PTR p$[rbp]
	mov	BYTE PTR [rcx], al
	mov	rax, QWORD PTR p$[rbp]
	inc	rax
	mov	QWORD PTR p$[rbp], rax
	mov	eax, DWORD PTR flags$[rbp]
	shr	eax, 8
	mov	rcx, QWORD PTR p$[rbp]
	mov	BYTE PTR [rcx], al
	mov	rax, QWORD PTR p$[rbp]
	inc	rax
	mov	QWORD PTR p$[rbp], rax
	mov	rax, QWORD PTR p$[rbp]
	movzx	ecx, BYTE PTR flags$[rbp]
	mov	BYTE PTR [rax], cl
	mov	rax, QWORD PTR p$[rbp]
	inc	rax
	mov	QWORD PTR p$[rbp], rax

; 1060 :                 WRITE_4(1);         // sample_count

	mov	rax, QWORD PTR p$[rbp]
	mov	BYTE PTR [rax], 0
	mov	rax, QWORD PTR p$[rbp]
	inc	rax
	mov	QWORD PTR p$[rbp], rax
	mov	rax, QWORD PTR p$[rbp]
	mov	BYTE PTR [rax], 0
	mov	rax, QWORD PTR p$[rbp]
	inc	rax
	mov	QWORD PTR p$[rbp], rax
	mov	rax, QWORD PTR p$[rbp]
	mov	BYTE PTR [rax], 0
	mov	rax, QWORD PTR p$[rbp]
	inc	rax
	mov	QWORD PTR p$[rbp], rax
	mov	rax, QWORD PTR p$[rbp]
	mov	BYTE PTR [rax], 1
	mov	rax, QWORD PTR p$[rbp]
	inc	rax
	mov	QWORD PTR p$[rbp], rax

; 1061 :             pdata_offset = p; p += 4;   // save ptr to data_offset

	mov	rax, QWORD PTR p$[rbp]
	mov	QWORD PTR pdata_offset$[rbp], rax
	mov	rax, QWORD PTR p$[rbp]
	add	rax, 4
	mov	QWORD PTR p$[rbp], rax

; 1062 :             WRITE_4(0x2000000); // first_sample_flags

	mov	rax, QWORD PTR p$[rbp]
	mov	BYTE PTR [rax], 2
	mov	rax, QWORD PTR p$[rbp]
	inc	rax
	mov	QWORD PTR p$[rbp], rax
	mov	rax, QWORD PTR p$[rbp]
	mov	BYTE PTR [rax], 0
	mov	rax, QWORD PTR p$[rbp]
	inc	rax
	mov	QWORD PTR p$[rbp], rax
	mov	rax, QWORD PTR p$[rbp]
	mov	BYTE PTR [rax], 0
	mov	rax, QWORD PTR p$[rbp]
	inc	rax
	mov	QWORD PTR p$[rbp], rax
	mov	rax, QWORD PTR p$[rbp]
	mov	BYTE PTR [rax], 0
	mov	rax, QWORD PTR p$[rbp]
	inc	rax
	mov	QWORD PTR p$[rbp], rax

; 1063 :             WRITE_4(duration);  // sample_duration

	mov	eax, DWORD PTR duration$[rbp]
	sar	eax, 24
	mov	rcx, QWORD PTR p$[rbp]
	mov	BYTE PTR [rcx], al
	mov	rax, QWORD PTR p$[rbp]
	inc	rax
	mov	QWORD PTR p$[rbp], rax
	mov	eax, DWORD PTR duration$[rbp]
	sar	eax, 16
	mov	rcx, QWORD PTR p$[rbp]
	mov	BYTE PTR [rcx], al
	mov	rax, QWORD PTR p$[rbp]
	inc	rax
	mov	QWORD PTR p$[rbp], rax
	mov	eax, DWORD PTR duration$[rbp]
	sar	eax, 8
	mov	rcx, QWORD PTR p$[rbp]
	mov	BYTE PTR [rcx], al
	mov	rax, QWORD PTR p$[rbp]
	inc	rax
	mov	QWORD PTR p$[rbp], rax
	mov	rax, QWORD PTR p$[rbp]
	movzx	ecx, BYTE PTR duration$[rbp]
	mov	BYTE PTR [rax], cl
	mov	rax, QWORD PTR p$[rbp]
	inc	rax
	mov	QWORD PTR p$[rbp], rax

; 1064 :             WRITE_4(data_bytes);// sample_size

	mov	eax, DWORD PTR data_bytes$[rbp]
	sar	eax, 24
	mov	rcx, QWORD PTR p$[rbp]
	mov	BYTE PTR [rcx], al
	mov	rax, QWORD PTR p$[rbp]
	inc	rax
	mov	QWORD PTR p$[rbp], rax
	mov	eax, DWORD PTR data_bytes$[rbp]
	sar	eax, 16
	mov	rcx, QWORD PTR p$[rbp]
	mov	BYTE PTR [rcx], al
	mov	rax, QWORD PTR p$[rbp]
	inc	rax
	mov	QWORD PTR p$[rbp], rax
	mov	eax, DWORD PTR data_bytes$[rbp]
	sar	eax, 8
	mov	rcx, QWORD PTR p$[rbp]
	mov	BYTE PTR [rcx], al
	mov	rax, QWORD PTR p$[rbp]
	inc	rax
	mov	QWORD PTR p$[rbp], rax
	mov	rax, QWORD PTR p$[rbp]
	movzx	ecx, BYTE PTR data_bytes$[rbp]
	mov	BYTE PTR [rax], cl
	mov	rax, QWORD PTR p$[rbp]
	inc	rax
	mov	QWORD PTR p$[rbp], rax

; 1065 :             END_ATOM

	mov	rax, QWORD PTR stack$[rbp]
	sub	rax, 8
	mov	QWORD PTR stack$[rbp], rax
	mov	rax, QWORD PTR stack$[rbp]
	mov	rax, QWORD PTR [rax]
	mov	rcx, QWORD PTR p$[rbp]
	sub	rcx, rax
	mov	rax, rcx
	sar	rax, 24
	mov	ecx, 1
	imul	rcx, rcx, 0
	mov	rdx, QWORD PTR stack$[rbp]
	mov	rdx, QWORD PTR [rdx]
	mov	BYTE PTR [rcx+rdx], al
	mov	rax, QWORD PTR stack$[rbp]
	mov	rax, QWORD PTR [rax]
	mov	rcx, QWORD PTR p$[rbp]
	sub	rcx, rax
	mov	rax, rcx
	sar	rax, 16
	mov	ecx, 1
	imul	rcx, rcx, 1
	mov	rdx, QWORD PTR stack$[rbp]
	mov	rdx, QWORD PTR [rdx]
	mov	BYTE PTR [rcx+rdx], al
	mov	rax, QWORD PTR stack$[rbp]
	mov	rax, QWORD PTR [rax]
	mov	rcx, QWORD PTR p$[rbp]
	sub	rcx, rax
	mov	rax, rcx
	sar	rax, 8
	mov	ecx, 1
	imul	rcx, rcx, 2
	mov	rdx, QWORD PTR stack$[rbp]
	mov	rdx, QWORD PTR [rdx]
	mov	BYTE PTR [rcx+rdx], al
	mov	rax, QWORD PTR stack$[rbp]
	mov	rax, QWORD PTR [rax]
	mov	rcx, QWORD PTR p$[rbp]
	sub	rcx, rax
	mov	rax, rcx
	mov	ecx, 1
	imul	rcx, rcx, 3
	mov	rdx, QWORD PTR stack$[rbp]
	mov	rdx, QWORD PTR [rdx]
	mov	BYTE PTR [rcx+rdx], al

; 1066 :         }

	jmp	$LN9@mp4e_write
$LN8@mp4e_write:

; 1067 :         else
; 1068 :         {
; 1069 :             flags = 0;

	mov	DWORD PTR flags$[rbp], 0

; 1070 :             flags |= 0x001;         // data-offset-present

	mov	eax, DWORD PTR flags$[rbp]
	or	eax, 1
	mov	DWORD PTR flags$[rbp], eax

; 1071 :             flags |= 0x100;         // sample-duration-present

	mov	eax, DWORD PTR flags$[rbp]
	bts	eax, 8
	mov	DWORD PTR flags$[rbp], eax

; 1072 :             flags |= 0x200;         // sample-size-present

	mov	eax, DWORD PTR flags$[rbp]
	bts	eax, 9
	mov	DWORD PTR flags$[rbp], eax

; 1073 :             ATOM_FULL(BOX_trun, flags)

	mov	rax, QWORD PTR stack$[rbp]
	mov	rcx, QWORD PTR p$[rbp]
	mov	QWORD PTR [rax], rcx
	mov	rax, QWORD PTR stack$[rbp]
	add	rax, 8
	mov	QWORD PTR stack$[rbp], rax
	mov	rax, QWORD PTR p$[rbp]
	add	rax, 4
	mov	QWORD PTR p$[rbp], rax
	mov	rax, QWORD PTR p$[rbp]
	mov	BYTE PTR [rax], 116			; 00000074H
	mov	rax, QWORD PTR p$[rbp]
	inc	rax
	mov	QWORD PTR p$[rbp], rax
	mov	rax, QWORD PTR p$[rbp]
	mov	BYTE PTR [rax], 114			; 00000072H
	mov	rax, QWORD PTR p$[rbp]
	inc	rax
	mov	QWORD PTR p$[rbp], rax
	mov	rax, QWORD PTR p$[rbp]
	mov	BYTE PTR [rax], 117			; 00000075H
	mov	rax, QWORD PTR p$[rbp]
	inc	rax
	mov	QWORD PTR p$[rbp], rax
	mov	rax, QWORD PTR p$[rbp]
	mov	BYTE PTR [rax], 110			; 0000006eH
	mov	rax, QWORD PTR p$[rbp]
	inc	rax
	mov	QWORD PTR p$[rbp], rax
	mov	eax, DWORD PTR flags$[rbp]
	shr	eax, 24
	mov	rcx, QWORD PTR p$[rbp]
	mov	BYTE PTR [rcx], al
	mov	rax, QWORD PTR p$[rbp]
	inc	rax
	mov	QWORD PTR p$[rbp], rax
	mov	eax, DWORD PTR flags$[rbp]
	shr	eax, 16
	mov	rcx, QWORD PTR p$[rbp]
	mov	BYTE PTR [rcx], al
	mov	rax, QWORD PTR p$[rbp]
	inc	rax
	mov	QWORD PTR p$[rbp], rax
	mov	eax, DWORD PTR flags$[rbp]
	shr	eax, 8
	mov	rcx, QWORD PTR p$[rbp]
	mov	BYTE PTR [rcx], al
	mov	rax, QWORD PTR p$[rbp]
	inc	rax
	mov	QWORD PTR p$[rbp], rax
	mov	rax, QWORD PTR p$[rbp]
	movzx	ecx, BYTE PTR flags$[rbp]
	mov	BYTE PTR [rax], cl
	mov	rax, QWORD PTR p$[rbp]
	inc	rax
	mov	QWORD PTR p$[rbp], rax

; 1074 :                 WRITE_4(1);         // sample_count

	mov	rax, QWORD PTR p$[rbp]
	mov	BYTE PTR [rax], 0
	mov	rax, QWORD PTR p$[rbp]
	inc	rax
	mov	QWORD PTR p$[rbp], rax
	mov	rax, QWORD PTR p$[rbp]
	mov	BYTE PTR [rax], 0
	mov	rax, QWORD PTR p$[rbp]
	inc	rax
	mov	QWORD PTR p$[rbp], rax
	mov	rax, QWORD PTR p$[rbp]
	mov	BYTE PTR [rax], 0
	mov	rax, QWORD PTR p$[rbp]
	inc	rax
	mov	QWORD PTR p$[rbp], rax
	mov	rax, QWORD PTR p$[rbp]
	mov	BYTE PTR [rax], 1
	mov	rax, QWORD PTR p$[rbp]
	inc	rax
	mov	QWORD PTR p$[rbp], rax

; 1075 :             pdata_offset = p; p += 4;   // save ptr to data_offset

	mov	rax, QWORD PTR p$[rbp]
	mov	QWORD PTR pdata_offset$[rbp], rax
	mov	rax, QWORD PTR p$[rbp]
	add	rax, 4
	mov	QWORD PTR p$[rbp], rax

; 1076 :             WRITE_4(duration);  // sample_duration

	mov	eax, DWORD PTR duration$[rbp]
	sar	eax, 24
	mov	rcx, QWORD PTR p$[rbp]
	mov	BYTE PTR [rcx], al
	mov	rax, QWORD PTR p$[rbp]
	inc	rax
	mov	QWORD PTR p$[rbp], rax
	mov	eax, DWORD PTR duration$[rbp]
	sar	eax, 16
	mov	rcx, QWORD PTR p$[rbp]
	mov	BYTE PTR [rcx], al
	mov	rax, QWORD PTR p$[rbp]
	inc	rax
	mov	QWORD PTR p$[rbp], rax
	mov	eax, DWORD PTR duration$[rbp]
	sar	eax, 8
	mov	rcx, QWORD PTR p$[rbp]
	mov	BYTE PTR [rcx], al
	mov	rax, QWORD PTR p$[rbp]
	inc	rax
	mov	QWORD PTR p$[rbp], rax
	mov	rax, QWORD PTR p$[rbp]
	movzx	ecx, BYTE PTR duration$[rbp]
	mov	BYTE PTR [rax], cl
	mov	rax, QWORD PTR p$[rbp]
	inc	rax
	mov	QWORD PTR p$[rbp], rax

; 1077 :             WRITE_4(data_bytes);// sample_size

	mov	eax, DWORD PTR data_bytes$[rbp]
	sar	eax, 24
	mov	rcx, QWORD PTR p$[rbp]
	mov	BYTE PTR [rcx], al
	mov	rax, QWORD PTR p$[rbp]
	inc	rax
	mov	QWORD PTR p$[rbp], rax
	mov	eax, DWORD PTR data_bytes$[rbp]
	sar	eax, 16
	mov	rcx, QWORD PTR p$[rbp]
	mov	BYTE PTR [rcx], al
	mov	rax, QWORD PTR p$[rbp]
	inc	rax
	mov	QWORD PTR p$[rbp], rax
	mov	eax, DWORD PTR data_bytes$[rbp]
	sar	eax, 8
	mov	rcx, QWORD PTR p$[rbp]
	mov	BYTE PTR [rcx], al
	mov	rax, QWORD PTR p$[rbp]
	inc	rax
	mov	QWORD PTR p$[rbp], rax
	mov	rax, QWORD PTR p$[rbp]
	movzx	ecx, BYTE PTR data_bytes$[rbp]
	mov	BYTE PTR [rax], cl
	mov	rax, QWORD PTR p$[rbp]
	inc	rax
	mov	QWORD PTR p$[rbp], rax

; 1078 :             END_ATOM

	mov	rax, QWORD PTR stack$[rbp]
	sub	rax, 8
	mov	QWORD PTR stack$[rbp], rax
	mov	rax, QWORD PTR stack$[rbp]
	mov	rax, QWORD PTR [rax]
	mov	rcx, QWORD PTR p$[rbp]
	sub	rcx, rax
	mov	rax, rcx
	sar	rax, 24
	mov	ecx, 1
	imul	rcx, rcx, 0
	mov	rdx, QWORD PTR stack$[rbp]
	mov	rdx, QWORD PTR [rdx]
	mov	BYTE PTR [rcx+rdx], al
	mov	rax, QWORD PTR stack$[rbp]
	mov	rax, QWORD PTR [rax]
	mov	rcx, QWORD PTR p$[rbp]
	sub	rcx, rax
	mov	rax, rcx
	sar	rax, 16
	mov	ecx, 1
	imul	rcx, rcx, 1
	mov	rdx, QWORD PTR stack$[rbp]
	mov	rdx, QWORD PTR [rdx]
	mov	BYTE PTR [rcx+rdx], al
	mov	rax, QWORD PTR stack$[rbp]
	mov	rax, QWORD PTR [rax]
	mov	rcx, QWORD PTR p$[rbp]
	sub	rcx, rax
	mov	rax, rcx
	sar	rax, 8
	mov	ecx, 1
	imul	rcx, rcx, 2
	mov	rdx, QWORD PTR stack$[rbp]
	mov	rdx, QWORD PTR [rdx]
	mov	BYTE PTR [rcx+rdx], al
	mov	rax, QWORD PTR stack$[rbp]
	mov	rax, QWORD PTR [rax]
	mov	rcx, QWORD PTR p$[rbp]
	sub	rcx, rax
	mov	rax, rcx
	mov	ecx, 1
	imul	rcx, rcx, 3
	mov	rdx, QWORD PTR stack$[rbp]
	mov	rdx, QWORD PTR [rdx]
	mov	BYTE PTR [rcx+rdx], al
$LN9@mp4e_write:
$LN7@mp4e_write:

; 1079 :         }
; 1080 :     END_ATOM

	mov	rax, QWORD PTR stack$[rbp]
	sub	rax, 8
	mov	QWORD PTR stack$[rbp], rax
	mov	rax, QWORD PTR stack$[rbp]
	mov	rax, QWORD PTR [rax]
	mov	rcx, QWORD PTR p$[rbp]
	sub	rcx, rax
	mov	rax, rcx
	sar	rax, 24
	mov	ecx, 1
	imul	rcx, rcx, 0
	mov	rdx, QWORD PTR stack$[rbp]
	mov	rdx, QWORD PTR [rdx]
	mov	BYTE PTR [rcx+rdx], al
	mov	rax, QWORD PTR stack$[rbp]
	mov	rax, QWORD PTR [rax]
	mov	rcx, QWORD PTR p$[rbp]
	sub	rcx, rax
	mov	rax, rcx
	sar	rax, 16
	mov	ecx, 1
	imul	rcx, rcx, 1
	mov	rdx, QWORD PTR stack$[rbp]
	mov	rdx, QWORD PTR [rdx]
	mov	BYTE PTR [rcx+rdx], al
	mov	rax, QWORD PTR stack$[rbp]
	mov	rax, QWORD PTR [rax]
	mov	rcx, QWORD PTR p$[rbp]
	sub	rcx, rax
	mov	rax, rcx
	sar	rax, 8
	mov	ecx, 1
	imul	rcx, rcx, 2
	mov	rdx, QWORD PTR stack$[rbp]
	mov	rdx, QWORD PTR [rdx]
	mov	BYTE PTR [rcx+rdx], al
	mov	rax, QWORD PTR stack$[rbp]
	mov	rax, QWORD PTR [rax]
	mov	rcx, QWORD PTR p$[rbp]
	sub	rcx, rax
	mov	rax, rcx
	mov	ecx, 1
	imul	rcx, rcx, 3
	mov	rdx, QWORD PTR stack$[rbp]
	mov	rdx, QWORD PTR [rdx]
	mov	BYTE PTR [rcx+rdx], al

; 1081 :         END_ATOM

	mov	rax, QWORD PTR stack$[rbp]
	sub	rax, 8
	mov	QWORD PTR stack$[rbp], rax
	mov	rax, QWORD PTR stack$[rbp]
	mov	rax, QWORD PTR [rax]
	mov	rcx, QWORD PTR p$[rbp]
	sub	rcx, rax
	mov	rax, rcx
	sar	rax, 24
	mov	ecx, 1
	imul	rcx, rcx, 0
	mov	rdx, QWORD PTR stack$[rbp]
	mov	rdx, QWORD PTR [rdx]
	mov	BYTE PTR [rcx+rdx], al
	mov	rax, QWORD PTR stack$[rbp]
	mov	rax, QWORD PTR [rax]
	mov	rcx, QWORD PTR p$[rbp]
	sub	rcx, rax
	mov	rax, rcx
	sar	rax, 16
	mov	ecx, 1
	imul	rcx, rcx, 1
	mov	rdx, QWORD PTR stack$[rbp]
	mov	rdx, QWORD PTR [rdx]
	mov	BYTE PTR [rcx+rdx], al
	mov	rax, QWORD PTR stack$[rbp]
	mov	rax, QWORD PTR [rax]
	mov	rcx, QWORD PTR p$[rbp]
	sub	rcx, rax
	mov	rax, rcx
	sar	rax, 8
	mov	ecx, 1
	imul	rcx, rcx, 2
	mov	rdx, QWORD PTR stack$[rbp]
	mov	rdx, QWORD PTR [rdx]
	mov	BYTE PTR [rcx+rdx], al
	mov	rax, QWORD PTR stack$[rbp]
	mov	rax, QWORD PTR [rax]
	mov	rcx, QWORD PTR p$[rbp]
	sub	rcx, rax
	mov	rax, rcx
	mov	ecx, 1
	imul	rcx, rcx, 3
	mov	rdx, QWORD PTR stack$[rbp]
	mov	rdx, QWORD PTR [rdx]
	mov	BYTE PTR [rcx+rdx], al

; 1082 :         WR4(pdata_offset, (p - base) + 8);

	lea	rax, QWORD PTR base$[rbp]
	mov	rcx, QWORD PTR p$[rbp]
	sub	rcx, rax
	mov	rax, rcx
	add	rax, 8
	sar	rax, 24
	mov	ecx, 1
	imul	rcx, rcx, 0
	mov	rdx, QWORD PTR pdata_offset$[rbp]
	mov	BYTE PTR [rdx+rcx], al
	lea	rax, QWORD PTR base$[rbp]
	mov	rcx, QWORD PTR p$[rbp]
	sub	rcx, rax
	mov	rax, rcx
	add	rax, 8
	sar	rax, 16
	mov	ecx, 1
	imul	rcx, rcx, 1
	mov	rdx, QWORD PTR pdata_offset$[rbp]
	mov	BYTE PTR [rdx+rcx], al
	lea	rax, QWORD PTR base$[rbp]
	mov	rcx, QWORD PTR p$[rbp]
	sub	rcx, rax
	mov	rax, rcx
	add	rax, 8
	sar	rax, 8
	mov	ecx, 1
	imul	rcx, rcx, 2
	mov	rdx, QWORD PTR pdata_offset$[rbp]
	mov	BYTE PTR [rdx+rcx], al
	lea	rax, QWORD PTR base$[rbp]
	mov	rcx, QWORD PTR p$[rbp]
	sub	rcx, rax
	mov	rax, rcx
	add	rax, 8
	mov	ecx, 1
	imul	rcx, rcx, 3
	mov	rdx, QWORD PTR pdata_offset$[rbp]
	mov	BYTE PTR [rdx+rcx], al

; 1083 : 
; 1084 :     ERR(mux->write_callback(mux->write_pos, base, p - base, mux->token));

	lea	rax, QWORD PTR base$[rbp]
	mov	rcx, QWORD PTR p$[rbp]
	sub	rcx, rax
	mov	rax, rcx
	mov	rcx, QWORD PTR mux$[rbp]
	mov	r9, QWORD PTR [rcx+32]
	mov	r8, rax
	lea	rdx, QWORD PTR base$[rbp]
	mov	rax, QWORD PTR mux$[rbp]
	mov	rcx, QWORD PTR [rax+16]
	mov	rax, QWORD PTR mux$[rbp]
	call	QWORD PTR [rax+24]
	mov	DWORD PTR err$1[rbp], eax
	cmp	DWORD PTR err$1[rbp], 0
	je	SHORT $LN10@mp4e_write
	mov	eax, DWORD PTR err$1[rbp]
	jmp	SHORT $LN1@mp4e_write
$LN10@mp4e_write:

; 1085 :     mux->write_pos += p - base;

	lea	rax, QWORD PTR base$[rbp]
	mov	rcx, QWORD PTR p$[rbp]
	sub	rcx, rax
	mov	rax, rcx
	mov	rcx, QWORD PTR mux$[rbp]
	add	rax, QWORD PTR [rcx+16]
	mov	rcx, QWORD PTR mux$[rbp]
	mov	QWORD PTR [rcx+16], rax

; 1086 :     return MP4E_STATUS_OK;

	xor	eax, eax
$LN1@mp4e_write:

; 1087 : }

	lea	rsp, QWORD PTR [rbp+1312]
	pop	rbp
	ret	0
?mp4e_write_fragment_header@@YAHPEAUMP4E_mux_tag@@HHHH@Z ENDP ; mp4e_write_fragment_header
_TEXT	ENDS
; Function compile flags: /Odtp /ZI
; File C:\Users\paras\source\repos\grep-name\XenevaOS\Process\AudioPlayer\minimp4.h
;	COMDAT ?mp4e_flush_index@@YAHPEAUMP4E_mux_tag@@@Z
_TEXT	SEGMENT
stack_base$ = 0
stack$ = 160
base$ = 168
p$ = 176
ntr$ = 184
index_bytes$ = 188
ntracks$ = 192
i$ = 196
err$ = 200
tr$1 = 208
err$2 = 216
size$3 = 224
size_limit$4 = 232
err$5 = 240
tr$6 = 248
duration$7 = 256
tr$8 = 264
duration$9 = 272
samples_count$10 = 276
sample$11 = 280
handler_type$12 = 288
handler_ascii$13 = 296
lang_code$14 = 304
dsi_bytes$15 = 308
dsi_size_size$16 = 312
dcd_bytes$17 = 316
dcd_size_size$18 = 320
esd_bytes$19 = 324
numOfSequenceParameterSets$20 = 328
numOfPictureParameterSets$21 = 332
numOfVPS$22 = 336
pentry_count$23 = 344
cnt$24 = 352
entry_count$25 = 356
is_64_bit$26 = 360
ra_count$27 = 364
tr$28 = 368
movie_duration$29 = 376
tv2447 = 444
tv1934 = 444
tv404 = 444
mux$ = 464
?mp4e_flush_index@@YAHPEAUMP4E_mux_tag@@@Z PROC		; mp4e_flush_index, COMDAT

; 1196 : {

	mov	QWORD PTR [rsp+8], rcx
	push	rbp
	sub	rsp, 480				; 000001e0H
	lea	rbp, QWORD PTR [rsp+32]

; 1197 :     unsigned char* stack_base[20]; // atoms nesting stack
; 1198 :     unsigned char** stack = stack_base;

	lea	rax, QWORD PTR stack_base$[rbp]
	mov	QWORD PTR stack$[rbp], rax

; 1199 :     unsigned char* base, * p;
; 1200 :     unsigned int ntr, index_bytes, ntracks = mux->tracks.bytes / sizeof(track_t);

	mov	rax, QWORD PTR mux$[rbp]
	movsxd	rax, DWORD PTR [rax+8]
	xor	edx, edx
	mov	ecx, 112				; 00000070H
	div	rcx
	mov	DWORD PTR ntracks$[rbp], eax

; 1201 :     int i, err;
; 1202 : 
; 1203 :     // How much memory needed for indexes
; 1204 :     // Experimental data:
; 1205 :     // file with 1 track = 560 bytes
; 1206 :     // file with 2 tracks = 972 bytes
; 1207 :     // track size = 412 bytes;
; 1208 :     // file header size = 148 bytes
; 1209 : #define FILE_HEADER_BYTES 256
; 1210 : #define TRACK_HEADER_BYTES 512
; 1211 :     index_bytes = FILE_HEADER_BYTES;

	mov	DWORD PTR index_bytes$[rbp], 256	; 00000100H

; 1212 :     if (mux->text_comment)

	mov	rax, QWORD PTR mux$[rbp]
	cmp	QWORD PTR [rax+40], 0
	je	SHORT $LN67@mp4e_flush

; 1213 :         index_bytes += 128 + strlen(mux->text_comment);

	mov	rax, QWORD PTR mux$[rbp]
	mov	rcx, QWORD PTR [rax+40]
	call	strlen
	mov	ecx, DWORD PTR index_bytes$[rbp]
	lea	rax, QWORD PTR [rcx+rax+128]
	mov	DWORD PTR index_bytes$[rbp], eax
$LN67@mp4e_flush:

; 1214 :     for (ntr = 0; ntr < ntracks; ntr++)

	mov	DWORD PTR ntr$[rbp], 0
	jmp	SHORT $LN4@mp4e_flush
$LN2@mp4e_flush:
	mov	eax, DWORD PTR ntr$[rbp]
	inc	eax
	mov	DWORD PTR ntr$[rbp], eax
$LN4@mp4e_flush:
	mov	eax, DWORD PTR ntracks$[rbp]
	cmp	DWORD PTR ntr$[rbp], eax
	jae	$LN3@mp4e_flush

; 1215 :     {
; 1216 :         track_t* tr = ((track_t*)mux->tracks.data) + ntr;

	mov	eax, DWORD PTR ntr$[rbp]
	imul	rax, rax, 112				; 00000070H
	mov	rcx, QWORD PTR mux$[rbp]
	add	rax, QWORD PTR [rcx]
	mov	QWORD PTR tr$1[rbp], rax

; 1217 :         index_bytes += TRACK_HEADER_BYTES;          // fixed amount (implementation-dependent)

	mov	eax, DWORD PTR index_bytes$[rbp]
	add	eax, 512				; 00000200H
	mov	DWORD PTR index_bytes$[rbp], eax

; 1218 :         // may need extra 4 bytes for duration field + 4 bytes for worst-case random access box
; 1219 :         index_bytes += tr->smpl.bytes * (sizeof(sample_t) + 4 + 4) / sizeof(sample_t);

	mov	rax, QWORD PTR tr$1[rbp]
	movsxd	rax, DWORD PTR [rax+40]
	imul	rax, rax, 32				; 00000020H
	xor	edx, edx
	mov	ecx, 24
	div	rcx
	mov	ecx, DWORD PTR index_bytes$[rbp]
	add	rcx, rax
	mov	rax, rcx
	mov	DWORD PTR index_bytes$[rbp], eax

; 1220 :         index_bytes += tr->vsps.bytes;

	mov	rax, QWORD PTR tr$1[rbp]
	mov	eax, DWORD PTR [rax+72]
	mov	ecx, DWORD PTR index_bytes$[rbp]
	add	ecx, eax
	mov	eax, ecx
	mov	DWORD PTR index_bytes$[rbp], eax

; 1221 :         index_bytes += tr->vpps.bytes;

	mov	rax, QWORD PTR tr$1[rbp]
	mov	eax, DWORD PTR [rax+88]
	mov	ecx, DWORD PTR index_bytes$[rbp]
	add	ecx, eax
	mov	eax, ecx
	mov	DWORD PTR index_bytes$[rbp], eax

; 1222 : 
; 1223 :         ERR(write_pending_data(mux, tr));

	mov	rdx, QWORD PTR tr$1[rbp]
	mov	rcx, QWORD PTR mux$[rbp]
	call	?write_pending_data@@YAHPEAUMP4E_mux_tag@@PEAUtrack_t@@@Z ; write_pending_data
	mov	DWORD PTR err$2[rbp], eax
	cmp	DWORD PTR err$2[rbp], 0
	je	SHORT $LN68@mp4e_flush
	mov	eax, DWORD PTR err$2[rbp]
	jmp	$LN1@mp4e_flush
$LN68@mp4e_flush:

; 1224 :     }

	jmp	$LN2@mp4e_flush
$LN3@mp4e_flush:

; 1225 : 
; 1226 :     base = (unsigned char*)malloc(index_bytes);

	mov	ecx, DWORD PTR index_bytes$[rbp]
	call	malloc
	mov	QWORD PTR base$[rbp], rax

; 1227 :     if (!base)

	cmp	QWORD PTR base$[rbp], 0
	jne	SHORT $LN69@mp4e_flush

; 1228 :         return MP4E_STATUS_NO_MEMORY;

	mov	eax, -2
	jmp	$LN1@mp4e_flush
$LN69@mp4e_flush:

; 1229 :     p = base;

	mov	rax, QWORD PTR base$[rbp]
	mov	QWORD PTR p$[rbp], rax

; 1230 : 
; 1231 :     if (!mux->sequential_mode_flag)

	mov	rax, QWORD PTR mux$[rbp]
	cmp	DWORD PTR [rax+48], 0
	jne	$LN70@mp4e_flush

; 1232 :     {
; 1233 :         // update size of mdat box.
; 1234 :         // One of 2 points, which requires random file access.
; 1235 :         // Second is optional duration update at beginning of file in fragmentation mode.
; 1236 :         // This can be avoided using "till eof" size code, but in this case indexes must be
; 1237 :         // written before the mdat....
; 1238 :         int64_t size = mux->write_pos - sizeof(box_ftyp);

	mov	rax, QWORD PTR mux$[rbp]
	mov	rax, QWORD PTR [rax+16]
	sub	rax, 24
	mov	QWORD PTR size$3[rbp], rax

; 1239 :         const int64_t size_limit = (int64_t)(uint64_t)0xfffffffe;

	mov	eax, -2
	mov	QWORD PTR size_limit$4[rbp], rax

; 1240 :         if (size > size_limit)

	mov	eax, -2
	cmp	QWORD PTR size$3[rbp], rax
	jle	$LN71@mp4e_flush

; 1241 :         {
; 1242 :             WRITE_4(1);

	mov	rax, QWORD PTR p$[rbp]
	mov	BYTE PTR [rax], 0
	mov	rax, QWORD PTR p$[rbp]
	inc	rax
	mov	QWORD PTR p$[rbp], rax
	mov	rax, QWORD PTR p$[rbp]
	mov	BYTE PTR [rax], 0
	mov	rax, QWORD PTR p$[rbp]
	inc	rax
	mov	QWORD PTR p$[rbp], rax
	mov	rax, QWORD PTR p$[rbp]
	mov	BYTE PTR [rax], 0
	mov	rax, QWORD PTR p$[rbp]
	inc	rax
	mov	QWORD PTR p$[rbp], rax
	mov	rax, QWORD PTR p$[rbp]
	mov	BYTE PTR [rax], 1
	mov	rax, QWORD PTR p$[rbp]
	inc	rax
	mov	QWORD PTR p$[rbp], rax

; 1243 :             WRITE_4(BOX_mdat);

	mov	rax, QWORD PTR p$[rbp]
	mov	BYTE PTR [rax], 109			; 0000006dH
	mov	rax, QWORD PTR p$[rbp]
	inc	rax
	mov	QWORD PTR p$[rbp], rax
	mov	rax, QWORD PTR p$[rbp]
	mov	BYTE PTR [rax], 100			; 00000064H
	mov	rax, QWORD PTR p$[rbp]
	inc	rax
	mov	QWORD PTR p$[rbp], rax
	mov	rax, QWORD PTR p$[rbp]
	mov	BYTE PTR [rax], 97			; 00000061H
	mov	rax, QWORD PTR p$[rbp]
	inc	rax
	mov	QWORD PTR p$[rbp], rax
	mov	rax, QWORD PTR p$[rbp]
	mov	BYTE PTR [rax], 116			; 00000074H
	mov	rax, QWORD PTR p$[rbp]
	inc	rax
	mov	QWORD PTR p$[rbp], rax

; 1244 :             WRITE_4((size >> 32) & 0xffffffff);

	mov	rax, QWORD PTR size$3[rbp]
	sar	rax, 32					; 00000020H
	mov	ecx, -1
	and	rax, rcx
	sar	rax, 24
	mov	rcx, QWORD PTR p$[rbp]
	mov	BYTE PTR [rcx], al
	mov	rax, QWORD PTR p$[rbp]
	inc	rax
	mov	QWORD PTR p$[rbp], rax
	mov	rax, QWORD PTR size$3[rbp]
	sar	rax, 32					; 00000020H
	mov	ecx, -1
	and	rax, rcx
	sar	rax, 16
	mov	rcx, QWORD PTR p$[rbp]
	mov	BYTE PTR [rcx], al
	mov	rax, QWORD PTR p$[rbp]
	inc	rax
	mov	QWORD PTR p$[rbp], rax
	mov	rax, QWORD PTR size$3[rbp]
	sar	rax, 32					; 00000020H
	mov	ecx, -1
	and	rax, rcx
	sar	rax, 8
	mov	rcx, QWORD PTR p$[rbp]
	mov	BYTE PTR [rcx], al
	mov	rax, QWORD PTR p$[rbp]
	inc	rax
	mov	QWORD PTR p$[rbp], rax
	mov	rax, QWORD PTR size$3[rbp]
	sar	rax, 32					; 00000020H
	mov	ecx, -1
	and	rax, rcx
	mov	rcx, QWORD PTR p$[rbp]
	mov	BYTE PTR [rcx], al
	mov	rax, QWORD PTR p$[rbp]
	inc	rax
	mov	QWORD PTR p$[rbp], rax

; 1245 :             WRITE_4(size & 0xffffffff);

	mov	eax, -1
	mov	rcx, QWORD PTR size$3[rbp]
	and	rcx, rax
	mov	rax, rcx
	sar	rax, 24
	mov	rcx, QWORD PTR p$[rbp]
	mov	BYTE PTR [rcx], al
	mov	rax, QWORD PTR p$[rbp]
	inc	rax
	mov	QWORD PTR p$[rbp], rax
	mov	eax, -1
	mov	rcx, QWORD PTR size$3[rbp]
	and	rcx, rax
	mov	rax, rcx
	sar	rax, 16
	mov	rcx, QWORD PTR p$[rbp]
	mov	BYTE PTR [rcx], al
	mov	rax, QWORD PTR p$[rbp]
	inc	rax
	mov	QWORD PTR p$[rbp], rax
	mov	eax, -1
	mov	rcx, QWORD PTR size$3[rbp]
	and	rcx, rax
	mov	rax, rcx
	sar	rax, 8
	mov	rcx, QWORD PTR p$[rbp]
	mov	BYTE PTR [rcx], al
	mov	rax, QWORD PTR p$[rbp]
	inc	rax
	mov	QWORD PTR p$[rbp], rax
	mov	eax, -1
	mov	rcx, QWORD PTR size$3[rbp]
	and	rcx, rax
	mov	rax, rcx
	mov	rcx, QWORD PTR p$[rbp]
	mov	BYTE PTR [rcx], al
	mov	rax, QWORD PTR p$[rbp]
	inc	rax
	mov	QWORD PTR p$[rbp], rax

; 1246 :         }

	jmp	$LN72@mp4e_flush
$LN71@mp4e_flush:

; 1247 :         else
; 1248 :         {
; 1249 :             WRITE_4(8);

	mov	rax, QWORD PTR p$[rbp]
	mov	BYTE PTR [rax], 0
	mov	rax, QWORD PTR p$[rbp]
	inc	rax
	mov	QWORD PTR p$[rbp], rax
	mov	rax, QWORD PTR p$[rbp]
	mov	BYTE PTR [rax], 0
	mov	rax, QWORD PTR p$[rbp]
	inc	rax
	mov	QWORD PTR p$[rbp], rax
	mov	rax, QWORD PTR p$[rbp]
	mov	BYTE PTR [rax], 0
	mov	rax, QWORD PTR p$[rbp]
	inc	rax
	mov	QWORD PTR p$[rbp], rax
	mov	rax, QWORD PTR p$[rbp]
	mov	BYTE PTR [rax], 8
	mov	rax, QWORD PTR p$[rbp]
	inc	rax
	mov	QWORD PTR p$[rbp], rax

; 1250 :             WRITE_4(BOX_free);

	mov	rax, QWORD PTR p$[rbp]
	mov	BYTE PTR [rax], 102			; 00000066H
	mov	rax, QWORD PTR p$[rbp]
	inc	rax
	mov	QWORD PTR p$[rbp], rax
	mov	rax, QWORD PTR p$[rbp]
	mov	BYTE PTR [rax], 114			; 00000072H
	mov	rax, QWORD PTR p$[rbp]
	inc	rax
	mov	QWORD PTR p$[rbp], rax
	mov	rax, QWORD PTR p$[rbp]
	mov	BYTE PTR [rax], 101			; 00000065H
	mov	rax, QWORD PTR p$[rbp]
	inc	rax
	mov	QWORD PTR p$[rbp], rax
	mov	rax, QWORD PTR p$[rbp]
	mov	BYTE PTR [rax], 101			; 00000065H
	mov	rax, QWORD PTR p$[rbp]
	inc	rax
	mov	QWORD PTR p$[rbp], rax

; 1251 :             WRITE_4(size - 8);

	mov	rax, QWORD PTR size$3[rbp]
	sub	rax, 8
	sar	rax, 24
	mov	rcx, QWORD PTR p$[rbp]
	mov	BYTE PTR [rcx], al
	mov	rax, QWORD PTR p$[rbp]
	inc	rax
	mov	QWORD PTR p$[rbp], rax
	mov	rax, QWORD PTR size$3[rbp]
	sub	rax, 8
	sar	rax, 16
	mov	rcx, QWORD PTR p$[rbp]
	mov	BYTE PTR [rcx], al
	mov	rax, QWORD PTR p$[rbp]
	inc	rax
	mov	QWORD PTR p$[rbp], rax
	mov	rax, QWORD PTR size$3[rbp]
	sub	rax, 8
	sar	rax, 8
	mov	rcx, QWORD PTR p$[rbp]
	mov	BYTE PTR [rcx], al
	mov	rax, QWORD PTR p$[rbp]
	inc	rax
	mov	QWORD PTR p$[rbp], rax
	mov	rax, QWORD PTR size$3[rbp]
	sub	rax, 8
	mov	rcx, QWORD PTR p$[rbp]
	mov	BYTE PTR [rcx], al
	mov	rax, QWORD PTR p$[rbp]
	inc	rax
	mov	QWORD PTR p$[rbp], rax

; 1252 :             WRITE_4(BOX_mdat);

	mov	rax, QWORD PTR p$[rbp]
	mov	BYTE PTR [rax], 109			; 0000006dH
	mov	rax, QWORD PTR p$[rbp]
	inc	rax
	mov	QWORD PTR p$[rbp], rax
	mov	rax, QWORD PTR p$[rbp]
	mov	BYTE PTR [rax], 100			; 00000064H
	mov	rax, QWORD PTR p$[rbp]
	inc	rax
	mov	QWORD PTR p$[rbp], rax
	mov	rax, QWORD PTR p$[rbp]
	mov	BYTE PTR [rax], 97			; 00000061H
	mov	rax, QWORD PTR p$[rbp]
	inc	rax
	mov	QWORD PTR p$[rbp], rax
	mov	rax, QWORD PTR p$[rbp]
	mov	BYTE PTR [rax], 116			; 00000074H
	mov	rax, QWORD PTR p$[rbp]
	inc	rax
	mov	QWORD PTR p$[rbp], rax
$LN72@mp4e_flush:

; 1253 :         }
; 1254 :         ERR(mux->write_callback(sizeof(box_ftyp), base, p - base, mux->token));

	mov	rax, QWORD PTR base$[rbp]
	mov	rcx, QWORD PTR p$[rbp]
	sub	rcx, rax
	mov	rax, rcx
	mov	rcx, QWORD PTR mux$[rbp]
	mov	r9, QWORD PTR [rcx+32]
	mov	r8, rax
	mov	rdx, QWORD PTR base$[rbp]
	mov	ecx, 24
	mov	rax, QWORD PTR mux$[rbp]
	call	QWORD PTR [rax+24]
	mov	DWORD PTR err$5[rbp], eax
	cmp	DWORD PTR err$5[rbp], 0
	je	SHORT $LN73@mp4e_flush
	mov	eax, DWORD PTR err$5[rbp]
	jmp	$LN1@mp4e_flush
$LN73@mp4e_flush:

; 1255 :         p = base;

	mov	rax, QWORD PTR base$[rbp]
	mov	QWORD PTR p$[rbp], rax
$LN70@mp4e_flush:

; 1256 :     }
; 1257 : 
; 1258 :     // Write index atoms; order taken from Table 1 of [1]
; 1259 : #define MOOV_TIMESCALE 1000
; 1260 :     ATOM(BOX_moov);

	mov	rax, QWORD PTR stack$[rbp]
	mov	rcx, QWORD PTR p$[rbp]
	mov	QWORD PTR [rax], rcx
	mov	rax, QWORD PTR stack$[rbp]
	add	rax, 8
	mov	QWORD PTR stack$[rbp], rax
	mov	rax, QWORD PTR p$[rbp]
	add	rax, 4
	mov	QWORD PTR p$[rbp], rax
	mov	rax, QWORD PTR p$[rbp]
	mov	BYTE PTR [rax], 109			; 0000006dH
	mov	rax, QWORD PTR p$[rbp]
	inc	rax
	mov	QWORD PTR p$[rbp], rax
	mov	rax, QWORD PTR p$[rbp]
	mov	BYTE PTR [rax], 111			; 0000006fH
	mov	rax, QWORD PTR p$[rbp]
	inc	rax
	mov	QWORD PTR p$[rbp], rax
	mov	rax, QWORD PTR p$[rbp]
	mov	BYTE PTR [rax], 111			; 0000006fH
	mov	rax, QWORD PTR p$[rbp]
	inc	rax
	mov	QWORD PTR p$[rbp], rax
	mov	rax, QWORD PTR p$[rbp]
	mov	BYTE PTR [rax], 118			; 00000076H
	mov	rax, QWORD PTR p$[rbp]
	inc	rax
	mov	QWORD PTR p$[rbp], rax

; 1261 :     ATOM_FULL(BOX_mvhd, 0);

	mov	rax, QWORD PTR stack$[rbp]
	mov	rcx, QWORD PTR p$[rbp]
	mov	QWORD PTR [rax], rcx
	mov	rax, QWORD PTR stack$[rbp]
	add	rax, 8
	mov	QWORD PTR stack$[rbp], rax
	mov	rax, QWORD PTR p$[rbp]
	add	rax, 4
	mov	QWORD PTR p$[rbp], rax
	mov	rax, QWORD PTR p$[rbp]
	mov	BYTE PTR [rax], 109			; 0000006dH
	mov	rax, QWORD PTR p$[rbp]
	inc	rax
	mov	QWORD PTR p$[rbp], rax
	mov	rax, QWORD PTR p$[rbp]
	mov	BYTE PTR [rax], 118			; 00000076H
	mov	rax, QWORD PTR p$[rbp]
	inc	rax
	mov	QWORD PTR p$[rbp], rax
	mov	rax, QWORD PTR p$[rbp]
	mov	BYTE PTR [rax], 104			; 00000068H
	mov	rax, QWORD PTR p$[rbp]
	inc	rax
	mov	QWORD PTR p$[rbp], rax
	mov	rax, QWORD PTR p$[rbp]
	mov	BYTE PTR [rax], 100			; 00000064H
	mov	rax, QWORD PTR p$[rbp]
	inc	rax
	mov	QWORD PTR p$[rbp], rax
	mov	rax, QWORD PTR p$[rbp]
	mov	BYTE PTR [rax], 0
	mov	rax, QWORD PTR p$[rbp]
	inc	rax
	mov	QWORD PTR p$[rbp], rax
	mov	rax, QWORD PTR p$[rbp]
	mov	BYTE PTR [rax], 0
	mov	rax, QWORD PTR p$[rbp]
	inc	rax
	mov	QWORD PTR p$[rbp], rax
	mov	rax, QWORD PTR p$[rbp]
	mov	BYTE PTR [rax], 0
	mov	rax, QWORD PTR p$[rbp]
	inc	rax
	mov	QWORD PTR p$[rbp], rax
	mov	rax, QWORD PTR p$[rbp]
	mov	BYTE PTR [rax], 0
	mov	rax, QWORD PTR p$[rbp]
	inc	rax
	mov	QWORD PTR p$[rbp], rax

; 1262 :     WRITE_4(0); // creation_time

	mov	rax, QWORD PTR p$[rbp]
	mov	BYTE PTR [rax], 0
	mov	rax, QWORD PTR p$[rbp]
	inc	rax
	mov	QWORD PTR p$[rbp], rax
	mov	rax, QWORD PTR p$[rbp]
	mov	BYTE PTR [rax], 0
	mov	rax, QWORD PTR p$[rbp]
	inc	rax
	mov	QWORD PTR p$[rbp], rax
	mov	rax, QWORD PTR p$[rbp]
	mov	BYTE PTR [rax], 0
	mov	rax, QWORD PTR p$[rbp]
	inc	rax
	mov	QWORD PTR p$[rbp], rax
	mov	rax, QWORD PTR p$[rbp]
	mov	BYTE PTR [rax], 0
	mov	rax, QWORD PTR p$[rbp]
	inc	rax
	mov	QWORD PTR p$[rbp], rax

; 1263 :     WRITE_4(0); // modification_time

	mov	rax, QWORD PTR p$[rbp]
	mov	BYTE PTR [rax], 0
	mov	rax, QWORD PTR p$[rbp]
	inc	rax
	mov	QWORD PTR p$[rbp], rax
	mov	rax, QWORD PTR p$[rbp]
	mov	BYTE PTR [rax], 0
	mov	rax, QWORD PTR p$[rbp]
	inc	rax
	mov	QWORD PTR p$[rbp], rax
	mov	rax, QWORD PTR p$[rbp]
	mov	BYTE PTR [rax], 0
	mov	rax, QWORD PTR p$[rbp]
	inc	rax
	mov	QWORD PTR p$[rbp], rax
	mov	rax, QWORD PTR p$[rbp]
	mov	BYTE PTR [rax], 0
	mov	rax, QWORD PTR p$[rbp]
	inc	rax
	mov	QWORD PTR p$[rbp], rax

; 1264 : 
; 1265 :     if (ntracks)

	cmp	DWORD PTR ntracks$[rbp], 0
	je	$LN74@mp4e_flush

; 1266 :     {
; 1267 :         track_t* tr = ((track_t*)mux->tracks.data) + 0;    // take 1st track

	mov	rax, QWORD PTR mux$[rbp]
	mov	rax, QWORD PTR [rax]
	mov	QWORD PTR tr$6[rbp], rax

; 1268 :         unsigned duration = get_duration(tr);

	mov	rcx, QWORD PTR tr$6[rbp]
	call	?get_duration@@YAIPEBUtrack_t@@@Z	; get_duration
	mov	DWORD PTR duration$7[rbp], eax

; 1269 :         duration = (unsigned)(duration * 1LL * MOOV_TIMESCALE / tr->info.time_scale);

	mov	eax, DWORD PTR duration$7[rbp]
	imul	rax, rax, 1000				; 000003e8H
	mov	rcx, QWORD PTR tr$6[rbp]
	mov	ecx, DWORD PTR [rcx+12]
	cdq
	idiv	rcx
	mov	DWORD PTR duration$7[rbp], eax

; 1270 :         WRITE_4(MOOV_TIMESCALE); // duration

	mov	rax, QWORD PTR p$[rbp]
	mov	BYTE PTR [rax], 0
	mov	rax, QWORD PTR p$[rbp]
	inc	rax
	mov	QWORD PTR p$[rbp], rax
	mov	rax, QWORD PTR p$[rbp]
	mov	BYTE PTR [rax], 0
	mov	rax, QWORD PTR p$[rbp]
	inc	rax
	mov	QWORD PTR p$[rbp], rax
	mov	rax, QWORD PTR p$[rbp]
	mov	BYTE PTR [rax], 3
	mov	rax, QWORD PTR p$[rbp]
	inc	rax
	mov	QWORD PTR p$[rbp], rax
	mov	rax, QWORD PTR p$[rbp]
	mov	BYTE PTR [rax], 232			; 000000e8H
	mov	rax, QWORD PTR p$[rbp]
	inc	rax
	mov	QWORD PTR p$[rbp], rax

; 1271 :         WRITE_4(duration); // duration

	mov	eax, DWORD PTR duration$7[rbp]
	shr	eax, 24
	mov	rcx, QWORD PTR p$[rbp]
	mov	BYTE PTR [rcx], al
	mov	rax, QWORD PTR p$[rbp]
	inc	rax
	mov	QWORD PTR p$[rbp], rax
	mov	eax, DWORD PTR duration$7[rbp]
	shr	eax, 16
	mov	rcx, QWORD PTR p$[rbp]
	mov	BYTE PTR [rcx], al
	mov	rax, QWORD PTR p$[rbp]
	inc	rax
	mov	QWORD PTR p$[rbp], rax
	mov	eax, DWORD PTR duration$7[rbp]
	shr	eax, 8
	mov	rcx, QWORD PTR p$[rbp]
	mov	BYTE PTR [rcx], al
	mov	rax, QWORD PTR p$[rbp]
	inc	rax
	mov	QWORD PTR p$[rbp], rax
	mov	rax, QWORD PTR p$[rbp]
	movzx	ecx, BYTE PTR duration$7[rbp]
	mov	BYTE PTR [rax], cl
	mov	rax, QWORD PTR p$[rbp]
	inc	rax
	mov	QWORD PTR p$[rbp], rax
$LN74@mp4e_flush:

; 1272 :     }
; 1273 : 
; 1274 :     WRITE_4(0x00010000); // rate

	mov	rax, QWORD PTR p$[rbp]
	mov	BYTE PTR [rax], 0
	mov	rax, QWORD PTR p$[rbp]
	inc	rax
	mov	QWORD PTR p$[rbp], rax
	mov	rax, QWORD PTR p$[rbp]
	mov	BYTE PTR [rax], 1
	mov	rax, QWORD PTR p$[rbp]
	inc	rax
	mov	QWORD PTR p$[rbp], rax
	mov	rax, QWORD PTR p$[rbp]
	mov	BYTE PTR [rax], 0
	mov	rax, QWORD PTR p$[rbp]
	inc	rax
	mov	QWORD PTR p$[rbp], rax
	mov	rax, QWORD PTR p$[rbp]
	mov	BYTE PTR [rax], 0
	mov	rax, QWORD PTR p$[rbp]
	inc	rax
	mov	QWORD PTR p$[rbp], rax

; 1275 :     WRITE_2(0x0100); // volume

	mov	rax, QWORD PTR p$[rbp]
	mov	BYTE PTR [rax], 1
	mov	rax, QWORD PTR p$[rbp]
	inc	rax
	mov	QWORD PTR p$[rbp], rax
	mov	rax, QWORD PTR p$[rbp]
	mov	BYTE PTR [rax], 0
	mov	rax, QWORD PTR p$[rbp]
	inc	rax
	mov	QWORD PTR p$[rbp], rax

; 1276 :     WRITE_2(0); // reserved

	mov	rax, QWORD PTR p$[rbp]
	mov	BYTE PTR [rax], 0
	mov	rax, QWORD PTR p$[rbp]
	inc	rax
	mov	QWORD PTR p$[rbp], rax
	mov	rax, QWORD PTR p$[rbp]
	mov	BYTE PTR [rax], 0
	mov	rax, QWORD PTR p$[rbp]
	inc	rax
	mov	QWORD PTR p$[rbp], rax

; 1277 :     WRITE_4(0); // reserved

	mov	rax, QWORD PTR p$[rbp]
	mov	BYTE PTR [rax], 0
	mov	rax, QWORD PTR p$[rbp]
	inc	rax
	mov	QWORD PTR p$[rbp], rax
	mov	rax, QWORD PTR p$[rbp]
	mov	BYTE PTR [rax], 0
	mov	rax, QWORD PTR p$[rbp]
	inc	rax
	mov	QWORD PTR p$[rbp], rax
	mov	rax, QWORD PTR p$[rbp]
	mov	BYTE PTR [rax], 0
	mov	rax, QWORD PTR p$[rbp]
	inc	rax
	mov	QWORD PTR p$[rbp], rax
	mov	rax, QWORD PTR p$[rbp]
	mov	BYTE PTR [rax], 0
	mov	rax, QWORD PTR p$[rbp]
	inc	rax
	mov	QWORD PTR p$[rbp], rax

; 1278 :     WRITE_4(0); // reserved

	mov	rax, QWORD PTR p$[rbp]
	mov	BYTE PTR [rax], 0
	mov	rax, QWORD PTR p$[rbp]
	inc	rax
	mov	QWORD PTR p$[rbp], rax
	mov	rax, QWORD PTR p$[rbp]
	mov	BYTE PTR [rax], 0
	mov	rax, QWORD PTR p$[rbp]
	inc	rax
	mov	QWORD PTR p$[rbp], rax
	mov	rax, QWORD PTR p$[rbp]
	mov	BYTE PTR [rax], 0
	mov	rax, QWORD PTR p$[rbp]
	inc	rax
	mov	QWORD PTR p$[rbp], rax
	mov	rax, QWORD PTR p$[rbp]
	mov	BYTE PTR [rax], 0
	mov	rax, QWORD PTR p$[rbp]
	inc	rax
	mov	QWORD PTR p$[rbp], rax

; 1279 : 
; 1280 :     // matrix[9]
; 1281 :     WRITE_4(0x00010000); WRITE_4(0); WRITE_4(0);

	mov	rax, QWORD PTR p$[rbp]
	mov	BYTE PTR [rax], 0
	mov	rax, QWORD PTR p$[rbp]
	inc	rax
	mov	QWORD PTR p$[rbp], rax
	mov	rax, QWORD PTR p$[rbp]
	mov	BYTE PTR [rax], 1
	mov	rax, QWORD PTR p$[rbp]
	inc	rax
	mov	QWORD PTR p$[rbp], rax
	mov	rax, QWORD PTR p$[rbp]
	mov	BYTE PTR [rax], 0
	mov	rax, QWORD PTR p$[rbp]
	inc	rax
	mov	QWORD PTR p$[rbp], rax
	mov	rax, QWORD PTR p$[rbp]
	mov	BYTE PTR [rax], 0
	mov	rax, QWORD PTR p$[rbp]
	inc	rax
	mov	QWORD PTR p$[rbp], rax
	mov	rax, QWORD PTR p$[rbp]
	mov	BYTE PTR [rax], 0
	mov	rax, QWORD PTR p$[rbp]
	inc	rax
	mov	QWORD PTR p$[rbp], rax
	mov	rax, QWORD PTR p$[rbp]
	mov	BYTE PTR [rax], 0
	mov	rax, QWORD PTR p$[rbp]
	inc	rax
	mov	QWORD PTR p$[rbp], rax
	mov	rax, QWORD PTR p$[rbp]
	mov	BYTE PTR [rax], 0
	mov	rax, QWORD PTR p$[rbp]
	inc	rax
	mov	QWORD PTR p$[rbp], rax
	mov	rax, QWORD PTR p$[rbp]
	mov	BYTE PTR [rax], 0
	mov	rax, QWORD PTR p$[rbp]
	inc	rax
	mov	QWORD PTR p$[rbp], rax
	mov	rax, QWORD PTR p$[rbp]
	mov	BYTE PTR [rax], 0
	mov	rax, QWORD PTR p$[rbp]
	inc	rax
	mov	QWORD PTR p$[rbp], rax
	mov	rax, QWORD PTR p$[rbp]
	mov	BYTE PTR [rax], 0
	mov	rax, QWORD PTR p$[rbp]
	inc	rax
	mov	QWORD PTR p$[rbp], rax
	mov	rax, QWORD PTR p$[rbp]
	mov	BYTE PTR [rax], 0
	mov	rax, QWORD PTR p$[rbp]
	inc	rax
	mov	QWORD PTR p$[rbp], rax
	mov	rax, QWORD PTR p$[rbp]
	mov	BYTE PTR [rax], 0
	mov	rax, QWORD PTR p$[rbp]
	inc	rax
	mov	QWORD PTR p$[rbp], rax

; 1282 :     WRITE_4(0); WRITE_4(0x00010000); WRITE_4(0);

	mov	rax, QWORD PTR p$[rbp]
	mov	BYTE PTR [rax], 0
	mov	rax, QWORD PTR p$[rbp]
	inc	rax
	mov	QWORD PTR p$[rbp], rax
	mov	rax, QWORD PTR p$[rbp]
	mov	BYTE PTR [rax], 0
	mov	rax, QWORD PTR p$[rbp]
	inc	rax
	mov	QWORD PTR p$[rbp], rax
	mov	rax, QWORD PTR p$[rbp]
	mov	BYTE PTR [rax], 0
	mov	rax, QWORD PTR p$[rbp]
	inc	rax
	mov	QWORD PTR p$[rbp], rax
	mov	rax, QWORD PTR p$[rbp]
	mov	BYTE PTR [rax], 0
	mov	rax, QWORD PTR p$[rbp]
	inc	rax
	mov	QWORD PTR p$[rbp], rax
	mov	rax, QWORD PTR p$[rbp]
	mov	BYTE PTR [rax], 0
	mov	rax, QWORD PTR p$[rbp]
	inc	rax
	mov	QWORD PTR p$[rbp], rax
	mov	rax, QWORD PTR p$[rbp]
	mov	BYTE PTR [rax], 1
	mov	rax, QWORD PTR p$[rbp]
	inc	rax
	mov	QWORD PTR p$[rbp], rax
	mov	rax, QWORD PTR p$[rbp]
	mov	BYTE PTR [rax], 0
	mov	rax, QWORD PTR p$[rbp]
	inc	rax
	mov	QWORD PTR p$[rbp], rax
	mov	rax, QWORD PTR p$[rbp]
	mov	BYTE PTR [rax], 0
	mov	rax, QWORD PTR p$[rbp]
	inc	rax
	mov	QWORD PTR p$[rbp], rax
	mov	rax, QWORD PTR p$[rbp]
	mov	BYTE PTR [rax], 0
	mov	rax, QWORD PTR p$[rbp]
	inc	rax
	mov	QWORD PTR p$[rbp], rax
	mov	rax, QWORD PTR p$[rbp]
	mov	BYTE PTR [rax], 0
	mov	rax, QWORD PTR p$[rbp]
	inc	rax
	mov	QWORD PTR p$[rbp], rax
	mov	rax, QWORD PTR p$[rbp]
	mov	BYTE PTR [rax], 0
	mov	rax, QWORD PTR p$[rbp]
	inc	rax
	mov	QWORD PTR p$[rbp], rax
	mov	rax, QWORD PTR p$[rbp]
	mov	BYTE PTR [rax], 0
	mov	rax, QWORD PTR p$[rbp]
	inc	rax
	mov	QWORD PTR p$[rbp], rax

; 1283 :     WRITE_4(0); WRITE_4(0); WRITE_4(0x40000000);

	mov	rax, QWORD PTR p$[rbp]
	mov	BYTE PTR [rax], 0
	mov	rax, QWORD PTR p$[rbp]
	inc	rax
	mov	QWORD PTR p$[rbp], rax
	mov	rax, QWORD PTR p$[rbp]
	mov	BYTE PTR [rax], 0
	mov	rax, QWORD PTR p$[rbp]
	inc	rax
	mov	QWORD PTR p$[rbp], rax
	mov	rax, QWORD PTR p$[rbp]
	mov	BYTE PTR [rax], 0
	mov	rax, QWORD PTR p$[rbp]
	inc	rax
	mov	QWORD PTR p$[rbp], rax
	mov	rax, QWORD PTR p$[rbp]
	mov	BYTE PTR [rax], 0
	mov	rax, QWORD PTR p$[rbp]
	inc	rax
	mov	QWORD PTR p$[rbp], rax
	mov	rax, QWORD PTR p$[rbp]
	mov	BYTE PTR [rax], 0
	mov	rax, QWORD PTR p$[rbp]
	inc	rax
	mov	QWORD PTR p$[rbp], rax
	mov	rax, QWORD PTR p$[rbp]
	mov	BYTE PTR [rax], 0
	mov	rax, QWORD PTR p$[rbp]
	inc	rax
	mov	QWORD PTR p$[rbp], rax
	mov	rax, QWORD PTR p$[rbp]
	mov	BYTE PTR [rax], 0
	mov	rax, QWORD PTR p$[rbp]
	inc	rax
	mov	QWORD PTR p$[rbp], rax
	mov	rax, QWORD PTR p$[rbp]
	mov	BYTE PTR [rax], 0
	mov	rax, QWORD PTR p$[rbp]
	inc	rax
	mov	QWORD PTR p$[rbp], rax
	mov	rax, QWORD PTR p$[rbp]
	mov	BYTE PTR [rax], 64			; 00000040H
	mov	rax, QWORD PTR p$[rbp]
	inc	rax
	mov	QWORD PTR p$[rbp], rax
	mov	rax, QWORD PTR p$[rbp]
	mov	BYTE PTR [rax], 0
	mov	rax, QWORD PTR p$[rbp]
	inc	rax
	mov	QWORD PTR p$[rbp], rax
	mov	rax, QWORD PTR p$[rbp]
	mov	BYTE PTR [rax], 0
	mov	rax, QWORD PTR p$[rbp]
	inc	rax
	mov	QWORD PTR p$[rbp], rax
	mov	rax, QWORD PTR p$[rbp]
	mov	BYTE PTR [rax], 0
	mov	rax, QWORD PTR p$[rbp]
	inc	rax
	mov	QWORD PTR p$[rbp], rax

; 1284 : 
; 1285 :     // pre_defined[6]
; 1286 :     WRITE_4(0); WRITE_4(0); WRITE_4(0);

	mov	rax, QWORD PTR p$[rbp]
	mov	BYTE PTR [rax], 0
	mov	rax, QWORD PTR p$[rbp]
	inc	rax
	mov	QWORD PTR p$[rbp], rax
	mov	rax, QWORD PTR p$[rbp]
	mov	BYTE PTR [rax], 0
	mov	rax, QWORD PTR p$[rbp]
	inc	rax
	mov	QWORD PTR p$[rbp], rax
	mov	rax, QWORD PTR p$[rbp]
	mov	BYTE PTR [rax], 0
	mov	rax, QWORD PTR p$[rbp]
	inc	rax
	mov	QWORD PTR p$[rbp], rax
	mov	rax, QWORD PTR p$[rbp]
	mov	BYTE PTR [rax], 0
	mov	rax, QWORD PTR p$[rbp]
	inc	rax
	mov	QWORD PTR p$[rbp], rax
	mov	rax, QWORD PTR p$[rbp]
	mov	BYTE PTR [rax], 0
	mov	rax, QWORD PTR p$[rbp]
	inc	rax
	mov	QWORD PTR p$[rbp], rax
	mov	rax, QWORD PTR p$[rbp]
	mov	BYTE PTR [rax], 0
	mov	rax, QWORD PTR p$[rbp]
	inc	rax
	mov	QWORD PTR p$[rbp], rax
	mov	rax, QWORD PTR p$[rbp]
	mov	BYTE PTR [rax], 0
	mov	rax, QWORD PTR p$[rbp]
	inc	rax
	mov	QWORD PTR p$[rbp], rax
	mov	rax, QWORD PTR p$[rbp]
	mov	BYTE PTR [rax], 0
	mov	rax, QWORD PTR p$[rbp]
	inc	rax
	mov	QWORD PTR p$[rbp], rax
	mov	rax, QWORD PTR p$[rbp]
	mov	BYTE PTR [rax], 0
	mov	rax, QWORD PTR p$[rbp]
	inc	rax
	mov	QWORD PTR p$[rbp], rax
	mov	rax, QWORD PTR p$[rbp]
	mov	BYTE PTR [rax], 0
	mov	rax, QWORD PTR p$[rbp]
	inc	rax
	mov	QWORD PTR p$[rbp], rax
	mov	rax, QWORD PTR p$[rbp]
	mov	BYTE PTR [rax], 0
	mov	rax, QWORD PTR p$[rbp]
	inc	rax
	mov	QWORD PTR p$[rbp], rax
	mov	rax, QWORD PTR p$[rbp]
	mov	BYTE PTR [rax], 0
	mov	rax, QWORD PTR p$[rbp]
	inc	rax
	mov	QWORD PTR p$[rbp], rax

; 1287 :     WRITE_4(0); WRITE_4(0); WRITE_4(0);

	mov	rax, QWORD PTR p$[rbp]
	mov	BYTE PTR [rax], 0
	mov	rax, QWORD PTR p$[rbp]
	inc	rax
	mov	QWORD PTR p$[rbp], rax
	mov	rax, QWORD PTR p$[rbp]
	mov	BYTE PTR [rax], 0
	mov	rax, QWORD PTR p$[rbp]
	inc	rax
	mov	QWORD PTR p$[rbp], rax
	mov	rax, QWORD PTR p$[rbp]
	mov	BYTE PTR [rax], 0
	mov	rax, QWORD PTR p$[rbp]
	inc	rax
	mov	QWORD PTR p$[rbp], rax
	mov	rax, QWORD PTR p$[rbp]
	mov	BYTE PTR [rax], 0
	mov	rax, QWORD PTR p$[rbp]
	inc	rax
	mov	QWORD PTR p$[rbp], rax
	mov	rax, QWORD PTR p$[rbp]
	mov	BYTE PTR [rax], 0
	mov	rax, QWORD PTR p$[rbp]
	inc	rax
	mov	QWORD PTR p$[rbp], rax
	mov	rax, QWORD PTR p$[rbp]
	mov	BYTE PTR [rax], 0
	mov	rax, QWORD PTR p$[rbp]
	inc	rax
	mov	QWORD PTR p$[rbp], rax
	mov	rax, QWORD PTR p$[rbp]
	mov	BYTE PTR [rax], 0
	mov	rax, QWORD PTR p$[rbp]
	inc	rax
	mov	QWORD PTR p$[rbp], rax
	mov	rax, QWORD PTR p$[rbp]
	mov	BYTE PTR [rax], 0
	mov	rax, QWORD PTR p$[rbp]
	inc	rax
	mov	QWORD PTR p$[rbp], rax
	mov	rax, QWORD PTR p$[rbp]
	mov	BYTE PTR [rax], 0
	mov	rax, QWORD PTR p$[rbp]
	inc	rax
	mov	QWORD PTR p$[rbp], rax
	mov	rax, QWORD PTR p$[rbp]
	mov	BYTE PTR [rax], 0
	mov	rax, QWORD PTR p$[rbp]
	inc	rax
	mov	QWORD PTR p$[rbp], rax
	mov	rax, QWORD PTR p$[rbp]
	mov	BYTE PTR [rax], 0
	mov	rax, QWORD PTR p$[rbp]
	inc	rax
	mov	QWORD PTR p$[rbp], rax
	mov	rax, QWORD PTR p$[rbp]
	mov	BYTE PTR [rax], 0
	mov	rax, QWORD PTR p$[rbp]
	inc	rax
	mov	QWORD PTR p$[rbp], rax

; 1288 : 
; 1289 :     //next_track_ID is a non-zero integer that indicates a value to use for the track ID of the next track to be
; 1290 :     //added to this presentation. Zero is not a valid track ID value. The value of next_track_ID shall be
; 1291 :     //larger than the largest track-ID in use.
; 1292 :     WRITE_4(ntracks + 1);

	mov	eax, DWORD PTR ntracks$[rbp]
	inc	eax
	shr	eax, 24
	mov	rcx, QWORD PTR p$[rbp]
	mov	BYTE PTR [rcx], al
	mov	rax, QWORD PTR p$[rbp]
	inc	rax
	mov	QWORD PTR p$[rbp], rax
	mov	eax, DWORD PTR ntracks$[rbp]
	inc	eax
	shr	eax, 16
	mov	rcx, QWORD PTR p$[rbp]
	mov	BYTE PTR [rcx], al
	mov	rax, QWORD PTR p$[rbp]
	inc	rax
	mov	QWORD PTR p$[rbp], rax
	mov	eax, DWORD PTR ntracks$[rbp]
	inc	eax
	shr	eax, 8
	mov	rcx, QWORD PTR p$[rbp]
	mov	BYTE PTR [rcx], al
	mov	rax, QWORD PTR p$[rbp]
	inc	rax
	mov	QWORD PTR p$[rbp], rax
	mov	eax, DWORD PTR ntracks$[rbp]
	inc	eax
	mov	rcx, QWORD PTR p$[rbp]
	mov	BYTE PTR [rcx], al
	mov	rax, QWORD PTR p$[rbp]
	inc	rax
	mov	QWORD PTR p$[rbp], rax

; 1293 :     END_ATOM;

	mov	rax, QWORD PTR stack$[rbp]
	sub	rax, 8
	mov	QWORD PTR stack$[rbp], rax
	mov	rax, QWORD PTR stack$[rbp]
	mov	rax, QWORD PTR [rax]
	mov	rcx, QWORD PTR p$[rbp]
	sub	rcx, rax
	mov	rax, rcx
	sar	rax, 24
	mov	ecx, 1
	imul	rcx, rcx, 0
	mov	rdx, QWORD PTR stack$[rbp]
	mov	rdx, QWORD PTR [rdx]
	mov	BYTE PTR [rcx+rdx], al
	mov	rax, QWORD PTR stack$[rbp]
	mov	rax, QWORD PTR [rax]
	mov	rcx, QWORD PTR p$[rbp]
	sub	rcx, rax
	mov	rax, rcx
	sar	rax, 16
	mov	ecx, 1
	imul	rcx, rcx, 1
	mov	rdx, QWORD PTR stack$[rbp]
	mov	rdx, QWORD PTR [rdx]
	mov	BYTE PTR [rcx+rdx], al
	mov	rax, QWORD PTR stack$[rbp]
	mov	rax, QWORD PTR [rax]
	mov	rcx, QWORD PTR p$[rbp]
	sub	rcx, rax
	mov	rax, rcx
	sar	rax, 8
	mov	ecx, 1
	imul	rcx, rcx, 2
	mov	rdx, QWORD PTR stack$[rbp]
	mov	rdx, QWORD PTR [rdx]
	mov	BYTE PTR [rcx+rdx], al
	mov	rax, QWORD PTR stack$[rbp]
	mov	rax, QWORD PTR [rax]
	mov	rcx, QWORD PTR p$[rbp]
	sub	rcx, rax
	mov	rax, rcx
	mov	ecx, 1
	imul	rcx, rcx, 3
	mov	rdx, QWORD PTR stack$[rbp]
	mov	rdx, QWORD PTR [rdx]
	mov	BYTE PTR [rcx+rdx], al

; 1294 : 
; 1295 :     for (ntr = 0; ntr < ntracks; ntr++)

	mov	DWORD PTR ntr$[rbp], 0
	jmp	SHORT $LN7@mp4e_flush
$LN5@mp4e_flush:
	mov	eax, DWORD PTR ntr$[rbp]
	inc	eax
	mov	DWORD PTR ntr$[rbp], eax
$LN7@mp4e_flush:
	mov	eax, DWORD PTR ntracks$[rbp]
	cmp	DWORD PTR ntr$[rbp], eax
	jae	$LN6@mp4e_flush

; 1296 :     {
; 1297 :         track_t* tr = ((track_t*)mux->tracks.data) + ntr;

	mov	eax, DWORD PTR ntr$[rbp]
	imul	rax, rax, 112				; 00000070H
	mov	rcx, QWORD PTR mux$[rbp]
	add	rax, QWORD PTR [rcx]
	mov	QWORD PTR tr$8[rbp], rax

; 1298 :         unsigned duration = get_duration(tr);

	mov	rcx, QWORD PTR tr$8[rbp]
	call	?get_duration@@YAIPEBUtrack_t@@@Z	; get_duration
	mov	DWORD PTR duration$9[rbp], eax

; 1299 :         int samples_count = tr->smpl.bytes / sizeof(sample_t);

	mov	rax, QWORD PTR tr$8[rbp]
	movsxd	rax, DWORD PTR [rax+40]
	xor	edx, edx
	mov	ecx, 24
	div	rcx
	mov	DWORD PTR samples_count$10[rbp], eax

; 1300 :         const sample_t* sample = (const sample_t*)tr->smpl.data;

	mov	rax, QWORD PTR tr$8[rbp]
	mov	rax, QWORD PTR [rax+32]
	mov	QWORD PTR sample$11[rbp], rax

; 1301 :         unsigned handler_type;
; 1302 :         const char* handler_ascii = NULL;

	mov	QWORD PTR handler_ascii$13[rbp], 0

; 1303 : 
; 1304 :         if (mux->enable_fragmentation)

	mov	rax, QWORD PTR mux$[rbp]
	cmp	DWORD PTR [rax+52], 0
	je	SHORT $LN75@mp4e_flush

; 1305 :             samples_count = 0;

	mov	DWORD PTR samples_count$10[rbp], 0
	jmp	SHORT $LN76@mp4e_flush
$LN75@mp4e_flush:

; 1306 :         else if (samples_count <= 0)

	cmp	DWORD PTR samples_count$10[rbp], 0
	jg	SHORT $LN77@mp4e_flush

; 1307 :             continue;   // skip empty track

	jmp	$LN5@mp4e_flush
$LN77@mp4e_flush:
$LN76@mp4e_flush:

; 1308 : 
; 1309 :         switch (tr->info.track_media_kind)

	mov	rax, QWORD PTR tr$8[rbp]
	mov	eax, DWORD PTR [rax+8]
	mov	DWORD PTR tv404[rbp], eax
	cmp	DWORD PTR tv404[rbp], 0
	je	SHORT $LN78@mp4e_flush
	cmp	DWORD PTR tv404[rbp], 1
	je	SHORT $LN79@mp4e_flush
	cmp	DWORD PTR tv404[rbp], 2
	je	SHORT $LN80@mp4e_flush
	jmp	SHORT $LN81@mp4e_flush
$LN78@mp4e_flush:

; 1310 :         {
; 1311 :         case e_audio:
; 1312 :             handler_type = MP4E_HANDLER_TYPE_SOUN;

	mov	DWORD PTR handler_type$12[rbp], 1936684398 ; 736f756eH

; 1313 :             handler_ascii = "SoundHandler";

	lea	rax, OFFSET FLAT:??_C@_0N@PEMJHAML@SoundHandler@
	mov	QWORD PTR handler_ascii$13[rbp], rax

; 1314 :             break;

	jmp	SHORT $LN8@mp4e_flush
$LN79@mp4e_flush:

; 1315 :         case e_video:
; 1316 :             handler_type = MP4E_HANDLER_TYPE_VIDE;

	mov	DWORD PTR handler_type$12[rbp], 1986618469 ; 76696465H

; 1317 :             handler_ascii = "VideoHandler";

	lea	rax, OFFSET FLAT:??_C@_0N@BDBGBIBJ@VideoHandler@
	mov	QWORD PTR handler_ascii$13[rbp], rax

; 1318 :             break;

	jmp	SHORT $LN8@mp4e_flush
$LN80@mp4e_flush:

; 1319 :         case e_private:
; 1320 :             handler_type = MP4E_HANDLER_TYPE_GESM;

	mov	DWORD PTR handler_type$12[rbp], 1734701933 ; 6765736dH

; 1321 :             break;

	jmp	SHORT $LN8@mp4e_flush
$LN81@mp4e_flush:

; 1322 :         default:
; 1323 :             return MP4E_STATUS_BAD_ARGUMENTS;

	mov	eax, -1
	jmp	$LN1@mp4e_flush
$LN8@mp4e_flush:

; 1324 :         }
; 1325 : 
; 1326 :         ATOM(BOX_trak);

	mov	rax, QWORD PTR stack$[rbp]
	mov	rcx, QWORD PTR p$[rbp]
	mov	QWORD PTR [rax], rcx
	mov	rax, QWORD PTR stack$[rbp]
	add	rax, 8
	mov	QWORD PTR stack$[rbp], rax
	mov	rax, QWORD PTR p$[rbp]
	add	rax, 4
	mov	QWORD PTR p$[rbp], rax
	mov	rax, QWORD PTR p$[rbp]
	mov	BYTE PTR [rax], 116			; 00000074H
	mov	rax, QWORD PTR p$[rbp]
	inc	rax
	mov	QWORD PTR p$[rbp], rax
	mov	rax, QWORD PTR p$[rbp]
	mov	BYTE PTR [rax], 114			; 00000072H
	mov	rax, QWORD PTR p$[rbp]
	inc	rax
	mov	QWORD PTR p$[rbp], rax
	mov	rax, QWORD PTR p$[rbp]
	mov	BYTE PTR [rax], 97			; 00000061H
	mov	rax, QWORD PTR p$[rbp]
	inc	rax
	mov	QWORD PTR p$[rbp], rax
	mov	rax, QWORD PTR p$[rbp]
	mov	BYTE PTR [rax], 107			; 0000006bH
	mov	rax, QWORD PTR p$[rbp]
	inc	rax
	mov	QWORD PTR p$[rbp], rax

; 1327 :         ATOM_FULL(BOX_tkhd, 7); // flag: 1=trak enabled; 2=track in movie; 4=track in preview

	mov	rax, QWORD PTR stack$[rbp]
	mov	rcx, QWORD PTR p$[rbp]
	mov	QWORD PTR [rax], rcx
	mov	rax, QWORD PTR stack$[rbp]
	add	rax, 8
	mov	QWORD PTR stack$[rbp], rax
	mov	rax, QWORD PTR p$[rbp]
	add	rax, 4
	mov	QWORD PTR p$[rbp], rax
	mov	rax, QWORD PTR p$[rbp]
	mov	BYTE PTR [rax], 116			; 00000074H
	mov	rax, QWORD PTR p$[rbp]
	inc	rax
	mov	QWORD PTR p$[rbp], rax
	mov	rax, QWORD PTR p$[rbp]
	mov	BYTE PTR [rax], 107			; 0000006bH
	mov	rax, QWORD PTR p$[rbp]
	inc	rax
	mov	QWORD PTR p$[rbp], rax
	mov	rax, QWORD PTR p$[rbp]
	mov	BYTE PTR [rax], 104			; 00000068H
	mov	rax, QWORD PTR p$[rbp]
	inc	rax
	mov	QWORD PTR p$[rbp], rax
	mov	rax, QWORD PTR p$[rbp]
	mov	BYTE PTR [rax], 100			; 00000064H
	mov	rax, QWORD PTR p$[rbp]
	inc	rax
	mov	QWORD PTR p$[rbp], rax
	mov	rax, QWORD PTR p$[rbp]
	mov	BYTE PTR [rax], 0
	mov	rax, QWORD PTR p$[rbp]
	inc	rax
	mov	QWORD PTR p$[rbp], rax
	mov	rax, QWORD PTR p$[rbp]
	mov	BYTE PTR [rax], 0
	mov	rax, QWORD PTR p$[rbp]
	inc	rax
	mov	QWORD PTR p$[rbp], rax
	mov	rax, QWORD PTR p$[rbp]
	mov	BYTE PTR [rax], 0
	mov	rax, QWORD PTR p$[rbp]
	inc	rax
	mov	QWORD PTR p$[rbp], rax
	mov	rax, QWORD PTR p$[rbp]
	mov	BYTE PTR [rax], 7
	mov	rax, QWORD PTR p$[rbp]
	inc	rax
	mov	QWORD PTR p$[rbp], rax

; 1328 :         WRITE_4(0);             // creation_time

	mov	rax, QWORD PTR p$[rbp]
	mov	BYTE PTR [rax], 0
	mov	rax, QWORD PTR p$[rbp]
	inc	rax
	mov	QWORD PTR p$[rbp], rax
	mov	rax, QWORD PTR p$[rbp]
	mov	BYTE PTR [rax], 0
	mov	rax, QWORD PTR p$[rbp]
	inc	rax
	mov	QWORD PTR p$[rbp], rax
	mov	rax, QWORD PTR p$[rbp]
	mov	BYTE PTR [rax], 0
	mov	rax, QWORD PTR p$[rbp]
	inc	rax
	mov	QWORD PTR p$[rbp], rax
	mov	rax, QWORD PTR p$[rbp]
	mov	BYTE PTR [rax], 0
	mov	rax, QWORD PTR p$[rbp]
	inc	rax
	mov	QWORD PTR p$[rbp], rax

; 1329 :         WRITE_4(0);             // modification_time

	mov	rax, QWORD PTR p$[rbp]
	mov	BYTE PTR [rax], 0
	mov	rax, QWORD PTR p$[rbp]
	inc	rax
	mov	QWORD PTR p$[rbp], rax
	mov	rax, QWORD PTR p$[rbp]
	mov	BYTE PTR [rax], 0
	mov	rax, QWORD PTR p$[rbp]
	inc	rax
	mov	QWORD PTR p$[rbp], rax
	mov	rax, QWORD PTR p$[rbp]
	mov	BYTE PTR [rax], 0
	mov	rax, QWORD PTR p$[rbp]
	inc	rax
	mov	QWORD PTR p$[rbp], rax
	mov	rax, QWORD PTR p$[rbp]
	mov	BYTE PTR [rax], 0
	mov	rax, QWORD PTR p$[rbp]
	inc	rax
	mov	QWORD PTR p$[rbp], rax

; 1330 :         WRITE_4(ntr + 1);       // track_ID

	mov	eax, DWORD PTR ntr$[rbp]
	inc	eax
	shr	eax, 24
	mov	rcx, QWORD PTR p$[rbp]
	mov	BYTE PTR [rcx], al
	mov	rax, QWORD PTR p$[rbp]
	inc	rax
	mov	QWORD PTR p$[rbp], rax
	mov	eax, DWORD PTR ntr$[rbp]
	inc	eax
	shr	eax, 16
	mov	rcx, QWORD PTR p$[rbp]
	mov	BYTE PTR [rcx], al
	mov	rax, QWORD PTR p$[rbp]
	inc	rax
	mov	QWORD PTR p$[rbp], rax
	mov	eax, DWORD PTR ntr$[rbp]
	inc	eax
	shr	eax, 8
	mov	rcx, QWORD PTR p$[rbp]
	mov	BYTE PTR [rcx], al
	mov	rax, QWORD PTR p$[rbp]
	inc	rax
	mov	QWORD PTR p$[rbp], rax
	mov	eax, DWORD PTR ntr$[rbp]
	inc	eax
	mov	rcx, QWORD PTR p$[rbp]
	mov	BYTE PTR [rcx], al
	mov	rax, QWORD PTR p$[rbp]
	inc	rax
	mov	QWORD PTR p$[rbp], rax

; 1331 :         WRITE_4(0);             // reserved

	mov	rax, QWORD PTR p$[rbp]
	mov	BYTE PTR [rax], 0
	mov	rax, QWORD PTR p$[rbp]
	inc	rax
	mov	QWORD PTR p$[rbp], rax
	mov	rax, QWORD PTR p$[rbp]
	mov	BYTE PTR [rax], 0
	mov	rax, QWORD PTR p$[rbp]
	inc	rax
	mov	QWORD PTR p$[rbp], rax
	mov	rax, QWORD PTR p$[rbp]
	mov	BYTE PTR [rax], 0
	mov	rax, QWORD PTR p$[rbp]
	inc	rax
	mov	QWORD PTR p$[rbp], rax
	mov	rax, QWORD PTR p$[rbp]
	mov	BYTE PTR [rax], 0
	mov	rax, QWORD PTR p$[rbp]
	inc	rax
	mov	QWORD PTR p$[rbp], rax

; 1332 :         WRITE_4((unsigned)(duration * 1LL * MOOV_TIMESCALE / tr->info.time_scale));

	mov	eax, DWORD PTR duration$9[rbp]
	imul	rax, rax, 1000				; 000003e8H
	mov	rcx, QWORD PTR tr$8[rbp]
	mov	ecx, DWORD PTR [rcx+12]
	cdq
	idiv	rcx
	shr	eax, 24
	mov	rcx, QWORD PTR p$[rbp]
	mov	BYTE PTR [rcx], al
	mov	rax, QWORD PTR p$[rbp]
	inc	rax
	mov	QWORD PTR p$[rbp], rax
	mov	eax, DWORD PTR duration$9[rbp]
	imul	rax, rax, 1000				; 000003e8H
	mov	rcx, QWORD PTR tr$8[rbp]
	mov	ecx, DWORD PTR [rcx+12]
	cdq
	idiv	rcx
	shr	eax, 16
	mov	rcx, QWORD PTR p$[rbp]
	mov	BYTE PTR [rcx], al
	mov	rax, QWORD PTR p$[rbp]
	inc	rax
	mov	QWORD PTR p$[rbp], rax
	mov	eax, DWORD PTR duration$9[rbp]
	imul	rax, rax, 1000				; 000003e8H
	mov	rcx, QWORD PTR tr$8[rbp]
	mov	ecx, DWORD PTR [rcx+12]
	cdq
	idiv	rcx
	shr	eax, 8
	mov	rcx, QWORD PTR p$[rbp]
	mov	BYTE PTR [rcx], al
	mov	rax, QWORD PTR p$[rbp]
	inc	rax
	mov	QWORD PTR p$[rbp], rax
	mov	eax, DWORD PTR duration$9[rbp]
	imul	rax, rax, 1000				; 000003e8H
	mov	rcx, QWORD PTR tr$8[rbp]
	mov	ecx, DWORD PTR [rcx+12]
	cdq
	idiv	rcx
	mov	rcx, QWORD PTR p$[rbp]
	mov	BYTE PTR [rcx], al
	mov	rax, QWORD PTR p$[rbp]
	inc	rax
	mov	QWORD PTR p$[rbp], rax

; 1333 :         WRITE_4(0); WRITE_4(0); // reserved[2]

	mov	rax, QWORD PTR p$[rbp]
	mov	BYTE PTR [rax], 0
	mov	rax, QWORD PTR p$[rbp]
	inc	rax
	mov	QWORD PTR p$[rbp], rax
	mov	rax, QWORD PTR p$[rbp]
	mov	BYTE PTR [rax], 0
	mov	rax, QWORD PTR p$[rbp]
	inc	rax
	mov	QWORD PTR p$[rbp], rax
	mov	rax, QWORD PTR p$[rbp]
	mov	BYTE PTR [rax], 0
	mov	rax, QWORD PTR p$[rbp]
	inc	rax
	mov	QWORD PTR p$[rbp], rax
	mov	rax, QWORD PTR p$[rbp]
	mov	BYTE PTR [rax], 0
	mov	rax, QWORD PTR p$[rbp]
	inc	rax
	mov	QWORD PTR p$[rbp], rax
	mov	rax, QWORD PTR p$[rbp]
	mov	BYTE PTR [rax], 0
	mov	rax, QWORD PTR p$[rbp]
	inc	rax
	mov	QWORD PTR p$[rbp], rax
	mov	rax, QWORD PTR p$[rbp]
	mov	BYTE PTR [rax], 0
	mov	rax, QWORD PTR p$[rbp]
	inc	rax
	mov	QWORD PTR p$[rbp], rax
	mov	rax, QWORD PTR p$[rbp]
	mov	BYTE PTR [rax], 0
	mov	rax, QWORD PTR p$[rbp]
	inc	rax
	mov	QWORD PTR p$[rbp], rax
	mov	rax, QWORD PTR p$[rbp]
	mov	BYTE PTR [rax], 0
	mov	rax, QWORD PTR p$[rbp]
	inc	rax
	mov	QWORD PTR p$[rbp], rax

; 1334 :         WRITE_2(0);             // layer

	mov	rax, QWORD PTR p$[rbp]
	mov	BYTE PTR [rax], 0
	mov	rax, QWORD PTR p$[rbp]
	inc	rax
	mov	QWORD PTR p$[rbp], rax
	mov	rax, QWORD PTR p$[rbp]
	mov	BYTE PTR [rax], 0
	mov	rax, QWORD PTR p$[rbp]
	inc	rax
	mov	QWORD PTR p$[rbp], rax

; 1335 :         WRITE_2(0);             // alternate_group

	mov	rax, QWORD PTR p$[rbp]
	mov	BYTE PTR [rax], 0
	mov	rax, QWORD PTR p$[rbp]
	inc	rax
	mov	QWORD PTR p$[rbp], rax
	mov	rax, QWORD PTR p$[rbp]
	mov	BYTE PTR [rax], 0
	mov	rax, QWORD PTR p$[rbp]
	inc	rax
	mov	QWORD PTR p$[rbp], rax

; 1336 :         WRITE_2(0x0100);        // volume {if track_is_audio 0x0100 else 0};

	mov	rax, QWORD PTR p$[rbp]
	mov	BYTE PTR [rax], 1
	mov	rax, QWORD PTR p$[rbp]
	inc	rax
	mov	QWORD PTR p$[rbp], rax
	mov	rax, QWORD PTR p$[rbp]
	mov	BYTE PTR [rax], 0
	mov	rax, QWORD PTR p$[rbp]
	inc	rax
	mov	QWORD PTR p$[rbp], rax

; 1337 :         WRITE_2(0);             // reserved

	mov	rax, QWORD PTR p$[rbp]
	mov	BYTE PTR [rax], 0
	mov	rax, QWORD PTR p$[rbp]
	inc	rax
	mov	QWORD PTR p$[rbp], rax
	mov	rax, QWORD PTR p$[rbp]
	mov	BYTE PTR [rax], 0
	mov	rax, QWORD PTR p$[rbp]
	inc	rax
	mov	QWORD PTR p$[rbp], rax

; 1338 : 
; 1339 :         // matrix[9]
; 1340 :         WRITE_4(0x00010000); WRITE_4(0); WRITE_4(0);

	mov	rax, QWORD PTR p$[rbp]
	mov	BYTE PTR [rax], 0
	mov	rax, QWORD PTR p$[rbp]
	inc	rax
	mov	QWORD PTR p$[rbp], rax
	mov	rax, QWORD PTR p$[rbp]
	mov	BYTE PTR [rax], 1
	mov	rax, QWORD PTR p$[rbp]
	inc	rax
	mov	QWORD PTR p$[rbp], rax
	mov	rax, QWORD PTR p$[rbp]
	mov	BYTE PTR [rax], 0
	mov	rax, QWORD PTR p$[rbp]
	inc	rax
	mov	QWORD PTR p$[rbp], rax
	mov	rax, QWORD PTR p$[rbp]
	mov	BYTE PTR [rax], 0
	mov	rax, QWORD PTR p$[rbp]
	inc	rax
	mov	QWORD PTR p$[rbp], rax
	mov	rax, QWORD PTR p$[rbp]
	mov	BYTE PTR [rax], 0
	mov	rax, QWORD PTR p$[rbp]
	inc	rax
	mov	QWORD PTR p$[rbp], rax
	mov	rax, QWORD PTR p$[rbp]
	mov	BYTE PTR [rax], 0
	mov	rax, QWORD PTR p$[rbp]
	inc	rax
	mov	QWORD PTR p$[rbp], rax
	mov	rax, QWORD PTR p$[rbp]
	mov	BYTE PTR [rax], 0
	mov	rax, QWORD PTR p$[rbp]
	inc	rax
	mov	QWORD PTR p$[rbp], rax
	mov	rax, QWORD PTR p$[rbp]
	mov	BYTE PTR [rax], 0
	mov	rax, QWORD PTR p$[rbp]
	inc	rax
	mov	QWORD PTR p$[rbp], rax
	mov	rax, QWORD PTR p$[rbp]
	mov	BYTE PTR [rax], 0
	mov	rax, QWORD PTR p$[rbp]
	inc	rax
	mov	QWORD PTR p$[rbp], rax
	mov	rax, QWORD PTR p$[rbp]
	mov	BYTE PTR [rax], 0
	mov	rax, QWORD PTR p$[rbp]
	inc	rax
	mov	QWORD PTR p$[rbp], rax
	mov	rax, QWORD PTR p$[rbp]
	mov	BYTE PTR [rax], 0
	mov	rax, QWORD PTR p$[rbp]
	inc	rax
	mov	QWORD PTR p$[rbp], rax
	mov	rax, QWORD PTR p$[rbp]
	mov	BYTE PTR [rax], 0
	mov	rax, QWORD PTR p$[rbp]
	inc	rax
	mov	QWORD PTR p$[rbp], rax

; 1341 :         WRITE_4(0); WRITE_4(0x00010000); WRITE_4(0);

	mov	rax, QWORD PTR p$[rbp]
	mov	BYTE PTR [rax], 0
	mov	rax, QWORD PTR p$[rbp]
	inc	rax
	mov	QWORD PTR p$[rbp], rax
	mov	rax, QWORD PTR p$[rbp]
	mov	BYTE PTR [rax], 0
	mov	rax, QWORD PTR p$[rbp]
	inc	rax
	mov	QWORD PTR p$[rbp], rax
	mov	rax, QWORD PTR p$[rbp]
	mov	BYTE PTR [rax], 0
	mov	rax, QWORD PTR p$[rbp]
	inc	rax
	mov	QWORD PTR p$[rbp], rax
	mov	rax, QWORD PTR p$[rbp]
	mov	BYTE PTR [rax], 0
	mov	rax, QWORD PTR p$[rbp]
	inc	rax
	mov	QWORD PTR p$[rbp], rax
	mov	rax, QWORD PTR p$[rbp]
	mov	BYTE PTR [rax], 0
	mov	rax, QWORD PTR p$[rbp]
	inc	rax
	mov	QWORD PTR p$[rbp], rax
	mov	rax, QWORD PTR p$[rbp]
	mov	BYTE PTR [rax], 1
	mov	rax, QWORD PTR p$[rbp]
	inc	rax
	mov	QWORD PTR p$[rbp], rax
	mov	rax, QWORD PTR p$[rbp]
	mov	BYTE PTR [rax], 0
	mov	rax, QWORD PTR p$[rbp]
	inc	rax
	mov	QWORD PTR p$[rbp], rax
	mov	rax, QWORD PTR p$[rbp]
	mov	BYTE PTR [rax], 0
	mov	rax, QWORD PTR p$[rbp]
	inc	rax
	mov	QWORD PTR p$[rbp], rax
	mov	rax, QWORD PTR p$[rbp]
	mov	BYTE PTR [rax], 0
	mov	rax, QWORD PTR p$[rbp]
	inc	rax
	mov	QWORD PTR p$[rbp], rax
	mov	rax, QWORD PTR p$[rbp]
	mov	BYTE PTR [rax], 0
	mov	rax, QWORD PTR p$[rbp]
	inc	rax
	mov	QWORD PTR p$[rbp], rax
	mov	rax, QWORD PTR p$[rbp]
	mov	BYTE PTR [rax], 0
	mov	rax, QWORD PTR p$[rbp]
	inc	rax
	mov	QWORD PTR p$[rbp], rax
	mov	rax, QWORD PTR p$[rbp]
	mov	BYTE PTR [rax], 0
	mov	rax, QWORD PTR p$[rbp]
	inc	rax
	mov	QWORD PTR p$[rbp], rax

; 1342 :         WRITE_4(0); WRITE_4(0); WRITE_4(0x40000000);

	mov	rax, QWORD PTR p$[rbp]
	mov	BYTE PTR [rax], 0
	mov	rax, QWORD PTR p$[rbp]
	inc	rax
	mov	QWORD PTR p$[rbp], rax
	mov	rax, QWORD PTR p$[rbp]
	mov	BYTE PTR [rax], 0
	mov	rax, QWORD PTR p$[rbp]
	inc	rax
	mov	QWORD PTR p$[rbp], rax
	mov	rax, QWORD PTR p$[rbp]
	mov	BYTE PTR [rax], 0
	mov	rax, QWORD PTR p$[rbp]
	inc	rax
	mov	QWORD PTR p$[rbp], rax
	mov	rax, QWORD PTR p$[rbp]
	mov	BYTE PTR [rax], 0
	mov	rax, QWORD PTR p$[rbp]
	inc	rax
	mov	QWORD PTR p$[rbp], rax
	mov	rax, QWORD PTR p$[rbp]
	mov	BYTE PTR [rax], 0
	mov	rax, QWORD PTR p$[rbp]
	inc	rax
	mov	QWORD PTR p$[rbp], rax
	mov	rax, QWORD PTR p$[rbp]
	mov	BYTE PTR [rax], 0
	mov	rax, QWORD PTR p$[rbp]
	inc	rax
	mov	QWORD PTR p$[rbp], rax
	mov	rax, QWORD PTR p$[rbp]
	mov	BYTE PTR [rax], 0
	mov	rax, QWORD PTR p$[rbp]
	inc	rax
	mov	QWORD PTR p$[rbp], rax
	mov	rax, QWORD PTR p$[rbp]
	mov	BYTE PTR [rax], 0
	mov	rax, QWORD PTR p$[rbp]
	inc	rax
	mov	QWORD PTR p$[rbp], rax
	mov	rax, QWORD PTR p$[rbp]
	mov	BYTE PTR [rax], 64			; 00000040H
	mov	rax, QWORD PTR p$[rbp]
	inc	rax
	mov	QWORD PTR p$[rbp], rax
	mov	rax, QWORD PTR p$[rbp]
	mov	BYTE PTR [rax], 0
	mov	rax, QWORD PTR p$[rbp]
	inc	rax
	mov	QWORD PTR p$[rbp], rax
	mov	rax, QWORD PTR p$[rbp]
	mov	BYTE PTR [rax], 0
	mov	rax, QWORD PTR p$[rbp]
	inc	rax
	mov	QWORD PTR p$[rbp], rax
	mov	rax, QWORD PTR p$[rbp]
	mov	BYTE PTR [rax], 0
	mov	rax, QWORD PTR p$[rbp]
	inc	rax
	mov	QWORD PTR p$[rbp], rax

; 1343 : 
; 1344 :         if (tr->info.track_media_kind == e_audio || tr->info.track_media_kind == e_private)

	mov	rax, QWORD PTR tr$8[rbp]
	cmp	DWORD PTR [rax+8], 0
	je	SHORT $LN84@mp4e_flush
	mov	rax, QWORD PTR tr$8[rbp]
	cmp	DWORD PTR [rax+8], 2
	jne	$LN82@mp4e_flush
$LN84@mp4e_flush:

; 1345 :         {
; 1346 :             WRITE_4(0); // width

	mov	rax, QWORD PTR p$[rbp]
	mov	BYTE PTR [rax], 0
	mov	rax, QWORD PTR p$[rbp]
	inc	rax
	mov	QWORD PTR p$[rbp], rax
	mov	rax, QWORD PTR p$[rbp]
	mov	BYTE PTR [rax], 0
	mov	rax, QWORD PTR p$[rbp]
	inc	rax
	mov	QWORD PTR p$[rbp], rax
	mov	rax, QWORD PTR p$[rbp]
	mov	BYTE PTR [rax], 0
	mov	rax, QWORD PTR p$[rbp]
	inc	rax
	mov	QWORD PTR p$[rbp], rax
	mov	rax, QWORD PTR p$[rbp]
	mov	BYTE PTR [rax], 0
	mov	rax, QWORD PTR p$[rbp]
	inc	rax
	mov	QWORD PTR p$[rbp], rax

; 1347 :             WRITE_4(0); // height

	mov	rax, QWORD PTR p$[rbp]
	mov	BYTE PTR [rax], 0
	mov	rax, QWORD PTR p$[rbp]
	inc	rax
	mov	QWORD PTR p$[rbp], rax
	mov	rax, QWORD PTR p$[rbp]
	mov	BYTE PTR [rax], 0
	mov	rax, QWORD PTR p$[rbp]
	inc	rax
	mov	QWORD PTR p$[rbp], rax
	mov	rax, QWORD PTR p$[rbp]
	mov	BYTE PTR [rax], 0
	mov	rax, QWORD PTR p$[rbp]
	inc	rax
	mov	QWORD PTR p$[rbp], rax
	mov	rax, QWORD PTR p$[rbp]
	mov	BYTE PTR [rax], 0
	mov	rax, QWORD PTR p$[rbp]
	inc	rax
	mov	QWORD PTR p$[rbp], rax

; 1348 :         }

	jmp	$LN83@mp4e_flush
$LN82@mp4e_flush:

; 1349 :         else
; 1350 :         {
; 1351 :             WRITE_4(tr->info.u.v.width * 0x10000);  // width

	mov	rax, QWORD PTR tr$8[rbp]
	imul	eax, DWORD PTR [rax+20], 65536		; 00010000H
	sar	eax, 24
	mov	rcx, QWORD PTR p$[rbp]
	mov	BYTE PTR [rcx], al
	mov	rax, QWORD PTR p$[rbp]
	inc	rax
	mov	QWORD PTR p$[rbp], rax
	mov	rax, QWORD PTR tr$8[rbp]
	imul	eax, DWORD PTR [rax+20], 65536		; 00010000H
	sar	eax, 16
	mov	rcx, QWORD PTR p$[rbp]
	mov	BYTE PTR [rcx], al
	mov	rax, QWORD PTR p$[rbp]
	inc	rax
	mov	QWORD PTR p$[rbp], rax
	mov	rax, QWORD PTR tr$8[rbp]
	imul	eax, DWORD PTR [rax+20], 65536		; 00010000H
	sar	eax, 8
	mov	rcx, QWORD PTR p$[rbp]
	mov	BYTE PTR [rcx], al
	mov	rax, QWORD PTR p$[rbp]
	inc	rax
	mov	QWORD PTR p$[rbp], rax
	mov	rax, QWORD PTR tr$8[rbp]
	imul	eax, DWORD PTR [rax+20], 65536		; 00010000H
	mov	rcx, QWORD PTR p$[rbp]
	mov	BYTE PTR [rcx], al
	mov	rax, QWORD PTR p$[rbp]
	inc	rax
	mov	QWORD PTR p$[rbp], rax

; 1352 :             WRITE_4(tr->info.u.v.height * 0x10000); // height

	mov	rax, QWORD PTR tr$8[rbp]
	imul	eax, DWORD PTR [rax+24], 65536		; 00010000H
	sar	eax, 24
	mov	rcx, QWORD PTR p$[rbp]
	mov	BYTE PTR [rcx], al
	mov	rax, QWORD PTR p$[rbp]
	inc	rax
	mov	QWORD PTR p$[rbp], rax
	mov	rax, QWORD PTR tr$8[rbp]
	imul	eax, DWORD PTR [rax+24], 65536		; 00010000H
	sar	eax, 16
	mov	rcx, QWORD PTR p$[rbp]
	mov	BYTE PTR [rcx], al
	mov	rax, QWORD PTR p$[rbp]
	inc	rax
	mov	QWORD PTR p$[rbp], rax
	mov	rax, QWORD PTR tr$8[rbp]
	imul	eax, DWORD PTR [rax+24], 65536		; 00010000H
	sar	eax, 8
	mov	rcx, QWORD PTR p$[rbp]
	mov	BYTE PTR [rcx], al
	mov	rax, QWORD PTR p$[rbp]
	inc	rax
	mov	QWORD PTR p$[rbp], rax
	mov	rax, QWORD PTR tr$8[rbp]
	imul	eax, DWORD PTR [rax+24], 65536		; 00010000H
	mov	rcx, QWORD PTR p$[rbp]
	mov	BYTE PTR [rcx], al
	mov	rax, QWORD PTR p$[rbp]
	inc	rax
	mov	QWORD PTR p$[rbp], rax
$LN83@mp4e_flush:

; 1353 :         }
; 1354 :         END_ATOM;

	mov	rax, QWORD PTR stack$[rbp]
	sub	rax, 8
	mov	QWORD PTR stack$[rbp], rax
	mov	rax, QWORD PTR stack$[rbp]
	mov	rax, QWORD PTR [rax]
	mov	rcx, QWORD PTR p$[rbp]
	sub	rcx, rax
	mov	rax, rcx
	sar	rax, 24
	mov	ecx, 1
	imul	rcx, rcx, 0
	mov	rdx, QWORD PTR stack$[rbp]
	mov	rdx, QWORD PTR [rdx]
	mov	BYTE PTR [rcx+rdx], al
	mov	rax, QWORD PTR stack$[rbp]
	mov	rax, QWORD PTR [rax]
	mov	rcx, QWORD PTR p$[rbp]
	sub	rcx, rax
	mov	rax, rcx
	sar	rax, 16
	mov	ecx, 1
	imul	rcx, rcx, 1
	mov	rdx, QWORD PTR stack$[rbp]
	mov	rdx, QWORD PTR [rdx]
	mov	BYTE PTR [rcx+rdx], al
	mov	rax, QWORD PTR stack$[rbp]
	mov	rax, QWORD PTR [rax]
	mov	rcx, QWORD PTR p$[rbp]
	sub	rcx, rax
	mov	rax, rcx
	sar	rax, 8
	mov	ecx, 1
	imul	rcx, rcx, 2
	mov	rdx, QWORD PTR stack$[rbp]
	mov	rdx, QWORD PTR [rdx]
	mov	BYTE PTR [rcx+rdx], al
	mov	rax, QWORD PTR stack$[rbp]
	mov	rax, QWORD PTR [rax]
	mov	rcx, QWORD PTR p$[rbp]
	sub	rcx, rax
	mov	rax, rcx
	mov	ecx, 1
	imul	rcx, rcx, 3
	mov	rdx, QWORD PTR stack$[rbp]
	mov	rdx, QWORD PTR [rdx]
	mov	BYTE PTR [rcx+rdx], al

; 1355 : 
; 1356 :         ATOM(BOX_mdia);

	mov	rax, QWORD PTR stack$[rbp]
	mov	rcx, QWORD PTR p$[rbp]
	mov	QWORD PTR [rax], rcx
	mov	rax, QWORD PTR stack$[rbp]
	add	rax, 8
	mov	QWORD PTR stack$[rbp], rax
	mov	rax, QWORD PTR p$[rbp]
	add	rax, 4
	mov	QWORD PTR p$[rbp], rax
	mov	rax, QWORD PTR p$[rbp]
	mov	BYTE PTR [rax], 109			; 0000006dH
	mov	rax, QWORD PTR p$[rbp]
	inc	rax
	mov	QWORD PTR p$[rbp], rax
	mov	rax, QWORD PTR p$[rbp]
	mov	BYTE PTR [rax], 100			; 00000064H
	mov	rax, QWORD PTR p$[rbp]
	inc	rax
	mov	QWORD PTR p$[rbp], rax
	mov	rax, QWORD PTR p$[rbp]
	mov	BYTE PTR [rax], 105			; 00000069H
	mov	rax, QWORD PTR p$[rbp]
	inc	rax
	mov	QWORD PTR p$[rbp], rax
	mov	rax, QWORD PTR p$[rbp]
	mov	BYTE PTR [rax], 97			; 00000061H
	mov	rax, QWORD PTR p$[rbp]
	inc	rax
	mov	QWORD PTR p$[rbp], rax

; 1357 :         ATOM_FULL(BOX_mdhd, 0);

	mov	rax, QWORD PTR stack$[rbp]
	mov	rcx, QWORD PTR p$[rbp]
	mov	QWORD PTR [rax], rcx
	mov	rax, QWORD PTR stack$[rbp]
	add	rax, 8
	mov	QWORD PTR stack$[rbp], rax
	mov	rax, QWORD PTR p$[rbp]
	add	rax, 4
	mov	QWORD PTR p$[rbp], rax
	mov	rax, QWORD PTR p$[rbp]
	mov	BYTE PTR [rax], 109			; 0000006dH
	mov	rax, QWORD PTR p$[rbp]
	inc	rax
	mov	QWORD PTR p$[rbp], rax
	mov	rax, QWORD PTR p$[rbp]
	mov	BYTE PTR [rax], 100			; 00000064H
	mov	rax, QWORD PTR p$[rbp]
	inc	rax
	mov	QWORD PTR p$[rbp], rax
	mov	rax, QWORD PTR p$[rbp]
	mov	BYTE PTR [rax], 104			; 00000068H
	mov	rax, QWORD PTR p$[rbp]
	inc	rax
	mov	QWORD PTR p$[rbp], rax
	mov	rax, QWORD PTR p$[rbp]
	mov	BYTE PTR [rax], 100			; 00000064H
	mov	rax, QWORD PTR p$[rbp]
	inc	rax
	mov	QWORD PTR p$[rbp], rax
	mov	rax, QWORD PTR p$[rbp]
	mov	BYTE PTR [rax], 0
	mov	rax, QWORD PTR p$[rbp]
	inc	rax
	mov	QWORD PTR p$[rbp], rax
	mov	rax, QWORD PTR p$[rbp]
	mov	BYTE PTR [rax], 0
	mov	rax, QWORD PTR p$[rbp]
	inc	rax
	mov	QWORD PTR p$[rbp], rax
	mov	rax, QWORD PTR p$[rbp]
	mov	BYTE PTR [rax], 0
	mov	rax, QWORD PTR p$[rbp]
	inc	rax
	mov	QWORD PTR p$[rbp], rax
	mov	rax, QWORD PTR p$[rbp]
	mov	BYTE PTR [rax], 0
	mov	rax, QWORD PTR p$[rbp]
	inc	rax
	mov	QWORD PTR p$[rbp], rax

; 1358 :         WRITE_4(0); // creation_time

	mov	rax, QWORD PTR p$[rbp]
	mov	BYTE PTR [rax], 0
	mov	rax, QWORD PTR p$[rbp]
	inc	rax
	mov	QWORD PTR p$[rbp], rax
	mov	rax, QWORD PTR p$[rbp]
	mov	BYTE PTR [rax], 0
	mov	rax, QWORD PTR p$[rbp]
	inc	rax
	mov	QWORD PTR p$[rbp], rax
	mov	rax, QWORD PTR p$[rbp]
	mov	BYTE PTR [rax], 0
	mov	rax, QWORD PTR p$[rbp]
	inc	rax
	mov	QWORD PTR p$[rbp], rax
	mov	rax, QWORD PTR p$[rbp]
	mov	BYTE PTR [rax], 0
	mov	rax, QWORD PTR p$[rbp]
	inc	rax
	mov	QWORD PTR p$[rbp], rax

; 1359 :         WRITE_4(0); // modification_time

	mov	rax, QWORD PTR p$[rbp]
	mov	BYTE PTR [rax], 0
	mov	rax, QWORD PTR p$[rbp]
	inc	rax
	mov	QWORD PTR p$[rbp], rax
	mov	rax, QWORD PTR p$[rbp]
	mov	BYTE PTR [rax], 0
	mov	rax, QWORD PTR p$[rbp]
	inc	rax
	mov	QWORD PTR p$[rbp], rax
	mov	rax, QWORD PTR p$[rbp]
	mov	BYTE PTR [rax], 0
	mov	rax, QWORD PTR p$[rbp]
	inc	rax
	mov	QWORD PTR p$[rbp], rax
	mov	rax, QWORD PTR p$[rbp]
	mov	BYTE PTR [rax], 0
	mov	rax, QWORD PTR p$[rbp]
	inc	rax
	mov	QWORD PTR p$[rbp], rax

; 1360 :         WRITE_4(tr->info.time_scale);

	mov	rax, QWORD PTR tr$8[rbp]
	mov	eax, DWORD PTR [rax+12]
	shr	eax, 24
	mov	rcx, QWORD PTR p$[rbp]
	mov	BYTE PTR [rcx], al
	mov	rax, QWORD PTR p$[rbp]
	inc	rax
	mov	QWORD PTR p$[rbp], rax
	mov	rax, QWORD PTR tr$8[rbp]
	mov	eax, DWORD PTR [rax+12]
	shr	eax, 16
	mov	rcx, QWORD PTR p$[rbp]
	mov	BYTE PTR [rcx], al
	mov	rax, QWORD PTR p$[rbp]
	inc	rax
	mov	QWORD PTR p$[rbp], rax
	mov	rax, QWORD PTR tr$8[rbp]
	mov	eax, DWORD PTR [rax+12]
	shr	eax, 8
	mov	rcx, QWORD PTR p$[rbp]
	mov	BYTE PTR [rcx], al
	mov	rax, QWORD PTR p$[rbp]
	inc	rax
	mov	QWORD PTR p$[rbp], rax
	mov	rax, QWORD PTR p$[rbp]
	mov	rcx, QWORD PTR tr$8[rbp]
	movzx	ecx, BYTE PTR [rcx+12]
	mov	BYTE PTR [rax], cl
	mov	rax, QWORD PTR p$[rbp]
	inc	rax
	mov	QWORD PTR p$[rbp], rax

; 1361 :         WRITE_4(duration); // duration

	mov	eax, DWORD PTR duration$9[rbp]
	shr	eax, 24
	mov	rcx, QWORD PTR p$[rbp]
	mov	BYTE PTR [rcx], al
	mov	rax, QWORD PTR p$[rbp]
	inc	rax
	mov	QWORD PTR p$[rbp], rax
	mov	eax, DWORD PTR duration$9[rbp]
	shr	eax, 16
	mov	rcx, QWORD PTR p$[rbp]
	mov	BYTE PTR [rcx], al
	mov	rax, QWORD PTR p$[rbp]
	inc	rax
	mov	QWORD PTR p$[rbp], rax
	mov	eax, DWORD PTR duration$9[rbp]
	shr	eax, 8
	mov	rcx, QWORD PTR p$[rbp]
	mov	BYTE PTR [rcx], al
	mov	rax, QWORD PTR p$[rbp]
	inc	rax
	mov	QWORD PTR p$[rbp], rax
	mov	rax, QWORD PTR p$[rbp]
	movzx	ecx, BYTE PTR duration$9[rbp]
	mov	BYTE PTR [rax], cl
	mov	rax, QWORD PTR p$[rbp]
	inc	rax
	mov	QWORD PTR p$[rbp], rax

; 1362 :         {
; 1363 :             int lang_code = ((tr->info.language[0] & 31) << 10) | ((tr->info.language[1] & 31) << 5) | (tr->info.language[2] & 31);

	mov	eax, 1
	imul	rax, rax, 0
	mov	rcx, QWORD PTR tr$8[rbp]
	movzx	eax, BYTE PTR [rcx+rax+4]
	and	eax, 31
	shl	eax, 10
	mov	ecx, 1
	imul	rcx, rcx, 1
	mov	rdx, QWORD PTR tr$8[rbp]
	movzx	ecx, BYTE PTR [rdx+rcx+4]
	and	ecx, 31
	shl	ecx, 5
	or	eax, ecx
	mov	ecx, 1
	imul	rcx, rcx, 2
	mov	rdx, QWORD PTR tr$8[rbp]
	movzx	ecx, BYTE PTR [rdx+rcx+4]
	and	ecx, 31
	or	eax, ecx
	mov	DWORD PTR lang_code$14[rbp], eax

; 1364 :             WRITE_2(lang_code); // language

	mov	eax, DWORD PTR lang_code$14[rbp]
	sar	eax, 8
	mov	rcx, QWORD PTR p$[rbp]
	mov	BYTE PTR [rcx], al
	mov	rax, QWORD PTR p$[rbp]
	inc	rax
	mov	QWORD PTR p$[rbp], rax
	mov	rax, QWORD PTR p$[rbp]
	movzx	ecx, BYTE PTR lang_code$14[rbp]
	mov	BYTE PTR [rax], cl
	mov	rax, QWORD PTR p$[rbp]
	inc	rax
	mov	QWORD PTR p$[rbp], rax

; 1365 :         }
; 1366 :         WRITE_2(0); // pre_defined

	mov	rax, QWORD PTR p$[rbp]
	mov	BYTE PTR [rax], 0
	mov	rax, QWORD PTR p$[rbp]
	inc	rax
	mov	QWORD PTR p$[rbp], rax
	mov	rax, QWORD PTR p$[rbp]
	mov	BYTE PTR [rax], 0
	mov	rax, QWORD PTR p$[rbp]
	inc	rax
	mov	QWORD PTR p$[rbp], rax

; 1367 :         END_ATOM;

	mov	rax, QWORD PTR stack$[rbp]
	sub	rax, 8
	mov	QWORD PTR stack$[rbp], rax
	mov	rax, QWORD PTR stack$[rbp]
	mov	rax, QWORD PTR [rax]
	mov	rcx, QWORD PTR p$[rbp]
	sub	rcx, rax
	mov	rax, rcx
	sar	rax, 24
	mov	ecx, 1
	imul	rcx, rcx, 0
	mov	rdx, QWORD PTR stack$[rbp]
	mov	rdx, QWORD PTR [rdx]
	mov	BYTE PTR [rcx+rdx], al
	mov	rax, QWORD PTR stack$[rbp]
	mov	rax, QWORD PTR [rax]
	mov	rcx, QWORD PTR p$[rbp]
	sub	rcx, rax
	mov	rax, rcx
	sar	rax, 16
	mov	ecx, 1
	imul	rcx, rcx, 1
	mov	rdx, QWORD PTR stack$[rbp]
	mov	rdx, QWORD PTR [rdx]
	mov	BYTE PTR [rcx+rdx], al
	mov	rax, QWORD PTR stack$[rbp]
	mov	rax, QWORD PTR [rax]
	mov	rcx, QWORD PTR p$[rbp]
	sub	rcx, rax
	mov	rax, rcx
	sar	rax, 8
	mov	ecx, 1
	imul	rcx, rcx, 2
	mov	rdx, QWORD PTR stack$[rbp]
	mov	rdx, QWORD PTR [rdx]
	mov	BYTE PTR [rcx+rdx], al
	mov	rax, QWORD PTR stack$[rbp]
	mov	rax, QWORD PTR [rax]
	mov	rcx, QWORD PTR p$[rbp]
	sub	rcx, rax
	mov	rax, rcx
	mov	ecx, 1
	imul	rcx, rcx, 3
	mov	rdx, QWORD PTR stack$[rbp]
	mov	rdx, QWORD PTR [rdx]
	mov	BYTE PTR [rcx+rdx], al

; 1368 : 
; 1369 :         ATOM_FULL(BOX_hdlr, 0);

	mov	rax, QWORD PTR stack$[rbp]
	mov	rcx, QWORD PTR p$[rbp]
	mov	QWORD PTR [rax], rcx
	mov	rax, QWORD PTR stack$[rbp]
	add	rax, 8
	mov	QWORD PTR stack$[rbp], rax
	mov	rax, QWORD PTR p$[rbp]
	add	rax, 4
	mov	QWORD PTR p$[rbp], rax
	mov	rax, QWORD PTR p$[rbp]
	mov	BYTE PTR [rax], 104			; 00000068H
	mov	rax, QWORD PTR p$[rbp]
	inc	rax
	mov	QWORD PTR p$[rbp], rax
	mov	rax, QWORD PTR p$[rbp]
	mov	BYTE PTR [rax], 100			; 00000064H
	mov	rax, QWORD PTR p$[rbp]
	inc	rax
	mov	QWORD PTR p$[rbp], rax
	mov	rax, QWORD PTR p$[rbp]
	mov	BYTE PTR [rax], 108			; 0000006cH
	mov	rax, QWORD PTR p$[rbp]
	inc	rax
	mov	QWORD PTR p$[rbp], rax
	mov	rax, QWORD PTR p$[rbp]
	mov	BYTE PTR [rax], 114			; 00000072H
	mov	rax, QWORD PTR p$[rbp]
	inc	rax
	mov	QWORD PTR p$[rbp], rax
	mov	rax, QWORD PTR p$[rbp]
	mov	BYTE PTR [rax], 0
	mov	rax, QWORD PTR p$[rbp]
	inc	rax
	mov	QWORD PTR p$[rbp], rax
	mov	rax, QWORD PTR p$[rbp]
	mov	BYTE PTR [rax], 0
	mov	rax, QWORD PTR p$[rbp]
	inc	rax
	mov	QWORD PTR p$[rbp], rax
	mov	rax, QWORD PTR p$[rbp]
	mov	BYTE PTR [rax], 0
	mov	rax, QWORD PTR p$[rbp]
	inc	rax
	mov	QWORD PTR p$[rbp], rax
	mov	rax, QWORD PTR p$[rbp]
	mov	BYTE PTR [rax], 0
	mov	rax, QWORD PTR p$[rbp]
	inc	rax
	mov	QWORD PTR p$[rbp], rax

; 1370 :         WRITE_4(0); // pre_defined

	mov	rax, QWORD PTR p$[rbp]
	mov	BYTE PTR [rax], 0
	mov	rax, QWORD PTR p$[rbp]
	inc	rax
	mov	QWORD PTR p$[rbp], rax
	mov	rax, QWORD PTR p$[rbp]
	mov	BYTE PTR [rax], 0
	mov	rax, QWORD PTR p$[rbp]
	inc	rax
	mov	QWORD PTR p$[rbp], rax
	mov	rax, QWORD PTR p$[rbp]
	mov	BYTE PTR [rax], 0
	mov	rax, QWORD PTR p$[rbp]
	inc	rax
	mov	QWORD PTR p$[rbp], rax
	mov	rax, QWORD PTR p$[rbp]
	mov	BYTE PTR [rax], 0
	mov	rax, QWORD PTR p$[rbp]
	inc	rax
	mov	QWORD PTR p$[rbp], rax

; 1371 :         WRITE_4(handler_type); // handler_type

	mov	eax, DWORD PTR handler_type$12[rbp]
	shr	eax, 24
	mov	rcx, QWORD PTR p$[rbp]
	mov	BYTE PTR [rcx], al
	mov	rax, QWORD PTR p$[rbp]
	inc	rax
	mov	QWORD PTR p$[rbp], rax
	mov	eax, DWORD PTR handler_type$12[rbp]
	shr	eax, 16
	mov	rcx, QWORD PTR p$[rbp]
	mov	BYTE PTR [rcx], al
	mov	rax, QWORD PTR p$[rbp]
	inc	rax
	mov	QWORD PTR p$[rbp], rax
	mov	eax, DWORD PTR handler_type$12[rbp]
	shr	eax, 8
	mov	rcx, QWORD PTR p$[rbp]
	mov	BYTE PTR [rcx], al
	mov	rax, QWORD PTR p$[rbp]
	inc	rax
	mov	QWORD PTR p$[rbp], rax
	mov	rax, QWORD PTR p$[rbp]
	movzx	ecx, BYTE PTR handler_type$12[rbp]
	mov	BYTE PTR [rax], cl
	mov	rax, QWORD PTR p$[rbp]
	inc	rax
	mov	QWORD PTR p$[rbp], rax

; 1372 :         WRITE_4(0); WRITE_4(0); WRITE_4(0); // reserved[3]

	mov	rax, QWORD PTR p$[rbp]
	mov	BYTE PTR [rax], 0
	mov	rax, QWORD PTR p$[rbp]
	inc	rax
	mov	QWORD PTR p$[rbp], rax
	mov	rax, QWORD PTR p$[rbp]
	mov	BYTE PTR [rax], 0
	mov	rax, QWORD PTR p$[rbp]
	inc	rax
	mov	QWORD PTR p$[rbp], rax
	mov	rax, QWORD PTR p$[rbp]
	mov	BYTE PTR [rax], 0
	mov	rax, QWORD PTR p$[rbp]
	inc	rax
	mov	QWORD PTR p$[rbp], rax
	mov	rax, QWORD PTR p$[rbp]
	mov	BYTE PTR [rax], 0
	mov	rax, QWORD PTR p$[rbp]
	inc	rax
	mov	QWORD PTR p$[rbp], rax
	mov	rax, QWORD PTR p$[rbp]
	mov	BYTE PTR [rax], 0
	mov	rax, QWORD PTR p$[rbp]
	inc	rax
	mov	QWORD PTR p$[rbp], rax
	mov	rax, QWORD PTR p$[rbp]
	mov	BYTE PTR [rax], 0
	mov	rax, QWORD PTR p$[rbp]
	inc	rax
	mov	QWORD PTR p$[rbp], rax
	mov	rax, QWORD PTR p$[rbp]
	mov	BYTE PTR [rax], 0
	mov	rax, QWORD PTR p$[rbp]
	inc	rax
	mov	QWORD PTR p$[rbp], rax
	mov	rax, QWORD PTR p$[rbp]
	mov	BYTE PTR [rax], 0
	mov	rax, QWORD PTR p$[rbp]
	inc	rax
	mov	QWORD PTR p$[rbp], rax
	mov	rax, QWORD PTR p$[rbp]
	mov	BYTE PTR [rax], 0
	mov	rax, QWORD PTR p$[rbp]
	inc	rax
	mov	QWORD PTR p$[rbp], rax
	mov	rax, QWORD PTR p$[rbp]
	mov	BYTE PTR [rax], 0
	mov	rax, QWORD PTR p$[rbp]
	inc	rax
	mov	QWORD PTR p$[rbp], rax
	mov	rax, QWORD PTR p$[rbp]
	mov	BYTE PTR [rax], 0
	mov	rax, QWORD PTR p$[rbp]
	inc	rax
	mov	QWORD PTR p$[rbp], rax
	mov	rax, QWORD PTR p$[rbp]
	mov	BYTE PTR [rax], 0
	mov	rax, QWORD PTR p$[rbp]
	inc	rax
	mov	QWORD PTR p$[rbp], rax

; 1373 :         // name is a null-terminated string in UTF-8 characters which gives a human-readable name for the track type (for debugging and inspection purposes).
; 1374 :         // set mdia hdlr name field to what quicktime uses.
; 1375 :         // Sony smartphone may fail to decode short files w/o handler name
; 1376 :         if (handler_ascii)

	cmp	QWORD PTR handler_ascii$13[rbp], 0
	je	SHORT $LN85@mp4e_flush

; 1377 :         {
; 1378 :             for (i = 0; i < (int)strlen(handler_ascii) + 1; i++)

	mov	DWORD PTR i$[rbp], 0
	jmp	SHORT $LN12@mp4e_flush
$LN10@mp4e_flush:
	mov	eax, DWORD PTR i$[rbp]
	inc	eax
	mov	DWORD PTR i$[rbp], eax
$LN12@mp4e_flush:
	mov	rcx, QWORD PTR handler_ascii$13[rbp]
	call	strlen
	inc	eax
	cmp	DWORD PTR i$[rbp], eax
	jge	SHORT $LN11@mp4e_flush

; 1379 :             {
; 1380 :                 WRITE_1(handler_ascii[i]);

	movsxd	rax, DWORD PTR i$[rbp]
	mov	rcx, QWORD PTR p$[rbp]
	mov	rdx, QWORD PTR handler_ascii$13[rbp]
	movzx	eax, BYTE PTR [rdx+rax]
	mov	BYTE PTR [rcx], al
	mov	rax, QWORD PTR p$[rbp]
	inc	rax
	mov	QWORD PTR p$[rbp], rax

; 1381 :             }

	jmp	SHORT $LN10@mp4e_flush
$LN11@mp4e_flush:

; 1382 :         }

	jmp	SHORT $LN86@mp4e_flush
$LN85@mp4e_flush:

; 1383 :         else
; 1384 :         {
; 1385 :             WRITE_4(0);

	mov	rax, QWORD PTR p$[rbp]
	mov	BYTE PTR [rax], 0
	mov	rax, QWORD PTR p$[rbp]
	inc	rax
	mov	QWORD PTR p$[rbp], rax
	mov	rax, QWORD PTR p$[rbp]
	mov	BYTE PTR [rax], 0
	mov	rax, QWORD PTR p$[rbp]
	inc	rax
	mov	QWORD PTR p$[rbp], rax
	mov	rax, QWORD PTR p$[rbp]
	mov	BYTE PTR [rax], 0
	mov	rax, QWORD PTR p$[rbp]
	inc	rax
	mov	QWORD PTR p$[rbp], rax
	mov	rax, QWORD PTR p$[rbp]
	mov	BYTE PTR [rax], 0
	mov	rax, QWORD PTR p$[rbp]
	inc	rax
	mov	QWORD PTR p$[rbp], rax
$LN86@mp4e_flush:

; 1386 :         }
; 1387 :         END_ATOM;

	mov	rax, QWORD PTR stack$[rbp]
	sub	rax, 8
	mov	QWORD PTR stack$[rbp], rax
	mov	rax, QWORD PTR stack$[rbp]
	mov	rax, QWORD PTR [rax]
	mov	rcx, QWORD PTR p$[rbp]
	sub	rcx, rax
	mov	rax, rcx
	sar	rax, 24
	mov	ecx, 1
	imul	rcx, rcx, 0
	mov	rdx, QWORD PTR stack$[rbp]
	mov	rdx, QWORD PTR [rdx]
	mov	BYTE PTR [rcx+rdx], al
	mov	rax, QWORD PTR stack$[rbp]
	mov	rax, QWORD PTR [rax]
	mov	rcx, QWORD PTR p$[rbp]
	sub	rcx, rax
	mov	rax, rcx
	sar	rax, 16
	mov	ecx, 1
	imul	rcx, rcx, 1
	mov	rdx, QWORD PTR stack$[rbp]
	mov	rdx, QWORD PTR [rdx]
	mov	BYTE PTR [rcx+rdx], al
	mov	rax, QWORD PTR stack$[rbp]
	mov	rax, QWORD PTR [rax]
	mov	rcx, QWORD PTR p$[rbp]
	sub	rcx, rax
	mov	rax, rcx
	sar	rax, 8
	mov	ecx, 1
	imul	rcx, rcx, 2
	mov	rdx, QWORD PTR stack$[rbp]
	mov	rdx, QWORD PTR [rdx]
	mov	BYTE PTR [rcx+rdx], al
	mov	rax, QWORD PTR stack$[rbp]
	mov	rax, QWORD PTR [rax]
	mov	rcx, QWORD PTR p$[rbp]
	sub	rcx, rax
	mov	rax, rcx
	mov	ecx, 1
	imul	rcx, rcx, 3
	mov	rdx, QWORD PTR stack$[rbp]
	mov	rdx, QWORD PTR [rdx]
	mov	BYTE PTR [rcx+rdx], al

; 1388 : 
; 1389 :         ATOM(BOX_minf);

	mov	rax, QWORD PTR stack$[rbp]
	mov	rcx, QWORD PTR p$[rbp]
	mov	QWORD PTR [rax], rcx
	mov	rax, QWORD PTR stack$[rbp]
	add	rax, 8
	mov	QWORD PTR stack$[rbp], rax
	mov	rax, QWORD PTR p$[rbp]
	add	rax, 4
	mov	QWORD PTR p$[rbp], rax
	mov	rax, QWORD PTR p$[rbp]
	mov	BYTE PTR [rax], 109			; 0000006dH
	mov	rax, QWORD PTR p$[rbp]
	inc	rax
	mov	QWORD PTR p$[rbp], rax
	mov	rax, QWORD PTR p$[rbp]
	mov	BYTE PTR [rax], 105			; 00000069H
	mov	rax, QWORD PTR p$[rbp]
	inc	rax
	mov	QWORD PTR p$[rbp], rax
	mov	rax, QWORD PTR p$[rbp]
	mov	BYTE PTR [rax], 110			; 0000006eH
	mov	rax, QWORD PTR p$[rbp]
	inc	rax
	mov	QWORD PTR p$[rbp], rax
	mov	rax, QWORD PTR p$[rbp]
	mov	BYTE PTR [rax], 102			; 00000066H
	mov	rax, QWORD PTR p$[rbp]
	inc	rax
	mov	QWORD PTR p$[rbp], rax

; 1390 : 
; 1391 :         if (tr->info.track_media_kind == e_audio)

	mov	rax, QWORD PTR tr$8[rbp]
	cmp	DWORD PTR [rax+8], 0
	jne	$LN87@mp4e_flush

; 1392 :         {
; 1393 :             // Sound Media Header Box
; 1394 :             ATOM_FULL(BOX_smhd, 0);

	mov	rax, QWORD PTR stack$[rbp]
	mov	rcx, QWORD PTR p$[rbp]
	mov	QWORD PTR [rax], rcx
	mov	rax, QWORD PTR stack$[rbp]
	add	rax, 8
	mov	QWORD PTR stack$[rbp], rax
	mov	rax, QWORD PTR p$[rbp]
	add	rax, 4
	mov	QWORD PTR p$[rbp], rax
	mov	rax, QWORD PTR p$[rbp]
	mov	BYTE PTR [rax], 115			; 00000073H
	mov	rax, QWORD PTR p$[rbp]
	inc	rax
	mov	QWORD PTR p$[rbp], rax
	mov	rax, QWORD PTR p$[rbp]
	mov	BYTE PTR [rax], 109			; 0000006dH
	mov	rax, QWORD PTR p$[rbp]
	inc	rax
	mov	QWORD PTR p$[rbp], rax
	mov	rax, QWORD PTR p$[rbp]
	mov	BYTE PTR [rax], 104			; 00000068H
	mov	rax, QWORD PTR p$[rbp]
	inc	rax
	mov	QWORD PTR p$[rbp], rax
	mov	rax, QWORD PTR p$[rbp]
	mov	BYTE PTR [rax], 100			; 00000064H
	mov	rax, QWORD PTR p$[rbp]
	inc	rax
	mov	QWORD PTR p$[rbp], rax
	mov	rax, QWORD PTR p$[rbp]
	mov	BYTE PTR [rax], 0
	mov	rax, QWORD PTR p$[rbp]
	inc	rax
	mov	QWORD PTR p$[rbp], rax
	mov	rax, QWORD PTR p$[rbp]
	mov	BYTE PTR [rax], 0
	mov	rax, QWORD PTR p$[rbp]
	inc	rax
	mov	QWORD PTR p$[rbp], rax
	mov	rax, QWORD PTR p$[rbp]
	mov	BYTE PTR [rax], 0
	mov	rax, QWORD PTR p$[rbp]
	inc	rax
	mov	QWORD PTR p$[rbp], rax
	mov	rax, QWORD PTR p$[rbp]
	mov	BYTE PTR [rax], 0
	mov	rax, QWORD PTR p$[rbp]
	inc	rax
	mov	QWORD PTR p$[rbp], rax

; 1395 :             WRITE_2(0);   // balance

	mov	rax, QWORD PTR p$[rbp]
	mov	BYTE PTR [rax], 0
	mov	rax, QWORD PTR p$[rbp]
	inc	rax
	mov	QWORD PTR p$[rbp], rax
	mov	rax, QWORD PTR p$[rbp]
	mov	BYTE PTR [rax], 0
	mov	rax, QWORD PTR p$[rbp]
	inc	rax
	mov	QWORD PTR p$[rbp], rax

; 1396 :             WRITE_2(0);   // reserved

	mov	rax, QWORD PTR p$[rbp]
	mov	BYTE PTR [rax], 0
	mov	rax, QWORD PTR p$[rbp]
	inc	rax
	mov	QWORD PTR p$[rbp], rax
	mov	rax, QWORD PTR p$[rbp]
	mov	BYTE PTR [rax], 0
	mov	rax, QWORD PTR p$[rbp]
	inc	rax
	mov	QWORD PTR p$[rbp], rax

; 1397 :             END_ATOM;

	mov	rax, QWORD PTR stack$[rbp]
	sub	rax, 8
	mov	QWORD PTR stack$[rbp], rax
	mov	rax, QWORD PTR stack$[rbp]
	mov	rax, QWORD PTR [rax]
	mov	rcx, QWORD PTR p$[rbp]
	sub	rcx, rax
	mov	rax, rcx
	sar	rax, 24
	mov	ecx, 1
	imul	rcx, rcx, 0
	mov	rdx, QWORD PTR stack$[rbp]
	mov	rdx, QWORD PTR [rdx]
	mov	BYTE PTR [rcx+rdx], al
	mov	rax, QWORD PTR stack$[rbp]
	mov	rax, QWORD PTR [rax]
	mov	rcx, QWORD PTR p$[rbp]
	sub	rcx, rax
	mov	rax, rcx
	sar	rax, 16
	mov	ecx, 1
	imul	rcx, rcx, 1
	mov	rdx, QWORD PTR stack$[rbp]
	mov	rdx, QWORD PTR [rdx]
	mov	BYTE PTR [rcx+rdx], al
	mov	rax, QWORD PTR stack$[rbp]
	mov	rax, QWORD PTR [rax]
	mov	rcx, QWORD PTR p$[rbp]
	sub	rcx, rax
	mov	rax, rcx
	sar	rax, 8
	mov	ecx, 1
	imul	rcx, rcx, 2
	mov	rdx, QWORD PTR stack$[rbp]
	mov	rdx, QWORD PTR [rdx]
	mov	BYTE PTR [rcx+rdx], al
	mov	rax, QWORD PTR stack$[rbp]
	mov	rax, QWORD PTR [rax]
	mov	rcx, QWORD PTR p$[rbp]
	sub	rcx, rax
	mov	rax, rcx
	mov	ecx, 1
	imul	rcx, rcx, 3
	mov	rdx, QWORD PTR stack$[rbp]
	mov	rdx, QWORD PTR [rdx]
	mov	BYTE PTR [rcx+rdx], al
$LN87@mp4e_flush:

; 1398 :         }
; 1399 :         if (tr->info.track_media_kind == e_video)

	mov	rax, QWORD PTR tr$8[rbp]
	cmp	DWORD PTR [rax+8], 1
	jne	$LN88@mp4e_flush

; 1400 :         {
; 1401 :             // mandatory Video Media Header Box
; 1402 :             ATOM_FULL(BOX_vmhd, 1);

	mov	rax, QWORD PTR stack$[rbp]
	mov	rcx, QWORD PTR p$[rbp]
	mov	QWORD PTR [rax], rcx
	mov	rax, QWORD PTR stack$[rbp]
	add	rax, 8
	mov	QWORD PTR stack$[rbp], rax
	mov	rax, QWORD PTR p$[rbp]
	add	rax, 4
	mov	QWORD PTR p$[rbp], rax
	mov	rax, QWORD PTR p$[rbp]
	mov	BYTE PTR [rax], 118			; 00000076H
	mov	rax, QWORD PTR p$[rbp]
	inc	rax
	mov	QWORD PTR p$[rbp], rax
	mov	rax, QWORD PTR p$[rbp]
	mov	BYTE PTR [rax], 109			; 0000006dH
	mov	rax, QWORD PTR p$[rbp]
	inc	rax
	mov	QWORD PTR p$[rbp], rax
	mov	rax, QWORD PTR p$[rbp]
	mov	BYTE PTR [rax], 104			; 00000068H
	mov	rax, QWORD PTR p$[rbp]
	inc	rax
	mov	QWORD PTR p$[rbp], rax
	mov	rax, QWORD PTR p$[rbp]
	mov	BYTE PTR [rax], 100			; 00000064H
	mov	rax, QWORD PTR p$[rbp]
	inc	rax
	mov	QWORD PTR p$[rbp], rax
	mov	rax, QWORD PTR p$[rbp]
	mov	BYTE PTR [rax], 0
	mov	rax, QWORD PTR p$[rbp]
	inc	rax
	mov	QWORD PTR p$[rbp], rax
	mov	rax, QWORD PTR p$[rbp]
	mov	BYTE PTR [rax], 0
	mov	rax, QWORD PTR p$[rbp]
	inc	rax
	mov	QWORD PTR p$[rbp], rax
	mov	rax, QWORD PTR p$[rbp]
	mov	BYTE PTR [rax], 0
	mov	rax, QWORD PTR p$[rbp]
	inc	rax
	mov	QWORD PTR p$[rbp], rax
	mov	rax, QWORD PTR p$[rbp]
	mov	BYTE PTR [rax], 1
	mov	rax, QWORD PTR p$[rbp]
	inc	rax
	mov	QWORD PTR p$[rbp], rax

; 1403 :             WRITE_2(0); // graphicsmode

	mov	rax, QWORD PTR p$[rbp]
	mov	BYTE PTR [rax], 0
	mov	rax, QWORD PTR p$[rbp]
	inc	rax
	mov	QWORD PTR p$[rbp], rax
	mov	rax, QWORD PTR p$[rbp]
	mov	BYTE PTR [rax], 0
	mov	rax, QWORD PTR p$[rbp]
	inc	rax
	mov	QWORD PTR p$[rbp], rax

; 1404 :             WRITE_2(0); WRITE_2(0); WRITE_2(0); // opcolor[3]

	mov	rax, QWORD PTR p$[rbp]
	mov	BYTE PTR [rax], 0
	mov	rax, QWORD PTR p$[rbp]
	inc	rax
	mov	QWORD PTR p$[rbp], rax
	mov	rax, QWORD PTR p$[rbp]
	mov	BYTE PTR [rax], 0
	mov	rax, QWORD PTR p$[rbp]
	inc	rax
	mov	QWORD PTR p$[rbp], rax
	mov	rax, QWORD PTR p$[rbp]
	mov	BYTE PTR [rax], 0
	mov	rax, QWORD PTR p$[rbp]
	inc	rax
	mov	QWORD PTR p$[rbp], rax
	mov	rax, QWORD PTR p$[rbp]
	mov	BYTE PTR [rax], 0
	mov	rax, QWORD PTR p$[rbp]
	inc	rax
	mov	QWORD PTR p$[rbp], rax
	mov	rax, QWORD PTR p$[rbp]
	mov	BYTE PTR [rax], 0
	mov	rax, QWORD PTR p$[rbp]
	inc	rax
	mov	QWORD PTR p$[rbp], rax
	mov	rax, QWORD PTR p$[rbp]
	mov	BYTE PTR [rax], 0
	mov	rax, QWORD PTR p$[rbp]
	inc	rax
	mov	QWORD PTR p$[rbp], rax

; 1405 :             END_ATOM;

	mov	rax, QWORD PTR stack$[rbp]
	sub	rax, 8
	mov	QWORD PTR stack$[rbp], rax
	mov	rax, QWORD PTR stack$[rbp]
	mov	rax, QWORD PTR [rax]
	mov	rcx, QWORD PTR p$[rbp]
	sub	rcx, rax
	mov	rax, rcx
	sar	rax, 24
	mov	ecx, 1
	imul	rcx, rcx, 0
	mov	rdx, QWORD PTR stack$[rbp]
	mov	rdx, QWORD PTR [rdx]
	mov	BYTE PTR [rcx+rdx], al
	mov	rax, QWORD PTR stack$[rbp]
	mov	rax, QWORD PTR [rax]
	mov	rcx, QWORD PTR p$[rbp]
	sub	rcx, rax
	mov	rax, rcx
	sar	rax, 16
	mov	ecx, 1
	imul	rcx, rcx, 1
	mov	rdx, QWORD PTR stack$[rbp]
	mov	rdx, QWORD PTR [rdx]
	mov	BYTE PTR [rcx+rdx], al
	mov	rax, QWORD PTR stack$[rbp]
	mov	rax, QWORD PTR [rax]
	mov	rcx, QWORD PTR p$[rbp]
	sub	rcx, rax
	mov	rax, rcx
	sar	rax, 8
	mov	ecx, 1
	imul	rcx, rcx, 2
	mov	rdx, QWORD PTR stack$[rbp]
	mov	rdx, QWORD PTR [rdx]
	mov	BYTE PTR [rcx+rdx], al
	mov	rax, QWORD PTR stack$[rbp]
	mov	rax, QWORD PTR [rax]
	mov	rcx, QWORD PTR p$[rbp]
	sub	rcx, rax
	mov	rax, rcx
	mov	ecx, 1
	imul	rcx, rcx, 3
	mov	rdx, QWORD PTR stack$[rbp]
	mov	rdx, QWORD PTR [rdx]
	mov	BYTE PTR [rcx+rdx], al
$LN88@mp4e_flush:

; 1406 :         }
; 1407 : 
; 1408 :         ATOM(BOX_dinf);

	mov	rax, QWORD PTR stack$[rbp]
	mov	rcx, QWORD PTR p$[rbp]
	mov	QWORD PTR [rax], rcx
	mov	rax, QWORD PTR stack$[rbp]
	add	rax, 8
	mov	QWORD PTR stack$[rbp], rax
	mov	rax, QWORD PTR p$[rbp]
	add	rax, 4
	mov	QWORD PTR p$[rbp], rax
	mov	rax, QWORD PTR p$[rbp]
	mov	BYTE PTR [rax], 100			; 00000064H
	mov	rax, QWORD PTR p$[rbp]
	inc	rax
	mov	QWORD PTR p$[rbp], rax
	mov	rax, QWORD PTR p$[rbp]
	mov	BYTE PTR [rax], 105			; 00000069H
	mov	rax, QWORD PTR p$[rbp]
	inc	rax
	mov	QWORD PTR p$[rbp], rax
	mov	rax, QWORD PTR p$[rbp]
	mov	BYTE PTR [rax], 110			; 0000006eH
	mov	rax, QWORD PTR p$[rbp]
	inc	rax
	mov	QWORD PTR p$[rbp], rax
	mov	rax, QWORD PTR p$[rbp]
	mov	BYTE PTR [rax], 102			; 00000066H
	mov	rax, QWORD PTR p$[rbp]
	inc	rax
	mov	QWORD PTR p$[rbp], rax

; 1409 :         ATOM_FULL(BOX_dref, 0);

	mov	rax, QWORD PTR stack$[rbp]
	mov	rcx, QWORD PTR p$[rbp]
	mov	QWORD PTR [rax], rcx
	mov	rax, QWORD PTR stack$[rbp]
	add	rax, 8
	mov	QWORD PTR stack$[rbp], rax
	mov	rax, QWORD PTR p$[rbp]
	add	rax, 4
	mov	QWORD PTR p$[rbp], rax
	mov	rax, QWORD PTR p$[rbp]
	mov	BYTE PTR [rax], 100			; 00000064H
	mov	rax, QWORD PTR p$[rbp]
	inc	rax
	mov	QWORD PTR p$[rbp], rax
	mov	rax, QWORD PTR p$[rbp]
	mov	BYTE PTR [rax], 114			; 00000072H
	mov	rax, QWORD PTR p$[rbp]
	inc	rax
	mov	QWORD PTR p$[rbp], rax
	mov	rax, QWORD PTR p$[rbp]
	mov	BYTE PTR [rax], 101			; 00000065H
	mov	rax, QWORD PTR p$[rbp]
	inc	rax
	mov	QWORD PTR p$[rbp], rax
	mov	rax, QWORD PTR p$[rbp]
	mov	BYTE PTR [rax], 102			; 00000066H
	mov	rax, QWORD PTR p$[rbp]
	inc	rax
	mov	QWORD PTR p$[rbp], rax
	mov	rax, QWORD PTR p$[rbp]
	mov	BYTE PTR [rax], 0
	mov	rax, QWORD PTR p$[rbp]
	inc	rax
	mov	QWORD PTR p$[rbp], rax
	mov	rax, QWORD PTR p$[rbp]
	mov	BYTE PTR [rax], 0
	mov	rax, QWORD PTR p$[rbp]
	inc	rax
	mov	QWORD PTR p$[rbp], rax
	mov	rax, QWORD PTR p$[rbp]
	mov	BYTE PTR [rax], 0
	mov	rax, QWORD PTR p$[rbp]
	inc	rax
	mov	QWORD PTR p$[rbp], rax
	mov	rax, QWORD PTR p$[rbp]
	mov	BYTE PTR [rax], 0
	mov	rax, QWORD PTR p$[rbp]
	inc	rax
	mov	QWORD PTR p$[rbp], rax

; 1410 :         WRITE_4(1); // entry_count

	mov	rax, QWORD PTR p$[rbp]
	mov	BYTE PTR [rax], 0
	mov	rax, QWORD PTR p$[rbp]
	inc	rax
	mov	QWORD PTR p$[rbp], rax
	mov	rax, QWORD PTR p$[rbp]
	mov	BYTE PTR [rax], 0
	mov	rax, QWORD PTR p$[rbp]
	inc	rax
	mov	QWORD PTR p$[rbp], rax
	mov	rax, QWORD PTR p$[rbp]
	mov	BYTE PTR [rax], 0
	mov	rax, QWORD PTR p$[rbp]
	inc	rax
	mov	QWORD PTR p$[rbp], rax
	mov	rax, QWORD PTR p$[rbp]
	mov	BYTE PTR [rax], 1
	mov	rax, QWORD PTR p$[rbp]
	inc	rax
	mov	QWORD PTR p$[rbp], rax

; 1411 :             // If the flag is set indicating that the data is in the same file as this box, then no string (not even an empty one)
; 1412 :             // shall be supplied in the entry field.
; 1413 : 
; 1414 :             // ASP the correct way to avoid supply the string, is to use flag 1
; 1415 :             // otherwise ISO reference demux crashes
; 1416 :         ATOM_FULL(BOX_url, 1);

	mov	rax, QWORD PTR stack$[rbp]
	mov	rcx, QWORD PTR p$[rbp]
	mov	QWORD PTR [rax], rcx
	mov	rax, QWORD PTR stack$[rbp]
	add	rax, 8
	mov	QWORD PTR stack$[rbp], rax
	mov	rax, QWORD PTR p$[rbp]
	add	rax, 4
	mov	QWORD PTR p$[rbp], rax
	mov	rax, QWORD PTR p$[rbp]
	mov	BYTE PTR [rax], 117			; 00000075H
	mov	rax, QWORD PTR p$[rbp]
	inc	rax
	mov	QWORD PTR p$[rbp], rax
	mov	rax, QWORD PTR p$[rbp]
	mov	BYTE PTR [rax], 114			; 00000072H
	mov	rax, QWORD PTR p$[rbp]
	inc	rax
	mov	QWORD PTR p$[rbp], rax
	mov	rax, QWORD PTR p$[rbp]
	mov	BYTE PTR [rax], 108			; 0000006cH
	mov	rax, QWORD PTR p$[rbp]
	inc	rax
	mov	QWORD PTR p$[rbp], rax
	mov	rax, QWORD PTR p$[rbp]
	mov	BYTE PTR [rax], 32			; 00000020H
	mov	rax, QWORD PTR p$[rbp]
	inc	rax
	mov	QWORD PTR p$[rbp], rax
	mov	rax, QWORD PTR p$[rbp]
	mov	BYTE PTR [rax], 0
	mov	rax, QWORD PTR p$[rbp]
	inc	rax
	mov	QWORD PTR p$[rbp], rax
	mov	rax, QWORD PTR p$[rbp]
	mov	BYTE PTR [rax], 0
	mov	rax, QWORD PTR p$[rbp]
	inc	rax
	mov	QWORD PTR p$[rbp], rax
	mov	rax, QWORD PTR p$[rbp]
	mov	BYTE PTR [rax], 0
	mov	rax, QWORD PTR p$[rbp]
	inc	rax
	mov	QWORD PTR p$[rbp], rax
	mov	rax, QWORD PTR p$[rbp]
	mov	BYTE PTR [rax], 1
	mov	rax, QWORD PTR p$[rbp]
	inc	rax
	mov	QWORD PTR p$[rbp], rax

; 1417 :         END_ATOM;

	mov	rax, QWORD PTR stack$[rbp]
	sub	rax, 8
	mov	QWORD PTR stack$[rbp], rax
	mov	rax, QWORD PTR stack$[rbp]
	mov	rax, QWORD PTR [rax]
	mov	rcx, QWORD PTR p$[rbp]
	sub	rcx, rax
	mov	rax, rcx
	sar	rax, 24
	mov	ecx, 1
	imul	rcx, rcx, 0
	mov	rdx, QWORD PTR stack$[rbp]
	mov	rdx, QWORD PTR [rdx]
	mov	BYTE PTR [rcx+rdx], al
	mov	rax, QWORD PTR stack$[rbp]
	mov	rax, QWORD PTR [rax]
	mov	rcx, QWORD PTR p$[rbp]
	sub	rcx, rax
	mov	rax, rcx
	sar	rax, 16
	mov	ecx, 1
	imul	rcx, rcx, 1
	mov	rdx, QWORD PTR stack$[rbp]
	mov	rdx, QWORD PTR [rdx]
	mov	BYTE PTR [rcx+rdx], al
	mov	rax, QWORD PTR stack$[rbp]
	mov	rax, QWORD PTR [rax]
	mov	rcx, QWORD PTR p$[rbp]
	sub	rcx, rax
	mov	rax, rcx
	sar	rax, 8
	mov	ecx, 1
	imul	rcx, rcx, 2
	mov	rdx, QWORD PTR stack$[rbp]
	mov	rdx, QWORD PTR [rdx]
	mov	BYTE PTR [rcx+rdx], al
	mov	rax, QWORD PTR stack$[rbp]
	mov	rax, QWORD PTR [rax]
	mov	rcx, QWORD PTR p$[rbp]
	sub	rcx, rax
	mov	rax, rcx
	mov	ecx, 1
	imul	rcx, rcx, 3
	mov	rdx, QWORD PTR stack$[rbp]
	mov	rdx, QWORD PTR [rdx]
	mov	BYTE PTR [rcx+rdx], al

; 1418 :         END_ATOM;

	mov	rax, QWORD PTR stack$[rbp]
	sub	rax, 8
	mov	QWORD PTR stack$[rbp], rax
	mov	rax, QWORD PTR stack$[rbp]
	mov	rax, QWORD PTR [rax]
	mov	rcx, QWORD PTR p$[rbp]
	sub	rcx, rax
	mov	rax, rcx
	sar	rax, 24
	mov	ecx, 1
	imul	rcx, rcx, 0
	mov	rdx, QWORD PTR stack$[rbp]
	mov	rdx, QWORD PTR [rdx]
	mov	BYTE PTR [rcx+rdx], al
	mov	rax, QWORD PTR stack$[rbp]
	mov	rax, QWORD PTR [rax]
	mov	rcx, QWORD PTR p$[rbp]
	sub	rcx, rax
	mov	rax, rcx
	sar	rax, 16
	mov	ecx, 1
	imul	rcx, rcx, 1
	mov	rdx, QWORD PTR stack$[rbp]
	mov	rdx, QWORD PTR [rdx]
	mov	BYTE PTR [rcx+rdx], al
	mov	rax, QWORD PTR stack$[rbp]
	mov	rax, QWORD PTR [rax]
	mov	rcx, QWORD PTR p$[rbp]
	sub	rcx, rax
	mov	rax, rcx
	sar	rax, 8
	mov	ecx, 1
	imul	rcx, rcx, 2
	mov	rdx, QWORD PTR stack$[rbp]
	mov	rdx, QWORD PTR [rdx]
	mov	BYTE PTR [rcx+rdx], al
	mov	rax, QWORD PTR stack$[rbp]
	mov	rax, QWORD PTR [rax]
	mov	rcx, QWORD PTR p$[rbp]
	sub	rcx, rax
	mov	rax, rcx
	mov	ecx, 1
	imul	rcx, rcx, 3
	mov	rdx, QWORD PTR stack$[rbp]
	mov	rdx, QWORD PTR [rdx]
	mov	BYTE PTR [rcx+rdx], al

; 1419 :         END_ATOM;

	mov	rax, QWORD PTR stack$[rbp]
	sub	rax, 8
	mov	QWORD PTR stack$[rbp], rax
	mov	rax, QWORD PTR stack$[rbp]
	mov	rax, QWORD PTR [rax]
	mov	rcx, QWORD PTR p$[rbp]
	sub	rcx, rax
	mov	rax, rcx
	sar	rax, 24
	mov	ecx, 1
	imul	rcx, rcx, 0
	mov	rdx, QWORD PTR stack$[rbp]
	mov	rdx, QWORD PTR [rdx]
	mov	BYTE PTR [rcx+rdx], al
	mov	rax, QWORD PTR stack$[rbp]
	mov	rax, QWORD PTR [rax]
	mov	rcx, QWORD PTR p$[rbp]
	sub	rcx, rax
	mov	rax, rcx
	sar	rax, 16
	mov	ecx, 1
	imul	rcx, rcx, 1
	mov	rdx, QWORD PTR stack$[rbp]
	mov	rdx, QWORD PTR [rdx]
	mov	BYTE PTR [rcx+rdx], al
	mov	rax, QWORD PTR stack$[rbp]
	mov	rax, QWORD PTR [rax]
	mov	rcx, QWORD PTR p$[rbp]
	sub	rcx, rax
	mov	rax, rcx
	sar	rax, 8
	mov	ecx, 1
	imul	rcx, rcx, 2
	mov	rdx, QWORD PTR stack$[rbp]
	mov	rdx, QWORD PTR [rdx]
	mov	BYTE PTR [rcx+rdx], al
	mov	rax, QWORD PTR stack$[rbp]
	mov	rax, QWORD PTR [rax]
	mov	rcx, QWORD PTR p$[rbp]
	sub	rcx, rax
	mov	rax, rcx
	mov	ecx, 1
	imul	rcx, rcx, 3
	mov	rdx, QWORD PTR stack$[rbp]
	mov	rdx, QWORD PTR [rdx]
	mov	BYTE PTR [rcx+rdx], al

; 1420 : 
; 1421 :         ATOM(BOX_stbl);

	mov	rax, QWORD PTR stack$[rbp]
	mov	rcx, QWORD PTR p$[rbp]
	mov	QWORD PTR [rax], rcx
	mov	rax, QWORD PTR stack$[rbp]
	add	rax, 8
	mov	QWORD PTR stack$[rbp], rax
	mov	rax, QWORD PTR p$[rbp]
	add	rax, 4
	mov	QWORD PTR p$[rbp], rax
	mov	rax, QWORD PTR p$[rbp]
	mov	BYTE PTR [rax], 115			; 00000073H
	mov	rax, QWORD PTR p$[rbp]
	inc	rax
	mov	QWORD PTR p$[rbp], rax
	mov	rax, QWORD PTR p$[rbp]
	mov	BYTE PTR [rax], 116			; 00000074H
	mov	rax, QWORD PTR p$[rbp]
	inc	rax
	mov	QWORD PTR p$[rbp], rax
	mov	rax, QWORD PTR p$[rbp]
	mov	BYTE PTR [rax], 98			; 00000062H
	mov	rax, QWORD PTR p$[rbp]
	inc	rax
	mov	QWORD PTR p$[rbp], rax
	mov	rax, QWORD PTR p$[rbp]
	mov	BYTE PTR [rax], 108			; 0000006cH
	mov	rax, QWORD PTR p$[rbp]
	inc	rax
	mov	QWORD PTR p$[rbp], rax

; 1422 :         ATOM_FULL(BOX_stsd, 0);

	mov	rax, QWORD PTR stack$[rbp]
	mov	rcx, QWORD PTR p$[rbp]
	mov	QWORD PTR [rax], rcx
	mov	rax, QWORD PTR stack$[rbp]
	add	rax, 8
	mov	QWORD PTR stack$[rbp], rax
	mov	rax, QWORD PTR p$[rbp]
	add	rax, 4
	mov	QWORD PTR p$[rbp], rax
	mov	rax, QWORD PTR p$[rbp]
	mov	BYTE PTR [rax], 115			; 00000073H
	mov	rax, QWORD PTR p$[rbp]
	inc	rax
	mov	QWORD PTR p$[rbp], rax
	mov	rax, QWORD PTR p$[rbp]
	mov	BYTE PTR [rax], 116			; 00000074H
	mov	rax, QWORD PTR p$[rbp]
	inc	rax
	mov	QWORD PTR p$[rbp], rax
	mov	rax, QWORD PTR p$[rbp]
	mov	BYTE PTR [rax], 115			; 00000073H
	mov	rax, QWORD PTR p$[rbp]
	inc	rax
	mov	QWORD PTR p$[rbp], rax
	mov	rax, QWORD PTR p$[rbp]
	mov	BYTE PTR [rax], 100			; 00000064H
	mov	rax, QWORD PTR p$[rbp]
	inc	rax
	mov	QWORD PTR p$[rbp], rax
	mov	rax, QWORD PTR p$[rbp]
	mov	BYTE PTR [rax], 0
	mov	rax, QWORD PTR p$[rbp]
	inc	rax
	mov	QWORD PTR p$[rbp], rax
	mov	rax, QWORD PTR p$[rbp]
	mov	BYTE PTR [rax], 0
	mov	rax, QWORD PTR p$[rbp]
	inc	rax
	mov	QWORD PTR p$[rbp], rax
	mov	rax, QWORD PTR p$[rbp]
	mov	BYTE PTR [rax], 0
	mov	rax, QWORD PTR p$[rbp]
	inc	rax
	mov	QWORD PTR p$[rbp], rax
	mov	rax, QWORD PTR p$[rbp]
	mov	BYTE PTR [rax], 0
	mov	rax, QWORD PTR p$[rbp]
	inc	rax
	mov	QWORD PTR p$[rbp], rax

; 1423 :         WRITE_4(1); // entry_count;

	mov	rax, QWORD PTR p$[rbp]
	mov	BYTE PTR [rax], 0
	mov	rax, QWORD PTR p$[rbp]
	inc	rax
	mov	QWORD PTR p$[rbp], rax
	mov	rax, QWORD PTR p$[rbp]
	mov	BYTE PTR [rax], 0
	mov	rax, QWORD PTR p$[rbp]
	inc	rax
	mov	QWORD PTR p$[rbp], rax
	mov	rax, QWORD PTR p$[rbp]
	mov	BYTE PTR [rax], 0
	mov	rax, QWORD PTR p$[rbp]
	inc	rax
	mov	QWORD PTR p$[rbp], rax
	mov	rax, QWORD PTR p$[rbp]
	mov	BYTE PTR [rax], 1
	mov	rax, QWORD PTR p$[rbp]
	inc	rax
	mov	QWORD PTR p$[rbp], rax

; 1424 : 
; 1425 :         if (tr->info.track_media_kind == e_audio || tr->info.track_media_kind == e_private)

	mov	rax, QWORD PTR tr$8[rbp]
	cmp	DWORD PTR [rax+8], 0
	je	SHORT $LN90@mp4e_flush
	mov	rax, QWORD PTR tr$8[rbp]
	cmp	DWORD PTR [rax+8], 2
	jne	$LN89@mp4e_flush
$LN90@mp4e_flush:

; 1426 :         {
; 1427 :             // AudioSampleEntry() assume MP4E_HANDLER_TYPE_SOUN
; 1428 :             if (tr->info.track_media_kind == e_audio)

	mov	rax, QWORD PTR tr$8[rbp]
	cmp	DWORD PTR [rax+8], 0
	jne	$LN91@mp4e_flush

; 1429 :             {
; 1430 :                 ATOM(BOX_mp4a);

	mov	rax, QWORD PTR stack$[rbp]
	mov	rcx, QWORD PTR p$[rbp]
	mov	QWORD PTR [rax], rcx
	mov	rax, QWORD PTR stack$[rbp]
	add	rax, 8
	mov	QWORD PTR stack$[rbp], rax
	mov	rax, QWORD PTR p$[rbp]
	add	rax, 4
	mov	QWORD PTR p$[rbp], rax
	mov	rax, QWORD PTR p$[rbp]
	mov	BYTE PTR [rax], 109			; 0000006dH
	mov	rax, QWORD PTR p$[rbp]
	inc	rax
	mov	QWORD PTR p$[rbp], rax
	mov	rax, QWORD PTR p$[rbp]
	mov	BYTE PTR [rax], 112			; 00000070H
	mov	rax, QWORD PTR p$[rbp]
	inc	rax
	mov	QWORD PTR p$[rbp], rax
	mov	rax, QWORD PTR p$[rbp]
	mov	BYTE PTR [rax], 52			; 00000034H
	mov	rax, QWORD PTR p$[rbp]
	inc	rax
	mov	QWORD PTR p$[rbp], rax
	mov	rax, QWORD PTR p$[rbp]
	mov	BYTE PTR [rax], 97			; 00000061H
	mov	rax, QWORD PTR p$[rbp]
	inc	rax
	mov	QWORD PTR p$[rbp], rax

; 1431 :             }

	jmp	$LN92@mp4e_flush
$LN91@mp4e_flush:

; 1432 :             else
; 1433 :             {
; 1434 :                 ATOM(BOX_mp4s);

	mov	rax, QWORD PTR stack$[rbp]
	mov	rcx, QWORD PTR p$[rbp]
	mov	QWORD PTR [rax], rcx
	mov	rax, QWORD PTR stack$[rbp]
	add	rax, 8
	mov	QWORD PTR stack$[rbp], rax
	mov	rax, QWORD PTR p$[rbp]
	add	rax, 4
	mov	QWORD PTR p$[rbp], rax
	mov	rax, QWORD PTR p$[rbp]
	mov	BYTE PTR [rax], 109			; 0000006dH
	mov	rax, QWORD PTR p$[rbp]
	inc	rax
	mov	QWORD PTR p$[rbp], rax
	mov	rax, QWORD PTR p$[rbp]
	mov	BYTE PTR [rax], 112			; 00000070H
	mov	rax, QWORD PTR p$[rbp]
	inc	rax
	mov	QWORD PTR p$[rbp], rax
	mov	rax, QWORD PTR p$[rbp]
	mov	BYTE PTR [rax], 52			; 00000034H
	mov	rax, QWORD PTR p$[rbp]
	inc	rax
	mov	QWORD PTR p$[rbp], rax
	mov	rax, QWORD PTR p$[rbp]
	mov	BYTE PTR [rax], 115			; 00000073H
	mov	rax, QWORD PTR p$[rbp]
	inc	rax
	mov	QWORD PTR p$[rbp], rax
$LN92@mp4e_flush:

; 1435 :             }
; 1436 : 
; 1437 :             // SampleEntry
; 1438 :             WRITE_4(0); WRITE_2(0); // reserved[6]

	mov	rax, QWORD PTR p$[rbp]
	mov	BYTE PTR [rax], 0
	mov	rax, QWORD PTR p$[rbp]
	inc	rax
	mov	QWORD PTR p$[rbp], rax
	mov	rax, QWORD PTR p$[rbp]
	mov	BYTE PTR [rax], 0
	mov	rax, QWORD PTR p$[rbp]
	inc	rax
	mov	QWORD PTR p$[rbp], rax
	mov	rax, QWORD PTR p$[rbp]
	mov	BYTE PTR [rax], 0
	mov	rax, QWORD PTR p$[rbp]
	inc	rax
	mov	QWORD PTR p$[rbp], rax
	mov	rax, QWORD PTR p$[rbp]
	mov	BYTE PTR [rax], 0
	mov	rax, QWORD PTR p$[rbp]
	inc	rax
	mov	QWORD PTR p$[rbp], rax
	mov	rax, QWORD PTR p$[rbp]
	mov	BYTE PTR [rax], 0
	mov	rax, QWORD PTR p$[rbp]
	inc	rax
	mov	QWORD PTR p$[rbp], rax
	mov	rax, QWORD PTR p$[rbp]
	mov	BYTE PTR [rax], 0
	mov	rax, QWORD PTR p$[rbp]
	inc	rax
	mov	QWORD PTR p$[rbp], rax

; 1439 :             WRITE_2(1); // data_reference_index; - this is a tag for descriptor below

	mov	rax, QWORD PTR p$[rbp]
	mov	BYTE PTR [rax], 0
	mov	rax, QWORD PTR p$[rbp]
	inc	rax
	mov	QWORD PTR p$[rbp], rax
	mov	rax, QWORD PTR p$[rbp]
	mov	BYTE PTR [rax], 1
	mov	rax, QWORD PTR p$[rbp]
	inc	rax
	mov	QWORD PTR p$[rbp], rax

; 1440 : 
; 1441 :             if (tr->info.track_media_kind == e_audio)

	mov	rax, QWORD PTR tr$8[rbp]
	cmp	DWORD PTR [rax+8], 0
	jne	$LN93@mp4e_flush

; 1442 :             {
; 1443 :                 // AudioSampleEntry
; 1444 :                 WRITE_4(0); WRITE_4(0); // reserved[2]

	mov	rax, QWORD PTR p$[rbp]
	mov	BYTE PTR [rax], 0
	mov	rax, QWORD PTR p$[rbp]
	inc	rax
	mov	QWORD PTR p$[rbp], rax
	mov	rax, QWORD PTR p$[rbp]
	mov	BYTE PTR [rax], 0
	mov	rax, QWORD PTR p$[rbp]
	inc	rax
	mov	QWORD PTR p$[rbp], rax
	mov	rax, QWORD PTR p$[rbp]
	mov	BYTE PTR [rax], 0
	mov	rax, QWORD PTR p$[rbp]
	inc	rax
	mov	QWORD PTR p$[rbp], rax
	mov	rax, QWORD PTR p$[rbp]
	mov	BYTE PTR [rax], 0
	mov	rax, QWORD PTR p$[rbp]
	inc	rax
	mov	QWORD PTR p$[rbp], rax
	mov	rax, QWORD PTR p$[rbp]
	mov	BYTE PTR [rax], 0
	mov	rax, QWORD PTR p$[rbp]
	inc	rax
	mov	QWORD PTR p$[rbp], rax
	mov	rax, QWORD PTR p$[rbp]
	mov	BYTE PTR [rax], 0
	mov	rax, QWORD PTR p$[rbp]
	inc	rax
	mov	QWORD PTR p$[rbp], rax
	mov	rax, QWORD PTR p$[rbp]
	mov	BYTE PTR [rax], 0
	mov	rax, QWORD PTR p$[rbp]
	inc	rax
	mov	QWORD PTR p$[rbp], rax
	mov	rax, QWORD PTR p$[rbp]
	mov	BYTE PTR [rax], 0
	mov	rax, QWORD PTR p$[rbp]
	inc	rax
	mov	QWORD PTR p$[rbp], rax

; 1445 :                 WRITE_2(tr->info.u.a.channelcount); // channelcount

	mov	rax, QWORD PTR tr$8[rbp]
	mov	eax, DWORD PTR [rax+20]
	shr	eax, 8
	mov	rcx, QWORD PTR p$[rbp]
	mov	BYTE PTR [rcx], al
	mov	rax, QWORD PTR p$[rbp]
	inc	rax
	mov	QWORD PTR p$[rbp], rax
	mov	rax, QWORD PTR p$[rbp]
	mov	rcx, QWORD PTR tr$8[rbp]
	movzx	ecx, BYTE PTR [rcx+20]
	mov	BYTE PTR [rax], cl
	mov	rax, QWORD PTR p$[rbp]
	inc	rax
	mov	QWORD PTR p$[rbp], rax

; 1446 :                 WRITE_2(16); // samplesize

	mov	rax, QWORD PTR p$[rbp]
	mov	BYTE PTR [rax], 0
	mov	rax, QWORD PTR p$[rbp]
	inc	rax
	mov	QWORD PTR p$[rbp], rax
	mov	rax, QWORD PTR p$[rbp]
	mov	BYTE PTR [rax], 16
	mov	rax, QWORD PTR p$[rbp]
	inc	rax
	mov	QWORD PTR p$[rbp], rax

; 1447 :                 WRITE_4(0);  // pre_defined+reserved

	mov	rax, QWORD PTR p$[rbp]
	mov	BYTE PTR [rax], 0
	mov	rax, QWORD PTR p$[rbp]
	inc	rax
	mov	QWORD PTR p$[rbp], rax
	mov	rax, QWORD PTR p$[rbp]
	mov	BYTE PTR [rax], 0
	mov	rax, QWORD PTR p$[rbp]
	inc	rax
	mov	QWORD PTR p$[rbp], rax
	mov	rax, QWORD PTR p$[rbp]
	mov	BYTE PTR [rax], 0
	mov	rax, QWORD PTR p$[rbp]
	inc	rax
	mov	QWORD PTR p$[rbp], rax
	mov	rax, QWORD PTR p$[rbp]
	mov	BYTE PTR [rax], 0
	mov	rax, QWORD PTR p$[rbp]
	inc	rax
	mov	QWORD PTR p$[rbp], rax

; 1448 :                 WRITE_4((tr->info.time_scale << 16));  // samplerate == = {timescale of media}<<16;

	mov	rax, QWORD PTR tr$8[rbp]
	mov	eax, DWORD PTR [rax+12]
	shl	eax, 16
	shr	eax, 24
	mov	rcx, QWORD PTR p$[rbp]
	mov	BYTE PTR [rcx], al
	mov	rax, QWORD PTR p$[rbp]
	inc	rax
	mov	QWORD PTR p$[rbp], rax
	mov	rax, QWORD PTR tr$8[rbp]
	mov	eax, DWORD PTR [rax+12]
	shl	eax, 16
	shr	eax, 16
	mov	rcx, QWORD PTR p$[rbp]
	mov	BYTE PTR [rcx], al
	mov	rax, QWORD PTR p$[rbp]
	inc	rax
	mov	QWORD PTR p$[rbp], rax
	mov	rax, QWORD PTR tr$8[rbp]
	mov	eax, DWORD PTR [rax+12]
	shl	eax, 16
	shr	eax, 8
	mov	rcx, QWORD PTR p$[rbp]
	mov	BYTE PTR [rcx], al
	mov	rax, QWORD PTR p$[rbp]
	inc	rax
	mov	QWORD PTR p$[rbp], rax
	mov	rax, QWORD PTR tr$8[rbp]
	mov	eax, DWORD PTR [rax+12]
	shl	eax, 16
	mov	rcx, QWORD PTR p$[rbp]
	mov	BYTE PTR [rcx], al
	mov	rax, QWORD PTR p$[rbp]
	inc	rax
	mov	QWORD PTR p$[rbp], rax
$LN93@mp4e_flush:

; 1449 :             }
; 1450 : 
; 1451 :             ATOM_FULL(BOX_esds, 0);

	mov	rax, QWORD PTR stack$[rbp]
	mov	rcx, QWORD PTR p$[rbp]
	mov	QWORD PTR [rax], rcx
	mov	rax, QWORD PTR stack$[rbp]
	add	rax, 8
	mov	QWORD PTR stack$[rbp], rax
	mov	rax, QWORD PTR p$[rbp]
	add	rax, 4
	mov	QWORD PTR p$[rbp], rax
	mov	rax, QWORD PTR p$[rbp]
	mov	BYTE PTR [rax], 101			; 00000065H
	mov	rax, QWORD PTR p$[rbp]
	inc	rax
	mov	QWORD PTR p$[rbp], rax
	mov	rax, QWORD PTR p$[rbp]
	mov	BYTE PTR [rax], 115			; 00000073H
	mov	rax, QWORD PTR p$[rbp]
	inc	rax
	mov	QWORD PTR p$[rbp], rax
	mov	rax, QWORD PTR p$[rbp]
	mov	BYTE PTR [rax], 100			; 00000064H
	mov	rax, QWORD PTR p$[rbp]
	inc	rax
	mov	QWORD PTR p$[rbp], rax
	mov	rax, QWORD PTR p$[rbp]
	mov	BYTE PTR [rax], 115			; 00000073H
	mov	rax, QWORD PTR p$[rbp]
	inc	rax
	mov	QWORD PTR p$[rbp], rax
	mov	rax, QWORD PTR p$[rbp]
	mov	BYTE PTR [rax], 0
	mov	rax, QWORD PTR p$[rbp]
	inc	rax
	mov	QWORD PTR p$[rbp], rax
	mov	rax, QWORD PTR p$[rbp]
	mov	BYTE PTR [rax], 0
	mov	rax, QWORD PTR p$[rbp]
	inc	rax
	mov	QWORD PTR p$[rbp], rax
	mov	rax, QWORD PTR p$[rbp]
	mov	BYTE PTR [rax], 0
	mov	rax, QWORD PTR p$[rbp]
	inc	rax
	mov	QWORD PTR p$[rbp], rax
	mov	rax, QWORD PTR p$[rbp]
	mov	BYTE PTR [rax], 0
	mov	rax, QWORD PTR p$[rbp]
	inc	rax
	mov	QWORD PTR p$[rbp], rax

; 1452 :             if (tr->vsps.bytes > 0)

	mov	rax, QWORD PTR tr$8[rbp]
	cmp	DWORD PTR [rax+72], 0
	jle	$LN94@mp4e_flush

; 1453 :             {
; 1454 :                 int dsi_bytes = tr->vsps.bytes - 2; //  - two bytes size field

	mov	rax, QWORD PTR tr$8[rbp]
	mov	eax, DWORD PTR [rax+72]
	sub	eax, 2
	mov	DWORD PTR dsi_bytes$15[rbp], eax

; 1455 :                 int dsi_size_size = od_size_of_size(dsi_bytes);

	mov	ecx, DWORD PTR dsi_bytes$15[rbp]
	call	?od_size_of_size@@YAHH@Z		; od_size_of_size
	mov	DWORD PTR dsi_size_size$16[rbp], eax

; 1456 :                 int dcd_bytes = dsi_bytes + dsi_size_size + 1 + (1 + 1 + 3 + 4 + 4);

	mov	eax, DWORD PTR dsi_bytes$15[rbp]
	mov	ecx, DWORD PTR dsi_size_size$16[rbp]
	lea	eax, DWORD PTR [rax+rcx+14]
	mov	DWORD PTR dcd_bytes$17[rbp], eax

; 1457 :                 int dcd_size_size = od_size_of_size(dcd_bytes);

	mov	ecx, DWORD PTR dcd_bytes$17[rbp]
	call	?od_size_of_size@@YAHH@Z		; od_size_of_size
	mov	DWORD PTR dcd_size_size$18[rbp], eax

; 1458 :                 int esd_bytes = dcd_bytes + dcd_size_size + 1 + 3;

	mov	eax, DWORD PTR dcd_bytes$17[rbp]
	mov	ecx, DWORD PTR dcd_size_size$18[rbp]
	lea	eax, DWORD PTR [rax+rcx+4]
	mov	DWORD PTR esd_bytes$19[rbp], eax

; 1459 : 
; 1460 : #define WRITE_OD_LEN(size) if (size > 0x7F) do { size -= 0x7F; WRITE_1(0x00ff); } while (size > 0x7F); WRITE_1(size)
; 1461 :                 WRITE_1(3); // OD_ESD

	mov	rax, QWORD PTR p$[rbp]
	mov	BYTE PTR [rax], 3
	mov	rax, QWORD PTR p$[rbp]
	inc	rax
	mov	QWORD PTR p$[rbp], rax

; 1462 :                 WRITE_OD_LEN(esd_bytes);

	cmp	DWORD PTR esd_bytes$19[rbp], 127	; 0000007fH
	jle	SHORT $LN95@mp4e_flush
$LN15@mp4e_flush:
	mov	eax, DWORD PTR esd_bytes$19[rbp]
	sub	eax, 127				; 0000007fH
	mov	DWORD PTR esd_bytes$19[rbp], eax
	mov	rax, QWORD PTR p$[rbp]
	mov	BYTE PTR [rax], 255			; 000000ffH
	mov	rax, QWORD PTR p$[rbp]
	inc	rax
	mov	QWORD PTR p$[rbp], rax
	cmp	DWORD PTR esd_bytes$19[rbp], 127	; 0000007fH
	jg	SHORT $LN15@mp4e_flush
$LN95@mp4e_flush:
	mov	rax, QWORD PTR p$[rbp]
	movzx	ecx, BYTE PTR esd_bytes$19[rbp]
	mov	BYTE PTR [rax], cl
	mov	rax, QWORD PTR p$[rbp]
	inc	rax
	mov	QWORD PTR p$[rbp], rax

; 1463 :                 WRITE_2(0); // ES_ID(2) // TODO - what is this?

	mov	rax, QWORD PTR p$[rbp]
	mov	BYTE PTR [rax], 0
	mov	rax, QWORD PTR p$[rbp]
	inc	rax
	mov	QWORD PTR p$[rbp], rax
	mov	rax, QWORD PTR p$[rbp]
	mov	BYTE PTR [rax], 0
	mov	rax, QWORD PTR p$[rbp]
	inc	rax
	mov	QWORD PTR p$[rbp], rax

; 1464 :                 WRITE_1(0); // flags(1)

	mov	rax, QWORD PTR p$[rbp]
	mov	BYTE PTR [rax], 0
	mov	rax, QWORD PTR p$[rbp]
	inc	rax
	mov	QWORD PTR p$[rbp], rax

; 1465 : 
; 1466 :                 WRITE_1(4); // OD_DCD

	mov	rax, QWORD PTR p$[rbp]
	mov	BYTE PTR [rax], 4
	mov	rax, QWORD PTR p$[rbp]
	inc	rax
	mov	QWORD PTR p$[rbp], rax

; 1467 :                 WRITE_OD_LEN(dcd_bytes);

	cmp	DWORD PTR dcd_bytes$17[rbp], 127	; 0000007fH
	jle	SHORT $LN96@mp4e_flush
$LN18@mp4e_flush:
	mov	eax, DWORD PTR dcd_bytes$17[rbp]
	sub	eax, 127				; 0000007fH
	mov	DWORD PTR dcd_bytes$17[rbp], eax
	mov	rax, QWORD PTR p$[rbp]
	mov	BYTE PTR [rax], 255			; 000000ffH
	mov	rax, QWORD PTR p$[rbp]
	inc	rax
	mov	QWORD PTR p$[rbp], rax
	cmp	DWORD PTR dcd_bytes$17[rbp], 127	; 0000007fH
	jg	SHORT $LN18@mp4e_flush
$LN96@mp4e_flush:
	mov	rax, QWORD PTR p$[rbp]
	movzx	ecx, BYTE PTR dcd_bytes$17[rbp]
	mov	BYTE PTR [rax], cl
	mov	rax, QWORD PTR p$[rbp]
	inc	rax
	mov	QWORD PTR p$[rbp], rax

; 1468 :                 if (tr->info.track_media_kind == e_audio)

	mov	rax, QWORD PTR tr$8[rbp]
	cmp	DWORD PTR [rax+8], 0
	jne	SHORT $LN97@mp4e_flush

; 1469 :                 {
; 1470 :                     WRITE_1(MP4_OBJECT_TYPE_AUDIO_ISO_IEC_14496_3); // OD_DCD

	mov	rax, QWORD PTR p$[rbp]
	mov	BYTE PTR [rax], 64			; 00000040H
	mov	rax, QWORD PTR p$[rbp]
	inc	rax
	mov	QWORD PTR p$[rbp], rax

; 1471 :                     WRITE_1(5 << 2); // stream_type == AudioStream

	mov	rax, QWORD PTR p$[rbp]
	mov	BYTE PTR [rax], 20
	mov	rax, QWORD PTR p$[rbp]
	inc	rax
	mov	QWORD PTR p$[rbp], rax

; 1472 :                 }

	jmp	SHORT $LN98@mp4e_flush
$LN97@mp4e_flush:

; 1473 :                 else
; 1474 :                 {
; 1475 :                     // http://xhelmboyx.tripod.com/formats/mp4-layout.txt
; 1476 :                     WRITE_1(208); // 208 = private video

	mov	rax, QWORD PTR p$[rbp]
	mov	BYTE PTR [rax], 208			; 000000d0H
	mov	rax, QWORD PTR p$[rbp]
	inc	rax
	mov	QWORD PTR p$[rbp], rax

; 1477 :                     WRITE_1(32 << 2); // stream_type == user private

	mov	rax, QWORD PTR p$[rbp]
	mov	BYTE PTR [rax], 128			; 00000080H
	mov	rax, QWORD PTR p$[rbp]
	inc	rax
	mov	QWORD PTR p$[rbp], rax
$LN98@mp4e_flush:

; 1478 :                 }
; 1479 :                 WRITE_3(tr->info.u.a.channelcount * 6144 / 8); // bufferSizeDB in bytes, constant as in reference decoder

	mov	rax, QWORD PTR tr$8[rbp]
	imul	eax, DWORD PTR [rax+20], 6144		; 00001800H
	xor	edx, edx
	mov	ecx, 8
	div	ecx
	shr	eax, 16
	mov	rcx, QWORD PTR p$[rbp]
	mov	BYTE PTR [rcx], al
	mov	rax, QWORD PTR p$[rbp]
	inc	rax
	mov	QWORD PTR p$[rbp], rax
	mov	rax, QWORD PTR tr$8[rbp]
	imul	eax, DWORD PTR [rax+20], 6144		; 00001800H
	xor	edx, edx
	mov	ecx, 8
	div	ecx
	shr	eax, 8
	mov	rcx, QWORD PTR p$[rbp]
	mov	BYTE PTR [rcx], al
	mov	rax, QWORD PTR p$[rbp]
	inc	rax
	mov	QWORD PTR p$[rbp], rax
	mov	rax, QWORD PTR tr$8[rbp]
	imul	eax, DWORD PTR [rax+20], 6144		; 00001800H
	xor	edx, edx
	mov	ecx, 8
	div	ecx
	mov	rcx, QWORD PTR p$[rbp]
	mov	BYTE PTR [rcx], al
	mov	rax, QWORD PTR p$[rbp]
	inc	rax
	mov	QWORD PTR p$[rbp], rax

; 1480 :                 WRITE_4(0); // maxBitrate TODO

	mov	rax, QWORD PTR p$[rbp]
	mov	BYTE PTR [rax], 0
	mov	rax, QWORD PTR p$[rbp]
	inc	rax
	mov	QWORD PTR p$[rbp], rax
	mov	rax, QWORD PTR p$[rbp]
	mov	BYTE PTR [rax], 0
	mov	rax, QWORD PTR p$[rbp]
	inc	rax
	mov	QWORD PTR p$[rbp], rax
	mov	rax, QWORD PTR p$[rbp]
	mov	BYTE PTR [rax], 0
	mov	rax, QWORD PTR p$[rbp]
	inc	rax
	mov	QWORD PTR p$[rbp], rax
	mov	rax, QWORD PTR p$[rbp]
	mov	BYTE PTR [rax], 0
	mov	rax, QWORD PTR p$[rbp]
	inc	rax
	mov	QWORD PTR p$[rbp], rax

; 1481 :                 WRITE_4(0); // avg_bitrate_bps TODO

	mov	rax, QWORD PTR p$[rbp]
	mov	BYTE PTR [rax], 0
	mov	rax, QWORD PTR p$[rbp]
	inc	rax
	mov	QWORD PTR p$[rbp], rax
	mov	rax, QWORD PTR p$[rbp]
	mov	BYTE PTR [rax], 0
	mov	rax, QWORD PTR p$[rbp]
	inc	rax
	mov	QWORD PTR p$[rbp], rax
	mov	rax, QWORD PTR p$[rbp]
	mov	BYTE PTR [rax], 0
	mov	rax, QWORD PTR p$[rbp]
	inc	rax
	mov	QWORD PTR p$[rbp], rax
	mov	rax, QWORD PTR p$[rbp]
	mov	BYTE PTR [rax], 0
	mov	rax, QWORD PTR p$[rbp]
	inc	rax
	mov	QWORD PTR p$[rbp], rax

; 1482 : 
; 1483 :                 WRITE_1(5); // OD_DSI

	mov	rax, QWORD PTR p$[rbp]
	mov	BYTE PTR [rax], 5
	mov	rax, QWORD PTR p$[rbp]
	inc	rax
	mov	QWORD PTR p$[rbp], rax

; 1484 :                 WRITE_OD_LEN(dsi_bytes);

	cmp	DWORD PTR dsi_bytes$15[rbp], 127	; 0000007fH
	jle	SHORT $LN99@mp4e_flush
$LN21@mp4e_flush:
	mov	eax, DWORD PTR dsi_bytes$15[rbp]
	sub	eax, 127				; 0000007fH
	mov	DWORD PTR dsi_bytes$15[rbp], eax
	mov	rax, QWORD PTR p$[rbp]
	mov	BYTE PTR [rax], 255			; 000000ffH
	mov	rax, QWORD PTR p$[rbp]
	inc	rax
	mov	QWORD PTR p$[rbp], rax
	cmp	DWORD PTR dsi_bytes$15[rbp], 127	; 0000007fH
	jg	SHORT $LN21@mp4e_flush
$LN99@mp4e_flush:
	mov	rax, QWORD PTR p$[rbp]
	movzx	ecx, BYTE PTR dsi_bytes$15[rbp]
	mov	BYTE PTR [rax], cl
	mov	rax, QWORD PTR p$[rbp]
	inc	rax
	mov	QWORD PTR p$[rbp], rax

; 1485 :                 for (i = 0; i < dsi_bytes; i++)

	mov	DWORD PTR i$[rbp], 0
	jmp	SHORT $LN24@mp4e_flush
$LN22@mp4e_flush:
	mov	eax, DWORD PTR i$[rbp]
	inc	eax
	mov	DWORD PTR i$[rbp], eax
$LN24@mp4e_flush:
	mov	eax, DWORD PTR dsi_bytes$15[rbp]
	cmp	DWORD PTR i$[rbp], eax
	jge	SHORT $LN23@mp4e_flush

; 1486 :                 {
; 1487 :                     WRITE_1(tr->vsps.data[2 + i]);

	mov	eax, DWORD PTR i$[rbp]
	add	eax, 2
	cdqe
	mov	rcx, QWORD PTR tr$8[rbp]
	mov	rcx, QWORD PTR [rcx+64]
	mov	rdx, QWORD PTR p$[rbp]
	movzx	eax, BYTE PTR [rcx+rax]
	mov	BYTE PTR [rdx], al
	mov	rax, QWORD PTR p$[rbp]
	inc	rax
	mov	QWORD PTR p$[rbp], rax

; 1488 :                 }

	jmp	SHORT $LN22@mp4e_flush
$LN23@mp4e_flush:
$LN94@mp4e_flush:

; 1489 :             }
; 1490 :             END_ATOM;

	mov	rax, QWORD PTR stack$[rbp]
	sub	rax, 8
	mov	QWORD PTR stack$[rbp], rax
	mov	rax, QWORD PTR stack$[rbp]
	mov	rax, QWORD PTR [rax]
	mov	rcx, QWORD PTR p$[rbp]
	sub	rcx, rax
	mov	rax, rcx
	sar	rax, 24
	mov	ecx, 1
	imul	rcx, rcx, 0
	mov	rdx, QWORD PTR stack$[rbp]
	mov	rdx, QWORD PTR [rdx]
	mov	BYTE PTR [rcx+rdx], al
	mov	rax, QWORD PTR stack$[rbp]
	mov	rax, QWORD PTR [rax]
	mov	rcx, QWORD PTR p$[rbp]
	sub	rcx, rax
	mov	rax, rcx
	sar	rax, 16
	mov	ecx, 1
	imul	rcx, rcx, 1
	mov	rdx, QWORD PTR stack$[rbp]
	mov	rdx, QWORD PTR [rdx]
	mov	BYTE PTR [rcx+rdx], al
	mov	rax, QWORD PTR stack$[rbp]
	mov	rax, QWORD PTR [rax]
	mov	rcx, QWORD PTR p$[rbp]
	sub	rcx, rax
	mov	rax, rcx
	sar	rax, 8
	mov	ecx, 1
	imul	rcx, rcx, 2
	mov	rdx, QWORD PTR stack$[rbp]
	mov	rdx, QWORD PTR [rdx]
	mov	BYTE PTR [rcx+rdx], al
	mov	rax, QWORD PTR stack$[rbp]
	mov	rax, QWORD PTR [rax]
	mov	rcx, QWORD PTR p$[rbp]
	sub	rcx, rax
	mov	rax, rcx
	mov	ecx, 1
	imul	rcx, rcx, 3
	mov	rdx, QWORD PTR stack$[rbp]
	mov	rdx, QWORD PTR [rdx]
	mov	BYTE PTR [rcx+rdx], al

; 1491 :             END_ATOM;

	mov	rax, QWORD PTR stack$[rbp]
	sub	rax, 8
	mov	QWORD PTR stack$[rbp], rax
	mov	rax, QWORD PTR stack$[rbp]
	mov	rax, QWORD PTR [rax]
	mov	rcx, QWORD PTR p$[rbp]
	sub	rcx, rax
	mov	rax, rcx
	sar	rax, 24
	mov	ecx, 1
	imul	rcx, rcx, 0
	mov	rdx, QWORD PTR stack$[rbp]
	mov	rdx, QWORD PTR [rdx]
	mov	BYTE PTR [rcx+rdx], al
	mov	rax, QWORD PTR stack$[rbp]
	mov	rax, QWORD PTR [rax]
	mov	rcx, QWORD PTR p$[rbp]
	sub	rcx, rax
	mov	rax, rcx
	sar	rax, 16
	mov	ecx, 1
	imul	rcx, rcx, 1
	mov	rdx, QWORD PTR stack$[rbp]
	mov	rdx, QWORD PTR [rdx]
	mov	BYTE PTR [rcx+rdx], al
	mov	rax, QWORD PTR stack$[rbp]
	mov	rax, QWORD PTR [rax]
	mov	rcx, QWORD PTR p$[rbp]
	sub	rcx, rax
	mov	rax, rcx
	sar	rax, 8
	mov	ecx, 1
	imul	rcx, rcx, 2
	mov	rdx, QWORD PTR stack$[rbp]
	mov	rdx, QWORD PTR [rdx]
	mov	BYTE PTR [rcx+rdx], al
	mov	rax, QWORD PTR stack$[rbp]
	mov	rax, QWORD PTR [rax]
	mov	rcx, QWORD PTR p$[rbp]
	sub	rcx, rax
	mov	rax, rcx
	mov	ecx, 1
	imul	rcx, rcx, 3
	mov	rdx, QWORD PTR stack$[rbp]
	mov	rdx, QWORD PTR [rdx]
	mov	BYTE PTR [rcx+rdx], al
$LN89@mp4e_flush:

; 1492 :         }
; 1493 : 
; 1494 :         if (tr->info.track_media_kind == e_video && (MP4_OBJECT_TYPE_AVC == tr->info.object_type_indication || MP4_OBJECT_TYPE_HEVC == tr->info.object_type_indication))

	mov	rax, QWORD PTR tr$8[rbp]
	cmp	DWORD PTR [rax+8], 1
	jne	$LN100@mp4e_flush
	mov	rax, QWORD PTR tr$8[rbp]
	cmp	DWORD PTR [rax], 33			; 00000021H
	je	SHORT $LN101@mp4e_flush
	mov	rax, QWORD PTR tr$8[rbp]
	cmp	DWORD PTR [rax], 35			; 00000023H
	jne	$LN100@mp4e_flush
$LN101@mp4e_flush:

; 1495 :         {
; 1496 :             int numOfSequenceParameterSets = items_count(&tr->vsps);

	mov	rax, QWORD PTR tr$8[rbp]
	add	rax, 64					; 00000040H
	mov	rcx, rax
	call	?items_count@@YAHPEAUminimp4_vector_t@@@Z ; items_count
	mov	DWORD PTR numOfSequenceParameterSets$20[rbp], eax

; 1497 :             int numOfPictureParameterSets = items_count(&tr->vpps);

	mov	rax, QWORD PTR tr$8[rbp]
	add	rax, 80					; 00000050H
	mov	rcx, rax
	call	?items_count@@YAHPEAUminimp4_vector_t@@@Z ; items_count
	mov	DWORD PTR numOfPictureParameterSets$21[rbp], eax

; 1498 :             if (MP4_OBJECT_TYPE_AVC == tr->info.object_type_indication)

	mov	rax, QWORD PTR tr$8[rbp]
	cmp	DWORD PTR [rax], 33			; 00000021H
	jne	$LN102@mp4e_flush

; 1499 :             {
; 1500 :                 ATOM(BOX_avc1);

	mov	rax, QWORD PTR stack$[rbp]
	mov	rcx, QWORD PTR p$[rbp]
	mov	QWORD PTR [rax], rcx
	mov	rax, QWORD PTR stack$[rbp]
	add	rax, 8
	mov	QWORD PTR stack$[rbp], rax
	mov	rax, QWORD PTR p$[rbp]
	add	rax, 4
	mov	QWORD PTR p$[rbp], rax
	mov	rax, QWORD PTR p$[rbp]
	mov	BYTE PTR [rax], 97			; 00000061H
	mov	rax, QWORD PTR p$[rbp]
	inc	rax
	mov	QWORD PTR p$[rbp], rax
	mov	rax, QWORD PTR p$[rbp]
	mov	BYTE PTR [rax], 118			; 00000076H
	mov	rax, QWORD PTR p$[rbp]
	inc	rax
	mov	QWORD PTR p$[rbp], rax
	mov	rax, QWORD PTR p$[rbp]
	mov	BYTE PTR [rax], 99			; 00000063H
	mov	rax, QWORD PTR p$[rbp]
	inc	rax
	mov	QWORD PTR p$[rbp], rax
	mov	rax, QWORD PTR p$[rbp]
	mov	BYTE PTR [rax], 49			; 00000031H
	mov	rax, QWORD PTR p$[rbp]
	inc	rax
	mov	QWORD PTR p$[rbp], rax

; 1501 :             }

	jmp	$LN103@mp4e_flush
$LN102@mp4e_flush:

; 1502 :             else
; 1503 :             {
; 1504 :                 ATOM(BOX_hvc1);

	mov	rax, QWORD PTR stack$[rbp]
	mov	rcx, QWORD PTR p$[rbp]
	mov	QWORD PTR [rax], rcx
	mov	rax, QWORD PTR stack$[rbp]
	add	rax, 8
	mov	QWORD PTR stack$[rbp], rax
	mov	rax, QWORD PTR p$[rbp]
	add	rax, 4
	mov	QWORD PTR p$[rbp], rax
	mov	rax, QWORD PTR p$[rbp]
	mov	BYTE PTR [rax], 104			; 00000068H
	mov	rax, QWORD PTR p$[rbp]
	inc	rax
	mov	QWORD PTR p$[rbp], rax
	mov	rax, QWORD PTR p$[rbp]
	mov	BYTE PTR [rax], 118			; 00000076H
	mov	rax, QWORD PTR p$[rbp]
	inc	rax
	mov	QWORD PTR p$[rbp], rax
	mov	rax, QWORD PTR p$[rbp]
	mov	BYTE PTR [rax], 99			; 00000063H
	mov	rax, QWORD PTR p$[rbp]
	inc	rax
	mov	QWORD PTR p$[rbp], rax
	mov	rax, QWORD PTR p$[rbp]
	mov	BYTE PTR [rax], 49			; 00000031H
	mov	rax, QWORD PTR p$[rbp]
	inc	rax
	mov	QWORD PTR p$[rbp], rax
$LN103@mp4e_flush:

; 1505 :             }
; 1506 :             // VisualSampleEntry  8.16.2
; 1507 :             // extends SampleEntry
; 1508 :             WRITE_2(0); // reserved

	mov	rax, QWORD PTR p$[rbp]
	mov	BYTE PTR [rax], 0
	mov	rax, QWORD PTR p$[rbp]
	inc	rax
	mov	QWORD PTR p$[rbp], rax
	mov	rax, QWORD PTR p$[rbp]
	mov	BYTE PTR [rax], 0
	mov	rax, QWORD PTR p$[rbp]
	inc	rax
	mov	QWORD PTR p$[rbp], rax

; 1509 :             WRITE_2(0); // reserved

	mov	rax, QWORD PTR p$[rbp]
	mov	BYTE PTR [rax], 0
	mov	rax, QWORD PTR p$[rbp]
	inc	rax
	mov	QWORD PTR p$[rbp], rax
	mov	rax, QWORD PTR p$[rbp]
	mov	BYTE PTR [rax], 0
	mov	rax, QWORD PTR p$[rbp]
	inc	rax
	mov	QWORD PTR p$[rbp], rax

; 1510 :             WRITE_2(0); // reserved

	mov	rax, QWORD PTR p$[rbp]
	mov	BYTE PTR [rax], 0
	mov	rax, QWORD PTR p$[rbp]
	inc	rax
	mov	QWORD PTR p$[rbp], rax
	mov	rax, QWORD PTR p$[rbp]
	mov	BYTE PTR [rax], 0
	mov	rax, QWORD PTR p$[rbp]
	inc	rax
	mov	QWORD PTR p$[rbp], rax

; 1511 :             WRITE_2(1); // data_reference_index

	mov	rax, QWORD PTR p$[rbp]
	mov	BYTE PTR [rax], 0
	mov	rax, QWORD PTR p$[rbp]
	inc	rax
	mov	QWORD PTR p$[rbp], rax
	mov	rax, QWORD PTR p$[rbp]
	mov	BYTE PTR [rax], 1
	mov	rax, QWORD PTR p$[rbp]
	inc	rax
	mov	QWORD PTR p$[rbp], rax

; 1512 : 
; 1513 :             WRITE_2(0); // pre_defined

	mov	rax, QWORD PTR p$[rbp]
	mov	BYTE PTR [rax], 0
	mov	rax, QWORD PTR p$[rbp]
	inc	rax
	mov	QWORD PTR p$[rbp], rax
	mov	rax, QWORD PTR p$[rbp]
	mov	BYTE PTR [rax], 0
	mov	rax, QWORD PTR p$[rbp]
	inc	rax
	mov	QWORD PTR p$[rbp], rax

; 1514 :             WRITE_2(0); // reserved

	mov	rax, QWORD PTR p$[rbp]
	mov	BYTE PTR [rax], 0
	mov	rax, QWORD PTR p$[rbp]
	inc	rax
	mov	QWORD PTR p$[rbp], rax
	mov	rax, QWORD PTR p$[rbp]
	mov	BYTE PTR [rax], 0
	mov	rax, QWORD PTR p$[rbp]
	inc	rax
	mov	QWORD PTR p$[rbp], rax

; 1515 :             WRITE_4(0); // pre_defined

	mov	rax, QWORD PTR p$[rbp]
	mov	BYTE PTR [rax], 0
	mov	rax, QWORD PTR p$[rbp]
	inc	rax
	mov	QWORD PTR p$[rbp], rax
	mov	rax, QWORD PTR p$[rbp]
	mov	BYTE PTR [rax], 0
	mov	rax, QWORD PTR p$[rbp]
	inc	rax
	mov	QWORD PTR p$[rbp], rax
	mov	rax, QWORD PTR p$[rbp]
	mov	BYTE PTR [rax], 0
	mov	rax, QWORD PTR p$[rbp]
	inc	rax
	mov	QWORD PTR p$[rbp], rax
	mov	rax, QWORD PTR p$[rbp]
	mov	BYTE PTR [rax], 0
	mov	rax, QWORD PTR p$[rbp]
	inc	rax
	mov	QWORD PTR p$[rbp], rax

; 1516 :             WRITE_4(0); // pre_defined

	mov	rax, QWORD PTR p$[rbp]
	mov	BYTE PTR [rax], 0
	mov	rax, QWORD PTR p$[rbp]
	inc	rax
	mov	QWORD PTR p$[rbp], rax
	mov	rax, QWORD PTR p$[rbp]
	mov	BYTE PTR [rax], 0
	mov	rax, QWORD PTR p$[rbp]
	inc	rax
	mov	QWORD PTR p$[rbp], rax
	mov	rax, QWORD PTR p$[rbp]
	mov	BYTE PTR [rax], 0
	mov	rax, QWORD PTR p$[rbp]
	inc	rax
	mov	QWORD PTR p$[rbp], rax
	mov	rax, QWORD PTR p$[rbp]
	mov	BYTE PTR [rax], 0
	mov	rax, QWORD PTR p$[rbp]
	inc	rax
	mov	QWORD PTR p$[rbp], rax

; 1517 :             WRITE_4(0); // pre_defined

	mov	rax, QWORD PTR p$[rbp]
	mov	BYTE PTR [rax], 0
	mov	rax, QWORD PTR p$[rbp]
	inc	rax
	mov	QWORD PTR p$[rbp], rax
	mov	rax, QWORD PTR p$[rbp]
	mov	BYTE PTR [rax], 0
	mov	rax, QWORD PTR p$[rbp]
	inc	rax
	mov	QWORD PTR p$[rbp], rax
	mov	rax, QWORD PTR p$[rbp]
	mov	BYTE PTR [rax], 0
	mov	rax, QWORD PTR p$[rbp]
	inc	rax
	mov	QWORD PTR p$[rbp], rax
	mov	rax, QWORD PTR p$[rbp]
	mov	BYTE PTR [rax], 0
	mov	rax, QWORD PTR p$[rbp]
	inc	rax
	mov	QWORD PTR p$[rbp], rax

; 1518 :             WRITE_2(tr->info.u.v.width);

	mov	rax, QWORD PTR tr$8[rbp]
	mov	eax, DWORD PTR [rax+20]
	sar	eax, 8
	mov	rcx, QWORD PTR p$[rbp]
	mov	BYTE PTR [rcx], al
	mov	rax, QWORD PTR p$[rbp]
	inc	rax
	mov	QWORD PTR p$[rbp], rax
	mov	rax, QWORD PTR p$[rbp]
	mov	rcx, QWORD PTR tr$8[rbp]
	movzx	ecx, BYTE PTR [rcx+20]
	mov	BYTE PTR [rax], cl
	mov	rax, QWORD PTR p$[rbp]
	inc	rax
	mov	QWORD PTR p$[rbp], rax

; 1519 :             WRITE_2(tr->info.u.v.height);

	mov	rax, QWORD PTR tr$8[rbp]
	mov	eax, DWORD PTR [rax+24]
	sar	eax, 8
	mov	rcx, QWORD PTR p$[rbp]
	mov	BYTE PTR [rcx], al
	mov	rax, QWORD PTR p$[rbp]
	inc	rax
	mov	QWORD PTR p$[rbp], rax
	mov	rax, QWORD PTR p$[rbp]
	mov	rcx, QWORD PTR tr$8[rbp]
	movzx	ecx, BYTE PTR [rcx+24]
	mov	BYTE PTR [rax], cl
	mov	rax, QWORD PTR p$[rbp]
	inc	rax
	mov	QWORD PTR p$[rbp], rax

; 1520 :             WRITE_4(0x00480000); // horizresolution = 72 dpi

	mov	rax, QWORD PTR p$[rbp]
	mov	BYTE PTR [rax], 0
	mov	rax, QWORD PTR p$[rbp]
	inc	rax
	mov	QWORD PTR p$[rbp], rax
	mov	rax, QWORD PTR p$[rbp]
	mov	BYTE PTR [rax], 72			; 00000048H
	mov	rax, QWORD PTR p$[rbp]
	inc	rax
	mov	QWORD PTR p$[rbp], rax
	mov	rax, QWORD PTR p$[rbp]
	mov	BYTE PTR [rax], 0
	mov	rax, QWORD PTR p$[rbp]
	inc	rax
	mov	QWORD PTR p$[rbp], rax
	mov	rax, QWORD PTR p$[rbp]
	mov	BYTE PTR [rax], 0
	mov	rax, QWORD PTR p$[rbp]
	inc	rax
	mov	QWORD PTR p$[rbp], rax

; 1521 :             WRITE_4(0x00480000); // vertresolution  = 72 dpi

	mov	rax, QWORD PTR p$[rbp]
	mov	BYTE PTR [rax], 0
	mov	rax, QWORD PTR p$[rbp]
	inc	rax
	mov	QWORD PTR p$[rbp], rax
	mov	rax, QWORD PTR p$[rbp]
	mov	BYTE PTR [rax], 72			; 00000048H
	mov	rax, QWORD PTR p$[rbp]
	inc	rax
	mov	QWORD PTR p$[rbp], rax
	mov	rax, QWORD PTR p$[rbp]
	mov	BYTE PTR [rax], 0
	mov	rax, QWORD PTR p$[rbp]
	inc	rax
	mov	QWORD PTR p$[rbp], rax
	mov	rax, QWORD PTR p$[rbp]
	mov	BYTE PTR [rax], 0
	mov	rax, QWORD PTR p$[rbp]
	inc	rax
	mov	QWORD PTR p$[rbp], rax

; 1522 :             WRITE_4(0); // reserved

	mov	rax, QWORD PTR p$[rbp]
	mov	BYTE PTR [rax], 0
	mov	rax, QWORD PTR p$[rbp]
	inc	rax
	mov	QWORD PTR p$[rbp], rax
	mov	rax, QWORD PTR p$[rbp]
	mov	BYTE PTR [rax], 0
	mov	rax, QWORD PTR p$[rbp]
	inc	rax
	mov	QWORD PTR p$[rbp], rax
	mov	rax, QWORD PTR p$[rbp]
	mov	BYTE PTR [rax], 0
	mov	rax, QWORD PTR p$[rbp]
	inc	rax
	mov	QWORD PTR p$[rbp], rax
	mov	rax, QWORD PTR p$[rbp]
	mov	BYTE PTR [rax], 0
	mov	rax, QWORD PTR p$[rbp]
	inc	rax
	mov	QWORD PTR p$[rbp], rax

; 1523 :             WRITE_2(1); // frame_count

	mov	rax, QWORD PTR p$[rbp]
	mov	BYTE PTR [rax], 0
	mov	rax, QWORD PTR p$[rbp]
	inc	rax
	mov	QWORD PTR p$[rbp], rax
	mov	rax, QWORD PTR p$[rbp]
	mov	BYTE PTR [rax], 1
	mov	rax, QWORD PTR p$[rbp]
	inc	rax
	mov	QWORD PTR p$[rbp], rax

; 1524 :             for (i = 0; i < 32; i++)

	mov	DWORD PTR i$[rbp], 0
	jmp	SHORT $LN27@mp4e_flush
$LN25@mp4e_flush:
	mov	eax, DWORD PTR i$[rbp]
	inc	eax
	mov	DWORD PTR i$[rbp], eax
$LN27@mp4e_flush:
	cmp	DWORD PTR i$[rbp], 32			; 00000020H
	jge	SHORT $LN26@mp4e_flush

; 1525 :             {
; 1526 :                 WRITE_1(0); //  compressorname

	mov	rax, QWORD PTR p$[rbp]
	mov	BYTE PTR [rax], 0
	mov	rax, QWORD PTR p$[rbp]
	inc	rax
	mov	QWORD PTR p$[rbp], rax

; 1527 :             }

	jmp	SHORT $LN25@mp4e_flush
$LN26@mp4e_flush:

; 1528 :             WRITE_2(24); // depth

	mov	rax, QWORD PTR p$[rbp]
	mov	BYTE PTR [rax], 0
	mov	rax, QWORD PTR p$[rbp]
	inc	rax
	mov	QWORD PTR p$[rbp], rax
	mov	rax, QWORD PTR p$[rbp]
	mov	BYTE PTR [rax], 24
	mov	rax, QWORD PTR p$[rbp]
	inc	rax
	mov	QWORD PTR p$[rbp], rax

; 1529 :             WRITE_2(-1); // pre_defined

	mov	rax, QWORD PTR p$[rbp]
	mov	BYTE PTR [rax], 255			; 000000ffH
	mov	rax, QWORD PTR p$[rbp]
	inc	rax
	mov	QWORD PTR p$[rbp], rax
	mov	rax, QWORD PTR p$[rbp]
	mov	BYTE PTR [rax], 255			; 000000ffH
	mov	rax, QWORD PTR p$[rbp]
	inc	rax
	mov	QWORD PTR p$[rbp], rax

; 1530 : 
; 1531 :             if (MP4_OBJECT_TYPE_AVC == tr->info.object_type_indication)

	mov	rax, QWORD PTR tr$8[rbp]
	cmp	DWORD PTR [rax], 33			; 00000021H
	jne	$LN104@mp4e_flush

; 1532 :             {
; 1533 :                 ATOM(BOX_avcC);

	mov	rax, QWORD PTR stack$[rbp]
	mov	rcx, QWORD PTR p$[rbp]
	mov	QWORD PTR [rax], rcx
	mov	rax, QWORD PTR stack$[rbp]
	add	rax, 8
	mov	QWORD PTR stack$[rbp], rax
	mov	rax, QWORD PTR p$[rbp]
	add	rax, 4
	mov	QWORD PTR p$[rbp], rax
	mov	rax, QWORD PTR p$[rbp]
	mov	BYTE PTR [rax], 97			; 00000061H
	mov	rax, QWORD PTR p$[rbp]
	inc	rax
	mov	QWORD PTR p$[rbp], rax
	mov	rax, QWORD PTR p$[rbp]
	mov	BYTE PTR [rax], 118			; 00000076H
	mov	rax, QWORD PTR p$[rbp]
	inc	rax
	mov	QWORD PTR p$[rbp], rax
	mov	rax, QWORD PTR p$[rbp]
	mov	BYTE PTR [rax], 99			; 00000063H
	mov	rax, QWORD PTR p$[rbp]
	inc	rax
	mov	QWORD PTR p$[rbp], rax
	mov	rax, QWORD PTR p$[rbp]
	mov	BYTE PTR [rax], 67			; 00000043H
	mov	rax, QWORD PTR p$[rbp]
	inc	rax
	mov	QWORD PTR p$[rbp], rax

; 1534 :                 // AVCDecoderConfigurationRecord 5.2.4.1.1
; 1535 :                 WRITE_1(1); // configurationVersion

	mov	rax, QWORD PTR p$[rbp]
	mov	BYTE PTR [rax], 1
	mov	rax, QWORD PTR p$[rbp]
	inc	rax
	mov	QWORD PTR p$[rbp], rax

; 1536 :                 WRITE_1(tr->vsps.data[2 + 1]);

	mov	eax, 1
	imul	rax, rax, 3
	mov	rcx, QWORD PTR tr$8[rbp]
	mov	rcx, QWORD PTR [rcx+64]
	mov	rdx, QWORD PTR p$[rbp]
	movzx	eax, BYTE PTR [rax+rcx]
	mov	BYTE PTR [rdx], al
	mov	rax, QWORD PTR p$[rbp]
	inc	rax
	mov	QWORD PTR p$[rbp], rax

; 1537 :                 WRITE_1(tr->vsps.data[2 + 2]);

	mov	eax, 1
	imul	rax, rax, 4
	mov	rcx, QWORD PTR tr$8[rbp]
	mov	rcx, QWORD PTR [rcx+64]
	mov	rdx, QWORD PTR p$[rbp]
	movzx	eax, BYTE PTR [rax+rcx]
	mov	BYTE PTR [rdx], al
	mov	rax, QWORD PTR p$[rbp]
	inc	rax
	mov	QWORD PTR p$[rbp], rax

; 1538 :                 WRITE_1(tr->vsps.data[2 + 3]);

	mov	eax, 1
	imul	rax, rax, 5
	mov	rcx, QWORD PTR tr$8[rbp]
	mov	rcx, QWORD PTR [rcx+64]
	mov	rdx, QWORD PTR p$[rbp]
	movzx	eax, BYTE PTR [rax+rcx]
	mov	BYTE PTR [rdx], al
	mov	rax, QWORD PTR p$[rbp]
	inc	rax
	mov	QWORD PTR p$[rbp], rax

; 1539 :                 WRITE_1(255); // 0xfc + NALU_len - 1

	mov	rax, QWORD PTR p$[rbp]
	mov	BYTE PTR [rax], 255			; 000000ffH
	mov	rax, QWORD PTR p$[rbp]
	inc	rax
	mov	QWORD PTR p$[rbp], rax

; 1540 :                 WRITE_1(0xe0 | numOfSequenceParameterSets);

	mov	eax, DWORD PTR numOfSequenceParameterSets$20[rbp]
	or	eax, 224				; 000000e0H
	mov	rcx, QWORD PTR p$[rbp]
	mov	BYTE PTR [rcx], al
	mov	rax, QWORD PTR p$[rbp]
	inc	rax
	mov	QWORD PTR p$[rbp], rax

; 1541 :                 for (i = 0; i < tr->vsps.bytes; i++)

	mov	DWORD PTR i$[rbp], 0
	jmp	SHORT $LN30@mp4e_flush
$LN28@mp4e_flush:
	mov	eax, DWORD PTR i$[rbp]
	inc	eax
	mov	DWORD PTR i$[rbp], eax
$LN30@mp4e_flush:
	mov	rax, QWORD PTR tr$8[rbp]
	mov	eax, DWORD PTR [rax+72]
	cmp	DWORD PTR i$[rbp], eax
	jge	SHORT $LN29@mp4e_flush

; 1542 :                 {
; 1543 :                     WRITE_1(tr->vsps.data[i]);

	movsxd	rax, DWORD PTR i$[rbp]
	mov	rcx, QWORD PTR tr$8[rbp]
	mov	rcx, QWORD PTR [rcx+64]
	mov	rdx, QWORD PTR p$[rbp]
	movzx	eax, BYTE PTR [rcx+rax]
	mov	BYTE PTR [rdx], al
	mov	rax, QWORD PTR p$[rbp]
	inc	rax
	mov	QWORD PTR p$[rbp], rax

; 1544 :                 }

	jmp	SHORT $LN28@mp4e_flush
$LN29@mp4e_flush:

; 1545 :                 WRITE_1(numOfPictureParameterSets);

	mov	rax, QWORD PTR p$[rbp]
	movzx	ecx, BYTE PTR numOfPictureParameterSets$21[rbp]
	mov	BYTE PTR [rax], cl
	mov	rax, QWORD PTR p$[rbp]
	inc	rax
	mov	QWORD PTR p$[rbp], rax

; 1546 :                 for (i = 0; i < tr->vpps.bytes; i++)

	mov	DWORD PTR i$[rbp], 0
	jmp	SHORT $LN33@mp4e_flush
$LN31@mp4e_flush:
	mov	eax, DWORD PTR i$[rbp]
	inc	eax
	mov	DWORD PTR i$[rbp], eax
$LN33@mp4e_flush:
	mov	rax, QWORD PTR tr$8[rbp]
	mov	eax, DWORD PTR [rax+88]
	cmp	DWORD PTR i$[rbp], eax
	jge	SHORT $LN32@mp4e_flush

; 1547 :                 {
; 1548 :                     WRITE_1(tr->vpps.data[i]);

	movsxd	rax, DWORD PTR i$[rbp]
	mov	rcx, QWORD PTR tr$8[rbp]
	mov	rcx, QWORD PTR [rcx+80]
	mov	rdx, QWORD PTR p$[rbp]
	movzx	eax, BYTE PTR [rcx+rax]
	mov	BYTE PTR [rdx], al
	mov	rax, QWORD PTR p$[rbp]
	inc	rax
	mov	QWORD PTR p$[rbp], rax

; 1549 :                 }

	jmp	SHORT $LN31@mp4e_flush
$LN32@mp4e_flush:

; 1550 :             }

	jmp	$LN105@mp4e_flush
$LN104@mp4e_flush:

; 1551 :             else
; 1552 :             {
; 1553 :                 int numOfVPS = items_count(&tr->vpps);

	mov	rax, QWORD PTR tr$8[rbp]
	add	rax, 80					; 00000050H
	mov	rcx, rax
	call	?items_count@@YAHPEAUminimp4_vector_t@@@Z ; items_count
	mov	DWORD PTR numOfVPS$22[rbp], eax

; 1554 :                 ATOM(BOX_hvcC);

	mov	rax, QWORD PTR stack$[rbp]
	mov	rcx, QWORD PTR p$[rbp]
	mov	QWORD PTR [rax], rcx
	mov	rax, QWORD PTR stack$[rbp]
	add	rax, 8
	mov	QWORD PTR stack$[rbp], rax
	mov	rax, QWORD PTR p$[rbp]
	add	rax, 4
	mov	QWORD PTR p$[rbp], rax
	mov	rax, QWORD PTR p$[rbp]
	mov	BYTE PTR [rax], 104			; 00000068H
	mov	rax, QWORD PTR p$[rbp]
	inc	rax
	mov	QWORD PTR p$[rbp], rax
	mov	rax, QWORD PTR p$[rbp]
	mov	BYTE PTR [rax], 118			; 00000076H
	mov	rax, QWORD PTR p$[rbp]
	inc	rax
	mov	QWORD PTR p$[rbp], rax
	mov	rax, QWORD PTR p$[rbp]
	mov	BYTE PTR [rax], 99			; 00000063H
	mov	rax, QWORD PTR p$[rbp]
	inc	rax
	mov	QWORD PTR p$[rbp], rax
	mov	rax, QWORD PTR p$[rbp]
	mov	BYTE PTR [rax], 67			; 00000043H
	mov	rax, QWORD PTR p$[rbp]
	inc	rax
	mov	QWORD PTR p$[rbp], rax

; 1555 :                 // TODO: read actual params from stream
; 1556 :                 WRITE_1(1);    // configurationVersion

	mov	rax, QWORD PTR p$[rbp]
	mov	BYTE PTR [rax], 1
	mov	rax, QWORD PTR p$[rbp]
	inc	rax
	mov	QWORD PTR p$[rbp], rax

; 1557 :                 WRITE_1(1);    // Profile Space (2), Tier (1), Profile (5)

	mov	rax, QWORD PTR p$[rbp]
	mov	BYTE PTR [rax], 1
	mov	rax, QWORD PTR p$[rbp]
	inc	rax
	mov	QWORD PTR p$[rbp], rax

; 1558 :                 WRITE_4(0x60000000); // Profile Compatibility

	mov	rax, QWORD PTR p$[rbp]
	mov	BYTE PTR [rax], 96			; 00000060H
	mov	rax, QWORD PTR p$[rbp]
	inc	rax
	mov	QWORD PTR p$[rbp], rax
	mov	rax, QWORD PTR p$[rbp]
	mov	BYTE PTR [rax], 0
	mov	rax, QWORD PTR p$[rbp]
	inc	rax
	mov	QWORD PTR p$[rbp], rax
	mov	rax, QWORD PTR p$[rbp]
	mov	BYTE PTR [rax], 0
	mov	rax, QWORD PTR p$[rbp]
	inc	rax
	mov	QWORD PTR p$[rbp], rax
	mov	rax, QWORD PTR p$[rbp]
	mov	BYTE PTR [rax], 0
	mov	rax, QWORD PTR p$[rbp]
	inc	rax
	mov	QWORD PTR p$[rbp], rax

; 1559 :                 WRITE_2(0);    // progressive, interlaced, non packed constraint, frame only constraint flags

	mov	rax, QWORD PTR p$[rbp]
	mov	BYTE PTR [rax], 0
	mov	rax, QWORD PTR p$[rbp]
	inc	rax
	mov	QWORD PTR p$[rbp], rax
	mov	rax, QWORD PTR p$[rbp]
	mov	BYTE PTR [rax], 0
	mov	rax, QWORD PTR p$[rbp]
	inc	rax
	mov	QWORD PTR p$[rbp], rax

; 1560 :                 WRITE_4(0);    // constraint indicator flags

	mov	rax, QWORD PTR p$[rbp]
	mov	BYTE PTR [rax], 0
	mov	rax, QWORD PTR p$[rbp]
	inc	rax
	mov	QWORD PTR p$[rbp], rax
	mov	rax, QWORD PTR p$[rbp]
	mov	BYTE PTR [rax], 0
	mov	rax, QWORD PTR p$[rbp]
	inc	rax
	mov	QWORD PTR p$[rbp], rax
	mov	rax, QWORD PTR p$[rbp]
	mov	BYTE PTR [rax], 0
	mov	rax, QWORD PTR p$[rbp]
	inc	rax
	mov	QWORD PTR p$[rbp], rax
	mov	rax, QWORD PTR p$[rbp]
	mov	BYTE PTR [rax], 0
	mov	rax, QWORD PTR p$[rbp]
	inc	rax
	mov	QWORD PTR p$[rbp], rax

; 1561 :                 WRITE_1(0);    // level_idc

	mov	rax, QWORD PTR p$[rbp]
	mov	BYTE PTR [rax], 0
	mov	rax, QWORD PTR p$[rbp]
	inc	rax
	mov	QWORD PTR p$[rbp], rax

; 1562 :                 WRITE_2(0xf000); // Min Spatial Segmentation

	mov	rax, QWORD PTR p$[rbp]
	mov	BYTE PTR [rax], 240			; 000000f0H
	mov	rax, QWORD PTR p$[rbp]
	inc	rax
	mov	QWORD PTR p$[rbp], rax
	mov	rax, QWORD PTR p$[rbp]
	mov	BYTE PTR [rax], 0
	mov	rax, QWORD PTR p$[rbp]
	inc	rax
	mov	QWORD PTR p$[rbp], rax

; 1563 :                 WRITE_1(0xfc); // Parallelism Type

	mov	rax, QWORD PTR p$[rbp]
	mov	BYTE PTR [rax], 252			; 000000fcH
	mov	rax, QWORD PTR p$[rbp]
	inc	rax
	mov	QWORD PTR p$[rbp], rax

; 1564 :                 WRITE_1(0xfc); // Chroma Format

	mov	rax, QWORD PTR p$[rbp]
	mov	BYTE PTR [rax], 252			; 000000fcH
	mov	rax, QWORD PTR p$[rbp]
	inc	rax
	mov	QWORD PTR p$[rbp], rax

; 1565 :                 WRITE_1(0xf8); // Luma Depth

	mov	rax, QWORD PTR p$[rbp]
	mov	BYTE PTR [rax], 248			; 000000f8H
	mov	rax, QWORD PTR p$[rbp]
	inc	rax
	mov	QWORD PTR p$[rbp], rax

; 1566 :                 WRITE_1(0xf8); // Chroma Depth

	mov	rax, QWORD PTR p$[rbp]
	mov	BYTE PTR [rax], 248			; 000000f8H
	mov	rax, QWORD PTR p$[rbp]
	inc	rax
	mov	QWORD PTR p$[rbp], rax

; 1567 :                 WRITE_2(0);    // Avg Frame Rate

	mov	rax, QWORD PTR p$[rbp]
	mov	BYTE PTR [rax], 0
	mov	rax, QWORD PTR p$[rbp]
	inc	rax
	mov	QWORD PTR p$[rbp], rax
	mov	rax, QWORD PTR p$[rbp]
	mov	BYTE PTR [rax], 0
	mov	rax, QWORD PTR p$[rbp]
	inc	rax
	mov	QWORD PTR p$[rbp], rax

; 1568 :                 WRITE_1(3);    // ConstantFrameRate (2), NumTemporalLayers (3), TemporalIdNested (1), LengthSizeMinusOne (2)

	mov	rax, QWORD PTR p$[rbp]
	mov	BYTE PTR [rax], 3
	mov	rax, QWORD PTR p$[rbp]
	inc	rax
	mov	QWORD PTR p$[rbp], rax

; 1569 : 
; 1570 :                 WRITE_1(3);    // Num Of Arrays

	mov	rax, QWORD PTR p$[rbp]
	mov	BYTE PTR [rax], 3
	mov	rax, QWORD PTR p$[rbp]
	inc	rax
	mov	QWORD PTR p$[rbp], rax

; 1571 :                 WRITE_1((1 << 7) | (HEVC_NAL_VPS & 0x3f)); // Array Completeness + NAL Unit Type

	mov	rax, QWORD PTR p$[rbp]
	mov	BYTE PTR [rax], 160			; 000000a0H
	mov	rax, QWORD PTR p$[rbp]
	inc	rax
	mov	QWORD PTR p$[rbp], rax

; 1572 :                 WRITE_2(numOfVPS);

	mov	eax, DWORD PTR numOfVPS$22[rbp]
	sar	eax, 8
	mov	rcx, QWORD PTR p$[rbp]
	mov	BYTE PTR [rcx], al
	mov	rax, QWORD PTR p$[rbp]
	inc	rax
	mov	QWORD PTR p$[rbp], rax
	mov	rax, QWORD PTR p$[rbp]
	movzx	ecx, BYTE PTR numOfVPS$22[rbp]
	mov	BYTE PTR [rax], cl
	mov	rax, QWORD PTR p$[rbp]
	inc	rax
	mov	QWORD PTR p$[rbp], rax

; 1573 :                 for (i = 0; i < tr->vvps.bytes; i++)

	mov	DWORD PTR i$[rbp], 0
	jmp	SHORT $LN36@mp4e_flush
$LN34@mp4e_flush:
	mov	eax, DWORD PTR i$[rbp]
	inc	eax
	mov	DWORD PTR i$[rbp], eax
$LN36@mp4e_flush:
	mov	rax, QWORD PTR tr$8[rbp]
	mov	eax, DWORD PTR [rax+104]
	cmp	DWORD PTR i$[rbp], eax
	jge	SHORT $LN35@mp4e_flush

; 1574 :                 {
; 1575 :                     WRITE_1(tr->vvps.data[i]);

	movsxd	rax, DWORD PTR i$[rbp]
	mov	rcx, QWORD PTR tr$8[rbp]
	mov	rcx, QWORD PTR [rcx+96]
	mov	rdx, QWORD PTR p$[rbp]
	movzx	eax, BYTE PTR [rcx+rax]
	mov	BYTE PTR [rdx], al
	mov	rax, QWORD PTR p$[rbp]
	inc	rax
	mov	QWORD PTR p$[rbp], rax

; 1576 :                 }

	jmp	SHORT $LN34@mp4e_flush
$LN35@mp4e_flush:

; 1577 :                 WRITE_1((1 << 7) | (HEVC_NAL_SPS & 0x3f));

	mov	rax, QWORD PTR p$[rbp]
	mov	BYTE PTR [rax], 161			; 000000a1H
	mov	rax, QWORD PTR p$[rbp]
	inc	rax
	mov	QWORD PTR p$[rbp], rax

; 1578 :                 WRITE_2(numOfSequenceParameterSets);

	mov	eax, DWORD PTR numOfSequenceParameterSets$20[rbp]
	sar	eax, 8
	mov	rcx, QWORD PTR p$[rbp]
	mov	BYTE PTR [rcx], al
	mov	rax, QWORD PTR p$[rbp]
	inc	rax
	mov	QWORD PTR p$[rbp], rax
	mov	rax, QWORD PTR p$[rbp]
	movzx	ecx, BYTE PTR numOfSequenceParameterSets$20[rbp]
	mov	BYTE PTR [rax], cl
	mov	rax, QWORD PTR p$[rbp]
	inc	rax
	mov	QWORD PTR p$[rbp], rax

; 1579 :                 for (i = 0; i < tr->vsps.bytes; i++)

	mov	DWORD PTR i$[rbp], 0
	jmp	SHORT $LN39@mp4e_flush
$LN37@mp4e_flush:
	mov	eax, DWORD PTR i$[rbp]
	inc	eax
	mov	DWORD PTR i$[rbp], eax
$LN39@mp4e_flush:
	mov	rax, QWORD PTR tr$8[rbp]
	mov	eax, DWORD PTR [rax+72]
	cmp	DWORD PTR i$[rbp], eax
	jge	SHORT $LN38@mp4e_flush

; 1580 :                 {
; 1581 :                     WRITE_1(tr->vsps.data[i]);

	movsxd	rax, DWORD PTR i$[rbp]
	mov	rcx, QWORD PTR tr$8[rbp]
	mov	rcx, QWORD PTR [rcx+64]
	mov	rdx, QWORD PTR p$[rbp]
	movzx	eax, BYTE PTR [rcx+rax]
	mov	BYTE PTR [rdx], al
	mov	rax, QWORD PTR p$[rbp]
	inc	rax
	mov	QWORD PTR p$[rbp], rax

; 1582 :                 }

	jmp	SHORT $LN37@mp4e_flush
$LN38@mp4e_flush:

; 1583 :                 WRITE_1((1 << 7) | (HEVC_NAL_PPS & 0x3f));

	mov	rax, QWORD PTR p$[rbp]
	mov	BYTE PTR [rax], 162			; 000000a2H
	mov	rax, QWORD PTR p$[rbp]
	inc	rax
	mov	QWORD PTR p$[rbp], rax

; 1584 :                 WRITE_2(numOfPictureParameterSets);

	mov	eax, DWORD PTR numOfPictureParameterSets$21[rbp]
	sar	eax, 8
	mov	rcx, QWORD PTR p$[rbp]
	mov	BYTE PTR [rcx], al
	mov	rax, QWORD PTR p$[rbp]
	inc	rax
	mov	QWORD PTR p$[rbp], rax
	mov	rax, QWORD PTR p$[rbp]
	movzx	ecx, BYTE PTR numOfPictureParameterSets$21[rbp]
	mov	BYTE PTR [rax], cl
	mov	rax, QWORD PTR p$[rbp]
	inc	rax
	mov	QWORD PTR p$[rbp], rax

; 1585 :                 for (i = 0; i < tr->vpps.bytes; i++)

	mov	DWORD PTR i$[rbp], 0
	jmp	SHORT $LN42@mp4e_flush
$LN40@mp4e_flush:
	mov	eax, DWORD PTR i$[rbp]
	inc	eax
	mov	DWORD PTR i$[rbp], eax
$LN42@mp4e_flush:
	mov	rax, QWORD PTR tr$8[rbp]
	mov	eax, DWORD PTR [rax+88]
	cmp	DWORD PTR i$[rbp], eax
	jge	SHORT $LN41@mp4e_flush

; 1586 :                 {
; 1587 :                     WRITE_1(tr->vpps.data[i]);

	movsxd	rax, DWORD PTR i$[rbp]
	mov	rcx, QWORD PTR tr$8[rbp]
	mov	rcx, QWORD PTR [rcx+80]
	mov	rdx, QWORD PTR p$[rbp]
	movzx	eax, BYTE PTR [rcx+rax]
	mov	BYTE PTR [rdx], al
	mov	rax, QWORD PTR p$[rbp]
	inc	rax
	mov	QWORD PTR p$[rbp], rax

; 1588 :                 }

	jmp	SHORT $LN40@mp4e_flush
$LN41@mp4e_flush:
$LN105@mp4e_flush:

; 1589 :             }
; 1590 : 
; 1591 :             END_ATOM;

	mov	rax, QWORD PTR stack$[rbp]
	sub	rax, 8
	mov	QWORD PTR stack$[rbp], rax
	mov	rax, QWORD PTR stack$[rbp]
	mov	rax, QWORD PTR [rax]
	mov	rcx, QWORD PTR p$[rbp]
	sub	rcx, rax
	mov	rax, rcx
	sar	rax, 24
	mov	ecx, 1
	imul	rcx, rcx, 0
	mov	rdx, QWORD PTR stack$[rbp]
	mov	rdx, QWORD PTR [rdx]
	mov	BYTE PTR [rcx+rdx], al
	mov	rax, QWORD PTR stack$[rbp]
	mov	rax, QWORD PTR [rax]
	mov	rcx, QWORD PTR p$[rbp]
	sub	rcx, rax
	mov	rax, rcx
	sar	rax, 16
	mov	ecx, 1
	imul	rcx, rcx, 1
	mov	rdx, QWORD PTR stack$[rbp]
	mov	rdx, QWORD PTR [rdx]
	mov	BYTE PTR [rcx+rdx], al
	mov	rax, QWORD PTR stack$[rbp]
	mov	rax, QWORD PTR [rax]
	mov	rcx, QWORD PTR p$[rbp]
	sub	rcx, rax
	mov	rax, rcx
	sar	rax, 8
	mov	ecx, 1
	imul	rcx, rcx, 2
	mov	rdx, QWORD PTR stack$[rbp]
	mov	rdx, QWORD PTR [rdx]
	mov	BYTE PTR [rcx+rdx], al
	mov	rax, QWORD PTR stack$[rbp]
	mov	rax, QWORD PTR [rax]
	mov	rcx, QWORD PTR p$[rbp]
	sub	rcx, rax
	mov	rax, rcx
	mov	ecx, 1
	imul	rcx, rcx, 3
	mov	rdx, QWORD PTR stack$[rbp]
	mov	rdx, QWORD PTR [rdx]
	mov	BYTE PTR [rcx+rdx], al

; 1592 :             END_ATOM;

	mov	rax, QWORD PTR stack$[rbp]
	sub	rax, 8
	mov	QWORD PTR stack$[rbp], rax
	mov	rax, QWORD PTR stack$[rbp]
	mov	rax, QWORD PTR [rax]
	mov	rcx, QWORD PTR p$[rbp]
	sub	rcx, rax
	mov	rax, rcx
	sar	rax, 24
	mov	ecx, 1
	imul	rcx, rcx, 0
	mov	rdx, QWORD PTR stack$[rbp]
	mov	rdx, QWORD PTR [rdx]
	mov	BYTE PTR [rcx+rdx], al
	mov	rax, QWORD PTR stack$[rbp]
	mov	rax, QWORD PTR [rax]
	mov	rcx, QWORD PTR p$[rbp]
	sub	rcx, rax
	mov	rax, rcx
	sar	rax, 16
	mov	ecx, 1
	imul	rcx, rcx, 1
	mov	rdx, QWORD PTR stack$[rbp]
	mov	rdx, QWORD PTR [rdx]
	mov	BYTE PTR [rcx+rdx], al
	mov	rax, QWORD PTR stack$[rbp]
	mov	rax, QWORD PTR [rax]
	mov	rcx, QWORD PTR p$[rbp]
	sub	rcx, rax
	mov	rax, rcx
	sar	rax, 8
	mov	ecx, 1
	imul	rcx, rcx, 2
	mov	rdx, QWORD PTR stack$[rbp]
	mov	rdx, QWORD PTR [rdx]
	mov	BYTE PTR [rcx+rdx], al
	mov	rax, QWORD PTR stack$[rbp]
	mov	rax, QWORD PTR [rax]
	mov	rcx, QWORD PTR p$[rbp]
	sub	rcx, rax
	mov	rax, rcx
	mov	ecx, 1
	imul	rcx, rcx, 3
	mov	rdx, QWORD PTR stack$[rbp]
	mov	rdx, QWORD PTR [rdx]
	mov	BYTE PTR [rcx+rdx], al
$LN100@mp4e_flush:

; 1593 :         }
; 1594 :         END_ATOM;

	mov	rax, QWORD PTR stack$[rbp]
	sub	rax, 8
	mov	QWORD PTR stack$[rbp], rax
	mov	rax, QWORD PTR stack$[rbp]
	mov	rax, QWORD PTR [rax]
	mov	rcx, QWORD PTR p$[rbp]
	sub	rcx, rax
	mov	rax, rcx
	sar	rax, 24
	mov	ecx, 1
	imul	rcx, rcx, 0
	mov	rdx, QWORD PTR stack$[rbp]
	mov	rdx, QWORD PTR [rdx]
	mov	BYTE PTR [rcx+rdx], al
	mov	rax, QWORD PTR stack$[rbp]
	mov	rax, QWORD PTR [rax]
	mov	rcx, QWORD PTR p$[rbp]
	sub	rcx, rax
	mov	rax, rcx
	sar	rax, 16
	mov	ecx, 1
	imul	rcx, rcx, 1
	mov	rdx, QWORD PTR stack$[rbp]
	mov	rdx, QWORD PTR [rdx]
	mov	BYTE PTR [rcx+rdx], al
	mov	rax, QWORD PTR stack$[rbp]
	mov	rax, QWORD PTR [rax]
	mov	rcx, QWORD PTR p$[rbp]
	sub	rcx, rax
	mov	rax, rcx
	sar	rax, 8
	mov	ecx, 1
	imul	rcx, rcx, 2
	mov	rdx, QWORD PTR stack$[rbp]
	mov	rdx, QWORD PTR [rdx]
	mov	BYTE PTR [rcx+rdx], al
	mov	rax, QWORD PTR stack$[rbp]
	mov	rax, QWORD PTR [rax]
	mov	rcx, QWORD PTR p$[rbp]
	sub	rcx, rax
	mov	rax, rcx
	mov	ecx, 1
	imul	rcx, rcx, 3
	mov	rdx, QWORD PTR stack$[rbp]
	mov	rdx, QWORD PTR [rdx]
	mov	BYTE PTR [rcx+rdx], al

; 1595 : 
; 1596 :         /************************************************************************/
; 1597 :         /*      indexes                                                         */
; 1598 :         /************************************************************************/
; 1599 : 
; 1600 :         // Time to Sample Box
; 1601 :         ATOM_FULL(BOX_stts, 0);

	mov	rax, QWORD PTR stack$[rbp]
	mov	rcx, QWORD PTR p$[rbp]
	mov	QWORD PTR [rax], rcx
	mov	rax, QWORD PTR stack$[rbp]
	add	rax, 8
	mov	QWORD PTR stack$[rbp], rax
	mov	rax, QWORD PTR p$[rbp]
	add	rax, 4
	mov	QWORD PTR p$[rbp], rax
	mov	rax, QWORD PTR p$[rbp]
	mov	BYTE PTR [rax], 115			; 00000073H
	mov	rax, QWORD PTR p$[rbp]
	inc	rax
	mov	QWORD PTR p$[rbp], rax
	mov	rax, QWORD PTR p$[rbp]
	mov	BYTE PTR [rax], 116			; 00000074H
	mov	rax, QWORD PTR p$[rbp]
	inc	rax
	mov	QWORD PTR p$[rbp], rax
	mov	rax, QWORD PTR p$[rbp]
	mov	BYTE PTR [rax], 116			; 00000074H
	mov	rax, QWORD PTR p$[rbp]
	inc	rax
	mov	QWORD PTR p$[rbp], rax
	mov	rax, QWORD PTR p$[rbp]
	mov	BYTE PTR [rax], 115			; 00000073H
	mov	rax, QWORD PTR p$[rbp]
	inc	rax
	mov	QWORD PTR p$[rbp], rax
	mov	rax, QWORD PTR p$[rbp]
	mov	BYTE PTR [rax], 0
	mov	rax, QWORD PTR p$[rbp]
	inc	rax
	mov	QWORD PTR p$[rbp], rax
	mov	rax, QWORD PTR p$[rbp]
	mov	BYTE PTR [rax], 0
	mov	rax, QWORD PTR p$[rbp]
	inc	rax
	mov	QWORD PTR p$[rbp], rax
	mov	rax, QWORD PTR p$[rbp]
	mov	BYTE PTR [rax], 0
	mov	rax, QWORD PTR p$[rbp]
	inc	rax
	mov	QWORD PTR p$[rbp], rax
	mov	rax, QWORD PTR p$[rbp]
	mov	BYTE PTR [rax], 0
	mov	rax, QWORD PTR p$[rbp]
	inc	rax
	mov	QWORD PTR p$[rbp], rax

; 1602 :         {
; 1603 :             unsigned char* pentry_count = p;

	mov	rax, QWORD PTR p$[rbp]
	mov	QWORD PTR pentry_count$23[rbp], rax

; 1604 :             int cnt = 1, entry_count = 0;

	mov	DWORD PTR cnt$24[rbp], 1
	mov	DWORD PTR entry_count$25[rbp], 0

; 1605 :             WRITE_4(0);

	mov	rax, QWORD PTR p$[rbp]
	mov	BYTE PTR [rax], 0
	mov	rax, QWORD PTR p$[rbp]
	inc	rax
	mov	QWORD PTR p$[rbp], rax
	mov	rax, QWORD PTR p$[rbp]
	mov	BYTE PTR [rax], 0
	mov	rax, QWORD PTR p$[rbp]
	inc	rax
	mov	QWORD PTR p$[rbp], rax
	mov	rax, QWORD PTR p$[rbp]
	mov	BYTE PTR [rax], 0
	mov	rax, QWORD PTR p$[rbp]
	inc	rax
	mov	QWORD PTR p$[rbp], rax
	mov	rax, QWORD PTR p$[rbp]
	mov	BYTE PTR [rax], 0
	mov	rax, QWORD PTR p$[rbp]
	inc	rax
	mov	QWORD PTR p$[rbp], rax

; 1606 :             for (i = 0; i < samples_count; i++, cnt++)

	mov	DWORD PTR i$[rbp], 0
	jmp	SHORT $LN45@mp4e_flush
$LN43@mp4e_flush:
	mov	eax, DWORD PTR i$[rbp]
	inc	eax
	mov	DWORD PTR i$[rbp], eax
	mov	eax, DWORD PTR cnt$24[rbp]
	inc	eax
	mov	DWORD PTR cnt$24[rbp], eax
$LN45@mp4e_flush:
	mov	eax, DWORD PTR samples_count$10[rbp]
	cmp	DWORD PTR i$[rbp], eax
	jge	$LN44@mp4e_flush

; 1607 :             {
; 1608 :                 if (i == (samples_count - 1) || sample[i].duration != sample[i + 1].duration)

	mov	eax, DWORD PTR samples_count$10[rbp]
	dec	eax
	cmp	DWORD PTR i$[rbp], eax
	je	SHORT $LN107@mp4e_flush
	movsxd	rax, DWORD PTR i$[rbp]
	imul	rax, rax, 24
	mov	ecx, DWORD PTR i$[rbp]
	inc	ecx
	movsxd	rcx, ecx
	imul	rcx, rcx, 24
	mov	rdx, QWORD PTR sample$11[rbp]
	mov	r8, QWORD PTR sample$11[rbp]
	mov	ecx, DWORD PTR [r8+rcx+16]
	cmp	DWORD PTR [rdx+rax+16], ecx
	je	$LN106@mp4e_flush
$LN107@mp4e_flush:

; 1609 :                 {
; 1610 :                     WRITE_4(cnt);

	mov	eax, DWORD PTR cnt$24[rbp]
	sar	eax, 24
	mov	rcx, QWORD PTR p$[rbp]
	mov	BYTE PTR [rcx], al
	mov	rax, QWORD PTR p$[rbp]
	inc	rax
	mov	QWORD PTR p$[rbp], rax
	mov	eax, DWORD PTR cnt$24[rbp]
	sar	eax, 16
	mov	rcx, QWORD PTR p$[rbp]
	mov	BYTE PTR [rcx], al
	mov	rax, QWORD PTR p$[rbp]
	inc	rax
	mov	QWORD PTR p$[rbp], rax
	mov	eax, DWORD PTR cnt$24[rbp]
	sar	eax, 8
	mov	rcx, QWORD PTR p$[rbp]
	mov	BYTE PTR [rcx], al
	mov	rax, QWORD PTR p$[rbp]
	inc	rax
	mov	QWORD PTR p$[rbp], rax
	mov	rax, QWORD PTR p$[rbp]
	movzx	ecx, BYTE PTR cnt$24[rbp]
	mov	BYTE PTR [rax], cl
	mov	rax, QWORD PTR p$[rbp]
	inc	rax
	mov	QWORD PTR p$[rbp], rax

; 1611 :                     WRITE_4(sample[i].duration);

	movsxd	rax, DWORD PTR i$[rbp]
	imul	rax, rax, 24
	mov	rcx, QWORD PTR sample$11[rbp]
	mov	eax, DWORD PTR [rcx+rax+16]
	shr	eax, 24
	mov	rcx, QWORD PTR p$[rbp]
	mov	BYTE PTR [rcx], al
	mov	rax, QWORD PTR p$[rbp]
	inc	rax
	mov	QWORD PTR p$[rbp], rax
	movsxd	rax, DWORD PTR i$[rbp]
	imul	rax, rax, 24
	mov	rcx, QWORD PTR sample$11[rbp]
	mov	eax, DWORD PTR [rcx+rax+16]
	shr	eax, 16
	mov	rcx, QWORD PTR p$[rbp]
	mov	BYTE PTR [rcx], al
	mov	rax, QWORD PTR p$[rbp]
	inc	rax
	mov	QWORD PTR p$[rbp], rax
	movsxd	rax, DWORD PTR i$[rbp]
	imul	rax, rax, 24
	mov	rcx, QWORD PTR sample$11[rbp]
	mov	eax, DWORD PTR [rcx+rax+16]
	shr	eax, 8
	mov	rcx, QWORD PTR p$[rbp]
	mov	BYTE PTR [rcx], al
	mov	rax, QWORD PTR p$[rbp]
	inc	rax
	mov	QWORD PTR p$[rbp], rax
	movsxd	rax, DWORD PTR i$[rbp]
	imul	rax, rax, 24
	mov	rcx, QWORD PTR p$[rbp]
	mov	rdx, QWORD PTR sample$11[rbp]
	movzx	eax, BYTE PTR [rdx+rax+16]
	mov	BYTE PTR [rcx], al
	mov	rax, QWORD PTR p$[rbp]
	inc	rax
	mov	QWORD PTR p$[rbp], rax

; 1612 :                     cnt = 0;

	mov	DWORD PTR cnt$24[rbp], 0

; 1613 :                     entry_count++;

	mov	eax, DWORD PTR entry_count$25[rbp]
	inc	eax
	mov	DWORD PTR entry_count$25[rbp], eax
$LN106@mp4e_flush:

; 1614 :                 }
; 1615 :             }

	jmp	$LN43@mp4e_flush
$LN44@mp4e_flush:

; 1616 :             WR4(pentry_count, entry_count);

	mov	eax, DWORD PTR entry_count$25[rbp]
	sar	eax, 24
	mov	ecx, 1
	imul	rcx, rcx, 0
	mov	rdx, QWORD PTR pentry_count$23[rbp]
	mov	BYTE PTR [rdx+rcx], al
	mov	eax, DWORD PTR entry_count$25[rbp]
	sar	eax, 16
	mov	ecx, 1
	imul	rcx, rcx, 1
	mov	rdx, QWORD PTR pentry_count$23[rbp]
	mov	BYTE PTR [rdx+rcx], al
	mov	eax, DWORD PTR entry_count$25[rbp]
	sar	eax, 8
	mov	ecx, 1
	imul	rcx, rcx, 2
	mov	rdx, QWORD PTR pentry_count$23[rbp]
	mov	BYTE PTR [rdx+rcx], al
	mov	eax, 1
	imul	rax, rax, 3
	mov	rcx, QWORD PTR pentry_count$23[rbp]
	movzx	edx, BYTE PTR entry_count$25[rbp]
	mov	BYTE PTR [rcx+rax], dl

; 1617 :         }
; 1618 :         END_ATOM;

	mov	rax, QWORD PTR stack$[rbp]
	sub	rax, 8
	mov	QWORD PTR stack$[rbp], rax
	mov	rax, QWORD PTR stack$[rbp]
	mov	rax, QWORD PTR [rax]
	mov	rcx, QWORD PTR p$[rbp]
	sub	rcx, rax
	mov	rax, rcx
	sar	rax, 24
	mov	ecx, 1
	imul	rcx, rcx, 0
	mov	rdx, QWORD PTR stack$[rbp]
	mov	rdx, QWORD PTR [rdx]
	mov	BYTE PTR [rcx+rdx], al
	mov	rax, QWORD PTR stack$[rbp]
	mov	rax, QWORD PTR [rax]
	mov	rcx, QWORD PTR p$[rbp]
	sub	rcx, rax
	mov	rax, rcx
	sar	rax, 16
	mov	ecx, 1
	imul	rcx, rcx, 1
	mov	rdx, QWORD PTR stack$[rbp]
	mov	rdx, QWORD PTR [rdx]
	mov	BYTE PTR [rcx+rdx], al
	mov	rax, QWORD PTR stack$[rbp]
	mov	rax, QWORD PTR [rax]
	mov	rcx, QWORD PTR p$[rbp]
	sub	rcx, rax
	mov	rax, rcx
	sar	rax, 8
	mov	ecx, 1
	imul	rcx, rcx, 2
	mov	rdx, QWORD PTR stack$[rbp]
	mov	rdx, QWORD PTR [rdx]
	mov	BYTE PTR [rcx+rdx], al
	mov	rax, QWORD PTR stack$[rbp]
	mov	rax, QWORD PTR [rax]
	mov	rcx, QWORD PTR p$[rbp]
	sub	rcx, rax
	mov	rax, rcx
	mov	ecx, 1
	imul	rcx, rcx, 3
	mov	rdx, QWORD PTR stack$[rbp]
	mov	rdx, QWORD PTR [rdx]
	mov	BYTE PTR [rcx+rdx], al

; 1619 : 
; 1620 :         // Sample To Chunk Box
; 1621 :         ATOM_FULL(BOX_stsc, 0);

	mov	rax, QWORD PTR stack$[rbp]
	mov	rcx, QWORD PTR p$[rbp]
	mov	QWORD PTR [rax], rcx
	mov	rax, QWORD PTR stack$[rbp]
	add	rax, 8
	mov	QWORD PTR stack$[rbp], rax
	mov	rax, QWORD PTR p$[rbp]
	add	rax, 4
	mov	QWORD PTR p$[rbp], rax
	mov	rax, QWORD PTR p$[rbp]
	mov	BYTE PTR [rax], 115			; 00000073H
	mov	rax, QWORD PTR p$[rbp]
	inc	rax
	mov	QWORD PTR p$[rbp], rax
	mov	rax, QWORD PTR p$[rbp]
	mov	BYTE PTR [rax], 116			; 00000074H
	mov	rax, QWORD PTR p$[rbp]
	inc	rax
	mov	QWORD PTR p$[rbp], rax
	mov	rax, QWORD PTR p$[rbp]
	mov	BYTE PTR [rax], 115			; 00000073H
	mov	rax, QWORD PTR p$[rbp]
	inc	rax
	mov	QWORD PTR p$[rbp], rax
	mov	rax, QWORD PTR p$[rbp]
	mov	BYTE PTR [rax], 99			; 00000063H
	mov	rax, QWORD PTR p$[rbp]
	inc	rax
	mov	QWORD PTR p$[rbp], rax
	mov	rax, QWORD PTR p$[rbp]
	mov	BYTE PTR [rax], 0
	mov	rax, QWORD PTR p$[rbp]
	inc	rax
	mov	QWORD PTR p$[rbp], rax
	mov	rax, QWORD PTR p$[rbp]
	mov	BYTE PTR [rax], 0
	mov	rax, QWORD PTR p$[rbp]
	inc	rax
	mov	QWORD PTR p$[rbp], rax
	mov	rax, QWORD PTR p$[rbp]
	mov	BYTE PTR [rax], 0
	mov	rax, QWORD PTR p$[rbp]
	inc	rax
	mov	QWORD PTR p$[rbp], rax
	mov	rax, QWORD PTR p$[rbp]
	mov	BYTE PTR [rax], 0
	mov	rax, QWORD PTR p$[rbp]
	inc	rax
	mov	QWORD PTR p$[rbp], rax

; 1622 :         if (mux->enable_fragmentation)

	mov	rax, QWORD PTR mux$[rbp]
	cmp	DWORD PTR [rax+52], 0
	je	SHORT $LN108@mp4e_flush

; 1623 :         {
; 1624 :             WRITE_4(0); // entry_count

	mov	rax, QWORD PTR p$[rbp]
	mov	BYTE PTR [rax], 0
	mov	rax, QWORD PTR p$[rbp]
	inc	rax
	mov	QWORD PTR p$[rbp], rax
	mov	rax, QWORD PTR p$[rbp]
	mov	BYTE PTR [rax], 0
	mov	rax, QWORD PTR p$[rbp]
	inc	rax
	mov	QWORD PTR p$[rbp], rax
	mov	rax, QWORD PTR p$[rbp]
	mov	BYTE PTR [rax], 0
	mov	rax, QWORD PTR p$[rbp]
	inc	rax
	mov	QWORD PTR p$[rbp], rax
	mov	rax, QWORD PTR p$[rbp]
	mov	BYTE PTR [rax], 0
	mov	rax, QWORD PTR p$[rbp]
	inc	rax
	mov	QWORD PTR p$[rbp], rax

; 1625 :         }

	jmp	$LN109@mp4e_flush
$LN108@mp4e_flush:

; 1626 :         else
; 1627 :         {
; 1628 :             WRITE_4(1); // entry_count

	mov	rax, QWORD PTR p$[rbp]
	mov	BYTE PTR [rax], 0
	mov	rax, QWORD PTR p$[rbp]
	inc	rax
	mov	QWORD PTR p$[rbp], rax
	mov	rax, QWORD PTR p$[rbp]
	mov	BYTE PTR [rax], 0
	mov	rax, QWORD PTR p$[rbp]
	inc	rax
	mov	QWORD PTR p$[rbp], rax
	mov	rax, QWORD PTR p$[rbp]
	mov	BYTE PTR [rax], 0
	mov	rax, QWORD PTR p$[rbp]
	inc	rax
	mov	QWORD PTR p$[rbp], rax
	mov	rax, QWORD PTR p$[rbp]
	mov	BYTE PTR [rax], 1
	mov	rax, QWORD PTR p$[rbp]
	inc	rax
	mov	QWORD PTR p$[rbp], rax

; 1629 :             WRITE_4(1); // first_chunk;

	mov	rax, QWORD PTR p$[rbp]
	mov	BYTE PTR [rax], 0
	mov	rax, QWORD PTR p$[rbp]
	inc	rax
	mov	QWORD PTR p$[rbp], rax
	mov	rax, QWORD PTR p$[rbp]
	mov	BYTE PTR [rax], 0
	mov	rax, QWORD PTR p$[rbp]
	inc	rax
	mov	QWORD PTR p$[rbp], rax
	mov	rax, QWORD PTR p$[rbp]
	mov	BYTE PTR [rax], 0
	mov	rax, QWORD PTR p$[rbp]
	inc	rax
	mov	QWORD PTR p$[rbp], rax
	mov	rax, QWORD PTR p$[rbp]
	mov	BYTE PTR [rax], 1
	mov	rax, QWORD PTR p$[rbp]
	inc	rax
	mov	QWORD PTR p$[rbp], rax

; 1630 :             WRITE_4(1); // samples_per_chunk;

	mov	rax, QWORD PTR p$[rbp]
	mov	BYTE PTR [rax], 0
	mov	rax, QWORD PTR p$[rbp]
	inc	rax
	mov	QWORD PTR p$[rbp], rax
	mov	rax, QWORD PTR p$[rbp]
	mov	BYTE PTR [rax], 0
	mov	rax, QWORD PTR p$[rbp]
	inc	rax
	mov	QWORD PTR p$[rbp], rax
	mov	rax, QWORD PTR p$[rbp]
	mov	BYTE PTR [rax], 0
	mov	rax, QWORD PTR p$[rbp]
	inc	rax
	mov	QWORD PTR p$[rbp], rax
	mov	rax, QWORD PTR p$[rbp]
	mov	BYTE PTR [rax], 1
	mov	rax, QWORD PTR p$[rbp]
	inc	rax
	mov	QWORD PTR p$[rbp], rax

; 1631 :             WRITE_4(1); // sample_description_index;

	mov	rax, QWORD PTR p$[rbp]
	mov	BYTE PTR [rax], 0
	mov	rax, QWORD PTR p$[rbp]
	inc	rax
	mov	QWORD PTR p$[rbp], rax
	mov	rax, QWORD PTR p$[rbp]
	mov	BYTE PTR [rax], 0
	mov	rax, QWORD PTR p$[rbp]
	inc	rax
	mov	QWORD PTR p$[rbp], rax
	mov	rax, QWORD PTR p$[rbp]
	mov	BYTE PTR [rax], 0
	mov	rax, QWORD PTR p$[rbp]
	inc	rax
	mov	QWORD PTR p$[rbp], rax
	mov	rax, QWORD PTR p$[rbp]
	mov	BYTE PTR [rax], 1
	mov	rax, QWORD PTR p$[rbp]
	inc	rax
	mov	QWORD PTR p$[rbp], rax
$LN109@mp4e_flush:

; 1632 :         }
; 1633 :         END_ATOM;

	mov	rax, QWORD PTR stack$[rbp]
	sub	rax, 8
	mov	QWORD PTR stack$[rbp], rax
	mov	rax, QWORD PTR stack$[rbp]
	mov	rax, QWORD PTR [rax]
	mov	rcx, QWORD PTR p$[rbp]
	sub	rcx, rax
	mov	rax, rcx
	sar	rax, 24
	mov	ecx, 1
	imul	rcx, rcx, 0
	mov	rdx, QWORD PTR stack$[rbp]
	mov	rdx, QWORD PTR [rdx]
	mov	BYTE PTR [rcx+rdx], al
	mov	rax, QWORD PTR stack$[rbp]
	mov	rax, QWORD PTR [rax]
	mov	rcx, QWORD PTR p$[rbp]
	sub	rcx, rax
	mov	rax, rcx
	sar	rax, 16
	mov	ecx, 1
	imul	rcx, rcx, 1
	mov	rdx, QWORD PTR stack$[rbp]
	mov	rdx, QWORD PTR [rdx]
	mov	BYTE PTR [rcx+rdx], al
	mov	rax, QWORD PTR stack$[rbp]
	mov	rax, QWORD PTR [rax]
	mov	rcx, QWORD PTR p$[rbp]
	sub	rcx, rax
	mov	rax, rcx
	sar	rax, 8
	mov	ecx, 1
	imul	rcx, rcx, 2
	mov	rdx, QWORD PTR stack$[rbp]
	mov	rdx, QWORD PTR [rdx]
	mov	BYTE PTR [rcx+rdx], al
	mov	rax, QWORD PTR stack$[rbp]
	mov	rax, QWORD PTR [rax]
	mov	rcx, QWORD PTR p$[rbp]
	sub	rcx, rax
	mov	rax, rcx
	mov	ecx, 1
	imul	rcx, rcx, 3
	mov	rdx, QWORD PTR stack$[rbp]
	mov	rdx, QWORD PTR [rdx]
	mov	BYTE PTR [rcx+rdx], al

; 1634 : 
; 1635 :         // Sample Size Box
; 1636 :         ATOM_FULL(BOX_stsz, 0);

	mov	rax, QWORD PTR stack$[rbp]
	mov	rcx, QWORD PTR p$[rbp]
	mov	QWORD PTR [rax], rcx
	mov	rax, QWORD PTR stack$[rbp]
	add	rax, 8
	mov	QWORD PTR stack$[rbp], rax
	mov	rax, QWORD PTR p$[rbp]
	add	rax, 4
	mov	QWORD PTR p$[rbp], rax
	mov	rax, QWORD PTR p$[rbp]
	mov	BYTE PTR [rax], 115			; 00000073H
	mov	rax, QWORD PTR p$[rbp]
	inc	rax
	mov	QWORD PTR p$[rbp], rax
	mov	rax, QWORD PTR p$[rbp]
	mov	BYTE PTR [rax], 116			; 00000074H
	mov	rax, QWORD PTR p$[rbp]
	inc	rax
	mov	QWORD PTR p$[rbp], rax
	mov	rax, QWORD PTR p$[rbp]
	mov	BYTE PTR [rax], 115			; 00000073H
	mov	rax, QWORD PTR p$[rbp]
	inc	rax
	mov	QWORD PTR p$[rbp], rax
	mov	rax, QWORD PTR p$[rbp]
	mov	BYTE PTR [rax], 122			; 0000007aH
	mov	rax, QWORD PTR p$[rbp]
	inc	rax
	mov	QWORD PTR p$[rbp], rax
	mov	rax, QWORD PTR p$[rbp]
	mov	BYTE PTR [rax], 0
	mov	rax, QWORD PTR p$[rbp]
	inc	rax
	mov	QWORD PTR p$[rbp], rax
	mov	rax, QWORD PTR p$[rbp]
	mov	BYTE PTR [rax], 0
	mov	rax, QWORD PTR p$[rbp]
	inc	rax
	mov	QWORD PTR p$[rbp], rax
	mov	rax, QWORD PTR p$[rbp]
	mov	BYTE PTR [rax], 0
	mov	rax, QWORD PTR p$[rbp]
	inc	rax
	mov	QWORD PTR p$[rbp], rax
	mov	rax, QWORD PTR p$[rbp]
	mov	BYTE PTR [rax], 0
	mov	rax, QWORD PTR p$[rbp]
	inc	rax
	mov	QWORD PTR p$[rbp], rax

; 1637 :         WRITE_4(0); // sample_size  If this field is set to 0, then the samples have different sizes, and those sizes

	mov	rax, QWORD PTR p$[rbp]
	mov	BYTE PTR [rax], 0
	mov	rax, QWORD PTR p$[rbp]
	inc	rax
	mov	QWORD PTR p$[rbp], rax
	mov	rax, QWORD PTR p$[rbp]
	mov	BYTE PTR [rax], 0
	mov	rax, QWORD PTR p$[rbp]
	inc	rax
	mov	QWORD PTR p$[rbp], rax
	mov	rax, QWORD PTR p$[rbp]
	mov	BYTE PTR [rax], 0
	mov	rax, QWORD PTR p$[rbp]
	inc	rax
	mov	QWORD PTR p$[rbp], rax
	mov	rax, QWORD PTR p$[rbp]
	mov	BYTE PTR [rax], 0
	mov	rax, QWORD PTR p$[rbp]
	inc	rax
	mov	QWORD PTR p$[rbp], rax

; 1638 :                     //  are stored in the sample size table.
; 1639 :         WRITE_4(samples_count);  // sample_count;

	mov	eax, DWORD PTR samples_count$10[rbp]
	sar	eax, 24
	mov	rcx, QWORD PTR p$[rbp]
	mov	BYTE PTR [rcx], al
	mov	rax, QWORD PTR p$[rbp]
	inc	rax
	mov	QWORD PTR p$[rbp], rax
	mov	eax, DWORD PTR samples_count$10[rbp]
	sar	eax, 16
	mov	rcx, QWORD PTR p$[rbp]
	mov	BYTE PTR [rcx], al
	mov	rax, QWORD PTR p$[rbp]
	inc	rax
	mov	QWORD PTR p$[rbp], rax
	mov	eax, DWORD PTR samples_count$10[rbp]
	sar	eax, 8
	mov	rcx, QWORD PTR p$[rbp]
	mov	BYTE PTR [rcx], al
	mov	rax, QWORD PTR p$[rbp]
	inc	rax
	mov	QWORD PTR p$[rbp], rax
	mov	rax, QWORD PTR p$[rbp]
	movzx	ecx, BYTE PTR samples_count$10[rbp]
	mov	BYTE PTR [rax], cl
	mov	rax, QWORD PTR p$[rbp]
	inc	rax
	mov	QWORD PTR p$[rbp], rax

; 1640 :         for (i = 0; i < samples_count; i++)

	mov	DWORD PTR i$[rbp], 0
	jmp	SHORT $LN48@mp4e_flush
$LN46@mp4e_flush:
	mov	eax, DWORD PTR i$[rbp]
	inc	eax
	mov	DWORD PTR i$[rbp], eax
$LN48@mp4e_flush:
	mov	eax, DWORD PTR samples_count$10[rbp]
	cmp	DWORD PTR i$[rbp], eax
	jge	$LN47@mp4e_flush

; 1641 :         {
; 1642 :             WRITE_4(sample[i].size);

	movsxd	rax, DWORD PTR i$[rbp]
	imul	rax, rax, 24
	mov	rcx, QWORD PTR sample$11[rbp]
	mov	rax, QWORD PTR [rcx+rax]
	shr	rax, 24
	mov	rcx, QWORD PTR p$[rbp]
	mov	BYTE PTR [rcx], al
	mov	rax, QWORD PTR p$[rbp]
	inc	rax
	mov	QWORD PTR p$[rbp], rax
	movsxd	rax, DWORD PTR i$[rbp]
	imul	rax, rax, 24
	mov	rcx, QWORD PTR sample$11[rbp]
	mov	rax, QWORD PTR [rcx+rax]
	shr	rax, 16
	mov	rcx, QWORD PTR p$[rbp]
	mov	BYTE PTR [rcx], al
	mov	rax, QWORD PTR p$[rbp]
	inc	rax
	mov	QWORD PTR p$[rbp], rax
	movsxd	rax, DWORD PTR i$[rbp]
	imul	rax, rax, 24
	mov	rcx, QWORD PTR sample$11[rbp]
	mov	rax, QWORD PTR [rcx+rax]
	shr	rax, 8
	mov	rcx, QWORD PTR p$[rbp]
	mov	BYTE PTR [rcx], al
	mov	rax, QWORD PTR p$[rbp]
	inc	rax
	mov	QWORD PTR p$[rbp], rax
	movsxd	rax, DWORD PTR i$[rbp]
	imul	rax, rax, 24
	mov	rcx, QWORD PTR p$[rbp]
	mov	rdx, QWORD PTR sample$11[rbp]
	movzx	eax, BYTE PTR [rdx+rax]
	mov	BYTE PTR [rcx], al
	mov	rax, QWORD PTR p$[rbp]
	inc	rax
	mov	QWORD PTR p$[rbp], rax

; 1643 :         }

	jmp	$LN46@mp4e_flush
$LN47@mp4e_flush:

; 1644 :         END_ATOM;

	mov	rax, QWORD PTR stack$[rbp]
	sub	rax, 8
	mov	QWORD PTR stack$[rbp], rax
	mov	rax, QWORD PTR stack$[rbp]
	mov	rax, QWORD PTR [rax]
	mov	rcx, QWORD PTR p$[rbp]
	sub	rcx, rax
	mov	rax, rcx
	sar	rax, 24
	mov	ecx, 1
	imul	rcx, rcx, 0
	mov	rdx, QWORD PTR stack$[rbp]
	mov	rdx, QWORD PTR [rdx]
	mov	BYTE PTR [rcx+rdx], al
	mov	rax, QWORD PTR stack$[rbp]
	mov	rax, QWORD PTR [rax]
	mov	rcx, QWORD PTR p$[rbp]
	sub	rcx, rax
	mov	rax, rcx
	sar	rax, 16
	mov	ecx, 1
	imul	rcx, rcx, 1
	mov	rdx, QWORD PTR stack$[rbp]
	mov	rdx, QWORD PTR [rdx]
	mov	BYTE PTR [rcx+rdx], al
	mov	rax, QWORD PTR stack$[rbp]
	mov	rax, QWORD PTR [rax]
	mov	rcx, QWORD PTR p$[rbp]
	sub	rcx, rax
	mov	rax, rcx
	sar	rax, 8
	mov	ecx, 1
	imul	rcx, rcx, 2
	mov	rdx, QWORD PTR stack$[rbp]
	mov	rdx, QWORD PTR [rdx]
	mov	BYTE PTR [rcx+rdx], al
	mov	rax, QWORD PTR stack$[rbp]
	mov	rax, QWORD PTR [rax]
	mov	rcx, QWORD PTR p$[rbp]
	sub	rcx, rax
	mov	rax, rcx
	mov	ecx, 1
	imul	rcx, rcx, 3
	mov	rdx, QWORD PTR stack$[rbp]
	mov	rdx, QWORD PTR [rdx]
	mov	BYTE PTR [rcx+rdx], al

; 1645 : 
; 1646 :         // Chunk Offset Box
; 1647 :         int is_64_bit = 0;

	mov	DWORD PTR is_64_bit$26[rbp], 0

; 1648 :         if (samples_count && sample[samples_count - 1].offset > 0xffffffff)

	cmp	DWORD PTR samples_count$10[rbp], 0
	je	SHORT $LN110@mp4e_flush
	mov	eax, DWORD PTR samples_count$10[rbp]
	dec	eax
	cdqe
	imul	rax, rax, 24
	mov	rcx, QWORD PTR sample$11[rbp]
	mov	edx, -1					; ffffffffH
	cmp	QWORD PTR [rcx+rax+8], rdx
	jbe	SHORT $LN110@mp4e_flush

; 1649 :             is_64_bit = 1;

	mov	DWORD PTR is_64_bit$26[rbp], 1
$LN110@mp4e_flush:

; 1650 :         if (!is_64_bit)

	cmp	DWORD PTR is_64_bit$26[rbp], 0
	jne	$LN111@mp4e_flush

; 1651 :         {
; 1652 :             ATOM_FULL(BOX_stco, 0);

	mov	rax, QWORD PTR stack$[rbp]
	mov	rcx, QWORD PTR p$[rbp]
	mov	QWORD PTR [rax], rcx
	mov	rax, QWORD PTR stack$[rbp]
	add	rax, 8
	mov	QWORD PTR stack$[rbp], rax
	mov	rax, QWORD PTR p$[rbp]
	add	rax, 4
	mov	QWORD PTR p$[rbp], rax
	mov	rax, QWORD PTR p$[rbp]
	mov	BYTE PTR [rax], 115			; 00000073H
	mov	rax, QWORD PTR p$[rbp]
	inc	rax
	mov	QWORD PTR p$[rbp], rax
	mov	rax, QWORD PTR p$[rbp]
	mov	BYTE PTR [rax], 116			; 00000074H
	mov	rax, QWORD PTR p$[rbp]
	inc	rax
	mov	QWORD PTR p$[rbp], rax
	mov	rax, QWORD PTR p$[rbp]
	mov	BYTE PTR [rax], 99			; 00000063H
	mov	rax, QWORD PTR p$[rbp]
	inc	rax
	mov	QWORD PTR p$[rbp], rax
	mov	rax, QWORD PTR p$[rbp]
	mov	BYTE PTR [rax], 111			; 0000006fH
	mov	rax, QWORD PTR p$[rbp]
	inc	rax
	mov	QWORD PTR p$[rbp], rax
	mov	rax, QWORD PTR p$[rbp]
	mov	BYTE PTR [rax], 0
	mov	rax, QWORD PTR p$[rbp]
	inc	rax
	mov	QWORD PTR p$[rbp], rax
	mov	rax, QWORD PTR p$[rbp]
	mov	BYTE PTR [rax], 0
	mov	rax, QWORD PTR p$[rbp]
	inc	rax
	mov	QWORD PTR p$[rbp], rax
	mov	rax, QWORD PTR p$[rbp]
	mov	BYTE PTR [rax], 0
	mov	rax, QWORD PTR p$[rbp]
	inc	rax
	mov	QWORD PTR p$[rbp], rax
	mov	rax, QWORD PTR p$[rbp]
	mov	BYTE PTR [rax], 0
	mov	rax, QWORD PTR p$[rbp]
	inc	rax
	mov	QWORD PTR p$[rbp], rax

; 1653 :             WRITE_4(samples_count);

	mov	eax, DWORD PTR samples_count$10[rbp]
	sar	eax, 24
	mov	rcx, QWORD PTR p$[rbp]
	mov	BYTE PTR [rcx], al
	mov	rax, QWORD PTR p$[rbp]
	inc	rax
	mov	QWORD PTR p$[rbp], rax
	mov	eax, DWORD PTR samples_count$10[rbp]
	sar	eax, 16
	mov	rcx, QWORD PTR p$[rbp]
	mov	BYTE PTR [rcx], al
	mov	rax, QWORD PTR p$[rbp]
	inc	rax
	mov	QWORD PTR p$[rbp], rax
	mov	eax, DWORD PTR samples_count$10[rbp]
	sar	eax, 8
	mov	rcx, QWORD PTR p$[rbp]
	mov	BYTE PTR [rcx], al
	mov	rax, QWORD PTR p$[rbp]
	inc	rax
	mov	QWORD PTR p$[rbp], rax
	mov	rax, QWORD PTR p$[rbp]
	movzx	ecx, BYTE PTR samples_count$10[rbp]
	mov	BYTE PTR [rax], cl
	mov	rax, QWORD PTR p$[rbp]
	inc	rax
	mov	QWORD PTR p$[rbp], rax

; 1654 :             for (i = 0; i < samples_count; i++)

	mov	DWORD PTR i$[rbp], 0
	jmp	SHORT $LN51@mp4e_flush
$LN49@mp4e_flush:
	mov	eax, DWORD PTR i$[rbp]
	inc	eax
	mov	DWORD PTR i$[rbp], eax
$LN51@mp4e_flush:
	mov	eax, DWORD PTR samples_count$10[rbp]
	cmp	DWORD PTR i$[rbp], eax
	jge	$LN50@mp4e_flush

; 1655 :             {
; 1656 :                 WRITE_4(sample[i].offset);

	movsxd	rax, DWORD PTR i$[rbp]
	imul	rax, rax, 24
	mov	rcx, QWORD PTR sample$11[rbp]
	mov	rax, QWORD PTR [rcx+rax+8]
	shr	rax, 24
	mov	rcx, QWORD PTR p$[rbp]
	mov	BYTE PTR [rcx], al
	mov	rax, QWORD PTR p$[rbp]
	inc	rax
	mov	QWORD PTR p$[rbp], rax
	movsxd	rax, DWORD PTR i$[rbp]
	imul	rax, rax, 24
	mov	rcx, QWORD PTR sample$11[rbp]
	mov	rax, QWORD PTR [rcx+rax+8]
	shr	rax, 16
	mov	rcx, QWORD PTR p$[rbp]
	mov	BYTE PTR [rcx], al
	mov	rax, QWORD PTR p$[rbp]
	inc	rax
	mov	QWORD PTR p$[rbp], rax
	movsxd	rax, DWORD PTR i$[rbp]
	imul	rax, rax, 24
	mov	rcx, QWORD PTR sample$11[rbp]
	mov	rax, QWORD PTR [rcx+rax+8]
	shr	rax, 8
	mov	rcx, QWORD PTR p$[rbp]
	mov	BYTE PTR [rcx], al
	mov	rax, QWORD PTR p$[rbp]
	inc	rax
	mov	QWORD PTR p$[rbp], rax
	movsxd	rax, DWORD PTR i$[rbp]
	imul	rax, rax, 24
	mov	rcx, QWORD PTR p$[rbp]
	mov	rdx, QWORD PTR sample$11[rbp]
	movzx	eax, BYTE PTR [rdx+rax+8]
	mov	BYTE PTR [rcx], al
	mov	rax, QWORD PTR p$[rbp]
	inc	rax
	mov	QWORD PTR p$[rbp], rax

; 1657 :             }

	jmp	$LN49@mp4e_flush
$LN50@mp4e_flush:

; 1658 :         }

	jmp	$LN112@mp4e_flush
$LN111@mp4e_flush:

; 1659 :         else
; 1660 :         {
; 1661 :             ATOM_FULL(BOX_co64, 0);

	mov	rax, QWORD PTR stack$[rbp]
	mov	rcx, QWORD PTR p$[rbp]
	mov	QWORD PTR [rax], rcx
	mov	rax, QWORD PTR stack$[rbp]
	add	rax, 8
	mov	QWORD PTR stack$[rbp], rax
	mov	rax, QWORD PTR p$[rbp]
	add	rax, 4
	mov	QWORD PTR p$[rbp], rax
	mov	rax, QWORD PTR p$[rbp]
	mov	BYTE PTR [rax], 99			; 00000063H
	mov	rax, QWORD PTR p$[rbp]
	inc	rax
	mov	QWORD PTR p$[rbp], rax
	mov	rax, QWORD PTR p$[rbp]
	mov	BYTE PTR [rax], 111			; 0000006fH
	mov	rax, QWORD PTR p$[rbp]
	inc	rax
	mov	QWORD PTR p$[rbp], rax
	mov	rax, QWORD PTR p$[rbp]
	mov	BYTE PTR [rax], 54			; 00000036H
	mov	rax, QWORD PTR p$[rbp]
	inc	rax
	mov	QWORD PTR p$[rbp], rax
	mov	rax, QWORD PTR p$[rbp]
	mov	BYTE PTR [rax], 52			; 00000034H
	mov	rax, QWORD PTR p$[rbp]
	inc	rax
	mov	QWORD PTR p$[rbp], rax
	mov	rax, QWORD PTR p$[rbp]
	mov	BYTE PTR [rax], 0
	mov	rax, QWORD PTR p$[rbp]
	inc	rax
	mov	QWORD PTR p$[rbp], rax
	mov	rax, QWORD PTR p$[rbp]
	mov	BYTE PTR [rax], 0
	mov	rax, QWORD PTR p$[rbp]
	inc	rax
	mov	QWORD PTR p$[rbp], rax
	mov	rax, QWORD PTR p$[rbp]
	mov	BYTE PTR [rax], 0
	mov	rax, QWORD PTR p$[rbp]
	inc	rax
	mov	QWORD PTR p$[rbp], rax
	mov	rax, QWORD PTR p$[rbp]
	mov	BYTE PTR [rax], 0
	mov	rax, QWORD PTR p$[rbp]
	inc	rax
	mov	QWORD PTR p$[rbp], rax

; 1662 :             WRITE_4(samples_count);

	mov	eax, DWORD PTR samples_count$10[rbp]
	sar	eax, 24
	mov	rcx, QWORD PTR p$[rbp]
	mov	BYTE PTR [rcx], al
	mov	rax, QWORD PTR p$[rbp]
	inc	rax
	mov	QWORD PTR p$[rbp], rax
	mov	eax, DWORD PTR samples_count$10[rbp]
	sar	eax, 16
	mov	rcx, QWORD PTR p$[rbp]
	mov	BYTE PTR [rcx], al
	mov	rax, QWORD PTR p$[rbp]
	inc	rax
	mov	QWORD PTR p$[rbp], rax
	mov	eax, DWORD PTR samples_count$10[rbp]
	sar	eax, 8
	mov	rcx, QWORD PTR p$[rbp]
	mov	BYTE PTR [rcx], al
	mov	rax, QWORD PTR p$[rbp]
	inc	rax
	mov	QWORD PTR p$[rbp], rax
	mov	rax, QWORD PTR p$[rbp]
	movzx	ecx, BYTE PTR samples_count$10[rbp]
	mov	BYTE PTR [rax], cl
	mov	rax, QWORD PTR p$[rbp]
	inc	rax
	mov	QWORD PTR p$[rbp], rax

; 1663 :             for (i = 0; i < samples_count; i++)

	mov	DWORD PTR i$[rbp], 0
	jmp	SHORT $LN54@mp4e_flush
$LN52@mp4e_flush:
	mov	eax, DWORD PTR i$[rbp]
	inc	eax
	mov	DWORD PTR i$[rbp], eax
$LN54@mp4e_flush:
	mov	eax, DWORD PTR samples_count$10[rbp]
	cmp	DWORD PTR i$[rbp], eax
	jge	$LN53@mp4e_flush

; 1664 :             {
; 1665 :                 WRITE_4((sample[i].offset >> 32) & 0xffffffff);

	movsxd	rax, DWORD PTR i$[rbp]
	imul	rax, rax, 24
	mov	rcx, QWORD PTR sample$11[rbp]
	mov	rax, QWORD PTR [rcx+rax+8]
	shr	rax, 32					; 00000020H
	mov	ecx, -1					; ffffffffH
	and	rax, rcx
	shr	rax, 24
	mov	rcx, QWORD PTR p$[rbp]
	mov	BYTE PTR [rcx], al
	mov	rax, QWORD PTR p$[rbp]
	inc	rax
	mov	QWORD PTR p$[rbp], rax
	movsxd	rax, DWORD PTR i$[rbp]
	imul	rax, rax, 24
	mov	rcx, QWORD PTR sample$11[rbp]
	mov	rax, QWORD PTR [rcx+rax+8]
	shr	rax, 32					; 00000020H
	mov	ecx, -1					; ffffffffH
	and	rax, rcx
	shr	rax, 16
	mov	rcx, QWORD PTR p$[rbp]
	mov	BYTE PTR [rcx], al
	mov	rax, QWORD PTR p$[rbp]
	inc	rax
	mov	QWORD PTR p$[rbp], rax
	movsxd	rax, DWORD PTR i$[rbp]
	imul	rax, rax, 24
	mov	rcx, QWORD PTR sample$11[rbp]
	mov	rax, QWORD PTR [rcx+rax+8]
	shr	rax, 32					; 00000020H
	mov	ecx, -1					; ffffffffH
	and	rax, rcx
	shr	rax, 8
	mov	rcx, QWORD PTR p$[rbp]
	mov	BYTE PTR [rcx], al
	mov	rax, QWORD PTR p$[rbp]
	inc	rax
	mov	QWORD PTR p$[rbp], rax
	movsxd	rax, DWORD PTR i$[rbp]
	imul	rax, rax, 24
	mov	rcx, QWORD PTR sample$11[rbp]
	mov	rax, QWORD PTR [rcx+rax+8]
	shr	rax, 32					; 00000020H
	mov	ecx, -1					; ffffffffH
	and	rax, rcx
	mov	rcx, QWORD PTR p$[rbp]
	mov	BYTE PTR [rcx], al
	mov	rax, QWORD PTR p$[rbp]
	inc	rax
	mov	QWORD PTR p$[rbp], rax

; 1666 :                 WRITE_4(sample[i].offset & 0xffffffff);

	movsxd	rax, DWORD PTR i$[rbp]
	imul	rax, rax, 24
	mov	rcx, QWORD PTR sample$11[rbp]
	mov	edx, -1					; ffffffffH
	mov	rax, QWORD PTR [rcx+rax+8]
	and	rax, rdx
	shr	rax, 24
	mov	rcx, QWORD PTR p$[rbp]
	mov	BYTE PTR [rcx], al
	mov	rax, QWORD PTR p$[rbp]
	inc	rax
	mov	QWORD PTR p$[rbp], rax
	movsxd	rax, DWORD PTR i$[rbp]
	imul	rax, rax, 24
	mov	rcx, QWORD PTR sample$11[rbp]
	mov	edx, -1					; ffffffffH
	mov	rax, QWORD PTR [rcx+rax+8]
	and	rax, rdx
	shr	rax, 16
	mov	rcx, QWORD PTR p$[rbp]
	mov	BYTE PTR [rcx], al
	mov	rax, QWORD PTR p$[rbp]
	inc	rax
	mov	QWORD PTR p$[rbp], rax
	movsxd	rax, DWORD PTR i$[rbp]
	imul	rax, rax, 24
	mov	rcx, QWORD PTR sample$11[rbp]
	mov	edx, -1					; ffffffffH
	mov	rax, QWORD PTR [rcx+rax+8]
	and	rax, rdx
	shr	rax, 8
	mov	rcx, QWORD PTR p$[rbp]
	mov	BYTE PTR [rcx], al
	mov	rax, QWORD PTR p$[rbp]
	inc	rax
	mov	QWORD PTR p$[rbp], rax
	movsxd	rax, DWORD PTR i$[rbp]
	imul	rax, rax, 24
	mov	rcx, QWORD PTR sample$11[rbp]
	mov	edx, -1					; ffffffffH
	mov	rax, QWORD PTR [rcx+rax+8]
	and	rax, rdx
	mov	rcx, QWORD PTR p$[rbp]
	mov	BYTE PTR [rcx], al
	mov	rax, QWORD PTR p$[rbp]
	inc	rax
	mov	QWORD PTR p$[rbp], rax

; 1667 :             }

	jmp	$LN52@mp4e_flush
$LN53@mp4e_flush:
$LN112@mp4e_flush:

; 1668 :         }
; 1669 :         END_ATOM;

	mov	rax, QWORD PTR stack$[rbp]
	sub	rax, 8
	mov	QWORD PTR stack$[rbp], rax
	mov	rax, QWORD PTR stack$[rbp]
	mov	rax, QWORD PTR [rax]
	mov	rcx, QWORD PTR p$[rbp]
	sub	rcx, rax
	mov	rax, rcx
	sar	rax, 24
	mov	ecx, 1
	imul	rcx, rcx, 0
	mov	rdx, QWORD PTR stack$[rbp]
	mov	rdx, QWORD PTR [rdx]
	mov	BYTE PTR [rcx+rdx], al
	mov	rax, QWORD PTR stack$[rbp]
	mov	rax, QWORD PTR [rax]
	mov	rcx, QWORD PTR p$[rbp]
	sub	rcx, rax
	mov	rax, rcx
	sar	rax, 16
	mov	ecx, 1
	imul	rcx, rcx, 1
	mov	rdx, QWORD PTR stack$[rbp]
	mov	rdx, QWORD PTR [rdx]
	mov	BYTE PTR [rcx+rdx], al
	mov	rax, QWORD PTR stack$[rbp]
	mov	rax, QWORD PTR [rax]
	mov	rcx, QWORD PTR p$[rbp]
	sub	rcx, rax
	mov	rax, rcx
	sar	rax, 8
	mov	ecx, 1
	imul	rcx, rcx, 2
	mov	rdx, QWORD PTR stack$[rbp]
	mov	rdx, QWORD PTR [rdx]
	mov	BYTE PTR [rcx+rdx], al
	mov	rax, QWORD PTR stack$[rbp]
	mov	rax, QWORD PTR [rax]
	mov	rcx, QWORD PTR p$[rbp]
	sub	rcx, rax
	mov	rax, rcx
	mov	ecx, 1
	imul	rcx, rcx, 3
	mov	rdx, QWORD PTR stack$[rbp]
	mov	rdx, QWORD PTR [rdx]
	mov	BYTE PTR [rcx+rdx], al

; 1670 : 
; 1671 :         // Sync Sample Box
; 1672 :         {
; 1673 :             int ra_count = 0;

	mov	DWORD PTR ra_count$27[rbp], 0

; 1674 :             for (i = 0; i < samples_count; i++)

	mov	DWORD PTR i$[rbp], 0
	jmp	SHORT $LN57@mp4e_flush
$LN55@mp4e_flush:
	mov	eax, DWORD PTR i$[rbp]
	inc	eax
	mov	DWORD PTR i$[rbp], eax
$LN57@mp4e_flush:
	mov	eax, DWORD PTR samples_count$10[rbp]
	cmp	DWORD PTR i$[rbp], eax
	jge	SHORT $LN56@mp4e_flush

; 1675 :             {
; 1676 :                 ra_count += !!sample[i].flag_random_access;

	movsxd	rax, DWORD PTR i$[rbp]
	imul	rax, rax, 24
	mov	rcx, QWORD PTR sample$11[rbp]
	cmp	DWORD PTR [rcx+rax+20], 0
	je	SHORT $LN119@mp4e_flush
	mov	DWORD PTR tv1934[rbp], 1
	jmp	SHORT $LN120@mp4e_flush
$LN119@mp4e_flush:
	mov	DWORD PTR tv1934[rbp], 0
$LN120@mp4e_flush:
	mov	eax, DWORD PTR tv1934[rbp]
	mov	ecx, DWORD PTR ra_count$27[rbp]
	add	ecx, eax
	mov	eax, ecx
	mov	DWORD PTR ra_count$27[rbp], eax

; 1677 :             }

	jmp	SHORT $LN55@mp4e_flush
$LN56@mp4e_flush:

; 1678 :             if (ra_count != samples_count)

	mov	eax, DWORD PTR samples_count$10[rbp]
	cmp	DWORD PTR ra_count$27[rbp], eax
	je	$LN113@mp4e_flush

; 1679 :             {
; 1680 :                 // If the sync sample box is not present, every sample is a random access point.
; 1681 :                 ATOM_FULL(BOX_stss, 0);

	mov	rax, QWORD PTR stack$[rbp]
	mov	rcx, QWORD PTR p$[rbp]
	mov	QWORD PTR [rax], rcx
	mov	rax, QWORD PTR stack$[rbp]
	add	rax, 8
	mov	QWORD PTR stack$[rbp], rax
	mov	rax, QWORD PTR p$[rbp]
	add	rax, 4
	mov	QWORD PTR p$[rbp], rax
	mov	rax, QWORD PTR p$[rbp]
	mov	BYTE PTR [rax], 115			; 00000073H
	mov	rax, QWORD PTR p$[rbp]
	inc	rax
	mov	QWORD PTR p$[rbp], rax
	mov	rax, QWORD PTR p$[rbp]
	mov	BYTE PTR [rax], 116			; 00000074H
	mov	rax, QWORD PTR p$[rbp]
	inc	rax
	mov	QWORD PTR p$[rbp], rax
	mov	rax, QWORD PTR p$[rbp]
	mov	BYTE PTR [rax], 115			; 00000073H
	mov	rax, QWORD PTR p$[rbp]
	inc	rax
	mov	QWORD PTR p$[rbp], rax
	mov	rax, QWORD PTR p$[rbp]
	mov	BYTE PTR [rax], 115			; 00000073H
	mov	rax, QWORD PTR p$[rbp]
	inc	rax
	mov	QWORD PTR p$[rbp], rax
	mov	rax, QWORD PTR p$[rbp]
	mov	BYTE PTR [rax], 0
	mov	rax, QWORD PTR p$[rbp]
	inc	rax
	mov	QWORD PTR p$[rbp], rax
	mov	rax, QWORD PTR p$[rbp]
	mov	BYTE PTR [rax], 0
	mov	rax, QWORD PTR p$[rbp]
	inc	rax
	mov	QWORD PTR p$[rbp], rax
	mov	rax, QWORD PTR p$[rbp]
	mov	BYTE PTR [rax], 0
	mov	rax, QWORD PTR p$[rbp]
	inc	rax
	mov	QWORD PTR p$[rbp], rax
	mov	rax, QWORD PTR p$[rbp]
	mov	BYTE PTR [rax], 0
	mov	rax, QWORD PTR p$[rbp]
	inc	rax
	mov	QWORD PTR p$[rbp], rax

; 1682 :                 WRITE_4(ra_count);

	mov	eax, DWORD PTR ra_count$27[rbp]
	sar	eax, 24
	mov	rcx, QWORD PTR p$[rbp]
	mov	BYTE PTR [rcx], al
	mov	rax, QWORD PTR p$[rbp]
	inc	rax
	mov	QWORD PTR p$[rbp], rax
	mov	eax, DWORD PTR ra_count$27[rbp]
	sar	eax, 16
	mov	rcx, QWORD PTR p$[rbp]
	mov	BYTE PTR [rcx], al
	mov	rax, QWORD PTR p$[rbp]
	inc	rax
	mov	QWORD PTR p$[rbp], rax
	mov	eax, DWORD PTR ra_count$27[rbp]
	sar	eax, 8
	mov	rcx, QWORD PTR p$[rbp]
	mov	BYTE PTR [rcx], al
	mov	rax, QWORD PTR p$[rbp]
	inc	rax
	mov	QWORD PTR p$[rbp], rax
	mov	rax, QWORD PTR p$[rbp]
	movzx	ecx, BYTE PTR ra_count$27[rbp]
	mov	BYTE PTR [rax], cl
	mov	rax, QWORD PTR p$[rbp]
	inc	rax
	mov	QWORD PTR p$[rbp], rax

; 1683 :                 for (i = 0; i < samples_count; i++)

	mov	DWORD PTR i$[rbp], 0
	jmp	SHORT $LN60@mp4e_flush
$LN58@mp4e_flush:
	mov	eax, DWORD PTR i$[rbp]
	inc	eax
	mov	DWORD PTR i$[rbp], eax
$LN60@mp4e_flush:
	mov	eax, DWORD PTR samples_count$10[rbp]
	cmp	DWORD PTR i$[rbp], eax
	jge	$LN59@mp4e_flush

; 1684 :                 {
; 1685 :                     if (sample[i].flag_random_access)

	movsxd	rax, DWORD PTR i$[rbp]
	imul	rax, rax, 24
	mov	rcx, QWORD PTR sample$11[rbp]
	cmp	DWORD PTR [rcx+rax+20], 0
	je	$LN114@mp4e_flush

; 1686 :                     {
; 1687 :                         WRITE_4(i + 1);

	mov	eax, DWORD PTR i$[rbp]
	inc	eax
	sar	eax, 24
	mov	rcx, QWORD PTR p$[rbp]
	mov	BYTE PTR [rcx], al
	mov	rax, QWORD PTR p$[rbp]
	inc	rax
	mov	QWORD PTR p$[rbp], rax
	mov	eax, DWORD PTR i$[rbp]
	inc	eax
	sar	eax, 16
	mov	rcx, QWORD PTR p$[rbp]
	mov	BYTE PTR [rcx], al
	mov	rax, QWORD PTR p$[rbp]
	inc	rax
	mov	QWORD PTR p$[rbp], rax
	mov	eax, DWORD PTR i$[rbp]
	inc	eax
	sar	eax, 8
	mov	rcx, QWORD PTR p$[rbp]
	mov	BYTE PTR [rcx], al
	mov	rax, QWORD PTR p$[rbp]
	inc	rax
	mov	QWORD PTR p$[rbp], rax
	mov	eax, DWORD PTR i$[rbp]
	inc	eax
	mov	rcx, QWORD PTR p$[rbp]
	mov	BYTE PTR [rcx], al
	mov	rax, QWORD PTR p$[rbp]
	inc	rax
	mov	QWORD PTR p$[rbp], rax
$LN114@mp4e_flush:

; 1688 :                     }
; 1689 :                 }

	jmp	$LN58@mp4e_flush
$LN59@mp4e_flush:

; 1690 :                 END_ATOM;

	mov	rax, QWORD PTR stack$[rbp]
	sub	rax, 8
	mov	QWORD PTR stack$[rbp], rax
	mov	rax, QWORD PTR stack$[rbp]
	mov	rax, QWORD PTR [rax]
	mov	rcx, QWORD PTR p$[rbp]
	sub	rcx, rax
	mov	rax, rcx
	sar	rax, 24
	mov	ecx, 1
	imul	rcx, rcx, 0
	mov	rdx, QWORD PTR stack$[rbp]
	mov	rdx, QWORD PTR [rdx]
	mov	BYTE PTR [rcx+rdx], al
	mov	rax, QWORD PTR stack$[rbp]
	mov	rax, QWORD PTR [rax]
	mov	rcx, QWORD PTR p$[rbp]
	sub	rcx, rax
	mov	rax, rcx
	sar	rax, 16
	mov	ecx, 1
	imul	rcx, rcx, 1
	mov	rdx, QWORD PTR stack$[rbp]
	mov	rdx, QWORD PTR [rdx]
	mov	BYTE PTR [rcx+rdx], al
	mov	rax, QWORD PTR stack$[rbp]
	mov	rax, QWORD PTR [rax]
	mov	rcx, QWORD PTR p$[rbp]
	sub	rcx, rax
	mov	rax, rcx
	sar	rax, 8
	mov	ecx, 1
	imul	rcx, rcx, 2
	mov	rdx, QWORD PTR stack$[rbp]
	mov	rdx, QWORD PTR [rdx]
	mov	BYTE PTR [rcx+rdx], al
	mov	rax, QWORD PTR stack$[rbp]
	mov	rax, QWORD PTR [rax]
	mov	rcx, QWORD PTR p$[rbp]
	sub	rcx, rax
	mov	rax, rcx
	mov	ecx, 1
	imul	rcx, rcx, 3
	mov	rdx, QWORD PTR stack$[rbp]
	mov	rdx, QWORD PTR [rdx]
	mov	BYTE PTR [rcx+rdx], al
$LN113@mp4e_flush:

; 1691 :             }
; 1692 :         }
; 1693 :         END_ATOM;

	mov	rax, QWORD PTR stack$[rbp]
	sub	rax, 8
	mov	QWORD PTR stack$[rbp], rax
	mov	rax, QWORD PTR stack$[rbp]
	mov	rax, QWORD PTR [rax]
	mov	rcx, QWORD PTR p$[rbp]
	sub	rcx, rax
	mov	rax, rcx
	sar	rax, 24
	mov	ecx, 1
	imul	rcx, rcx, 0
	mov	rdx, QWORD PTR stack$[rbp]
	mov	rdx, QWORD PTR [rdx]
	mov	BYTE PTR [rcx+rdx], al
	mov	rax, QWORD PTR stack$[rbp]
	mov	rax, QWORD PTR [rax]
	mov	rcx, QWORD PTR p$[rbp]
	sub	rcx, rax
	mov	rax, rcx
	sar	rax, 16
	mov	ecx, 1
	imul	rcx, rcx, 1
	mov	rdx, QWORD PTR stack$[rbp]
	mov	rdx, QWORD PTR [rdx]
	mov	BYTE PTR [rcx+rdx], al
	mov	rax, QWORD PTR stack$[rbp]
	mov	rax, QWORD PTR [rax]
	mov	rcx, QWORD PTR p$[rbp]
	sub	rcx, rax
	mov	rax, rcx
	sar	rax, 8
	mov	ecx, 1
	imul	rcx, rcx, 2
	mov	rdx, QWORD PTR stack$[rbp]
	mov	rdx, QWORD PTR [rdx]
	mov	BYTE PTR [rcx+rdx], al
	mov	rax, QWORD PTR stack$[rbp]
	mov	rax, QWORD PTR [rax]
	mov	rcx, QWORD PTR p$[rbp]
	sub	rcx, rax
	mov	rax, rcx
	mov	ecx, 1
	imul	rcx, rcx, 3
	mov	rdx, QWORD PTR stack$[rbp]
	mov	rdx, QWORD PTR [rdx]
	mov	BYTE PTR [rcx+rdx], al

; 1694 :         END_ATOM;

	mov	rax, QWORD PTR stack$[rbp]
	sub	rax, 8
	mov	QWORD PTR stack$[rbp], rax
	mov	rax, QWORD PTR stack$[rbp]
	mov	rax, QWORD PTR [rax]
	mov	rcx, QWORD PTR p$[rbp]
	sub	rcx, rax
	mov	rax, rcx
	sar	rax, 24
	mov	ecx, 1
	imul	rcx, rcx, 0
	mov	rdx, QWORD PTR stack$[rbp]
	mov	rdx, QWORD PTR [rdx]
	mov	BYTE PTR [rcx+rdx], al
	mov	rax, QWORD PTR stack$[rbp]
	mov	rax, QWORD PTR [rax]
	mov	rcx, QWORD PTR p$[rbp]
	sub	rcx, rax
	mov	rax, rcx
	sar	rax, 16
	mov	ecx, 1
	imul	rcx, rcx, 1
	mov	rdx, QWORD PTR stack$[rbp]
	mov	rdx, QWORD PTR [rdx]
	mov	BYTE PTR [rcx+rdx], al
	mov	rax, QWORD PTR stack$[rbp]
	mov	rax, QWORD PTR [rax]
	mov	rcx, QWORD PTR p$[rbp]
	sub	rcx, rax
	mov	rax, rcx
	sar	rax, 8
	mov	ecx, 1
	imul	rcx, rcx, 2
	mov	rdx, QWORD PTR stack$[rbp]
	mov	rdx, QWORD PTR [rdx]
	mov	BYTE PTR [rcx+rdx], al
	mov	rax, QWORD PTR stack$[rbp]
	mov	rax, QWORD PTR [rax]
	mov	rcx, QWORD PTR p$[rbp]
	sub	rcx, rax
	mov	rax, rcx
	mov	ecx, 1
	imul	rcx, rcx, 3
	mov	rdx, QWORD PTR stack$[rbp]
	mov	rdx, QWORD PTR [rdx]
	mov	BYTE PTR [rcx+rdx], al

; 1695 :         END_ATOM;

	mov	rax, QWORD PTR stack$[rbp]
	sub	rax, 8
	mov	QWORD PTR stack$[rbp], rax
	mov	rax, QWORD PTR stack$[rbp]
	mov	rax, QWORD PTR [rax]
	mov	rcx, QWORD PTR p$[rbp]
	sub	rcx, rax
	mov	rax, rcx
	sar	rax, 24
	mov	ecx, 1
	imul	rcx, rcx, 0
	mov	rdx, QWORD PTR stack$[rbp]
	mov	rdx, QWORD PTR [rdx]
	mov	BYTE PTR [rcx+rdx], al
	mov	rax, QWORD PTR stack$[rbp]
	mov	rax, QWORD PTR [rax]
	mov	rcx, QWORD PTR p$[rbp]
	sub	rcx, rax
	mov	rax, rcx
	sar	rax, 16
	mov	ecx, 1
	imul	rcx, rcx, 1
	mov	rdx, QWORD PTR stack$[rbp]
	mov	rdx, QWORD PTR [rdx]
	mov	BYTE PTR [rcx+rdx], al
	mov	rax, QWORD PTR stack$[rbp]
	mov	rax, QWORD PTR [rax]
	mov	rcx, QWORD PTR p$[rbp]
	sub	rcx, rax
	mov	rax, rcx
	sar	rax, 8
	mov	ecx, 1
	imul	rcx, rcx, 2
	mov	rdx, QWORD PTR stack$[rbp]
	mov	rdx, QWORD PTR [rdx]
	mov	BYTE PTR [rcx+rdx], al
	mov	rax, QWORD PTR stack$[rbp]
	mov	rax, QWORD PTR [rax]
	mov	rcx, QWORD PTR p$[rbp]
	sub	rcx, rax
	mov	rax, rcx
	mov	ecx, 1
	imul	rcx, rcx, 3
	mov	rdx, QWORD PTR stack$[rbp]
	mov	rdx, QWORD PTR [rdx]
	mov	BYTE PTR [rcx+rdx], al

; 1696 :         END_ATOM;

	mov	rax, QWORD PTR stack$[rbp]
	sub	rax, 8
	mov	QWORD PTR stack$[rbp], rax
	mov	rax, QWORD PTR stack$[rbp]
	mov	rax, QWORD PTR [rax]
	mov	rcx, QWORD PTR p$[rbp]
	sub	rcx, rax
	mov	rax, rcx
	sar	rax, 24
	mov	ecx, 1
	imul	rcx, rcx, 0
	mov	rdx, QWORD PTR stack$[rbp]
	mov	rdx, QWORD PTR [rdx]
	mov	BYTE PTR [rcx+rdx], al
	mov	rax, QWORD PTR stack$[rbp]
	mov	rax, QWORD PTR [rax]
	mov	rcx, QWORD PTR p$[rbp]
	sub	rcx, rax
	mov	rax, rcx
	sar	rax, 16
	mov	ecx, 1
	imul	rcx, rcx, 1
	mov	rdx, QWORD PTR stack$[rbp]
	mov	rdx, QWORD PTR [rdx]
	mov	BYTE PTR [rcx+rdx], al
	mov	rax, QWORD PTR stack$[rbp]
	mov	rax, QWORD PTR [rax]
	mov	rcx, QWORD PTR p$[rbp]
	sub	rcx, rax
	mov	rax, rcx
	sar	rax, 8
	mov	ecx, 1
	imul	rcx, rcx, 2
	mov	rdx, QWORD PTR stack$[rbp]
	mov	rdx, QWORD PTR [rdx]
	mov	BYTE PTR [rcx+rdx], al
	mov	rax, QWORD PTR stack$[rbp]
	mov	rax, QWORD PTR [rax]
	mov	rcx, QWORD PTR p$[rbp]
	sub	rcx, rax
	mov	rax, rcx
	mov	ecx, 1
	imul	rcx, rcx, 3
	mov	rdx, QWORD PTR stack$[rbp]
	mov	rdx, QWORD PTR [rdx]
	mov	BYTE PTR [rcx+rdx], al

; 1697 :     } // tracks loop

	jmp	$LN5@mp4e_flush
$LN6@mp4e_flush:

; 1698 : 
; 1699 :     if (mux->text_comment)

	mov	rax, QWORD PTR mux$[rbp]
	cmp	QWORD PTR [rax+40], 0
	je	$LN115@mp4e_flush

; 1700 :     {
; 1701 :         ATOM(BOX_udta);

	mov	rax, QWORD PTR stack$[rbp]
	mov	rcx, QWORD PTR p$[rbp]
	mov	QWORD PTR [rax], rcx
	mov	rax, QWORD PTR stack$[rbp]
	add	rax, 8
	mov	QWORD PTR stack$[rbp], rax
	mov	rax, QWORD PTR p$[rbp]
	add	rax, 4
	mov	QWORD PTR p$[rbp], rax
	mov	rax, QWORD PTR p$[rbp]
	mov	BYTE PTR [rax], 117			; 00000075H
	mov	rax, QWORD PTR p$[rbp]
	inc	rax
	mov	QWORD PTR p$[rbp], rax
	mov	rax, QWORD PTR p$[rbp]
	mov	BYTE PTR [rax], 100			; 00000064H
	mov	rax, QWORD PTR p$[rbp]
	inc	rax
	mov	QWORD PTR p$[rbp], rax
	mov	rax, QWORD PTR p$[rbp]
	mov	BYTE PTR [rax], 116			; 00000074H
	mov	rax, QWORD PTR p$[rbp]
	inc	rax
	mov	QWORD PTR p$[rbp], rax
	mov	rax, QWORD PTR p$[rbp]
	mov	BYTE PTR [rax], 97			; 00000061H
	mov	rax, QWORD PTR p$[rbp]
	inc	rax
	mov	QWORD PTR p$[rbp], rax

; 1702 :         ATOM_FULL(BOX_meta, 0);

	mov	rax, QWORD PTR stack$[rbp]
	mov	rcx, QWORD PTR p$[rbp]
	mov	QWORD PTR [rax], rcx
	mov	rax, QWORD PTR stack$[rbp]
	add	rax, 8
	mov	QWORD PTR stack$[rbp], rax
	mov	rax, QWORD PTR p$[rbp]
	add	rax, 4
	mov	QWORD PTR p$[rbp], rax
	mov	rax, QWORD PTR p$[rbp]
	mov	BYTE PTR [rax], 109			; 0000006dH
	mov	rax, QWORD PTR p$[rbp]
	inc	rax
	mov	QWORD PTR p$[rbp], rax
	mov	rax, QWORD PTR p$[rbp]
	mov	BYTE PTR [rax], 101			; 00000065H
	mov	rax, QWORD PTR p$[rbp]
	inc	rax
	mov	QWORD PTR p$[rbp], rax
	mov	rax, QWORD PTR p$[rbp]
	mov	BYTE PTR [rax], 116			; 00000074H
	mov	rax, QWORD PTR p$[rbp]
	inc	rax
	mov	QWORD PTR p$[rbp], rax
	mov	rax, QWORD PTR p$[rbp]
	mov	BYTE PTR [rax], 97			; 00000061H
	mov	rax, QWORD PTR p$[rbp]
	inc	rax
	mov	QWORD PTR p$[rbp], rax
	mov	rax, QWORD PTR p$[rbp]
	mov	BYTE PTR [rax], 0
	mov	rax, QWORD PTR p$[rbp]
	inc	rax
	mov	QWORD PTR p$[rbp], rax
	mov	rax, QWORD PTR p$[rbp]
	mov	BYTE PTR [rax], 0
	mov	rax, QWORD PTR p$[rbp]
	inc	rax
	mov	QWORD PTR p$[rbp], rax
	mov	rax, QWORD PTR p$[rbp]
	mov	BYTE PTR [rax], 0
	mov	rax, QWORD PTR p$[rbp]
	inc	rax
	mov	QWORD PTR p$[rbp], rax
	mov	rax, QWORD PTR p$[rbp]
	mov	BYTE PTR [rax], 0
	mov	rax, QWORD PTR p$[rbp]
	inc	rax
	mov	QWORD PTR p$[rbp], rax

; 1703 :         ATOM_FULL(BOX_hdlr, 0);

	mov	rax, QWORD PTR stack$[rbp]
	mov	rcx, QWORD PTR p$[rbp]
	mov	QWORD PTR [rax], rcx
	mov	rax, QWORD PTR stack$[rbp]
	add	rax, 8
	mov	QWORD PTR stack$[rbp], rax
	mov	rax, QWORD PTR p$[rbp]
	add	rax, 4
	mov	QWORD PTR p$[rbp], rax
	mov	rax, QWORD PTR p$[rbp]
	mov	BYTE PTR [rax], 104			; 00000068H
	mov	rax, QWORD PTR p$[rbp]
	inc	rax
	mov	QWORD PTR p$[rbp], rax
	mov	rax, QWORD PTR p$[rbp]
	mov	BYTE PTR [rax], 100			; 00000064H
	mov	rax, QWORD PTR p$[rbp]
	inc	rax
	mov	QWORD PTR p$[rbp], rax
	mov	rax, QWORD PTR p$[rbp]
	mov	BYTE PTR [rax], 108			; 0000006cH
	mov	rax, QWORD PTR p$[rbp]
	inc	rax
	mov	QWORD PTR p$[rbp], rax
	mov	rax, QWORD PTR p$[rbp]
	mov	BYTE PTR [rax], 114			; 00000072H
	mov	rax, QWORD PTR p$[rbp]
	inc	rax
	mov	QWORD PTR p$[rbp], rax
	mov	rax, QWORD PTR p$[rbp]
	mov	BYTE PTR [rax], 0
	mov	rax, QWORD PTR p$[rbp]
	inc	rax
	mov	QWORD PTR p$[rbp], rax
	mov	rax, QWORD PTR p$[rbp]
	mov	BYTE PTR [rax], 0
	mov	rax, QWORD PTR p$[rbp]
	inc	rax
	mov	QWORD PTR p$[rbp], rax
	mov	rax, QWORD PTR p$[rbp]
	mov	BYTE PTR [rax], 0
	mov	rax, QWORD PTR p$[rbp]
	inc	rax
	mov	QWORD PTR p$[rbp], rax
	mov	rax, QWORD PTR p$[rbp]
	mov	BYTE PTR [rax], 0
	mov	rax, QWORD PTR p$[rbp]
	inc	rax
	mov	QWORD PTR p$[rbp], rax

; 1704 :         WRITE_4(0); // pre_defined

	mov	rax, QWORD PTR p$[rbp]
	mov	BYTE PTR [rax], 0
	mov	rax, QWORD PTR p$[rbp]
	inc	rax
	mov	QWORD PTR p$[rbp], rax
	mov	rax, QWORD PTR p$[rbp]
	mov	BYTE PTR [rax], 0
	mov	rax, QWORD PTR p$[rbp]
	inc	rax
	mov	QWORD PTR p$[rbp], rax
	mov	rax, QWORD PTR p$[rbp]
	mov	BYTE PTR [rax], 0
	mov	rax, QWORD PTR p$[rbp]
	inc	rax
	mov	QWORD PTR p$[rbp], rax
	mov	rax, QWORD PTR p$[rbp]
	mov	BYTE PTR [rax], 0
	mov	rax, QWORD PTR p$[rbp]
	inc	rax
	mov	QWORD PTR p$[rbp], rax

; 1705 : #define MP4E_HANDLER_TYPE_MDIR  0x6d646972
; 1706 :         WRITE_4(MP4E_HANDLER_TYPE_MDIR); // handler_type

	mov	rax, QWORD PTR p$[rbp]
	mov	BYTE PTR [rax], 109			; 0000006dH
	mov	rax, QWORD PTR p$[rbp]
	inc	rax
	mov	QWORD PTR p$[rbp], rax
	mov	rax, QWORD PTR p$[rbp]
	mov	BYTE PTR [rax], 100			; 00000064H
	mov	rax, QWORD PTR p$[rbp]
	inc	rax
	mov	QWORD PTR p$[rbp], rax
	mov	rax, QWORD PTR p$[rbp]
	mov	BYTE PTR [rax], 105			; 00000069H
	mov	rax, QWORD PTR p$[rbp]
	inc	rax
	mov	QWORD PTR p$[rbp], rax
	mov	rax, QWORD PTR p$[rbp]
	mov	BYTE PTR [rax], 114			; 00000072H
	mov	rax, QWORD PTR p$[rbp]
	inc	rax
	mov	QWORD PTR p$[rbp], rax

; 1707 :         WRITE_4(0); WRITE_4(0); WRITE_4(0); // reserved[3]

	mov	rax, QWORD PTR p$[rbp]
	mov	BYTE PTR [rax], 0
	mov	rax, QWORD PTR p$[rbp]
	inc	rax
	mov	QWORD PTR p$[rbp], rax
	mov	rax, QWORD PTR p$[rbp]
	mov	BYTE PTR [rax], 0
	mov	rax, QWORD PTR p$[rbp]
	inc	rax
	mov	QWORD PTR p$[rbp], rax
	mov	rax, QWORD PTR p$[rbp]
	mov	BYTE PTR [rax], 0
	mov	rax, QWORD PTR p$[rbp]
	inc	rax
	mov	QWORD PTR p$[rbp], rax
	mov	rax, QWORD PTR p$[rbp]
	mov	BYTE PTR [rax], 0
	mov	rax, QWORD PTR p$[rbp]
	inc	rax
	mov	QWORD PTR p$[rbp], rax
	mov	rax, QWORD PTR p$[rbp]
	mov	BYTE PTR [rax], 0
	mov	rax, QWORD PTR p$[rbp]
	inc	rax
	mov	QWORD PTR p$[rbp], rax
	mov	rax, QWORD PTR p$[rbp]
	mov	BYTE PTR [rax], 0
	mov	rax, QWORD PTR p$[rbp]
	inc	rax
	mov	QWORD PTR p$[rbp], rax
	mov	rax, QWORD PTR p$[rbp]
	mov	BYTE PTR [rax], 0
	mov	rax, QWORD PTR p$[rbp]
	inc	rax
	mov	QWORD PTR p$[rbp], rax
	mov	rax, QWORD PTR p$[rbp]
	mov	BYTE PTR [rax], 0
	mov	rax, QWORD PTR p$[rbp]
	inc	rax
	mov	QWORD PTR p$[rbp], rax
	mov	rax, QWORD PTR p$[rbp]
	mov	BYTE PTR [rax], 0
	mov	rax, QWORD PTR p$[rbp]
	inc	rax
	mov	QWORD PTR p$[rbp], rax
	mov	rax, QWORD PTR p$[rbp]
	mov	BYTE PTR [rax], 0
	mov	rax, QWORD PTR p$[rbp]
	inc	rax
	mov	QWORD PTR p$[rbp], rax
	mov	rax, QWORD PTR p$[rbp]
	mov	BYTE PTR [rax], 0
	mov	rax, QWORD PTR p$[rbp]
	inc	rax
	mov	QWORD PTR p$[rbp], rax
	mov	rax, QWORD PTR p$[rbp]
	mov	BYTE PTR [rax], 0
	mov	rax, QWORD PTR p$[rbp]
	inc	rax
	mov	QWORD PTR p$[rbp], rax

; 1708 :         WRITE_4(0); // name is a null-terminated string in UTF-8 characters which gives a human-readable name for the track type (for debugging and inspection purposes).

	mov	rax, QWORD PTR p$[rbp]
	mov	BYTE PTR [rax], 0
	mov	rax, QWORD PTR p$[rbp]
	inc	rax
	mov	QWORD PTR p$[rbp], rax
	mov	rax, QWORD PTR p$[rbp]
	mov	BYTE PTR [rax], 0
	mov	rax, QWORD PTR p$[rbp]
	inc	rax
	mov	QWORD PTR p$[rbp], rax
	mov	rax, QWORD PTR p$[rbp]
	mov	BYTE PTR [rax], 0
	mov	rax, QWORD PTR p$[rbp]
	inc	rax
	mov	QWORD PTR p$[rbp], rax
	mov	rax, QWORD PTR p$[rbp]
	mov	BYTE PTR [rax], 0
	mov	rax, QWORD PTR p$[rbp]
	inc	rax
	mov	QWORD PTR p$[rbp], rax

; 1709 :         END_ATOM;

	mov	rax, QWORD PTR stack$[rbp]
	sub	rax, 8
	mov	QWORD PTR stack$[rbp], rax
	mov	rax, QWORD PTR stack$[rbp]
	mov	rax, QWORD PTR [rax]
	mov	rcx, QWORD PTR p$[rbp]
	sub	rcx, rax
	mov	rax, rcx
	sar	rax, 24
	mov	ecx, 1
	imul	rcx, rcx, 0
	mov	rdx, QWORD PTR stack$[rbp]
	mov	rdx, QWORD PTR [rdx]
	mov	BYTE PTR [rcx+rdx], al
	mov	rax, QWORD PTR stack$[rbp]
	mov	rax, QWORD PTR [rax]
	mov	rcx, QWORD PTR p$[rbp]
	sub	rcx, rax
	mov	rax, rcx
	sar	rax, 16
	mov	ecx, 1
	imul	rcx, rcx, 1
	mov	rdx, QWORD PTR stack$[rbp]
	mov	rdx, QWORD PTR [rdx]
	mov	BYTE PTR [rcx+rdx], al
	mov	rax, QWORD PTR stack$[rbp]
	mov	rax, QWORD PTR [rax]
	mov	rcx, QWORD PTR p$[rbp]
	sub	rcx, rax
	mov	rax, rcx
	sar	rax, 8
	mov	ecx, 1
	imul	rcx, rcx, 2
	mov	rdx, QWORD PTR stack$[rbp]
	mov	rdx, QWORD PTR [rdx]
	mov	BYTE PTR [rcx+rdx], al
	mov	rax, QWORD PTR stack$[rbp]
	mov	rax, QWORD PTR [rax]
	mov	rcx, QWORD PTR p$[rbp]
	sub	rcx, rax
	mov	rax, rcx
	mov	ecx, 1
	imul	rcx, rcx, 3
	mov	rdx, QWORD PTR stack$[rbp]
	mov	rdx, QWORD PTR [rdx]
	mov	BYTE PTR [rcx+rdx], al

; 1710 :         ATOM(BOX_ilst);

	mov	rax, QWORD PTR stack$[rbp]
	mov	rcx, QWORD PTR p$[rbp]
	mov	QWORD PTR [rax], rcx
	mov	rax, QWORD PTR stack$[rbp]
	add	rax, 8
	mov	QWORD PTR stack$[rbp], rax
	mov	rax, QWORD PTR p$[rbp]
	add	rax, 4
	mov	QWORD PTR p$[rbp], rax
	mov	rax, QWORD PTR p$[rbp]
	mov	BYTE PTR [rax], 105			; 00000069H
	mov	rax, QWORD PTR p$[rbp]
	inc	rax
	mov	QWORD PTR p$[rbp], rax
	mov	rax, QWORD PTR p$[rbp]
	mov	BYTE PTR [rax], 108			; 0000006cH
	mov	rax, QWORD PTR p$[rbp]
	inc	rax
	mov	QWORD PTR p$[rbp], rax
	mov	rax, QWORD PTR p$[rbp]
	mov	BYTE PTR [rax], 115			; 00000073H
	mov	rax, QWORD PTR p$[rbp]
	inc	rax
	mov	QWORD PTR p$[rbp], rax
	mov	rax, QWORD PTR p$[rbp]
	mov	BYTE PTR [rax], 116			; 00000074H
	mov	rax, QWORD PTR p$[rbp]
	inc	rax
	mov	QWORD PTR p$[rbp], rax

; 1711 :         ATOM(BOX_ccmt);

	mov	rax, QWORD PTR stack$[rbp]
	mov	rcx, QWORD PTR p$[rbp]
	mov	QWORD PTR [rax], rcx
	mov	rax, QWORD PTR stack$[rbp]
	add	rax, 8
	mov	QWORD PTR stack$[rbp], rax
	mov	rax, QWORD PTR p$[rbp]
	add	rax, 4
	mov	QWORD PTR p$[rbp], rax
	mov	rax, QWORD PTR p$[rbp]
	mov	BYTE PTR [rax], 169			; 000000a9H
	mov	rax, QWORD PTR p$[rbp]
	inc	rax
	mov	QWORD PTR p$[rbp], rax
	mov	rax, QWORD PTR p$[rbp]
	mov	BYTE PTR [rax], 99			; 00000063H
	mov	rax, QWORD PTR p$[rbp]
	inc	rax
	mov	QWORD PTR p$[rbp], rax
	mov	rax, QWORD PTR p$[rbp]
	mov	BYTE PTR [rax], 109			; 0000006dH
	mov	rax, QWORD PTR p$[rbp]
	inc	rax
	mov	QWORD PTR p$[rbp], rax
	mov	rax, QWORD PTR p$[rbp]
	mov	BYTE PTR [rax], 116			; 00000074H
	mov	rax, QWORD PTR p$[rbp]
	inc	rax
	mov	QWORD PTR p$[rbp], rax

; 1712 :         ATOM(BOX_data);

	mov	rax, QWORD PTR stack$[rbp]
	mov	rcx, QWORD PTR p$[rbp]
	mov	QWORD PTR [rax], rcx
	mov	rax, QWORD PTR stack$[rbp]
	add	rax, 8
	mov	QWORD PTR stack$[rbp], rax
	mov	rax, QWORD PTR p$[rbp]
	add	rax, 4
	mov	QWORD PTR p$[rbp], rax
	mov	rax, QWORD PTR p$[rbp]
	mov	BYTE PTR [rax], 100			; 00000064H
	mov	rax, QWORD PTR p$[rbp]
	inc	rax
	mov	QWORD PTR p$[rbp], rax
	mov	rax, QWORD PTR p$[rbp]
	mov	BYTE PTR [rax], 97			; 00000061H
	mov	rax, QWORD PTR p$[rbp]
	inc	rax
	mov	QWORD PTR p$[rbp], rax
	mov	rax, QWORD PTR p$[rbp]
	mov	BYTE PTR [rax], 116			; 00000074H
	mov	rax, QWORD PTR p$[rbp]
	inc	rax
	mov	QWORD PTR p$[rbp], rax
	mov	rax, QWORD PTR p$[rbp]
	mov	BYTE PTR [rax], 97			; 00000061H
	mov	rax, QWORD PTR p$[rbp]
	inc	rax
	mov	QWORD PTR p$[rbp], rax

; 1713 :         WRITE_4(1); // type

	mov	rax, QWORD PTR p$[rbp]
	mov	BYTE PTR [rax], 0
	mov	rax, QWORD PTR p$[rbp]
	inc	rax
	mov	QWORD PTR p$[rbp], rax
	mov	rax, QWORD PTR p$[rbp]
	mov	BYTE PTR [rax], 0
	mov	rax, QWORD PTR p$[rbp]
	inc	rax
	mov	QWORD PTR p$[rbp], rax
	mov	rax, QWORD PTR p$[rbp]
	mov	BYTE PTR [rax], 0
	mov	rax, QWORD PTR p$[rbp]
	inc	rax
	mov	QWORD PTR p$[rbp], rax
	mov	rax, QWORD PTR p$[rbp]
	mov	BYTE PTR [rax], 1
	mov	rax, QWORD PTR p$[rbp]
	inc	rax
	mov	QWORD PTR p$[rbp], rax

; 1714 :         WRITE_4(0); // lang

	mov	rax, QWORD PTR p$[rbp]
	mov	BYTE PTR [rax], 0
	mov	rax, QWORD PTR p$[rbp]
	inc	rax
	mov	QWORD PTR p$[rbp], rax
	mov	rax, QWORD PTR p$[rbp]
	mov	BYTE PTR [rax], 0
	mov	rax, QWORD PTR p$[rbp]
	inc	rax
	mov	QWORD PTR p$[rbp], rax
	mov	rax, QWORD PTR p$[rbp]
	mov	BYTE PTR [rax], 0
	mov	rax, QWORD PTR p$[rbp]
	inc	rax
	mov	QWORD PTR p$[rbp], rax
	mov	rax, QWORD PTR p$[rbp]
	mov	BYTE PTR [rax], 0
	mov	rax, QWORD PTR p$[rbp]
	inc	rax
	mov	QWORD PTR p$[rbp], rax

; 1715 :         for (i = 0; i < (int)strlen(mux->text_comment) + 1; i++)

	mov	DWORD PTR i$[rbp], 0
	jmp	SHORT $LN63@mp4e_flush
$LN61@mp4e_flush:
	mov	eax, DWORD PTR i$[rbp]
	inc	eax
	mov	DWORD PTR i$[rbp], eax
$LN63@mp4e_flush:
	mov	rax, QWORD PTR mux$[rbp]
	mov	rcx, QWORD PTR [rax+40]
	call	strlen
	inc	eax
	cmp	DWORD PTR i$[rbp], eax
	jge	SHORT $LN62@mp4e_flush

; 1716 :         {
; 1717 :             WRITE_1(mux->text_comment[i]);

	movsxd	rax, DWORD PTR i$[rbp]
	mov	rcx, QWORD PTR mux$[rbp]
	mov	rcx, QWORD PTR [rcx+40]
	mov	rdx, QWORD PTR p$[rbp]
	movzx	eax, BYTE PTR [rcx+rax]
	mov	BYTE PTR [rdx], al
	mov	rax, QWORD PTR p$[rbp]
	inc	rax
	mov	QWORD PTR p$[rbp], rax

; 1718 :         }

	jmp	SHORT $LN61@mp4e_flush
$LN62@mp4e_flush:

; 1719 :         END_ATOM;

	mov	rax, QWORD PTR stack$[rbp]
	sub	rax, 8
	mov	QWORD PTR stack$[rbp], rax
	mov	rax, QWORD PTR stack$[rbp]
	mov	rax, QWORD PTR [rax]
	mov	rcx, QWORD PTR p$[rbp]
	sub	rcx, rax
	mov	rax, rcx
	sar	rax, 24
	mov	ecx, 1
	imul	rcx, rcx, 0
	mov	rdx, QWORD PTR stack$[rbp]
	mov	rdx, QWORD PTR [rdx]
	mov	BYTE PTR [rcx+rdx], al
	mov	rax, QWORD PTR stack$[rbp]
	mov	rax, QWORD PTR [rax]
	mov	rcx, QWORD PTR p$[rbp]
	sub	rcx, rax
	mov	rax, rcx
	sar	rax, 16
	mov	ecx, 1
	imul	rcx, rcx, 1
	mov	rdx, QWORD PTR stack$[rbp]
	mov	rdx, QWORD PTR [rdx]
	mov	BYTE PTR [rcx+rdx], al
	mov	rax, QWORD PTR stack$[rbp]
	mov	rax, QWORD PTR [rax]
	mov	rcx, QWORD PTR p$[rbp]
	sub	rcx, rax
	mov	rax, rcx
	sar	rax, 8
	mov	ecx, 1
	imul	rcx, rcx, 2
	mov	rdx, QWORD PTR stack$[rbp]
	mov	rdx, QWORD PTR [rdx]
	mov	BYTE PTR [rcx+rdx], al
	mov	rax, QWORD PTR stack$[rbp]
	mov	rax, QWORD PTR [rax]
	mov	rcx, QWORD PTR p$[rbp]
	sub	rcx, rax
	mov	rax, rcx
	mov	ecx, 1
	imul	rcx, rcx, 3
	mov	rdx, QWORD PTR stack$[rbp]
	mov	rdx, QWORD PTR [rdx]
	mov	BYTE PTR [rcx+rdx], al

; 1720 :         END_ATOM;

	mov	rax, QWORD PTR stack$[rbp]
	sub	rax, 8
	mov	QWORD PTR stack$[rbp], rax
	mov	rax, QWORD PTR stack$[rbp]
	mov	rax, QWORD PTR [rax]
	mov	rcx, QWORD PTR p$[rbp]
	sub	rcx, rax
	mov	rax, rcx
	sar	rax, 24
	mov	ecx, 1
	imul	rcx, rcx, 0
	mov	rdx, QWORD PTR stack$[rbp]
	mov	rdx, QWORD PTR [rdx]
	mov	BYTE PTR [rcx+rdx], al
	mov	rax, QWORD PTR stack$[rbp]
	mov	rax, QWORD PTR [rax]
	mov	rcx, QWORD PTR p$[rbp]
	sub	rcx, rax
	mov	rax, rcx
	sar	rax, 16
	mov	ecx, 1
	imul	rcx, rcx, 1
	mov	rdx, QWORD PTR stack$[rbp]
	mov	rdx, QWORD PTR [rdx]
	mov	BYTE PTR [rcx+rdx], al
	mov	rax, QWORD PTR stack$[rbp]
	mov	rax, QWORD PTR [rax]
	mov	rcx, QWORD PTR p$[rbp]
	sub	rcx, rax
	mov	rax, rcx
	sar	rax, 8
	mov	ecx, 1
	imul	rcx, rcx, 2
	mov	rdx, QWORD PTR stack$[rbp]
	mov	rdx, QWORD PTR [rdx]
	mov	BYTE PTR [rcx+rdx], al
	mov	rax, QWORD PTR stack$[rbp]
	mov	rax, QWORD PTR [rax]
	mov	rcx, QWORD PTR p$[rbp]
	sub	rcx, rax
	mov	rax, rcx
	mov	ecx, 1
	imul	rcx, rcx, 3
	mov	rdx, QWORD PTR stack$[rbp]
	mov	rdx, QWORD PTR [rdx]
	mov	BYTE PTR [rcx+rdx], al

; 1721 :         END_ATOM;

	mov	rax, QWORD PTR stack$[rbp]
	sub	rax, 8
	mov	QWORD PTR stack$[rbp], rax
	mov	rax, QWORD PTR stack$[rbp]
	mov	rax, QWORD PTR [rax]
	mov	rcx, QWORD PTR p$[rbp]
	sub	rcx, rax
	mov	rax, rcx
	sar	rax, 24
	mov	ecx, 1
	imul	rcx, rcx, 0
	mov	rdx, QWORD PTR stack$[rbp]
	mov	rdx, QWORD PTR [rdx]
	mov	BYTE PTR [rcx+rdx], al
	mov	rax, QWORD PTR stack$[rbp]
	mov	rax, QWORD PTR [rax]
	mov	rcx, QWORD PTR p$[rbp]
	sub	rcx, rax
	mov	rax, rcx
	sar	rax, 16
	mov	ecx, 1
	imul	rcx, rcx, 1
	mov	rdx, QWORD PTR stack$[rbp]
	mov	rdx, QWORD PTR [rdx]
	mov	BYTE PTR [rcx+rdx], al
	mov	rax, QWORD PTR stack$[rbp]
	mov	rax, QWORD PTR [rax]
	mov	rcx, QWORD PTR p$[rbp]
	sub	rcx, rax
	mov	rax, rcx
	sar	rax, 8
	mov	ecx, 1
	imul	rcx, rcx, 2
	mov	rdx, QWORD PTR stack$[rbp]
	mov	rdx, QWORD PTR [rdx]
	mov	BYTE PTR [rcx+rdx], al
	mov	rax, QWORD PTR stack$[rbp]
	mov	rax, QWORD PTR [rax]
	mov	rcx, QWORD PTR p$[rbp]
	sub	rcx, rax
	mov	rax, rcx
	mov	ecx, 1
	imul	rcx, rcx, 3
	mov	rdx, QWORD PTR stack$[rbp]
	mov	rdx, QWORD PTR [rdx]
	mov	BYTE PTR [rcx+rdx], al

; 1722 :         END_ATOM;

	mov	rax, QWORD PTR stack$[rbp]
	sub	rax, 8
	mov	QWORD PTR stack$[rbp], rax
	mov	rax, QWORD PTR stack$[rbp]
	mov	rax, QWORD PTR [rax]
	mov	rcx, QWORD PTR p$[rbp]
	sub	rcx, rax
	mov	rax, rcx
	sar	rax, 24
	mov	ecx, 1
	imul	rcx, rcx, 0
	mov	rdx, QWORD PTR stack$[rbp]
	mov	rdx, QWORD PTR [rdx]
	mov	BYTE PTR [rcx+rdx], al
	mov	rax, QWORD PTR stack$[rbp]
	mov	rax, QWORD PTR [rax]
	mov	rcx, QWORD PTR p$[rbp]
	sub	rcx, rax
	mov	rax, rcx
	sar	rax, 16
	mov	ecx, 1
	imul	rcx, rcx, 1
	mov	rdx, QWORD PTR stack$[rbp]
	mov	rdx, QWORD PTR [rdx]
	mov	BYTE PTR [rcx+rdx], al
	mov	rax, QWORD PTR stack$[rbp]
	mov	rax, QWORD PTR [rax]
	mov	rcx, QWORD PTR p$[rbp]
	sub	rcx, rax
	mov	rax, rcx
	sar	rax, 8
	mov	ecx, 1
	imul	rcx, rcx, 2
	mov	rdx, QWORD PTR stack$[rbp]
	mov	rdx, QWORD PTR [rdx]
	mov	BYTE PTR [rcx+rdx], al
	mov	rax, QWORD PTR stack$[rbp]
	mov	rax, QWORD PTR [rax]
	mov	rcx, QWORD PTR p$[rbp]
	sub	rcx, rax
	mov	rax, rcx
	mov	ecx, 1
	imul	rcx, rcx, 3
	mov	rdx, QWORD PTR stack$[rbp]
	mov	rdx, QWORD PTR [rdx]
	mov	BYTE PTR [rcx+rdx], al

; 1723 :         END_ATOM;

	mov	rax, QWORD PTR stack$[rbp]
	sub	rax, 8
	mov	QWORD PTR stack$[rbp], rax
	mov	rax, QWORD PTR stack$[rbp]
	mov	rax, QWORD PTR [rax]
	mov	rcx, QWORD PTR p$[rbp]
	sub	rcx, rax
	mov	rax, rcx
	sar	rax, 24
	mov	ecx, 1
	imul	rcx, rcx, 0
	mov	rdx, QWORD PTR stack$[rbp]
	mov	rdx, QWORD PTR [rdx]
	mov	BYTE PTR [rcx+rdx], al
	mov	rax, QWORD PTR stack$[rbp]
	mov	rax, QWORD PTR [rax]
	mov	rcx, QWORD PTR p$[rbp]
	sub	rcx, rax
	mov	rax, rcx
	sar	rax, 16
	mov	ecx, 1
	imul	rcx, rcx, 1
	mov	rdx, QWORD PTR stack$[rbp]
	mov	rdx, QWORD PTR [rdx]
	mov	BYTE PTR [rcx+rdx], al
	mov	rax, QWORD PTR stack$[rbp]
	mov	rax, QWORD PTR [rax]
	mov	rcx, QWORD PTR p$[rbp]
	sub	rcx, rax
	mov	rax, rcx
	sar	rax, 8
	mov	ecx, 1
	imul	rcx, rcx, 2
	mov	rdx, QWORD PTR stack$[rbp]
	mov	rdx, QWORD PTR [rdx]
	mov	BYTE PTR [rcx+rdx], al
	mov	rax, QWORD PTR stack$[rbp]
	mov	rax, QWORD PTR [rax]
	mov	rcx, QWORD PTR p$[rbp]
	sub	rcx, rax
	mov	rax, rcx
	mov	ecx, 1
	imul	rcx, rcx, 3
	mov	rdx, QWORD PTR stack$[rbp]
	mov	rdx, QWORD PTR [rdx]
	mov	BYTE PTR [rcx+rdx], al
$LN115@mp4e_flush:

; 1724 :     }
; 1725 : 
; 1726 :     if (mux->enable_fragmentation)

	mov	rax, QWORD PTR mux$[rbp]
	cmp	DWORD PTR [rax+52], 0
	je	$LN116@mp4e_flush

; 1727 :     {
; 1728 :         track_t* tr = ((track_t*)mux->tracks.data) + 0;

	mov	rax, QWORD PTR mux$[rbp]
	mov	rax, QWORD PTR [rax]
	mov	QWORD PTR tr$28[rbp], rax

; 1729 :         uint32_t movie_duration = get_duration(tr);

	mov	rcx, QWORD PTR tr$28[rbp]
	call	?get_duration@@YAIPEBUtrack_t@@@Z	; get_duration
	mov	DWORD PTR movie_duration$29[rbp], eax

; 1730 : 
; 1731 :         ATOM(BOX_mvex);

	mov	rax, QWORD PTR stack$[rbp]
	mov	rcx, QWORD PTR p$[rbp]
	mov	QWORD PTR [rax], rcx
	mov	rax, QWORD PTR stack$[rbp]
	add	rax, 8
	mov	QWORD PTR stack$[rbp], rax
	mov	rax, QWORD PTR p$[rbp]
	add	rax, 4
	mov	QWORD PTR p$[rbp], rax
	mov	rax, QWORD PTR p$[rbp]
	mov	BYTE PTR [rax], 109			; 0000006dH
	mov	rax, QWORD PTR p$[rbp]
	inc	rax
	mov	QWORD PTR p$[rbp], rax
	mov	rax, QWORD PTR p$[rbp]
	mov	BYTE PTR [rax], 118			; 00000076H
	mov	rax, QWORD PTR p$[rbp]
	inc	rax
	mov	QWORD PTR p$[rbp], rax
	mov	rax, QWORD PTR p$[rbp]
	mov	BYTE PTR [rax], 101			; 00000065H
	mov	rax, QWORD PTR p$[rbp]
	inc	rax
	mov	QWORD PTR p$[rbp], rax
	mov	rax, QWORD PTR p$[rbp]
	mov	BYTE PTR [rax], 120			; 00000078H
	mov	rax, QWORD PTR p$[rbp]
	inc	rax
	mov	QWORD PTR p$[rbp], rax

; 1732 :         ATOM_FULL(BOX_mehd, 0);

	mov	rax, QWORD PTR stack$[rbp]
	mov	rcx, QWORD PTR p$[rbp]
	mov	QWORD PTR [rax], rcx
	mov	rax, QWORD PTR stack$[rbp]
	add	rax, 8
	mov	QWORD PTR stack$[rbp], rax
	mov	rax, QWORD PTR p$[rbp]
	add	rax, 4
	mov	QWORD PTR p$[rbp], rax
	mov	rax, QWORD PTR p$[rbp]
	mov	BYTE PTR [rax], 109			; 0000006dH
	mov	rax, QWORD PTR p$[rbp]
	inc	rax
	mov	QWORD PTR p$[rbp], rax
	mov	rax, QWORD PTR p$[rbp]
	mov	BYTE PTR [rax], 101			; 00000065H
	mov	rax, QWORD PTR p$[rbp]
	inc	rax
	mov	QWORD PTR p$[rbp], rax
	mov	rax, QWORD PTR p$[rbp]
	mov	BYTE PTR [rax], 104			; 00000068H
	mov	rax, QWORD PTR p$[rbp]
	inc	rax
	mov	QWORD PTR p$[rbp], rax
	mov	rax, QWORD PTR p$[rbp]
	mov	BYTE PTR [rax], 100			; 00000064H
	mov	rax, QWORD PTR p$[rbp]
	inc	rax
	mov	QWORD PTR p$[rbp], rax
	mov	rax, QWORD PTR p$[rbp]
	mov	BYTE PTR [rax], 0
	mov	rax, QWORD PTR p$[rbp]
	inc	rax
	mov	QWORD PTR p$[rbp], rax
	mov	rax, QWORD PTR p$[rbp]
	mov	BYTE PTR [rax], 0
	mov	rax, QWORD PTR p$[rbp]
	inc	rax
	mov	QWORD PTR p$[rbp], rax
	mov	rax, QWORD PTR p$[rbp]
	mov	BYTE PTR [rax], 0
	mov	rax, QWORD PTR p$[rbp]
	inc	rax
	mov	QWORD PTR p$[rbp], rax
	mov	rax, QWORD PTR p$[rbp]
	mov	BYTE PTR [rax], 0
	mov	rax, QWORD PTR p$[rbp]
	inc	rax
	mov	QWORD PTR p$[rbp], rax

; 1733 :         WRITE_4(movie_duration); // duration

	mov	eax, DWORD PTR movie_duration$29[rbp]
	shr	eax, 24
	mov	rcx, QWORD PTR p$[rbp]
	mov	BYTE PTR [rcx], al
	mov	rax, QWORD PTR p$[rbp]
	inc	rax
	mov	QWORD PTR p$[rbp], rax
	mov	eax, DWORD PTR movie_duration$29[rbp]
	shr	eax, 16
	mov	rcx, QWORD PTR p$[rbp]
	mov	BYTE PTR [rcx], al
	mov	rax, QWORD PTR p$[rbp]
	inc	rax
	mov	QWORD PTR p$[rbp], rax
	mov	eax, DWORD PTR movie_duration$29[rbp]
	shr	eax, 8
	mov	rcx, QWORD PTR p$[rbp]
	mov	BYTE PTR [rcx], al
	mov	rax, QWORD PTR p$[rbp]
	inc	rax
	mov	QWORD PTR p$[rbp], rax
	mov	rax, QWORD PTR p$[rbp]
	movzx	ecx, BYTE PTR movie_duration$29[rbp]
	mov	BYTE PTR [rax], cl
	mov	rax, QWORD PTR p$[rbp]
	inc	rax
	mov	QWORD PTR p$[rbp], rax

; 1734 :         END_ATOM;

	mov	rax, QWORD PTR stack$[rbp]
	sub	rax, 8
	mov	QWORD PTR stack$[rbp], rax
	mov	rax, QWORD PTR stack$[rbp]
	mov	rax, QWORD PTR [rax]
	mov	rcx, QWORD PTR p$[rbp]
	sub	rcx, rax
	mov	rax, rcx
	sar	rax, 24
	mov	ecx, 1
	imul	rcx, rcx, 0
	mov	rdx, QWORD PTR stack$[rbp]
	mov	rdx, QWORD PTR [rdx]
	mov	BYTE PTR [rcx+rdx], al
	mov	rax, QWORD PTR stack$[rbp]
	mov	rax, QWORD PTR [rax]
	mov	rcx, QWORD PTR p$[rbp]
	sub	rcx, rax
	mov	rax, rcx
	sar	rax, 16
	mov	ecx, 1
	imul	rcx, rcx, 1
	mov	rdx, QWORD PTR stack$[rbp]
	mov	rdx, QWORD PTR [rdx]
	mov	BYTE PTR [rcx+rdx], al
	mov	rax, QWORD PTR stack$[rbp]
	mov	rax, QWORD PTR [rax]
	mov	rcx, QWORD PTR p$[rbp]
	sub	rcx, rax
	mov	rax, rcx
	sar	rax, 8
	mov	ecx, 1
	imul	rcx, rcx, 2
	mov	rdx, QWORD PTR stack$[rbp]
	mov	rdx, QWORD PTR [rdx]
	mov	BYTE PTR [rcx+rdx], al
	mov	rax, QWORD PTR stack$[rbp]
	mov	rax, QWORD PTR [rax]
	mov	rcx, QWORD PTR p$[rbp]
	sub	rcx, rax
	mov	rax, rcx
	mov	ecx, 1
	imul	rcx, rcx, 3
	mov	rdx, QWORD PTR stack$[rbp]
	mov	rdx, QWORD PTR [rdx]
	mov	BYTE PTR [rcx+rdx], al

; 1735 :         for (ntr = 0; ntr < ntracks; ntr++)

	mov	DWORD PTR ntr$[rbp], 0
	jmp	SHORT $LN66@mp4e_flush
$LN64@mp4e_flush:
	mov	eax, DWORD PTR ntr$[rbp]
	inc	eax
	mov	DWORD PTR ntr$[rbp], eax
$LN66@mp4e_flush:
	mov	eax, DWORD PTR ntracks$[rbp]
	cmp	DWORD PTR ntr$[rbp], eax
	jae	$LN65@mp4e_flush

; 1736 :         {
; 1737 :             ATOM_FULL(BOX_trex, 0);

	mov	rax, QWORD PTR stack$[rbp]
	mov	rcx, QWORD PTR p$[rbp]
	mov	QWORD PTR [rax], rcx
	mov	rax, QWORD PTR stack$[rbp]
	add	rax, 8
	mov	QWORD PTR stack$[rbp], rax
	mov	rax, QWORD PTR p$[rbp]
	add	rax, 4
	mov	QWORD PTR p$[rbp], rax
	mov	rax, QWORD PTR p$[rbp]
	mov	BYTE PTR [rax], 116			; 00000074H
	mov	rax, QWORD PTR p$[rbp]
	inc	rax
	mov	QWORD PTR p$[rbp], rax
	mov	rax, QWORD PTR p$[rbp]
	mov	BYTE PTR [rax], 114			; 00000072H
	mov	rax, QWORD PTR p$[rbp]
	inc	rax
	mov	QWORD PTR p$[rbp], rax
	mov	rax, QWORD PTR p$[rbp]
	mov	BYTE PTR [rax], 101			; 00000065H
	mov	rax, QWORD PTR p$[rbp]
	inc	rax
	mov	QWORD PTR p$[rbp], rax
	mov	rax, QWORD PTR p$[rbp]
	mov	BYTE PTR [rax], 120			; 00000078H
	mov	rax, QWORD PTR p$[rbp]
	inc	rax
	mov	QWORD PTR p$[rbp], rax
	mov	rax, QWORD PTR p$[rbp]
	mov	BYTE PTR [rax], 0
	mov	rax, QWORD PTR p$[rbp]
	inc	rax
	mov	QWORD PTR p$[rbp], rax
	mov	rax, QWORD PTR p$[rbp]
	mov	BYTE PTR [rax], 0
	mov	rax, QWORD PTR p$[rbp]
	inc	rax
	mov	QWORD PTR p$[rbp], rax
	mov	rax, QWORD PTR p$[rbp]
	mov	BYTE PTR [rax], 0
	mov	rax, QWORD PTR p$[rbp]
	inc	rax
	mov	QWORD PTR p$[rbp], rax
	mov	rax, QWORD PTR p$[rbp]
	mov	BYTE PTR [rax], 0
	mov	rax, QWORD PTR p$[rbp]
	inc	rax
	mov	QWORD PTR p$[rbp], rax

; 1738 :             WRITE_4(ntr + 1);        // track_ID

	mov	eax, DWORD PTR ntr$[rbp]
	inc	eax
	shr	eax, 24
	mov	rcx, QWORD PTR p$[rbp]
	mov	BYTE PTR [rcx], al
	mov	rax, QWORD PTR p$[rbp]
	inc	rax
	mov	QWORD PTR p$[rbp], rax
	mov	eax, DWORD PTR ntr$[rbp]
	inc	eax
	shr	eax, 16
	mov	rcx, QWORD PTR p$[rbp]
	mov	BYTE PTR [rcx], al
	mov	rax, QWORD PTR p$[rbp]
	inc	rax
	mov	QWORD PTR p$[rbp], rax
	mov	eax, DWORD PTR ntr$[rbp]
	inc	eax
	shr	eax, 8
	mov	rcx, QWORD PTR p$[rbp]
	mov	BYTE PTR [rcx], al
	mov	rax, QWORD PTR p$[rbp]
	inc	rax
	mov	QWORD PTR p$[rbp], rax
	mov	eax, DWORD PTR ntr$[rbp]
	inc	eax
	mov	rcx, QWORD PTR p$[rbp]
	mov	BYTE PTR [rcx], al
	mov	rax, QWORD PTR p$[rbp]
	inc	rax
	mov	QWORD PTR p$[rbp], rax

; 1739 :             WRITE_4(1);              // default_sample_description_index

	mov	rax, QWORD PTR p$[rbp]
	mov	BYTE PTR [rax], 0
	mov	rax, QWORD PTR p$[rbp]
	inc	rax
	mov	QWORD PTR p$[rbp], rax
	mov	rax, QWORD PTR p$[rbp]
	mov	BYTE PTR [rax], 0
	mov	rax, QWORD PTR p$[rbp]
	inc	rax
	mov	QWORD PTR p$[rbp], rax
	mov	rax, QWORD PTR p$[rbp]
	mov	BYTE PTR [rax], 0
	mov	rax, QWORD PTR p$[rbp]
	inc	rax
	mov	QWORD PTR p$[rbp], rax
	mov	rax, QWORD PTR p$[rbp]
	mov	BYTE PTR [rax], 1
	mov	rax, QWORD PTR p$[rbp]
	inc	rax
	mov	QWORD PTR p$[rbp], rax

; 1740 :             WRITE_4(0);              // default_sample_duration

	mov	rax, QWORD PTR p$[rbp]
	mov	BYTE PTR [rax], 0
	mov	rax, QWORD PTR p$[rbp]
	inc	rax
	mov	QWORD PTR p$[rbp], rax
	mov	rax, QWORD PTR p$[rbp]
	mov	BYTE PTR [rax], 0
	mov	rax, QWORD PTR p$[rbp]
	inc	rax
	mov	QWORD PTR p$[rbp], rax
	mov	rax, QWORD PTR p$[rbp]
	mov	BYTE PTR [rax], 0
	mov	rax, QWORD PTR p$[rbp]
	inc	rax
	mov	QWORD PTR p$[rbp], rax
	mov	rax, QWORD PTR p$[rbp]
	mov	BYTE PTR [rax], 0
	mov	rax, QWORD PTR p$[rbp]
	inc	rax
	mov	QWORD PTR p$[rbp], rax

; 1741 :             WRITE_4(0);              // default_sample_size

	mov	rax, QWORD PTR p$[rbp]
	mov	BYTE PTR [rax], 0
	mov	rax, QWORD PTR p$[rbp]
	inc	rax
	mov	QWORD PTR p$[rbp], rax
	mov	rax, QWORD PTR p$[rbp]
	mov	BYTE PTR [rax], 0
	mov	rax, QWORD PTR p$[rbp]
	inc	rax
	mov	QWORD PTR p$[rbp], rax
	mov	rax, QWORD PTR p$[rbp]
	mov	BYTE PTR [rax], 0
	mov	rax, QWORD PTR p$[rbp]
	inc	rax
	mov	QWORD PTR p$[rbp], rax
	mov	rax, QWORD PTR p$[rbp]
	mov	BYTE PTR [rax], 0
	mov	rax, QWORD PTR p$[rbp]
	inc	rax
	mov	QWORD PTR p$[rbp], rax

; 1742 :             WRITE_4(0);              // default_sample_flags

	mov	rax, QWORD PTR p$[rbp]
	mov	BYTE PTR [rax], 0
	mov	rax, QWORD PTR p$[rbp]
	inc	rax
	mov	QWORD PTR p$[rbp], rax
	mov	rax, QWORD PTR p$[rbp]
	mov	BYTE PTR [rax], 0
	mov	rax, QWORD PTR p$[rbp]
	inc	rax
	mov	QWORD PTR p$[rbp], rax
	mov	rax, QWORD PTR p$[rbp]
	mov	BYTE PTR [rax], 0
	mov	rax, QWORD PTR p$[rbp]
	inc	rax
	mov	QWORD PTR p$[rbp], rax
	mov	rax, QWORD PTR p$[rbp]
	mov	BYTE PTR [rax], 0
	mov	rax, QWORD PTR p$[rbp]
	inc	rax
	mov	QWORD PTR p$[rbp], rax

; 1743 :             END_ATOM;

	mov	rax, QWORD PTR stack$[rbp]
	sub	rax, 8
	mov	QWORD PTR stack$[rbp], rax
	mov	rax, QWORD PTR stack$[rbp]
	mov	rax, QWORD PTR [rax]
	mov	rcx, QWORD PTR p$[rbp]
	sub	rcx, rax
	mov	rax, rcx
	sar	rax, 24
	mov	ecx, 1
	imul	rcx, rcx, 0
	mov	rdx, QWORD PTR stack$[rbp]
	mov	rdx, QWORD PTR [rdx]
	mov	BYTE PTR [rcx+rdx], al
	mov	rax, QWORD PTR stack$[rbp]
	mov	rax, QWORD PTR [rax]
	mov	rcx, QWORD PTR p$[rbp]
	sub	rcx, rax
	mov	rax, rcx
	sar	rax, 16
	mov	ecx, 1
	imul	rcx, rcx, 1
	mov	rdx, QWORD PTR stack$[rbp]
	mov	rdx, QWORD PTR [rdx]
	mov	BYTE PTR [rcx+rdx], al
	mov	rax, QWORD PTR stack$[rbp]
	mov	rax, QWORD PTR [rax]
	mov	rcx, QWORD PTR p$[rbp]
	sub	rcx, rax
	mov	rax, rcx
	sar	rax, 8
	mov	ecx, 1
	imul	rcx, rcx, 2
	mov	rdx, QWORD PTR stack$[rbp]
	mov	rdx, QWORD PTR [rdx]
	mov	BYTE PTR [rcx+rdx], al
	mov	rax, QWORD PTR stack$[rbp]
	mov	rax, QWORD PTR [rax]
	mov	rcx, QWORD PTR p$[rbp]
	sub	rcx, rax
	mov	rax, rcx
	mov	ecx, 1
	imul	rcx, rcx, 3
	mov	rdx, QWORD PTR stack$[rbp]
	mov	rdx, QWORD PTR [rdx]
	mov	BYTE PTR [rcx+rdx], al

; 1744 :         }

	jmp	$LN64@mp4e_flush
$LN65@mp4e_flush:

; 1745 :         END_ATOM;

	mov	rax, QWORD PTR stack$[rbp]
	sub	rax, 8
	mov	QWORD PTR stack$[rbp], rax
	mov	rax, QWORD PTR stack$[rbp]
	mov	rax, QWORD PTR [rax]
	mov	rcx, QWORD PTR p$[rbp]
	sub	rcx, rax
	mov	rax, rcx
	sar	rax, 24
	mov	ecx, 1
	imul	rcx, rcx, 0
	mov	rdx, QWORD PTR stack$[rbp]
	mov	rdx, QWORD PTR [rdx]
	mov	BYTE PTR [rcx+rdx], al
	mov	rax, QWORD PTR stack$[rbp]
	mov	rax, QWORD PTR [rax]
	mov	rcx, QWORD PTR p$[rbp]
	sub	rcx, rax
	mov	rax, rcx
	sar	rax, 16
	mov	ecx, 1
	imul	rcx, rcx, 1
	mov	rdx, QWORD PTR stack$[rbp]
	mov	rdx, QWORD PTR [rdx]
	mov	BYTE PTR [rcx+rdx], al
	mov	rax, QWORD PTR stack$[rbp]
	mov	rax, QWORD PTR [rax]
	mov	rcx, QWORD PTR p$[rbp]
	sub	rcx, rax
	mov	rax, rcx
	sar	rax, 8
	mov	ecx, 1
	imul	rcx, rcx, 2
	mov	rdx, QWORD PTR stack$[rbp]
	mov	rdx, QWORD PTR [rdx]
	mov	BYTE PTR [rcx+rdx], al
	mov	rax, QWORD PTR stack$[rbp]
	mov	rax, QWORD PTR [rax]
	mov	rcx, QWORD PTR p$[rbp]
	sub	rcx, rax
	mov	rax, rcx
	mov	ecx, 1
	imul	rcx, rcx, 3
	mov	rdx, QWORD PTR stack$[rbp]
	mov	rdx, QWORD PTR [rdx]
	mov	BYTE PTR [rcx+rdx], al
$LN116@mp4e_flush:

; 1746 :     }
; 1747 :     END_ATOM;   // moov atom

	mov	rax, QWORD PTR stack$[rbp]
	sub	rax, 8
	mov	QWORD PTR stack$[rbp], rax
	mov	rax, QWORD PTR stack$[rbp]
	mov	rax, QWORD PTR [rax]
	mov	rcx, QWORD PTR p$[rbp]
	sub	rcx, rax
	mov	rax, rcx
	sar	rax, 24
	mov	ecx, 1
	imul	rcx, rcx, 0
	mov	rdx, QWORD PTR stack$[rbp]
	mov	rdx, QWORD PTR [rdx]
	mov	BYTE PTR [rcx+rdx], al
	mov	rax, QWORD PTR stack$[rbp]
	mov	rax, QWORD PTR [rax]
	mov	rcx, QWORD PTR p$[rbp]
	sub	rcx, rax
	mov	rax, rcx
	sar	rax, 16
	mov	ecx, 1
	imul	rcx, rcx, 1
	mov	rdx, QWORD PTR stack$[rbp]
	mov	rdx, QWORD PTR [rdx]
	mov	BYTE PTR [rcx+rdx], al
	mov	rax, QWORD PTR stack$[rbp]
	mov	rax, QWORD PTR [rax]
	mov	rcx, QWORD PTR p$[rbp]
	sub	rcx, rax
	mov	rax, rcx
	sar	rax, 8
	mov	ecx, 1
	imul	rcx, rcx, 2
	mov	rdx, QWORD PTR stack$[rbp]
	mov	rdx, QWORD PTR [rdx]
	mov	BYTE PTR [rcx+rdx], al
	mov	rax, QWORD PTR stack$[rbp]
	mov	rax, QWORD PTR [rax]
	mov	rcx, QWORD PTR p$[rbp]
	sub	rcx, rax
	mov	rax, rcx
	mov	ecx, 1
	imul	rcx, rcx, 3
	mov	rdx, QWORD PTR stack$[rbp]
	mov	rdx, QWORD PTR [rdx]
	mov	BYTE PTR [rcx+rdx], al

; 1748 : 
; 1749 :     assert((unsigned)(p - base) <= index_bytes);

	mov	rax, QWORD PTR base$[rbp]
	mov	rcx, QWORD PTR p$[rbp]
	sub	rcx, rax
	mov	rax, rcx
	test	eax, eax
	jne	SHORT $LN121@mp4e_flush
	mov	DWORD PTR tv2447[rbp], 1
	jmp	SHORT $LN122@mp4e_flush
$LN121@mp4e_flush:
	mov	DWORD PTR tv2447[rbp], 0
$LN122@mp4e_flush:
	mov	eax, DWORD PTR index_bytes$[rbp]
	cmp	DWORD PTR tv2447[rbp], eax
	ja	SHORT $LN117@mp4e_flush
	call	abort
$LN117@mp4e_flush:

; 1750 : 
; 1751 :     err = mux->write_callback(mux->write_pos, base, p - base, mux->token);

	mov	rax, QWORD PTR base$[rbp]
	mov	rcx, QWORD PTR p$[rbp]
	sub	rcx, rax
	mov	rax, rcx
	mov	rcx, QWORD PTR mux$[rbp]
	mov	r9, QWORD PTR [rcx+32]
	mov	r8, rax
	mov	rdx, QWORD PTR base$[rbp]
	mov	rax, QWORD PTR mux$[rbp]
	mov	rcx, QWORD PTR [rax+16]
	mov	rax, QWORD PTR mux$[rbp]
	call	QWORD PTR [rax+24]
	mov	DWORD PTR err$[rbp], eax

; 1752 :     mux->write_pos += p - base;

	mov	rax, QWORD PTR base$[rbp]
	mov	rcx, QWORD PTR p$[rbp]
	sub	rcx, rax
	mov	rax, rcx
	mov	rcx, QWORD PTR mux$[rbp]
	add	rax, QWORD PTR [rcx+16]
	mov	rcx, QWORD PTR mux$[rbp]
	mov	QWORD PTR [rcx+16], rax

; 1753 :     free(base);

	mov	rcx, QWORD PTR base$[rbp]
	call	free

; 1754 :     return err;

	mov	eax, DWORD PTR err$[rbp]
$LN1@mp4e_flush:

; 1755 : }

	lea	rsp, QWORD PTR [rbp+448]
	pop	rbp
	ret	0
?mp4e_flush_index@@YAHPEAUMP4E_mux_tag@@@Z ENDP		; mp4e_flush_index
_TEXT	ENDS
; Function compile flags: /Odtp /ZI
; File C:\Users\paras\source\repos\grep-name\XenevaOS\Process\AudioPlayer\minimp4.h
;	COMDAT ?add_sample_descriptor@@YAHPEAUMP4E_mux_tag@@PEAUtrack_t@@HHH@Z
_TEXT	SEGMENT
smp$ = 0
tv78 = 88
tv71 = 88
tv69 = 88
mux$ = 112
tr$ = 120
data_bytes$ = 128
duration$ = 136
kind$ = 144
?add_sample_descriptor@@YAHPEAUMP4E_mux_tag@@PEAUtrack_t@@HHH@Z PROC ; add_sample_descriptor, COMDAT

; 979  : {

	mov	DWORD PTR [rsp+32], r9d
	mov	DWORD PTR [rsp+24], r8d
	mov	QWORD PTR [rsp+16], rdx
	mov	QWORD PTR [rsp+8], rcx
	push	rbp
	sub	rsp, 128				; 00000080H
	lea	rbp, QWORD PTR [rsp+32]

; 980  :     sample_t smp;
; 981  :     smp.size = data_bytes;

	movsxd	rax, DWORD PTR data_bytes$[rbp]
	mov	QWORD PTR smp$[rbp], rax

; 982  :     smp.offset = (boxsize_t)mux->write_pos;

	mov	rax, QWORD PTR mux$[rbp]
	mov	rax, QWORD PTR [rax+16]
	mov	QWORD PTR smp$[rbp+8], rax

; 983  :     smp.duration = (duration ? duration : tr->info.default_duration);

	cmp	DWORD PTR duration$[rbp], 0
	je	SHORT $LN3@add_sample
	mov	eax, DWORD PTR duration$[rbp]
	mov	DWORD PTR tv69[rbp], eax
	jmp	SHORT $LN4@add_sample
$LN3@add_sample:
	mov	rax, QWORD PTR tr$[rbp]
	mov	eax, DWORD PTR [rax+16]
	mov	DWORD PTR tv69[rbp], eax
$LN4@add_sample:
	mov	eax, DWORD PTR tv69[rbp]
	mov	DWORD PTR smp$[rbp+16], eax

; 984  :     smp.flag_random_access = (kind == MP4E_SAMPLE_RANDOM_ACCESS);

	cmp	DWORD PTR kind$[rbp], 1
	jne	SHORT $LN5@add_sample
	mov	DWORD PTR tv71[rbp], 1
	jmp	SHORT $LN6@add_sample
$LN5@add_sample:
	mov	DWORD PTR tv71[rbp], 0
$LN6@add_sample:
	mov	eax, DWORD PTR tv71[rbp]
	mov	DWORD PTR smp$[rbp+20], eax

; 985  :     return NULL != minimp4_vector_put(&tr->smpl, &smp, sizeof(sample_t));

	mov	rax, QWORD PTR tr$[rbp]
	add	rax, 32					; 00000020H
	mov	r8d, 24
	lea	rdx, QWORD PTR smp$[rbp]
	mov	rcx, rax
	call	?minimp4_vector_put@@YAPEAEPEAUminimp4_vector_t@@PEBXH@Z ; minimp4_vector_put
	test	rax, rax
	je	SHORT $LN7@add_sample
	mov	DWORD PTR tv78[rbp], 1
	jmp	SHORT $LN8@add_sample
$LN7@add_sample:
	mov	DWORD PTR tv78[rbp], 0
$LN8@add_sample:
	mov	eax, DWORD PTR tv78[rbp]

; 986  : }

	lea	rsp, QWORD PTR [rbp+96]
	pop	rbp
	ret	0
?add_sample_descriptor@@YAHPEAUMP4E_mux_tag@@PEAUtrack_t@@HHH@Z ENDP ; add_sample_descriptor
_TEXT	ENDS
; Function compile flags: /Odtp /ZI
; File C:\Users\paras\source\repos\grep-name\XenevaOS\Process\AudioPlayer\minimp4.h
;	COMDAT ?write_pending_data@@YAHPEAUMP4E_mux_tag@@PEAUtrack_t@@@Z
_TEXT	SEGMENT
smpl_desc$1 = 0
base$2 = 8
p$3 = 16
err$4 = 24
err$5 = 28
mux$ = 112
tr$ = 120
?write_pending_data@@YAHPEAUMP4E_mux_tag@@PEAUtrack_t@@@Z PROC ; write_pending_data, COMDAT

; 946  : {

	mov	QWORD PTR [rsp+16], rdx
	mov	QWORD PTR [rsp+8], rcx
	push	rbp
	sub	rsp, 128				; 00000080H
	lea	rbp, QWORD PTR [rsp+32]

; 947  :     // if have pending sample && have at least one sample in the index
; 948  :     if (tr->pending_sample.bytes > 0 && tr->smpl.bytes >= sizeof(sample_t))

	mov	rax, QWORD PTR tr$[rbp]
	cmp	DWORD PTR [rax+56], 0
	jle	$LN2@write_pend
	mov	rax, QWORD PTR tr$[rbp]
	movsxd	rax, DWORD PTR [rax+40]
	cmp	rax, 24
	jb	$LN2@write_pend

; 949  :     {
; 950  :         // Complete pending sample
; 951  :         sample_t* smpl_desc;
; 952  :         unsigned char base[8], * p = base;

	lea	rax, QWORD PTR base$2[rbp]
	mov	QWORD PTR p$3[rbp], rax

; 953  : 
; 954  :         assert(mux->sequential_mode_flag);

	mov	rax, QWORD PTR mux$[rbp]
	cmp	DWORD PTR [rax+48], 0
	jne	SHORT $LN3@write_pend
	call	abort
$LN3@write_pend:

; 955  : 
; 956  :         // Write each sample to a separate atom
; 957  :         assert(mux->sequential_mode_flag);      // Separate atom needed for sequential_mode only

	mov	rax, QWORD PTR mux$[rbp]
	cmp	DWORD PTR [rax+48], 0
	jne	SHORT $LN4@write_pend
	call	abort
$LN4@write_pend:

; 958  :         WRITE_4(tr->pending_sample.bytes + 8);

	mov	rax, QWORD PTR tr$[rbp]
	mov	eax, DWORD PTR [rax+56]
	add	eax, 8
	sar	eax, 24
	mov	rcx, QWORD PTR p$3[rbp]
	mov	BYTE PTR [rcx], al
	mov	rax, QWORD PTR p$3[rbp]
	inc	rax
	mov	QWORD PTR p$3[rbp], rax
	mov	rax, QWORD PTR tr$[rbp]
	mov	eax, DWORD PTR [rax+56]
	add	eax, 8
	sar	eax, 16
	mov	rcx, QWORD PTR p$3[rbp]
	mov	BYTE PTR [rcx], al
	mov	rax, QWORD PTR p$3[rbp]
	inc	rax
	mov	QWORD PTR p$3[rbp], rax
	mov	rax, QWORD PTR tr$[rbp]
	mov	eax, DWORD PTR [rax+56]
	add	eax, 8
	sar	eax, 8
	mov	rcx, QWORD PTR p$3[rbp]
	mov	BYTE PTR [rcx], al
	mov	rax, QWORD PTR p$3[rbp]
	inc	rax
	mov	QWORD PTR p$3[rbp], rax
	mov	rax, QWORD PTR tr$[rbp]
	mov	eax, DWORD PTR [rax+56]
	add	eax, 8
	mov	rcx, QWORD PTR p$3[rbp]
	mov	BYTE PTR [rcx], al
	mov	rax, QWORD PTR p$3[rbp]
	inc	rax
	mov	QWORD PTR p$3[rbp], rax

; 959  :         WRITE_4(BOX_mdat);

	mov	rax, QWORD PTR p$3[rbp]
	mov	BYTE PTR [rax], 109			; 0000006dH
	mov	rax, QWORD PTR p$3[rbp]
	inc	rax
	mov	QWORD PTR p$3[rbp], rax
	mov	rax, QWORD PTR p$3[rbp]
	mov	BYTE PTR [rax], 100			; 00000064H
	mov	rax, QWORD PTR p$3[rbp]
	inc	rax
	mov	QWORD PTR p$3[rbp], rax
	mov	rax, QWORD PTR p$3[rbp]
	mov	BYTE PTR [rax], 97			; 00000061H
	mov	rax, QWORD PTR p$3[rbp]
	inc	rax
	mov	QWORD PTR p$3[rbp], rax
	mov	rax, QWORD PTR p$3[rbp]
	mov	BYTE PTR [rax], 116			; 00000074H
	mov	rax, QWORD PTR p$3[rbp]
	inc	rax
	mov	QWORD PTR p$3[rbp], rax

; 960  :         ERR(mux->write_callback(mux->write_pos, base, p - base, mux->token));

	lea	rax, QWORD PTR base$2[rbp]
	mov	rcx, QWORD PTR p$3[rbp]
	sub	rcx, rax
	mov	rax, rcx
	mov	rcx, QWORD PTR mux$[rbp]
	mov	r9, QWORD PTR [rcx+32]
	mov	r8, rax
	lea	rdx, QWORD PTR base$2[rbp]
	mov	rax, QWORD PTR mux$[rbp]
	mov	rcx, QWORD PTR [rax+16]
	mov	rax, QWORD PTR mux$[rbp]
	call	QWORD PTR [rax+24]
	mov	DWORD PTR err$4[rbp], eax
	cmp	DWORD PTR err$4[rbp], 0
	je	SHORT $LN5@write_pend
	mov	eax, DWORD PTR err$4[rbp]
	jmp	$LN1@write_pend
$LN5@write_pend:

; 961  :         mux->write_pos += p - base;

	lea	rax, QWORD PTR base$2[rbp]
	mov	rcx, QWORD PTR p$3[rbp]
	sub	rcx, rax
	mov	rax, rcx
	mov	rcx, QWORD PTR mux$[rbp]
	add	rax, QWORD PTR [rcx+16]
	mov	rcx, QWORD PTR mux$[rbp]
	mov	QWORD PTR [rcx+16], rax

; 962  : 
; 963  :         // Update sample descriptor with size and offset
; 964  :         smpl_desc = ((sample_t*)minimp4_vector_alloc_tail(&tr->smpl, 0)) - 1;

	mov	rax, QWORD PTR tr$[rbp]
	add	rax, 32					; 00000020H
	xor	edx, edx
	mov	rcx, rax
	call	?minimp4_vector_alloc_tail@@YAPEAEPEAUminimp4_vector_t@@H@Z ; minimp4_vector_alloc_tail
	sub	rax, 24
	mov	QWORD PTR smpl_desc$1[rbp], rax

; 965  :         smpl_desc->size = tr->pending_sample.bytes;

	mov	rax, QWORD PTR tr$[rbp]
	movsxd	rax, DWORD PTR [rax+56]
	mov	rcx, QWORD PTR smpl_desc$1[rbp]
	mov	QWORD PTR [rcx], rax

; 966  :         smpl_desc->offset = (boxsize_t)mux->write_pos;

	mov	rax, QWORD PTR smpl_desc$1[rbp]
	mov	rcx, QWORD PTR mux$[rbp]
	mov	rcx, QWORD PTR [rcx+16]
	mov	QWORD PTR [rax+8], rcx

; 967  : 
; 968  :         // Write data
; 969  :         ERR(mux->write_callback(mux->write_pos, tr->pending_sample.data, tr->pending_sample.bytes, mux->token));

	mov	rax, QWORD PTR tr$[rbp]
	movsxd	rax, DWORD PTR [rax+56]
	mov	rcx, QWORD PTR mux$[rbp]
	mov	r9, QWORD PTR [rcx+32]
	mov	r8, rax
	mov	rax, QWORD PTR tr$[rbp]
	mov	rdx, QWORD PTR [rax+48]
	mov	rax, QWORD PTR mux$[rbp]
	mov	rcx, QWORD PTR [rax+16]
	mov	rax, QWORD PTR mux$[rbp]
	call	QWORD PTR [rax+24]
	mov	DWORD PTR err$5[rbp], eax
	cmp	DWORD PTR err$5[rbp], 0
	je	SHORT $LN6@write_pend
	mov	eax, DWORD PTR err$5[rbp]
	jmp	SHORT $LN1@write_pend
$LN6@write_pend:

; 970  :         mux->write_pos += tr->pending_sample.bytes;

	mov	rax, QWORD PTR tr$[rbp]
	movsxd	rax, DWORD PTR [rax+56]
	mov	rcx, QWORD PTR mux$[rbp]
	add	rax, QWORD PTR [rcx+16]
	mov	rcx, QWORD PTR mux$[rbp]
	mov	QWORD PTR [rcx+16], rax

; 971  : 
; 972  :         // reset buffer
; 973  :         tr->pending_sample.bytes = 0;

	mov	rax, QWORD PTR tr$[rbp]
	mov	DWORD PTR [rax+56], 0
$LN2@write_pend:

; 974  :     }
; 975  :     return MP4E_STATUS_OK;

	xor	eax, eax
$LN1@write_pend:

; 976  : }

	lea	rsp, QWORD PTR [rbp+96]
	pop	rbp
	ret	0
?write_pending_data@@YAHPEAUMP4E_mux_tag@@PEAUtrack_t@@@Z ENDP ; write_pending_data
_TEXT	ENDS
; Function compile flags: /Odtp /ZI
; File C:\Users\paras\source\repos\grep-name\XenevaOS\Process\AudioPlayer\minimp4.h
;	COMDAT ?get_duration@@YAIPEBUtrack_t@@@Z
_TEXT	SEGMENT
i$ = 0
sum_duration$ = 4
s$ = 8
tv67 = 80
tr$ = 112
?get_duration@@YAIPEBUtrack_t@@@Z PROC			; get_duration, COMDAT

; 935  : {

	mov	QWORD PTR [rsp+8], rcx
	push	rbp
	sub	rsp, 96					; 00000060H
	mov	rbp, rsp

; 936  :     unsigned i, sum_duration = 0;

	mov	DWORD PTR sum_duration$[rbp], 0

; 937  :     const sample_t* s = (const sample_t*)tr->smpl.data;

	mov	rax, QWORD PTR tr$[rbp]
	mov	rax, QWORD PTR [rax+32]
	mov	QWORD PTR s$[rbp], rax

; 938  :     for (i = 0; i < tr->smpl.bytes / sizeof(sample_t); i++)

	mov	DWORD PTR i$[rbp], 0
	jmp	SHORT $LN4@get_durati
$LN2@get_durati:
	mov	eax, DWORD PTR i$[rbp]
	inc	eax
	mov	DWORD PTR i$[rbp], eax
$LN4@get_durati:
	mov	eax, DWORD PTR i$[rbp]
	mov	QWORD PTR tv67[rbp], rax
	mov	rcx, QWORD PTR tr$[rbp]
	movsxd	rcx, DWORD PTR [rcx+40]
	xor	edx, edx
	mov	rax, rcx
	mov	ecx, 24
	div	rcx
	mov	rcx, QWORD PTR tv67[rbp]
	cmp	rcx, rax
	jae	SHORT $LN3@get_durati

; 939  :     {
; 940  :         sum_duration += s[i].duration;

	mov	eax, DWORD PTR i$[rbp]
	imul	rax, rax, 24
	mov	rcx, QWORD PTR s$[rbp]
	mov	eax, DWORD PTR [rcx+rax+16]
	mov	ecx, DWORD PTR sum_duration$[rbp]
	add	ecx, eax
	mov	eax, ecx
	mov	DWORD PTR sum_duration$[rbp], eax

; 941  :     }

	jmp	SHORT $LN2@get_durati
$LN3@get_durati:

; 942  :     return sum_duration;

	mov	eax, DWORD PTR sum_duration$[rbp]

; 943  : }

	lea	rsp, QWORD PTR [rbp+96]
	pop	rbp
	ret	0
?get_duration@@YAIPEBUtrack_t@@@Z ENDP			; get_duration
_TEXT	ENDS
; Function compile flags: /Odtp /ZI
; File C:\Users\paras\source\repos\grep-name\XenevaOS\Process\AudioPlayer\minimp4.h
;	COMDAT ?items_count@@YAHPEAUminimp4_vector_t@@@Z
_TEXT	SEGMENT
i$ = 0
count$ = 4
p$ = 8
cb$1 = 16
v$ = 112
?items_count@@YAHPEAUminimp4_vector_t@@@Z PROC		; items_count, COMDAT

; 891  : {

	mov	QWORD PTR [rsp+8], rcx
	push	rbp
	sub	rsp, 96					; 00000060H
	mov	rbp, rsp

; 892  :     int i, count = 0;

	mov	DWORD PTR count$[rbp], 0

; 893  :     const unsigned char* p = v->data;

	mov	rax, QWORD PTR v$[rbp]
	mov	rax, QWORD PTR [rax]
	mov	QWORD PTR p$[rbp], rax

; 894  :     for (i = 0; i + 2 < v->bytes;)

	mov	DWORD PTR i$[rbp], 0
$LN2@items_coun:
	mov	eax, DWORD PTR i$[rbp]
	add	eax, 2
	mov	rcx, QWORD PTR v$[rbp]
	cmp	eax, DWORD PTR [rcx+8]
	jge	SHORT $LN3@items_coun

; 895  :     {
; 896  :         int cb = p[i] * 256 + p[i + 1];

	movsxd	rax, DWORD PTR i$[rbp]
	mov	rcx, QWORD PTR p$[rbp]
	movzx	eax, BYTE PTR [rcx+rax]
	imul	eax, eax, 256				; 00000100H
	mov	ecx, DWORD PTR i$[rbp]
	inc	ecx
	movsxd	rcx, ecx
	mov	rdx, QWORD PTR p$[rbp]
	movzx	ecx, BYTE PTR [rdx+rcx]
	add	eax, ecx
	mov	DWORD PTR cb$1[rbp], eax

; 897  :         count++;

	mov	eax, DWORD PTR count$[rbp]
	inc	eax
	mov	DWORD PTR count$[rbp], eax

; 898  :         i += 2 + cb;

	mov	eax, DWORD PTR i$[rbp]
	mov	ecx, DWORD PTR cb$1[rbp]
	lea	eax, DWORD PTR [rax+rcx+2]
	mov	DWORD PTR i$[rbp], eax

; 899  :     }

	jmp	SHORT $LN2@items_coun
$LN3@items_coun:

; 900  :     return count;

	mov	eax, DWORD PTR count$[rbp]

; 901  : }

	lea	rsp, QWORD PTR [rbp+96]
	pop	rbp
	ret	0
?items_count@@YAHPEAUminimp4_vector_t@@@Z ENDP		; items_count
_TEXT	ENDS
; Function compile flags: /Odtp /ZI
; File C:\Users\paras\source\repos\grep-name\XenevaOS\Process\AudioPlayer\minimp4.h
;	COMDAT ?append_mem@@YAHPEAUminimp4_vector_t@@PEBXH@Z
_TEXT	SEGMENT
i$ = 0
size$ = 4
p$ = 8
cb$1 = 16
tv139 = 84
v$ = 112
mem$ = 120
bytes$ = 128
?append_mem@@YAHPEAUminimp4_vector_t@@PEBXH@Z PROC	; append_mem, COMDAT

; 874  : {

	mov	DWORD PTR [rsp+24], r8d
	mov	QWORD PTR [rsp+16], rdx
	mov	QWORD PTR [rsp+8], rcx
	push	rbp
	sub	rsp, 128				; 00000080H
	lea	rbp, QWORD PTR [rsp+32]

; 875  :     int i;
; 876  :     unsigned char size[2];
; 877  :     const unsigned char* p = v->data;

	mov	rax, QWORD PTR v$[rbp]
	mov	rax, QWORD PTR [rax]
	mov	QWORD PTR p$[rbp], rax

; 878  :     for (i = 0; i + 2 < v->bytes;)

	mov	DWORD PTR i$[rbp], 0
$LN2@append_mem:
	mov	eax, DWORD PTR i$[rbp]
	add	eax, 2
	mov	rcx, QWORD PTR v$[rbp]
	cmp	eax, DWORD PTR [rcx+8]
	jge	SHORT $LN3@append_mem

; 879  :     {
; 880  :         int cb = p[i] * 256 + p[i + 1];

	movsxd	rax, DWORD PTR i$[rbp]
	mov	rcx, QWORD PTR p$[rbp]
	movzx	eax, BYTE PTR [rcx+rax]
	imul	eax, eax, 256				; 00000100H
	mov	ecx, DWORD PTR i$[rbp]
	inc	ecx
	movsxd	rcx, ecx
	mov	rdx, QWORD PTR p$[rbp]
	movzx	ecx, BYTE PTR [rdx+rcx]
	add	eax, ecx
	mov	DWORD PTR cb$1[rbp], eax

; 881  :         if (cb == bytes && !memcmp(p + i + 2, mem, cb))

	mov	eax, DWORD PTR bytes$[rbp]
	cmp	DWORD PTR cb$1[rbp], eax
	jne	SHORT $LN5@append_mem
	movsxd	rax, DWORD PTR cb$1[rbp]
	movsxd	rcx, DWORD PTR i$[rbp]
	mov	rdx, QWORD PTR p$[rbp]
	lea	rcx, QWORD PTR [rdx+rcx+2]
	mov	r8, rax
	mov	rdx, QWORD PTR mem$[rbp]
	call	memcmp
	test	eax, eax
	jne	SHORT $LN5@append_mem

; 882  :             return 1;

	mov	eax, 1
	jmp	SHORT $LN1@append_mem
$LN5@append_mem:

; 883  :         i += 2 + cb;

	mov	eax, DWORD PTR i$[rbp]
	mov	ecx, DWORD PTR cb$1[rbp]
	lea	eax, DWORD PTR [rax+rcx+2]
	mov	DWORD PTR i$[rbp], eax

; 884  :     }

	jmp	SHORT $LN2@append_mem
$LN3@append_mem:

; 885  :     size[0] = bytes >> 8;

	mov	eax, DWORD PTR bytes$[rbp]
	sar	eax, 8
	mov	ecx, 1
	imul	rcx, rcx, 0
	mov	BYTE PTR size$[rbp+rcx], al

; 886  :     size[1] = bytes;

	mov	eax, 1
	imul	rax, rax, 1
	movzx	ecx, BYTE PTR bytes$[rbp]
	mov	BYTE PTR size$[rbp+rax], cl

; 887  :     return minimp4_vector_put(v, size, 2) && minimp4_vector_put(v, mem, bytes);

	mov	r8d, 2
	lea	rdx, QWORD PTR size$[rbp]
	mov	rcx, QWORD PTR v$[rbp]
	call	?minimp4_vector_put@@YAPEAEPEAUminimp4_vector_t@@PEBXH@Z ; minimp4_vector_put
	test	rax, rax
	je	SHORT $LN7@append_mem
	mov	r8d, DWORD PTR bytes$[rbp]
	mov	rdx, QWORD PTR mem$[rbp]
	mov	rcx, QWORD PTR v$[rbp]
	call	?minimp4_vector_put@@YAPEAEPEAUminimp4_vector_t@@PEBXH@Z ; minimp4_vector_put
	test	rax, rax
	je	SHORT $LN7@append_mem
	mov	DWORD PTR tv139[rbp], 1
	jmp	SHORT $LN8@append_mem
$LN7@append_mem:
	mov	DWORD PTR tv139[rbp], 0
$LN8@append_mem:
	mov	eax, DWORD PTR tv139[rbp]
$LN1@append_mem:

; 888  : }

	lea	rsp, QWORD PTR [rbp+96]
	pop	rbp
	ret	0
?append_mem@@YAHPEAUminimp4_vector_t@@PEBXH@Z ENDP	; append_mem
_TEXT	ENDS
; Function compile flags: /Odtp /ZI
; File C:\Users\paras\source\repos\grep-name\XenevaOS\Process\AudioPlayer\minimp4.h
;	COMDAT ?minimp4_vector_put@@YAPEAEPEAUminimp4_vector_t@@PEBXH@Z
_TEXT	SEGMENT
tail$ = 0
h$ = 96
buf$ = 104
bytes$ = 112
?minimp4_vector_put@@YAPEAEPEAUminimp4_vector_t@@PEBXH@Z PROC ; minimp4_vector_put, COMDAT

; 798  : {

	mov	DWORD PTR [rsp+24], r8d
	mov	QWORD PTR [rsp+16], rdx
	mov	QWORD PTR [rsp+8], rcx
	push	rbp
	sub	rsp, 112				; 00000070H
	lea	rbp, QWORD PTR [rsp+32]

; 799  :     unsigned char* tail = minimp4_vector_alloc_tail(h, bytes);

	mov	edx, DWORD PTR bytes$[rbp]
	mov	rcx, QWORD PTR h$[rbp]
	call	?minimp4_vector_alloc_tail@@YAPEAEPEAUminimp4_vector_t@@H@Z ; minimp4_vector_alloc_tail
	mov	QWORD PTR tail$[rbp], rax

; 800  :     if (tail)

	cmp	QWORD PTR tail$[rbp], 0
	je	SHORT $LN2@minimp4_ve

; 801  :         memcpy(tail,(void*) buf, bytes);

	movsxd	rax, DWORD PTR bytes$[rbp]
	mov	r8, rax
	mov	rdx, QWORD PTR buf$[rbp]
	mov	rcx, QWORD PTR tail$[rbp]
	call	memcpy
$LN2@minimp4_ve:

; 802  :     return tail;

	mov	rax, QWORD PTR tail$[rbp]

; 803  : }

	lea	rsp, QWORD PTR [rbp+80]
	pop	rbp
	ret	0
?minimp4_vector_put@@YAPEAEPEAUminimp4_vector_t@@PEBXH@Z ENDP ; minimp4_vector_put
_TEXT	ENDS
; Function compile flags: /Odtp /ZI
; File C:\Users\paras\source\repos\grep-name\XenevaOS\Process\AudioPlayer\minimp4.h
;	COMDAT ?minimp4_vector_alloc_tail@@YAPEAEPEAUminimp4_vector_t@@H@Z
_TEXT	SEGMENT
p$ = 0
tv86 = 72
h$ = 96
bytes$ = 104
?minimp4_vector_alloc_tail@@YAPEAEPEAUminimp4_vector_t@@H@Z PROC ; minimp4_vector_alloc_tail, COMDAT

; 781  : {

	mov	DWORD PTR [rsp+16], edx
	mov	QWORD PTR [rsp+8], rcx
	push	rbp
	sub	rsp, 112				; 00000070H
	lea	rbp, QWORD PTR [rsp+32]

; 782  :     unsigned char* p;
; 783  :     if (!h->data && !minimp4_vector_init(h, 2 * bytes + 1024))

	mov	rax, QWORD PTR h$[rbp]
	cmp	QWORD PTR [rax], 0
	jne	SHORT $LN2@minimp4_ve
	mov	eax, DWORD PTR bytes$[rbp]
	lea	eax, DWORD PTR [rax+rax+1024]
	mov	edx, eax
	mov	rcx, QWORD PTR h$[rbp]
	call	?minimp4_vector_init@@YAHPEAUminimp4_vector_t@@H@Z ; minimp4_vector_init
	test	eax, eax
	jne	SHORT $LN2@minimp4_ve

; 784  :         return NULL;

	xor	eax, eax
	jmp	$LN1@minimp4_ve
$LN2@minimp4_ve:

; 785  :     if ((h->capacity - h->bytes) < bytes && !minimp4_vector_grow(h, bytes))

	mov	rax, QWORD PTR h$[rbp]
	mov	rcx, QWORD PTR h$[rbp]
	mov	ecx, DWORD PTR [rcx+8]
	mov	eax, DWORD PTR [rax+12]
	sub	eax, ecx
	cmp	eax, DWORD PTR bytes$[rbp]
	jge	SHORT $LN3@minimp4_ve
	mov	edx, DWORD PTR bytes$[rbp]
	mov	rcx, QWORD PTR h$[rbp]
	call	?minimp4_vector_grow@@YAHPEAUminimp4_vector_t@@H@Z ; minimp4_vector_grow
	test	eax, eax
	jne	SHORT $LN3@minimp4_ve

; 786  :         return NULL;

	xor	eax, eax
	jmp	SHORT $LN1@minimp4_ve
$LN3@minimp4_ve:

; 787  :     assert(h->data);

	mov	rax, QWORD PTR h$[rbp]
	cmp	QWORD PTR [rax], 0
	jne	SHORT $LN4@minimp4_ve
	call	abort
$LN4@minimp4_ve:

; 788  :     assert((h->capacity - h->bytes) >= bytes);

	mov	rax, QWORD PTR h$[rbp]
	mov	rcx, QWORD PTR h$[rbp]
	mov	ecx, DWORD PTR [rcx+8]
	mov	eax, DWORD PTR [rax+12]
	sub	eax, ecx
	test	eax, eax
	jne	SHORT $LN7@minimp4_ve
	mov	DWORD PTR tv86[rbp], 1
	jmp	SHORT $LN8@minimp4_ve
$LN7@minimp4_ve:
	mov	DWORD PTR tv86[rbp], 0
$LN8@minimp4_ve:
	mov	eax, DWORD PTR bytes$[rbp]
	cmp	DWORD PTR tv86[rbp], eax
	jl	SHORT $LN5@minimp4_ve
	call	abort
$LN5@minimp4_ve:

; 789  :     p = h->data + h->bytes;

	mov	rax, QWORD PTR h$[rbp]
	movsxd	rax, DWORD PTR [rax+8]
	mov	rcx, QWORD PTR h$[rbp]
	add	rax, QWORD PTR [rcx]
	mov	QWORD PTR p$[rbp], rax

; 790  :     h->bytes += bytes;

	mov	rax, QWORD PTR h$[rbp]
	mov	eax, DWORD PTR [rax+8]
	add	eax, DWORD PTR bytes$[rbp]
	mov	rcx, QWORD PTR h$[rbp]
	mov	DWORD PTR [rcx+8], eax

; 791  :     return p;

	mov	rax, QWORD PTR p$[rbp]
$LN1@minimp4_ve:

; 792  : }

	lea	rsp, QWORD PTR [rbp+80]
	pop	rbp
	ret	0
?minimp4_vector_alloc_tail@@YAPEAEPEAUminimp4_vector_t@@H@Z ENDP ; minimp4_vector_alloc_tail
_TEXT	ENDS
; Function compile flags: /Odtp /ZI
; File C:\Users\paras\source\repos\grep-name\XenevaOS\Process\AudioPlayer\minimp4.h
;	COMDAT ?minimp4_vector_grow@@YAHPEAUminimp4_vector_t@@H@Z
_TEXT	SEGMENT
p$ = 0
new_size$ = 8
h$ = 96
bytes$ = 104
?minimp4_vector_grow@@YAHPEAUminimp4_vector_t@@H@Z PROC	; minimp4_vector_grow, COMDAT

; 762  : {

	mov	DWORD PTR [rsp+16], edx
	mov	QWORD PTR [rsp+8], rcx
	push	rbp
	sub	rsp, 112				; 00000070H
	lea	rbp, QWORD PTR [rsp+32]

; 763  :     void* p;
; 764  :     int new_size = h->capacity * 2 + 1024;

	mov	rax, QWORD PTR h$[rbp]
	mov	eax, DWORD PTR [rax+12]
	lea	eax, DWORD PTR [rax+rax+1024]
	mov	DWORD PTR new_size$[rbp], eax

; 765  :     if (new_size < h->capacity + bytes)

	mov	rax, QWORD PTR h$[rbp]
	mov	eax, DWORD PTR [rax+12]
	add	eax, DWORD PTR bytes$[rbp]
	cmp	DWORD PTR new_size$[rbp], eax
	jge	SHORT $LN2@minimp4_ve

; 766  :         new_size = h->capacity + bytes + 1024;

	mov	rax, QWORD PTR h$[rbp]
	mov	eax, DWORD PTR [rax+12]
	mov	ecx, DWORD PTR bytes$[rbp]
	lea	eax, DWORD PTR [rax+rcx+1024]
	mov	DWORD PTR new_size$[rbp], eax
$LN2@minimp4_ve:

; 767  :     p = realloc(h->data, new_size);

	mov	edx, DWORD PTR new_size$[rbp]
	mov	rax, QWORD PTR h$[rbp]
	mov	rcx, QWORD PTR [rax]
	call	realloc
	mov	QWORD PTR p$[rbp], rax

; 768  :     if (!p)

	cmp	QWORD PTR p$[rbp], 0
	jne	SHORT $LN3@minimp4_ve

; 769  :         return 0;

	xor	eax, eax
	jmp	SHORT $LN1@minimp4_ve
$LN3@minimp4_ve:

; 770  :     h->data = (unsigned char*)p;

	mov	rax, QWORD PTR h$[rbp]
	mov	rcx, QWORD PTR p$[rbp]
	mov	QWORD PTR [rax], rcx

; 771  :     h->capacity = new_size;

	mov	rax, QWORD PTR h$[rbp]
	mov	ecx, DWORD PTR new_size$[rbp]
	mov	DWORD PTR [rax+12], ecx

; 772  :     return 1;

	mov	eax, 1
$LN1@minimp4_ve:

; 773  : }

	lea	rsp, QWORD PTR [rbp+80]
	pop	rbp
	ret	0
?minimp4_vector_grow@@YAHPEAUminimp4_vector_t@@H@Z ENDP	; minimp4_vector_grow
_TEXT	ENDS
; Function compile flags: /Odtp /ZI
; File C:\Users\paras\source\repos\grep-name\XenevaOS\Process\AudioPlayer\minimp4.h
;	COMDAT ?minimp4_vector_reset@@YAXPEAUminimp4_vector_t@@@Z
_TEXT	SEGMENT
h$ = 80
?minimp4_vector_reset@@YAXPEAUminimp4_vector_t@@@Z PROC	; minimp4_vector_reset, COMDAT

; 752  : {

	mov	QWORD PTR [rsp+8], rcx
	push	rbp
	sub	rsp, 96					; 00000060H
	lea	rbp, QWORD PTR [rsp+32]

; 753  :     if (h->data)

	mov	rax, QWORD PTR h$[rbp]
	cmp	QWORD PTR [rax], 0
	je	SHORT $LN2@minimp4_ve

; 754  :         free(h->data);

	mov	rax, QWORD PTR h$[rbp]
	mov	rcx, QWORD PTR [rax]
	call	free
$LN2@minimp4_ve:

; 755  :     memset(h, 0, sizeof(minimp4_vector_t));

	mov	r8d, 16
	xor	edx, edx
	mov	rcx, QWORD PTR h$[rbp]
	call	memset

; 756  : }

	lea	rsp, QWORD PTR [rbp+64]
	pop	rbp
	ret	0
?minimp4_vector_reset@@YAXPEAUminimp4_vector_t@@@Z ENDP	; minimp4_vector_reset
_TEXT	ENDS
; Function compile flags: /Odtp /ZI
; File C:\Users\paras\source\repos\grep-name\XenevaOS\Process\AudioPlayer\minimp4.h
;	COMDAT ?minimp4_vector_init@@YAHPEAUminimp4_vector_t@@H@Z
_TEXT	SEGMENT
tv74 = 64
tv70 = 64
h$ = 96
capacity$ = 104
?minimp4_vector_init@@YAHPEAUminimp4_vector_t@@H@Z PROC	; minimp4_vector_init, COMDAT

; 741  : {

	mov	DWORD PTR [rsp+16], edx
	mov	QWORD PTR [rsp+8], rcx
	push	rbp
	sub	rsp, 112				; 00000070H
	lea	rbp, QWORD PTR [rsp+32]

; 742  :     h->bytes = 0;

	mov	rax, QWORD PTR h$[rbp]
	mov	DWORD PTR [rax+8], 0

; 743  :     h->capacity = capacity;

	mov	rax, QWORD PTR h$[rbp]
	mov	ecx, DWORD PTR capacity$[rbp]
	mov	DWORD PTR [rax+12], ecx

; 744  :     h->data = capacity ? (unsigned char*)malloc(capacity) : NULL;

	cmp	DWORD PTR capacity$[rbp], 0
	je	SHORT $LN3@minimp4_ve
	mov	ecx, DWORD PTR capacity$[rbp]
	call	malloc
	mov	QWORD PTR tv70[rbp], rax
	jmp	SHORT $LN4@minimp4_ve
$LN3@minimp4_ve:
	mov	QWORD PTR tv70[rbp], 0
$LN4@minimp4_ve:
	mov	rax, QWORD PTR h$[rbp]
	mov	rcx, QWORD PTR tv70[rbp]
	mov	QWORD PTR [rax], rcx

; 745  :     return !capacity || !!h->data;

	cmp	DWORD PTR capacity$[rbp], 0
	je	SHORT $LN5@minimp4_ve
	mov	rax, QWORD PTR h$[rbp]
	cmp	QWORD PTR [rax], 0
	jne	SHORT $LN5@minimp4_ve
	mov	DWORD PTR tv74[rbp], 0
	jmp	SHORT $LN6@minimp4_ve
$LN5@minimp4_ve:
	mov	DWORD PTR tv74[rbp], 1
$LN6@minimp4_ve:
	mov	eax, DWORD PTR tv74[rbp]

; 746  : }

	lea	rsp, QWORD PTR [rbp+80]
	pop	rbp
	ret	0
?minimp4_vector_init@@YAHPEAUminimp4_vector_t@@H@Z ENDP	; minimp4_vector_init
_TEXT	ENDS
; Function compile flags: /Odtp /ZI
; File C:\Users\paras\source\repos\grep-name\XenevaOS\Process\AudioPlayer\minimp4.h
;	COMDAT MP4E_set_text_comment
_TEXT	SEGMENT
mux$ = 80
comment$ = 88
MP4E_set_text_comment PROC				; COMDAT

; 1181 : {

$LN7:
	mov	QWORD PTR [rsp+16], rdx
	mov	QWORD PTR [rsp+8], rcx
	push	rbp
	sub	rsp, 96					; 00000060H
	lea	rbp, QWORD PTR [rsp+32]

; 1182 :     if (!mux || !comment)

	cmp	QWORD PTR mux$[rbp], 0
	je	SHORT $LN3@MP4E_set_t
	cmp	QWORD PTR comment$[rbp], 0
	jne	SHORT $LN2@MP4E_set_t
$LN3@MP4E_set_t:

; 1183 :         return MP4E_STATUS_BAD_ARGUMENTS;

	mov	eax, -1
	jmp	SHORT $LN1@MP4E_set_t
$LN2@MP4E_set_t:

; 1184 :     if (mux->text_comment)

	mov	rax, QWORD PTR mux$[rbp]
	cmp	QWORD PTR [rax+40], 0
	je	SHORT $LN4@MP4E_set_t

; 1185 :         free(mux->text_comment);

	mov	rax, QWORD PTR mux$[rbp]
	mov	rcx, QWORD PTR [rax+40]
	call	free
$LN4@MP4E_set_t:

; 1186 :     mux->text_comment = strdup(comment);

	mov	rcx, QWORD PTR comment$[rbp]
	call	strdup
	mov	rcx, QWORD PTR mux$[rbp]
	mov	QWORD PTR [rcx+40], rax

; 1187 :     if (!mux->text_comment)

	mov	rax, QWORD PTR mux$[rbp]
	cmp	QWORD PTR [rax+40], 0
	jne	SHORT $LN5@MP4E_set_t

; 1188 :         return MP4E_STATUS_NO_MEMORY;

	mov	eax, -2
	jmp	SHORT $LN1@MP4E_set_t
$LN5@MP4E_set_t:

; 1189 :     return MP4E_STATUS_OK;

	xor	eax, eax
$LN1@MP4E_set_t:

; 1190 : }

	lea	rsp, QWORD PTR [rbp+64]
	pop	rbp
	ret	0
MP4E_set_text_comment ENDP
_TEXT	ENDS
; Function compile flags: /Odtp /ZI
; File C:\Users\paras\source\repos\grep-name\XenevaOS\Process\AudioPlayer\minimp4.h
;	COMDAT MP4E_set_pps
_TEXT	SEGMENT
tr$ = 0
tv80 = 72
tv72 = 72
mux$ = 96
track_id$ = 104
pps$ = 112
bytes$ = 120
MP4E_set_pps PROC					; COMDAT

; 928  : {

$LN8:
	mov	DWORD PTR [rsp+32], r9d
	mov	QWORD PTR [rsp+24], r8
	mov	DWORD PTR [rsp+16], edx
	mov	QWORD PTR [rsp+8], rcx
	push	rbp
	sub	rsp, 112				; 00000070H
	lea	rbp, QWORD PTR [rsp+32]

; 929  :     track_t* tr = ((track_t*)mux->tracks.data) + track_id;

	movsxd	rax, DWORD PTR track_id$[rbp]
	imul	rax, rax, 112				; 00000070H
	mov	rcx, QWORD PTR mux$[rbp]
	add	rax, QWORD PTR [rcx]
	mov	QWORD PTR tr$[rbp], rax

; 930  :     assert(tr->info.track_media_kind == e_video);

	mov	rax, QWORD PTR tr$[rbp]
	cmp	DWORD PTR [rax+8], 0
	jne	SHORT $LN4@MP4E_set_p
	mov	DWORD PTR tv72[rbp], 1
	jmp	SHORT $LN5@MP4E_set_p
$LN4@MP4E_set_p:
	mov	DWORD PTR tv72[rbp], 0
$LN5@MP4E_set_p:
	cmp	DWORD PTR tv72[rbp], 1
	jne	SHORT $LN2@MP4E_set_p
	call	abort
$LN2@MP4E_set_p:

; 931  :     return append_mem(&tr->vpps, pps, bytes) ? MP4E_STATUS_OK : MP4E_STATUS_NO_MEMORY;

	mov	rax, QWORD PTR tr$[rbp]
	add	rax, 80					; 00000050H
	mov	r8d, DWORD PTR bytes$[rbp]
	mov	rdx, QWORD PTR pps$[rbp]
	mov	rcx, rax
	call	?append_mem@@YAHPEAUminimp4_vector_t@@PEBXH@Z ; append_mem
	test	eax, eax
	je	SHORT $LN6@MP4E_set_p
	mov	DWORD PTR tv80[rbp], 0
	jmp	SHORT $LN7@MP4E_set_p
$LN6@MP4E_set_p:
	mov	DWORD PTR tv80[rbp], -2
$LN7@MP4E_set_p:
	mov	eax, DWORD PTR tv80[rbp]

; 932  : }

	lea	rsp, QWORD PTR [rbp+80]
	pop	rbp
	ret	0
MP4E_set_pps ENDP
_TEXT	ENDS
; Function compile flags: /Odtp /ZI
; File C:\Users\paras\source\repos\grep-name\XenevaOS\Process\AudioPlayer\minimp4.h
;	COMDAT MP4E_set_sps
_TEXT	SEGMENT
tr$ = 0
tv80 = 72
tv72 = 72
mux$ = 96
track_id$ = 104
sps$ = 112
bytes$ = 120
MP4E_set_sps PROC					; COMDAT

; 921  : {

$LN8:
	mov	DWORD PTR [rsp+32], r9d
	mov	QWORD PTR [rsp+24], r8
	mov	DWORD PTR [rsp+16], edx
	mov	QWORD PTR [rsp+8], rcx
	push	rbp
	sub	rsp, 112				; 00000070H
	lea	rbp, QWORD PTR [rsp+32]

; 922  :     track_t* tr = ((track_t*)mux->tracks.data) + track_id;

	movsxd	rax, DWORD PTR track_id$[rbp]
	imul	rax, rax, 112				; 00000070H
	mov	rcx, QWORD PTR mux$[rbp]
	add	rax, QWORD PTR [rcx]
	mov	QWORD PTR tr$[rbp], rax

; 923  :     assert(tr->info.track_media_kind == e_video);

	mov	rax, QWORD PTR tr$[rbp]
	cmp	DWORD PTR [rax+8], 0
	jne	SHORT $LN4@MP4E_set_s
	mov	DWORD PTR tv72[rbp], 1
	jmp	SHORT $LN5@MP4E_set_s
$LN4@MP4E_set_s:
	mov	DWORD PTR tv72[rbp], 0
$LN5@MP4E_set_s:
	cmp	DWORD PTR tv72[rbp], 1
	jne	SHORT $LN2@MP4E_set_s
	call	abort
$LN2@MP4E_set_s:

; 924  :     return append_mem(&tr->vsps, sps, bytes) ? MP4E_STATUS_OK : MP4E_STATUS_NO_MEMORY;

	mov	rax, QWORD PTR tr$[rbp]
	add	rax, 64					; 00000040H
	mov	r8d, DWORD PTR bytes$[rbp]
	mov	rdx, QWORD PTR sps$[rbp]
	mov	rcx, rax
	call	?append_mem@@YAHPEAUminimp4_vector_t@@PEBXH@Z ; append_mem
	test	eax, eax
	je	SHORT $LN6@MP4E_set_s
	mov	DWORD PTR tv80[rbp], 0
	jmp	SHORT $LN7@MP4E_set_s
$LN6@MP4E_set_s:
	mov	DWORD PTR tv80[rbp], -2
$LN7@MP4E_set_s:
	mov	eax, DWORD PTR tv80[rbp]

; 925  : }

	lea	rsp, QWORD PTR [rbp+80]
	pop	rbp
	ret	0
MP4E_set_sps ENDP
_TEXT	ENDS
; Function compile flags: /Odtp /ZI
; File C:\Users\paras\source\repos\grep-name\XenevaOS\Process\AudioPlayer\minimp4.h
;	COMDAT MP4E_set_vps
_TEXT	SEGMENT
tr$ = 0
tv80 = 72
tv72 = 72
mux$ = 96
track_id$ = 104
vps$ = 112
bytes$ = 120
MP4E_set_vps PROC					; COMDAT

; 914  : {

$LN8:
	mov	DWORD PTR [rsp+32], r9d
	mov	QWORD PTR [rsp+24], r8
	mov	DWORD PTR [rsp+16], edx
	mov	QWORD PTR [rsp+8], rcx
	push	rbp
	sub	rsp, 112				; 00000070H
	lea	rbp, QWORD PTR [rsp+32]

; 915  :     track_t* tr = ((track_t*)mux->tracks.data) + track_id;

	movsxd	rax, DWORD PTR track_id$[rbp]
	imul	rax, rax, 112				; 00000070H
	mov	rcx, QWORD PTR mux$[rbp]
	add	rax, QWORD PTR [rcx]
	mov	QWORD PTR tr$[rbp], rax

; 916  :     assert(tr->info.track_media_kind == e_video);

	mov	rax, QWORD PTR tr$[rbp]
	cmp	DWORD PTR [rax+8], 0
	jne	SHORT $LN4@MP4E_set_v
	mov	DWORD PTR tv72[rbp], 1
	jmp	SHORT $LN5@MP4E_set_v
$LN4@MP4E_set_v:
	mov	DWORD PTR tv72[rbp], 0
$LN5@MP4E_set_v:
	cmp	DWORD PTR tv72[rbp], 1
	jne	SHORT $LN2@MP4E_set_v
	call	abort
$LN2@MP4E_set_v:

; 917  :     return append_mem(&tr->vvps, vps, bytes) ? MP4E_STATUS_OK : MP4E_STATUS_NO_MEMORY;

	mov	rax, QWORD PTR tr$[rbp]
	add	rax, 96					; 00000060H
	mov	r8d, DWORD PTR bytes$[rbp]
	mov	rdx, QWORD PTR vps$[rbp]
	mov	rcx, rax
	call	?append_mem@@YAHPEAUminimp4_vector_t@@PEBXH@Z ; append_mem
	test	eax, eax
	je	SHORT $LN6@MP4E_set_v
	mov	DWORD PTR tv80[rbp], 0
	jmp	SHORT $LN7@MP4E_set_v
$LN6@MP4E_set_v:
	mov	DWORD PTR tv80[rbp], -2
$LN7@MP4E_set_v:
	mov	eax, DWORD PTR tv80[rbp]

; 918  : }

	lea	rsp, QWORD PTR [rbp+80]
	pop	rbp
	ret	0
MP4E_set_vps ENDP
_TEXT	ENDS
; Function compile flags: /Odtp /ZI
; File C:\Users\paras\source\repos\grep-name\XenevaOS\Process\AudioPlayer\minimp4.h
;	COMDAT MP4E_set_dsi
_TEXT	SEGMENT
tr$ = 0
tv86 = 72
tv72 = 72
mux$ = 96
track_id$ = 104
dsi$ = 112
bytes$ = 120
MP4E_set_dsi PROC					; COMDAT

; 904  : {

$LN10:
	mov	DWORD PTR [rsp+32], r9d
	mov	QWORD PTR [rsp+24], r8
	mov	DWORD PTR [rsp+16], edx
	mov	QWORD PTR [rsp+8], rcx
	push	rbp
	sub	rsp, 112				; 00000070H
	lea	rbp, QWORD PTR [rsp+32]

; 905  :     track_t* tr = ((track_t*)mux->tracks.data) + track_id;

	movsxd	rax, DWORD PTR track_id$[rbp]
	imul	rax, rax, 112				; 00000070H
	mov	rcx, QWORD PTR mux$[rbp]
	add	rax, QWORD PTR [rcx]
	mov	QWORD PTR tr$[rbp], rax

; 906  :     assert(tr->info.track_media_kind == e_audio ||

	mov	rax, QWORD PTR tr$[rbp]
	cmp	DWORD PTR [rax+8], 0
	jne	SHORT $LN6@MP4E_set_d
	mov	DWORD PTR tv72[rbp], 1
	jmp	SHORT $LN7@MP4E_set_d
$LN6@MP4E_set_d:
	mov	DWORD PTR tv72[rbp], 0
$LN7@MP4E_set_d:
	cmp	DWORD PTR tv72[rbp], 0
	je	SHORT $LN3@MP4E_set_d
	mov	rax, QWORD PTR tr$[rbp]
	cmp	DWORD PTR [rax+8], 2
	jne	SHORT $LN2@MP4E_set_d
$LN3@MP4E_set_d:
	call	abort
$LN2@MP4E_set_d:

; 907  :         tr->info.track_media_kind == e_private);
; 908  :     if (tr->vsps.bytes)

	mov	rax, QWORD PTR tr$[rbp]
	cmp	DWORD PTR [rax+72], 0
	je	SHORT $LN4@MP4E_set_d

; 909  :         return MP4E_STATUS_ONLY_ONE_DSI_ALLOWED;   // only one DSI allowed

	mov	eax, -4
	jmp	SHORT $LN1@MP4E_set_d
$LN4@MP4E_set_d:

; 910  :     return append_mem(&tr->vsps, dsi, bytes) ? MP4E_STATUS_OK : MP4E_STATUS_NO_MEMORY;

	mov	rax, QWORD PTR tr$[rbp]
	add	rax, 64					; 00000040H
	mov	r8d, DWORD PTR bytes$[rbp]
	mov	rdx, QWORD PTR dsi$[rbp]
	mov	rcx, rax
	call	?append_mem@@YAHPEAUminimp4_vector_t@@PEBXH@Z ; append_mem
	test	eax, eax
	je	SHORT $LN8@MP4E_set_d
	mov	DWORD PTR tv86[rbp], 0
	jmp	SHORT $LN9@MP4E_set_d
$LN8@MP4E_set_d:
	mov	DWORD PTR tv86[rbp], -2
$LN9@MP4E_set_d:
	mov	eax, DWORD PTR tv86[rbp]
$LN1@MP4E_set_d:

; 911  : }

	lea	rsp, QWORD PTR [rbp+80]
	pop	rbp
	ret	0
MP4E_set_dsi ENDP
_TEXT	ENDS
; Function compile flags: /Odtp /ZI
; File C:\Users\paras\source\repos\grep-name\XenevaOS\Process\AudioPlayer\minimp4.h
;	COMDAT MP4E_close
_TEXT	SEGMENT
err$ = 0
ntr$ = 4
ntracks$ = 8
tr$1 = 16
mux$ = 112
MP4E_close PROC						; COMDAT

; 1758 : {

$LN9:
	mov	QWORD PTR [rsp+8], rcx
	push	rbp
	sub	rsp, 128				; 00000080H
	lea	rbp, QWORD PTR [rsp+32]

; 1759 :     int err = MP4E_STATUS_OK;

	mov	DWORD PTR err$[rbp], 0

; 1760 :     unsigned ntr, ntracks;
; 1761 :     if (!mux)

	cmp	QWORD PTR mux$[rbp], 0
	jne	SHORT $LN5@MP4E_close

; 1762 :         return MP4E_STATUS_BAD_ARGUMENTS;

	mov	eax, -1
	jmp	$LN1@MP4E_close
$LN5@MP4E_close:

; 1763 :     if (!mux->enable_fragmentation)

	mov	rax, QWORD PTR mux$[rbp]
	cmp	DWORD PTR [rax+52], 0
	jne	SHORT $LN6@MP4E_close

; 1764 :         err = mp4e_flush_index(mux);

	mov	rcx, QWORD PTR mux$[rbp]
	call	?mp4e_flush_index@@YAHPEAUMP4E_mux_tag@@@Z ; mp4e_flush_index
	mov	DWORD PTR err$[rbp], eax
$LN6@MP4E_close:

; 1765 :     if (mux->text_comment)

	mov	rax, QWORD PTR mux$[rbp]
	cmp	QWORD PTR [rax+40], 0
	je	SHORT $LN7@MP4E_close

; 1766 :         free(mux->text_comment);

	mov	rax, QWORD PTR mux$[rbp]
	mov	rcx, QWORD PTR [rax+40]
	call	free
$LN7@MP4E_close:

; 1767 :     ntracks = mux->tracks.bytes / sizeof(track_t);

	mov	rax, QWORD PTR mux$[rbp]
	movsxd	rax, DWORD PTR [rax+8]
	xor	edx, edx
	mov	ecx, 112				; 00000070H
	div	rcx
	mov	DWORD PTR ntracks$[rbp], eax

; 1768 :     for (ntr = 0; ntr < ntracks; ntr++)

	mov	DWORD PTR ntr$[rbp], 0
	jmp	SHORT $LN4@MP4E_close
$LN2@MP4E_close:
	mov	eax, DWORD PTR ntr$[rbp]
	inc	eax
	mov	DWORD PTR ntr$[rbp], eax
$LN4@MP4E_close:
	mov	eax, DWORD PTR ntracks$[rbp]
	cmp	DWORD PTR ntr$[rbp], eax
	jae	SHORT $LN3@MP4E_close

; 1769 :     {
; 1770 :         track_t* tr = ((track_t*)mux->tracks.data) + ntr;

	mov	eax, DWORD PTR ntr$[rbp]
	imul	rax, rax, 112				; 00000070H
	mov	rcx, QWORD PTR mux$[rbp]
	add	rax, QWORD PTR [rcx]
	mov	QWORD PTR tr$1[rbp], rax

; 1771 :         minimp4_vector_reset(&tr->vsps);

	mov	rax, QWORD PTR tr$1[rbp]
	add	rax, 64					; 00000040H
	mov	rcx, rax
	call	?minimp4_vector_reset@@YAXPEAUminimp4_vector_t@@@Z ; minimp4_vector_reset

; 1772 :         minimp4_vector_reset(&tr->vpps);

	mov	rax, QWORD PTR tr$1[rbp]
	add	rax, 80					; 00000050H
	mov	rcx, rax
	call	?minimp4_vector_reset@@YAXPEAUminimp4_vector_t@@@Z ; minimp4_vector_reset

; 1773 :         minimp4_vector_reset(&tr->smpl);

	mov	rax, QWORD PTR tr$1[rbp]
	add	rax, 32					; 00000020H
	mov	rcx, rax
	call	?minimp4_vector_reset@@YAXPEAUminimp4_vector_t@@@Z ; minimp4_vector_reset

; 1774 :         minimp4_vector_reset(&tr->pending_sample);

	mov	rax, QWORD PTR tr$1[rbp]
	add	rax, 48					; 00000030H
	mov	rcx, rax
	call	?minimp4_vector_reset@@YAXPEAUminimp4_vector_t@@@Z ; minimp4_vector_reset

; 1775 :     }

	jmp	SHORT $LN2@MP4E_close
$LN3@MP4E_close:

; 1776 :     minimp4_vector_reset(&mux->tracks);

	mov	rax, QWORD PTR mux$[rbp]
	mov	rcx, rax
	call	?minimp4_vector_reset@@YAXPEAUminimp4_vector_t@@@Z ; minimp4_vector_reset

; 1777 :     free(mux);

	mov	rcx, QWORD PTR mux$[rbp]
	call	free

; 1778 :     return err;

	mov	eax, DWORD PTR err$[rbp]
$LN1@MP4E_close:

; 1779 : }

	lea	rsp, QWORD PTR [rbp+96]
	pop	rbp
	ret	0
MP4E_close ENDP
_TEXT	ENDS
; Function compile flags: /Odtp /ZI
; File C:\Users\paras\source\repos\grep-name\XenevaOS\Process\AudioPlayer\minimp4.h
;	COMDAT MP4E_put_sample
_TEXT	SEGMENT
tr$ = 0
err$1 = 8
err$2 = 12
err$3 = 16
err$4 = 20
err$5 = 24
smpl_desc$6 = 32
err$7 = 40
tv78 = 108
mux$ = 128
track_num$ = 136
data$ = 144
data_bytes$ = 152
duration$ = 160
kind$ = 168
MP4E_put_sample PROC					; COMDAT

; 1103 : {

$LN22:
	mov	DWORD PTR [rsp+32], r9d
	mov	QWORD PTR [rsp+24], r8
	mov	DWORD PTR [rsp+16], edx
	mov	QWORD PTR [rsp+8], rcx
	push	rbp
	sub	rsp, 160				; 000000a0H
	lea	rbp, QWORD PTR [rsp+48]

; 1104 :     track_t* tr;
; 1105 :     if (!mux || !data)

	cmp	QWORD PTR mux$[rbp], 0
	je	SHORT $LN3@MP4E_put_s
	cmp	QWORD PTR data$[rbp], 0
	jne	SHORT $LN2@MP4E_put_s
$LN3@MP4E_put_s:

; 1106 :         return MP4E_STATUS_BAD_ARGUMENTS;

	mov	eax, -1
	jmp	$LN1@MP4E_put_s
$LN2@MP4E_put_s:

; 1107 :     tr = ((track_t*)mux->tracks.data) + track_num;

	movsxd	rax, DWORD PTR track_num$[rbp]
	imul	rax, rax, 112				; 00000070H
	mov	rcx, QWORD PTR mux$[rbp]
	add	rax, QWORD PTR [rcx]
	mov	QWORD PTR tr$[rbp], rax

; 1108 : 
; 1109 :     if (mux->enable_fragmentation)

	mov	rax, QWORD PTR mux$[rbp]
	cmp	DWORD PTR [rax+52], 0
	je	$LN4@MP4E_put_s

; 1110 :     {
; 1111 : #if MP4D_TFDT_SUPPORT
; 1112 :         // NOTE: assume a constant `duration` to calculate current timestamp
; 1113 :         uint64_t timestamp = (uint64_t)mux->fragments_count * duration;
; 1114 : #endif
; 1115 :         if (!mux->fragments_count++)

	mov	rax, QWORD PTR mux$[rbp]
	mov	eax, DWORD PTR [rax+56]
	mov	DWORD PTR tv78[rbp], eax
	mov	rax, QWORD PTR mux$[rbp]
	mov	eax, DWORD PTR [rax+56]
	inc	eax
	mov	rcx, QWORD PTR mux$[rbp]
	mov	DWORD PTR [rcx+56], eax
	cmp	DWORD PTR tv78[rbp], 0
	jne	SHORT $LN5@MP4E_put_s

; 1116 :             ERR(mp4e_flush_index(mux)); // write file headers before 1st sample

	mov	rcx, QWORD PTR mux$[rbp]
	call	?mp4e_flush_index@@YAHPEAUMP4E_mux_tag@@@Z ; mp4e_flush_index
	mov	DWORD PTR err$1[rbp], eax
	cmp	DWORD PTR err$1[rbp], 0
	je	SHORT $LN6@MP4E_put_s
	mov	eax, DWORD PTR err$1[rbp]
	jmp	$LN1@MP4E_put_s
$LN6@MP4E_put_s:
$LN5@MP4E_put_s:

; 1117 :         // write MOOF + MDAT + sample data
; 1118 : #if MP4D_TFDT_SUPPORT
; 1119 :         ERR(mp4e_write_fragment_header(mux, track_num, data_bytes, duration, kind, timestamp));
; 1120 : #else
; 1121 :         ERR(mp4e_write_fragment_header(mux, track_num, data_bytes, duration, kind));

	mov	eax, DWORD PTR kind$[rbp]
	mov	DWORD PTR [rsp+32], eax
	mov	r9d, DWORD PTR duration$[rbp]
	mov	r8d, DWORD PTR data_bytes$[rbp]
	mov	edx, DWORD PTR track_num$[rbp]
	mov	rcx, QWORD PTR mux$[rbp]
	call	?mp4e_write_fragment_header@@YAHPEAUMP4E_mux_tag@@HHHH@Z ; mp4e_write_fragment_header
	mov	DWORD PTR err$2[rbp], eax
	cmp	DWORD PTR err$2[rbp], 0
	je	SHORT $LN7@MP4E_put_s
	mov	eax, DWORD PTR err$2[rbp]
	jmp	$LN1@MP4E_put_s
$LN7@MP4E_put_s:

; 1122 : #endif
; 1123 :         // write MDAT box for each sample
; 1124 :         ERR(mp4e_write_mdat_box(mux, data_bytes + 8));

	mov	eax, DWORD PTR data_bytes$[rbp]
	add	eax, 8
	mov	edx, eax
	mov	rcx, QWORD PTR mux$[rbp]
	call	?mp4e_write_mdat_box@@YAHPEAUMP4E_mux_tag@@I@Z ; mp4e_write_mdat_box
	mov	DWORD PTR err$3[rbp], eax
	cmp	DWORD PTR err$3[rbp], 0
	je	SHORT $LN8@MP4E_put_s
	mov	eax, DWORD PTR err$3[rbp]
	jmp	$LN1@MP4E_put_s
$LN8@MP4E_put_s:

; 1125 :         ERR(mux->write_callback(mux->write_pos, data, data_bytes, mux->token));

	movsxd	rax, DWORD PTR data_bytes$[rbp]
	mov	rcx, QWORD PTR mux$[rbp]
	mov	r9, QWORD PTR [rcx+32]
	mov	r8, rax
	mov	rdx, QWORD PTR data$[rbp]
	mov	rax, QWORD PTR mux$[rbp]
	mov	rcx, QWORD PTR [rax+16]
	mov	rax, QWORD PTR mux$[rbp]
	call	QWORD PTR [rax+24]
	mov	DWORD PTR err$4[rbp], eax
	cmp	DWORD PTR err$4[rbp], 0
	je	SHORT $LN9@MP4E_put_s
	mov	eax, DWORD PTR err$4[rbp]
	jmp	$LN1@MP4E_put_s
$LN9@MP4E_put_s:

; 1126 :         mux->write_pos += data_bytes;

	movsxd	rax, DWORD PTR data_bytes$[rbp]
	mov	rcx, QWORD PTR mux$[rbp]
	add	rax, QWORD PTR [rcx+16]
	mov	rcx, QWORD PTR mux$[rbp]
	mov	QWORD PTR [rcx+16], rax

; 1127 :         return MP4E_STATUS_OK;

	xor	eax, eax
	jmp	$LN1@MP4E_put_s
$LN4@MP4E_put_s:

; 1128 :     }
; 1129 : 
; 1130 :     if (kind != MP4E_SAMPLE_CONTINUATION)

	cmp	DWORD PTR kind$[rbp], 2
	je	SHORT $LN10@MP4E_put_s

; 1131 :     {
; 1132 :         if (mux->sequential_mode_flag)

	mov	rax, QWORD PTR mux$[rbp]
	cmp	DWORD PTR [rax+48], 0
	je	SHORT $LN12@MP4E_put_s

; 1133 :             ERR(write_pending_data(mux, tr));

	mov	rdx, QWORD PTR tr$[rbp]
	mov	rcx, QWORD PTR mux$[rbp]
	call	?write_pending_data@@YAHPEAUMP4E_mux_tag@@PEAUtrack_t@@@Z ; write_pending_data
	mov	DWORD PTR err$5[rbp], eax
	cmp	DWORD PTR err$5[rbp], 0
	je	SHORT $LN13@MP4E_put_s
	mov	eax, DWORD PTR err$5[rbp]
	jmp	$LN1@MP4E_put_s
$LN13@MP4E_put_s:
$LN12@MP4E_put_s:

; 1134 :         if (!add_sample_descriptor(mux, tr, data_bytes, duration, kind))

	mov	eax, DWORD PTR kind$[rbp]
	mov	DWORD PTR [rsp+32], eax
	mov	r9d, DWORD PTR duration$[rbp]
	mov	r8d, DWORD PTR data_bytes$[rbp]
	mov	rdx, QWORD PTR tr$[rbp]
	mov	rcx, QWORD PTR mux$[rbp]
	call	?add_sample_descriptor@@YAHPEAUMP4E_mux_tag@@PEAUtrack_t@@HHH@Z ; add_sample_descriptor
	test	eax, eax
	jne	SHORT $LN14@MP4E_put_s

; 1135 :             return MP4E_STATUS_NO_MEMORY;

	mov	eax, -2
	jmp	$LN1@MP4E_put_s
$LN14@MP4E_put_s:

; 1136 :     }

	jmp	SHORT $LN11@MP4E_put_s
$LN10@MP4E_put_s:

; 1137 :     else
; 1138 :     {
; 1139 :         if (!mux->sequential_mode_flag)

	mov	rax, QWORD PTR mux$[rbp]
	cmp	DWORD PTR [rax+48], 0
	jne	SHORT $LN15@MP4E_put_s

; 1140 :         {
; 1141 :             sample_t* smpl_desc;
; 1142 :             if (tr->smpl.bytes < sizeof(sample_t))

	mov	rax, QWORD PTR tr$[rbp]
	movsxd	rax, DWORD PTR [rax+40]
	cmp	rax, 24
	jae	SHORT $LN16@MP4E_put_s

; 1143 :                 return MP4E_STATUS_NO_MEMORY; // write continuation, but there are no samples in the index

	mov	eax, -2
	jmp	$LN1@MP4E_put_s
$LN16@MP4E_put_s:

; 1144 :             // Accumulate size of the continuation in the sample descriptor
; 1145 :             smpl_desc = (sample_t*)(tr->smpl.data + tr->smpl.bytes) - 1;

	mov	rax, QWORD PTR tr$[rbp]
	movsxd	rax, DWORD PTR [rax+40]
	mov	rcx, QWORD PTR tr$[rbp]
	mov	rcx, QWORD PTR [rcx+32]
	lea	rax, QWORD PTR [rcx+rax-24]
	mov	QWORD PTR smpl_desc$6[rbp], rax

; 1146 :             smpl_desc->size += data_bytes;

	movsxd	rax, DWORD PTR data_bytes$[rbp]
	mov	rcx, QWORD PTR smpl_desc$6[rbp]
	add	rax, QWORD PTR [rcx]
	mov	rcx, QWORD PTR smpl_desc$6[rbp]
	mov	QWORD PTR [rcx], rax
$LN15@MP4E_put_s:
$LN11@MP4E_put_s:

; 1147 :         }
; 1148 :     }
; 1149 : 
; 1150 :     if (mux->sequential_mode_flag)

	mov	rax, QWORD PTR mux$[rbp]
	cmp	DWORD PTR [rax+48], 0
	je	SHORT $LN17@MP4E_put_s

; 1151 :     {
; 1152 :         if (!minimp4_vector_put(&tr->pending_sample, data, data_bytes))

	mov	rax, QWORD PTR tr$[rbp]
	add	rax, 48					; 00000030H
	mov	r8d, DWORD PTR data_bytes$[rbp]
	mov	rdx, QWORD PTR data$[rbp]
	mov	rcx, rax
	call	?minimp4_vector_put@@YAPEAEPEAUminimp4_vector_t@@PEBXH@Z ; minimp4_vector_put
	test	rax, rax
	jne	SHORT $LN19@MP4E_put_s

; 1153 :             return MP4E_STATUS_NO_MEMORY;

	mov	eax, -2
	jmp	SHORT $LN1@MP4E_put_s
$LN19@MP4E_put_s:

; 1154 :     }

	jmp	SHORT $LN18@MP4E_put_s
$LN17@MP4E_put_s:

; 1155 :     else
; 1156 :     {
; 1157 :         ERR(mux->write_callback(mux->write_pos, data, data_bytes, mux->token));

	movsxd	rax, DWORD PTR data_bytes$[rbp]
	mov	rcx, QWORD PTR mux$[rbp]
	mov	r9, QWORD PTR [rcx+32]
	mov	r8, rax
	mov	rdx, QWORD PTR data$[rbp]
	mov	rax, QWORD PTR mux$[rbp]
	mov	rcx, QWORD PTR [rax+16]
	mov	rax, QWORD PTR mux$[rbp]
	call	QWORD PTR [rax+24]
	mov	DWORD PTR err$7[rbp], eax
	cmp	DWORD PTR err$7[rbp], 0
	je	SHORT $LN20@MP4E_put_s
	mov	eax, DWORD PTR err$7[rbp]
	jmp	SHORT $LN1@MP4E_put_s
$LN20@MP4E_put_s:

; 1158 :         mux->write_pos += data_bytes;

	movsxd	rax, DWORD PTR data_bytes$[rbp]
	mov	rcx, QWORD PTR mux$[rbp]
	add	rax, QWORD PTR [rcx+16]
	mov	rcx, QWORD PTR mux$[rbp]
	mov	QWORD PTR [rcx+16], rax
$LN18@MP4E_put_s:

; 1159 :     }
; 1160 :     return MP4E_STATUS_OK;

	xor	eax, eax
$LN1@MP4E_put_s:

; 1161 : }

	lea	rsp, QWORD PTR [rbp+112]
	pop	rbp
	ret	0
MP4E_put_sample ENDP
_TEXT	ENDS
; Function compile flags: /Odtp /ZI
; File C:\Users\paras\source\repos\grep-name\XenevaOS\Process\AudioPlayer\minimp4.h
;	COMDAT MP4E_add_track
_TEXT	SEGMENT
tr$ = 0
ntr$ = 8
mux$ = 96
track_data$ = 104
MP4E_add_track PROC					; COMDAT

; 842  : {

$LN7:
	mov	QWORD PTR [rsp+16], rdx
	mov	QWORD PTR [rsp+8], rcx
	push	rbp
	sub	rsp, 112				; 00000070H
	lea	rbp, QWORD PTR [rsp+32]

; 843  :     track_t* tr;
; 844  :     int ntr = mux->tracks.bytes / sizeof(track_t);

	mov	rax, QWORD PTR mux$[rbp]
	movsxd	rax, DWORD PTR [rax+8]
	xor	edx, edx
	mov	ecx, 112				; 00000070H
	div	rcx
	mov	DWORD PTR ntr$[rbp], eax

; 845  : 
; 846  :     if (!mux || !track_data)

	cmp	QWORD PTR mux$[rbp], 0
	je	SHORT $LN3@MP4E_add_t
	cmp	QWORD PTR track_data$[rbp], 0
	jne	SHORT $LN2@MP4E_add_t
$LN3@MP4E_add_t:

; 847  :         return MP4E_STATUS_BAD_ARGUMENTS;

	mov	eax, -1
	jmp	$LN1@MP4E_add_t
$LN2@MP4E_add_t:

; 848  : 
; 849  :     tr = (track_t*)minimp4_vector_alloc_tail(&mux->tracks, sizeof(track_t));

	mov	rax, QWORD PTR mux$[rbp]
	mov	edx, 112				; 00000070H
	mov	rcx, rax
	call	?minimp4_vector_alloc_tail@@YAPEAEPEAUminimp4_vector_t@@H@Z ; minimp4_vector_alloc_tail
	mov	QWORD PTR tr$[rbp], rax

; 850  :     if (!tr)

	cmp	QWORD PTR tr$[rbp], 0
	jne	SHORT $LN4@MP4E_add_t

; 851  :         return MP4E_STATUS_NO_MEMORY;

	mov	eax, -2
	jmp	$LN1@MP4E_add_t
$LN4@MP4E_add_t:

; 852  :     memset(tr, 0, sizeof(track_t));

	mov	r8d, 112				; 00000070H
	xor	edx, edx
	mov	rcx, QWORD PTR tr$[rbp]
	call	memset

; 853  :     memcpy(&tr->info, (void*)track_data, sizeof(*track_data));

	mov	rax, QWORD PTR tr$[rbp]
	mov	r8d, 28
	mov	rdx, QWORD PTR track_data$[rbp]
	mov	rcx, rax
	call	memcpy

; 854  :     if (!minimp4_vector_init(&tr->smpl, 256))

	mov	rax, QWORD PTR tr$[rbp]
	add	rax, 32					; 00000020H
	mov	edx, 256				; 00000100H
	mov	rcx, rax
	call	?minimp4_vector_init@@YAHPEAUminimp4_vector_t@@H@Z ; minimp4_vector_init
	test	eax, eax
	jne	SHORT $LN5@MP4E_add_t

; 855  :         return MP4E_STATUS_NO_MEMORY;

	mov	eax, -2
	jmp	SHORT $LN1@MP4E_add_t
$LN5@MP4E_add_t:

; 856  :     minimp4_vector_init(&tr->vsps, 0);

	mov	rax, QWORD PTR tr$[rbp]
	add	rax, 64					; 00000040H
	xor	edx, edx
	mov	rcx, rax
	call	?minimp4_vector_init@@YAHPEAUminimp4_vector_t@@H@Z ; minimp4_vector_init

; 857  :     minimp4_vector_init(&tr->vpps, 0);

	mov	rax, QWORD PTR tr$[rbp]
	add	rax, 80					; 00000050H
	xor	edx, edx
	mov	rcx, rax
	call	?minimp4_vector_init@@YAHPEAUminimp4_vector_t@@H@Z ; minimp4_vector_init

; 858  :     minimp4_vector_init(&tr->pending_sample, 0);

	mov	rax, QWORD PTR tr$[rbp]
	add	rax, 48					; 00000030H
	xor	edx, edx
	mov	rcx, rax
	call	?minimp4_vector_init@@YAHPEAUminimp4_vector_t@@H@Z ; minimp4_vector_init

; 859  :     return ntr;

	mov	eax, DWORD PTR ntr$[rbp]
$LN1@MP4E_add_t:

; 860  : }

	lea	rsp, QWORD PTR [rbp+80]
	pop	rbp
	ret	0
MP4E_add_track ENDP
_TEXT	ENDS
; Function compile flags: /Odtp /ZI
; File C:\Users\paras\source\repos\grep-name\XenevaOS\Process\AudioPlayer\minimp4.h
;	COMDAT MP4E_open
_TEXT	SEGMENT
mux$ = 0
tv76 = 72
sequential_mode_flag$ = 96
enable_fragmentation$ = 104
token$ = 112
write_callback$ = 120
MP4E_open PROC						; COMDAT

; 811  : {

$LN9:
	mov	QWORD PTR [rsp+32], r9
	mov	QWORD PTR [rsp+24], r8
	mov	DWORD PTR [rsp+16], edx
	mov	DWORD PTR [rsp+8], ecx
	push	rbp
	sub	rsp, 112				; 00000070H
	lea	rbp, QWORD PTR [rsp+32]

; 812  :     if (write_callback(0, box_ftyp, sizeof(box_ftyp), token)) // Write fixed header: 'ftyp' box

	mov	r9, QWORD PTR token$[rbp]
	mov	r8d, 24
	lea	rdx, OFFSET FLAT:?box_ftyp@@3QBEB
	xor	ecx, ecx
	call	QWORD PTR write_callback$[rbp]
	test	eax, eax
	je	SHORT $LN2@MP4E_open

; 813  :         return 0;

	xor	eax, eax
	jmp	$LN1@MP4E_open
$LN2@MP4E_open:

; 814  :     MP4E_mux_t* mux = (MP4E_mux_t*)malloc(sizeof(MP4E_mux_t));

	mov	ecx, 64					; 00000040H
	call	malloc
	mov	QWORD PTR mux$[rbp], rax

; 815  :     if (!mux)

	cmp	QWORD PTR mux$[rbp], 0
	jne	SHORT $LN3@MP4E_open

; 816  :         return mux;

	mov	rax, QWORD PTR mux$[rbp]
	jmp	$LN1@MP4E_open
$LN3@MP4E_open:

; 817  :     mux->sequential_mode_flag = sequential_mode_flag || enable_fragmentation;

	cmp	DWORD PTR sequential_mode_flag$[rbp], 0
	jne	SHORT $LN7@MP4E_open
	cmp	DWORD PTR enable_fragmentation$[rbp], 0
	jne	SHORT $LN7@MP4E_open
	mov	DWORD PTR tv76[rbp], 0
	jmp	SHORT $LN8@MP4E_open
$LN7@MP4E_open:
	mov	DWORD PTR tv76[rbp], 1
$LN8@MP4E_open:
	mov	rax, QWORD PTR mux$[rbp]
	mov	ecx, DWORD PTR tv76[rbp]
	mov	DWORD PTR [rax+48], ecx

; 818  :     mux->enable_fragmentation = enable_fragmentation;

	mov	rax, QWORD PTR mux$[rbp]
	mov	ecx, DWORD PTR enable_fragmentation$[rbp]
	mov	DWORD PTR [rax+52], ecx

; 819  :     mux->fragments_count = 0;

	mov	rax, QWORD PTR mux$[rbp]
	mov	DWORD PTR [rax+56], 0

; 820  :     mux->write_callback = write_callback;

	mov	rax, QWORD PTR mux$[rbp]
	mov	rcx, QWORD PTR write_callback$[rbp]
	mov	QWORD PTR [rax+24], rcx

; 821  :     mux->token = token;

	mov	rax, QWORD PTR mux$[rbp]
	mov	rcx, QWORD PTR token$[rbp]
	mov	QWORD PTR [rax+32], rcx

; 822  :     mux->text_comment = NULL;

	mov	rax, QWORD PTR mux$[rbp]
	mov	QWORD PTR [rax+40], 0

; 823  :     mux->write_pos = sizeof(box_ftyp);

	mov	rax, QWORD PTR mux$[rbp]
	mov	QWORD PTR [rax+16], 24

; 824  : 
; 825  :     if (!mux->sequential_mode_flag)

	mov	rax, QWORD PTR mux$[rbp]
	cmp	DWORD PTR [rax+48], 0
	jne	SHORT $LN4@MP4E_open

; 826  :     {   // Write filler, which would be updated later
; 827  :         if (mux->write_callback(mux->write_pos, box_ftyp, 8, mux->token))

	mov	rax, QWORD PTR mux$[rbp]
	mov	r9, QWORD PTR [rax+32]
	mov	r8d, 8
	lea	rdx, OFFSET FLAT:?box_ftyp@@3QBEB
	mov	rax, QWORD PTR mux$[rbp]
	mov	rcx, QWORD PTR [rax+16]
	mov	rax, QWORD PTR mux$[rbp]
	call	QWORD PTR [rax+24]
	test	eax, eax
	je	SHORT $LN5@MP4E_open

; 828  :         {
; 829  :             free(mux);

	mov	rcx, QWORD PTR mux$[rbp]
	call	free

; 830  :             return 0;

	xor	eax, eax
	jmp	SHORT $LN1@MP4E_open
$LN5@MP4E_open:

; 831  :         }
; 832  :         mux->write_pos += 16; // box_ftyp + box_free for 32bit or 64bit size encoding

	mov	rax, QWORD PTR mux$[rbp]
	mov	rax, QWORD PTR [rax+16]
	add	rax, 16
	mov	rcx, QWORD PTR mux$[rbp]
	mov	QWORD PTR [rcx+16], rax
$LN4@MP4E_open:

; 833  :     }
; 834  :     minimp4_vector_init(&mux->tracks, 2 * sizeof(track_t));

	mov	rax, QWORD PTR mux$[rbp]
	mov	edx, 224				; 000000e0H
	mov	rcx, rax
	call	?minimp4_vector_init@@YAHPEAUminimp4_vector_t@@H@Z ; minimp4_vector_init

; 835  :     return mux;

	mov	rax, QWORD PTR mux$[rbp]
$LN1@MP4E_open:

; 836  : }

	lea	rsp, QWORD PTR [rbp+80]
	pop	rbp
	ret	0
MP4E_open ENDP
_TEXT	ENDS
; Function compile flags: /Odtp /ZI
; File C:\Users\paras\source\repos\grep-name\XenevaOS\Process\AudioPlayer\minimp4.h
;	COMDAT MP4D_read_pps
_TEXT	SEGMENT
mp4$ = 80
ntrack$ = 88
npps$ = 96
pps_bytes$ = 104
MP4D_read_pps PROC					; COMDAT

; 3387 : {

$LN3:
	mov	QWORD PTR [rsp+32], r9
	mov	DWORD PTR [rsp+24], r8d
	mov	DWORD PTR [rsp+16], edx
	mov	QWORD PTR [rsp+8], rcx
	push	rbp
	sub	rsp, 112				; 00000070H
	lea	rbp, QWORD PTR [rsp+48]

; 3388 :     return MP4D_read_spspps(mp4, ntrack, 1, npps, pps_bytes);

	mov	rax, QWORD PTR pps_bytes$[rbp]
	mov	QWORD PTR [rsp+32], rax
	mov	r9d, DWORD PTR npps$[rbp]
	mov	r8d, 1
	mov	edx, DWORD PTR ntrack$[rbp]
	mov	rcx, QWORD PTR mp4$[rbp]
	call	?MP4D_read_spspps@@YAPEBXPEBUMP4D_demux_tag@@IHHPEAH@Z ; MP4D_read_spspps

; 3389 : }

	lea	rsp, QWORD PTR [rbp+64]
	pop	rbp
	ret	0
MP4D_read_pps ENDP
_TEXT	ENDS
; Function compile flags: /Odtp /ZI
; File C:\Users\paras\source\repos\grep-name\XenevaOS\Process\AudioPlayer\minimp4.h
;	COMDAT MP4D_read_sps
_TEXT	SEGMENT
mp4$ = 80
ntrack$ = 88
nsps$ = 96
sps_bytes$ = 104
MP4D_read_sps PROC					; COMDAT

; 3382 : {

$LN3:
	mov	QWORD PTR [rsp+32], r9
	mov	DWORD PTR [rsp+24], r8d
	mov	DWORD PTR [rsp+16], edx
	mov	QWORD PTR [rsp+8], rcx
	push	rbp
	sub	rsp, 112				; 00000070H
	lea	rbp, QWORD PTR [rsp+48]

; 3383 :     return MP4D_read_spspps(mp4, ntrack, 0, nsps, sps_bytes);

	mov	rax, QWORD PTR sps_bytes$[rbp]
	mov	QWORD PTR [rsp+32], rax
	mov	r9d, DWORD PTR nsps$[rbp]
	xor	r8d, r8d
	mov	edx, DWORD PTR ntrack$[rbp]
	mov	rcx, QWORD PTR mp4$[rbp]
	call	?MP4D_read_spspps@@YAPEBXPEBUMP4D_demux_tag@@IHHPEAH@Z ; MP4D_read_spspps

; 3384 : }

	lea	rsp, QWORD PTR [rbp+64]
	pop	rbp
	ret	0
MP4D_read_sps ENDP
_TEXT	ENDS
; Function compile flags: /Odtp /ZI
; File C:\Users\paras\source\repos\grep-name\XenevaOS\Process\AudioPlayer\minimp4.h
;	COMDAT MP4D_close
_TEXT	SEGMENT
tr$1 = 0
tv69 = 72
mp4$ = 96
MP4D_close PROC						; COMDAT

; 3310 : {

$LN18:
	mov	QWORD PTR [rsp+8], rcx
	push	rbp
	sub	rsp, 112				; 00000070H
	lea	rbp, QWORD PTR [rsp+32]
$LN2@MP4D_close:

; 3311 :     while (mp4->track_count)

	mov	rax, QWORD PTR mp4$[rbp]
	cmp	DWORD PTR [rax+40], 0
	je	$LN3@MP4D_close

; 3312 :     {
; 3313 :         MP4D_track_t* tr = mp4->track + --mp4->track_count;

	mov	rax, QWORD PTR mp4$[rbp]
	mov	eax, DWORD PTR [rax+40]
	dec	eax
	mov	DWORD PTR tv69[rbp], eax
	mov	rax, QWORD PTR mp4$[rbp]
	mov	ecx, DWORD PTR tv69[rbp]
	mov	DWORD PTR [rax+40], ecx
	mov	eax, DWORD PTR tv69[rbp]
	imul	rax, rax, 120				; 00000078H
	mov	rcx, QWORD PTR mp4$[rbp]
	add	rax, QWORD PTR [rcx+16]
	mov	QWORD PTR tr$1[rbp], rax

; 3314 :         FREE(tr->entry_size);

	mov	rax, QWORD PTR tr$1[rbp]
	cmp	QWORD PTR [rax+64], 0
	je	SHORT $LN4@MP4D_close
	mov	rax, QWORD PTR tr$1[rbp]
	mov	rcx, QWORD PTR [rax+64]
	call	free
	mov	rax, QWORD PTR tr$1[rbp]
	mov	QWORD PTR [rax+64], 0
$LN4@MP4D_close:

; 3315 : #if MP4D_TIMESTAMPS_SUPPORTED
; 3316 :         FREE(tr->timestamp);

	mov	rax, QWORD PTR tr$1[rbp]
	cmp	QWORD PTR [rax+104], 0
	je	SHORT $LN5@MP4D_close
	mov	rax, QWORD PTR tr$1[rbp]
	mov	rcx, QWORD PTR [rax+104]
	call	free
	mov	rax, QWORD PTR tr$1[rbp]
	mov	QWORD PTR [rax+104], 0
$LN5@MP4D_close:

; 3317 :         FREE(tr->duration);

	mov	rax, QWORD PTR tr$1[rbp]
	cmp	QWORD PTR [rax+112], 0
	je	SHORT $LN6@MP4D_close
	mov	rax, QWORD PTR tr$1[rbp]
	mov	rcx, QWORD PTR [rax+112]
	call	free
	mov	rax, QWORD PTR tr$1[rbp]
	mov	QWORD PTR [rax+112], 0
$LN6@MP4D_close:

; 3318 : #endif
; 3319 :         FREE(tr->sample_to_chunk);

	mov	rax, QWORD PTR tr$1[rbp]
	cmp	QWORD PTR [rax+80], 0
	je	SHORT $LN7@MP4D_close
	mov	rax, QWORD PTR tr$1[rbp]
	mov	rcx, QWORD PTR [rax+80]
	call	free
	mov	rax, QWORD PTR tr$1[rbp]
	mov	QWORD PTR [rax+80], 0
$LN7@MP4D_close:

; 3320 :         FREE(tr->chunk_offset);

	mov	rax, QWORD PTR tr$1[rbp]
	cmp	QWORD PTR [rax+96], 0
	je	SHORT $LN8@MP4D_close
	mov	rax, QWORD PTR tr$1[rbp]
	mov	rcx, QWORD PTR [rax+96]
	call	free
	mov	rax, QWORD PTR tr$1[rbp]
	mov	QWORD PTR [rax+96], 0
$LN8@MP4D_close:

; 3321 :         FREE(tr->dsi);

	mov	rax, QWORD PTR tr$1[rbp]
	cmp	QWORD PTR [rax+8], 0
	je	SHORT $LN9@MP4D_close
	mov	rax, QWORD PTR tr$1[rbp]
	mov	rcx, QWORD PTR [rax+8]
	call	free
	mov	rax, QWORD PTR tr$1[rbp]
	mov	QWORD PTR [rax+8], 0
$LN9@MP4D_close:

; 3322 :     }

	jmp	$LN2@MP4D_close
$LN3@MP4D_close:

; 3323 :     FREE(mp4->track);

	mov	rax, QWORD PTR mp4$[rbp]
	cmp	QWORD PTR [rax+16], 0
	je	SHORT $LN10@MP4D_close
	mov	rax, QWORD PTR mp4$[rbp]
	mov	rcx, QWORD PTR [rax+16]
	call	free
	mov	rax, QWORD PTR mp4$[rbp]
	mov	QWORD PTR [rax+16], 0
$LN10@MP4D_close:

; 3324 : #if MP4D_INFO_SUPPORTED
; 3325 :     FREE(mp4->tag.title);

	mov	rax, QWORD PTR mp4$[rbp]
	cmp	QWORD PTR [rax+56], 0
	je	SHORT $LN11@MP4D_close
	mov	rax, QWORD PTR mp4$[rbp]
	mov	rcx, QWORD PTR [rax+56]
	call	free
	mov	rax, QWORD PTR mp4$[rbp]
	mov	QWORD PTR [rax+56], 0
$LN11@MP4D_close:

; 3326 :     FREE(mp4->tag.artist);

	mov	rax, QWORD PTR mp4$[rbp]
	cmp	QWORD PTR [rax+64], 0
	je	SHORT $LN12@MP4D_close
	mov	rax, QWORD PTR mp4$[rbp]
	mov	rcx, QWORD PTR [rax+64]
	call	free
	mov	rax, QWORD PTR mp4$[rbp]
	mov	QWORD PTR [rax+64], 0
$LN12@MP4D_close:

; 3327 :     FREE(mp4->tag.album);

	mov	rax, QWORD PTR mp4$[rbp]
	cmp	QWORD PTR [rax+72], 0
	je	SHORT $LN13@MP4D_close
	mov	rax, QWORD PTR mp4$[rbp]
	mov	rcx, QWORD PTR [rax+72]
	call	free
	mov	rax, QWORD PTR mp4$[rbp]
	mov	QWORD PTR [rax+72], 0
$LN13@MP4D_close:

; 3328 :     FREE(mp4->tag.year);

	mov	rax, QWORD PTR mp4$[rbp]
	cmp	QWORD PTR [rax+80], 0
	je	SHORT $LN14@MP4D_close
	mov	rax, QWORD PTR mp4$[rbp]
	mov	rcx, QWORD PTR [rax+80]
	call	free
	mov	rax, QWORD PTR mp4$[rbp]
	mov	QWORD PTR [rax+80], 0
$LN14@MP4D_close:

; 3329 :     FREE(mp4->tag.comment);

	mov	rax, QWORD PTR mp4$[rbp]
	cmp	QWORD PTR [rax+88], 0
	je	SHORT $LN15@MP4D_close
	mov	rax, QWORD PTR mp4$[rbp]
	mov	rcx, QWORD PTR [rax+88]
	call	free
	mov	rax, QWORD PTR mp4$[rbp]
	mov	QWORD PTR [rax+88], 0
$LN15@MP4D_close:

; 3330 :     FREE(mp4->tag.genre);

	mov	rax, QWORD PTR mp4$[rbp]
	cmp	QWORD PTR [rax+96], 0
	je	SHORT $LN16@MP4D_close
	mov	rax, QWORD PTR mp4$[rbp]
	mov	rcx, QWORD PTR [rax+96]
	call	free
	mov	rax, QWORD PTR mp4$[rbp]
	mov	QWORD PTR [rax+96], 0
$LN16@MP4D_close:

; 3331 : #endif
; 3332 : }

	lea	rsp, QWORD PTR [rbp+80]
	pop	rbp
	ret	0
MP4D_close ENDP
_TEXT	ENDS
; Function compile flags: /Odtp /ZI
; File C:\Users\paras\source\repos\grep-name\XenevaOS\Process\AudioPlayer\minimp4.h
;	COMDAT MP4D_frame_offset
_TEXT	SEGMENT
tr$ = 0
ns$ = 8
nchunk$ = 12
offset$ = 16
mp4$ = 112
ntrack$ = 120
nsample$ = 128
frame_bytes$ = 136
timestamp$ = 144
duration$ = 152
MP4D_frame_offset PROC					; COMDAT

; 3266 : {

$LN9:
	mov	QWORD PTR [rsp+32], r9
	mov	DWORD PTR [rsp+24], r8d
	mov	DWORD PTR [rsp+16], edx
	mov	QWORD PTR [rsp+8], rcx
	push	rbp
	sub	rsp, 128				; 00000080H
	lea	rbp, QWORD PTR [rsp+32]

; 3267 :     MP4D_track_t* tr = mp4->track + ntrack;

	mov	eax, DWORD PTR ntrack$[rbp]
	imul	rax, rax, 120				; 00000078H
	mov	rcx, QWORD PTR mp4$[rbp]
	add	rax, QWORD PTR [rcx+16]
	mov	QWORD PTR tr$[rbp], rax

; 3268 :     unsigned ns;
; 3269 :     int nchunk = sample_to_chunk(tr, nsample, &ns);

	lea	r8, QWORD PTR ns$[rbp]
	mov	edx, DWORD PTR nsample$[rbp]
	mov	rcx, QWORD PTR tr$[rbp]
	call	?sample_to_chunk@@YAHPEAUMP4D_track_t@@IPEAI@Z ; sample_to_chunk
	mov	DWORD PTR nchunk$[rbp], eax

; 3270 :     MP4D_file_offset_t offset;
; 3271 : 
; 3272 :     if (nchunk < 0)

	cmp	DWORD PTR nchunk$[rbp], 0
	jge	SHORT $LN5@MP4D_frame

; 3273 :     {
; 3274 :         *frame_bytes = 0;

	mov	rax, QWORD PTR frame_bytes$[rbp]
	mov	DWORD PTR [rax], 0

; 3275 :         return 0;

	xor	eax, eax
	jmp	$LN1@MP4D_frame
$LN5@MP4D_frame:

; 3276 :     }
; 3277 : 
; 3278 :     offset = tr->chunk_offset[nchunk];

	movsxd	rax, DWORD PTR nchunk$[rbp]
	mov	rcx, QWORD PTR tr$[rbp]
	mov	rcx, QWORD PTR [rcx+96]
	mov	rax, QWORD PTR [rcx+rax*8]
	mov	QWORD PTR offset$[rbp], rax

; 3279 :     for (; ns < nsample; ns++)

	jmp	SHORT $LN4@MP4D_frame
$LN2@MP4D_frame:
	mov	eax, DWORD PTR ns$[rbp]
	inc	eax
	mov	DWORD PTR ns$[rbp], eax
$LN4@MP4D_frame:
	mov	eax, DWORD PTR nsample$[rbp]
	cmp	DWORD PTR ns$[rbp], eax
	jae	SHORT $LN3@MP4D_frame

; 3280 :     {
; 3281 :         offset += tr->entry_size[ns];

	mov	eax, DWORD PTR ns$[rbp]
	mov	rcx, QWORD PTR tr$[rbp]
	mov	rcx, QWORD PTR [rcx+64]
	mov	eax, DWORD PTR [rcx+rax*4]
	mov	rcx, QWORD PTR offset$[rbp]
	add	rcx, rax
	mov	rax, rcx
	mov	QWORD PTR offset$[rbp], rax

; 3282 :     }

	jmp	SHORT $LN2@MP4D_frame
$LN3@MP4D_frame:

; 3283 : 
; 3284 :     *frame_bytes = tr->entry_size[ns];

	mov	eax, DWORD PTR ns$[rbp]
	mov	rcx, QWORD PTR tr$[rbp]
	mov	rcx, QWORD PTR [rcx+64]
	mov	rdx, QWORD PTR frame_bytes$[rbp]
	mov	eax, DWORD PTR [rcx+rax*4]
	mov	DWORD PTR [rdx], eax

; 3285 : 
; 3286 :     if (timestamp)

	cmp	QWORD PTR timestamp$[rbp], 0
	je	SHORT $LN6@MP4D_frame

; 3287 :     {
; 3288 : #if MP4D_TIMESTAMPS_SUPPORTED
; 3289 :         * timestamp = tr->timestamp[ns];

	mov	eax, DWORD PTR ns$[rbp]
	mov	rcx, QWORD PTR tr$[rbp]
	mov	rcx, QWORD PTR [rcx+104]
	mov	rdx, QWORD PTR timestamp$[rbp]
	mov	eax, DWORD PTR [rcx+rax*4]
	mov	DWORD PTR [rdx], eax
$LN6@MP4D_frame:

; 3290 : #else
; 3291 :         * timestamp = 0;
; 3292 : #endif
; 3293 :     }
; 3294 :     if (duration)

	cmp	QWORD PTR duration$[rbp], 0
	je	SHORT $LN7@MP4D_frame

; 3295 :     {
; 3296 : #if MP4D_TIMESTAMPS_SUPPORTED
; 3297 :         * duration = tr->duration[ns];

	mov	eax, DWORD PTR ns$[rbp]
	mov	rcx, QWORD PTR tr$[rbp]
	mov	rcx, QWORD PTR [rcx+112]
	mov	rdx, QWORD PTR duration$[rbp]
	mov	eax, DWORD PTR [rcx+rax*4]
	mov	DWORD PTR [rdx], eax
$LN7@MP4D_frame:

; 3298 : #else
; 3299 :         * duration = 0;
; 3300 : #endif
; 3301 :     }
; 3302 : 
; 3303 :     return offset;

	mov	rax, QWORD PTR offset$[rbp]
$LN1@MP4D_frame:

; 3304 : }

	lea	rsp, QWORD PTR [rbp+96]
	pop	rbp
	ret	0
MP4D_frame_offset ENDP
_TEXT	ENDS
; Function compile flags: /Odtp /ZI
; File C:\Users\paras\source\repos\grep-name\XenevaOS\Process\AudioPlayer\minimp4.h
;	COMDAT MP4D_open
_TEXT	SEGMENT
depth$ = 0
stack$ = 16
eof_flag$ = 1040
i$ = 1044
tr$ = 1048
FullAtomVersionAndFlags$1 = 1056
payload_bytes$2 = 1064
box_bytes$3 = 1072
box_name$4 = 1080
ptag$5 = 1088
read_bytes$6 = 1096
val$7 = 1100
size$8 = 1104
sample_size$9 = 1108
t$10 = 1112
count$11 = 1120
j$12 = 1124
k$13 = 1128
ts$14 = 1132
ts_count$15 = 1136
sc$16 = 1140
d$17 = 1144
count$18 = 1148
sc$19 = 1152
d$20 = 1156
t$21 = 1160
t$22 = 1168
t$23 = 1176
ISO_639_2_T$24 = 1184
t$25 = 1192
t$26 = 1200
t$27 = 1208
t$28 = 1216
t$29 = 1224
t$30 = 1232
t$31 = 1240
t$32 = 1248
spspps$33 = 1256
p$34 = 1264
configurationVersion$35 = 1272
AVCProfileIndication$36 = 1276
profile_compatibility$37 = 1280
AVCLevelIndication$38 = 1284
lengthSizeMinusOne$39 = 1288
numOfSequenceParameterSets$40 = 1292
k$41 = 1296
sequenceParameterSetLength$42 = 1300
flags$43 = 1304
t$44 = 1312
bytecount$45 = 1320
t$46 = 1328
t$47 = 1336
t$48 = 1344
t$49 = 1352
mem$50 = 1360
t$51 = 1368
tv1039 = 1568
tv960 = 1568
tv887 = 1568
tv867 = 1568
tv859 = 1568
tv844 = 1568
tv769 = 1568
tv747 = 1568
tv729 = 1568
tv715 = 1568
tv706 = 1568
tv697 = 1568
tv673 = 1568
tv658 = 1568
tv624 = 1568
tv566 = 1568
tv559 = 1568
tv551 = 1568
tv525 = 1568
tv509 = 1568
tv375 = 1568
tv295 = 1568
tv293 = 1568
tv258 = 1568
tv236 = 1568
tv1099 = 1576
tv573 = 1576
tv532 = 1576
tv571 = 1584
tv530 = 1584
mp4$ = 1616
read_callback$ = 1624
token$ = 1632
file_size$ = 1640
MP4D_open PROC						; COMDAT

; 2569 : {

$LN243:
	mov	QWORD PTR [rsp+32], r9
	mov	QWORD PTR [rsp+24], r8
	mov	QWORD PTR [rsp+16], rdx
	mov	QWORD PTR [rsp+8], rcx
	push	rbp
	sub	rsp, 1632				; 00000660H
	lea	rbp, QWORD PTR [rsp+32]

; 2570 :     // box stack size
; 2571 :     int depth = 0;

	mov	DWORD PTR depth$[rbp], 0

; 2572 : 
; 2573 :     struct
; 2574 :     {
; 2575 :         // remaining bytes for box in the stack
; 2576 :         boxsize_t bytes;
; 2577 : 
; 2578 :         // kind of box children's: OD chunks handled in the same manner as name chunks
; 2579 :         boxtype_t format;
; 2580 : 
; 2581 :     } stack[MAX_CHUNKS_DEPTH];
; 2582 : 
; 2583 : #if MP4D_TRACE_SUPPORTED
; 2584 :     // path of current element: List0/List1/... etc
; 2585 :     uint32_t box_path[MAX_CHUNKS_DEPTH];
; 2586 : #endif
; 2587 : 
; 2588 :     int eof_flag = 0;

	mov	DWORD PTR eof_flag$[rbp], 0

; 2589 :     unsigned i;
; 2590 :     MP4D_track_t* tr = NULL;

	mov	QWORD PTR tr$[rbp], 0

; 2591 : 
; 2592 :     if (!mp4 || !read_callback)

	cmp	QWORD PTR mp4$[rbp], 0
	je	SHORT $LN54@MP4D_open
	cmp	QWORD PTR read_callback$[rbp], 0
	jne	SHORT $LN53@MP4D_open
$LN54@MP4D_open:

; 2593 :     {
; 2594 :         TRACE(("\nERROR: invlaid arguments!"));
; 2595 :         return 0;

	xor	eax, eax
	jmp	$LN1@MP4D_open
$LN53@MP4D_open:

; 2596 :     }
; 2597 : 
; 2598 :     memset(mp4, 0, sizeof(MP4D_demux_t));

	mov	r8d, 104				; 00000068H
	xor	edx, edx
	mov	rcx, QWORD PTR mp4$[rbp]
	call	memset

; 2599 :     mp4->read_callback = read_callback;

	mov	rax, QWORD PTR mp4$[rbp]
	mov	rcx, QWORD PTR read_callback$[rbp]
	mov	QWORD PTR [rax+24], rcx

; 2600 :     mp4->token = token;

	mov	rax, QWORD PTR mp4$[rbp]
	mov	rcx, QWORD PTR token$[rbp]
	mov	QWORD PTR [rax+32], rcx

; 2601 :     mp4->read_size = file_size;

	mov	rax, QWORD PTR mp4$[rbp]
	mov	rcx, QWORD PTR file_size$[rbp]
	mov	QWORD PTR [rax+8], rcx

; 2602 : 
; 2603 :     stack[0].format = BOX_ATOM;   // start with atom box

	mov	eax, 16
	imul	rax, rax, 0
	mov	DWORD PTR stack$[rbp+rax+8], 0

; 2604 :     stack[0].bytes = 0;           // never accessed

	mov	eax, 16
	imul	rax, rax, 0
	mov	QWORD PTR stack$[rbp+rax], 0
$LN4@MP4D_open:

; 2605 : 
; 2606 :     do
; 2607 :     {
; 2608 :         // List of boxes, derived from 'FullBox'
; 2609 :         //                ~~~~~~~~~~~~~~~~~~~~~
; 2610 :         // need read version field and check version for these boxes
; 2611 :         static const struct
; 2612 :         {
; 2613 :             uint32_t name;
; 2614 :             unsigned max_version;
; 2615 :             unsigned use_track_flag;
; 2616 :         } g_fullbox[] =
; 2617 :         {
; 2618 : #if MP4D_INFO_SUPPORTED
; 2619 :             {BOX_mdhd, 1, 1},
; 2620 :             {BOX_mvhd, 1, 0},
; 2621 :             {BOX_hdlr, 0, 0},
; 2622 :             {BOX_meta, 0, 0},   // Android can produce meta box without 'FullBox' field, comment this line to simulate the bug
; 2623 : #endif
; 2624 : #if MP4D_TRACE_TIMESTAMPS
; 2625 :             {BOX_stts, 0, 0},
; 2626 :             {BOX_ctts, 0, 0},
; 2627 : #endif
; 2628 :             {BOX_stz2, 0, 1},
; 2629 :             {BOX_stsz, 0, 1},
; 2630 :             {BOX_stsc, 0, 1},
; 2631 :             {BOX_stco, 0, 1},
; 2632 :             {BOX_co64, 0, 1},
; 2633 :             {BOX_stsd, 0, 0},
; 2634 :             {BOX_esds, 0, 1}    // esds does not use track, but switches to OD mode. Check here, to avoid OD check
; 2635 :         };
; 2636 : 
; 2637 :         // List of boxes, which contains other boxes ('envelopes')
; 2638 :         // Parser will descend down for boxes in this list, otherwise parsing will proceed to
; 2639 :         // the next sibling box
; 2640 :         // OD boxes handled in the same way as atom boxes...
; 2641 :         static const struct
; 2642 :         {
; 2643 :             uint32_t name;
; 2644 :             boxtype_t type;
; 2645 :         } g_envelope_box[] =
; 2646 :         {
; 2647 :             {BOX_esds, BOX_OD},     // TODO: BOX_esds can be used for both audio and video, but this code supports audio only!
; 2648 :             {OD_ESD,   BOX_OD},
; 2649 :             {OD_DCD,   BOX_OD},
; 2650 :             {OD_DSI,   BOX_OD},
; 2651 :             {BOX_trak, BOX_ATOM},
; 2652 :             {BOX_moov, BOX_ATOM},
; 2653 :             //{BOX_moof, BOX_ATOM},
; 2654 :             {BOX_mdia, BOX_ATOM},
; 2655 :             {BOX_tref, BOX_ATOM},
; 2656 :             {BOX_minf, BOX_ATOM},
; 2657 :             {BOX_dinf, BOX_ATOM},
; 2658 :             {BOX_stbl, BOX_ATOM},
; 2659 :             {BOX_stsd, BOX_ATOM},
; 2660 :             {BOX_mp4a, BOX_ATOM},
; 2661 :             {BOX_mp4s, BOX_ATOM},
; 2662 : #if MP4D_AVC_SUPPORTED
; 2663 :             {BOX_mp4v, BOX_ATOM},
; 2664 :             {BOX_avc1, BOX_ATOM},
; 2665 :             //{BOX_avc2, BOX_ATOM},
; 2666 :             //{BOX_svc1, BOX_ATOM},
; 2667 : #endif
; 2668 : #if MP4D_HEVC_SUPPORTED
; 2669 :             {BOX_hvc1, BOX_ATOM},
; 2670 : #endif
; 2671 :             {BOX_udta, BOX_ATOM},
; 2672 :             {BOX_meta, BOX_ATOM},
; 2673 :             {BOX_ilst, BOX_ATOM}
; 2674 :         };
; 2675 : 
; 2676 :         uint32_t FullAtomVersionAndFlags = 0;

	mov	DWORD PTR FullAtomVersionAndFlags$1[rbp], 0

; 2677 :         boxsize_t payload_bytes;
; 2678 :         boxsize_t box_bytes;
; 2679 :         uint32_t box_name;
; 2680 : #if MP4D_INFO_SUPPORTED
; 2681 :         unsigned char** ptag = NULL;

	mov	QWORD PTR ptag$5[rbp], 0

; 2682 : #endif
; 2683 :         int read_bytes = 0;

	mov	DWORD PTR read_bytes$6[rbp], 0

; 2684 : 
; 2685 :         // Read header box type and it's length
; 2686 :         if (stack[depth].format == BOX_ATOM)

	movsxd	rax, DWORD PTR depth$[rbp]
	imul	rax, rax, 16
	cmp	DWORD PTR stack$[rbp+rax+8], 0
	jne	$LN55@MP4D_open

; 2687 :         {
; 2688 :             box_bytes = minimp4_read(mp4, 4, &eof_flag);

	lea	r8, QWORD PTR eof_flag$[rbp]
	mov	edx, 4
	mov	rcx, QWORD PTR mp4$[rbp]
	call	?minimp4_read@@YAIPEAUMP4D_demux_tag@@HPEAH@Z ; minimp4_read
	mov	eax, eax
	mov	QWORD PTR box_bytes$3[rbp], rax
$broken_android_meta_hack$244:

; 2689 : #if FIX_BAD_ANDROID_META_BOX
; 2690 :             broken_android_meta_hack :
; 2691 : #endif
; 2692 :             if (eof_flag)

	cmp	DWORD PTR eof_flag$[rbp], 0
	je	SHORT $LN57@MP4D_open

; 2693 :                 break;  // normal exit

	jmp	$LN3@MP4D_open
$LN57@MP4D_open:

; 2694 : 
; 2695 :             if (box_bytes >= 2 && box_bytes < 8)

	cmp	QWORD PTR box_bytes$3[rbp], 2
	jb	SHORT $LN58@MP4D_open
	cmp	QWORD PTR box_bytes$3[rbp], 8
	jae	SHORT $LN58@MP4D_open

; 2696 :             {
; 2697 :                 ERROR("invalid box size (broken file?)");

	cmp	DWORD PTR depth$[rbp], 0
	jne	SHORT $LN59@MP4D_open
	jmp	$LN3@MP4D_open
	jmp	SHORT $LN60@MP4D_open
$LN59@MP4D_open:
	mov	rcx, QWORD PTR mp4$[rbp]
	call	MP4D_close
	xor	eax, eax
	jmp	$LN1@MP4D_open
$LN60@MP4D_open:
$LN58@MP4D_open:

; 2698 :             }
; 2699 : 
; 2700 :             box_name = minimp4_read(mp4, 4, &eof_flag);

	lea	r8, QWORD PTR eof_flag$[rbp]
	mov	edx, 4
	mov	rcx, QWORD PTR mp4$[rbp]
	call	?minimp4_read@@YAIPEAUMP4D_demux_tag@@HPEAH@Z ; minimp4_read
	mov	DWORD PTR box_name$4[rbp], eax

; 2701 :             read_bytes = 8;

	mov	DWORD PTR read_bytes$6[rbp], 8

; 2702 : 
; 2703 :             // Decode box size
; 2704 :             if (box_bytes == 0 ||                         // standard indication of 'till eof' size

	cmp	QWORD PTR box_bytes$3[rbp], 0
	je	SHORT $LN62@MP4D_open
	mov	eax, -1					; ffffffffH
	cmp	QWORD PTR box_bytes$3[rbp], rax
	jne	SHORT $LN61@MP4D_open
$LN62@MP4D_open:

; 2705 :                 box_bytes == (boxsize_t)0xFFFFFFFFU       // some files uses non-standard 'till eof' signaling
; 2706 :                 )
; 2707 :             {
; 2708 :                 box_bytes = ~(boxsize_t)0;

	mov	QWORD PTR box_bytes$3[rbp], -1
$LN61@MP4D_open:

; 2709 :             }
; 2710 : 
; 2711 :             payload_bytes = box_bytes - 8;

	mov	rax, QWORD PTR box_bytes$3[rbp]
	sub	rax, 8
	mov	QWORD PTR payload_bytes$2[rbp], rax

; 2712 : 
; 2713 :             if (box_bytes == 1)           // 64-bit sizes

	cmp	QWORD PTR box_bytes$3[rbp], 1
	jne	$LN63@MP4D_open

; 2714 :             {
; 2715 :                 TRACE(("\n64-bit chunk encountered"));
; 2716 : 
; 2717 :                 box_bytes = minimp4_read(mp4, 4, &eof_flag);

	lea	r8, QWORD PTR eof_flag$[rbp]
	mov	edx, 4
	mov	rcx, QWORD PTR mp4$[rbp]
	call	?minimp4_read@@YAIPEAUMP4D_demux_tag@@HPEAH@Z ; minimp4_read
	mov	eax, eax
	mov	QWORD PTR box_bytes$3[rbp], rax

; 2718 : #if MP4D_64BIT_SUPPORTED
; 2719 :                 box_bytes <<= 32;
; 2720 :                 box_bytes |= minimp4_read(mp4, 4, &eof_flag);
; 2721 : #else
; 2722 :                 if (box_bytes)

	cmp	QWORD PTR box_bytes$3[rbp], 0
	je	SHORT $LN64@MP4D_open

; 2723 :                 {
; 2724 :                     ERROR("UNSUPPORTED FEATURE: MP4BoxHeader(): 64-bit boxes not supported!");

	cmp	DWORD PTR depth$[rbp], 0
	jne	SHORT $LN65@MP4D_open
	jmp	$LN3@MP4D_open
	jmp	SHORT $LN66@MP4D_open
$LN65@MP4D_open:
	mov	rcx, QWORD PTR mp4$[rbp]
	call	MP4D_close
	xor	eax, eax
	jmp	$LN1@MP4D_open
$LN66@MP4D_open:
$LN64@MP4D_open:

; 2725 :                 }
; 2726 :                 box_bytes = minimp4_read(mp4, 4, &eof_flag);

	lea	r8, QWORD PTR eof_flag$[rbp]
	mov	edx, 4
	mov	rcx, QWORD PTR mp4$[rbp]
	call	?minimp4_read@@YAIPEAUMP4D_demux_tag@@HPEAH@Z ; minimp4_read
	mov	eax, eax
	mov	QWORD PTR box_bytes$3[rbp], rax

; 2727 : #endif
; 2728 :                 if (box_bytes < 16)

	cmp	QWORD PTR box_bytes$3[rbp], 16
	jae	SHORT $LN67@MP4D_open

; 2729 :                 {
; 2730 :                     ERROR("invalid box size (broken file?)");

	cmp	DWORD PTR depth$[rbp], 0
	jne	SHORT $LN68@MP4D_open
	jmp	$LN3@MP4D_open
	jmp	SHORT $LN69@MP4D_open
$LN68@MP4D_open:
	mov	rcx, QWORD PTR mp4$[rbp]
	call	MP4D_close
	xor	eax, eax
	jmp	$LN1@MP4D_open
$LN69@MP4D_open:
$LN67@MP4D_open:

; 2731 :                 }
; 2732 :                 payload_bytes = box_bytes - 16;

	mov	rax, QWORD PTR box_bytes$3[rbp]
	sub	rax, 16
	mov	QWORD PTR payload_bytes$2[rbp], rax
$LN63@MP4D_open:

; 2733 :             }
; 2734 : 
; 2735 :             // Read and check box version for some boxes
; 2736 :             for (i = 0; i < NELEM(g_fullbox); i++)

	mov	DWORD PTR i$[rbp], 0
	jmp	SHORT $LN7@MP4D_open
$LN5@MP4D_open:
	mov	eax, DWORD PTR i$[rbp]
	inc	eax
	mov	DWORD PTR i$[rbp], eax
$LN7@MP4D_open:
	mov	eax, DWORD PTR i$[rbp]
	cmp	rax, 13
	jae	$LN6@MP4D_open

; 2737 :             {
; 2738 :                 if (box_name == g_fullbox[i].name)

	mov	eax, DWORD PTR i$[rbp]
	imul	rax, rax, 12
	lea	rcx, OFFSET FLAT:?g_fullbox@?6??MP4D_open@@9@4QBU<unnamed-type-g_fullbox>@?6??1@YAHPEAUMP4D_demux_tag@@P6AH_JPEAX_K2@Z21@Z@B
	mov	eax, DWORD PTR [rcx+rax]
	cmp	DWORD PTR box_name$4[rbp], eax
	jne	$LN70@MP4D_open

; 2739 :                 {
; 2740 :                     FullAtomVersionAndFlags = READ(4);

	lea	r9, QWORD PTR eof_flag$[rbp]
	lea	r8, QWORD PTR payload_bytes$2[rbp]
	mov	edx, 4
	mov	rcx, QWORD PTR mp4$[rbp]
	call	?read_payload@@YAIPEAUMP4D_demux_tag@@IPEA_KPEAH@Z ; read_payload
	mov	DWORD PTR FullAtomVersionAndFlags$1[rbp], eax

; 2741 :                     read_bytes += 4;

	mov	eax, DWORD PTR read_bytes$6[rbp]
	add	eax, 4
	mov	DWORD PTR read_bytes$6[rbp], eax

; 2742 : 
; 2743 : #if FIX_BAD_ANDROID_META_BOX
; 2744 :                     // Fix invalid BOX_meta, found in some Android-produced MP4
; 2745 :                     // This branch is optional: bad box would be skipped
; 2746 :                     if (box_name == BOX_meta)

	cmp	DWORD PTR box_name$4[rbp], 1835365473	; 6d657461H
	jne	$LN71@MP4D_open

; 2747 :                     {
; 2748 :                         if (FullAtomVersionAndFlags >= 8 && FullAtomVersionAndFlags < payload_bytes)

	cmp	DWORD PTR FullAtomVersionAndFlags$1[rbp], 8
	jb	$LN72@MP4D_open
	mov	eax, DWORD PTR FullAtomVersionAndFlags$1[rbp]
	cmp	rax, QWORD PTR payload_bytes$2[rbp]
	jae	$LN72@MP4D_open

; 2749 :                         {
; 2750 :                             if (box_bytes > stack[depth].bytes)

	movsxd	rax, DWORD PTR depth$[rbp]
	imul	rax, rax, 16
	mov	rax, QWORD PTR stack$[rbp+rax]
	cmp	QWORD PTR box_bytes$3[rbp], rax
	jbe	SHORT $LN73@MP4D_open

; 2751 :                             {
; 2752 :                                 ERROR("broken file structure!");

	cmp	DWORD PTR depth$[rbp], 0
	jne	SHORT $LN74@MP4D_open
	jmp	$LN6@MP4D_open
	jmp	SHORT $LN75@MP4D_open
$LN74@MP4D_open:
	mov	rcx, QWORD PTR mp4$[rbp]
	call	MP4D_close
	xor	eax, eax
	jmp	$LN1@MP4D_open
$LN75@MP4D_open:
$LN73@MP4D_open:

; 2753 :                             }
; 2754 :                             stack[depth].bytes -= box_bytes;;

	movsxd	rax, DWORD PTR depth$[rbp]
	imul	rax, rax, 16
	mov	rcx, QWORD PTR box_bytes$3[rbp]
	mov	rax, QWORD PTR stack$[rbp+rax]
	sub	rax, rcx
	movsxd	rcx, DWORD PTR depth$[rbp]
	imul	rcx, rcx, 16
	mov	QWORD PTR stack$[rbp+rcx], rax

; 2755 :                             depth++;

	mov	eax, DWORD PTR depth$[rbp]
	inc	eax
	mov	DWORD PTR depth$[rbp], eax

; 2756 :                             stack[depth].bytes = payload_bytes + 4; // +4 need for missing header

	mov	rax, QWORD PTR payload_bytes$2[rbp]
	add	rax, 4
	movsxd	rcx, DWORD PTR depth$[rbp]
	imul	rcx, rcx, 16
	mov	QWORD PTR stack$[rbp+rcx], rax

; 2757 :                             stack[depth].format = BOX_ATOM;

	movsxd	rax, DWORD PTR depth$[rbp]
	imul	rax, rax, 16
	mov	DWORD PTR stack$[rbp+rax+8], 0

; 2758 :                             box_bytes = FullAtomVersionAndFlags;

	mov	eax, DWORD PTR FullAtomVersionAndFlags$1[rbp]
	mov	QWORD PTR box_bytes$3[rbp], rax

; 2759 :                             TRACE(("Bad metadata box detected (Android bug?)!\n"));
; 2760 :                             goto broken_android_meta_hack;

	jmp	$broken_android_meta_hack$244
$LN72@MP4D_open:
$LN71@MP4D_open:

; 2761 :                         }
; 2762 :                     }
; 2763 : #endif // FIX_BAD_ANDROID_META_BOX
; 2764 : 
; 2765 :                     if ((FullAtomVersionAndFlags >> 24) > g_fullbox[i].max_version)

	mov	eax, DWORD PTR FullAtomVersionAndFlags$1[rbp]
	shr	eax, 24
	mov	ecx, DWORD PTR i$[rbp]
	imul	rcx, rcx, 12
	lea	rdx, OFFSET FLAT:?g_fullbox@?6??MP4D_open@@9@4QBU<unnamed-type-g_fullbox>@?6??1@YAHPEAUMP4D_demux_tag@@P6AH_JPEAX_K2@Z21@Z@B
	cmp	eax, DWORD PTR [rdx+rcx+4]
	jbe	SHORT $LN76@MP4D_open

; 2766 :                     {
; 2767 :                         ERROR("unsupported box version!");

	cmp	DWORD PTR depth$[rbp], 0
	jne	SHORT $LN77@MP4D_open
	jmp	SHORT $LN6@MP4D_open
	jmp	SHORT $LN78@MP4D_open
$LN77@MP4D_open:
	mov	rcx, QWORD PTR mp4$[rbp]
	call	MP4D_close
	xor	eax, eax
	jmp	$LN1@MP4D_open
$LN78@MP4D_open:
$LN76@MP4D_open:

; 2768 :                     }
; 2769 :                     if (g_fullbox[i].use_track_flag && !tr)

	mov	eax, DWORD PTR i$[rbp]
	imul	rax, rax, 12
	lea	rcx, OFFSET FLAT:?g_fullbox@?6??MP4D_open@@9@4QBU<unnamed-type-g_fullbox>@?6??1@YAHPEAUMP4D_demux_tag@@P6AH_JPEAX_K2@Z21@Z@B
	cmp	DWORD PTR [rcx+rax+8], 0
	je	SHORT $LN79@MP4D_open
	cmp	QWORD PTR tr$[rbp], 0
	jne	SHORT $LN79@MP4D_open

; 2770 :                     {
; 2771 :                         ERROR("broken file structure!");

	cmp	DWORD PTR depth$[rbp], 0
	jne	SHORT $LN80@MP4D_open
	jmp	SHORT $LN6@MP4D_open
	jmp	SHORT $LN81@MP4D_open
$LN80@MP4D_open:
	mov	rcx, QWORD PTR mp4$[rbp]
	call	MP4D_close
	xor	eax, eax
	jmp	$LN1@MP4D_open
$LN81@MP4D_open:
$LN79@MP4D_open:
$LN70@MP4D_open:

; 2772 :                     }
; 2773 :                 }
; 2774 :             }

	jmp	$LN5@MP4D_open
$LN6@MP4D_open:

; 2775 :         }

	jmp	$LN56@MP4D_open
$LN55@MP4D_open:

; 2776 :         else // stack[depth].format == BOX_OD
; 2777 :         {
; 2778 :             int val;
; 2779 :             box_name = OD_BASE + minimp4_read(mp4, 1, &eof_flag);     // 1-byte box type

	lea	r8, QWORD PTR eof_flag$[rbp]
	mov	edx, 1
	mov	rcx, QWORD PTR mp4$[rbp]
	call	?minimp4_read@@YAIPEAUMP4D_demux_tag@@HPEAH@Z ; minimp4_read
	add	eax, 606348336				; 24242430H
	mov	DWORD PTR box_name$4[rbp], eax

; 2780 :             read_bytes += 1;

	mov	eax, DWORD PTR read_bytes$6[rbp]
	inc	eax
	mov	DWORD PTR read_bytes$6[rbp], eax

; 2781 :             if (eof_flag)

	cmp	DWORD PTR eof_flag$[rbp], 0
	je	SHORT $LN82@MP4D_open

; 2782 :                 break;

	jmp	$LN3@MP4D_open
$LN82@MP4D_open:

; 2783 : 
; 2784 :             payload_bytes = 0;

	mov	QWORD PTR payload_bytes$2[rbp], 0

; 2785 :             box_bytes = 1;

	mov	QWORD PTR box_bytes$3[rbp], 1
$LN10@MP4D_open:

; 2786 :             do
; 2787 :             {
; 2788 :                 val = minimp4_read(mp4, 1, &eof_flag);

	lea	r8, QWORD PTR eof_flag$[rbp]
	mov	edx, 1
	mov	rcx, QWORD PTR mp4$[rbp]
	call	?minimp4_read@@YAIPEAUMP4D_demux_tag@@HPEAH@Z ; minimp4_read
	mov	DWORD PTR val$7[rbp], eax

; 2789 :                 read_bytes += 1;

	mov	eax, DWORD PTR read_bytes$6[rbp]
	inc	eax
	mov	DWORD PTR read_bytes$6[rbp], eax

; 2790 :                 if (eof_flag)

	cmp	DWORD PTR eof_flag$[rbp], 0
	je	SHORT $LN83@MP4D_open

; 2791 :                 {
; 2792 :                     ERROR("premature EOF!");

	cmp	DWORD PTR depth$[rbp], 0
	jne	SHORT $LN84@MP4D_open
	jmp	SHORT $LN9@MP4D_open
	jmp	SHORT $LN85@MP4D_open
$LN84@MP4D_open:
	mov	rcx, QWORD PTR mp4$[rbp]
	call	MP4D_close
	xor	eax, eax
	jmp	$LN1@MP4D_open
$LN85@MP4D_open:
$LN83@MP4D_open:

; 2793 :                 }
; 2794 :                 payload_bytes = (payload_bytes << 7) | (val & 0x7F);

	mov	rax, QWORD PTR payload_bytes$2[rbp]
	shl	rax, 7
	mov	ecx, DWORD PTR val$7[rbp]
	and	ecx, 127				; 0000007fH
	movsxd	rcx, ecx
	or	rax, rcx
	mov	QWORD PTR payload_bytes$2[rbp], rax

; 2795 :                 box_bytes++;

	mov	rax, QWORD PTR box_bytes$3[rbp]
	inc	rax
	mov	QWORD PTR box_bytes$3[rbp], rax

; 2796 :             } while (val & 0x80);

	mov	eax, DWORD PTR val$7[rbp]
	and	eax, 128				; 00000080H
	test	eax, eax
	jne	$LN10@MP4D_open
$LN9@MP4D_open:

; 2797 :             box_bytes += payload_bytes;

	mov	rax, QWORD PTR payload_bytes$2[rbp]
	mov	rcx, QWORD PTR box_bytes$3[rbp]
	add	rcx, rax
	mov	rax, rcx
	mov	QWORD PTR box_bytes$3[rbp], rax
$LN56@MP4D_open:

; 2798 :         }
; 2799 : 
; 2800 : #if MP4D_TRACE_SUPPORTED
; 2801 :         box_path[depth] = (box_name >> 24) | (box_name << 24) | ((box_name >> 8) & 0x0000FF00) | ((box_name << 8) & 0x00FF0000);
; 2802 :         TRACE(("%2d  %8d %.*s  (%d bytes remains for sibilings) \n", depth, (int)box_bytes, depth * 4, (char*)box_path, (int)stack[depth].bytes));
; 2803 : #endif
; 2804 : 
; 2805 :         // Check that box size <= parent size
; 2806 :         if (depth)

	cmp	DWORD PTR depth$[rbp], 0
	je	$LN86@MP4D_open

; 2807 :         {
; 2808 :             // Skip box with bad size
; 2809 :             assert(box_bytes > 0);

	cmp	QWORD PTR box_bytes$3[rbp], 0
	jne	SHORT $LN185@MP4D_open
	mov	DWORD PTR tv236[rbp], 1
	jmp	SHORT $LN186@MP4D_open
$LN185@MP4D_open:
	mov	DWORD PTR tv236[rbp], 0
$LN186@MP4D_open:
	cmp	DWORD PTR tv236[rbp], 0
	jle	SHORT $LN87@MP4D_open
	call	abort
$LN87@MP4D_open:

; 2810 :             if (box_bytes > stack[depth].bytes)

	movsxd	rax, DWORD PTR depth$[rbp]
	imul	rax, rax, 16
	mov	rax, QWORD PTR stack$[rbp+rax]
	cmp	QWORD PTR box_bytes$3[rbp], rax
	jbe	SHORT $LN88@MP4D_open

; 2811 :             {
; 2812 :                 TRACE(("Wrong %c%c%c%c box size: broken file?\n", (box_name >> 24) & 255, (box_name >> 16) & 255, (box_name >> 8) & 255, box_name & 255));
; 2813 :                 box_bytes = stack[depth].bytes;

	movsxd	rax, DWORD PTR depth$[rbp]
	imul	rax, rax, 16
	mov	rax, QWORD PTR stack$[rbp+rax]
	mov	QWORD PTR box_bytes$3[rbp], rax

; 2814 :                 box_name = 0;

	mov	DWORD PTR box_name$4[rbp], 0

; 2815 :                 payload_bytes = box_bytes - read_bytes;

	movsxd	rax, DWORD PTR read_bytes$6[rbp]
	mov	rcx, QWORD PTR box_bytes$3[rbp]
	sub	rcx, rax
	mov	rax, rcx
	mov	QWORD PTR payload_bytes$2[rbp], rax
$LN88@MP4D_open:

; 2816 :             }
; 2817 :             stack[depth].bytes -= box_bytes;

	movsxd	rax, DWORD PTR depth$[rbp]
	imul	rax, rax, 16
	mov	rcx, QWORD PTR box_bytes$3[rbp]
	mov	rax, QWORD PTR stack$[rbp+rax]
	sub	rax, rcx
	movsxd	rcx, DWORD PTR depth$[rbp]
	imul	rcx, rcx, 16
	mov	QWORD PTR stack$[rbp+rcx], rax
$LN86@MP4D_open:

; 2818 :         }
; 2819 : 
; 2820 :         // Read box header
; 2821 :         switch (box_name)

	mov	eax, DWORD PTR box_name$4[rbp]
	mov	DWORD PTR tv258[rbp], eax
	cmp	DWORD PTR tv258[rbp], 1836476516	; 6d766864H
	ja	$LN233@MP4D_open
	cmp	DWORD PTR tv258[rbp], 1836476516	; 6d766864H
	je	$LN123@MP4D_open
	cmp	DWORD PTR tv258[rbp], 1668232756	; 636f3634H
	ja	$LN234@MP4D_open
	cmp	DWORD PTR tv258[rbp], 1668232756	; 636f3634H
	je	$LN115@MP4D_open
	cmp	DWORD PTR tv258[rbp], 1635148593	; 61766331H
	ja	SHORT $LN235@MP4D_open
	cmp	DWORD PTR tv258[rbp], 1635148593	; 61766331H
	je	$LN146@MP4D_open
	cmp	DWORD PTR tv258[rbp], 606348339		; 24242433H
	je	$LN153@MP4D_open
	cmp	DWORD PTR tv258[rbp], 606348340		; 24242434H
	je	$LN157@MP4D_open
	cmp	DWORD PTR tv258[rbp], 606348341		; 24242435H
	je	$LN159@MP4D_open
	jmp	$LN165@MP4D_open
$LN235@MP4D_open:
	cmp	DWORD PTR tv258[rbp], 1635148611	; 61766343H
	je	$LN151@MP4D_open
	cmp	DWORD PTR tv258[rbp], 1651798644	; 62747274H
	je	$LN127@MP4D_open
	jmp	$LN165@MP4D_open
$LN234@MP4D_open:
	cmp	DWORD PTR tv258[rbp], 1836069985	; 6d703461H
	ja	SHORT $LN236@MP4D_open
	cmp	DWORD PTR tv258[rbp], 1836069985	; 6d703461H
	je	$LN142@MP4D_open
	cmp	DWORD PTR tv258[rbp], 1668576371	; 63747473H
	je	$LN113@MP4D_open
	cmp	DWORD PTR tv258[rbp], 1751411826	; 68646c72H
	je	$LN125@MP4D_open
	cmp	DWORD PTR tv258[rbp], 1835296868	; 6d646864H
	je	$LN124@MP4D_open
	jmp	$LN165@MP4D_open
$LN236@MP4D_open:
	cmp	DWORD PTR tv258[rbp], 1836070003	; 6d703473H
	je	$LN138@MP4D_open
	cmp	DWORD PTR tv258[rbp], 1836070006	; 6d703476H
	je	$LN147@MP4D_open
	jmp	$LN165@MP4D_open
$LN233@MP4D_open:
	cmp	DWORD PTR tv258[rbp], -1455336876	; a9415254H
	ja	$LN237@MP4D_open
	cmp	DWORD PTR tv258[rbp], -1455336876	; a9415254H
	je	$LN132@MP4D_open
	cmp	DWORD PTR tv258[rbp], 1937011578	; 7374737aH
	ja	SHORT $LN238@MP4D_open
	cmp	DWORD PTR tv258[rbp], 1937011578	; 7374737aH
	je	$LN90@MP4D_open
	cmp	DWORD PTR tv258[rbp], 1937007471	; 7374636fH
	je	$LN114@MP4D_open
	cmp	DWORD PTR tv258[rbp], 1937011555	; 73747363H
	je	$LN101@MP4D_open
	cmp	DWORD PTR tv258[rbp], 1937011556	; 73747364H
	je	$LN137@MP4D_open
	jmp	$LN165@MP4D_open
$LN238@MP4D_open:
	cmp	DWORD PTR tv258[rbp], 1937011827	; 73747473H
	je	$LN105@MP4D_open
	cmp	DWORD PTR tv258[rbp], 1937013298	; 73747a32H
	je	SHORT $LN89@MP4D_open
	jmp	$LN165@MP4D_open
$LN237@MP4D_open:
	cmp	DWORD PTR tv258[rbp], -1453233054	; a9616c62H
	je	$LN131@MP4D_open
	cmp	DWORD PTR tv258[rbp], -1453101708	; a9636d74H
	je	$LN135@MP4D_open
	cmp	DWORD PTR tv258[rbp], -1453039239	; a9646179H
	je	$LN134@MP4D_open
	cmp	DWORD PTR tv258[rbp], -1452841618	; a967656eH
	je	$LN136@MP4D_open
	cmp	DWORD PTR tv258[rbp], -1452383891	; a96e616dH
	je	$LN133@MP4D_open
	jmp	$LN165@MP4D_open
$LN89@MP4D_open:
$LN90@MP4D_open:

; 2822 :         {
; 2823 :         case BOX_stz2:  //ISO/IEC 14496-1 Page 38. Section 8.17.2 - Sample Size Box.
; 2824 :         case BOX_stsz:
; 2825 :         {
; 2826 :             int size = 0;

	mov	DWORD PTR size$8[rbp], 0

; 2827 :             uint32_t sample_size = READ(4);

	lea	r9, QWORD PTR eof_flag$[rbp]
	lea	r8, QWORD PTR payload_bytes$2[rbp]
	mov	edx, 4
	mov	rcx, QWORD PTR mp4$[rbp]
	call	?read_payload@@YAIPEAUMP4D_demux_tag@@IPEA_KPEAH@Z ; read_payload
	mov	DWORD PTR sample_size$9[rbp], eax

; 2828 :             tr->sample_count = READ(4);

	lea	r9, QWORD PTR eof_flag$[rbp]
	lea	r8, QWORD PTR payload_bytes$2[rbp]
	mov	edx, 4
	mov	rcx, QWORD PTR mp4$[rbp]
	call	?read_payload@@YAIPEAUMP4D_demux_tag@@IPEA_KPEAH@Z ; read_payload
	mov	rcx, QWORD PTR tr$[rbp]
	mov	DWORD PTR [rcx], eax

; 2829 :             MALLOC(unsigned int*, tr->entry_size, tr->sample_count * 4);

	mov	rax, QWORD PTR tr$[rbp]
	mov	eax, DWORD PTR [rax]
	shl	eax, 2
	mov	ecx, eax
	call	malloc
	mov	rcx, QWORD PTR tr$[rbp]
	mov	QWORD PTR [rcx+64], rax
	mov	rax, QWORD PTR tr$[rbp]
	cmp	QWORD PTR [rax+64], 0
	jne	SHORT $LN91@MP4D_open
	cmp	DWORD PTR depth$[rbp], 0
	jne	SHORT $LN92@MP4D_open
	jmp	$LN11@MP4D_open
	jmp	SHORT $LN93@MP4D_open
$LN92@MP4D_open:
	mov	rcx, QWORD PTR mp4$[rbp]
	call	MP4D_close
	xor	eax, eax
	jmp	$LN1@MP4D_open
$LN93@MP4D_open:
$LN91@MP4D_open:

; 2830 :             for (i = 0; i < tr->sample_count; i++)

	mov	DWORD PTR i$[rbp], 0
	jmp	SHORT $LN15@MP4D_open
$LN13@MP4D_open:
	mov	eax, DWORD PTR i$[rbp]
	inc	eax
	mov	DWORD PTR i$[rbp], eax
$LN15@MP4D_open:
	mov	rax, QWORD PTR tr$[rbp]
	mov	eax, DWORD PTR [rax]
	cmp	DWORD PTR i$[rbp], eax
	jae	$LN14@MP4D_open

; 2831 :             {
; 2832 :                 if (box_name == BOX_stsz)

	cmp	DWORD PTR box_name$4[rbp], 1937011578	; 7374737aH
	jne	SHORT $LN94@MP4D_open

; 2833 :                 {
; 2834 :                     tr->entry_size[i] = (sample_size ? sample_size : READ(4));

	cmp	DWORD PTR sample_size$9[rbp], 0
	je	SHORT $LN187@MP4D_open
	mov	eax, DWORD PTR sample_size$9[rbp]
	mov	DWORD PTR tv293[rbp], eax
	jmp	SHORT $LN188@MP4D_open
$LN187@MP4D_open:
	lea	r9, QWORD PTR eof_flag$[rbp]
	lea	r8, QWORD PTR payload_bytes$2[rbp]
	mov	edx, 4
	mov	rcx, QWORD PTR mp4$[rbp]
	call	?read_payload@@YAIPEAUMP4D_demux_tag@@IPEA_KPEAH@Z ; read_payload
	mov	DWORD PTR tv293[rbp], eax
$LN188@MP4D_open:
	mov	eax, DWORD PTR i$[rbp]
	mov	rcx, QWORD PTR tr$[rbp]
	mov	rcx, QWORD PTR [rcx+64]
	mov	edx, DWORD PTR tv293[rbp]
	mov	DWORD PTR [rcx+rax*4], edx

; 2835 :                 }

	jmp	$LN95@MP4D_open
$LN94@MP4D_open:

; 2836 :                 else
; 2837 :                 {
; 2838 :                     switch (sample_size & 0xFF)

	mov	eax, DWORD PTR sample_size$9[rbp]
	and	eax, 255				; 000000ffH
	mov	DWORD PTR tv295[rbp], eax
	cmp	DWORD PTR tv295[rbp], 4
	je	$LN98@MP4D_open
	cmp	DWORD PTR tv295[rbp], 8
	je	SHORT $LN97@MP4D_open
	cmp	DWORD PTR tv295[rbp], 16
	je	SHORT $LN96@MP4D_open
	jmp	$LN16@MP4D_open
$LN96@MP4D_open:

; 2839 :                     {
; 2840 :                     case 16:
; 2841 :                         tr->entry_size[i] = READ(2);

	lea	r9, QWORD PTR eof_flag$[rbp]
	lea	r8, QWORD PTR payload_bytes$2[rbp]
	mov	edx, 2
	mov	rcx, QWORD PTR mp4$[rbp]
	call	?read_payload@@YAIPEAUMP4D_demux_tag@@IPEA_KPEAH@Z ; read_payload
	mov	ecx, DWORD PTR i$[rbp]
	mov	rdx, QWORD PTR tr$[rbp]
	mov	rdx, QWORD PTR [rdx+64]
	mov	DWORD PTR [rdx+rcx*4], eax

; 2842 :                         break;

	jmp	$LN16@MP4D_open
$LN97@MP4D_open:

; 2843 :                     case  8:
; 2844 :                         tr->entry_size[i] = READ(1);

	lea	r9, QWORD PTR eof_flag$[rbp]
	lea	r8, QWORD PTR payload_bytes$2[rbp]
	mov	edx, 1
	mov	rcx, QWORD PTR mp4$[rbp]
	call	?read_payload@@YAIPEAUMP4D_demux_tag@@IPEA_KPEAH@Z ; read_payload
	mov	ecx, DWORD PTR i$[rbp]
	mov	rdx, QWORD PTR tr$[rbp]
	mov	rdx, QWORD PTR [rdx+64]
	mov	DWORD PTR [rdx+rcx*4], eax

; 2845 :                         break;

	jmp	SHORT $LN16@MP4D_open
$LN98@MP4D_open:

; 2846 :                     case  4:
; 2847 :                         if (i & 1)

	mov	eax, DWORD PTR i$[rbp]
	and	eax, 1
	test	eax, eax
	je	SHORT $LN99@MP4D_open

; 2848 :                         {
; 2849 :                             tr->entry_size[i] = size & 15;

	mov	eax, DWORD PTR size$8[rbp]
	and	eax, 15
	mov	ecx, DWORD PTR i$[rbp]
	mov	rdx, QWORD PTR tr$[rbp]
	mov	rdx, QWORD PTR [rdx+64]
	mov	DWORD PTR [rdx+rcx*4], eax

; 2850 :                         }

	jmp	SHORT $LN100@MP4D_open
$LN99@MP4D_open:

; 2851 :                         else
; 2852 :                         {
; 2853 :                             size = READ(1);

	lea	r9, QWORD PTR eof_flag$[rbp]
	lea	r8, QWORD PTR payload_bytes$2[rbp]
	mov	edx, 1
	mov	rcx, QWORD PTR mp4$[rbp]
	call	?read_payload@@YAIPEAUMP4D_demux_tag@@IPEA_KPEAH@Z ; read_payload
	mov	DWORD PTR size$8[rbp], eax

; 2854 :                             tr->entry_size[i] = (size >> 4);

	mov	eax, DWORD PTR size$8[rbp]
	sar	eax, 4
	mov	ecx, DWORD PTR i$[rbp]
	mov	rdx, QWORD PTR tr$[rbp]
	mov	rdx, QWORD PTR [rdx+64]
	mov	DWORD PTR [rdx+rcx*4], eax
$LN100@MP4D_open:
$LN16@MP4D_open:
$LN95@MP4D_open:

; 2855 :                         }
; 2856 :                         break;
; 2857 :                     }
; 2858 :                 }
; 2859 :             }

	jmp	$LN13@MP4D_open
$LN14@MP4D_open:

; 2860 :         }
; 2861 :         break;

	jmp	$LN11@MP4D_open
$LN101@MP4D_open:

; 2862 : 
; 2863 :         case BOX_stsc:  //ISO/IEC 14496-12 Page 38. Section 8.18 - Sample To Chunk Box.
; 2864 :             tr->sample_to_chunk_count = READ(4);

	lea	r9, QWORD PTR eof_flag$[rbp]
	lea	r8, QWORD PTR payload_bytes$2[rbp]
	mov	edx, 4
	mov	rcx, QWORD PTR mp4$[rbp]
	call	?read_payload@@YAIPEAUMP4D_demux_tag@@IPEA_KPEAH@Z ; read_payload
	mov	rcx, QWORD PTR tr$[rbp]
	mov	DWORD PTR [rcx+72], eax

; 2865 :             MALLOC(MP4D_sample_to_chunk_t*, tr->sample_to_chunk, tr->sample_to_chunk_count * sizeof(tr->sample_to_chunk[0]));

	mov	rax, QWORD PTR tr$[rbp]
	mov	eax, DWORD PTR [rax+72]
	shl	rax, 3
	mov	ecx, eax
	call	malloc
	mov	rcx, QWORD PTR tr$[rbp]
	mov	QWORD PTR [rcx+80], rax
	mov	rax, QWORD PTR tr$[rbp]
	cmp	QWORD PTR [rax+80], 0
	jne	SHORT $LN102@MP4D_open
	cmp	DWORD PTR depth$[rbp], 0
	jne	SHORT $LN103@MP4D_open
	jmp	$LN11@MP4D_open
	jmp	SHORT $LN104@MP4D_open
$LN103@MP4D_open:
	mov	rcx, QWORD PTR mp4$[rbp]
	call	MP4D_close
	xor	eax, eax
	jmp	$LN1@MP4D_open
$LN104@MP4D_open:
$LN102@MP4D_open:

; 2866 :             for (i = 0; i < tr->sample_to_chunk_count; i++)

	mov	DWORD PTR i$[rbp], 0
	jmp	SHORT $LN20@MP4D_open
$LN18@MP4D_open:
	mov	eax, DWORD PTR i$[rbp]
	inc	eax
	mov	DWORD PTR i$[rbp], eax
$LN20@MP4D_open:
	mov	rax, QWORD PTR tr$[rbp]
	mov	eax, DWORD PTR [rax+72]
	cmp	DWORD PTR i$[rbp], eax
	jae	$LN19@MP4D_open

; 2867 :             {
; 2868 :                 tr->sample_to_chunk[i].first_chunk = READ(4);

	lea	r9, QWORD PTR eof_flag$[rbp]
	lea	r8, QWORD PTR payload_bytes$2[rbp]
	mov	edx, 4
	mov	rcx, QWORD PTR mp4$[rbp]
	call	?read_payload@@YAIPEAUMP4D_demux_tag@@IPEA_KPEAH@Z ; read_payload
	mov	ecx, DWORD PTR i$[rbp]
	mov	rdx, QWORD PTR tr$[rbp]
	mov	rdx, QWORD PTR [rdx+80]
	mov	DWORD PTR [rdx+rcx*8], eax

; 2869 :                 tr->sample_to_chunk[i].samples_per_chunk = READ(4);

	lea	r9, QWORD PTR eof_flag$[rbp]
	lea	r8, QWORD PTR payload_bytes$2[rbp]
	mov	edx, 4
	mov	rcx, QWORD PTR mp4$[rbp]
	call	?read_payload@@YAIPEAUMP4D_demux_tag@@IPEA_KPEAH@Z ; read_payload
	mov	ecx, DWORD PTR i$[rbp]
	mov	rdx, QWORD PTR tr$[rbp]
	mov	rdx, QWORD PTR [rdx+80]
	mov	DWORD PTR [rdx+rcx*8+4], eax

; 2870 :                 SKIP(4);    // sample_description_index

	cmp	QWORD PTR payload_bytes$2[rbp], 4
	jae	SHORT $LN189@MP4D_open
	mov	rax, QWORD PTR payload_bytes$2[rbp]
	mov	QWORD PTR tv375[rbp], rax
	jmp	SHORT $LN190@MP4D_open
$LN189@MP4D_open:
	mov	QWORD PTR tv375[rbp], 4
$LN190@MP4D_open:
	mov	rax, QWORD PTR tv375[rbp]
	mov	QWORD PTR t$10[rbp], rax
	lea	r8, QWORD PTR eof_flag$[rbp]
	mov	rdx, QWORD PTR t$10[rbp]
	mov	rcx, QWORD PTR mp4$[rbp]
	call	?my_fseek@@YAXPEAUMP4D_demux_tag@@_KPEAH@Z ; my_fseek
	mov	rax, QWORD PTR t$10[rbp]
	mov	rcx, QWORD PTR payload_bytes$2[rbp]
	sub	rcx, rax
	mov	rax, rcx
	mov	QWORD PTR payload_bytes$2[rbp], rax

; 2871 :             }

	jmp	$LN18@MP4D_open
$LN19@MP4D_open:

; 2872 :             break;

	jmp	$LN11@MP4D_open
$LN105@MP4D_open:

; 2873 : #if MP4D_TRACE_TIMESTAMPS || MP4D_TIMESTAMPS_SUPPORTED
; 2874 :         case BOX_stts:
; 2875 :         {
; 2876 :             unsigned count = READ(4);

	lea	r9, QWORD PTR eof_flag$[rbp]
	lea	r8, QWORD PTR payload_bytes$2[rbp]
	mov	edx, 4
	mov	rcx, QWORD PTR mp4$[rbp]
	call	?read_payload@@YAIPEAUMP4D_demux_tag@@IPEA_KPEAH@Z ; read_payload
	mov	DWORD PTR count$11[rbp], eax

; 2877 :             unsigned j, k = 0, ts = 0, ts_count = count;

	mov	DWORD PTR k$13[rbp], 0
	mov	DWORD PTR ts$14[rbp], 0
	mov	eax, DWORD PTR count$11[rbp]
	mov	DWORD PTR ts_count$15[rbp], eax

; 2878 : #if MP4D_TIMESTAMPS_SUPPORTED
; 2879 :             MALLOC(unsigned int*, tr->timestamp, ts_count * 4);

	mov	eax, DWORD PTR ts_count$15[rbp]
	shl	eax, 2
	mov	ecx, eax
	call	malloc
	mov	rcx, QWORD PTR tr$[rbp]
	mov	QWORD PTR [rcx+104], rax
	mov	rax, QWORD PTR tr$[rbp]
	cmp	QWORD PTR [rax+104], 0
	jne	SHORT $LN106@MP4D_open
	cmp	DWORD PTR depth$[rbp], 0
	jne	SHORT $LN107@MP4D_open
	jmp	$LN11@MP4D_open
	jmp	SHORT $LN108@MP4D_open
$LN107@MP4D_open:
	mov	rcx, QWORD PTR mp4$[rbp]
	call	MP4D_close
	xor	eax, eax
	jmp	$LN1@MP4D_open
$LN108@MP4D_open:
$LN106@MP4D_open:

; 2880 :             MALLOC(unsigned int*, tr->duration, ts_count * 4);

	mov	eax, DWORD PTR ts_count$15[rbp]
	shl	eax, 2
	mov	ecx, eax
	call	malloc
	mov	rcx, QWORD PTR tr$[rbp]
	mov	QWORD PTR [rcx+112], rax
	mov	rax, QWORD PTR tr$[rbp]
	cmp	QWORD PTR [rax+112], 0
	jne	SHORT $LN109@MP4D_open
	cmp	DWORD PTR depth$[rbp], 0
	jne	SHORT $LN110@MP4D_open
	jmp	$LN11@MP4D_open
	jmp	SHORT $LN111@MP4D_open
$LN110@MP4D_open:
	mov	rcx, QWORD PTR mp4$[rbp]
	call	MP4D_close
	xor	eax, eax
	jmp	$LN1@MP4D_open
$LN111@MP4D_open:
$LN109@MP4D_open:

; 2881 : #endif
; 2882 : 
; 2883 :             for (i = 0; i < count; i++)

	mov	DWORD PTR i$[rbp], 0
	jmp	SHORT $LN23@MP4D_open
$LN21@MP4D_open:
	mov	eax, DWORD PTR i$[rbp]
	inc	eax
	mov	DWORD PTR i$[rbp], eax
$LN23@MP4D_open:
	mov	eax, DWORD PTR count$11[rbp]
	cmp	DWORD PTR i$[rbp], eax
	jae	$LN22@MP4D_open

; 2884 :             {
; 2885 :                 unsigned sc = READ(4);

	lea	r9, QWORD PTR eof_flag$[rbp]
	lea	r8, QWORD PTR payload_bytes$2[rbp]
	mov	edx, 4
	mov	rcx, QWORD PTR mp4$[rbp]
	call	?read_payload@@YAIPEAUMP4D_demux_tag@@IPEA_KPEAH@Z ; read_payload
	mov	DWORD PTR sc$16[rbp], eax

; 2886 :                 int d = READ(4);

	lea	r9, QWORD PTR eof_flag$[rbp]
	lea	r8, QWORD PTR payload_bytes$2[rbp]
	mov	edx, 4
	mov	rcx, QWORD PTR mp4$[rbp]
	call	?read_payload@@YAIPEAUMP4D_demux_tag@@IPEA_KPEAH@Z ; read_payload
	mov	DWORD PTR d$17[rbp], eax

; 2887 :                 TRACE(("sample %8d count %8d duration %8d\n", i, sc, d));
; 2888 : #if MP4D_TIMESTAMPS_SUPPORTED
; 2889 :                 if (k + sc > ts_count)

	mov	eax, DWORD PTR sc$16[rbp]
	mov	ecx, DWORD PTR k$13[rbp]
	add	ecx, eax
	mov	eax, ecx
	cmp	eax, DWORD PTR ts_count$15[rbp]
	jbe	SHORT $LN112@MP4D_open

; 2890 :                 {
; 2891 :                     ts_count = k + sc;

	mov	eax, DWORD PTR sc$16[rbp]
	mov	ecx, DWORD PTR k$13[rbp]
	add	ecx, eax
	mov	eax, ecx
	mov	DWORD PTR ts_count$15[rbp], eax

; 2892 :                     tr->timestamp = (unsigned int*)realloc(tr->timestamp, ts_count * sizeof(unsigned));

	mov	eax, DWORD PTR ts_count$15[rbp]
	shl	rax, 2
	mov	edx, eax
	mov	rax, QWORD PTR tr$[rbp]
	mov	rcx, QWORD PTR [rax+104]
	call	realloc
	mov	rcx, QWORD PTR tr$[rbp]
	mov	QWORD PTR [rcx+104], rax

; 2893 :                     tr->duration = (unsigned int*)realloc(tr->duration, ts_count * sizeof(unsigned));

	mov	eax, DWORD PTR ts_count$15[rbp]
	shl	rax, 2
	mov	edx, eax
	mov	rax, QWORD PTR tr$[rbp]
	mov	rcx, QWORD PTR [rax+112]
	call	realloc
	mov	rcx, QWORD PTR tr$[rbp]
	mov	QWORD PTR [rcx+112], rax
$LN112@MP4D_open:

; 2894 :                 }
; 2895 :                 for (j = 0; j < sc; j++)

	mov	DWORD PTR j$12[rbp], 0
	jmp	SHORT $LN26@MP4D_open
$LN24@MP4D_open:
	mov	eax, DWORD PTR j$12[rbp]
	inc	eax
	mov	DWORD PTR j$12[rbp], eax
$LN26@MP4D_open:
	mov	eax, DWORD PTR sc$16[rbp]
	cmp	DWORD PTR j$12[rbp], eax
	jae	SHORT $LN25@MP4D_open

; 2896 :                 {
; 2897 :                     tr->duration[k] = d;

	mov	eax, DWORD PTR k$13[rbp]
	mov	rcx, QWORD PTR tr$[rbp]
	mov	rcx, QWORD PTR [rcx+112]
	mov	edx, DWORD PTR d$17[rbp]
	mov	DWORD PTR [rcx+rax*4], edx

; 2898 :                     tr->timestamp[k++] = ts;

	mov	eax, DWORD PTR k$13[rbp]
	mov	rcx, QWORD PTR tr$[rbp]
	mov	rcx, QWORD PTR [rcx+104]
	mov	edx, DWORD PTR ts$14[rbp]
	mov	DWORD PTR [rcx+rax*4], edx
	mov	eax, DWORD PTR k$13[rbp]
	inc	eax
	mov	DWORD PTR k$13[rbp], eax

; 2899 :                     ts += d;

	mov	eax, DWORD PTR d$17[rbp]
	mov	ecx, DWORD PTR ts$14[rbp]
	add	ecx, eax
	mov	eax, ecx
	mov	DWORD PTR ts$14[rbp], eax

; 2900 :                 }

	jmp	SHORT $LN24@MP4D_open
$LN25@MP4D_open:

; 2901 : #endif
; 2902 :             }

	jmp	$LN21@MP4D_open
$LN22@MP4D_open:

; 2903 :         }
; 2904 :         break;

	jmp	$LN11@MP4D_open
$LN113@MP4D_open:

; 2905 :         case BOX_ctts:
; 2906 :         {
; 2907 :             unsigned count = READ(4);

	lea	r9, QWORD PTR eof_flag$[rbp]
	lea	r8, QWORD PTR payload_bytes$2[rbp]
	mov	edx, 4
	mov	rcx, QWORD PTR mp4$[rbp]
	call	?read_payload@@YAIPEAUMP4D_demux_tag@@IPEA_KPEAH@Z ; read_payload
	mov	DWORD PTR count$18[rbp], eax

; 2908 :             for (i = 0; i < count; i++)

	mov	DWORD PTR i$[rbp], 0
	jmp	SHORT $LN29@MP4D_open
$LN27@MP4D_open:
	mov	eax, DWORD PTR i$[rbp]
	inc	eax
	mov	DWORD PTR i$[rbp], eax
$LN29@MP4D_open:
	mov	eax, DWORD PTR count$18[rbp]
	cmp	DWORD PTR i$[rbp], eax
	jae	SHORT $LN28@MP4D_open

; 2909 :             {
; 2910 :                 int sc = READ(4);

	lea	r9, QWORD PTR eof_flag$[rbp]
	lea	r8, QWORD PTR payload_bytes$2[rbp]
	mov	edx, 4
	mov	rcx, QWORD PTR mp4$[rbp]
	call	?read_payload@@YAIPEAUMP4D_demux_tag@@IPEA_KPEAH@Z ; read_payload
	mov	DWORD PTR sc$19[rbp], eax

; 2911 :                 int d = READ(4);

	lea	r9, QWORD PTR eof_flag$[rbp]
	lea	r8, QWORD PTR payload_bytes$2[rbp]
	mov	edx, 4
	mov	rcx, QWORD PTR mp4$[rbp]
	call	?read_payload@@YAIPEAUMP4D_demux_tag@@IPEA_KPEAH@Z ; read_payload
	mov	DWORD PTR d$20[rbp], eax

; 2912 :                 (void)sc;
; 2913 :                 (void)d;
; 2914 :                 TRACE(("sample %8d count %8d decoding to composition offset %8d\n", i, sc, d));
; 2915 :             }

	jmp	SHORT $LN27@MP4D_open
$LN28@MP4D_open:

; 2916 :         }
; 2917 :         break;

	jmp	$LN11@MP4D_open
$LN114@MP4D_open:
$LN115@MP4D_open:

; 2918 : #endif
; 2919 :         case BOX_stco:  //ISO/IEC 14496-12 Page 39. Section 8.19 - Chunk Offset Box.
; 2920 :         case BOX_co64:
; 2921 :             tr->chunk_count = READ(4);

	lea	r9, QWORD PTR eof_flag$[rbp]
	lea	r8, QWORD PTR payload_bytes$2[rbp]
	mov	edx, 4
	mov	rcx, QWORD PTR mp4$[rbp]
	call	?read_payload@@YAIPEAUMP4D_demux_tag@@IPEA_KPEAH@Z ; read_payload
	mov	rcx, QWORD PTR tr$[rbp]
	mov	DWORD PTR [rcx+88], eax

; 2922 :             MALLOC(MP4D_file_offset_t*, tr->chunk_offset, tr->chunk_count * sizeof(MP4D_file_offset_t));

	mov	rax, QWORD PTR tr$[rbp]
	mov	eax, DWORD PTR [rax+88]
	shl	rax, 3
	mov	ecx, eax
	call	malloc
	mov	rcx, QWORD PTR tr$[rbp]
	mov	QWORD PTR [rcx+96], rax
	mov	rax, QWORD PTR tr$[rbp]
	cmp	QWORD PTR [rax+96], 0
	jne	SHORT $LN116@MP4D_open
	cmp	DWORD PTR depth$[rbp], 0
	jne	SHORT $LN117@MP4D_open
	jmp	$LN11@MP4D_open
	jmp	SHORT $LN118@MP4D_open
$LN117@MP4D_open:
	mov	rcx, QWORD PTR mp4$[rbp]
	call	MP4D_close
	xor	eax, eax
	jmp	$LN1@MP4D_open
$LN118@MP4D_open:
$LN116@MP4D_open:

; 2923 :             for (i = 0; i < tr->chunk_count; i++)

	mov	DWORD PTR i$[rbp], 0
	jmp	SHORT $LN32@MP4D_open
$LN30@MP4D_open:
	mov	eax, DWORD PTR i$[rbp]
	inc	eax
	mov	DWORD PTR i$[rbp], eax
$LN32@MP4D_open:
	mov	rax, QWORD PTR tr$[rbp]
	mov	eax, DWORD PTR [rax+88]
	cmp	DWORD PTR i$[rbp], eax
	jae	$LN31@MP4D_open

; 2924 :             {
; 2925 :                 tr->chunk_offset[i] = READ(4);

	lea	r9, QWORD PTR eof_flag$[rbp]
	lea	r8, QWORD PTR payload_bytes$2[rbp]
	mov	edx, 4
	mov	rcx, QWORD PTR mp4$[rbp]
	call	?read_payload@@YAIPEAUMP4D_demux_tag@@IPEA_KPEAH@Z ; read_payload
	mov	eax, eax
	mov	ecx, DWORD PTR i$[rbp]
	mov	rdx, QWORD PTR tr$[rbp]
	mov	rdx, QWORD PTR [rdx+96]
	mov	QWORD PTR [rdx+rcx*8], rax

; 2926 :                 if (box_name == BOX_co64)

	cmp	DWORD PTR box_name$4[rbp], 1668232756	; 636f3634H
	jne	$LN119@MP4D_open

; 2927 :                 {
; 2928 : #if !MP4D_64BIT_SUPPORTED
; 2929 :                     if (tr->chunk_offset[i])

	mov	eax, DWORD PTR i$[rbp]
	mov	rcx, QWORD PTR tr$[rbp]
	mov	rcx, QWORD PTR [rcx+96]
	cmp	QWORD PTR [rcx+rax*8], 0
	je	SHORT $LN120@MP4D_open

; 2930 :                     {
; 2931 :                         ERROR("UNSUPPORTED FEATURE: 64-bit chunk_offset not supported!");

	cmp	DWORD PTR depth$[rbp], 0
	jne	SHORT $LN121@MP4D_open
	jmp	$LN31@MP4D_open
	jmp	SHORT $LN122@MP4D_open
$LN121@MP4D_open:
	mov	rcx, QWORD PTR mp4$[rbp]
	call	MP4D_close
	xor	eax, eax
	jmp	$LN1@MP4D_open
$LN122@MP4D_open:
$LN120@MP4D_open:

; 2932 :                     }
; 2933 : #endif
; 2934 :                     tr->chunk_offset[i] <<= 32;

	mov	eax, DWORD PTR i$[rbp]
	mov	rcx, QWORD PTR tr$[rbp]
	mov	rcx, QWORD PTR [rcx+96]
	mov	rax, QWORD PTR [rcx+rax*8]
	shl	rax, 32					; 00000020H
	mov	ecx, DWORD PTR i$[rbp]
	mov	rdx, QWORD PTR tr$[rbp]
	mov	rdx, QWORD PTR [rdx+96]
	mov	QWORD PTR [rdx+rcx*8], rax

; 2935 :                     tr->chunk_offset[i] |= READ(4);

	mov	eax, DWORD PTR i$[rbp]
	mov	QWORD PTR tv509[rbp], rax
	mov	rcx, QWORD PTR tr$[rbp]
	mov	rcx, QWORD PTR [rcx+96]
	mov	QWORD PTR tv1099[rbp], rcx
	lea	r9, QWORD PTR eof_flag$[rbp]
	lea	r8, QWORD PTR payload_bytes$2[rbp]
	mov	edx, 4
	mov	rcx, QWORD PTR mp4$[rbp]
	call	?read_payload@@YAIPEAUMP4D_demux_tag@@IPEA_KPEAH@Z ; read_payload
	mov	eax, eax
	mov	rdx, QWORD PTR tv1099[rbp]
	mov	rcx, QWORD PTR tv509[rbp]
	mov	rcx, QWORD PTR [rdx+rcx*8]
	or	rcx, rax
	mov	rax, rcx
	mov	ecx, DWORD PTR i$[rbp]
	mov	rdx, QWORD PTR tr$[rbp]
	mov	rdx, QWORD PTR [rdx+96]
	mov	QWORD PTR [rdx+rcx*8], rax
$LN119@MP4D_open:

; 2936 :                 }
; 2937 :             }

	jmp	$LN30@MP4D_open
$LN31@MP4D_open:

; 2938 :             break;

	jmp	$LN11@MP4D_open
$LN123@MP4D_open:

; 2939 : 
; 2940 : #if MP4D_INFO_SUPPORTED
; 2941 :         case BOX_mvhd:
; 2942 :             SKIP(((FullAtomVersionAndFlags >> 24) == 1) ? 8 + 8 : 4 + 4);

	mov	eax, DWORD PTR FullAtomVersionAndFlags$1[rbp]
	shr	eax, 24
	cmp	eax, 1
	jne	SHORT $LN191@MP4D_open
	mov	DWORD PTR tv525[rbp], 16
	jmp	SHORT $LN192@MP4D_open
$LN191@MP4D_open:
	mov	DWORD PTR tv525[rbp], 8
$LN192@MP4D_open:
	movsxd	rax, DWORD PTR tv525[rbp]
	cmp	QWORD PTR payload_bytes$2[rbp], rax
	jae	SHORT $LN195@MP4D_open
	mov	rax, QWORD PTR payload_bytes$2[rbp]
	mov	QWORD PTR tv532[rbp], rax
	jmp	SHORT $LN196@MP4D_open
$LN195@MP4D_open:
	mov	eax, DWORD PTR FullAtomVersionAndFlags$1[rbp]
	shr	eax, 24
	cmp	eax, 1
	jne	SHORT $LN193@MP4D_open
	mov	DWORD PTR tv530[rbp], 16
	jmp	SHORT $LN194@MP4D_open
$LN193@MP4D_open:
	mov	DWORD PTR tv530[rbp], 8
$LN194@MP4D_open:
	movsxd	rax, DWORD PTR tv530[rbp]
	mov	QWORD PTR tv532[rbp], rax
$LN196@MP4D_open:
	mov	rax, QWORD PTR tv532[rbp]
	mov	QWORD PTR t$21[rbp], rax
	lea	r8, QWORD PTR eof_flag$[rbp]
	mov	rdx, QWORD PTR t$21[rbp]
	mov	rcx, QWORD PTR mp4$[rbp]
	call	?my_fseek@@YAXPEAUMP4D_demux_tag@@_KPEAH@Z ; my_fseek
	mov	rax, QWORD PTR t$21[rbp]
	mov	rcx, QWORD PTR payload_bytes$2[rbp]
	sub	rcx, rax
	mov	rax, rcx
	mov	QWORD PTR payload_bytes$2[rbp], rax

; 2943 :             mp4->timescale = READ(4);

	lea	r9, QWORD PTR eof_flag$[rbp]
	lea	r8, QWORD PTR payload_bytes$2[rbp]
	mov	edx, 4
	mov	rcx, QWORD PTR mp4$[rbp]
	call	?read_payload@@YAIPEAUMP4D_demux_tag@@IPEA_KPEAH@Z ; read_payload
	mov	rcx, QWORD PTR mp4$[rbp]
	mov	DWORD PTR [rcx+52], eax

; 2944 :             mp4->duration_hi = ((FullAtomVersionAndFlags >> 24) == 1) ? READ(4) : 0;

	mov	eax, DWORD PTR FullAtomVersionAndFlags$1[rbp]
	shr	eax, 24
	cmp	eax, 1
	jne	SHORT $LN197@MP4D_open
	lea	r9, QWORD PTR eof_flag$[rbp]
	lea	r8, QWORD PTR payload_bytes$2[rbp]
	mov	edx, 4
	mov	rcx, QWORD PTR mp4$[rbp]
	call	?read_payload@@YAIPEAUMP4D_demux_tag@@IPEA_KPEAH@Z ; read_payload
	mov	DWORD PTR tv551[rbp], eax
	jmp	SHORT $LN198@MP4D_open
$LN197@MP4D_open:
	mov	DWORD PTR tv551[rbp], 0
$LN198@MP4D_open:
	mov	rax, QWORD PTR mp4$[rbp]
	mov	ecx, DWORD PTR tv551[rbp]
	mov	DWORD PTR [rax+44], ecx

; 2945 :             mp4->duration_lo = READ(4);

	lea	r9, QWORD PTR eof_flag$[rbp]
	lea	r8, QWORD PTR payload_bytes$2[rbp]
	mov	edx, 4
	mov	rcx, QWORD PTR mp4$[rbp]
	call	?read_payload@@YAIPEAUMP4D_demux_tag@@IPEA_KPEAH@Z ; read_payload
	mov	rcx, QWORD PTR mp4$[rbp]
	mov	DWORD PTR [rcx+48], eax

; 2946 :             SKIP(4 + 2 + 2 + 4 * 2 + 4 * 9 + 4 * 6 + 4);

	cmp	QWORD PTR payload_bytes$2[rbp], 80	; 00000050H
	jae	SHORT $LN199@MP4D_open
	mov	rax, QWORD PTR payload_bytes$2[rbp]
	mov	QWORD PTR tv559[rbp], rax
	jmp	SHORT $LN200@MP4D_open
$LN199@MP4D_open:
	mov	QWORD PTR tv559[rbp], 80		; 00000050H
$LN200@MP4D_open:
	mov	rax, QWORD PTR tv559[rbp]
	mov	QWORD PTR t$22[rbp], rax
	lea	r8, QWORD PTR eof_flag$[rbp]
	mov	rdx, QWORD PTR t$22[rbp]
	mov	rcx, QWORD PTR mp4$[rbp]
	call	?my_fseek@@YAXPEAUMP4D_demux_tag@@_KPEAH@Z ; my_fseek
	mov	rax, QWORD PTR t$22[rbp]
	mov	rcx, QWORD PTR payload_bytes$2[rbp]
	sub	rcx, rax
	mov	rax, rcx
	mov	QWORD PTR payload_bytes$2[rbp], rax

; 2947 :             break;

	jmp	$LN11@MP4D_open
$LN124@MP4D_open:

; 2948 : 
; 2949 :         case BOX_mdhd:
; 2950 :             SKIP(((FullAtomVersionAndFlags >> 24) == 1) ? 8 + 8 : 4 + 4);

	mov	eax, DWORD PTR FullAtomVersionAndFlags$1[rbp]
	shr	eax, 24
	cmp	eax, 1
	jne	SHORT $LN201@MP4D_open
	mov	DWORD PTR tv566[rbp], 16
	jmp	SHORT $LN202@MP4D_open
$LN201@MP4D_open:
	mov	DWORD PTR tv566[rbp], 8
$LN202@MP4D_open:
	movsxd	rax, DWORD PTR tv566[rbp]
	cmp	QWORD PTR payload_bytes$2[rbp], rax
	jae	SHORT $LN205@MP4D_open
	mov	rax, QWORD PTR payload_bytes$2[rbp]
	mov	QWORD PTR tv573[rbp], rax
	jmp	SHORT $LN206@MP4D_open
$LN205@MP4D_open:
	mov	eax, DWORD PTR FullAtomVersionAndFlags$1[rbp]
	shr	eax, 24
	cmp	eax, 1
	jne	SHORT $LN203@MP4D_open
	mov	DWORD PTR tv571[rbp], 16
	jmp	SHORT $LN204@MP4D_open
$LN203@MP4D_open:
	mov	DWORD PTR tv571[rbp], 8
$LN204@MP4D_open:
	movsxd	rax, DWORD PTR tv571[rbp]
	mov	QWORD PTR tv573[rbp], rax
$LN206@MP4D_open:
	mov	rax, QWORD PTR tv573[rbp]
	mov	QWORD PTR t$23[rbp], rax
	lea	r8, QWORD PTR eof_flag$[rbp]
	mov	rdx, QWORD PTR t$23[rbp]
	mov	rcx, QWORD PTR mp4$[rbp]
	call	?my_fseek@@YAXPEAUMP4D_demux_tag@@_KPEAH@Z ; my_fseek
	mov	rax, QWORD PTR t$23[rbp]
	mov	rcx, QWORD PTR payload_bytes$2[rbp]
	sub	rcx, rax
	mov	rax, rcx
	mov	QWORD PTR payload_bytes$2[rbp], rax

; 2951 :             tr->timescale = READ(4);

	lea	r9, QWORD PTR eof_flag$[rbp]
	lea	r8, QWORD PTR payload_bytes$2[rbp]
	mov	edx, 4
	mov	rcx, QWORD PTR mp4$[rbp]
	call	?read_payload@@YAIPEAUMP4D_demux_tag@@IPEA_KPEAH@Z ; read_payload
	mov	rcx, QWORD PTR tr$[rbp]
	mov	DWORD PTR [rcx+36], eax

; 2952 :             tr->duration_hi = ((FullAtomVersionAndFlags >> 24) == 1) ? READ(4) : 0;

	mov	eax, DWORD PTR FullAtomVersionAndFlags$1[rbp]
	shr	eax, 24
	cmp	eax, 1
	jne	SHORT $LN207@MP4D_open
	lea	r9, QWORD PTR eof_flag$[rbp]
	lea	r8, QWORD PTR payload_bytes$2[rbp]
	mov	edx, 4
	mov	rcx, QWORD PTR mp4$[rbp]
	call	?read_payload@@YAIPEAUMP4D_demux_tag@@IPEA_KPEAH@Z ; read_payload
	mov	DWORD PTR tv624[rbp], eax
	jmp	SHORT $LN208@MP4D_open
$LN207@MP4D_open:
	mov	DWORD PTR tv624[rbp], 0
$LN208@MP4D_open:
	mov	rax, QWORD PTR tr$[rbp]
	mov	ecx, DWORD PTR tv624[rbp]
	mov	DWORD PTR [rax+28], ecx

; 2953 :             tr->duration_lo = READ(4);

	lea	r9, QWORD PTR eof_flag$[rbp]
	lea	r8, QWORD PTR payload_bytes$2[rbp]
	mov	edx, 4
	mov	rcx, QWORD PTR mp4$[rbp]
	call	?read_payload@@YAIPEAUMP4D_demux_tag@@IPEA_KPEAH@Z ; read_payload
	mov	rcx, QWORD PTR tr$[rbp]
	mov	DWORD PTR [rcx+32], eax

; 2954 : 
; 2955 :             {
; 2956 :                 int ISO_639_2_T = READ(2);

	lea	r9, QWORD PTR eof_flag$[rbp]
	lea	r8, QWORD PTR payload_bytes$2[rbp]
	mov	edx, 2
	mov	rcx, QWORD PTR mp4$[rbp]
	call	?read_payload@@YAIPEAUMP4D_demux_tag@@IPEA_KPEAH@Z ; read_payload
	mov	DWORD PTR ISO_639_2_T$24[rbp], eax

; 2957 :                 tr->language[2] = (ISO_639_2_T & 31) + 0x60; ISO_639_2_T >>= 5;

	mov	eax, DWORD PTR ISO_639_2_T$24[rbp]
	and	eax, 31
	add	eax, 96					; 00000060H
	mov	ecx, 1
	imul	rcx, rcx, 2
	mov	rdx, QWORD PTR tr$[rbp]
	mov	BYTE PTR [rdx+rcx+44], al
	mov	eax, DWORD PTR ISO_639_2_T$24[rbp]
	sar	eax, 5
	mov	DWORD PTR ISO_639_2_T$24[rbp], eax

; 2958 :                 tr->language[1] = (ISO_639_2_T & 31) + 0x60; ISO_639_2_T >>= 5;

	mov	eax, DWORD PTR ISO_639_2_T$24[rbp]
	and	eax, 31
	add	eax, 96					; 00000060H
	mov	ecx, 1
	imul	rcx, rcx, 1
	mov	rdx, QWORD PTR tr$[rbp]
	mov	BYTE PTR [rdx+rcx+44], al
	mov	eax, DWORD PTR ISO_639_2_T$24[rbp]
	sar	eax, 5
	mov	DWORD PTR ISO_639_2_T$24[rbp], eax

; 2959 :                 tr->language[0] = (ISO_639_2_T & 31) + 0x60;

	mov	eax, DWORD PTR ISO_639_2_T$24[rbp]
	and	eax, 31
	add	eax, 96					; 00000060H
	mov	ecx, 1
	imul	rcx, rcx, 0
	mov	rdx, QWORD PTR tr$[rbp]
	mov	BYTE PTR [rdx+rcx+44], al

; 2960 :             }
; 2961 :             // the rest of this box is skipped by default ...
; 2962 :             break;

	jmp	$LN11@MP4D_open
$LN125@MP4D_open:

; 2963 : 
; 2964 :         case BOX_hdlr:
; 2965 :             if (tr) // When this box is within 'meta' box, the track may not be avaialable

	cmp	QWORD PTR tr$[rbp], 0
	je	$LN126@MP4D_open

; 2966 :             {
; 2967 :                 SKIP(4); // pre_defined

	cmp	QWORD PTR payload_bytes$2[rbp], 4
	jae	SHORT $LN209@MP4D_open
	mov	rax, QWORD PTR payload_bytes$2[rbp]
	mov	QWORD PTR tv658[rbp], rax
	jmp	SHORT $LN210@MP4D_open
$LN209@MP4D_open:
	mov	QWORD PTR tv658[rbp], 4
$LN210@MP4D_open:
	mov	rax, QWORD PTR tv658[rbp]
	mov	QWORD PTR t$25[rbp], rax
	lea	r8, QWORD PTR eof_flag$[rbp]
	mov	rdx, QWORD PTR t$25[rbp]
	mov	rcx, QWORD PTR mp4$[rbp]
	call	?my_fseek@@YAXPEAUMP4D_demux_tag@@_KPEAH@Z ; my_fseek
	mov	rax, QWORD PTR t$25[rbp]
	mov	rcx, QWORD PTR payload_bytes$2[rbp]
	sub	rcx, rax
	mov	rax, rcx
	mov	QWORD PTR payload_bytes$2[rbp], rax

; 2968 :                 tr->handler_type = READ(4);

	lea	r9, QWORD PTR eof_flag$[rbp]
	lea	r8, QWORD PTR payload_bytes$2[rbp]
	mov	edx, 4
	mov	rcx, QWORD PTR mp4$[rbp]
	call	?read_payload@@YAIPEAUMP4D_demux_tag@@IPEA_KPEAH@Z ; read_payload
	mov	rcx, QWORD PTR tr$[rbp]
	mov	DWORD PTR [rcx+24], eax
$LN126@MP4D_open:

; 2969 :             }
; 2970 :             // typically hdlr box does not contain any useful info.
; 2971 :             // the rest of this box is skipped by default ...
; 2972 :             break;

	jmp	$LN11@MP4D_open
$LN127@MP4D_open:

; 2973 : 
; 2974 :         case BOX_btrt:
; 2975 :             if (!tr)

	cmp	QWORD PTR tr$[rbp], 0
	jne	SHORT $LN128@MP4D_open

; 2976 :             {
; 2977 :                 ERROR("broken file structure!");

	cmp	DWORD PTR depth$[rbp], 0
	jne	SHORT $LN129@MP4D_open
	jmp	$LN11@MP4D_open
	jmp	SHORT $LN130@MP4D_open
$LN129@MP4D_open:
	mov	rcx, QWORD PTR mp4$[rbp]
	call	MP4D_close
	xor	eax, eax
	jmp	$LN1@MP4D_open
$LN130@MP4D_open:
$LN128@MP4D_open:

; 2978 :             }
; 2979 : 
; 2980 :             SKIP(4 + 4);

	cmp	QWORD PTR payload_bytes$2[rbp], 8
	jae	SHORT $LN211@MP4D_open
	mov	rax, QWORD PTR payload_bytes$2[rbp]
	mov	QWORD PTR tv673[rbp], rax
	jmp	SHORT $LN212@MP4D_open
$LN211@MP4D_open:
	mov	QWORD PTR tv673[rbp], 8
$LN212@MP4D_open:
	mov	rax, QWORD PTR tv673[rbp]
	mov	QWORD PTR t$26[rbp], rax
	lea	r8, QWORD PTR eof_flag$[rbp]
	mov	rdx, QWORD PTR t$26[rbp]
	mov	rcx, QWORD PTR mp4$[rbp]
	call	?my_fseek@@YAXPEAUMP4D_demux_tag@@_KPEAH@Z ; my_fseek
	mov	rax, QWORD PTR t$26[rbp]
	mov	rcx, QWORD PTR payload_bytes$2[rbp]
	sub	rcx, rax
	mov	rax, rcx
	mov	QWORD PTR payload_bytes$2[rbp], rax

; 2981 :             tr->avg_bitrate_bps = READ(4);

	lea	r9, QWORD PTR eof_flag$[rbp]
	lea	r8, QWORD PTR payload_bytes$2[rbp]
	mov	edx, 4
	mov	rcx, QWORD PTR mp4$[rbp]
	call	?read_payload@@YAIPEAUMP4D_demux_tag@@IPEA_KPEAH@Z ; read_payload
	mov	rcx, QWORD PTR tr$[rbp]
	mov	DWORD PTR [rcx+40], eax

; 2982 :             break;

	jmp	$LN11@MP4D_open
$LN131@MP4D_open:

; 2983 : 
; 2984 :             // Set pointer to tag to be read...
; 2985 :         case BOX_calb: ptag = &mp4->tag.album;   break;

	mov	rax, QWORD PTR mp4$[rbp]
	add	rax, 72					; 00000048H
	mov	QWORD PTR ptag$5[rbp], rax
	jmp	$LN11@MP4D_open
$LN132@MP4D_open:

; 2986 :         case BOX_cART: ptag = &mp4->tag.artist;  break;

	mov	rax, QWORD PTR mp4$[rbp]
	add	rax, 64					; 00000040H
	mov	QWORD PTR ptag$5[rbp], rax
	jmp	$LN11@MP4D_open
$LN133@MP4D_open:

; 2987 :         case BOX_cnam: ptag = &mp4->tag.title;   break;

	mov	rax, QWORD PTR mp4$[rbp]
	add	rax, 56					; 00000038H
	mov	QWORD PTR ptag$5[rbp], rax
	jmp	$LN11@MP4D_open
$LN134@MP4D_open:

; 2988 :         case BOX_cday: ptag = &mp4->tag.year;    break;

	mov	rax, QWORD PTR mp4$[rbp]
	add	rax, 80					; 00000050H
	mov	QWORD PTR ptag$5[rbp], rax
	jmp	$LN11@MP4D_open
$LN135@MP4D_open:

; 2989 :         case BOX_ccmt: ptag = &mp4->tag.comment; break;

	mov	rax, QWORD PTR mp4$[rbp]
	add	rax, 88					; 00000058H
	mov	QWORD PTR ptag$5[rbp], rax
	jmp	$LN11@MP4D_open
$LN136@MP4D_open:

; 2990 :         case BOX_cgen: ptag = &mp4->tag.genre;   break;

	mov	rax, QWORD PTR mp4$[rbp]
	add	rax, 96					; 00000060H
	mov	QWORD PTR ptag$5[rbp], rax
	jmp	$LN11@MP4D_open
$LN137@MP4D_open:

; 2991 : 
; 2992 : #endif
; 2993 : 
; 2994 :         case BOX_stsd:
; 2995 :             SKIP(4); // entry_count, BOX_mp4a & BOX_mp4v boxes follows immediately

	cmp	QWORD PTR payload_bytes$2[rbp], 4
	jae	SHORT $LN213@MP4D_open
	mov	rax, QWORD PTR payload_bytes$2[rbp]
	mov	QWORD PTR tv697[rbp], rax
	jmp	SHORT $LN214@MP4D_open
$LN213@MP4D_open:
	mov	QWORD PTR tv697[rbp], 4
$LN214@MP4D_open:
	mov	rax, QWORD PTR tv697[rbp]
	mov	QWORD PTR t$27[rbp], rax
	lea	r8, QWORD PTR eof_flag$[rbp]
	mov	rdx, QWORD PTR t$27[rbp]
	mov	rcx, QWORD PTR mp4$[rbp]
	call	?my_fseek@@YAXPEAUMP4D_demux_tag@@_KPEAH@Z ; my_fseek
	mov	rax, QWORD PTR t$27[rbp]
	mov	rcx, QWORD PTR payload_bytes$2[rbp]
	sub	rcx, rax
	mov	rax, rcx
	mov	QWORD PTR payload_bytes$2[rbp], rax

; 2996 :             break;

	jmp	$LN11@MP4D_open
$LN138@MP4D_open:

; 2997 : 
; 2998 :         case BOX_mp4s:  // private stream
; 2999 :             if (!tr)

	cmp	QWORD PTR tr$[rbp], 0
	jne	SHORT $LN139@MP4D_open

; 3000 :             {
; 3001 :                 ERROR("broken file structure!");

	cmp	DWORD PTR depth$[rbp], 0
	jne	SHORT $LN140@MP4D_open
	jmp	$LN11@MP4D_open
	jmp	SHORT $LN141@MP4D_open
$LN140@MP4D_open:
	mov	rcx, QWORD PTR mp4$[rbp]
	call	MP4D_close
	xor	eax, eax
	jmp	$LN1@MP4D_open
$LN141@MP4D_open:
$LN139@MP4D_open:

; 3002 :             }
; 3003 :             SKIP(6 * 1 + 2/*Base SampleEntry*/);

	cmp	QWORD PTR payload_bytes$2[rbp], 8
	jae	SHORT $LN215@MP4D_open
	mov	rax, QWORD PTR payload_bytes$2[rbp]
	mov	QWORD PTR tv706[rbp], rax
	jmp	SHORT $LN216@MP4D_open
$LN215@MP4D_open:
	mov	QWORD PTR tv706[rbp], 8
$LN216@MP4D_open:
	mov	rax, QWORD PTR tv706[rbp]
	mov	QWORD PTR t$28[rbp], rax
	lea	r8, QWORD PTR eof_flag$[rbp]
	mov	rdx, QWORD PTR t$28[rbp]
	mov	rcx, QWORD PTR mp4$[rbp]
	call	?my_fseek@@YAXPEAUMP4D_demux_tag@@_KPEAH@Z ; my_fseek
	mov	rax, QWORD PTR t$28[rbp]
	mov	rcx, QWORD PTR payload_bytes$2[rbp]
	sub	rcx, rax
	mov	rax, rcx
	mov	QWORD PTR payload_bytes$2[rbp], rax

; 3004 :             break;

	jmp	$LN11@MP4D_open
$LN142@MP4D_open:

; 3005 : 
; 3006 :         case BOX_mp4a:
; 3007 :             if (!tr)

	cmp	QWORD PTR tr$[rbp], 0
	jne	SHORT $LN143@MP4D_open

; 3008 :             {
; 3009 :                 ERROR("broken file structure!");

	cmp	DWORD PTR depth$[rbp], 0
	jne	SHORT $LN144@MP4D_open
	jmp	$LN11@MP4D_open
	jmp	SHORT $LN145@MP4D_open
$LN144@MP4D_open:
	mov	rcx, QWORD PTR mp4$[rbp]
	call	MP4D_close
	xor	eax, eax
	jmp	$LN1@MP4D_open
$LN145@MP4D_open:
$LN143@MP4D_open:

; 3010 :             }
; 3011 : #if MP4D_INFO_SUPPORTED
; 3012 :             SKIP(6 * 1 + 2/*Base SampleEntry*/ + 4 * 2);

	cmp	QWORD PTR payload_bytes$2[rbp], 16
	jae	SHORT $LN217@MP4D_open
	mov	rax, QWORD PTR payload_bytes$2[rbp]
	mov	QWORD PTR tv715[rbp], rax
	jmp	SHORT $LN218@MP4D_open
$LN217@MP4D_open:
	mov	QWORD PTR tv715[rbp], 16
$LN218@MP4D_open:
	mov	rax, QWORD PTR tv715[rbp]
	mov	QWORD PTR t$29[rbp], rax
	lea	r8, QWORD PTR eof_flag$[rbp]
	mov	rdx, QWORD PTR t$29[rbp]
	mov	rcx, QWORD PTR mp4$[rbp]
	call	?my_fseek@@YAXPEAUMP4D_demux_tag@@_KPEAH@Z ; my_fseek
	mov	rax, QWORD PTR t$29[rbp]
	mov	rcx, QWORD PTR payload_bytes$2[rbp]
	sub	rcx, rax
	mov	rax, rcx
	mov	QWORD PTR payload_bytes$2[rbp], rax

; 3013 :             tr->SampleDescription.audio.channelcount = READ(2);

	lea	r9, QWORD PTR eof_flag$[rbp]
	lea	r8, QWORD PTR payload_bytes$2[rbp]
	mov	edx, 2
	mov	rcx, QWORD PTR mp4$[rbp]
	call	?read_payload@@YAIPEAUMP4D_demux_tag@@IPEA_KPEAH@Z ; read_payload
	mov	rcx, QWORD PTR tr$[rbp]
	mov	DWORD PTR [rcx+52], eax

; 3014 :             SKIP(2/*samplesize*/ + 2 + 2);

	cmp	QWORD PTR payload_bytes$2[rbp], 6
	jae	SHORT $LN219@MP4D_open
	mov	rax, QWORD PTR payload_bytes$2[rbp]
	mov	QWORD PTR tv729[rbp], rax
	jmp	SHORT $LN220@MP4D_open
$LN219@MP4D_open:
	mov	QWORD PTR tv729[rbp], 6
$LN220@MP4D_open:
	mov	rax, QWORD PTR tv729[rbp]
	mov	QWORD PTR t$30[rbp], rax
	lea	r8, QWORD PTR eof_flag$[rbp]
	mov	rdx, QWORD PTR t$30[rbp]
	mov	rcx, QWORD PTR mp4$[rbp]
	call	?my_fseek@@YAXPEAUMP4D_demux_tag@@_KPEAH@Z ; my_fseek
	mov	rax, QWORD PTR t$30[rbp]
	mov	rcx, QWORD PTR payload_bytes$2[rbp]
	sub	rcx, rax
	mov	rax, rcx
	mov	QWORD PTR payload_bytes$2[rbp], rax

; 3015 :             tr->SampleDescription.audio.samplerate_hz = READ(4) >> 16;

	lea	r9, QWORD PTR eof_flag$[rbp]
	lea	r8, QWORD PTR payload_bytes$2[rbp]
	mov	edx, 4
	mov	rcx, QWORD PTR mp4$[rbp]
	call	?read_payload@@YAIPEAUMP4D_demux_tag@@IPEA_KPEAH@Z ; read_payload
	shr	eax, 16
	mov	rcx, QWORD PTR tr$[rbp]
	mov	DWORD PTR [rcx+56], eax

; 3016 : #else
; 3017 :             SKIP(28);
; 3018 : #endif
; 3019 :             break;

	jmp	$LN11@MP4D_open
$LN146@MP4D_open:
$LN147@MP4D_open:

; 3020 : 
; 3021 : #if MP4D_AVC_SUPPORTED
; 3022 :         case BOX_avc1:  // AVCSampleEntry extends VisualSampleEntry
; 3023 : //         case BOX_avc2:   - no test
; 3024 : //         case BOX_svc1:   - no test
; 3025 :         case BOX_mp4v:
; 3026 :             if (!tr)

	cmp	QWORD PTR tr$[rbp], 0
	jne	SHORT $LN148@MP4D_open

; 3027 :             {
; 3028 :                 ERROR("broken file structure!");

	cmp	DWORD PTR depth$[rbp], 0
	jne	SHORT $LN149@MP4D_open
	jmp	$LN11@MP4D_open
	jmp	SHORT $LN150@MP4D_open
$LN149@MP4D_open:
	mov	rcx, QWORD PTR mp4$[rbp]
	call	MP4D_close
	xor	eax, eax
	jmp	$LN1@MP4D_open
$LN150@MP4D_open:
$LN148@MP4D_open:

; 3029 :             }
; 3030 : #if MP4D_INFO_SUPPORTED
; 3031 :             SKIP(6 * 1 + 2/*Base SampleEntry*/ + 2 + 2 + 4 * 3);

	cmp	QWORD PTR payload_bytes$2[rbp], 24
	jae	SHORT $LN221@MP4D_open
	mov	rax, QWORD PTR payload_bytes$2[rbp]
	mov	QWORD PTR tv747[rbp], rax
	jmp	SHORT $LN222@MP4D_open
$LN221@MP4D_open:
	mov	QWORD PTR tv747[rbp], 24
$LN222@MP4D_open:
	mov	rax, QWORD PTR tv747[rbp]
	mov	QWORD PTR t$31[rbp], rax
	lea	r8, QWORD PTR eof_flag$[rbp]
	mov	rdx, QWORD PTR t$31[rbp]
	mov	rcx, QWORD PTR mp4$[rbp]
	call	?my_fseek@@YAXPEAUMP4D_demux_tag@@_KPEAH@Z ; my_fseek
	mov	rax, QWORD PTR t$31[rbp]
	mov	rcx, QWORD PTR payload_bytes$2[rbp]
	sub	rcx, rax
	mov	rax, rcx
	mov	QWORD PTR payload_bytes$2[rbp], rax

; 3032 :             tr->SampleDescription.video.width = READ(2);

	lea	r9, QWORD PTR eof_flag$[rbp]
	lea	r8, QWORD PTR payload_bytes$2[rbp]
	mov	edx, 2
	mov	rcx, QWORD PTR mp4$[rbp]
	call	?read_payload@@YAIPEAUMP4D_demux_tag@@IPEA_KPEAH@Z ; read_payload
	mov	rcx, QWORD PTR tr$[rbp]
	mov	DWORD PTR [rcx+52], eax

; 3033 :             tr->SampleDescription.video.height = READ(2);

	lea	r9, QWORD PTR eof_flag$[rbp]
	lea	r8, QWORD PTR payload_bytes$2[rbp]
	mov	edx, 2
	mov	rcx, QWORD PTR mp4$[rbp]
	call	?read_payload@@YAIPEAUMP4D_demux_tag@@IPEA_KPEAH@Z ; read_payload
	mov	rcx, QWORD PTR tr$[rbp]
	mov	DWORD PTR [rcx+56], eax

; 3034 :             // frame_count is always 1
; 3035 :             // compressorname is rarely set..
; 3036 :             SKIP(4 + 4 + 4 + 2/*frame_count*/ + 32/*compressorname*/ + 2 + 2);

	cmp	QWORD PTR payload_bytes$2[rbp], 50	; 00000032H
	jae	SHORT $LN223@MP4D_open
	mov	rax, QWORD PTR payload_bytes$2[rbp]
	mov	QWORD PTR tv769[rbp], rax
	jmp	SHORT $LN224@MP4D_open
$LN223@MP4D_open:
	mov	QWORD PTR tv769[rbp], 50		; 00000032H
$LN224@MP4D_open:
	mov	rax, QWORD PTR tv769[rbp]
	mov	QWORD PTR t$32[rbp], rax
	lea	r8, QWORD PTR eof_flag$[rbp]
	mov	rdx, QWORD PTR t$32[rbp]
	mov	rcx, QWORD PTR mp4$[rbp]
	call	?my_fseek@@YAXPEAUMP4D_demux_tag@@_KPEAH@Z ; my_fseek
	mov	rax, QWORD PTR t$32[rbp]
	mov	rcx, QWORD PTR payload_bytes$2[rbp]
	sub	rcx, rax
	mov	rax, rcx
	mov	QWORD PTR payload_bytes$2[rbp], rax

; 3037 : #else
; 3038 :             SKIP(78);
; 3039 : #endif
; 3040 :             // ^^^ end of VisualSampleEntry
; 3041 :             // now follows for BOX_avc1:
; 3042 :             //      BOX_avcC
; 3043 :             //      BOX_btrt (optional)
; 3044 :             //      BOX_m4ds (optional)
; 3045 :             // for BOX_mp4v:
; 3046 :             //      BOX_esds
; 3047 :             break;

	jmp	$LN11@MP4D_open
$LN151@MP4D_open:

; 3048 : 
; 3049 :         case BOX_avcC:  // AVCDecoderConfigurationRecord()
; 3050 :             // hack: AAC-specific DSI field reused (for it have same purpoose as sps/pps)
; 3051 :             // TODO: check this hack if BOX_esds co-exist with BOX_avcC
; 3052 :             tr->object_type_indication = MP4_OBJECT_TYPE_AVC;

	mov	rax, QWORD PTR tr$[rbp]
	mov	DWORD PTR [rax+20], 33			; 00000021H

; 3053 :             tr->dsi = (unsigned char*)malloc((size_t)box_bytes);

	mov	ecx, DWORD PTR box_bytes$3[rbp]
	call	malloc
	mov	rcx, QWORD PTR tr$[rbp]
	mov	QWORD PTR [rcx+8], rax

; 3054 :             tr->dsi_bytes = (unsigned)box_bytes;

	mov	rax, QWORD PTR tr$[rbp]
	mov	ecx, DWORD PTR box_bytes$3[rbp]
	mov	DWORD PTR [rax+16], ecx

; 3055 :             {
; 3056 :                 int spspps;
; 3057 :                 unsigned char* p = tr->dsi;

	mov	rax, QWORD PTR tr$[rbp]
	mov	rax, QWORD PTR [rax+8]
	mov	QWORD PTR p$34[rbp], rax

; 3058 :                 unsigned int configurationVersion = READ(1);

	lea	r9, QWORD PTR eof_flag$[rbp]
	lea	r8, QWORD PTR payload_bytes$2[rbp]
	mov	edx, 1
	mov	rcx, QWORD PTR mp4$[rbp]
	call	?read_payload@@YAIPEAUMP4D_demux_tag@@IPEA_KPEAH@Z ; read_payload
	mov	DWORD PTR configurationVersion$35[rbp], eax

; 3059 :                 unsigned int AVCProfileIndication = READ(1);

	lea	r9, QWORD PTR eof_flag$[rbp]
	lea	r8, QWORD PTR payload_bytes$2[rbp]
	mov	edx, 1
	mov	rcx, QWORD PTR mp4$[rbp]
	call	?read_payload@@YAIPEAUMP4D_demux_tag@@IPEA_KPEAH@Z ; read_payload
	mov	DWORD PTR AVCProfileIndication$36[rbp], eax

; 3060 :                 unsigned int profile_compatibility = READ(1);

	lea	r9, QWORD PTR eof_flag$[rbp]
	lea	r8, QWORD PTR payload_bytes$2[rbp]
	mov	edx, 1
	mov	rcx, QWORD PTR mp4$[rbp]
	call	?read_payload@@YAIPEAUMP4D_demux_tag@@IPEA_KPEAH@Z ; read_payload
	mov	DWORD PTR profile_compatibility$37[rbp], eax

; 3061 :                 unsigned int AVCLevelIndication = READ(1);

	lea	r9, QWORD PTR eof_flag$[rbp]
	lea	r8, QWORD PTR payload_bytes$2[rbp]
	mov	edx, 1
	mov	rcx, QWORD PTR mp4$[rbp]
	call	?read_payload@@YAIPEAUMP4D_demux_tag@@IPEA_KPEAH@Z ; read_payload
	mov	DWORD PTR AVCLevelIndication$38[rbp], eax

; 3062 :                 //bit(6) reserved =
; 3063 :                 unsigned int lengthSizeMinusOne = READ(1) & 3;

	lea	r9, QWORD PTR eof_flag$[rbp]
	lea	r8, QWORD PTR payload_bytes$2[rbp]
	mov	edx, 1
	mov	rcx, QWORD PTR mp4$[rbp]
	call	?read_payload@@YAIPEAUMP4D_demux_tag@@IPEA_KPEAH@Z ; read_payload
	and	eax, 3
	mov	DWORD PTR lengthSizeMinusOne$39[rbp], eax

; 3064 : 
; 3065 :                 (void)configurationVersion;
; 3066 :                 (void)AVCProfileIndication;
; 3067 :                 (void)profile_compatibility;
; 3068 :                 (void)AVCLevelIndication;
; 3069 :                 (void)lengthSizeMinusOne;
; 3070 : 
; 3071 :                 for (spspps = 0; spspps < 2; spspps++)

	mov	DWORD PTR spspps$33[rbp], 0
	jmp	SHORT $LN35@MP4D_open
$LN33@MP4D_open:
	mov	eax, DWORD PTR spspps$33[rbp]
	inc	eax
	mov	DWORD PTR spspps$33[rbp], eax
$LN35@MP4D_open:
	cmp	DWORD PTR spspps$33[rbp], 2
	jge	$LN34@MP4D_open

; 3072 :                 {
; 3073 :                     unsigned int numOfSequenceParameterSets = READ(1);

	lea	r9, QWORD PTR eof_flag$[rbp]
	lea	r8, QWORD PTR payload_bytes$2[rbp]
	mov	edx, 1
	mov	rcx, QWORD PTR mp4$[rbp]
	call	?read_payload@@YAIPEAUMP4D_demux_tag@@IPEA_KPEAH@Z ; read_payload
	mov	DWORD PTR numOfSequenceParameterSets$40[rbp], eax

; 3074 :                     if (!spspps)

	cmp	DWORD PTR spspps$33[rbp], 0
	jne	SHORT $LN152@MP4D_open

; 3075 :                     {
; 3076 :                         numOfSequenceParameterSets &= 31;  // clears 3 msb for SPS

	mov	eax, DWORD PTR numOfSequenceParameterSets$40[rbp]
	and	eax, 31
	mov	DWORD PTR numOfSequenceParameterSets$40[rbp], eax
$LN152@MP4D_open:

; 3077 :                     }
; 3078 :                     *p++ = numOfSequenceParameterSets;

	mov	rax, QWORD PTR p$34[rbp]
	movzx	ecx, BYTE PTR numOfSequenceParameterSets$40[rbp]
	mov	BYTE PTR [rax], cl
	mov	rax, QWORD PTR p$34[rbp]
	inc	rax
	mov	QWORD PTR p$34[rbp], rax

; 3079 :                     for (i = 0; i < numOfSequenceParameterSets; i++)

	mov	DWORD PTR i$[rbp], 0
	jmp	SHORT $LN38@MP4D_open
$LN36@MP4D_open:
	mov	eax, DWORD PTR i$[rbp]
	inc	eax
	mov	DWORD PTR i$[rbp], eax
$LN38@MP4D_open:
	mov	eax, DWORD PTR numOfSequenceParameterSets$40[rbp]
	cmp	DWORD PTR i$[rbp], eax
	jae	$LN37@MP4D_open

; 3080 :                     {
; 3081 :                         unsigned k, sequenceParameterSetLength = READ(2);

	lea	r9, QWORD PTR eof_flag$[rbp]
	lea	r8, QWORD PTR payload_bytes$2[rbp]
	mov	edx, 2
	mov	rcx, QWORD PTR mp4$[rbp]
	call	?read_payload@@YAIPEAUMP4D_demux_tag@@IPEA_KPEAH@Z ; read_payload
	mov	DWORD PTR sequenceParameterSetLength$42[rbp], eax

; 3082 :                         *p++ = sequenceParameterSetLength >> 8;

	mov	eax, DWORD PTR sequenceParameterSetLength$42[rbp]
	shr	eax, 8
	mov	rcx, QWORD PTR p$34[rbp]
	mov	BYTE PTR [rcx], al
	mov	rax, QWORD PTR p$34[rbp]
	inc	rax
	mov	QWORD PTR p$34[rbp], rax

; 3083 :                         *p++ = sequenceParameterSetLength;

	mov	rax, QWORD PTR p$34[rbp]
	movzx	ecx, BYTE PTR sequenceParameterSetLength$42[rbp]
	mov	BYTE PTR [rax], cl
	mov	rax, QWORD PTR p$34[rbp]
	inc	rax
	mov	QWORD PTR p$34[rbp], rax

; 3084 :                         for (k = 0; k < sequenceParameterSetLength; k++)

	mov	DWORD PTR k$41[rbp], 0
	jmp	SHORT $LN41@MP4D_open
$LN39@MP4D_open:
	mov	eax, DWORD PTR k$41[rbp]
	inc	eax
	mov	DWORD PTR k$41[rbp], eax
$LN41@MP4D_open:
	mov	eax, DWORD PTR sequenceParameterSetLength$42[rbp]
	cmp	DWORD PTR k$41[rbp], eax
	jae	SHORT $LN40@MP4D_open

; 3085 :                         {
; 3086 :                             *p++ = READ(1);

	lea	r9, QWORD PTR eof_flag$[rbp]
	lea	r8, QWORD PTR payload_bytes$2[rbp]
	mov	edx, 1
	mov	rcx, QWORD PTR mp4$[rbp]
	call	?read_payload@@YAIPEAUMP4D_demux_tag@@IPEA_KPEAH@Z ; read_payload
	mov	rcx, QWORD PTR p$34[rbp]
	mov	BYTE PTR [rcx], al
	mov	rax, QWORD PTR p$34[rbp]
	inc	rax
	mov	QWORD PTR p$34[rbp], rax

; 3087 :                         }

	jmp	SHORT $LN39@MP4D_open
$LN40@MP4D_open:

; 3088 :                     }

	jmp	$LN36@MP4D_open
$LN37@MP4D_open:

; 3089 :                 }

	jmp	$LN33@MP4D_open
$LN34@MP4D_open:

; 3090 :             }
; 3091 :             break;

	jmp	$LN11@MP4D_open
$LN153@MP4D_open:

; 3092 : #endif  // MP4D_AVC_SUPPORTED
; 3093 : 
; 3094 :         case OD_ESD:
; 3095 :         {
; 3096 :             unsigned flags = READ(3);   // ES_ID(2) + flags(1)

	lea	r9, QWORD PTR eof_flag$[rbp]
	lea	r8, QWORD PTR payload_bytes$2[rbp]
	mov	edx, 3
	mov	rcx, QWORD PTR mp4$[rbp]
	call	?read_payload@@YAIPEAUMP4D_demux_tag@@IPEA_KPEAH@Z ; read_payload
	mov	DWORD PTR flags$43[rbp], eax

; 3097 : 
; 3098 :             if (flags & 0x80)       // steamdependflag

	mov	eax, DWORD PTR flags$43[rbp]
	and	eax, 128				; 00000080H
	test	eax, eax
	je	SHORT $LN154@MP4D_open

; 3099 :             {
; 3100 :                 SKIP(2);            // dependsOnESID

	cmp	QWORD PTR payload_bytes$2[rbp], 2
	jae	SHORT $LN225@MP4D_open
	mov	rax, QWORD PTR payload_bytes$2[rbp]
	mov	QWORD PTR tv844[rbp], rax
	jmp	SHORT $LN226@MP4D_open
$LN225@MP4D_open:
	mov	QWORD PTR tv844[rbp], 2
$LN226@MP4D_open:
	mov	rax, QWORD PTR tv844[rbp]
	mov	QWORD PTR t$44[rbp], rax
	lea	r8, QWORD PTR eof_flag$[rbp]
	mov	rdx, QWORD PTR t$44[rbp]
	mov	rcx, QWORD PTR mp4$[rbp]
	call	?my_fseek@@YAXPEAUMP4D_demux_tag@@_KPEAH@Z ; my_fseek
	mov	rax, QWORD PTR t$44[rbp]
	mov	rcx, QWORD PTR payload_bytes$2[rbp]
	sub	rcx, rax
	mov	rax, rcx
	mov	QWORD PTR payload_bytes$2[rbp], rax
$LN154@MP4D_open:

; 3101 :             }
; 3102 :             if (flags & 0x40)       // urlflag

	mov	eax, DWORD PTR flags$43[rbp]
	and	eax, 64					; 00000040H
	test	eax, eax
	je	$LN155@MP4D_open

; 3103 :             {
; 3104 :                 unsigned bytecount = READ(1);

	lea	r9, QWORD PTR eof_flag$[rbp]
	lea	r8, QWORD PTR payload_bytes$2[rbp]
	mov	edx, 1
	mov	rcx, QWORD PTR mp4$[rbp]
	call	?read_payload@@YAIPEAUMP4D_demux_tag@@IPEA_KPEAH@Z ; read_payload
	mov	DWORD PTR bytecount$45[rbp], eax

; 3105 :                 SKIP(bytecount);    // skip URL

	mov	eax, DWORD PTR bytecount$45[rbp]
	cmp	QWORD PTR payload_bytes$2[rbp], rax
	jae	SHORT $LN227@MP4D_open
	mov	rax, QWORD PTR payload_bytes$2[rbp]
	mov	QWORD PTR tv859[rbp], rax
	jmp	SHORT $LN228@MP4D_open
$LN227@MP4D_open:
	mov	eax, DWORD PTR bytecount$45[rbp]
	mov	QWORD PTR tv859[rbp], rax
$LN228@MP4D_open:
	mov	rax, QWORD PTR tv859[rbp]
	mov	QWORD PTR t$46[rbp], rax
	lea	r8, QWORD PTR eof_flag$[rbp]
	mov	rdx, QWORD PTR t$46[rbp]
	mov	rcx, QWORD PTR mp4$[rbp]
	call	?my_fseek@@YAXPEAUMP4D_demux_tag@@_KPEAH@Z ; my_fseek
	mov	rax, QWORD PTR t$46[rbp]
	mov	rcx, QWORD PTR payload_bytes$2[rbp]
	sub	rcx, rax
	mov	rax, rcx
	mov	QWORD PTR payload_bytes$2[rbp], rax
$LN155@MP4D_open:

; 3106 :             }
; 3107 :             if (flags & 0x20)       // ocrflag (was reserved in MPEG-4 v.1)

	mov	eax, DWORD PTR flags$43[rbp]
	and	eax, 32					; 00000020H
	test	eax, eax
	je	SHORT $LN156@MP4D_open

; 3108 :             {
; 3109 :                 SKIP(2);            // OCRESID

	cmp	QWORD PTR payload_bytes$2[rbp], 2
	jae	SHORT $LN229@MP4D_open
	mov	rax, QWORD PTR payload_bytes$2[rbp]
	mov	QWORD PTR tv867[rbp], rax
	jmp	SHORT $LN230@MP4D_open
$LN229@MP4D_open:
	mov	QWORD PTR tv867[rbp], 2
$LN230@MP4D_open:
	mov	rax, QWORD PTR tv867[rbp]
	mov	QWORD PTR t$47[rbp], rax
	lea	r8, QWORD PTR eof_flag$[rbp]
	mov	rdx, QWORD PTR t$47[rbp]
	mov	rcx, QWORD PTR mp4$[rbp]
	call	?my_fseek@@YAXPEAUMP4D_demux_tag@@_KPEAH@Z ; my_fseek
	mov	rax, QWORD PTR t$47[rbp]
	mov	rcx, QWORD PTR payload_bytes$2[rbp]
	sub	rcx, rax
	mov	rax, rcx
	mov	QWORD PTR payload_bytes$2[rbp], rax
$LN156@MP4D_open:

; 3110 :             }
; 3111 :             break;

	jmp	$LN11@MP4D_open
$LN157@MP4D_open:

; 3112 :         }
; 3113 : 
; 3114 :         case OD_DCD:        //ISO/IEC 14496-1 Page 28. Section 8.6.5 - DecoderConfigDescriptor.
; 3115 :             assert(tr);     // ensured by g_fullbox[] check

	cmp	QWORD PTR tr$[rbp], 0
	jne	SHORT $LN158@MP4D_open
	call	abort
$LN158@MP4D_open:

; 3116 :             tr->object_type_indication = READ(1);

	lea	r9, QWORD PTR eof_flag$[rbp]
	lea	r8, QWORD PTR payload_bytes$2[rbp]
	mov	edx, 1
	mov	rcx, QWORD PTR mp4$[rbp]
	call	?read_payload@@YAIPEAUMP4D_demux_tag@@IPEA_KPEAH@Z ; read_payload
	mov	rcx, QWORD PTR tr$[rbp]
	mov	DWORD PTR [rcx+20], eax

; 3117 : #if MP4D_INFO_SUPPORTED
; 3118 :             tr->stream_type = READ(1) >> 2;

	lea	r9, QWORD PTR eof_flag$[rbp]
	lea	r8, QWORD PTR payload_bytes$2[rbp]
	mov	edx, 1
	mov	rcx, QWORD PTR mp4$[rbp]
	call	?read_payload@@YAIPEAUMP4D_demux_tag@@IPEA_KPEAH@Z ; read_payload
	shr	eax, 2
	mov	rcx, QWORD PTR tr$[rbp]
	mov	DWORD PTR [rcx+48], eax

; 3119 :             SKIP(3/*bufferSizeDB*/ + 4/*maxBitrate*/);

	cmp	QWORD PTR payload_bytes$2[rbp], 7
	jae	SHORT $LN231@MP4D_open
	mov	rax, QWORD PTR payload_bytes$2[rbp]
	mov	QWORD PTR tv887[rbp], rax
	jmp	SHORT $LN232@MP4D_open
$LN231@MP4D_open:
	mov	QWORD PTR tv887[rbp], 7
$LN232@MP4D_open:
	mov	rax, QWORD PTR tv887[rbp]
	mov	QWORD PTR t$48[rbp], rax
	lea	r8, QWORD PTR eof_flag$[rbp]
	mov	rdx, QWORD PTR t$48[rbp]
	mov	rcx, QWORD PTR mp4$[rbp]
	call	?my_fseek@@YAXPEAUMP4D_demux_tag@@_KPEAH@Z ; my_fseek
	mov	rax, QWORD PTR t$48[rbp]
	mov	rcx, QWORD PTR payload_bytes$2[rbp]
	sub	rcx, rax
	mov	rax, rcx
	mov	QWORD PTR payload_bytes$2[rbp], rax

; 3120 :             tr->avg_bitrate_bps = READ(4);

	lea	r9, QWORD PTR eof_flag$[rbp]
	lea	r8, QWORD PTR payload_bytes$2[rbp]
	mov	edx, 4
	mov	rcx, QWORD PTR mp4$[rbp]
	call	?read_payload@@YAIPEAUMP4D_demux_tag@@IPEA_KPEAH@Z ; read_payload
	mov	rcx, QWORD PTR tr$[rbp]
	mov	DWORD PTR [rcx+40], eax

; 3121 : #else
; 3122 :             SKIP(1 + 3 + 4 + 4);
; 3123 : #endif
; 3124 :             break;

	jmp	$LN11@MP4D_open
$LN159@MP4D_open:

; 3125 : 
; 3126 :         case OD_DSI:        //ISO/IEC 14496-1 Page 28. Section 8.6.5 - DecoderConfigDescriptor.
; 3127 :             assert(tr);     // ensured by g_fullbox[] check

	cmp	QWORD PTR tr$[rbp], 0
	jne	SHORT $LN160@MP4D_open
	call	abort
$LN160@MP4D_open:

; 3128 :             if (!tr->dsi && payload_bytes)

	mov	rax, QWORD PTR tr$[rbp]
	cmp	QWORD PTR [rax+8], 0
	jne	$LN161@MP4D_open
	cmp	QWORD PTR payload_bytes$2[rbp], 0
	je	$LN161@MP4D_open

; 3129 :             {
; 3130 :                 MALLOC(unsigned char*, tr->dsi, (int)payload_bytes);

	mov	ecx, DWORD PTR payload_bytes$2[rbp]
	call	malloc
	mov	rcx, QWORD PTR tr$[rbp]
	mov	QWORD PTR [rcx+8], rax
	mov	rax, QWORD PTR tr$[rbp]
	cmp	QWORD PTR [rax+8], 0
	jne	SHORT $LN162@MP4D_open
	cmp	DWORD PTR depth$[rbp], 0
	jne	SHORT $LN163@MP4D_open
	jmp	$LN11@MP4D_open
	jmp	SHORT $LN164@MP4D_open
$LN163@MP4D_open:
	mov	rcx, QWORD PTR mp4$[rbp]
	call	MP4D_close
	xor	eax, eax
	jmp	$LN1@MP4D_open
$LN164@MP4D_open:
$LN162@MP4D_open:

; 3131 :                 for (i = 0; i < payload_bytes; i++)

	mov	DWORD PTR i$[rbp], 0
	jmp	SHORT $LN44@MP4D_open
$LN42@MP4D_open:
	mov	eax, DWORD PTR i$[rbp]
	inc	eax
	mov	DWORD PTR i$[rbp], eax
$LN44@MP4D_open:
	mov	eax, DWORD PTR i$[rbp]
	cmp	rax, QWORD PTR payload_bytes$2[rbp]
	jae	SHORT $LN43@MP4D_open

; 3132 :                 {
; 3133 :                     tr->dsi[i] = minimp4_read(mp4, 1, &eof_flag);    // These bytes available due to check above

	lea	r8, QWORD PTR eof_flag$[rbp]
	mov	edx, 1
	mov	rcx, QWORD PTR mp4$[rbp]
	call	?minimp4_read@@YAIPEAUMP4D_demux_tag@@HPEAH@Z ; minimp4_read
	mov	ecx, DWORD PTR i$[rbp]
	mov	rdx, QWORD PTR tr$[rbp]
	mov	rdx, QWORD PTR [rdx+8]
	mov	BYTE PTR [rdx+rcx], al

; 3134 :                 }

	jmp	SHORT $LN42@MP4D_open
$LN43@MP4D_open:

; 3135 :                 tr->dsi_bytes = i;

	mov	rax, QWORD PTR tr$[rbp]
	mov	ecx, DWORD PTR i$[rbp]
	mov	DWORD PTR [rax+16], ecx

; 3136 :                 payload_bytes -= i;

	mov	eax, DWORD PTR i$[rbp]
	mov	rcx, QWORD PTR payload_bytes$2[rbp]
	sub	rcx, rax
	mov	rax, rcx
	mov	QWORD PTR payload_bytes$2[rbp], rax
$LN161@MP4D_open:
$LN165@MP4D_open:
$LN11@MP4D_open:

; 3137 :                 break;
; 3138 :             }
; 3139 : 
; 3140 :         default:
; 3141 :             TRACE(("[%c%c%c%c]  %d\n", box_name >> 24, box_name >> 16, box_name >> 8, box_name, (int)payload_bytes));
; 3142 :         }
; 3143 : 
; 3144 : #if MP4D_INFO_SUPPORTED
; 3145 :         // Read tag is tag pointer is set
; 3146 :         if (ptag && !*ptag && payload_bytes > 16)

	cmp	QWORD PTR ptag$5[rbp], 0
	je	$LN166@MP4D_open
	mov	rax, QWORD PTR ptag$5[rbp]
	cmp	QWORD PTR [rax], 0
	jne	$LN166@MP4D_open
	cmp	QWORD PTR payload_bytes$2[rbp], 16
	jbe	$LN166@MP4D_open

; 3147 :         {
; 3148 : #if 0
; 3149 :             uint32_t size = READ(4);
; 3150 :             uint32_t data = READ(4);
; 3151 :             uint32_t class = READ(4);
; 3152 :             uint32_t x1 = READ(4);
; 3153 :             TRACE(("%2d  %2d %2d ", size, class, x1));
; 3154 : #else
; 3155 :             SKIP(4 + 4 + 4 + 4);

	cmp	QWORD PTR payload_bytes$2[rbp], 16
	jae	SHORT $LN239@MP4D_open
	mov	rax, QWORD PTR payload_bytes$2[rbp]
	mov	QWORD PTR tv960[rbp], rax
	jmp	SHORT $LN240@MP4D_open
$LN239@MP4D_open:
	mov	QWORD PTR tv960[rbp], 16
$LN240@MP4D_open:
	mov	rax, QWORD PTR tv960[rbp]
	mov	QWORD PTR t$49[rbp], rax
	lea	r8, QWORD PTR eof_flag$[rbp]
	mov	rdx, QWORD PTR t$49[rbp]
	mov	rcx, QWORD PTR mp4$[rbp]
	call	?my_fseek@@YAXPEAUMP4D_demux_tag@@_KPEAH@Z ; my_fseek
	mov	rax, QWORD PTR t$49[rbp]
	mov	rcx, QWORD PTR payload_bytes$2[rbp]
	sub	rcx, rax
	mov	rax, rcx
	mov	QWORD PTR payload_bytes$2[rbp], rax

; 3156 : #endif
; 3157 :             MALLOC(unsigned char*, *ptag, (unsigned)payload_bytes + 1);

	mov	eax, DWORD PTR payload_bytes$2[rbp]
	inc	eax
	mov	ecx, eax
	call	malloc
	mov	rcx, QWORD PTR ptag$5[rbp]
	mov	QWORD PTR [rcx], rax
	mov	rax, QWORD PTR ptag$5[rbp]
	cmp	QWORD PTR [rax], 0
	jne	SHORT $LN167@MP4D_open
	cmp	DWORD PTR depth$[rbp], 0
	jne	SHORT $LN168@MP4D_open
	jmp	$LN3@MP4D_open
	jmp	SHORT $LN169@MP4D_open
$LN168@MP4D_open:
	mov	rcx, QWORD PTR mp4$[rbp]
	call	MP4D_close
	xor	eax, eax
	jmp	$LN1@MP4D_open
$LN169@MP4D_open:
$LN167@MP4D_open:

; 3158 :             for (i = 0; payload_bytes != 0; i++)

	mov	DWORD PTR i$[rbp], 0
	jmp	SHORT $LN47@MP4D_open
$LN45@MP4D_open:
	mov	eax, DWORD PTR i$[rbp]
	inc	eax
	mov	DWORD PTR i$[rbp], eax
$LN47@MP4D_open:
	cmp	QWORD PTR payload_bytes$2[rbp], 0
	je	SHORT $LN46@MP4D_open

; 3159 :             {
; 3160 :                 (*ptag)[i] = READ(1);

	lea	r9, QWORD PTR eof_flag$[rbp]
	lea	r8, QWORD PTR payload_bytes$2[rbp]
	mov	edx, 1
	mov	rcx, QWORD PTR mp4$[rbp]
	call	?read_payload@@YAIPEAUMP4D_demux_tag@@IPEA_KPEAH@Z ; read_payload
	mov	ecx, DWORD PTR i$[rbp]
	mov	rdx, QWORD PTR ptag$5[rbp]
	mov	rdx, QWORD PTR [rdx]
	mov	BYTE PTR [rdx+rcx], al

; 3161 :             }

	jmp	SHORT $LN45@MP4D_open
$LN46@MP4D_open:

; 3162 :             (*ptag)[i] = 0; // zero-terminated string

	mov	eax, DWORD PTR i$[rbp]
	mov	rcx, QWORD PTR ptag$5[rbp]
	mov	rcx, QWORD PTR [rcx]
	mov	BYTE PTR [rcx+rax], 0
$LN166@MP4D_open:

; 3163 :         }
; 3164 : #endif
; 3165 : 
; 3166 :         if (box_name == BOX_trak)

	cmp	DWORD PTR box_name$4[rbp], 1953653099	; 7472616bH
	jne	$LN170@MP4D_open

; 3167 :         {
; 3168 :             // New track found: allocate memory using realloc()
; 3169 :             // Typically there are 1 audio track for AAC audio file,
; 3170 :             // 4 tracks for movie file,
; 3171 :             // 3-5 tracks for scalable audio (CELP+AAC)
; 3172 :             // and up to 50 tracks for BSAC scalable audio
; 3173 :             void* mem = realloc(mp4->track, (mp4->track_count + 1) * sizeof(MP4D_track_t));

	mov	rax, QWORD PTR mp4$[rbp]
	mov	eax, DWORD PTR [rax+40]
	inc	eax
	mov	eax, eax
	imul	rax, rax, 120				; 00000078H
	mov	edx, eax
	mov	rax, QWORD PTR mp4$[rbp]
	mov	rcx, QWORD PTR [rax+16]
	call	realloc
	mov	QWORD PTR mem$50[rbp], rax

; 3174 :             if (!mem)

	cmp	QWORD PTR mem$50[rbp], 0
	jne	SHORT $LN172@MP4D_open

; 3175 :             {
; 3176 :                 // if realloc fails, it does not deallocate old pointer!
; 3177 :                 ERROR("out of memory");

	cmp	DWORD PTR depth$[rbp], 0
	jne	SHORT $LN173@MP4D_open
	jmp	$LN3@MP4D_open
	jmp	SHORT $LN174@MP4D_open
$LN173@MP4D_open:
	mov	rcx, QWORD PTR mp4$[rbp]
	call	MP4D_close
	xor	eax, eax
	jmp	$LN1@MP4D_open
$LN174@MP4D_open:
$LN172@MP4D_open:

; 3178 :             }
; 3179 :             mp4->track = (MP4D_track_t*)mem;

	mov	rax, QWORD PTR mp4$[rbp]
	mov	rcx, QWORD PTR mem$50[rbp]
	mov	QWORD PTR [rax+16], rcx

; 3180 :             tr = mp4->track + mp4->track_count++;

	mov	rax, QWORD PTR mp4$[rbp]
	mov	eax, DWORD PTR [rax+40]
	imul	rax, rax, 120				; 00000078H
	mov	rcx, QWORD PTR mp4$[rbp]
	add	rax, QWORD PTR [rcx+16]
	mov	QWORD PTR tr$[rbp], rax
	mov	rax, QWORD PTR mp4$[rbp]
	mov	eax, DWORD PTR [rax+40]
	inc	eax
	mov	rcx, QWORD PTR mp4$[rbp]
	mov	DWORD PTR [rcx+40], eax

; 3181 :             memset(tr, 0, sizeof(MP4D_track_t));

	mov	r8d, 120				; 00000078H
	xor	edx, edx
	mov	rcx, QWORD PTR tr$[rbp]
	call	memset

; 3182 :         }

	jmp	SHORT $LN171@MP4D_open
$LN170@MP4D_open:

; 3183 :         else if (box_name == BOX_meta)

	cmp	DWORD PTR box_name$4[rbp], 1835365473	; 6d657461H
	jne	SHORT $LN175@MP4D_open

; 3184 :         {
; 3185 :             tr = NULL;  // Avoid update of 'hdlr' box, which may contains in the 'meta' box

	mov	QWORD PTR tr$[rbp], 0
$LN175@MP4D_open:
$LN171@MP4D_open:

; 3186 :         }
; 3187 : 
; 3188 :         // If this box is envelope, save it's size in box stack
; 3189 :         for (i = 0; i < NELEM(g_envelope_box); i++)

	mov	DWORD PTR i$[rbp], 0
	jmp	SHORT $LN50@MP4D_open
$LN48@MP4D_open:
	mov	eax, DWORD PTR i$[rbp]
	inc	eax
	mov	DWORD PTR i$[rbp], eax
$LN50@MP4D_open:
	mov	eax, DWORD PTR i$[rbp]
	cmp	rax, 20
	jae	SHORT $LN49@MP4D_open

; 3190 :         {
; 3191 :             if (box_name == g_envelope_box[i].name)

	mov	eax, DWORD PTR i$[rbp]
	lea	rcx, OFFSET FLAT:?g_envelope_box@?6??MP4D_open@@9@4QBU<unnamed-type-g_envelope_box>@?6??1@YAHPEAUMP4D_demux_tag@@P6AH_JPEAX_K2@Z21@Z@B
	mov	eax, DWORD PTR [rcx+rax*8]
	cmp	DWORD PTR box_name$4[rbp], eax
	jne	SHORT $LN176@MP4D_open

; 3192 :             {
; 3193 :                 if (++depth >= MAX_CHUNKS_DEPTH)

	mov	eax, DWORD PTR depth$[rbp]
	inc	eax
	mov	DWORD PTR depth$[rbp], eax
	cmp	DWORD PTR depth$[rbp], 64		; 00000040H
	jl	SHORT $LN177@MP4D_open

; 3194 :                 {
; 3195 :                     ERROR("too deep atoms nesting!");

	cmp	DWORD PTR depth$[rbp], 0
	jne	SHORT $LN178@MP4D_open
	jmp	SHORT $LN49@MP4D_open
	jmp	SHORT $LN179@MP4D_open
$LN178@MP4D_open:
	mov	rcx, QWORD PTR mp4$[rbp]
	call	MP4D_close
	xor	eax, eax
	jmp	$LN1@MP4D_open
$LN179@MP4D_open:
$LN177@MP4D_open:

; 3196 :                 }
; 3197 :                 stack[depth].bytes = payload_bytes;

	movsxd	rax, DWORD PTR depth$[rbp]
	imul	rax, rax, 16
	mov	rcx, QWORD PTR payload_bytes$2[rbp]
	mov	QWORD PTR stack$[rbp+rax], rcx

; 3198 :                 stack[depth].format = g_envelope_box[i].type;

	mov	eax, DWORD PTR i$[rbp]
	lea	rcx, OFFSET FLAT:?g_envelope_box@?6??MP4D_open@@9@4QBU<unnamed-type-g_envelope_box>@?6??1@YAHPEAUMP4D_demux_tag@@P6AH_JPEAX_K2@Z21@Z@B
	movsxd	rdx, DWORD PTR depth$[rbp]
	imul	rdx, rdx, 16
	mov	eax, DWORD PTR [rcx+rax*8+4]
	mov	DWORD PTR stack$[rbp+rdx+8], eax

; 3199 :                 break;

	jmp	SHORT $LN49@MP4D_open
$LN176@MP4D_open:

; 3200 :             }
; 3201 :         }

	jmp	$LN48@MP4D_open
$LN49@MP4D_open:

; 3202 : 
; 3203 :         // if box is not envelope, just skip it
; 3204 :         if (i == NELEM(g_envelope_box))

	mov	eax, DWORD PTR i$[rbp]
	cmp	rax, 20
	jne	$LN180@MP4D_open

; 3205 :         {
; 3206 :             if (payload_bytes > file_size)

	mov	rax, QWORD PTR file_size$[rbp]
	cmp	QWORD PTR payload_bytes$2[rbp], rax
	jbe	SHORT $LN181@MP4D_open

; 3207 :             {
; 3208 :                 eof_flag = 1;

	mov	DWORD PTR eof_flag$[rbp], 1

; 3209 :             }

	jmp	SHORT $LN182@MP4D_open
$LN181@MP4D_open:

; 3210 :             else
; 3211 :             {
; 3212 :                 SKIP(payload_bytes);

	mov	rax, QWORD PTR payload_bytes$2[rbp]
	cmp	QWORD PTR payload_bytes$2[rbp], rax
	jae	SHORT $LN241@MP4D_open
	mov	rax, QWORD PTR payload_bytes$2[rbp]
	mov	QWORD PTR tv1039[rbp], rax
	jmp	SHORT $LN242@MP4D_open
$LN241@MP4D_open:
	mov	rax, QWORD PTR payload_bytes$2[rbp]
	mov	QWORD PTR tv1039[rbp], rax
$LN242@MP4D_open:
	mov	rax, QWORD PTR tv1039[rbp]
	mov	QWORD PTR t$51[rbp], rax
	lea	r8, QWORD PTR eof_flag$[rbp]
	mov	rdx, QWORD PTR t$51[rbp]
	mov	rcx, QWORD PTR mp4$[rbp]
	call	?my_fseek@@YAXPEAUMP4D_demux_tag@@_KPEAH@Z ; my_fseek
	mov	rax, QWORD PTR t$51[rbp]
	mov	rcx, QWORD PTR payload_bytes$2[rbp]
	sub	rcx, rax
	mov	rax, rcx
	mov	QWORD PTR payload_bytes$2[rbp], rax
$LN182@MP4D_open:
$LN180@MP4D_open:
$LN51@MP4D_open:

; 3213 :             }
; 3214 :         }
; 3215 : 
; 3216 :         // remove empty boxes from stack
; 3217 :         // don't touch box with index 0 (which indicates whole file)
; 3218 :         while (depth > 0 && !stack[depth].bytes)

	cmp	DWORD PTR depth$[rbp], 0
	jle	SHORT $LN52@MP4D_open
	movsxd	rax, DWORD PTR depth$[rbp]
	imul	rax, rax, 16
	cmp	QWORD PTR stack$[rbp+rax], 0
	jne	SHORT $LN52@MP4D_open

; 3219 :         {
; 3220 :             depth--;

	mov	eax, DWORD PTR depth$[rbp]
	dec	eax
	mov	DWORD PTR depth$[rbp], eax

; 3221 :         }

	jmp	SHORT $LN51@MP4D_open
$LN52@MP4D_open:

; 3222 : 
; 3223 :     } while (!eof_flag);

	cmp	DWORD PTR eof_flag$[rbp], 0
	je	$LN4@MP4D_open
$LN3@MP4D_open:

; 3224 : 
; 3225 :     if (!mp4->track_count)

	mov	rax, QWORD PTR mp4$[rbp]
	cmp	DWORD PTR [rax+40], 0
	jne	SHORT $LN183@MP4D_open

; 3226 :     {
; 3227 :         RETURN_ERROR("no tracks found");

	mov	rcx, QWORD PTR mp4$[rbp]
	call	MP4D_close
	xor	eax, eax
	jmp	SHORT $LN1@MP4D_open
$LN183@MP4D_open:

; 3228 :     }
; 3229 :     return 1;

	mov	eax, 1
$LN1@MP4D_open:

; 3230 : }

	lea	rsp, QWORD PTR [rbp+1600]
	pop	rbp
	ret	0
MP4D_open ENDP
_TEXT	ENDS
; Function compile flags: /Odtp /ZI
; File C:\Users\paras\source\repos\grep-name\XenevaOS\Process\AudioPlayer\minimp4.h
;	COMDAT mp4_h26x_write_nal
_TEXT	SEGMENT
eof$ = 0
payload_type$ = 8
sizeof_nal$ = 12
err$ = 16
nal1$1 = 24
nal2$2 = 32
err$3 = 40
bs$4 = 48
first_mb_in_slice$5 = 80
sample_kind$6 = 84
tv149 = 152
h$ = 176
nal$ = 184
length$ = 192
timeStamp90kHz_next$ = 200
mp4_h26x_write_nal PROC					; COMDAT

; 2343 : {

$LN27:
	mov	DWORD PTR [rsp+32], r9d
	mov	DWORD PTR [rsp+24], r8d
	mov	QWORD PTR [rsp+16], rdx
	mov	QWORD PTR [rsp+8], rcx
	push	rbp
	sub	rsp, 208				; 000000d0H
	lea	rbp, QWORD PTR [rsp+48]

; 2344 :     const unsigned char* eof = nal + length;

	movsxd	rax, DWORD PTR length$[rbp]
	mov	rcx, QWORD PTR nal$[rbp]
	add	rcx, rax
	mov	rax, rcx
	mov	QWORD PTR eof$[rbp], rax

; 2345 :     int payload_type, sizeof_nal, err = MP4E_STATUS_OK;

	mov	DWORD PTR err$[rbp], 0
	jmp	SHORT $LN4@mp4_h26x_w
$LN2@mp4_h26x_w:

; 2346 :     for (;; nal++)

	mov	rax, QWORD PTR nal$[rbp]
	inc	rax
	mov	QWORD PTR nal$[rbp], rax
$LN4@mp4_h26x_w:

; 2347 :     {
; 2348 : #if MINIMP4_TRANSCODE_SPS_ID
; 2349 :         unsigned char* nal1, * nal2;
; 2350 : #endif
; 2351 :         nal = find_nal_unit(nal, (int)(eof - nal), &sizeof_nal);

	mov	rax, QWORD PTR nal$[rbp]
	mov	rcx, QWORD PTR eof$[rbp]
	sub	rcx, rax
	mov	rax, rcx
	lea	r8, QWORD PTR sizeof_nal$[rbp]
	mov	edx, eax
	mov	rcx, QWORD PTR nal$[rbp]
	call	?find_nal_unit@@YAPEBEPEBEHPEAH@Z	; find_nal_unit
	mov	QWORD PTR nal$[rbp], rax

; 2352 :         if (!sizeof_nal)

	cmp	DWORD PTR sizeof_nal$[rbp], 0
	jne	SHORT $LN7@mp4_h26x_w

; 2353 :             break;

	jmp	$LN3@mp4_h26x_w
$LN7@mp4_h26x_w:

; 2354 :         if (h->is_hevc)

	mov	rax, QWORD PTR h$[rbp]
	cmp	DWORD PTR [rax+4620], 0
	je	SHORT $LN8@mp4_h26x_w

; 2355 :         {
; 2356 :             ERR(mp4_h265_write_nal(h, nal, sizeof_nal, timeStamp90kHz_next));

	mov	r9d, DWORD PTR timeStamp90kHz_next$[rbp]
	mov	r8d, DWORD PTR sizeof_nal$[rbp]
	mov	rdx, QWORD PTR nal$[rbp]
	mov	rcx, QWORD PTR h$[rbp]
	call	?mp4_h265_write_nal@@YAHPEAUmp4_h26x_writer_tag@@PEBEHI@Z ; mp4_h265_write_nal
	mov	DWORD PTR err$3[rbp], eax
	cmp	DWORD PTR err$3[rbp], 0
	je	SHORT $LN9@mp4_h26x_w
	mov	eax, DWORD PTR err$3[rbp]
	jmp	$LN1@mp4_h26x_w
$LN9@mp4_h26x_w:

; 2357 :             continue;

	jmp	$LN2@mp4_h26x_w
$LN8@mp4_h26x_w:

; 2358 :         }
; 2359 :         payload_type = nal[0] & 31;

	mov	eax, 1
	imul	rax, rax, 0
	mov	rcx, QWORD PTR nal$[rbp]
	movzx	eax, BYTE PTR [rcx+rax]
	and	eax, 31
	mov	DWORD PTR payload_type$[rbp], eax

; 2360 :         if (9 == payload_type)

	cmp	DWORD PTR payload_type$[rbp], 9
	jne	SHORT $LN10@mp4_h26x_w

; 2361 :             continue;  // access unit delimiter, nothing to be done

	jmp	$LN2@mp4_h26x_w
$LN10@mp4_h26x_w:

; 2362 : #if MINIMP4_TRANSCODE_SPS_ID
; 2363 :         // Transcode SPS, PPS and slice headers, reassigning ID's for SPS and  PPS:
; 2364 :         // - assign unique ID's to different SPS and PPS
; 2365 :         // - assign same ID's to equal (except ID) SPS and PPS
; 2366 :         // - save all different SPS and PPS
; 2367 :         nal1 = (unsigned char*)malloc(sizeof_nal * 17 / 16 + 32);

	imul	eax, DWORD PTR sizeof_nal$[rbp], 17
	cdq
	and	edx, 15
	add	eax, edx
	sar	eax, 4
	add	eax, 32					; 00000020H
	mov	ecx, eax
	call	malloc
	mov	QWORD PTR nal1$1[rbp], rax

; 2368 :         if (!nal1)

	cmp	QWORD PTR nal1$1[rbp], 0
	jne	SHORT $LN11@mp4_h26x_w

; 2369 :             return MP4E_STATUS_NO_MEMORY;

	mov	eax, -2
	jmp	$LN1@mp4_h26x_w
$LN11@mp4_h26x_w:

; 2370 :         nal2 = (unsigned char*)malloc(sizeof_nal * 17 / 16 + 32);

	imul	eax, DWORD PTR sizeof_nal$[rbp], 17
	cdq
	and	edx, 15
	add	eax, edx
	sar	eax, 4
	add	eax, 32					; 00000020H
	mov	ecx, eax
	call	malloc
	mov	QWORD PTR nal2$2[rbp], rax

; 2371 :         if (!nal2)

	cmp	QWORD PTR nal2$2[rbp], 0
	jne	SHORT $LN12@mp4_h26x_w

; 2372 :         {
; 2373 :             free(nal1);

	mov	rcx, QWORD PTR nal1$1[rbp]
	call	free

; 2374 :             return MP4E_STATUS_NO_MEMORY;

	mov	eax, -2
	jmp	$LN1@mp4_h26x_w
$LN12@mp4_h26x_w:

; 2375 :         }
; 2376 :         sizeof_nal = remove_nal_escapes(nal2, nal, sizeof_nal);

	mov	r8d, DWORD PTR sizeof_nal$[rbp]
	mov	rdx, QWORD PTR nal$[rbp]
	mov	rcx, QWORD PTR nal2$2[rbp]
	call	?remove_nal_escapes@@YAHPEAEPEBEH@Z	; remove_nal_escapes
	mov	DWORD PTR sizeof_nal$[rbp], eax

; 2377 :         if (!sizeof_nal)

	cmp	DWORD PTR sizeof_nal$[rbp], 0
	jne	SHORT $LN13@mp4_h26x_w
$exit_with_free$28:

; 2378 :         {
; 2379 :         exit_with_free:
; 2380 :             free(nal1);

	mov	rcx, QWORD PTR nal1$1[rbp]
	call	free

; 2381 :             free(nal2);

	mov	rcx, QWORD PTR nal2$2[rbp]
	call	free

; 2382 :             return MP4E_STATUS_BAD_ARGUMENTS;

	mov	eax, -1
	jmp	$LN1@mp4_h26x_w
$LN13@mp4_h26x_w:

; 2383 :         }
; 2384 : 
; 2385 :         sizeof_nal = transcode_nalu(&h->sps_patcher, nal2, sizeof_nal, nal1);

	mov	rax, QWORD PTR h$[rbp]
	mov	r9, QWORD PTR nal1$1[rbp]
	mov	r8d, DWORD PTR sizeof_nal$[rbp]
	mov	rdx, QWORD PTR nal2$2[rbp]
	mov	rcx, rax
	call	?transcode_nalu@@YAHPEAUh264_sps_id_patcher_t@@PEBEHPEAE@Z ; transcode_nalu
	mov	DWORD PTR sizeof_nal$[rbp], eax

; 2386 :         sizeof_nal = nal_put_esc(nal2, nal1, sizeof_nal);

	mov	r8d, DWORD PTR sizeof_nal$[rbp]
	mov	rdx, QWORD PTR nal1$1[rbp]
	mov	rcx, QWORD PTR nal2$2[rbp]
	call	?nal_put_esc@@YAHPEAEPEBEH@Z		; nal_put_esc
	mov	DWORD PTR sizeof_nal$[rbp], eax

; 2387 : 
; 2388 :         switch (payload_type) {

	mov	eax, DWORD PTR payload_type$[rbp]
	mov	DWORD PTR tv149[rbp], eax
	cmp	DWORD PTR tv149[rbp], 5
	je	$LN17@mp4_h26x_w
	cmp	DWORD PTR tv149[rbp], 7
	je	SHORT $LN14@mp4_h26x_w
	cmp	DWORD PTR tv149[rbp], 8
	je	SHORT $LN15@mp4_h26x_w
	jmp	$LN19@mp4_h26x_w
$LN14@mp4_h26x_w:

; 2389 :         case 7:
; 2390 :             MP4E_set_sps(h->mux, h->mux_track_id, nal2 + 4, sizeof_nal - 4);

	mov	eax, DWORD PTR sizeof_nal$[rbp]
	sub	eax, 4
	mov	rcx, QWORD PTR nal2$2[rbp]
	add	rcx, 4
	mov	r9d, eax
	mov	r8, rcx
	mov	rax, QWORD PTR h$[rbp]
	mov	edx, DWORD PTR [rax+4616]
	mov	rax, QWORD PTR h$[rbp]
	mov	rcx, QWORD PTR [rax+4608]
	call	MP4E_set_sps

; 2391 :             h->need_sps = 0;

	mov	rax, QWORD PTR h$[rbp]
	mov	DWORD PTR [rax+4628], 0

; 2392 :             break;

	jmp	$LN5@mp4_h26x_w
$LN15@mp4_h26x_w:

; 2393 :         case 8:
; 2394 :             if (h->need_sps)

	mov	rax, QWORD PTR h$[rbp]
	cmp	DWORD PTR [rax+4628], 0
	je	SHORT $LN16@mp4_h26x_w

; 2395 :                 goto exit_with_free;

	jmp	$exit_with_free$28
$LN16@mp4_h26x_w:

; 2396 :             MP4E_set_pps(h->mux, h->mux_track_id, nal2 + 4, sizeof_nal - 4);

	mov	eax, DWORD PTR sizeof_nal$[rbp]
	sub	eax, 4
	mov	rcx, QWORD PTR nal2$2[rbp]
	add	rcx, 4
	mov	r9d, eax
	mov	r8, rcx
	mov	rax, QWORD PTR h$[rbp]
	mov	edx, DWORD PTR [rax+4616]
	mov	rax, QWORD PTR h$[rbp]
	mov	rcx, QWORD PTR [rax+4608]
	call	MP4E_set_pps

; 2397 :             h->need_pps = 0;

	mov	rax, QWORD PTR h$[rbp]
	mov	DWORD PTR [rax+4632], 0

; 2398 :             break;

	jmp	$LN5@mp4_h26x_w
$LN17@mp4_h26x_w:

; 2399 :         case 5:
; 2400 :             if (h->need_sps)

	mov	rax, QWORD PTR h$[rbp]
	cmp	DWORD PTR [rax+4628], 0
	je	SHORT $LN18@mp4_h26x_w

; 2401 :                 goto exit_with_free;

	jmp	$exit_with_free$28
$LN18@mp4_h26x_w:

; 2402 :             h->need_idr = 0;

	mov	rax, QWORD PTR h$[rbp]
	mov	DWORD PTR [rax+4636], 0
$LN19@mp4_h26x_w:

; 2403 :             // flow through
; 2404 :         default:
; 2405 :             if (h->need_sps)

	mov	rax, QWORD PTR h$[rbp]
	cmp	DWORD PTR [rax+4628], 0
	je	SHORT $LN20@mp4_h26x_w

; 2406 :                 goto exit_with_free;

	jmp	$exit_with_free$28
$LN20@mp4_h26x_w:

; 2407 :             if (!h->need_pps && !h->need_idr)

	mov	rax, QWORD PTR h$[rbp]
	cmp	DWORD PTR [rax+4632], 0
	jne	$LN21@mp4_h26x_w
	mov	rax, QWORD PTR h$[rbp]
	cmp	DWORD PTR [rax+4636], 0
	jne	$LN21@mp4_h26x_w

; 2408 :             {
; 2409 :                 bit_reader_t bs[1];
; 2410 :                 init_bits(bs, nal + 1, sizeof_nal - 4 - 1);

	mov	eax, DWORD PTR sizeof_nal$[rbp]
	sub	eax, 5
	mov	rcx, QWORD PTR nal$[rbp]
	inc	rcx
	mov	r8d, eax
	mov	rdx, rcx
	lea	rcx, QWORD PTR bs$4[rbp]
	call	?init_bits@@YAXPEAUbit_reader_t@@PEBXI@Z ; init_bits

; 2411 :                 unsigned first_mb_in_slice = ue_bits(bs);

	lea	rcx, QWORD PTR bs$4[rbp]
	call	?ue_bits@@YAHPEAUbit_reader_t@@@Z	; ue_bits
	mov	DWORD PTR first_mb_in_slice$5[rbp], eax

; 2412 :                 //unsigned slice_type = ue_bits(bs);
; 2413 :                 int sample_kind = MP4E_SAMPLE_DEFAULT;

	mov	DWORD PTR sample_kind$6[rbp], 0

; 2414 :                 nal2[0] = (unsigned char)((sizeof_nal - 4) >> 24);

	mov	eax, DWORD PTR sizeof_nal$[rbp]
	sub	eax, 4
	sar	eax, 24
	mov	ecx, 1
	imul	rcx, rcx, 0
	mov	rdx, QWORD PTR nal2$2[rbp]
	mov	BYTE PTR [rdx+rcx], al

; 2415 :                 nal2[1] = (unsigned char)((sizeof_nal - 4) >> 16);

	mov	eax, DWORD PTR sizeof_nal$[rbp]
	sub	eax, 4
	sar	eax, 16
	mov	ecx, 1
	imul	rcx, rcx, 1
	mov	rdx, QWORD PTR nal2$2[rbp]
	mov	BYTE PTR [rdx+rcx], al

; 2416 :                 nal2[2] = (unsigned char)((sizeof_nal - 4) >> 8);

	mov	eax, DWORD PTR sizeof_nal$[rbp]
	sub	eax, 4
	sar	eax, 8
	mov	ecx, 1
	imul	rcx, rcx, 2
	mov	rdx, QWORD PTR nal2$2[rbp]
	mov	BYTE PTR [rdx+rcx], al

; 2417 :                 nal2[3] = (unsigned char)((sizeof_nal - 4));

	mov	eax, DWORD PTR sizeof_nal$[rbp]
	sub	eax, 4
	mov	ecx, 1
	imul	rcx, rcx, 3
	mov	rdx, QWORD PTR nal2$2[rbp]
	mov	BYTE PTR [rdx+rcx], al

; 2418 :                 if (first_mb_in_slice)

	cmp	DWORD PTR first_mb_in_slice$5[rbp], 0
	je	SHORT $LN22@mp4_h26x_w

; 2419 :                     sample_kind = MP4E_SAMPLE_CONTINUATION;

	mov	DWORD PTR sample_kind$6[rbp], 2
	jmp	SHORT $LN23@mp4_h26x_w
$LN22@mp4_h26x_w:

; 2420 :                 else if (payload_type == 5)

	cmp	DWORD PTR payload_type$[rbp], 5
	jne	SHORT $LN24@mp4_h26x_w

; 2421 :                     sample_kind = MP4E_SAMPLE_RANDOM_ACCESS;

	mov	DWORD PTR sample_kind$6[rbp], 1
$LN24@mp4_h26x_w:
$LN23@mp4_h26x_w:

; 2422 :                 err = MP4E_put_sample(h->mux, h->mux_track_id, nal2, sizeof_nal, timeStamp90kHz_next, sample_kind);

	mov	eax, DWORD PTR sample_kind$6[rbp]
	mov	DWORD PTR [rsp+40], eax
	mov	eax, DWORD PTR timeStamp90kHz_next$[rbp]
	mov	DWORD PTR [rsp+32], eax
	mov	r9d, DWORD PTR sizeof_nal$[rbp]
	mov	r8, QWORD PTR nal2$2[rbp]
	mov	rax, QWORD PTR h$[rbp]
	mov	edx, DWORD PTR [rax+4616]
	mov	rax, QWORD PTR h$[rbp]
	mov	rcx, QWORD PTR [rax+4608]
	call	MP4E_put_sample
	mov	DWORD PTR err$[rbp], eax
$LN21@mp4_h26x_w:
$LN5@mp4_h26x_w:

; 2423 :             }
; 2424 :             break;
; 2425 :         }
; 2426 :         free(nal1);

	mov	rcx, QWORD PTR nal1$1[rbp]
	call	free

; 2427 :         free(nal2);

	mov	rcx, QWORD PTR nal2$2[rbp]
	call	free

; 2428 : #else
; 2429 :         // No SPS/PPS transcoding
; 2430 :         // This branch assumes that encoder use correct SPS/PPS ID's
; 2431 :         switch (payload_type) {
; 2432 :         case 7:
; 2433 :             MP4E_set_sps(h->mux, h->mux_track_id, nal, sizeof_nal);
; 2434 :             h->need_sps = 0;
; 2435 :             break;
; 2436 :         case 8:
; 2437 :             MP4E_set_pps(h->mux, h->mux_track_id, nal, sizeof_nal);
; 2438 :             h->need_pps = 0;
; 2439 :             break;
; 2440 :         case 5:
; 2441 :             if (h->need_sps)
; 2442 :                 return MP4E_STATUS_BAD_ARGUMENTS;
; 2443 :             h->need_idr = 0;
; 2444 :             // flow through
; 2445 :         default:
; 2446 :             if (h->need_sps)
; 2447 :                 return MP4E_STATUS_BAD_ARGUMENTS;
; 2448 :             if (!h->need_pps && !h->need_idr)
; 2449 :             {
; 2450 :                 bit_reader_t bs[1];
; 2451 :                 unsigned char* tmp = (unsigned char*)malloc(4 + sizeof_nal);
; 2452 :                 if (!tmp)
; 2453 :                     return MP4E_STATUS_NO_MEMORY;
; 2454 :                 init_bits(bs, nal + 1, sizeof_nal - 1);
; 2455 :                 unsigned first_mb_in_slice = ue_bits(bs);
; 2456 :                 int sample_kind = MP4E_SAMPLE_DEFAULT;
; 2457 :                 tmp[0] = (unsigned char)(sizeof_nal >> 24);
; 2458 :                 tmp[1] = (unsigned char)(sizeof_nal >> 16);
; 2459 :                 tmp[2] = (unsigned char)(sizeof_nal >> 8);
; 2460 :                 tmp[3] = (unsigned char)(sizeof_nal);
; 2461 :                 memcpy(tmp + 4, nal, sizeof_nal);
; 2462 :                 if (first_mb_in_slice)
; 2463 :                     sample_kind = MP4E_SAMPLE_CONTINUATION;
; 2464 :                 else if (payload_type == 5)
; 2465 :                     sample_kind = MP4E_SAMPLE_RANDOM_ACCESS;
; 2466 :                 err = MP4E_put_sample(h->mux, h->mux_track_id, tmp, 4 + sizeof_nal, timeStamp90kHz_next, sample_kind);
; 2467 :                 free(tmp);
; 2468 :             }
; 2469 :             break;
; 2470 :         }
; 2471 : #endif
; 2472 :         if (err)

	cmp	DWORD PTR err$[rbp], 0
	je	SHORT $LN25@mp4_h26x_w

; 2473 :             break;

	jmp	SHORT $LN3@mp4_h26x_w
$LN25@mp4_h26x_w:

; 2474 :     }

	jmp	$LN2@mp4_h26x_w
$LN3@mp4_h26x_w:

; 2475 :     return err;

	mov	eax, DWORD PTR err$[rbp]
$LN1@mp4_h26x_w:

; 2476 : }

	lea	rsp, QWORD PTR [rbp+160]
	pop	rbp
	ret	0
mp4_h26x_write_nal ENDP
_TEXT	ENDS
; Function compile flags: /Odtp /ZI
; File C:\Users\paras\source\repos\grep-name\XenevaOS\Process\AudioPlayer\minimp4.h
;	COMDAT mp4_h26x_write_close
_TEXT	SEGMENT
p$ = 0
i$ = 8
h$ = 96
mp4_h26x_write_close PROC				; COMDAT

; 2278 : {

$LN11:
	mov	QWORD PTR [rsp+8], rcx
	push	rbp
	sub	rsp, 112				; 00000070H
	lea	rbp, QWORD PTR [rsp+32]

; 2279 : #if MINIMP4_TRANSCODE_SPS_ID
; 2280 :     h264_sps_id_patcher_t* p = &h->sps_patcher;

	mov	rax, QWORD PTR h$[rbp]
	mov	QWORD PTR p$[rbp], rax

; 2281 :     int i;
; 2282 :     for (i = 0; i < MINIMP4_MAX_SPS; i++)

	mov	DWORD PTR i$[rbp], 0
	jmp	SHORT $LN4@mp4_h26x_w
$LN2@mp4_h26x_w:
	mov	eax, DWORD PTR i$[rbp]
	inc	eax
	mov	DWORD PTR i$[rbp], eax
$LN4@mp4_h26x_w:
	cmp	DWORD PTR i$[rbp], 32			; 00000020H
	jge	SHORT $LN3@mp4_h26x_w

; 2283 :     {
; 2284 :         if (p->sps_cache[i])

	movsxd	rax, DWORD PTR i$[rbp]
	mov	rcx, QWORD PTR p$[rbp]
	cmp	QWORD PTR [rcx+rax*8], 0
	je	SHORT $LN8@mp4_h26x_w

; 2285 :             free(p->sps_cache[i]);

	movsxd	rax, DWORD PTR i$[rbp]
	mov	rcx, QWORD PTR p$[rbp]
	mov	rcx, QWORD PTR [rcx+rax*8]
	call	free
$LN8@mp4_h26x_w:

; 2286 :     }

	jmp	SHORT $LN2@mp4_h26x_w
$LN3@mp4_h26x_w:

; 2287 :     for (i = 0; i < MINIMP4_MAX_PPS; i++)

	mov	DWORD PTR i$[rbp], 0
	jmp	SHORT $LN7@mp4_h26x_w
$LN5@mp4_h26x_w:
	mov	eax, DWORD PTR i$[rbp]
	inc	eax
	mov	DWORD PTR i$[rbp], eax
$LN7@mp4_h26x_w:
	cmp	DWORD PTR i$[rbp], 256			; 00000100H
	jge	SHORT $LN6@mp4_h26x_w

; 2288 :     {
; 2289 :         if (p->pps_cache[i])

	movsxd	rax, DWORD PTR i$[rbp]
	mov	rcx, QWORD PTR p$[rbp]
	cmp	QWORD PTR [rcx+rax*8+256], 0
	je	SHORT $LN9@mp4_h26x_w

; 2290 :             free(p->pps_cache[i]);

	movsxd	rax, DWORD PTR i$[rbp]
	mov	rcx, QWORD PTR p$[rbp]
	mov	rcx, QWORD PTR [rcx+rax*8+256]
	call	free
$LN9@mp4_h26x_w:

; 2291 :     }

	jmp	SHORT $LN5@mp4_h26x_w
$LN6@mp4_h26x_w:

; 2292 : #endif
; 2293 :     memset(h, 0, sizeof(*h));

	mov	r8d, 4640				; 00001220H
	xor	edx, edx
	mov	rcx, QWORD PTR h$[rbp]
	call	memset

; 2294 : }

	lea	rsp, QWORD PTR [rbp+80]
	pop	rbp
	ret	0
mp4_h26x_write_close ENDP
_TEXT	ENDS
; Function compile flags: /Odtp /ZI
; File C:\Users\paras\source\repos\grep-name\XenevaOS\Process\AudioPlayer\minimp4.h
;	COMDAT mp4_h26x_write_init
_TEXT	SEGMENT
tr$ = 0
tv73 = 96
h$ = 128
mux$ = 136
width$ = 144
height$ = 152
is_hevc$ = 160
mp4_h26x_write_init PROC				; COMDAT

; 2251 : {

$LN5:
	mov	DWORD PTR [rsp+32], r9d
	mov	DWORD PTR [rsp+24], r8d
	mov	QWORD PTR [rsp+16], rdx
	mov	QWORD PTR [rsp+8], rcx
	push	rbp
	sub	rsp, 144				; 00000090H
	lea	rbp, QWORD PTR [rsp+32]

; 2252 :     MP4E_track_t tr;
; 2253 :     tr.track_media_kind = e_video;

	mov	DWORD PTR tr$[rbp+8], 1

; 2254 :     tr.language[0] = 'u';

	mov	eax, 1
	imul	rax, rax, 0
	mov	BYTE PTR tr$[rbp+rax+4], 117		; 00000075H

; 2255 :     tr.language[1] = 'n';

	mov	eax, 1
	imul	rax, rax, 1
	mov	BYTE PTR tr$[rbp+rax+4], 110		; 0000006eH

; 2256 :     tr.language[2] = 'd';

	mov	eax, 1
	imul	rax, rax, 2
	mov	BYTE PTR tr$[rbp+rax+4], 100		; 00000064H

; 2257 :     tr.language[3] = 0;

	mov	eax, 1
	imul	rax, rax, 3
	mov	BYTE PTR tr$[rbp+rax+4], 0

; 2258 :     tr.object_type_indication = is_hevc ? MP4_OBJECT_TYPE_HEVC : MP4_OBJECT_TYPE_AVC;

	cmp	DWORD PTR is_hevc$[rbp], 0
	je	SHORT $LN3@mp4_h26x_w
	mov	DWORD PTR tv73[rbp], 35			; 00000023H
	jmp	SHORT $LN4@mp4_h26x_w
$LN3@mp4_h26x_w:
	mov	DWORD PTR tv73[rbp], 33			; 00000021H
$LN4@mp4_h26x_w:
	mov	eax, DWORD PTR tv73[rbp]
	mov	DWORD PTR tr$[rbp], eax

; 2259 :     tr.time_scale = 90000;

	mov	DWORD PTR tr$[rbp+12], 90000		; 00015f90H

; 2260 :     tr.default_duration = 0;

	mov	DWORD PTR tr$[rbp+16], 0

; 2261 :     tr.u.v.width = width;

	mov	eax, DWORD PTR width$[rbp]
	mov	DWORD PTR tr$[rbp+20], eax

; 2262 :     tr.u.v.height = height;

	mov	eax, DWORD PTR height$[rbp]
	mov	DWORD PTR tr$[rbp+24], eax

; 2263 :     h->mux_track_id = MP4E_add_track(mux, &tr);

	lea	rdx, QWORD PTR tr$[rbp]
	mov	rcx, QWORD PTR mux$[rbp]
	call	MP4E_add_track
	mov	rcx, QWORD PTR h$[rbp]
	mov	DWORD PTR [rcx+4616], eax

; 2264 :     h->mux = mux;

	mov	rax, QWORD PTR h$[rbp]
	mov	rcx, QWORD PTR mux$[rbp]
	mov	QWORD PTR [rax+4608], rcx

; 2265 : 
; 2266 :     h->is_hevc = is_hevc;

	mov	rax, QWORD PTR h$[rbp]
	mov	ecx, DWORD PTR is_hevc$[rbp]
	mov	DWORD PTR [rax+4620], ecx

; 2267 :     h->need_vps = is_hevc;

	mov	rax, QWORD PTR h$[rbp]
	mov	ecx, DWORD PTR is_hevc$[rbp]
	mov	DWORD PTR [rax+4624], ecx

; 2268 :     h->need_sps = 1;

	mov	rax, QWORD PTR h$[rbp]
	mov	DWORD PTR [rax+4628], 1

; 2269 :     h->need_pps = 1;

	mov	rax, QWORD PTR h$[rbp]
	mov	DWORD PTR [rax+4632], 1

; 2270 :     h->need_idr = 1;

	mov	rax, QWORD PTR h$[rbp]
	mov	DWORD PTR [rax+4636], 1

; 2271 : #if MINIMP4_TRANSCODE_SPS_ID
; 2272 :     memset(&h->sps_patcher, 0, sizeof(h264_sps_id_patcher_t));

	mov	rax, QWORD PTR h$[rbp]
	mov	r8d, 4608				; 00001200H
	xor	edx, edx
	mov	rcx, rax
	call	memset

; 2273 : #endif
; 2274 :     return MP4E_STATUS_OK;

	xor	eax, eax

; 2275 : }

	lea	rsp, QWORD PTR [rbp+112]
	pop	rbp
	ret	0
mp4_h26x_write_init ENDP
_TEXT	ENDS
; Function compile flags: /Odtp /ZI
; File C:\Users\paras\source\repos\grep-name\XenevaOS\Libs\Chitralekha\nanojpg.h
;	COMDAT ?_Decode@Decoder@Jpeg@@AEAA?AW4DecodeResult@12@PEBEH@Z
_TEXT	SEGMENT
tv139 = 64
this$ = 96
jpeg$ = 104
size$ = 112
?_Decode@Decoder@Jpeg@@AEAA?AW4DecodeResult@12@PEBEH@Z PROC ; Jpeg::Decoder::_Decode, COMDAT

; 628  : 		DecodeResult _Decode(const unsigned char* jpeg, const int size) {

$LN23:
	mov	DWORD PTR [rsp+24], r8d
	mov	QWORD PTR [rsp+16], rdx
	mov	QWORD PTR [rsp+8], rcx
	push	rbp
	sub	rsp, 112				; 00000070H
	lea	rbp, QWORD PTR [rsp+32]

; 629  : 			ctx.pos = (const unsigned char*)jpeg;

	mov	rax, QWORD PTR this$[rbp]
	mov	rcx, QWORD PTR jpeg$[rbp]
	mov	QWORD PTR [rax+8], rcx

; 630  : 			ctx.size = size & 0x7FFFFFFF;

	mov	eax, DWORD PTR size$[rbp]
	btr	eax, 31
	mov	rcx, QWORD PTR this$[rbp]
	mov	DWORD PTR [rcx+16], eax

; 631  : 			if (ctx.size < 2) return NotAJpeg;

	mov	rax, QWORD PTR this$[rbp]
	cmp	DWORD PTR [rax+16], 2
	jge	SHORT $LN6@Decode
	mov	eax, 1
	jmp	$LN1@Decode
$LN6@Decode:

; 632  : 			if ((ctx.pos[0] ^ 0xFF) | (ctx.pos[1] ^ 0xD8)) return NotAJpeg;

	mov	eax, 1
	imul	rax, rax, 0
	mov	rcx, QWORD PTR this$[rbp]
	mov	rcx, QWORD PTR [rcx+8]
	movzx	eax, BYTE PTR [rcx+rax]
	xor	eax, 255				; 000000ffH
	mov	ecx, 1
	imul	rcx, rcx, 1
	mov	rdx, QWORD PTR this$[rbp]
	mov	rdx, QWORD PTR [rdx+8]
	movzx	ecx, BYTE PTR [rdx+rcx]
	xor	ecx, 216				; 000000d8H
	or	eax, ecx
	test	eax, eax
	je	SHORT $LN7@Decode
	mov	eax, 1
	jmp	$LN1@Decode
$LN7@Decode:

; 633  : 			_Skip(2);

	mov	edx, 2
	mov	rcx, QWORD PTR this$[rbp]
	call	?_Skip@Decoder@Jpeg@@AEAAXH@Z		; Jpeg::Decoder::_Skip
$LN2@Decode:

; 634  : 			while (!ctx.error) {

	mov	rax, QWORD PTR this$[rbp]
	cmp	DWORD PTR [rax], 0
	jne	$LN3@Decode

; 635  : 				if ((ctx.size < 2) || (ctx.pos[0] != 0xFF)) return SyntaxError;

	mov	rax, QWORD PTR this$[rbp]
	cmp	DWORD PTR [rax+16], 2
	jl	SHORT $LN9@Decode
	mov	eax, 1
	imul	rax, rax, 0
	mov	rcx, QWORD PTR this$[rbp]
	mov	rcx, QWORD PTR [rcx+8]
	movzx	eax, BYTE PTR [rcx+rax]
	cmp	eax, 255				; 000000ffH
	je	SHORT $LN8@Decode
$LN9@Decode:
	mov	eax, 5
	jmp	$LN1@Decode
$LN8@Decode:

; 636  : 				_Skip(2);

	mov	edx, 2
	mov	rcx, QWORD PTR this$[rbp]
	call	?_Skip@Decoder@Jpeg@@AEAAXH@Z		; Jpeg::Decoder::_Skip

; 637  : 				switch (ctx.pos[-1]) {	

	mov	eax, 1
	imul	rax, rax, -1
	mov	rcx, QWORD PTR this$[rbp]
	mov	rcx, QWORD PTR [rcx+8]
	movzx	eax, BYTE PTR [rcx+rax]
	mov	DWORD PTR tv139[rbp], eax
	mov	eax, DWORD PTR tv139[rbp]
	sub	eax, 192				; 000000c0H
	mov	DWORD PTR tv139[rbp], eax
	cmp	DWORD PTR tv139[rbp], 62		; 0000003eH
	ja	SHORT $LN16@Decode
	movsxd	rax, DWORD PTR tv139[rbp]
	lea	rcx, OFFSET FLAT:__ImageBase
	movzx	eax, BYTE PTR $LN21@Decode[rcx+rax]
	mov	eax, DWORD PTR $LN22@Decode[rcx+rax*4]
	add	rax, rcx
	jmp	rax
$LN10@Decode:

; 638  : 				case 0xC0:  _DecodeSOF();  break;

	mov	rcx, QWORD PTR this$[rbp]
	call	?_DecodeSOF@Decoder@Jpeg@@AEAAXXZ	; Jpeg::Decoder::_DecodeSOF
	jmp	SHORT $LN4@Decode
$LN11@Decode:

; 639  : 				case 0xC4:  _DecodeDHT();  break;

	mov	rcx, QWORD PTR this$[rbp]
	call	?_DecodeDHT@Decoder@Jpeg@@AEAAXXZ	; Jpeg::Decoder::_DecodeDHT
	jmp	SHORT $LN4@Decode
$LN12@Decode:

; 640  : 				case 0xDB:  _DecodeDQT();  break;

	mov	rcx, QWORD PTR this$[rbp]
	call	?_DecodeDQT@Decoder@Jpeg@@AEAAXXZ	; Jpeg::Decoder::_DecodeDQT
	jmp	SHORT $LN4@Decode
$LN13@Decode:

; 641  : 				case 0xDD:  _DecodeDRI();  break;

	mov	rcx, QWORD PTR this$[rbp]
	call	?_DecodeDRI@Decoder@Jpeg@@AEAAXXZ	; Jpeg::Decoder::_DecodeDRI
	jmp	SHORT $LN4@Decode
$LN14@Decode:

; 642  : 				case 0xDA:  _DecodeScan(); break;

	mov	rcx, QWORD PTR this$[rbp]
	call	?_DecodeScan@Decoder@Jpeg@@AEAAXXZ	; Jpeg::Decoder::_DecodeScan
	jmp	SHORT $LN4@Decode
$LN15@Decode:

; 643  : 				case 0xFE:  _SkipMarker(); break;

	mov	rcx, QWORD PTR this$[rbp]
	call	?_SkipMarker@Decoder@Jpeg@@AEAAXXZ	; Jpeg::Decoder::_SkipMarker
	jmp	SHORT $LN4@Decode
$LN16@Decode:

; 644  : 				default:
; 645  : 					if ((ctx.pos[-1] & 0xF0) == 0xE0){

	mov	eax, 1
	imul	rax, rax, -1
	mov	rcx, QWORD PTR this$[rbp]
	mov	rcx, QWORD PTR [rcx+8]
	movzx	eax, BYTE PTR [rcx+rax]
	and	eax, 240				; 000000f0H
	cmp	eax, 224				; 000000e0H
	jne	SHORT $LN17@Decode

; 646  : 						_SkipMarker();

	mov	rcx, QWORD PTR this$[rbp]
	call	?_SkipMarker@Decoder@Jpeg@@AEAAXXZ	; Jpeg::Decoder::_SkipMarker

; 647  : 					}

	jmp	SHORT $LN18@Decode
$LN17@Decode:

; 648  : 					else
; 649  : 						return Unsupported;

	mov	eax, 2
	jmp	SHORT $LN1@Decode
$LN18@Decode:
$LN4@Decode:

; 650  : 				}
; 651  : 			}

	jmp	$LN2@Decode
$LN3@Decode:

; 652  : 			if (ctx.error != Internal_Finished) return ctx.error;

	mov	rax, QWORD PTR this$[rbp]
	cmp	DWORD PTR [rax], 6
	je	SHORT $LN19@Decode
	mov	rax, QWORD PTR this$[rbp]
	mov	eax, DWORD PTR [rax]
	jmp	SHORT $LN1@Decode
$LN19@Decode:

; 653  : 			ctx.error = OK;

	mov	rax, QWORD PTR this$[rbp]
	mov	DWORD PTR [rax], 0

; 654  : 			_Convert();

	mov	rcx, QWORD PTR this$[rbp]
	call	?_Convert@Decoder@Jpeg@@AEAAXXZ		; Jpeg::Decoder::_Convert

; 655  : 			return ctx.error;

	mov	rax, QWORD PTR this$[rbp]
	mov	eax, DWORD PTR [rax]
$LN1@Decode:

; 656  : 		}

	lea	rsp, QWORD PTR [rbp+80]
	pop	rbp
	ret	0
	npad	1
$LN22@Decode:
	DD	$LN10@Decode
	DD	$LN11@Decode
	DD	$LN14@Decode
	DD	$LN12@Decode
	DD	$LN13@Decode
	DD	$LN15@Decode
	DD	$LN16@Decode
$LN21@Decode:
	DB	0
	DB	6
	DB	6
	DB	6
	DB	1
	DB	6
	DB	6
	DB	6
	DB	6
	DB	6
	DB	6
	DB	6
	DB	6
	DB	6
	DB	6
	DB	6
	DB	6
	DB	6
	DB	6
	DB	6
	DB	6
	DB	6
	DB	6
	DB	6
	DB	6
	DB	6
	DB	2
	DB	3
	DB	6
	DB	4
	DB	6
	DB	6
	DB	6
	DB	6
	DB	6
	DB	6
	DB	6
	DB	6
	DB	6
	DB	6
	DB	6
	DB	6
	DB	6
	DB	6
	DB	6
	DB	6
	DB	6
	DB	6
	DB	6
	DB	6
	DB	6
	DB	6
	DB	6
	DB	6
	DB	6
	DB	6
	DB	6
	DB	6
	DB	6
	DB	6
	DB	6
	DB	6
	DB	5
?_Decode@Decoder@Jpeg@@AEAA?AW4DecodeResult@12@PEBEH@Z ENDP ; Jpeg::Decoder::_Decode
_TEXT	ENDS
; Function compile flags: /Odtp /ZI
; File C:\Users\paras\source\repos\grep-name\XenevaOS\Libs\Chitralekha\nanojpg.h
;	COMDAT ?_Convert@Decoder@Jpeg@@AEAAXXZ
_TEXT	SEGMENT
i$ = 0
c$ = 8
x$1 = 16
yy$2 = 20
prgb$3 = 24
py$4 = 32
pcb$5 = 40
pcr$6 = 48
y$7 = 56
cb$8 = 60
cr$9 = 64
pin$10 = 72
pout$11 = 80
y$12 = 88
this$ = 176
?_Convert@Decoder@Jpeg@@AEAAXXZ PROC			; Jpeg::Decoder::_Convert, COMDAT

; 580  : 		inline void _Convert() {

$LN30:
	mov	QWORD PTR [rsp+8], rcx
	push	rbp
	sub	rsp, 192				; 000000c0H
	lea	rbp, QWORD PTR [rsp+32]

; 581  : 			int i;
; 582  : 			Component* c;
; 583  : 			for (i = 0, c = ctx.comp; i < ctx.ncomp; ++i, ++c) {

	mov	DWORD PTR i$[rbp], 0
	mov	rax, QWORD PTR this$[rbp]
	add	rax, 52					; 00000034H
	mov	QWORD PTR c$[rbp], rax
	jmp	SHORT $LN4@Convert
$LN2@Convert:
	mov	eax, DWORD PTR i$[rbp]
	inc	eax
	mov	DWORD PTR i$[rbp], eax
	mov	rax, QWORD PTR c$[rbp]
	add	rax, 48					; 00000030H
	mov	QWORD PTR c$[rbp], rax
$LN4@Convert:
	mov	rax, QWORD PTR this$[rbp]
	mov	eax, DWORD PTR [rax+48]
	cmp	DWORD PTR i$[rbp], eax
	jge	$LN3@Convert
$LN5@Convert:

; 584  : 				while ((c->width < ctx.width) || (c->height < ctx.height)) {

	mov	rax, QWORD PTR c$[rbp]
	mov	rcx, QWORD PTR this$[rbp]
	mov	ecx, DWORD PTR [rcx+24]
	cmp	DWORD PTR [rax+12], ecx
	jl	SHORT $LN19@Convert
	mov	rax, QWORD PTR c$[rbp]
	mov	rcx, QWORD PTR this$[rbp]
	mov	ecx, DWORD PTR [rcx+28]
	cmp	DWORD PTR [rax+16], ecx
	jge	SHORT $LN6@Convert
$LN19@Convert:

; 585  : 					if (c->width < ctx.width) _UpsampleH(c);

	mov	rax, QWORD PTR c$[rbp]
	mov	rcx, QWORD PTR this$[rbp]
	mov	ecx, DWORD PTR [rcx+24]
	cmp	DWORD PTR [rax+12], ecx
	jge	SHORT $LN20@Convert
	mov	rdx, QWORD PTR c$[rbp]
	mov	rcx, QWORD PTR this$[rbp]
	call	?_UpsampleH@Decoder@Jpeg@@AEAAXPEAUComponent@12@@Z ; Jpeg::Decoder::_UpsampleH
$LN20@Convert:

; 586  : 					if (ctx.error) return;

	mov	rax, QWORD PTR this$[rbp]
	cmp	DWORD PTR [rax], 0
	je	SHORT $LN21@Convert
	jmp	$LN1@Convert
$LN21@Convert:

; 587  : 					if (c->height < ctx.height) _UpsampleV(c);

	mov	rax, QWORD PTR c$[rbp]
	mov	rcx, QWORD PTR this$[rbp]
	mov	ecx, DWORD PTR [rcx+28]
	cmp	DWORD PTR [rax+16], ecx
	jge	SHORT $LN22@Convert
	mov	rdx, QWORD PTR c$[rbp]
	mov	rcx, QWORD PTR this$[rbp]
	call	?_UpsampleV@Decoder@Jpeg@@AEAAXPEAUComponent@12@@Z ; Jpeg::Decoder::_UpsampleV
$LN22@Convert:

; 588  : 					if (ctx.error) return;

	mov	rax, QWORD PTR this$[rbp]
	cmp	DWORD PTR [rax], 0
	je	SHORT $LN23@Convert
	jmp	$LN1@Convert
$LN23@Convert:

; 589  : 				}

	jmp	$LN5@Convert
$LN6@Convert:

; 590  : 				if ((c->width < ctx.width) || (c->height < ctx.height)) JPEG_DECODER_THROW(InternalError);

	mov	rax, QWORD PTR c$[rbp]
	mov	rcx, QWORD PTR this$[rbp]
	mov	ecx, DWORD PTR [rcx+24]
	cmp	DWORD PTR [rax+12], ecx
	jl	SHORT $LN25@Convert
	mov	rax, QWORD PTR c$[rbp]
	mov	rcx, QWORD PTR this$[rbp]
	mov	ecx, DWORD PTR [rcx+28]
	cmp	DWORD PTR [rax+16], ecx
	jge	SHORT $LN24@Convert
$LN25@Convert:
$LN9@Convert:
	mov	rax, QWORD PTR this$[rbp]
	mov	DWORD PTR [rax], 4
	jmp	$LN1@Convert
	xor	eax, eax
	test	eax, eax
	jne	SHORT $LN9@Convert
$LN24@Convert:

; 591  : 			}

	jmp	$LN2@Convert
$LN3@Convert:

; 592  : 			
; 593  : 			if (ctx.ncomp == 3) {

	mov	rax, QWORD PTR this$[rbp]
	cmp	DWORD PTR [rax+48], 3
	jne	$LN26@Convert

; 594  : 				// convert to RGB
; 595  : 				int x, yy;
; 596  : 				unsigned char *prgb = ctx.rgb;

	mov	rax, QWORD PTR this$[rbp]
	mov	rax, QWORD PTR [rax+525016]
	mov	QWORD PTR prgb$3[rbp], rax

; 597  : 				const unsigned char *py = ctx.comp[0].pixels;

	mov	eax, 48					; 00000030H
	imul	rax, rax, 0
	mov	rcx, QWORD PTR this$[rbp]
	mov	rax, QWORD PTR [rcx+rax+92]
	mov	QWORD PTR py$4[rbp], rax

; 598  : 				const unsigned char *pcb = ctx.comp[1].pixels;

	mov	eax, 48					; 00000030H
	imul	rax, rax, 1
	mov	rcx, QWORD PTR this$[rbp]
	mov	rax, QWORD PTR [rcx+rax+92]
	mov	QWORD PTR pcb$5[rbp], rax

; 599  : 				const unsigned char *pcr = ctx.comp[2].pixels;

	mov	eax, 48					; 00000030H
	imul	rax, rax, 2
	mov	rcx, QWORD PTR this$[rbp]
	mov	rax, QWORD PTR [rcx+rax+92]
	mov	QWORD PTR pcr$6[rbp], rax

; 600  : 				for (yy = ctx.height; yy; --yy) {

	mov	rax, QWORD PTR this$[rbp]
	mov	eax, DWORD PTR [rax+28]
	mov	DWORD PTR yy$2[rbp], eax
	jmp	SHORT $LN12@Convert
$LN10@Convert:
	mov	eax, DWORD PTR yy$2[rbp]
	dec	eax
	mov	DWORD PTR yy$2[rbp], eax
$LN12@Convert:
	cmp	DWORD PTR yy$2[rbp], 0
	je	$LN11@Convert

; 601  : 					for (x = 0; x < ctx.width; ++x) {

	mov	DWORD PTR x$1[rbp], 0
	jmp	SHORT $LN15@Convert
$LN13@Convert:
	mov	eax, DWORD PTR x$1[rbp]
	inc	eax
	mov	DWORD PTR x$1[rbp], eax
$LN15@Convert:
	mov	rax, QWORD PTR this$[rbp]
	mov	eax, DWORD PTR [rax+24]
	cmp	DWORD PTR x$1[rbp], eax
	jge	$LN14@Convert

; 602  : 						register int y = py[x] << 8;

	movsxd	rax, DWORD PTR x$1[rbp]
	mov	rcx, QWORD PTR py$4[rbp]
	movzx	eax, BYTE PTR [rcx+rax]
	shl	eax, 8
	mov	DWORD PTR y$7[rbp], eax

; 603  : 						register int cb = pcb[x] - 128;

	movsxd	rax, DWORD PTR x$1[rbp]
	mov	rcx, QWORD PTR pcb$5[rbp]
	movzx	eax, BYTE PTR [rcx+rax]
	sub	eax, 128				; 00000080H
	mov	DWORD PTR cb$8[rbp], eax

; 604  : 						register int cr = pcr[x] - 128;

	movsxd	rax, DWORD PTR x$1[rbp]
	mov	rcx, QWORD PTR pcr$6[rbp]
	movzx	eax, BYTE PTR [rcx+rax]
	sub	eax, 128				; 00000080H
	mov	DWORD PTR cr$9[rbp], eax

; 605  : 						*prgb++ = _Clip((y + 359 * cr + 128) >> 8);

	imul	eax, DWORD PTR cr$9[rbp], 359		; 00000167H
	mov	ecx, DWORD PTR y$7[rbp]
	lea	eax, DWORD PTR [rcx+rax+128]
	sar	eax, 8
	mov	edx, eax
	mov	rcx, QWORD PTR this$[rbp]
	call	?_Clip@Decoder@Jpeg@@AEAAEH@Z		; Jpeg::Decoder::_Clip
	mov	rcx, QWORD PTR prgb$3[rbp]
	mov	BYTE PTR [rcx], al
	mov	rax, QWORD PTR prgb$3[rbp]
	inc	rax
	mov	QWORD PTR prgb$3[rbp], rax

; 606  : 						*prgb++ = _Clip((y - 88 * cb - 183 * cr + 128) >> 8);

	imul	eax, DWORD PTR cb$8[rbp], 88		; 00000058H
	mov	ecx, DWORD PTR y$7[rbp]
	sub	ecx, eax
	mov	eax, ecx
	imul	ecx, DWORD PTR cr$9[rbp], 183		; 000000b7H
	sub	eax, ecx
	add	eax, 128				; 00000080H
	sar	eax, 8
	mov	edx, eax
	mov	rcx, QWORD PTR this$[rbp]
	call	?_Clip@Decoder@Jpeg@@AEAAEH@Z		; Jpeg::Decoder::_Clip
	mov	rcx, QWORD PTR prgb$3[rbp]
	mov	BYTE PTR [rcx], al
	mov	rax, QWORD PTR prgb$3[rbp]
	inc	rax
	mov	QWORD PTR prgb$3[rbp], rax

; 607  : 						*prgb++ = _Clip((y + 454 * cb + 128) >> 8);

	imul	eax, DWORD PTR cb$8[rbp], 454		; 000001c6H
	mov	ecx, DWORD PTR y$7[rbp]
	lea	eax, DWORD PTR [rcx+rax+128]
	sar	eax, 8
	mov	edx, eax
	mov	rcx, QWORD PTR this$[rbp]
	call	?_Clip@Decoder@Jpeg@@AEAAEH@Z		; Jpeg::Decoder::_Clip
	mov	rcx, QWORD PTR prgb$3[rbp]
	mov	BYTE PTR [rcx], al
	mov	rax, QWORD PTR prgb$3[rbp]
	inc	rax
	mov	QWORD PTR prgb$3[rbp], rax

; 608  : 					}

	jmp	$LN13@Convert
$LN14@Convert:

; 609  : 					py += ctx.comp[0].stride;

	mov	eax, 48					; 00000030H
	imul	rax, rax, 0
	mov	rcx, QWORD PTR this$[rbp]
	movsxd	rax, DWORD PTR [rcx+rax+72]
	mov	rcx, QWORD PTR py$4[rbp]
	add	rcx, rax
	mov	rax, rcx
	mov	QWORD PTR py$4[rbp], rax

; 610  : 					pcb += ctx.comp[1].stride;

	mov	eax, 48					; 00000030H
	imul	rax, rax, 1
	mov	rcx, QWORD PTR this$[rbp]
	movsxd	rax, DWORD PTR [rcx+rax+72]
	mov	rcx, QWORD PTR pcb$5[rbp]
	add	rcx, rax
	mov	rax, rcx
	mov	QWORD PTR pcb$5[rbp], rax

; 611  : 					pcr += ctx.comp[2].stride;

	mov	eax, 48					; 00000030H
	imul	rax, rax, 2
	mov	rcx, QWORD PTR this$[rbp]
	movsxd	rax, DWORD PTR [rcx+rax+72]
	mov	rcx, QWORD PTR pcr$6[rbp]
	add	rcx, rax
	mov	rax, rcx
	mov	QWORD PTR pcr$6[rbp], rax

; 612  : 				}

	jmp	$LN10@Convert
$LN11@Convert:

; 613  : 			}

	jmp	$LN27@Convert
$LN26@Convert:

; 614  : 			else if (ctx.comp[0].width != ctx.comp[0].stride) {

	mov	eax, 48					; 00000030H
	imul	rax, rax, 0
	mov	ecx, 48					; 00000030H
	imul	rcx, rcx, 0
	mov	rdx, QWORD PTR this$[rbp]
	mov	r8, QWORD PTR this$[rbp]
	mov	ecx, DWORD PTR [r8+rcx+72]
	cmp	DWORD PTR [rdx+rax+64], ecx
	je	$LN28@Convert

; 615  : 				// grayscale -> only remove stride
; 616  : 				unsigned char *pin = &ctx.comp[0].pixels[ctx.comp[0].stride];

	mov	eax, 48					; 00000030H
	imul	rax, rax, 0
	mov	ecx, 48					; 00000030H
	imul	rcx, rcx, 0
	mov	rdx, QWORD PTR this$[rbp]
	movsxd	rcx, DWORD PTR [rdx+rcx+72]
	mov	rdx, QWORD PTR this$[rbp]
	mov	rax, QWORD PTR [rdx+rax+92]
	add	rax, rcx
	mov	QWORD PTR pin$10[rbp], rax

; 617  : 				unsigned char *pout = &ctx.comp[0].pixels[ctx.comp[0].width];

	mov	eax, 48					; 00000030H
	imul	rax, rax, 0
	mov	ecx, 48					; 00000030H
	imul	rcx, rcx, 0
	mov	rdx, QWORD PTR this$[rbp]
	movsxd	rcx, DWORD PTR [rdx+rcx+64]
	mov	rdx, QWORD PTR this$[rbp]
	mov	rax, QWORD PTR [rdx+rax+92]
	add	rax, rcx
	mov	QWORD PTR pout$11[rbp], rax

; 618  : 				int y;
; 619  : 				for (y = ctx.comp[0].height - 1; y; --y) {

	mov	eax, 48					; 00000030H
	imul	rax, rax, 0
	mov	rcx, QWORD PTR this$[rbp]
	mov	eax, DWORD PTR [rcx+rax+68]
	dec	eax
	mov	DWORD PTR y$12[rbp], eax
	jmp	SHORT $LN18@Convert
$LN16@Convert:
	mov	eax, DWORD PTR y$12[rbp]
	dec	eax
	mov	DWORD PTR y$12[rbp], eax
$LN18@Convert:
	cmp	DWORD PTR y$12[rbp], 0
	je	SHORT $LN17@Convert

; 620  : 					memcpy(pout, pin, ctx.comp[0].width);

	mov	eax, 48					; 00000030H
	imul	rax, rax, 0
	mov	rcx, QWORD PTR this$[rbp]
	movsxd	rax, DWORD PTR [rcx+rax+64]
	mov	r8, rax
	mov	rdx, QWORD PTR pin$10[rbp]
	mov	rcx, QWORD PTR pout$11[rbp]
	call	memcpy

; 621  : 					pin += ctx.comp[0].stride;

	mov	eax, 48					; 00000030H
	imul	rax, rax, 0
	mov	rcx, QWORD PTR this$[rbp]
	movsxd	rax, DWORD PTR [rcx+rax+72]
	mov	rcx, QWORD PTR pin$10[rbp]
	add	rcx, rax
	mov	rax, rcx
	mov	QWORD PTR pin$10[rbp], rax

; 622  : 					pout += ctx.comp[0].width;

	mov	eax, 48					; 00000030H
	imul	rax, rax, 0
	mov	rcx, QWORD PTR this$[rbp]
	movsxd	rax, DWORD PTR [rcx+rax+64]
	mov	rcx, QWORD PTR pout$11[rbp]
	add	rcx, rax
	mov	rax, rcx
	mov	QWORD PTR pout$11[rbp], rax

; 623  : 				}

	jmp	SHORT $LN16@Convert
$LN17@Convert:

; 624  : 				ctx.comp[0].stride = ctx.comp[0].width;

	mov	eax, 48					; 00000030H
	imul	rax, rax, 0
	mov	ecx, 48					; 00000030H
	imul	rcx, rcx, 0
	mov	rdx, QWORD PTR this$[rbp]
	mov	r8, QWORD PTR this$[rbp]
	mov	eax, DWORD PTR [r8+rax+64]
	mov	DWORD PTR [rdx+rcx+72], eax
$LN28@Convert:
$LN27@Convert:
$LN1@Convert:

; 625  : 			}
; 626  : 		}

	lea	rsp, QWORD PTR [rbp+160]
	pop	rbp
	ret	0
?_Convert@Decoder@Jpeg@@AEAAXXZ ENDP			; Jpeg::Decoder::_Convert
_TEXT	ENDS
; Function compile flags: /Odtp /ZI
; File C:\Users\paras\source\repos\grep-name\XenevaOS\Libs\Chitralekha\nanojpg.h
;	COMDAT ?_UpsampleV@Decoder@Jpeg@@AEAAXPEAUComponent@12@@Z
_TEXT	SEGMENT
w$ = 0
s1$ = 4
s2$ = 8
out$ = 16
cin$ = 24
cout$ = 32
x$ = 40
y$ = 44
this$ = 128
c$ = 136
?_UpsampleV@Decoder@Jpeg@@AEAAXPEAUComponent@12@@Z PROC	; Jpeg::Decoder::_UpsampleV, COMDAT

; 551  : 		inline void _UpsampleV(Component* c) {

$LN13:
	mov	QWORD PTR [rsp+16], rdx
	mov	QWORD PTR [rsp+8], rcx
	push	rbp
	sub	rsp, 144				; 00000090H
	lea	rbp, QWORD PTR [rsp+32]

; 552  : 			const int w = c->width, s1 = c->stride, s2 = s1 + s1;

	mov	rax, QWORD PTR c$[rbp]
	mov	eax, DWORD PTR [rax+12]
	mov	DWORD PTR w$[rbp], eax
	mov	rax, QWORD PTR c$[rbp]
	mov	eax, DWORD PTR [rax+20]
	mov	DWORD PTR s1$[rbp], eax
	mov	eax, DWORD PTR s1$[rbp]
	mov	ecx, DWORD PTR s1$[rbp]
	add	ecx, eax
	mov	eax, ecx
	mov	DWORD PTR s2$[rbp], eax

; 553  : 			unsigned char *out, *cin, *cout;
; 554  : 			int x, y;
; 555  : 			out = (unsigned char*)AllocMem((c->width * c->height) << 1);

	mov	rax, QWORD PTR c$[rbp]
	mov	rcx, QWORD PTR c$[rbp]
	mov	eax, DWORD PTR [rax+12]
	imul	eax, DWORD PTR [rcx+16]
	shl	eax, 1
	mov	ecx, eax
	mov	rax, QWORD PTR this$[rbp]
	call	QWORD PTR [rax+525088]
	mov	QWORD PTR out$[rbp], rax

; 556  : 			if (!out) JPEG_DECODER_THROW(OutOfMemory);

	cmp	QWORD PTR out$[rbp], 0
	jne	SHORT $LN11@UpsampleV
$LN4@UpsampleV:
	mov	rax, QWORD PTR this$[rbp]
	mov	DWORD PTR [rax], 3
	jmp	$LN1@UpsampleV
	xor	eax, eax
	test	eax, eax
	jne	SHORT $LN4@UpsampleV
$LN11@UpsampleV:

; 557  : 			for (x = 0; x < w; ++x) {

	mov	DWORD PTR x$[rbp], 0
	jmp	SHORT $LN7@UpsampleV
$LN5@UpsampleV:
	mov	eax, DWORD PTR x$[rbp]
	inc	eax
	mov	DWORD PTR x$[rbp], eax
$LN7@UpsampleV:
	mov	eax, DWORD PTR w$[rbp]
	cmp	DWORD PTR x$[rbp], eax
	jge	$LN6@UpsampleV

; 558  : 				cin = &c->pixels[x];

	movsxd	rax, DWORD PTR x$[rbp]
	mov	rcx, QWORD PTR c$[rbp]
	mov	rcx, QWORD PTR [rcx+40]
	add	rcx, rax
	mov	rax, rcx
	mov	QWORD PTR cin$[rbp], rax

; 559  : 				cout = &out[x];

	movsxd	rax, DWORD PTR x$[rbp]
	mov	rcx, QWORD PTR out$[rbp]
	add	rcx, rax
	mov	rax, rcx
	mov	QWORD PTR cout$[rbp], rax

; 560  : 				*cout = CF(CF2A * cin[0] + CF2B * cin[s1]);  cout += w;

	mov	eax, 1
	imul	rax, rax, 0
	mov	rcx, QWORD PTR cin$[rbp]
	movzx	eax, BYTE PTR [rcx+rax]
	imul	eax, eax, 139				; 0000008bH
	movsxd	rcx, DWORD PTR s1$[rbp]
	mov	rdx, QWORD PTR cin$[rbp]
	movzx	ecx, BYTE PTR [rdx+rcx]
	imul	ecx, ecx, -11
	add	eax, ecx
	mov	edx, eax
	mov	rcx, QWORD PTR this$[rbp]
	call	?CF@Decoder@Jpeg@@AEAAEH@Z		; Jpeg::Decoder::CF
	mov	rcx, QWORD PTR cout$[rbp]
	mov	BYTE PTR [rcx], al
	movsxd	rax, DWORD PTR w$[rbp]
	mov	rcx, QWORD PTR cout$[rbp]
	add	rcx, rax
	mov	rax, rcx
	mov	QWORD PTR cout$[rbp], rax

; 561  : 				*cout = CF(CF3X * cin[0] + CF3Y * cin[s1] + CF3Z * cin[s2]);  cout += w;

	mov	eax, 1
	imul	rax, rax, 0
	mov	rcx, QWORD PTR cin$[rbp]
	movzx	eax, BYTE PTR [rcx+rax]
	imul	eax, eax, 104				; 00000068H
	movsxd	rcx, DWORD PTR s1$[rbp]
	mov	rdx, QWORD PTR cin$[rbp]
	movzx	ecx, BYTE PTR [rdx+rcx]
	imul	ecx, ecx, 27
	add	eax, ecx
	movsxd	rcx, DWORD PTR s2$[rbp]
	mov	rdx, QWORD PTR cin$[rbp]
	movzx	ecx, BYTE PTR [rdx+rcx]
	imul	ecx, ecx, -3
	add	eax, ecx
	mov	edx, eax
	mov	rcx, QWORD PTR this$[rbp]
	call	?CF@Decoder@Jpeg@@AEAAEH@Z		; Jpeg::Decoder::CF
	mov	rcx, QWORD PTR cout$[rbp]
	mov	BYTE PTR [rcx], al
	movsxd	rax, DWORD PTR w$[rbp]
	mov	rcx, QWORD PTR cout$[rbp]
	add	rcx, rax
	mov	rax, rcx
	mov	QWORD PTR cout$[rbp], rax

; 562  : 				*cout = CF(CF3A * cin[0] + CF3B * cin[s1] + CF3C * cin[s2]);  cout += w;

	mov	eax, 1
	imul	rax, rax, 0
	mov	rcx, QWORD PTR cin$[rbp]
	movzx	eax, BYTE PTR [rcx+rax]
	imul	eax, eax, 28
	movsxd	rcx, DWORD PTR s1$[rbp]
	mov	rdx, QWORD PTR cin$[rbp]
	movzx	ecx, BYTE PTR [rdx+rcx]
	imul	ecx, ecx, 109				; 0000006dH
	add	eax, ecx
	movsxd	rcx, DWORD PTR s2$[rbp]
	mov	rdx, QWORD PTR cin$[rbp]
	movzx	ecx, BYTE PTR [rdx+rcx]
	imul	ecx, ecx, -9
	add	eax, ecx
	mov	edx, eax
	mov	rcx, QWORD PTR this$[rbp]
	call	?CF@Decoder@Jpeg@@AEAAEH@Z		; Jpeg::Decoder::CF
	mov	rcx, QWORD PTR cout$[rbp]
	mov	BYTE PTR [rcx], al
	movsxd	rax, DWORD PTR w$[rbp]
	mov	rcx, QWORD PTR cout$[rbp]
	add	rcx, rax
	mov	rax, rcx
	mov	QWORD PTR cout$[rbp], rax

; 563  : 				cin += s1;

	movsxd	rax, DWORD PTR s1$[rbp]
	mov	rcx, QWORD PTR cin$[rbp]
	add	rcx, rax
	mov	rax, rcx
	mov	QWORD PTR cin$[rbp], rax

; 564  : 				for (y = c->height - 3; y; --y) {

	mov	rax, QWORD PTR c$[rbp]
	mov	eax, DWORD PTR [rax+16]
	sub	eax, 3
	mov	DWORD PTR y$[rbp], eax
	jmp	SHORT $LN10@UpsampleV
$LN8@UpsampleV:
	mov	eax, DWORD PTR y$[rbp]
	dec	eax
	mov	DWORD PTR y$[rbp], eax
$LN10@UpsampleV:
	cmp	DWORD PTR y$[rbp], 0
	je	$LN9@UpsampleV

; 565  : 					*cout = CF(CF4A * cin[-s1] + CF4B * cin[0] + CF4C * cin[s1] + CF4D * cin[s2]);  cout += w;

	mov	eax, DWORD PTR s1$[rbp]
	neg	eax
	cdqe
	mov	rcx, QWORD PTR cin$[rbp]
	movzx	eax, BYTE PTR [rcx+rax]
	imul	eax, eax, -9
	mov	ecx, 1
	imul	rcx, rcx, 0
	mov	rdx, QWORD PTR cin$[rbp]
	movzx	ecx, BYTE PTR [rdx+rcx]
	imul	ecx, ecx, 111				; 0000006fH
	add	eax, ecx
	movsxd	rcx, DWORD PTR s1$[rbp]
	mov	rdx, QWORD PTR cin$[rbp]
	movzx	ecx, BYTE PTR [rdx+rcx]
	imul	ecx, ecx, 29
	add	eax, ecx
	movsxd	rcx, DWORD PTR s2$[rbp]
	mov	rdx, QWORD PTR cin$[rbp]
	movzx	ecx, BYTE PTR [rdx+rcx]
	imul	ecx, ecx, -3
	add	eax, ecx
	mov	edx, eax
	mov	rcx, QWORD PTR this$[rbp]
	call	?CF@Decoder@Jpeg@@AEAAEH@Z		; Jpeg::Decoder::CF
	mov	rcx, QWORD PTR cout$[rbp]
	mov	BYTE PTR [rcx], al
	movsxd	rax, DWORD PTR w$[rbp]
	mov	rcx, QWORD PTR cout$[rbp]
	add	rcx, rax
	mov	rax, rcx
	mov	QWORD PTR cout$[rbp], rax

; 566  : 					*cout = CF(CF4D * cin[-s1] + CF4C * cin[0] + CF4B * cin[s1] + CF4A * cin[s2]);  cout += w;

	mov	eax, DWORD PTR s1$[rbp]
	neg	eax
	cdqe
	mov	rcx, QWORD PTR cin$[rbp]
	movzx	eax, BYTE PTR [rcx+rax]
	imul	eax, eax, -3
	mov	ecx, 1
	imul	rcx, rcx, 0
	mov	rdx, QWORD PTR cin$[rbp]
	movzx	ecx, BYTE PTR [rdx+rcx]
	imul	ecx, ecx, 29
	add	eax, ecx
	movsxd	rcx, DWORD PTR s1$[rbp]
	mov	rdx, QWORD PTR cin$[rbp]
	movzx	ecx, BYTE PTR [rdx+rcx]
	imul	ecx, ecx, 111				; 0000006fH
	add	eax, ecx
	movsxd	rcx, DWORD PTR s2$[rbp]
	mov	rdx, QWORD PTR cin$[rbp]
	movzx	ecx, BYTE PTR [rdx+rcx]
	imul	ecx, ecx, -9
	add	eax, ecx
	mov	edx, eax
	mov	rcx, QWORD PTR this$[rbp]
	call	?CF@Decoder@Jpeg@@AEAAEH@Z		; Jpeg::Decoder::CF
	mov	rcx, QWORD PTR cout$[rbp]
	mov	BYTE PTR [rcx], al
	movsxd	rax, DWORD PTR w$[rbp]
	mov	rcx, QWORD PTR cout$[rbp]
	add	rcx, rax
	mov	rax, rcx
	mov	QWORD PTR cout$[rbp], rax

; 567  : 					cin += s1;

	movsxd	rax, DWORD PTR s1$[rbp]
	mov	rcx, QWORD PTR cin$[rbp]
	add	rcx, rax
	mov	rax, rcx
	mov	QWORD PTR cin$[rbp], rax

; 568  : 				}

	jmp	$LN8@UpsampleV
$LN9@UpsampleV:

; 569  : 				cin += s1;

	movsxd	rax, DWORD PTR s1$[rbp]
	mov	rcx, QWORD PTR cin$[rbp]
	add	rcx, rax
	mov	rax, rcx
	mov	QWORD PTR cin$[rbp], rax

; 570  : 				*cout = CF(CF3A * cin[0] + CF3B * cin[-s1] + CF3C * cin[-s2]);  cout += w;

	mov	eax, 1
	imul	rax, rax, 0
	mov	rcx, QWORD PTR cin$[rbp]
	movzx	eax, BYTE PTR [rcx+rax]
	imul	eax, eax, 28
	mov	ecx, DWORD PTR s1$[rbp]
	neg	ecx
	movsxd	rcx, ecx
	mov	rdx, QWORD PTR cin$[rbp]
	movzx	ecx, BYTE PTR [rdx+rcx]
	imul	ecx, ecx, 109				; 0000006dH
	add	eax, ecx
	mov	ecx, DWORD PTR s2$[rbp]
	neg	ecx
	movsxd	rcx, ecx
	mov	rdx, QWORD PTR cin$[rbp]
	movzx	ecx, BYTE PTR [rdx+rcx]
	imul	ecx, ecx, -9
	add	eax, ecx
	mov	edx, eax
	mov	rcx, QWORD PTR this$[rbp]
	call	?CF@Decoder@Jpeg@@AEAAEH@Z		; Jpeg::Decoder::CF
	mov	rcx, QWORD PTR cout$[rbp]
	mov	BYTE PTR [rcx], al
	movsxd	rax, DWORD PTR w$[rbp]
	mov	rcx, QWORD PTR cout$[rbp]
	add	rcx, rax
	mov	rax, rcx
	mov	QWORD PTR cout$[rbp], rax

; 571  : 				*cout = CF(CF3X * cin[0] + CF3Y * cin[-s1] + CF3Z * cin[-s2]);  cout += w;

	mov	eax, 1
	imul	rax, rax, 0
	mov	rcx, QWORD PTR cin$[rbp]
	movzx	eax, BYTE PTR [rcx+rax]
	imul	eax, eax, 104				; 00000068H
	mov	ecx, DWORD PTR s1$[rbp]
	neg	ecx
	movsxd	rcx, ecx
	mov	rdx, QWORD PTR cin$[rbp]
	movzx	ecx, BYTE PTR [rdx+rcx]
	imul	ecx, ecx, 27
	add	eax, ecx
	mov	ecx, DWORD PTR s2$[rbp]
	neg	ecx
	movsxd	rcx, ecx
	mov	rdx, QWORD PTR cin$[rbp]
	movzx	ecx, BYTE PTR [rdx+rcx]
	imul	ecx, ecx, -3
	add	eax, ecx
	mov	edx, eax
	mov	rcx, QWORD PTR this$[rbp]
	call	?CF@Decoder@Jpeg@@AEAAEH@Z		; Jpeg::Decoder::CF
	mov	rcx, QWORD PTR cout$[rbp]
	mov	BYTE PTR [rcx], al
	movsxd	rax, DWORD PTR w$[rbp]
	mov	rcx, QWORD PTR cout$[rbp]
	add	rcx, rax
	mov	rax, rcx
	mov	QWORD PTR cout$[rbp], rax

; 572  : 				*cout = CF(CF2A * cin[0] + CF2B * cin[-s1]);

	mov	eax, 1
	imul	rax, rax, 0
	mov	rcx, QWORD PTR cin$[rbp]
	movzx	eax, BYTE PTR [rcx+rax]
	imul	eax, eax, 139				; 0000008bH
	mov	ecx, DWORD PTR s1$[rbp]
	neg	ecx
	movsxd	rcx, ecx
	mov	rdx, QWORD PTR cin$[rbp]
	movzx	ecx, BYTE PTR [rdx+rcx]
	imul	ecx, ecx, -11
	add	eax, ecx
	mov	edx, eax
	mov	rcx, QWORD PTR this$[rbp]
	call	?CF@Decoder@Jpeg@@AEAAEH@Z		; Jpeg::Decoder::CF
	mov	rcx, QWORD PTR cout$[rbp]
	mov	BYTE PTR [rcx], al

; 573  : 			}

	jmp	$LN5@UpsampleV
$LN6@UpsampleV:

; 574  : 			c->height <<= 1;

	mov	rax, QWORD PTR c$[rbp]
	mov	eax, DWORD PTR [rax+16]
	shl	eax, 1
	mov	rcx, QWORD PTR c$[rbp]
	mov	DWORD PTR [rcx+16], eax

; 575  : 			c->stride = c->width;

	mov	rax, QWORD PTR c$[rbp]
	mov	rcx, QWORD PTR c$[rbp]
	mov	ecx, DWORD PTR [rcx+12]
	mov	DWORD PTR [rax+20], ecx

; 576  : 			FreeMem(c->pixels);

	mov	rax, QWORD PTR c$[rbp]
	mov	rcx, QWORD PTR [rax+40]
	mov	rax, QWORD PTR this$[rbp]
	call	QWORD PTR [rax+525096]

; 577  : 			c->pixels = out;

	mov	rax, QWORD PTR c$[rbp]
	mov	rcx, QWORD PTR out$[rbp]
	mov	QWORD PTR [rax+40], rcx
$LN1@UpsampleV:

; 578  : 		}

	lea	rsp, QWORD PTR [rbp+112]
	pop	rbp
	ret	0
?_UpsampleV@Decoder@Jpeg@@AEAAXPEAUComponent@12@@Z ENDP	; Jpeg::Decoder::_UpsampleV
_TEXT	ENDS
; Function compile flags: /Odtp /ZI
; File C:\Users\paras\source\repos\grep-name\XenevaOS\Libs\Chitralekha\nanojpg.h
;	COMDAT ?_UpsampleH@Decoder@Jpeg@@AEAAXPEAUComponent@12@@Z
_TEXT	SEGMENT
xmax$ = 0
out$ = 8
lin$ = 16
lout$ = 24
x$ = 32
y$ = 36
this$ = 128
c$ = 136
?_UpsampleH@Decoder@Jpeg@@AEAAXPEAUComponent@12@@Z PROC	; Jpeg::Decoder::_UpsampleH, COMDAT

; 523  : 		inline void _UpsampleH(Component* c) {

$LN13:
	mov	QWORD PTR [rsp+16], rdx
	mov	QWORD PTR [rsp+8], rcx
	push	rbp
	sub	rsp, 144				; 00000090H
	lea	rbp, QWORD PTR [rsp+32]

; 524  : 			const int xmax = c->width - 3;

	mov	rax, QWORD PTR c$[rbp]
	mov	eax, DWORD PTR [rax+12]
	sub	eax, 3
	mov	DWORD PTR xmax$[rbp], eax

; 525  : 			unsigned char *out, *lin, *lout;
; 526  : 			int x, y;
; 527  : 			out = (unsigned char*)AllocMem((c->width * c->height) << 1);

	mov	rax, QWORD PTR c$[rbp]
	mov	rcx, QWORD PTR c$[rbp]
	mov	eax, DWORD PTR [rax+12]
	imul	eax, DWORD PTR [rcx+16]
	shl	eax, 1
	mov	ecx, eax
	mov	rax, QWORD PTR this$[rbp]
	call	QWORD PTR [rax+525088]
	mov	QWORD PTR out$[rbp], rax

; 528  : 			if (!out) JPEG_DECODER_THROW(OutOfMemory);

	cmp	QWORD PTR out$[rbp], 0
	jne	SHORT $LN11@UpsampleH
$LN4@UpsampleH:
	mov	rax, QWORD PTR this$[rbp]
	mov	DWORD PTR [rax], 3
	jmp	$LN1@UpsampleH
	xor	eax, eax
	test	eax, eax
	jne	SHORT $LN4@UpsampleH
$LN11@UpsampleH:

; 529  : 			lin = c->pixels;

	mov	rax, QWORD PTR c$[rbp]
	mov	rax, QWORD PTR [rax+40]
	mov	QWORD PTR lin$[rbp], rax

; 530  : 			lout = out;

	mov	rax, QWORD PTR out$[rbp]
	mov	QWORD PTR lout$[rbp], rax

; 531  : 			for (y = c->height; y; --y) {

	mov	rax, QWORD PTR c$[rbp]
	mov	eax, DWORD PTR [rax+16]
	mov	DWORD PTR y$[rbp], eax
	jmp	SHORT $LN7@UpsampleH
$LN5@UpsampleH:
	mov	eax, DWORD PTR y$[rbp]
	dec	eax
	mov	DWORD PTR y$[rbp], eax
$LN7@UpsampleH:
	cmp	DWORD PTR y$[rbp], 0
	je	$LN6@UpsampleH

; 532  : 				lout[0] = CF(CF2A * lin[0] + CF2B * lin[1]);

	mov	eax, 1
	imul	rax, rax, 0
	mov	rcx, QWORD PTR lin$[rbp]
	movzx	eax, BYTE PTR [rcx+rax]
	imul	eax, eax, 139				; 0000008bH
	mov	ecx, 1
	imul	rcx, rcx, 1
	mov	rdx, QWORD PTR lin$[rbp]
	movzx	ecx, BYTE PTR [rdx+rcx]
	imul	ecx, ecx, -11
	add	eax, ecx
	mov	edx, eax
	mov	rcx, QWORD PTR this$[rbp]
	call	?CF@Decoder@Jpeg@@AEAAEH@Z		; Jpeg::Decoder::CF
	mov	ecx, 1
	imul	rcx, rcx, 0
	mov	rdx, QWORD PTR lout$[rbp]
	mov	BYTE PTR [rdx+rcx], al

; 533  : 				lout[1] = CF(CF3X * lin[0] + CF3Y * lin[1] + CF3Z * lin[2]);

	mov	eax, 1
	imul	rax, rax, 0
	mov	rcx, QWORD PTR lin$[rbp]
	movzx	eax, BYTE PTR [rcx+rax]
	imul	eax, eax, 104				; 00000068H
	mov	ecx, 1
	imul	rcx, rcx, 1
	mov	rdx, QWORD PTR lin$[rbp]
	movzx	ecx, BYTE PTR [rdx+rcx]
	imul	ecx, ecx, 27
	add	eax, ecx
	mov	ecx, 1
	imul	rcx, rcx, 2
	mov	rdx, QWORD PTR lin$[rbp]
	movzx	ecx, BYTE PTR [rdx+rcx]
	imul	ecx, ecx, -3
	add	eax, ecx
	mov	edx, eax
	mov	rcx, QWORD PTR this$[rbp]
	call	?CF@Decoder@Jpeg@@AEAAEH@Z		; Jpeg::Decoder::CF
	mov	ecx, 1
	imul	rcx, rcx, 1
	mov	rdx, QWORD PTR lout$[rbp]
	mov	BYTE PTR [rdx+rcx], al

; 534  : 				lout[2] = CF(CF3A * lin[0] + CF3B * lin[1] + CF3C * lin[2]);

	mov	eax, 1
	imul	rax, rax, 0
	mov	rcx, QWORD PTR lin$[rbp]
	movzx	eax, BYTE PTR [rcx+rax]
	imul	eax, eax, 28
	mov	ecx, 1
	imul	rcx, rcx, 1
	mov	rdx, QWORD PTR lin$[rbp]
	movzx	ecx, BYTE PTR [rdx+rcx]
	imul	ecx, ecx, 109				; 0000006dH
	add	eax, ecx
	mov	ecx, 1
	imul	rcx, rcx, 2
	mov	rdx, QWORD PTR lin$[rbp]
	movzx	ecx, BYTE PTR [rdx+rcx]
	imul	ecx, ecx, -9
	add	eax, ecx
	mov	edx, eax
	mov	rcx, QWORD PTR this$[rbp]
	call	?CF@Decoder@Jpeg@@AEAAEH@Z		; Jpeg::Decoder::CF
	mov	ecx, 1
	imul	rcx, rcx, 2
	mov	rdx, QWORD PTR lout$[rbp]
	mov	BYTE PTR [rdx+rcx], al

; 535  : 				for (x = 0; x < xmax; ++x) {

	mov	DWORD PTR x$[rbp], 0
	jmp	SHORT $LN10@UpsampleH
$LN8@UpsampleH:
	mov	eax, DWORD PTR x$[rbp]
	inc	eax
	mov	DWORD PTR x$[rbp], eax
$LN10@UpsampleH:
	mov	eax, DWORD PTR xmax$[rbp]
	cmp	DWORD PTR x$[rbp], eax
	jge	$LN9@UpsampleH

; 536  : 					lout[(x << 1) + 3] = CF(CF4A * lin[x] + CF4B * lin[x + 1] + CF4C * lin[x + 2] + CF4D * lin[x + 3]);

	movsxd	rax, DWORD PTR x$[rbp]
	mov	rcx, QWORD PTR lin$[rbp]
	movzx	eax, BYTE PTR [rcx+rax]
	imul	eax, eax, -9
	mov	ecx, DWORD PTR x$[rbp]
	inc	ecx
	movsxd	rcx, ecx
	mov	rdx, QWORD PTR lin$[rbp]
	movzx	ecx, BYTE PTR [rdx+rcx]
	imul	ecx, ecx, 111				; 0000006fH
	add	eax, ecx
	mov	ecx, DWORD PTR x$[rbp]
	add	ecx, 2
	movsxd	rcx, ecx
	mov	rdx, QWORD PTR lin$[rbp]
	movzx	ecx, BYTE PTR [rdx+rcx]
	imul	ecx, ecx, 29
	add	eax, ecx
	mov	ecx, DWORD PTR x$[rbp]
	add	ecx, 3
	movsxd	rcx, ecx
	mov	rdx, QWORD PTR lin$[rbp]
	movzx	ecx, BYTE PTR [rdx+rcx]
	imul	ecx, ecx, -3
	add	eax, ecx
	mov	edx, eax
	mov	rcx, QWORD PTR this$[rbp]
	call	?CF@Decoder@Jpeg@@AEAAEH@Z		; Jpeg::Decoder::CF
	mov	ecx, DWORD PTR x$[rbp]
	lea	ecx, DWORD PTR [rcx+rcx+3]
	movsxd	rcx, ecx
	mov	rdx, QWORD PTR lout$[rbp]
	mov	BYTE PTR [rdx+rcx], al

; 537  : 					lout[(x << 1) + 4] = CF(CF4D * lin[x] + CF4C * lin[x + 1] + CF4B * lin[x + 2] + CF4A * lin[x + 3]);

	movsxd	rax, DWORD PTR x$[rbp]
	mov	rcx, QWORD PTR lin$[rbp]
	movzx	eax, BYTE PTR [rcx+rax]
	imul	eax, eax, -3
	mov	ecx, DWORD PTR x$[rbp]
	inc	ecx
	movsxd	rcx, ecx
	mov	rdx, QWORD PTR lin$[rbp]
	movzx	ecx, BYTE PTR [rdx+rcx]
	imul	ecx, ecx, 29
	add	eax, ecx
	mov	ecx, DWORD PTR x$[rbp]
	add	ecx, 2
	movsxd	rcx, ecx
	mov	rdx, QWORD PTR lin$[rbp]
	movzx	ecx, BYTE PTR [rdx+rcx]
	imul	ecx, ecx, 111				; 0000006fH
	add	eax, ecx
	mov	ecx, DWORD PTR x$[rbp]
	add	ecx, 3
	movsxd	rcx, ecx
	mov	rdx, QWORD PTR lin$[rbp]
	movzx	ecx, BYTE PTR [rdx+rcx]
	imul	ecx, ecx, -9
	add	eax, ecx
	mov	edx, eax
	mov	rcx, QWORD PTR this$[rbp]
	call	?CF@Decoder@Jpeg@@AEAAEH@Z		; Jpeg::Decoder::CF
	mov	ecx, DWORD PTR x$[rbp]
	lea	ecx, DWORD PTR [rcx+rcx+4]
	movsxd	rcx, ecx
	mov	rdx, QWORD PTR lout$[rbp]
	mov	BYTE PTR [rdx+rcx], al

; 538  : 				}

	jmp	$LN8@UpsampleH
$LN9@UpsampleH:

; 539  : 				lin += c->stride;

	mov	rax, QWORD PTR c$[rbp]
	movsxd	rax, DWORD PTR [rax+20]
	mov	rcx, QWORD PTR lin$[rbp]
	add	rcx, rax
	mov	rax, rcx
	mov	QWORD PTR lin$[rbp], rax

; 540  : 				lout += c->width << 1;

	mov	rax, QWORD PTR c$[rbp]
	mov	eax, DWORD PTR [rax+12]
	shl	eax, 1
	cdqe
	mov	rcx, QWORD PTR lout$[rbp]
	add	rcx, rax
	mov	rax, rcx
	mov	QWORD PTR lout$[rbp], rax

; 541  : 				lout[-3] = CF(CF3A * lin[-1] + CF3B * lin[-2] + CF3C * lin[-3]);

	mov	eax, 1
	imul	rax, rax, -1
	mov	rcx, QWORD PTR lin$[rbp]
	movzx	eax, BYTE PTR [rcx+rax]
	imul	eax, eax, 28
	mov	ecx, 1
	imul	rcx, rcx, -2
	mov	rdx, QWORD PTR lin$[rbp]
	movzx	ecx, BYTE PTR [rdx+rcx]
	imul	ecx, ecx, 109				; 0000006dH
	add	eax, ecx
	mov	ecx, 1
	imul	rcx, rcx, -3
	mov	rdx, QWORD PTR lin$[rbp]
	movzx	ecx, BYTE PTR [rdx+rcx]
	imul	ecx, ecx, -9
	add	eax, ecx
	mov	edx, eax
	mov	rcx, QWORD PTR this$[rbp]
	call	?CF@Decoder@Jpeg@@AEAAEH@Z		; Jpeg::Decoder::CF
	mov	ecx, 1
	imul	rcx, rcx, -3
	mov	rdx, QWORD PTR lout$[rbp]
	mov	BYTE PTR [rdx+rcx], al

; 542  : 				lout[-2] = CF(CF3X * lin[-1] + CF3Y * lin[-2] + CF3Z * lin[-3]);

	mov	eax, 1
	imul	rax, rax, -1
	mov	rcx, QWORD PTR lin$[rbp]
	movzx	eax, BYTE PTR [rcx+rax]
	imul	eax, eax, 104				; 00000068H
	mov	ecx, 1
	imul	rcx, rcx, -2
	mov	rdx, QWORD PTR lin$[rbp]
	movzx	ecx, BYTE PTR [rdx+rcx]
	imul	ecx, ecx, 27
	add	eax, ecx
	mov	ecx, 1
	imul	rcx, rcx, -3
	mov	rdx, QWORD PTR lin$[rbp]
	movzx	ecx, BYTE PTR [rdx+rcx]
	imul	ecx, ecx, -3
	add	eax, ecx
	mov	edx, eax
	mov	rcx, QWORD PTR this$[rbp]
	call	?CF@Decoder@Jpeg@@AEAAEH@Z		; Jpeg::Decoder::CF
	mov	ecx, 1
	imul	rcx, rcx, -2
	mov	rdx, QWORD PTR lout$[rbp]
	mov	BYTE PTR [rdx+rcx], al

; 543  : 				lout[-1] = CF(CF2A * lin[-1] + CF2B * lin[-2]);

	mov	eax, 1
	imul	rax, rax, -1
	mov	rcx, QWORD PTR lin$[rbp]
	movzx	eax, BYTE PTR [rcx+rax]
	imul	eax, eax, 139				; 0000008bH
	mov	ecx, 1
	imul	rcx, rcx, -2
	mov	rdx, QWORD PTR lin$[rbp]
	movzx	ecx, BYTE PTR [rdx+rcx]
	imul	ecx, ecx, -11
	add	eax, ecx
	mov	edx, eax
	mov	rcx, QWORD PTR this$[rbp]
	call	?CF@Decoder@Jpeg@@AEAAEH@Z		; Jpeg::Decoder::CF
	mov	ecx, 1
	imul	rcx, rcx, -1
	mov	rdx, QWORD PTR lout$[rbp]
	mov	BYTE PTR [rdx+rcx], al

; 544  : 			}

	jmp	$LN5@UpsampleH
$LN6@UpsampleH:

; 545  : 			c->width <<= 1;

	mov	rax, QWORD PTR c$[rbp]
	mov	eax, DWORD PTR [rax+12]
	shl	eax, 1
	mov	rcx, QWORD PTR c$[rbp]
	mov	DWORD PTR [rcx+12], eax

; 546  : 			c->stride = c->width;

	mov	rax, QWORD PTR c$[rbp]
	mov	rcx, QWORD PTR c$[rbp]
	mov	ecx, DWORD PTR [rcx+12]
	mov	DWORD PTR [rax+20], ecx

; 547  : 			FreeMem(c->pixels);

	mov	rax, QWORD PTR c$[rbp]
	mov	rcx, QWORD PTR [rax+40]
	mov	rax, QWORD PTR this$[rbp]
	call	QWORD PTR [rax+525096]

; 548  : 			c->pixels = out;

	mov	rax, QWORD PTR c$[rbp]
	mov	rcx, QWORD PTR out$[rbp]
	mov	QWORD PTR [rax+40], rcx
$LN1@UpsampleH:

; 549  : 		}

	lea	rsp, QWORD PTR [rbp+112]
	pop	rbp
	ret	0
?_UpsampleH@Decoder@Jpeg@@AEAAXPEAUComponent@12@@Z ENDP	; Jpeg::Decoder::_UpsampleH
_TEXT	ENDS
; Function compile flags: /Odtp /ZI
; File C:\Users\paras\source\repos\grep-name\XenevaOS\Libs\Chitralekha\nanojpg.h
;	COMDAT ?CF@Decoder@Jpeg@@AEAAEH@Z
_TEXT	SEGMENT
this$ = 80
x$ = 88
?CF@Decoder@Jpeg@@AEAAEH@Z PROC				; Jpeg::Decoder::CF, COMDAT

; 519  : 		inline unsigned char CF(const int x) {

$LN3:
	mov	DWORD PTR [rsp+16], edx
	mov	QWORD PTR [rsp+8], rcx
	push	rbp
	sub	rsp, 96					; 00000060H
	lea	rbp, QWORD PTR [rsp+32]

; 520  : 			return _Clip((x + 64) >> 7);

	mov	eax, DWORD PTR x$[rbp]
	add	eax, 64					; 00000040H
	sar	eax, 7
	mov	edx, eax
	mov	rcx, QWORD PTR this$[rbp]
	call	?_Clip@Decoder@Jpeg@@AEAAEH@Z		; Jpeg::Decoder::_Clip

; 521  : 		}

	lea	rsp, QWORD PTR [rbp+64]
	pop	rbp
	ret	0
?CF@Decoder@Jpeg@@AEAAEH@Z ENDP				; Jpeg::Decoder::CF
_TEXT	ENDS
; Function compile flags: /Odtp /ZI
; File C:\Users\paras\source\repos\grep-name\XenevaOS\Libs\Chitralekha\nanojpg.h
;	COMDAT ?_DecodeScan@Decoder@Jpeg@@AEAAXXZ
_TEXT	SEGMENT
i$ = 0
mbx$ = 4
mby$ = 8
sbx$ = 12
sby$ = 16
rstcount$ = 20
nextrst$ = 24
c$ = 32
this$ = 128
?_DecodeScan@Decoder@Jpeg@@AEAAXXZ PROC			; Jpeg::Decoder::_DecodeScan, COMDAT

; 465  : 		inline void _DecodeScan(void) {

$LN52:
	mov	QWORD PTR [rsp+8], rcx
	push	rbp
	sub	rsp, 144				; 00000090H
	lea	rbp, QWORD PTR [rsp+32]

; 466  : 			int i, mbx, mby, sbx, sby;
; 467  : 			int rstcount = ctx.rstinterval, nextrst = 0;

	mov	rax, QWORD PTR this$[rbp]
	mov	eax, DWORD PTR [rax+525012]
	mov	DWORD PTR rstcount$[rbp], eax
	mov	DWORD PTR nextrst$[rbp], 0

; 468  : 			Component* c;
; 469  : 			_DecodeLength();

	mov	rcx, QWORD PTR this$[rbp]
	call	?_DecodeLength@Decoder@Jpeg@@AEAAXXZ	; Jpeg::Decoder::_DecodeLength

; 470  : 			if (ctx.length < (4 + 2 * ctx.ncomp)) JPEG_DECODER_THROW(SyntaxError);

	mov	rax, QWORD PTR this$[rbp]
	mov	eax, DWORD PTR [rax+48]
	lea	eax, DWORD PTR [rax+rax+4]
	mov	rcx, QWORD PTR this$[rbp]
	cmp	DWORD PTR [rcx+20], eax
	jge	SHORT $LN41@DecodeScan
$LN4@DecodeScan:
	mov	rax, QWORD PTR this$[rbp]
	mov	DWORD PTR [rax], 5
	jmp	$LN1@DecodeScan
	xor	eax, eax
	test	eax, eax
	jne	SHORT $LN4@DecodeScan
$LN41@DecodeScan:

; 471  : 			if (ctx.pos[0] != ctx.ncomp) JPEG_DECODER_THROW(Unsupported);

	mov	eax, 1
	imul	rax, rax, 0
	mov	rcx, QWORD PTR this$[rbp]
	mov	rcx, QWORD PTR [rcx+8]
	movzx	eax, BYTE PTR [rcx+rax]
	mov	rcx, QWORD PTR this$[rbp]
	cmp	eax, DWORD PTR [rcx+48]
	je	SHORT $LN42@DecodeScan
$LN7@DecodeScan:
	mov	rax, QWORD PTR this$[rbp]
	mov	DWORD PTR [rax], 2
	jmp	$LN1@DecodeScan
	xor	eax, eax
	test	eax, eax
	jne	SHORT $LN7@DecodeScan
$LN42@DecodeScan:

; 472  : 			_Skip(1);

	mov	edx, 1
	mov	rcx, QWORD PTR this$[rbp]
	call	?_Skip@Decoder@Jpeg@@AEAAXH@Z		; Jpeg::Decoder::_Skip

; 473  : 			for (i = 0, c = ctx.comp; i < ctx.ncomp; ++i, ++c) {

	mov	DWORD PTR i$[rbp], 0
	mov	rax, QWORD PTR this$[rbp]
	add	rax, 52					; 00000034H
	mov	QWORD PTR c$[rbp], rax
	jmp	SHORT $LN10@DecodeScan
$LN8@DecodeScan:
	mov	eax, DWORD PTR i$[rbp]
	inc	eax
	mov	DWORD PTR i$[rbp], eax
	mov	rax, QWORD PTR c$[rbp]
	add	rax, 48					; 00000030H
	mov	QWORD PTR c$[rbp], rax
$LN10@DecodeScan:
	mov	rax, QWORD PTR this$[rbp]
	mov	eax, DWORD PTR [rax+48]
	cmp	DWORD PTR i$[rbp], eax
	jge	$LN9@DecodeScan

; 474  : 				if (ctx.pos[0] != c->cid) JPEG_DECODER_THROW(SyntaxError);

	mov	eax, 1
	imul	rax, rax, 0
	mov	rcx, QWORD PTR this$[rbp]
	mov	rcx, QWORD PTR [rcx+8]
	movzx	eax, BYTE PTR [rcx+rax]
	mov	rcx, QWORD PTR c$[rbp]
	cmp	eax, DWORD PTR [rcx]
	je	SHORT $LN43@DecodeScan
$LN13@DecodeScan:
	mov	rax, QWORD PTR this$[rbp]
	mov	DWORD PTR [rax], 5
	jmp	$LN1@DecodeScan
	xor	eax, eax
	test	eax, eax
	jne	SHORT $LN13@DecodeScan
$LN43@DecodeScan:

; 475  : 				if (ctx.pos[1] & 0xEE) JPEG_DECODER_THROW(SyntaxError);

	mov	eax, 1
	imul	rax, rax, 1
	mov	rcx, QWORD PTR this$[rbp]
	mov	rcx, QWORD PTR [rcx+8]
	movzx	eax, BYTE PTR [rcx+rax]
	and	eax, 238				; 000000eeH
	test	eax, eax
	je	SHORT $LN44@DecodeScan
$LN16@DecodeScan:
	mov	rax, QWORD PTR this$[rbp]
	mov	DWORD PTR [rax], 5
	jmp	$LN1@DecodeScan
	xor	eax, eax
	test	eax, eax
	jne	SHORT $LN16@DecodeScan
$LN44@DecodeScan:

; 476  : 				c->dctabsel = ctx.pos[1] >> 4;

	mov	eax, 1
	imul	rax, rax, 1
	mov	rcx, QWORD PTR this$[rbp]
	mov	rcx, QWORD PTR [rcx+8]
	movzx	eax, BYTE PTR [rcx+rax]
	sar	eax, 4
	mov	rcx, QWORD PTR c$[rbp]
	mov	DWORD PTR [rcx+32], eax

; 477  : 				c->actabsel = (ctx.pos[1] & 1) | 2;

	mov	eax, 1
	imul	rax, rax, 1
	mov	rcx, QWORD PTR this$[rbp]
	mov	rcx, QWORD PTR [rcx+8]
	movzx	eax, BYTE PTR [rcx+rax]
	and	eax, 1
	or	eax, 2
	mov	rcx, QWORD PTR c$[rbp]
	mov	DWORD PTR [rcx+28], eax

; 478  : 				_Skip(2);

	mov	edx, 2
	mov	rcx, QWORD PTR this$[rbp]
	call	?_Skip@Decoder@Jpeg@@AEAAXH@Z		; Jpeg::Decoder::_Skip

; 479  : 			}

	jmp	$LN8@DecodeScan
$LN9@DecodeScan:

; 480  : 			if (ctx.pos[0] || (ctx.pos[1] != 63) || ctx.pos[2]) JPEG_DECODER_THROW(Unsupported);

	mov	eax, 1
	imul	rax, rax, 0
	mov	rcx, QWORD PTR this$[rbp]
	mov	rcx, QWORD PTR [rcx+8]
	movzx	eax, BYTE PTR [rcx+rax]
	test	eax, eax
	jne	SHORT $LN46@DecodeScan
	mov	eax, 1
	imul	rax, rax, 1
	mov	rcx, QWORD PTR this$[rbp]
	mov	rcx, QWORD PTR [rcx+8]
	movzx	eax, BYTE PTR [rcx+rax]
	cmp	eax, 63					; 0000003fH
	jne	SHORT $LN46@DecodeScan
	mov	eax, 1
	imul	rax, rax, 2
	mov	rcx, QWORD PTR this$[rbp]
	mov	rcx, QWORD PTR [rcx+8]
	movzx	eax, BYTE PTR [rcx+rax]
	test	eax, eax
	je	SHORT $LN45@DecodeScan
$LN46@DecodeScan:
$LN19@DecodeScan:
	mov	rax, QWORD PTR this$[rbp]
	mov	DWORD PTR [rax], 2
	jmp	$LN1@DecodeScan
	xor	eax, eax
	test	eax, eax
	jne	SHORT $LN19@DecodeScan
$LN45@DecodeScan:

; 481  : 			_Skip(ctx.length);

	mov	rax, QWORD PTR this$[rbp]
	mov	edx, DWORD PTR [rax+20]
	mov	rcx, QWORD PTR this$[rbp]
	call	?_Skip@Decoder@Jpeg@@AEAAXH@Z		; Jpeg::Decoder::_Skip

; 482  : 			for (mby = 0; mby < ctx.mbheight; ++mby)

	mov	DWORD PTR mby$[rbp], 0
	jmp	SHORT $LN22@DecodeScan
$LN20@DecodeScan:
	mov	eax, DWORD PTR mby$[rbp]
	inc	eax
	mov	DWORD PTR mby$[rbp], eax
$LN22@DecodeScan:
	mov	rax, QWORD PTR this$[rbp]
	mov	eax, DWORD PTR [rax+36]
	cmp	DWORD PTR mby$[rbp], eax
	jge	$LN21@DecodeScan

; 483  : 			for (mbx = 0; mbx < ctx.mbwidth; ++mbx) {

	mov	DWORD PTR mbx$[rbp], 0
	jmp	SHORT $LN25@DecodeScan
$LN23@DecodeScan:
	mov	eax, DWORD PTR mbx$[rbp]
	inc	eax
	mov	DWORD PTR mbx$[rbp], eax
$LN25@DecodeScan:
	mov	rax, QWORD PTR this$[rbp]
	mov	eax, DWORD PTR [rax+32]
	cmp	DWORD PTR mbx$[rbp], eax
	jge	$LN24@DecodeScan

; 484  : 				for (i = 0, c = ctx.comp; i < ctx.ncomp; ++i, ++c)

	mov	DWORD PTR i$[rbp], 0
	mov	rax, QWORD PTR this$[rbp]
	add	rax, 52					; 00000034H
	mov	QWORD PTR c$[rbp], rax
	jmp	SHORT $LN28@DecodeScan
$LN26@DecodeScan:
	mov	eax, DWORD PTR i$[rbp]
	inc	eax
	mov	DWORD PTR i$[rbp], eax
	mov	rax, QWORD PTR c$[rbp]
	add	rax, 48					; 00000030H
	mov	QWORD PTR c$[rbp], rax
$LN28@DecodeScan:
	mov	rax, QWORD PTR this$[rbp]
	mov	eax, DWORD PTR [rax+48]
	cmp	DWORD PTR i$[rbp], eax
	jge	$LN27@DecodeScan

; 485  : 				for (sby = 0; sby < c->ssy; ++sby)

	mov	DWORD PTR sby$[rbp], 0
	jmp	SHORT $LN31@DecodeScan
$LN29@DecodeScan:
	mov	eax, DWORD PTR sby$[rbp]
	inc	eax
	mov	DWORD PTR sby$[rbp], eax
$LN31@DecodeScan:
	mov	rax, QWORD PTR c$[rbp]
	mov	eax, DWORD PTR [rax+8]
	cmp	DWORD PTR sby$[rbp], eax
	jge	$LN30@DecodeScan

; 486  : 				for (sbx = 0; sbx < c->ssx; ++sbx) {

	mov	DWORD PTR sbx$[rbp], 0
	jmp	SHORT $LN34@DecodeScan
$LN32@DecodeScan:
	mov	eax, DWORD PTR sbx$[rbp]
	inc	eax
	mov	DWORD PTR sbx$[rbp], eax
$LN34@DecodeScan:
	mov	rax, QWORD PTR c$[rbp]
	mov	eax, DWORD PTR [rax+4]
	cmp	DWORD PTR sbx$[rbp], eax
	jge	SHORT $LN33@DecodeScan

; 487  : 					_DecodeBlock(c, &c->pixels[((mby * c->ssy + sby) * c->stride + mbx * c->ssx + sbx) << 3]);

	mov	rax, QWORD PTR c$[rbp]
	mov	ecx, DWORD PTR mby$[rbp]
	imul	ecx, DWORD PTR [rax+8]
	mov	eax, ecx
	add	eax, DWORD PTR sby$[rbp]
	mov	rcx, QWORD PTR c$[rbp]
	imul	eax, DWORD PTR [rcx+20]
	mov	rcx, QWORD PTR c$[rbp]
	mov	edx, DWORD PTR mbx$[rbp]
	imul	edx, DWORD PTR [rcx+4]
	mov	ecx, edx
	mov	edx, DWORD PTR sbx$[rbp]
	add	edx, eax
	mov	eax, edx
	add	ecx, eax
	mov	eax, ecx
	shl	eax, 3
	cdqe
	mov	rcx, QWORD PTR c$[rbp]
	mov	rcx, QWORD PTR [rcx+40]
	add	rcx, rax
	mov	rax, rcx
	mov	r8, rax
	mov	rdx, QWORD PTR c$[rbp]
	mov	rcx, QWORD PTR this$[rbp]
	call	?_DecodeBlock@Decoder@Jpeg@@AEAAXPEAUComponent@12@PEAE@Z ; Jpeg::Decoder::_DecodeBlock

; 488  : 					if (ctx.error)

	mov	rax, QWORD PTR this$[rbp]
	cmp	DWORD PTR [rax], 0
	je	SHORT $LN47@DecodeScan

; 489  : 						return;

	jmp	$LN1@DecodeScan
$LN47@DecodeScan:

; 490  : 				}

	jmp	SHORT $LN32@DecodeScan
$LN33@DecodeScan:
	jmp	$LN29@DecodeScan
$LN30@DecodeScan:
	jmp	$LN26@DecodeScan
$LN27@DecodeScan:

; 491  : 				if (ctx.rstinterval && !(--rstcount)) {

	mov	rax, QWORD PTR this$[rbp]
	cmp	DWORD PTR [rax+525012], 0
	je	$LN48@DecodeScan
	mov	eax, DWORD PTR rstcount$[rbp]
	dec	eax
	mov	DWORD PTR rstcount$[rbp], eax
	cmp	DWORD PTR rstcount$[rbp], 0
	jne	$LN48@DecodeScan

; 492  : 					_ByteAlign();

	mov	rcx, QWORD PTR this$[rbp]
	call	?_ByteAlign@Decoder@Jpeg@@AEAAXXZ	; Jpeg::Decoder::_ByteAlign

; 493  : 					i = _GetBits(16);

	mov	edx, 16
	mov	rcx, QWORD PTR this$[rbp]
	call	?_GetBits@Decoder@Jpeg@@AEAAHH@Z	; Jpeg::Decoder::_GetBits
	mov	DWORD PTR i$[rbp], eax

; 494  : 					if (((i & 0xFFF8) != 0xFFD0) || ((i & 7) != nextrst)) JPEG_DECODER_THROW(SyntaxError);

	mov	eax, DWORD PTR i$[rbp]
	and	eax, 65528				; 0000fff8H
	cmp	eax, 65488				; 0000ffd0H
	jne	SHORT $LN50@DecodeScan
	mov	eax, DWORD PTR i$[rbp]
	and	eax, 7
	cmp	eax, DWORD PTR nextrst$[rbp]
	je	SHORT $LN49@DecodeScan
$LN50@DecodeScan:
$LN37@DecodeScan:
	mov	rax, QWORD PTR this$[rbp]
	mov	DWORD PTR [rax], 5
	jmp	SHORT $LN1@DecodeScan
	xor	eax, eax
	test	eax, eax
	jne	SHORT $LN37@DecodeScan
$LN49@DecodeScan:

; 495  : 					nextrst = (nextrst + 1) & 7;

	mov	eax, DWORD PTR nextrst$[rbp]
	inc	eax
	and	eax, 7
	mov	DWORD PTR nextrst$[rbp], eax

; 496  : 					rstcount = ctx.rstinterval;

	mov	rax, QWORD PTR this$[rbp]
	mov	eax, DWORD PTR [rax+525012]
	mov	DWORD PTR rstcount$[rbp], eax

; 497  : 					for (i = 0; i < 3; ++i)

	mov	DWORD PTR i$[rbp], 0
	jmp	SHORT $LN40@DecodeScan
$LN38@DecodeScan:
	mov	eax, DWORD PTR i$[rbp]
	inc	eax
	mov	DWORD PTR i$[rbp], eax
$LN40@DecodeScan:
	cmp	DWORD PTR i$[rbp], 3
	jge	SHORT $LN39@DecodeScan

; 498  : 						ctx.comp[i].dcpred = 0;

	movsxd	rax, DWORD PTR i$[rbp]
	imul	rax, rax, 48				; 00000030H
	mov	rcx, QWORD PTR this$[rbp]
	mov	DWORD PTR [rcx+rax+88], 0
	jmp	SHORT $LN38@DecodeScan
$LN39@DecodeScan:
$LN48@DecodeScan:

; 499  : 				}
; 500  : 			}

	jmp	$LN23@DecodeScan
$LN24@DecodeScan:
	jmp	$LN20@DecodeScan
$LN21@DecodeScan:

; 501  : 			ctx.error = Internal_Finished;

	mov	rax, QWORD PTR this$[rbp]
	mov	DWORD PTR [rax], 6
$LN1@DecodeScan:

; 502  : 		}

	lea	rsp, QWORD PTR [rbp+112]
	pop	rbp
	ret	0
?_DecodeScan@Decoder@Jpeg@@AEAAXXZ ENDP			; Jpeg::Decoder::_DecodeScan
_TEXT	ENDS
; Function compile flags: /Odtp /ZI
; File C:\Users\paras\source\repos\grep-name\XenevaOS\Libs\Chitralekha\nanojpg.h
;	COMDAT ?_DecodeBlock@Decoder@Jpeg@@AEAAXPEAUComponent@12@PEAE@Z
_TEXT	SEGMENT
code$ = 0
value$ = 4
coef$ = 8
this$ = 96
c$ = 104
out$ = 112
?_DecodeBlock@Decoder@Jpeg@@AEAAXPEAUComponent@12@PEAE@Z PROC ; Jpeg::Decoder::_DecodeBlock, COMDAT

; 445  : 		inline void _DecodeBlock(Component* c, unsigned char* out) {

$LN21:
	mov	QWORD PTR [rsp+24], r8
	mov	QWORD PTR [rsp+16], rdx
	mov	QWORD PTR [rsp+8], rcx
	push	rbp
	sub	rsp, 112				; 00000070H
	lea	rbp, QWORD PTR [rsp+32]

; 446  : 			unsigned char code;
; 447  : 			int value, coef = 0;

	mov	DWORD PTR coef$[rbp], 0

; 448  : 			memset(ctx.block, 0, sizeof(ctx.block));

	mov	rax, QWORD PTR this$[rbp]
	add	rax, 524756				; 000801d4H
	mov	r8d, 256				; 00000100H
	xor	edx, edx
	mov	rcx, rax
	call	memset

; 449  : 			c->dcpred += _GetVLC(&ctx.vlctab[c->dctabsel][0], NULL);

	mov	rax, QWORD PTR c$[rbp]
	movsxd	rax, DWORD PTR [rax+32]
	imul	rax, rax, 131072			; 00020000H
	mov	rcx, QWORD PTR this$[rbp]
	lea	rax, QWORD PTR [rcx+rax+460]
	mov	ecx, 2
	imul	rcx, rcx, 0
	add	rax, rcx
	xor	r8d, r8d
	mov	rdx, rax
	mov	rcx, QWORD PTR this$[rbp]
	call	?_GetVLC@Decoder@Jpeg@@AEAAHPEAUVlcCode@12@PEAE@Z ; Jpeg::Decoder::_GetVLC
	mov	rcx, QWORD PTR c$[rbp]
	add	eax, DWORD PTR [rcx+36]
	mov	rcx, QWORD PTR c$[rbp]
	mov	DWORD PTR [rcx+36], eax

; 450  : 			ctx.block[0] = (c->dcpred) * ctx.qtab[c->qtsel][0];

	mov	rax, QWORD PTR c$[rbp]
	movsxd	rax, DWORD PTR [rax+24]
	imul	rax, rax, 64				; 00000040H
	mov	rcx, QWORD PTR this$[rbp]
	lea	rax, QWORD PTR [rcx+rax+204]
	mov	ecx, 1
	imul	rcx, rcx, 0
	movzx	eax, BYTE PTR [rax+rcx]
	mov	rcx, QWORD PTR c$[rbp]
	mov	ecx, DWORD PTR [rcx+36]
	imul	ecx, eax
	mov	eax, ecx
	mov	ecx, 4
	imul	rcx, rcx, 0
	mov	rdx, QWORD PTR this$[rbp]
	mov	DWORD PTR [rdx+rcx+524756], eax
$LN4@DecodeBloc:

; 451  : 			do {
; 452  : 				value = _GetVLC(&ctx.vlctab[c->actabsel][0], &code);

	mov	rax, QWORD PTR c$[rbp]
	movsxd	rax, DWORD PTR [rax+28]
	imul	rax, rax, 131072			; 00020000H
	mov	rcx, QWORD PTR this$[rbp]
	lea	rax, QWORD PTR [rcx+rax+460]
	mov	ecx, 2
	imul	rcx, rcx, 0
	add	rax, rcx
	lea	r8, QWORD PTR code$[rbp]
	mov	rdx, rax
	mov	rcx, QWORD PTR this$[rbp]
	call	?_GetVLC@Decoder@Jpeg@@AEAAHPEAUVlcCode@12@PEAE@Z ; Jpeg::Decoder::_GetVLC
	mov	DWORD PTR value$[rbp], eax

; 453  : 				if (!code) break;  // EOB

	movzx	eax, BYTE PTR code$[rbp]
	test	eax, eax
	jne	SHORT $LN17@DecodeBloc
	jmp	$LN3@DecodeBloc
$LN17@DecodeBloc:

; 454  : 				if (!(code & 0x0F) && (code != 0xF0)) JPEG_DECODER_THROW(SyntaxError);

	movzx	eax, BYTE PTR code$[rbp]
	and	eax, 15
	test	eax, eax
	jne	SHORT $LN18@DecodeBloc
	movzx	eax, BYTE PTR code$[rbp]
	cmp	eax, 240				; 000000f0H
	je	SHORT $LN18@DecodeBloc
$LN7@DecodeBloc:
	mov	rax, QWORD PTR this$[rbp]
	mov	DWORD PTR [rax], 5
	jmp	$LN1@DecodeBloc
	xor	eax, eax
	test	eax, eax
	jne	SHORT $LN7@DecodeBloc
$LN18@DecodeBloc:

; 455  : 				coef += (code >> 4) + 1;

	movzx	eax, BYTE PTR code$[rbp]
	sar	eax, 4
	mov	ecx, DWORD PTR coef$[rbp]
	lea	eax, DWORD PTR [rcx+rax+1]
	mov	DWORD PTR coef$[rbp], eax

; 456  : 				if (coef > 63) JPEG_DECODER_THROW(SyntaxError);

	cmp	DWORD PTR coef$[rbp], 63		; 0000003fH
	jle	SHORT $LN19@DecodeBloc
$LN10@DecodeBloc:
	mov	rax, QWORD PTR this$[rbp]
	mov	DWORD PTR [rax], 5
	jmp	$LN1@DecodeBloc
	xor	eax, eax
	test	eax, eax
	jne	SHORT $LN10@DecodeBloc
$LN19@DecodeBloc:

; 457  : 				ctx.block[(int)ZZ[coef]] = value * ctx.qtab[c->qtsel][coef];

	mov	rax, QWORD PTR c$[rbp]
	movsxd	rax, DWORD PTR [rax+24]
	imul	rax, rax, 64				; 00000040H
	mov	rcx, QWORD PTR this$[rbp]
	lea	rax, QWORD PTR [rcx+rax+204]
	movsxd	rcx, DWORD PTR coef$[rbp]
	movzx	eax, BYTE PTR [rax+rcx]
	mov	ecx, DWORD PTR value$[rbp]
	imul	ecx, eax
	mov	eax, ecx
	movsxd	rcx, DWORD PTR coef$[rbp]
	mov	rdx, QWORD PTR this$[rbp]
	movsx	rcx, BYTE PTR [rdx+rcx+525024]
	mov	rdx, QWORD PTR this$[rbp]
	mov	DWORD PTR [rdx+rcx*4+524756], eax

; 458  : 			} while (coef < 63);

	cmp	DWORD PTR coef$[rbp], 63		; 0000003fH
	jl	$LN4@DecodeBloc
$LN3@DecodeBloc:

; 459  : 			for (coef = 0; coef < 64; coef += 8)

	mov	DWORD PTR coef$[rbp], 0
	jmp	SHORT $LN13@DecodeBloc
$LN11@DecodeBloc:
	mov	eax, DWORD PTR coef$[rbp]
	add	eax, 8
	mov	DWORD PTR coef$[rbp], eax
$LN13@DecodeBloc:
	cmp	DWORD PTR coef$[rbp], 64		; 00000040H
	jge	SHORT $LN12@DecodeBloc

; 460  : 				_RowIDCT(&ctx.block[coef]);

	movsxd	rax, DWORD PTR coef$[rbp]
	mov	rcx, QWORD PTR this$[rbp]
	lea	rax, QWORD PTR [rcx+rax*4+524756]
	mov	rdx, rax
	mov	rcx, QWORD PTR this$[rbp]
	call	?_RowIDCT@Decoder@Jpeg@@AEAAXPEAH@Z	; Jpeg::Decoder::_RowIDCT
	jmp	SHORT $LN11@DecodeBloc
$LN12@DecodeBloc:

; 461  : 			for (coef = 0; coef < 8; ++coef)

	mov	DWORD PTR coef$[rbp], 0
	jmp	SHORT $LN16@DecodeBloc
$LN14@DecodeBloc:
	mov	eax, DWORD PTR coef$[rbp]
	inc	eax
	mov	DWORD PTR coef$[rbp], eax
$LN16@DecodeBloc:
	cmp	DWORD PTR coef$[rbp], 8
	jge	SHORT $LN15@DecodeBloc

; 462  : 				_ColIDCT(&ctx.block[coef], &out[coef], c->stride);

	movsxd	rax, DWORD PTR coef$[rbp]
	mov	rcx, QWORD PTR out$[rbp]
	add	rcx, rax
	mov	rax, rcx
	movsxd	rcx, DWORD PTR coef$[rbp]
	mov	rdx, QWORD PTR this$[rbp]
	lea	rcx, QWORD PTR [rdx+rcx*4+524756]
	mov	rdx, QWORD PTR c$[rbp]
	mov	r9d, DWORD PTR [rdx+20]
	mov	r8, rax
	mov	rdx, rcx
	mov	rcx, QWORD PTR this$[rbp]
	call	?_ColIDCT@Decoder@Jpeg@@AEAAXPEBHPEAEH@Z ; Jpeg::Decoder::_ColIDCT
	jmp	SHORT $LN14@DecodeBloc
$LN15@DecodeBloc:
$LN1@DecodeBloc:

; 463  : 		}

	lea	rsp, QWORD PTR [rbp+80]
	pop	rbp
	ret	0
?_DecodeBlock@Decoder@Jpeg@@AEAAXPEAUComponent@12@PEAE@Z ENDP ; Jpeg::Decoder::_DecodeBlock
_TEXT	ENDS
; Function compile flags: /Odtp /ZI
; File C:\Users\paras\source\repos\grep-name\XenevaOS\Libs\Chitralekha\nanojpg.h
;	COMDAT ?_GetVLC@Decoder@Jpeg@@AEAAHPEAUVlcCode@12@PEAE@Z
_TEXT	SEGMENT
value$ = 0
bits$ = 4
tv144 = 72
tv141 = 72
this$ = 96
vlc$ = 104
code$ = 112
?_GetVLC@Decoder@Jpeg@@AEAAHPEAUVlcCode@12@PEAE@Z PROC	; Jpeg::Decoder::_GetVLC, COMDAT

; 430  : 		inline int _GetVLC(VlcCode* vlc, unsigned char* code) {

$LN7:
	mov	QWORD PTR [rsp+24], r8
	mov	QWORD PTR [rsp+16], rdx
	mov	QWORD PTR [rsp+8], rcx
	push	rbp
	sub	rsp, 112				; 00000070H
	lea	rbp, QWORD PTR [rsp+32]

; 431  : 			int value = _ShowBits(16);

	mov	edx, 16
	mov	rcx, QWORD PTR this$[rbp]
	call	?_ShowBits@Decoder@Jpeg@@AEAAHH@Z	; Jpeg::Decoder::_ShowBits
	mov	DWORD PTR value$[rbp], eax

; 432  : 			int bits = vlc[value].bits;

	movsxd	rax, DWORD PTR value$[rbp]
	mov	rcx, QWORD PTR vlc$[rbp]
	movzx	eax, BYTE PTR [rcx+rax*2]
	mov	DWORD PTR bits$[rbp], eax

; 433  : 			if (!bits) { ctx.error = SyntaxError; return 0; }

	cmp	DWORD PTR bits$[rbp], 0
	jne	SHORT $LN2@GetVLC
	mov	rax, QWORD PTR this$[rbp]
	mov	DWORD PTR [rax], 5
	xor	eax, eax
	jmp	$LN1@GetVLC
$LN2@GetVLC:

; 434  : 			_SkipBits(bits);

	mov	edx, DWORD PTR bits$[rbp]
	mov	rcx, QWORD PTR this$[rbp]
	call	?_SkipBits@Decoder@Jpeg@@AEAAXH@Z	; Jpeg::Decoder::_SkipBits

; 435  : 			value = vlc[value].code;

	movsxd	rax, DWORD PTR value$[rbp]
	mov	rcx, QWORD PTR vlc$[rbp]
	movzx	eax, BYTE PTR [rcx+rax*2+1]
	mov	DWORD PTR value$[rbp], eax

; 436  : 			if (code) *code = (unsigned char)value;

	cmp	QWORD PTR code$[rbp], 0
	je	SHORT $LN3@GetVLC
	mov	rax, QWORD PTR code$[rbp]
	movzx	ecx, BYTE PTR value$[rbp]
	mov	BYTE PTR [rax], cl
$LN3@GetVLC:

; 437  : 			bits = value & 15;

	mov	eax, DWORD PTR value$[rbp]
	and	eax, 15
	mov	DWORD PTR bits$[rbp], eax

; 438  : 			if (!bits) return 0;

	cmp	DWORD PTR bits$[rbp], 0
	jne	SHORT $LN4@GetVLC
	xor	eax, eax
	jmp	SHORT $LN1@GetVLC
$LN4@GetVLC:

; 439  : 			value = _GetBits(bits);

	mov	edx, DWORD PTR bits$[rbp]
	mov	rcx, QWORD PTR this$[rbp]
	call	?_GetBits@Decoder@Jpeg@@AEAAHH@Z	; Jpeg::Decoder::_GetBits
	mov	DWORD PTR value$[rbp], eax

; 440  : 			if (value < (1 << (bits - 1)))

	mov	eax, DWORD PTR bits$[rbp]
	dec	eax
	mov	ecx, 1
	mov	DWORD PTR tv141[rbp], ecx
	movzx	ecx, al
	mov	eax, DWORD PTR tv141[rbp]
	shl	eax, cl
	cmp	DWORD PTR value$[rbp], eax
	jge	SHORT $LN5@GetVLC

; 441  : 				value += ((-1) << bits) + 1;

	mov	eax, DWORD PTR bits$[rbp]
	mov	ecx, -1
	mov	DWORD PTR tv144[rbp], ecx
	movzx	ecx, al
	mov	eax, DWORD PTR tv144[rbp]
	shl	eax, cl
	mov	ecx, DWORD PTR value$[rbp]
	lea	eax, DWORD PTR [rcx+rax+1]
	mov	DWORD PTR value$[rbp], eax
$LN5@GetVLC:

; 442  : 			return value;

	mov	eax, DWORD PTR value$[rbp]
$LN1@GetVLC:

; 443  : 		}

	lea	rsp, QWORD PTR [rbp+80]
	pop	rbp
	ret	0
?_GetVLC@Decoder@Jpeg@@AEAAHPEAUVlcCode@12@PEAE@Z ENDP	; Jpeg::Decoder::_GetVLC
_TEXT	ENDS
; Function compile flags: /Odtp /ZI
; File C:\Users\paras\source\repos\grep-name\XenevaOS\Libs\Chitralekha\nanojpg.h
;	COMDAT ?_DecodeDRI@Decoder@Jpeg@@AEAAXXZ
_TEXT	SEGMENT
this$ = 80
?_DecodeDRI@Decoder@Jpeg@@AEAAXXZ PROC			; Jpeg::Decoder::_DecodeDRI, COMDAT

; 423  : 		inline void _DecodeDRI(void) {

$LN7:
	mov	QWORD PTR [rsp+8], rcx
	push	rbp
	sub	rsp, 96					; 00000060H
	lea	rbp, QWORD PTR [rsp+32]

; 424  : 			_DecodeLength();

	mov	rcx, QWORD PTR this$[rbp]
	call	?_DecodeLength@Decoder@Jpeg@@AEAAXXZ	; Jpeg::Decoder::_DecodeLength

; 425  : 			if (ctx.length < 2) JPEG_DECODER_THROW(SyntaxError);

	mov	rax, QWORD PTR this$[rbp]
	cmp	DWORD PTR [rax+20], 2
	jge	SHORT $LN5@DecodeDRI
$LN4@DecodeDRI:
	mov	rax, QWORD PTR this$[rbp]
	mov	DWORD PTR [rax], 5
	jmp	SHORT $LN1@DecodeDRI
	xor	eax, eax
	test	eax, eax
	jne	SHORT $LN4@DecodeDRI
$LN5@DecodeDRI:

; 426  : 			ctx.rstinterval = _Decode16(ctx.pos);

	mov	rax, QWORD PTR this$[rbp]
	mov	rdx, QWORD PTR [rax+8]
	mov	rcx, QWORD PTR this$[rbp]
	call	?_Decode16@Decoder@Jpeg@@AEAAGPEBE@Z	; Jpeg::Decoder::_Decode16
	movzx	eax, ax
	mov	rcx, QWORD PTR this$[rbp]
	mov	DWORD PTR [rcx+525012], eax

; 427  : 			_Skip(ctx.length);

	mov	rax, QWORD PTR this$[rbp]
	mov	edx, DWORD PTR [rax+20]
	mov	rcx, QWORD PTR this$[rbp]
	call	?_Skip@Decoder@Jpeg@@AEAAXH@Z		; Jpeg::Decoder::_Skip
$LN1@DecodeDRI:

; 428  : 		}

	lea	rsp, QWORD PTR [rbp+64]
	pop	rbp
	ret	0
?_DecodeDRI@Decoder@Jpeg@@AEAAXXZ ENDP			; Jpeg::Decoder::_DecodeDRI
_TEXT	ENDS
; Function compile flags: /Odtp /ZI
; File C:\Users\paras\source\repos\grep-name\XenevaOS\Libs\Chitralekha\nanojpg.h
;	COMDAT ?_DecodeDQT@Decoder@Jpeg@@AEAAXXZ
_TEXT	SEGMENT
i$ = 0
t$ = 8
tv152 = 80
this$ = 112
?_DecodeDQT@Decoder@Jpeg@@AEAAXXZ PROC			; Jpeg::Decoder::_DecodeDQT, COMDAT

; 407  : 		inline void _DecodeDQT(void) {

$LN16:
	mov	QWORD PTR [rsp+8], rcx
	push	rbp
	sub	rsp, 128				; 00000080H
	lea	rbp, QWORD PTR [rsp+32]

; 408  : 			int i;
; 409  : 			unsigned char *t;
; 410  : 			_DecodeLength();

	mov	rcx, QWORD PTR this$[rbp]
	call	?_DecodeLength@Decoder@Jpeg@@AEAAXXZ	; Jpeg::Decoder::_DecodeLength
$LN2@DecodeDQT:

; 411  : 			while (ctx.length >= 65) {

	mov	rax, QWORD PTR this$[rbp]
	cmp	DWORD PTR [rax+20], 65			; 00000041H
	jl	$LN3@DecodeDQT

; 412  : 				i = ctx.pos[0];

	mov	eax, 1
	imul	rax, rax, 0
	mov	rcx, QWORD PTR this$[rbp]
	mov	rcx, QWORD PTR [rcx+8]
	movzx	eax, BYTE PTR [rcx+rax]
	mov	DWORD PTR i$[rbp], eax

; 413  : 				if (i & 0xFC) JPEG_DECODER_THROW(SyntaxError);

	mov	eax, DWORD PTR i$[rbp]
	and	eax, 252				; 000000fcH
	test	eax, eax
	je	SHORT $LN13@DecodeDQT
$LN6@DecodeDQT:
	mov	rax, QWORD PTR this$[rbp]
	mov	DWORD PTR [rax], 5
	jmp	$LN1@DecodeDQT
	xor	eax, eax
	test	eax, eax
	jne	SHORT $LN6@DecodeDQT
$LN13@DecodeDQT:

; 414  : 				ctx.qtavail |= 1 << i;

	mov	eax, DWORD PTR i$[rbp]
	mov	ecx, 1
	mov	DWORD PTR tv152[rbp], ecx
	movzx	ecx, al
	mov	eax, DWORD PTR tv152[rbp]
	shl	eax, cl
	mov	rcx, QWORD PTR this$[rbp]
	mov	ecx, DWORD PTR [rcx+200]
	or	ecx, eax
	mov	eax, ecx
	mov	rcx, QWORD PTR this$[rbp]
	mov	DWORD PTR [rcx+200], eax

; 415  : 				t = &ctx.qtab[i][0];

	movsxd	rax, DWORD PTR i$[rbp]
	imul	rax, rax, 64				; 00000040H
	mov	rcx, QWORD PTR this$[rbp]
	lea	rax, QWORD PTR [rcx+rax+204]
	mov	ecx, 1
	imul	rcx, rcx, 0
	add	rax, rcx
	mov	QWORD PTR t$[rbp], rax

; 416  : 				for (i = 0; i < 64; ++i)

	mov	DWORD PTR i$[rbp], 0
	jmp	SHORT $LN9@DecodeDQT
$LN7@DecodeDQT:
	mov	eax, DWORD PTR i$[rbp]
	inc	eax
	mov	DWORD PTR i$[rbp], eax
$LN9@DecodeDQT:
	cmp	DWORD PTR i$[rbp], 64			; 00000040H
	jge	SHORT $LN8@DecodeDQT

; 417  : 					t[i] = ctx.pos[i + 1];

	mov	eax, DWORD PTR i$[rbp]
	inc	eax
	cdqe
	mov	rcx, QWORD PTR this$[rbp]
	mov	rcx, QWORD PTR [rcx+8]
	movsxd	rdx, DWORD PTR i$[rbp]
	mov	r8, QWORD PTR t$[rbp]
	movzx	eax, BYTE PTR [rcx+rax]
	mov	BYTE PTR [r8+rdx], al
	jmp	SHORT $LN7@DecodeDQT
$LN8@DecodeDQT:

; 418  : 				_Skip(65);

	mov	edx, 65					; 00000041H
	mov	rcx, QWORD PTR this$[rbp]
	call	?_Skip@Decoder@Jpeg@@AEAAXH@Z		; Jpeg::Decoder::_Skip

; 419  : 			}

	jmp	$LN2@DecodeDQT
$LN3@DecodeDQT:

; 420  : 			if (ctx.length) JPEG_DECODER_THROW(SyntaxError);

	mov	rax, QWORD PTR this$[rbp]
	cmp	DWORD PTR [rax+20], 0
	je	SHORT $LN14@DecodeDQT
$LN12@DecodeDQT:
	mov	rax, QWORD PTR this$[rbp]
	mov	DWORD PTR [rax], 5
	jmp	SHORT $LN1@DecodeDQT
	xor	eax, eax
	test	eax, eax
	jne	SHORT $LN12@DecodeDQT
$LN14@DecodeDQT:
$LN1@DecodeDQT:

; 421  : 		}

	lea	rsp, QWORD PTR [rbp+96]
	pop	rbp
	ret	0
?_DecodeDQT@Decoder@Jpeg@@AEAAXXZ ENDP			; Jpeg::Decoder::_DecodeDQT
_TEXT	ENDS
; Function compile flags: /Odtp /ZI
; File C:\Users\paras\source\repos\grep-name\XenevaOS\Libs\Chitralekha\nanojpg.h
;	COMDAT ?_DecodeDHT@Decoder@Jpeg@@AEAAXXZ
_TEXT	SEGMENT
codelen$ = 0
currcnt$ = 4
remain$ = 8
spread$ = 12
i$ = 16
j$ = 20
vlc$ = 24
counts$ = 32
code$1 = 48
tv176 = 116
this$ = 144
?_DecodeDHT@Decoder@Jpeg@@AEAAXXZ PROC			; Jpeg::Decoder::_DecodeDHT, COMDAT

; 367  : 		inline void _DecodeDHT(void) {

$LN40:
	mov	QWORD PTR [rsp+8], rcx
	push	rbp
	sub	rsp, 160				; 000000a0H
	lea	rbp, QWORD PTR [rsp+32]

; 368  : 			int codelen, currcnt, remain, spread, i, j;
; 369  : 			VlcCode *vlc;
; 370  : 			unsigned char counts[16];
; 371  : 			_DecodeLength();

	mov	rcx, QWORD PTR this$[rbp]
	call	?_DecodeLength@Decoder@Jpeg@@AEAAXXZ	; Jpeg::Decoder::_DecodeLength
$LN2@DecodeDHT:

; 372  : 			while (ctx.length >= 17) {

	mov	rax, QWORD PTR this$[rbp]
	cmp	DWORD PTR [rax+20], 17
	jl	$LN3@DecodeDHT

; 373  : 				i = ctx.pos[0];

	mov	eax, 1
	imul	rax, rax, 0
	mov	rcx, QWORD PTR this$[rbp]
	mov	rcx, QWORD PTR [rcx+8]
	movzx	eax, BYTE PTR [rcx+rax]
	mov	DWORD PTR i$[rbp], eax

; 374  : 				if (i & 0xEC) JPEG_DECODER_THROW(SyntaxError);

	mov	eax, DWORD PTR i$[rbp]
	and	eax, 236				; 000000ecH
	test	eax, eax
	je	SHORT $LN33@DecodeDHT
$LN6@DecodeDHT:
	mov	rax, QWORD PTR this$[rbp]
	mov	DWORD PTR [rax], 5
	jmp	$LN1@DecodeDHT
	xor	eax, eax
	test	eax, eax
	jne	SHORT $LN6@DecodeDHT
$LN33@DecodeDHT:

; 375  : 				if (i & 0x02) JPEG_DECODER_THROW(Unsupported);

	mov	eax, DWORD PTR i$[rbp]
	and	eax, 2
	test	eax, eax
	je	SHORT $LN34@DecodeDHT
$LN9@DecodeDHT:
	mov	rax, QWORD PTR this$[rbp]
	mov	DWORD PTR [rax], 2
	jmp	$LN1@DecodeDHT
	xor	eax, eax
	test	eax, eax
	jne	SHORT $LN9@DecodeDHT
$LN34@DecodeDHT:

; 376  : 				i = (i | (i >> 3)) & 3;  // combined DC/AC + tableid value

	mov	eax, DWORD PTR i$[rbp]
	sar	eax, 3
	mov	ecx, DWORD PTR i$[rbp]
	or	ecx, eax
	mov	eax, ecx
	and	eax, 3
	mov	DWORD PTR i$[rbp], eax

; 377  : 				for (codelen = 1; codelen <= 16; ++codelen)

	mov	DWORD PTR codelen$[rbp], 1
	jmp	SHORT $LN12@DecodeDHT
$LN10@DecodeDHT:
	mov	eax, DWORD PTR codelen$[rbp]
	inc	eax
	mov	DWORD PTR codelen$[rbp], eax
$LN12@DecodeDHT:
	cmp	DWORD PTR codelen$[rbp], 16
	jg	SHORT $LN11@DecodeDHT

; 378  : 					counts[codelen - 1] = ctx.pos[codelen];

	movsxd	rax, DWORD PTR codelen$[rbp]
	mov	rcx, QWORD PTR this$[rbp]
	mov	rcx, QWORD PTR [rcx+8]
	mov	edx, DWORD PTR codelen$[rbp]
	dec	edx
	movsxd	rdx, edx
	movzx	eax, BYTE PTR [rcx+rax]
	mov	BYTE PTR counts$[rbp+rdx], al
	jmp	SHORT $LN10@DecodeDHT
$LN11@DecodeDHT:

; 379  : 				_Skip(17);

	mov	edx, 17
	mov	rcx, QWORD PTR this$[rbp]
	call	?_Skip@Decoder@Jpeg@@AEAAXH@Z		; Jpeg::Decoder::_Skip

; 380  : 				vlc = &ctx.vlctab[i][0];

	movsxd	rax, DWORD PTR i$[rbp]
	imul	rax, rax, 131072			; 00020000H
	mov	rcx, QWORD PTR this$[rbp]
	lea	rax, QWORD PTR [rcx+rax+460]
	mov	ecx, 2
	imul	rcx, rcx, 0
	add	rax, rcx
	mov	QWORD PTR vlc$[rbp], rax

; 381  : 				remain = spread = 65536;

	mov	DWORD PTR spread$[rbp], 65536		; 00010000H
	mov	eax, DWORD PTR spread$[rbp]
	mov	DWORD PTR remain$[rbp], eax

; 382  : 				for (codelen = 1; codelen <= 16; ++codelen) {

	mov	DWORD PTR codelen$[rbp], 1
	jmp	SHORT $LN15@DecodeDHT
$LN13@DecodeDHT:
	mov	eax, DWORD PTR codelen$[rbp]
	inc	eax
	mov	DWORD PTR codelen$[rbp], eax
$LN15@DecodeDHT:
	cmp	DWORD PTR codelen$[rbp], 16
	jg	$LN14@DecodeDHT

; 383  : 					spread >>= 1;

	mov	eax, DWORD PTR spread$[rbp]
	sar	eax, 1
	mov	DWORD PTR spread$[rbp], eax

; 384  : 					currcnt = counts[codelen - 1];

	mov	eax, DWORD PTR codelen$[rbp]
	dec	eax
	cdqe
	movzx	eax, BYTE PTR counts$[rbp+rax]
	mov	DWORD PTR currcnt$[rbp], eax

; 385  : 					if (!currcnt) continue;

	cmp	DWORD PTR currcnt$[rbp], 0
	jne	SHORT $LN35@DecodeDHT
	jmp	SHORT $LN13@DecodeDHT
$LN35@DecodeDHT:

; 386  : 					if (ctx.length < currcnt) JPEG_DECODER_THROW(SyntaxError);

	mov	rax, QWORD PTR this$[rbp]
	mov	ecx, DWORD PTR currcnt$[rbp]
	cmp	DWORD PTR [rax+20], ecx
	jge	SHORT $LN36@DecodeDHT
$LN18@DecodeDHT:
	mov	rax, QWORD PTR this$[rbp]
	mov	DWORD PTR [rax], 5
	jmp	$LN1@DecodeDHT
	xor	eax, eax
	test	eax, eax
	jne	SHORT $LN18@DecodeDHT
$LN36@DecodeDHT:

; 387  : 					remain -= currcnt << (16 - codelen);

	mov	eax, 16
	sub	eax, DWORD PTR codelen$[rbp]
	movzx	ecx, al
	mov	eax, DWORD PTR currcnt$[rbp]
	shl	eax, cl
	mov	ecx, DWORD PTR remain$[rbp]
	sub	ecx, eax
	mov	eax, ecx
	mov	DWORD PTR remain$[rbp], eax

; 388  : 					if (remain < 0) JPEG_DECODER_THROW(SyntaxError);

	cmp	DWORD PTR remain$[rbp], 0
	jge	SHORT $LN37@DecodeDHT
$LN21@DecodeDHT:
	mov	rax, QWORD PTR this$[rbp]
	mov	DWORD PTR [rax], 5
	jmp	$LN1@DecodeDHT
	xor	eax, eax
	test	eax, eax
	jne	SHORT $LN21@DecodeDHT
$LN37@DecodeDHT:

; 389  : 					for (i = 0; i < currcnt; ++i) {

	mov	DWORD PTR i$[rbp], 0
	jmp	SHORT $LN24@DecodeDHT
$LN22@DecodeDHT:
	mov	eax, DWORD PTR i$[rbp]
	inc	eax
	mov	DWORD PTR i$[rbp], eax
$LN24@DecodeDHT:
	mov	eax, DWORD PTR currcnt$[rbp]
	cmp	DWORD PTR i$[rbp], eax
	jge	SHORT $LN23@DecodeDHT

; 390  : 						register unsigned char code = ctx.pos[i];

	movsxd	rax, DWORD PTR i$[rbp]
	mov	rcx, QWORD PTR this$[rbp]
	mov	rcx, QWORD PTR [rcx+8]
	movzx	eax, BYTE PTR [rcx+rax]
	mov	BYTE PTR code$1[rbp], al

; 391  : 						for (j = spread; j; --j) {

	mov	eax, DWORD PTR spread$[rbp]
	mov	DWORD PTR j$[rbp], eax
	jmp	SHORT $LN27@DecodeDHT
$LN25@DecodeDHT:
	mov	eax, DWORD PTR j$[rbp]
	dec	eax
	mov	DWORD PTR j$[rbp], eax
$LN27@DecodeDHT:
	cmp	DWORD PTR j$[rbp], 0
	je	SHORT $LN26@DecodeDHT

; 392  : 							vlc->bits = (unsigned char)codelen;

	mov	rax, QWORD PTR vlc$[rbp]
	movzx	ecx, BYTE PTR codelen$[rbp]
	mov	BYTE PTR [rax], cl

; 393  : 							vlc->code = code;

	mov	rax, QWORD PTR vlc$[rbp]
	movzx	ecx, BYTE PTR code$1[rbp]
	mov	BYTE PTR [rax+1], cl

; 394  : 							++vlc;

	mov	rax, QWORD PTR vlc$[rbp]
	add	rax, 2
	mov	QWORD PTR vlc$[rbp], rax

; 395  : 						}

	jmp	SHORT $LN25@DecodeDHT
$LN26@DecodeDHT:

; 396  : 					}

	jmp	SHORT $LN22@DecodeDHT
$LN23@DecodeDHT:

; 397  : 					_Skip(currcnt);

	mov	edx, DWORD PTR currcnt$[rbp]
	mov	rcx, QWORD PTR this$[rbp]
	call	?_Skip@Decoder@Jpeg@@AEAAXH@Z		; Jpeg::Decoder::_Skip

; 398  : 				}

	jmp	$LN13@DecodeDHT
$LN14@DecodeDHT:
$LN28@DecodeDHT:

; 399  : 				while (remain--) {

	mov	eax, DWORD PTR remain$[rbp]
	mov	DWORD PTR tv176[rbp], eax
	mov	eax, DWORD PTR remain$[rbp]
	dec	eax
	mov	DWORD PTR remain$[rbp], eax
	cmp	DWORD PTR tv176[rbp], 0
	je	SHORT $LN29@DecodeDHT

; 400  : 					vlc->bits = 0;

	mov	rax, QWORD PTR vlc$[rbp]
	mov	BYTE PTR [rax], 0

; 401  : 					++vlc;

	mov	rax, QWORD PTR vlc$[rbp]
	add	rax, 2
	mov	QWORD PTR vlc$[rbp], rax

; 402  : 				}

	jmp	SHORT $LN28@DecodeDHT
$LN29@DecodeDHT:

; 403  : 			}

	jmp	$LN2@DecodeDHT
$LN3@DecodeDHT:

; 404  : 			if (ctx.length) JPEG_DECODER_THROW(SyntaxError);

	mov	rax, QWORD PTR this$[rbp]
	cmp	DWORD PTR [rax+20], 0
	je	SHORT $LN38@DecodeDHT
$LN32@DecodeDHT:
	mov	rax, QWORD PTR this$[rbp]
	mov	DWORD PTR [rax], 5
	jmp	SHORT $LN1@DecodeDHT
	xor	eax, eax
	test	eax, eax
	jne	SHORT $LN32@DecodeDHT
$LN38@DecodeDHT:
$LN1@DecodeDHT:

; 405  : 		}

	lea	rsp, QWORD PTR [rbp+128]
	pop	rbp
	ret	0
?_DecodeDHT@Decoder@Jpeg@@AEAAXXZ ENDP			; Jpeg::Decoder::_DecodeDHT
_TEXT	ENDS
; Function compile flags: /Odtp /ZI
; File C:\Users\paras\source\repos\grep-name\XenevaOS\Libs\Chitralekha\nanojpg.h
;	COMDAT ?_DecodeSOF@Decoder@Jpeg@@AEAAXXZ
_TEXT	SEGMENT
i$ = 0
ssxmax$ = 4
ssymax$ = 8
c$ = 16
step1$1 = 24
step2$2 = 28
step3$3 = 32
total$4 = 36
tv467 = 104
tv320 = 104
tv212 = 104
tv194 = 104
tv175 = 104
tv141 = 104
this$ = 128
?_DecodeSOF@Decoder@Jpeg@@AEAAXXZ PROC			; Jpeg::Decoder::_DecodeSOF, COMDAT

; 313  : 		inline void _DecodeSOF(void) {

$LN66:
	mov	QWORD PTR [rsp+8], rcx
	push	rbp
	sub	rsp, 144				; 00000090H
	lea	rbp, QWORD PTR [rsp+32]

; 314  : 			int i, ssxmax = 0, ssymax = 0;

	mov	DWORD PTR ssxmax$[rbp], 0
	mov	DWORD PTR ssymax$[rbp], 0

; 315  : 			Component* c;
; 316  : 			_DecodeLength();

	mov	rcx, QWORD PTR this$[rbp]
	call	?_DecodeLength@Decoder@Jpeg@@AEAAXXZ	; Jpeg::Decoder::_DecodeLength

; 317  : 			if (ctx.length < 9) JPEG_DECODER_THROW(SyntaxError);

	mov	rax, QWORD PTR this$[rbp]
	cmp	DWORD PTR [rax+20], 9
	jge	SHORT $LN46@DecodeSOF
$LN4@DecodeSOF:
	mov	rax, QWORD PTR this$[rbp]
	mov	DWORD PTR [rax], 5
	jmp	$LN1@DecodeSOF
	xor	eax, eax
	test	eax, eax
	jne	SHORT $LN4@DecodeSOF
$LN46@DecodeSOF:

; 318  : 			if (ctx.pos[0] != 8) JPEG_DECODER_THROW(Unsupported);

	mov	eax, 1
	imul	rax, rax, 0
	mov	rcx, QWORD PTR this$[rbp]
	mov	rcx, QWORD PTR [rcx+8]
	movzx	eax, BYTE PTR [rcx+rax]
	cmp	eax, 8
	je	SHORT $LN47@DecodeSOF
$LN7@DecodeSOF:
	mov	rax, QWORD PTR this$[rbp]
	mov	DWORD PTR [rax], 2
	jmp	$LN1@DecodeSOF
	xor	eax, eax
	test	eax, eax
	jne	SHORT $LN7@DecodeSOF
$LN47@DecodeSOF:

; 319  : 			ctx.height = _Decode16(ctx.pos + 1);

	mov	rax, QWORD PTR this$[rbp]
	mov	rax, QWORD PTR [rax+8]
	inc	rax
	mov	rdx, rax
	mov	rcx, QWORD PTR this$[rbp]
	call	?_Decode16@Decoder@Jpeg@@AEAAGPEBE@Z	; Jpeg::Decoder::_Decode16
	movzx	eax, ax
	mov	rcx, QWORD PTR this$[rbp]
	mov	DWORD PTR [rcx+28], eax

; 320  : 			ctx.width = _Decode16(ctx.pos + 3);

	mov	rax, QWORD PTR this$[rbp]
	mov	rax, QWORD PTR [rax+8]
	add	rax, 3
	mov	rdx, rax
	mov	rcx, QWORD PTR this$[rbp]
	call	?_Decode16@Decoder@Jpeg@@AEAAGPEBE@Z	; Jpeg::Decoder::_Decode16
	movzx	eax, ax
	mov	rcx, QWORD PTR this$[rbp]
	mov	DWORD PTR [rcx+24], eax

; 321  : 			ctx.ncomp = ctx.pos[5];

	mov	eax, 1
	imul	rax, rax, 5
	mov	rcx, QWORD PTR this$[rbp]
	mov	rcx, QWORD PTR [rcx+8]
	movzx	eax, BYTE PTR [rcx+rax]
	mov	rcx, QWORD PTR this$[rbp]
	mov	DWORD PTR [rcx+48], eax

; 322  : 			_Skip(6);

	mov	edx, 6
	mov	rcx, QWORD PTR this$[rbp]
	call	?_Skip@Decoder@Jpeg@@AEAAXH@Z		; Jpeg::Decoder::_Skip

; 323  : 			switch (ctx.ncomp) {

	mov	rax, QWORD PTR this$[rbp]
	mov	eax, DWORD PTR [rax+48]
	mov	DWORD PTR tv141[rbp], eax
	cmp	DWORD PTR tv141[rbp], 1
	je	SHORT $LN48@DecodeSOF
	cmp	DWORD PTR tv141[rbp], 3
	je	SHORT $LN49@DecodeSOF
	jmp	SHORT $LN50@DecodeSOF
$LN48@DecodeSOF:
$LN49@DecodeSOF:

; 324  : 			case 1:
; 325  : 			case 3:
; 326  : 				break;

	jmp	SHORT $LN8@DecodeSOF
$LN50@DecodeSOF:
$LN12@DecodeSOF:

; 327  : 			default:
; 328  : 				JPEG_DECODER_THROW(Unsupported);

	mov	rax, QWORD PTR this$[rbp]
	mov	DWORD PTR [rax], 2
	jmp	$LN1@DecodeSOF
	xor	eax, eax
	test	eax, eax
	jne	SHORT $LN12@DecodeSOF
$LN8@DecodeSOF:

; 329  : 			}
; 330  : 			if (ctx.length < (ctx.ncomp * 3)) JPEG_DECODER_THROW(SyntaxError);

	mov	rax, QWORD PTR this$[rbp]
	imul	eax, DWORD PTR [rax+48], 3
	mov	rcx, QWORD PTR this$[rbp]
	cmp	DWORD PTR [rcx+20], eax
	jge	SHORT $LN51@DecodeSOF
$LN15@DecodeSOF:
	mov	rax, QWORD PTR this$[rbp]
	mov	DWORD PTR [rax], 5
	jmp	$LN1@DecodeSOF
	xor	eax, eax
	test	eax, eax
	jne	SHORT $LN15@DecodeSOF
$LN51@DecodeSOF:

; 331  : 			for (i = 0, c = ctx.comp; i < ctx.ncomp; ++i, ++c) {

	mov	DWORD PTR i$[rbp], 0
	mov	rax, QWORD PTR this$[rbp]
	add	rax, 52					; 00000034H
	mov	QWORD PTR c$[rbp], rax
	jmp	SHORT $LN18@DecodeSOF
$LN16@DecodeSOF:
	mov	eax, DWORD PTR i$[rbp]
	inc	eax
	mov	DWORD PTR i$[rbp], eax
	mov	rax, QWORD PTR c$[rbp]
	add	rax, 48					; 00000030H
	mov	QWORD PTR c$[rbp], rax
$LN18@DecodeSOF:
	mov	rax, QWORD PTR this$[rbp]
	mov	eax, DWORD PTR [rax+48]
	cmp	DWORD PTR i$[rbp], eax
	jge	$LN17@DecodeSOF

; 332  : 				c->cid = ctx.pos[0];

	mov	eax, 1
	imul	rax, rax, 0
	mov	rcx, QWORD PTR this$[rbp]
	mov	rcx, QWORD PTR [rcx+8]
	movzx	eax, BYTE PTR [rcx+rax]
	mov	rcx, QWORD PTR c$[rbp]
	mov	DWORD PTR [rcx], eax

; 333  : 				if (!(c->ssx = ctx.pos[1] >> 4)) JPEG_DECODER_THROW(SyntaxError);

	mov	eax, 1
	imul	rax, rax, 1
	mov	rcx, QWORD PTR this$[rbp]
	mov	rcx, QWORD PTR [rcx+8]
	movzx	eax, BYTE PTR [rcx+rax]
	sar	eax, 4
	mov	DWORD PTR tv175[rbp], eax
	mov	rax, QWORD PTR c$[rbp]
	mov	ecx, DWORD PTR tv175[rbp]
	mov	DWORD PTR [rax+4], ecx
	cmp	DWORD PTR tv175[rbp], 0
	jne	SHORT $LN52@DecodeSOF
$LN21@DecodeSOF:
	mov	rax, QWORD PTR this$[rbp]
	mov	DWORD PTR [rax], 5
	jmp	$LN1@DecodeSOF
	xor	eax, eax
	test	eax, eax
	jne	SHORT $LN21@DecodeSOF
$LN52@DecodeSOF:

; 334  : 				if (c->ssx & (c->ssx - 1)) JPEG_DECODER_THROW(Unsupported);  // non-power of two

	mov	rax, QWORD PTR c$[rbp]
	mov	eax, DWORD PTR [rax+4]
	dec	eax
	mov	rcx, QWORD PTR c$[rbp]
	mov	ecx, DWORD PTR [rcx+4]
	and	ecx, eax
	mov	eax, ecx
	test	eax, eax
	je	SHORT $LN53@DecodeSOF
$LN24@DecodeSOF:
	mov	rax, QWORD PTR this$[rbp]
	mov	DWORD PTR [rax], 2
	jmp	$LN1@DecodeSOF
	xor	eax, eax
	test	eax, eax
	jne	SHORT $LN24@DecodeSOF
$LN53@DecodeSOF:

; 335  : 				if (!(c->ssy = ctx.pos[1] & 15)) JPEG_DECODER_THROW(SyntaxError);

	mov	eax, 1
	imul	rax, rax, 1
	mov	rcx, QWORD PTR this$[rbp]
	mov	rcx, QWORD PTR [rcx+8]
	movzx	eax, BYTE PTR [rcx+rax]
	and	eax, 15
	mov	DWORD PTR tv194[rbp], eax
	mov	rax, QWORD PTR c$[rbp]
	mov	ecx, DWORD PTR tv194[rbp]
	mov	DWORD PTR [rax+8], ecx
	cmp	DWORD PTR tv194[rbp], 0
	jne	SHORT $LN54@DecodeSOF
$LN27@DecodeSOF:
	mov	rax, QWORD PTR this$[rbp]
	mov	DWORD PTR [rax], 5
	jmp	$LN1@DecodeSOF
	xor	eax, eax
	test	eax, eax
	jne	SHORT $LN27@DecodeSOF
$LN54@DecodeSOF:

; 336  : 				if (c->ssy & (c->ssy - 1)) JPEG_DECODER_THROW(Unsupported);  // non-power of two

	mov	rax, QWORD PTR c$[rbp]
	mov	eax, DWORD PTR [rax+8]
	dec	eax
	mov	rcx, QWORD PTR c$[rbp]
	mov	ecx, DWORD PTR [rcx+8]
	and	ecx, eax
	mov	eax, ecx
	test	eax, eax
	je	SHORT $LN55@DecodeSOF
$LN30@DecodeSOF:
	mov	rax, QWORD PTR this$[rbp]
	mov	DWORD PTR [rax], 2
	jmp	$LN1@DecodeSOF
	xor	eax, eax
	test	eax, eax
	jne	SHORT $LN30@DecodeSOF
$LN55@DecodeSOF:

; 337  : 				if ((c->qtsel = ctx.pos[2]) & 0xFC) JPEG_DECODER_THROW(SyntaxError);

	mov	eax, 1
	imul	rax, rax, 2
	mov	rcx, QWORD PTR this$[rbp]
	mov	rcx, QWORD PTR [rcx+8]
	movzx	eax, BYTE PTR [rcx+rax]
	mov	DWORD PTR tv212[rbp], eax
	mov	rax, QWORD PTR c$[rbp]
	mov	ecx, DWORD PTR tv212[rbp]
	mov	DWORD PTR [rax+24], ecx
	mov	eax, DWORD PTR tv212[rbp]
	and	eax, 252				; 000000fcH
	test	eax, eax
	je	SHORT $LN56@DecodeSOF
$LN33@DecodeSOF:
	mov	rax, QWORD PTR this$[rbp]
	mov	DWORD PTR [rax], 5
	jmp	$LN1@DecodeSOF
	xor	eax, eax
	test	eax, eax
	jne	SHORT $LN33@DecodeSOF
$LN56@DecodeSOF:

; 338  : 				_Skip(3);

	mov	edx, 3
	mov	rcx, QWORD PTR this$[rbp]
	call	?_Skip@Decoder@Jpeg@@AEAAXH@Z		; Jpeg::Decoder::_Skip

; 339  : 				ctx.qtused |= 1 << c->qtsel;

	mov	rax, QWORD PTR c$[rbp]
	mov	eax, DWORD PTR [rax+24]
	mov	ecx, 1
	mov	DWORD PTR tv467[rbp], ecx
	movzx	ecx, al
	mov	eax, DWORD PTR tv467[rbp]
	shl	eax, cl
	mov	rcx, QWORD PTR this$[rbp]
	mov	ecx, DWORD PTR [rcx+196]
	or	ecx, eax
	mov	eax, ecx
	mov	rcx, QWORD PTR this$[rbp]
	mov	DWORD PTR [rcx+196], eax

; 340  : 				if (c->ssx > ssxmax) ssxmax = c->ssx;

	mov	rax, QWORD PTR c$[rbp]
	mov	ecx, DWORD PTR ssxmax$[rbp]
	cmp	DWORD PTR [rax+4], ecx
	jle	SHORT $LN57@DecodeSOF
	mov	rax, QWORD PTR c$[rbp]
	mov	eax, DWORD PTR [rax+4]
	mov	DWORD PTR ssxmax$[rbp], eax
$LN57@DecodeSOF:

; 341  : 				if (c->ssy > ssymax) ssymax = c->ssy;

	mov	rax, QWORD PTR c$[rbp]
	mov	ecx, DWORD PTR ssymax$[rbp]
	cmp	DWORD PTR [rax+8], ecx
	jle	SHORT $LN58@DecodeSOF
	mov	rax, QWORD PTR c$[rbp]
	mov	eax, DWORD PTR [rax+8]
	mov	DWORD PTR ssymax$[rbp], eax
$LN58@DecodeSOF:

; 342  : 			}

	jmp	$LN16@DecodeSOF
$LN17@DecodeSOF:

; 343  : 			ctx.mbsizex = ssxmax << 3;

	mov	eax, DWORD PTR ssxmax$[rbp]
	shl	eax, 3
	mov	rcx, QWORD PTR this$[rbp]
	mov	DWORD PTR [rcx+40], eax

; 344  : 			ctx.mbsizey = ssymax << 3;

	mov	eax, DWORD PTR ssymax$[rbp]
	shl	eax, 3
	mov	rcx, QWORD PTR this$[rbp]
	mov	DWORD PTR [rcx+44], eax

; 345  : 			ctx.mbwidth = (ctx.width + ctx.mbsizex - 1) / ctx.mbsizex;

	mov	rax, QWORD PTR this$[rbp]
	mov	eax, DWORD PTR [rax+24]
	mov	rcx, QWORD PTR this$[rbp]
	mov	ecx, DWORD PTR [rcx+40]
	lea	eax, DWORD PTR [rax+rcx-1]
	cdq
	mov	rcx, QWORD PTR this$[rbp]
	idiv	DWORD PTR [rcx+40]
	mov	rcx, QWORD PTR this$[rbp]
	mov	DWORD PTR [rcx+32], eax

; 346  : 			ctx.mbheight = (ctx.height + ctx.mbsizey - 1) / ctx.mbsizey;

	mov	rax, QWORD PTR this$[rbp]
	mov	eax, DWORD PTR [rax+28]
	mov	rcx, QWORD PTR this$[rbp]
	mov	ecx, DWORD PTR [rcx+44]
	lea	eax, DWORD PTR [rax+rcx-1]
	cdq
	mov	rcx, QWORD PTR this$[rbp]
	idiv	DWORD PTR [rcx+44]
	mov	rcx, QWORD PTR this$[rbp]
	mov	DWORD PTR [rcx+36], eax

; 347  : 			for (i = 0, c = ctx.comp; i < ctx.ncomp; ++i, ++c) {

	mov	DWORD PTR i$[rbp], 0
	mov	rax, QWORD PTR this$[rbp]
	add	rax, 52					; 00000034H
	mov	QWORD PTR c$[rbp], rax
	jmp	SHORT $LN36@DecodeSOF
$LN34@DecodeSOF:
	mov	eax, DWORD PTR i$[rbp]
	inc	eax
	mov	DWORD PTR i$[rbp], eax
	mov	rax, QWORD PTR c$[rbp]
	add	rax, 48					; 00000030H
	mov	QWORD PTR c$[rbp], rax
$LN36@DecodeSOF:
	mov	rax, QWORD PTR this$[rbp]
	mov	eax, DWORD PTR [rax+48]
	cmp	DWORD PTR i$[rbp], eax
	jge	$LN35@DecodeSOF

; 348  : 				c->width = (ctx.width * c->ssx + ssxmax - 1) / ssxmax;

	mov	rax, QWORD PTR this$[rbp]
	mov	rcx, QWORD PTR c$[rbp]
	mov	eax, DWORD PTR [rax+24]
	imul	eax, DWORD PTR [rcx+4]
	mov	ecx, DWORD PTR ssxmax$[rbp]
	lea	eax, DWORD PTR [rax+rcx-1]
	cdq
	idiv	DWORD PTR ssxmax$[rbp]
	mov	rcx, QWORD PTR c$[rbp]
	mov	DWORD PTR [rcx+12], eax

; 349  : 				c->stride = (c->width + 7) & 0x7FFFFFF8;

	mov	rax, QWORD PTR c$[rbp]
	mov	eax, DWORD PTR [rax+12]
	add	eax, 7
	and	eax, 2147483640				; 7ffffff8H
	mov	rcx, QWORD PTR c$[rbp]
	mov	DWORD PTR [rcx+20], eax

; 350  : 				c->height = (ctx.height * c->ssy + ssymax - 1) / ssymax;

	mov	rax, QWORD PTR this$[rbp]
	mov	rcx, QWORD PTR c$[rbp]
	mov	eax, DWORD PTR [rax+28]
	imul	eax, DWORD PTR [rcx+8]
	mov	ecx, DWORD PTR ssymax$[rbp]
	lea	eax, DWORD PTR [rax+rcx-1]
	cdq
	idiv	DWORD PTR ssymax$[rbp]
	mov	rcx, QWORD PTR c$[rbp]
	mov	DWORD PTR [rcx+16], eax

; 351  : 				c->stride = ctx.mbwidth * ctx.mbsizex * c->ssx / ssxmax;

	mov	rax, QWORD PTR this$[rbp]
	mov	rcx, QWORD PTR this$[rbp]
	mov	eax, DWORD PTR [rax+32]
	imul	eax, DWORD PTR [rcx+40]
	mov	rcx, QWORD PTR c$[rbp]
	imul	eax, DWORD PTR [rcx+4]
	cdq
	idiv	DWORD PTR ssxmax$[rbp]
	mov	rcx, QWORD PTR c$[rbp]
	mov	DWORD PTR [rcx+20], eax

; 352  : 				if (((c->width < 3) && (c->ssx != ssxmax)) || ((c->height < 3) && (c->ssy != ssymax))) JPEG_DECODER_THROW(Unsupported);

	mov	rax, QWORD PTR c$[rbp]
	cmp	DWORD PTR [rax+12], 3
	jge	SHORT $LN61@DecodeSOF
	mov	rax, QWORD PTR c$[rbp]
	mov	ecx, DWORD PTR ssxmax$[rbp]
	cmp	DWORD PTR [rax+4], ecx
	jne	SHORT $LN60@DecodeSOF
$LN61@DecodeSOF:
	mov	rax, QWORD PTR c$[rbp]
	cmp	DWORD PTR [rax+16], 3
	jge	SHORT $LN59@DecodeSOF
	mov	rax, QWORD PTR c$[rbp]
	mov	ecx, DWORD PTR ssymax$[rbp]
	cmp	DWORD PTR [rax+8], ecx
	je	SHORT $LN59@DecodeSOF
$LN60@DecodeSOF:
$LN39@DecodeSOF:
	mov	rax, QWORD PTR this$[rbp]
	mov	DWORD PTR [rax], 2
	jmp	$LN1@DecodeSOF
	xor	eax, eax
	test	eax, eax
	jne	SHORT $LN39@DecodeSOF
$LN59@DecodeSOF:

; 353  : 				uint32_t step1 = ctx.mbheight * ctx.mbsizey;

	mov	rax, QWORD PTR this$[rbp]
	mov	rcx, QWORD PTR this$[rbp]
	mov	eax, DWORD PTR [rax+36]
	imul	eax, DWORD PTR [rcx+44]
	mov	DWORD PTR step1$1[rbp], eax

; 354  : 				uint32_t step2 = step1 * c->ssy;

	mov	rax, QWORD PTR c$[rbp]
	mov	ecx, DWORD PTR step1$1[rbp]
	imul	ecx, DWORD PTR [rax+8]
	mov	eax, ecx
	mov	DWORD PTR step2$2[rbp], eax

; 355  : 				uint32_t step3 = step2 / ssymax;

	xor	edx, edx
	mov	eax, DWORD PTR step2$2[rbp]
	div	DWORD PTR ssymax$[rbp]
	mov	DWORD PTR step3$3[rbp], eax

; 356  : 				uint32_t total = c->stride * step3;

	mov	rax, QWORD PTR c$[rbp]
	mov	eax, DWORD PTR [rax+20]
	imul	eax, DWORD PTR step3$3[rbp]
	mov	DWORD PTR total$4[rbp], eax

; 357  : 
; 358  : 				if (!(c->pixels = (unsigned char*)AllocMem(c->stride * (ctx.mbheight * ctx.mbsizey * c->ssy / ssymax)))) JPEG_DECODER_THROW(OutOfMemory);

	mov	rax, QWORD PTR this$[rbp]
	mov	rcx, QWORD PTR this$[rbp]
	mov	eax, DWORD PTR [rax+36]
	imul	eax, DWORD PTR [rcx+44]
	mov	rcx, QWORD PTR c$[rbp]
	imul	eax, DWORD PTR [rcx+8]
	cdq
	idiv	DWORD PTR ssymax$[rbp]
	mov	rcx, QWORD PTR c$[rbp]
	mov	ecx, DWORD PTR [rcx+20]
	imul	ecx, eax
	mov	eax, ecx
	mov	ecx, eax
	mov	rax, QWORD PTR this$[rbp]
	call	QWORD PTR [rax+525088]
	mov	QWORD PTR tv320[rbp], rax
	mov	rax, QWORD PTR c$[rbp]
	mov	rcx, QWORD PTR tv320[rbp]
	mov	QWORD PTR [rax+40], rcx
	cmp	QWORD PTR tv320[rbp], 0
	jne	SHORT $LN62@DecodeSOF
$LN42@DecodeSOF:
	mov	rax, QWORD PTR this$[rbp]
	mov	DWORD PTR [rax], 3
	jmp	$LN1@DecodeSOF
	xor	eax, eax
	test	eax, eax
	jne	SHORT $LN42@DecodeSOF
$LN62@DecodeSOF:

; 359  : 			}

	jmp	$LN34@DecodeSOF
$LN35@DecodeSOF:

; 360  : 			if (ctx.ncomp == 3) {

	mov	rax, QWORD PTR this$[rbp]
	cmp	DWORD PTR [rax+48], 3
	jne	SHORT $LN63@DecodeSOF

; 361  : 				ctx.rgb = (unsigned char*)AllocMem(ctx.width * ctx.height * ctx.ncomp);

	mov	rax, QWORD PTR this$[rbp]
	mov	rcx, QWORD PTR this$[rbp]
	mov	eax, DWORD PTR [rax+24]
	imul	eax, DWORD PTR [rcx+28]
	mov	rcx, QWORD PTR this$[rbp]
	imul	eax, DWORD PTR [rcx+48]
	mov	ecx, eax
	mov	rax, QWORD PTR this$[rbp]
	call	QWORD PTR [rax+525088]
	mov	rcx, QWORD PTR this$[rbp]
	mov	QWORD PTR [rcx+525016], rax

; 362  : 				if (!ctx.rgb) JPEG_DECODER_THROW(OutOfMemory);

	mov	rax, QWORD PTR this$[rbp]
	cmp	QWORD PTR [rax+525016], 0
	jne	SHORT $LN64@DecodeSOF
$LN45@DecodeSOF:
	mov	rax, QWORD PTR this$[rbp]
	mov	DWORD PTR [rax], 3
	jmp	SHORT $LN1@DecodeSOF
	xor	eax, eax
	test	eax, eax
	jne	SHORT $LN45@DecodeSOF
$LN64@DecodeSOF:
$LN63@DecodeSOF:

; 363  : 			}
; 364  : 			_Skip(ctx.length);

	mov	rax, QWORD PTR this$[rbp]
	mov	edx, DWORD PTR [rax+20]
	mov	rcx, QWORD PTR this$[rbp]
	call	?_Skip@Decoder@Jpeg@@AEAAXH@Z		; Jpeg::Decoder::_Skip
$LN1@DecodeSOF:

; 365  : 		}

	lea	rsp, QWORD PTR [rbp+112]
	pop	rbp
	ret	0
?_DecodeSOF@Decoder@Jpeg@@AEAAXXZ ENDP			; Jpeg::Decoder::_DecodeSOF
_TEXT	ENDS
; Function compile flags: /Odtp /ZI
; File C:\Users\paras\source\repos\grep-name\XenevaOS\Libs\Chitralekha\nanojpg.h
;	COMDAT ?_SkipMarker@Decoder@Jpeg@@AEAAXXZ
_TEXT	SEGMENT
this$ = 80
?_SkipMarker@Decoder@Jpeg@@AEAAXXZ PROC			; Jpeg::Decoder::_SkipMarker, COMDAT

; 308  : 		inline void _SkipMarker(void) {

$LN3:
	mov	QWORD PTR [rsp+8], rcx
	push	rbp
	sub	rsp, 96					; 00000060H
	lea	rbp, QWORD PTR [rsp+32]

; 309  : 			_DecodeLength();

	mov	rcx, QWORD PTR this$[rbp]
	call	?_DecodeLength@Decoder@Jpeg@@AEAAXXZ	; Jpeg::Decoder::_DecodeLength

; 310  : 			_Skip(ctx.length);

	mov	rax, QWORD PTR this$[rbp]
	mov	edx, DWORD PTR [rax+20]
	mov	rcx, QWORD PTR this$[rbp]
	call	?_Skip@Decoder@Jpeg@@AEAAXH@Z		; Jpeg::Decoder::_Skip

; 311  : 		}

	lea	rsp, QWORD PTR [rbp+64]
	pop	rbp
	ret	0
?_SkipMarker@Decoder@Jpeg@@AEAAXXZ ENDP			; Jpeg::Decoder::_SkipMarker
_TEXT	ENDS
; Function compile flags: /Odtp /ZI
; File C:\Users\paras\source\repos\grep-name\XenevaOS\Libs\Chitralekha\nanojpg.h
;	COMDAT ?_DecodeLength@Decoder@Jpeg@@AEAAXXZ
_TEXT	SEGMENT
this$ = 80
?_DecodeLength@Decoder@Jpeg@@AEAAXXZ PROC		; Jpeg::Decoder::_DecodeLength, COMDAT

; 301  : 		inline void _DecodeLength(void) {

$LN11:
	mov	QWORD PTR [rsp+8], rcx
	push	rbp
	sub	rsp, 96					; 00000060H
	lea	rbp, QWORD PTR [rsp+32]

; 302  : 			if (ctx.size < 2) JPEG_DECODER_THROW(SyntaxError);

	mov	rax, QWORD PTR this$[rbp]
	cmp	DWORD PTR [rax+16], 2
	jge	SHORT $LN8@DecodeLeng
$LN4@DecodeLeng:
	mov	rax, QWORD PTR this$[rbp]
	mov	DWORD PTR [rax], 5
	jmp	SHORT $LN1@DecodeLeng
	xor	eax, eax
	test	eax, eax
	jne	SHORT $LN4@DecodeLeng
$LN8@DecodeLeng:

; 303  : 			ctx.length = _Decode16(ctx.pos);

	mov	rax, QWORD PTR this$[rbp]
	mov	rdx, QWORD PTR [rax+8]
	mov	rcx, QWORD PTR this$[rbp]
	call	?_Decode16@Decoder@Jpeg@@AEAAGPEBE@Z	; Jpeg::Decoder::_Decode16
	movzx	eax, ax
	mov	rcx, QWORD PTR this$[rbp]
	mov	DWORD PTR [rcx+20], eax

; 304  : 			if (ctx.length > ctx.size) JPEG_DECODER_THROW(SyntaxError);

	mov	rax, QWORD PTR this$[rbp]
	mov	rcx, QWORD PTR this$[rbp]
	mov	ecx, DWORD PTR [rcx+16]
	cmp	DWORD PTR [rax+20], ecx
	jle	SHORT $LN9@DecodeLeng
$LN7@DecodeLeng:
	mov	rax, QWORD PTR this$[rbp]
	mov	DWORD PTR [rax], 5
	jmp	SHORT $LN1@DecodeLeng
	xor	eax, eax
	test	eax, eax
	jne	SHORT $LN7@DecodeLeng
$LN9@DecodeLeng:

; 305  : 			_Skip(2);

	mov	edx, 2
	mov	rcx, QWORD PTR this$[rbp]
	call	?_Skip@Decoder@Jpeg@@AEAAXH@Z		; Jpeg::Decoder::_Skip
$LN1@DecodeLeng:

; 306  : 		}

	lea	rsp, QWORD PTR [rbp+64]
	pop	rbp
	ret	0
?_DecodeLength@Decoder@Jpeg@@AEAAXXZ ENDP		; Jpeg::Decoder::_DecodeLength
_TEXT	ENDS
; Function compile flags: /Odtp /ZI
; File C:\Users\paras\source\repos\grep-name\XenevaOS\Libs\Chitralekha\nanojpg.h
;	COMDAT ?_Decode16@Decoder@Jpeg@@AEAAGPEBE@Z
_TEXT	SEGMENT
this$ = 80
pos$ = 88
?_Decode16@Decoder@Jpeg@@AEAAGPEBE@Z PROC		; Jpeg::Decoder::_Decode16, COMDAT

; 297  : 		inline unsigned short _Decode16(const unsigned char *pos) {

$LN3:
	mov	QWORD PTR [rsp+16], rdx
	mov	QWORD PTR [rsp+8], rcx
	push	rbp
	sub	rsp, 64					; 00000040H
	mov	rbp, rsp

; 298  : 			return (pos[0] << 8) | pos[1];

	mov	eax, 1
	imul	rax, rax, 0
	mov	rcx, QWORD PTR pos$[rbp]
	movzx	eax, BYTE PTR [rcx+rax]
	shl	eax, 8
	mov	ecx, 1
	imul	rcx, rcx, 1
	mov	rdx, QWORD PTR pos$[rbp]
	movzx	ecx, BYTE PTR [rdx+rcx]
	or	eax, ecx

; 299  : 		}

	lea	rsp, QWORD PTR [rbp+64]
	pop	rbp
	ret	0
?_Decode16@Decoder@Jpeg@@AEAAGPEBE@Z ENDP		; Jpeg::Decoder::_Decode16
_TEXT	ENDS
; Function compile flags: /Odtp /ZI
; File C:\Users\paras\source\repos\grep-name\XenevaOS\Libs\Chitralekha\nanojpg.h
;	COMDAT ?_Skip@Decoder@Jpeg@@AEAAXH@Z
_TEXT	SEGMENT
this$ = 80
count$ = 88
?_Skip@Decoder@Jpeg@@AEAAXH@Z PROC			; Jpeg::Decoder::_Skip, COMDAT

; 290  : 		inline void _Skip(int count) {

$LN4:
	mov	DWORD PTR [rsp+16], edx
	mov	QWORD PTR [rsp+8], rcx
	push	rbp
	sub	rsp, 64					; 00000040H
	mov	rbp, rsp

; 291  : 			ctx.pos += count;

	movsxd	rax, DWORD PTR count$[rbp]
	mov	rcx, QWORD PTR this$[rbp]
	add	rax, QWORD PTR [rcx+8]
	mov	rcx, QWORD PTR this$[rbp]
	mov	QWORD PTR [rcx+8], rax

; 292  : 			ctx.size -= count;

	mov	rax, QWORD PTR this$[rbp]
	mov	ecx, DWORD PTR count$[rbp]
	mov	eax, DWORD PTR [rax+16]
	sub	eax, ecx
	mov	rcx, QWORD PTR this$[rbp]
	mov	DWORD PTR [rcx+16], eax

; 293  : 			ctx.length -= count;

	mov	rax, QWORD PTR this$[rbp]
	mov	ecx, DWORD PTR count$[rbp]
	mov	eax, DWORD PTR [rax+20]
	sub	eax, ecx
	mov	rcx, QWORD PTR this$[rbp]
	mov	DWORD PTR [rcx+20], eax

; 294  : 			if (ctx.size < 0) ctx.error = SyntaxError;

	mov	rax, QWORD PTR this$[rbp]
	cmp	DWORD PTR [rax+16], 0
	jge	SHORT $LN2@Skip
	mov	rax, QWORD PTR this$[rbp]
	mov	DWORD PTR [rax], 5
$LN2@Skip:

; 295  : 		}

	lea	rsp, QWORD PTR [rbp+64]
	pop	rbp
	ret	0
?_Skip@Decoder@Jpeg@@AEAAXH@Z ENDP			; Jpeg::Decoder::_Skip
_TEXT	ENDS
; Function compile flags: /Odtp /ZI
; File C:\Users\paras\source\repos\grep-name\XenevaOS\Libs\Chitralekha\nanojpg.h
;	COMDAT ?_ByteAlign@Decoder@Jpeg@@AEAAXXZ
_TEXT	SEGMENT
this$ = 80
?_ByteAlign@Decoder@Jpeg@@AEAAXXZ PROC			; Jpeg::Decoder::_ByteAlign, COMDAT

; 286  : 		inline void _ByteAlign(void) {

$LN3:
	mov	QWORD PTR [rsp+8], rcx
	push	rbp
	sub	rsp, 64					; 00000040H
	mov	rbp, rsp

; 287  : 			ctx.bufbits &= 0xF8;

	mov	rax, QWORD PTR this$[rbp]
	mov	eax, DWORD PTR [rax+524752]
	and	eax, 248				; 000000f8H
	mov	rcx, QWORD PTR this$[rbp]
	mov	DWORD PTR [rcx+524752], eax

; 288  : 		}

	lea	rsp, QWORD PTR [rbp+64]
	pop	rbp
	ret	0
?_ByteAlign@Decoder@Jpeg@@AEAAXXZ ENDP			; Jpeg::Decoder::_ByteAlign
_TEXT	ENDS
; Function compile flags: /Odtp /ZI
; File C:\Users\paras\source\repos\grep-name\XenevaOS\Libs\Chitralekha\nanojpg.h
;	COMDAT ?_GetBits@Decoder@Jpeg@@AEAAHH@Z
_TEXT	SEGMENT
res$ = 0
this$ = 96
bits$ = 104
?_GetBits@Decoder@Jpeg@@AEAAHH@Z PROC			; Jpeg::Decoder::_GetBits, COMDAT

; 280  : 		inline int _GetBits(int bits) {

$LN3:
	mov	DWORD PTR [rsp+16], edx
	mov	QWORD PTR [rsp+8], rcx
	push	rbp
	sub	rsp, 112				; 00000070H
	lea	rbp, QWORD PTR [rsp+32]

; 281  : 			int res = _ShowBits(bits);

	mov	edx, DWORD PTR bits$[rbp]
	mov	rcx, QWORD PTR this$[rbp]
	call	?_ShowBits@Decoder@Jpeg@@AEAAHH@Z	; Jpeg::Decoder::_ShowBits
	mov	DWORD PTR res$[rbp], eax

; 282  : 			_SkipBits(bits);

	mov	edx, DWORD PTR bits$[rbp]
	mov	rcx, QWORD PTR this$[rbp]
	call	?_SkipBits@Decoder@Jpeg@@AEAAXH@Z	; Jpeg::Decoder::_SkipBits

; 283  : 			return res;

	mov	eax, DWORD PTR res$[rbp]

; 284  : 		}

	lea	rsp, QWORD PTR [rbp+80]
	pop	rbp
	ret	0
?_GetBits@Decoder@Jpeg@@AEAAHH@Z ENDP			; Jpeg::Decoder::_GetBits
_TEXT	ENDS
; Function compile flags: /Odtp /ZI
; File C:\Users\paras\source\repos\grep-name\XenevaOS\Libs\Chitralekha\nanojpg.h
;	COMDAT ?_SkipBits@Decoder@Jpeg@@AEAAXH@Z
_TEXT	SEGMENT
this$ = 80
bits$ = 88
?_SkipBits@Decoder@Jpeg@@AEAAXH@Z PROC			; Jpeg::Decoder::_SkipBits, COMDAT

; 274  : 		inline void _SkipBits(int bits) {

$LN4:
	mov	DWORD PTR [rsp+16], edx
	mov	QWORD PTR [rsp+8], rcx
	push	rbp
	sub	rsp, 96					; 00000060H
	lea	rbp, QWORD PTR [rsp+32]

; 275  : 			if (ctx.bufbits < bits)

	mov	rax, QWORD PTR this$[rbp]
	mov	ecx, DWORD PTR bits$[rbp]
	cmp	DWORD PTR [rax+524752], ecx
	jge	SHORT $LN2@SkipBits

; 276  : 				(void)_ShowBits(bits);

	mov	edx, DWORD PTR bits$[rbp]
	mov	rcx, QWORD PTR this$[rbp]
	call	?_ShowBits@Decoder@Jpeg@@AEAAHH@Z	; Jpeg::Decoder::_ShowBits
$LN2@SkipBits:

; 277  : 			ctx.bufbits -= bits;

	mov	rax, QWORD PTR this$[rbp]
	mov	ecx, DWORD PTR bits$[rbp]
	mov	eax, DWORD PTR [rax+524752]
	sub	eax, ecx
	mov	rcx, QWORD PTR this$[rbp]
	mov	DWORD PTR [rcx+524752], eax

; 278  : 		}

	lea	rsp, QWORD PTR [rbp+64]
	pop	rbp
	ret	0
?_SkipBits@Decoder@Jpeg@@AEAAXH@Z ENDP			; Jpeg::Decoder::_SkipBits
_TEXT	ENDS
; Function compile flags: /Odtp /ZI
; File C:\Users\paras\source\repos\grep-name\XenevaOS\Libs\Chitralekha\nanojpg.h
;	COMDAT ?_ShowBits@Decoder@Jpeg@@AEAAHH@Z
_TEXT	SEGMENT
newbyte$ = 0
marker$1 = 1
tv162 = 68
tv256 = 72
this$ = 96
bits$ = 104
?_ShowBits@Decoder@Jpeg@@AEAAHH@Z PROC			; Jpeg::Decoder::_ShowBits, COMDAT

; 238  : 		inline int _ShowBits(int bits) {

$LN18:
	mov	DWORD PTR [rsp+16], edx
	mov	QWORD PTR [rsp+8], rcx
	push	rbp
	sub	rsp, 80					; 00000050H
	mov	rbp, rsp

; 239  : 			unsigned char newbyte;
; 240  : 			if (!bits) return 0;

	cmp	DWORD PTR bits$[rbp], 0
	jne	SHORT $LN6@ShowBits
	xor	eax, eax
	jmp	$LN1@ShowBits
$LN6@ShowBits:
$LN17@ShowBits:
$LN2@ShowBits:

; 241  : 			while (ctx.bufbits < bits) {

	mov	rax, QWORD PTR this$[rbp]
	mov	ecx, DWORD PTR bits$[rbp]
	cmp	DWORD PTR [rax+524752], ecx
	jge	$LN3@ShowBits

; 242  : 				if (ctx.size <= 0) {

	mov	rax, QWORD PTR this$[rbp]
	cmp	DWORD PTR [rax+16], 0
	jg	SHORT $LN7@ShowBits

; 243  : 					ctx.buf = (ctx.buf << 8) | 0xFF;

	mov	rax, QWORD PTR this$[rbp]
	mov	eax, DWORD PTR [rax+524748]
	shl	eax, 8
	or	eax, 255				; 000000ffH
	mov	rcx, QWORD PTR this$[rbp]
	mov	DWORD PTR [rcx+524748], eax

; 244  : 					ctx.bufbits += 8;

	mov	rax, QWORD PTR this$[rbp]
	mov	eax, DWORD PTR [rax+524752]
	add	eax, 8
	mov	rcx, QWORD PTR this$[rbp]
	mov	DWORD PTR [rcx+524752], eax

; 245  : 					continue;

	jmp	SHORT $LN2@ShowBits
$LN7@ShowBits:

; 246  : 				}
; 247  : 				newbyte = *ctx.pos++;

	mov	rax, QWORD PTR this$[rbp]
	mov	rax, QWORD PTR [rax+8]
	movzx	eax, BYTE PTR [rax]
	mov	BYTE PTR newbyte$[rbp], al
	mov	rax, QWORD PTR this$[rbp]
	mov	rax, QWORD PTR [rax+8]
	inc	rax
	mov	rcx, QWORD PTR this$[rbp]
	mov	QWORD PTR [rcx+8], rax

; 248  : 				ctx.size--;

	mov	rax, QWORD PTR this$[rbp]
	mov	eax, DWORD PTR [rax+16]
	dec	eax
	mov	rcx, QWORD PTR this$[rbp]
	mov	DWORD PTR [rcx+16], eax

; 249  : 				ctx.bufbits += 8;

	mov	rax, QWORD PTR this$[rbp]
	mov	eax, DWORD PTR [rax+524752]
	add	eax, 8
	mov	rcx, QWORD PTR this$[rbp]
	mov	DWORD PTR [rcx+524752], eax

; 250  : 				ctx.buf = (ctx.buf << 8) | newbyte;

	mov	rax, QWORD PTR this$[rbp]
	mov	eax, DWORD PTR [rax+524748]
	shl	eax, 8
	movzx	ecx, BYTE PTR newbyte$[rbp]
	or	eax, ecx
	mov	rcx, QWORD PTR this$[rbp]
	mov	DWORD PTR [rcx+524748], eax

; 251  : 				if (newbyte == 0xFF) {

	movzx	eax, BYTE PTR newbyte$[rbp]
	cmp	eax, 255				; 000000ffH
	jne	$LN8@ShowBits

; 252  : 					if (ctx.size) {

	mov	rax, QWORD PTR this$[rbp]
	cmp	DWORD PTR [rax+16], 0
	je	$LN9@ShowBits

; 253  : 						unsigned char marker = *ctx.pos++;

	mov	rax, QWORD PTR this$[rbp]
	mov	rax, QWORD PTR [rax+8]
	movzx	eax, BYTE PTR [rax]
	mov	BYTE PTR marker$1[rbp], al
	mov	rax, QWORD PTR this$[rbp]
	mov	rax, QWORD PTR [rax+8]
	inc	rax
	mov	rcx, QWORD PTR this$[rbp]
	mov	QWORD PTR [rcx+8], rax

; 254  : 						ctx.size--;

	mov	rax, QWORD PTR this$[rbp]
	mov	eax, DWORD PTR [rax+16]
	dec	eax
	mov	rcx, QWORD PTR this$[rbp]
	mov	DWORD PTR [rcx+16], eax

; 255  : 						switch (marker) {

	movzx	eax, BYTE PTR marker$1[rbp]
	mov	BYTE PTR tv162[rbp], al
	cmp	BYTE PTR tv162[rbp], 0
	je	SHORT $LN11@ShowBits
	cmp	BYTE PTR tv162[rbp], 217		; 000000d9H
	je	SHORT $LN12@ShowBits
	jmp	SHORT $LN13@ShowBits
$LN11@ShowBits:

; 256  : 						case 0:    break;

	jmp	SHORT $LN4@ShowBits
$LN12@ShowBits:

; 257  : 						case 0xD9: ctx.size = 0; break;

	mov	rax, QWORD PTR this$[rbp]
	mov	DWORD PTR [rax+16], 0
	jmp	SHORT $LN4@ShowBits
$LN13@ShowBits:

; 258  : 						default:
; 259  : 							if ((marker & 0xF8) != 0xD0)

	movzx	eax, BYTE PTR marker$1[rbp]
	and	eax, 248				; 000000f8H
	cmp	eax, 208				; 000000d0H
	je	SHORT $LN14@ShowBits

; 260  : 								ctx.error = SyntaxError;

	mov	rax, QWORD PTR this$[rbp]
	mov	DWORD PTR [rax], 5
	jmp	SHORT $LN15@ShowBits
$LN14@ShowBits:

; 261  : 							else {
; 262  : 								ctx.buf = (ctx.buf << 8) | marker;

	mov	rax, QWORD PTR this$[rbp]
	mov	eax, DWORD PTR [rax+524748]
	shl	eax, 8
	movzx	ecx, BYTE PTR marker$1[rbp]
	or	eax, ecx
	mov	rcx, QWORD PTR this$[rbp]
	mov	DWORD PTR [rcx+524748], eax

; 263  : 								ctx.bufbits += 8;

	mov	rax, QWORD PTR this$[rbp]
	mov	eax, DWORD PTR [rax+524752]
	add	eax, 8
	mov	rcx, QWORD PTR this$[rbp]
	mov	DWORD PTR [rcx+524752], eax
$LN15@ShowBits:
$LN4@ShowBits:

; 264  : 							}
; 265  : 						}
; 266  : 					}

	jmp	SHORT $LN10@ShowBits
$LN9@ShowBits:

; 267  : 					else
; 268  : 						ctx.error = SyntaxError;

	mov	rax, QWORD PTR this$[rbp]
	mov	DWORD PTR [rax], 5
$LN10@ShowBits:
$LN8@ShowBits:

; 269  : 				}
; 270  : 			}

	jmp	$LN17@ShowBits
$LN3@ShowBits:

; 271  : 			return (ctx.buf >> (ctx.bufbits - bits)) & ((1 << bits) - 1);

	mov	rax, QWORD PTR this$[rbp]
	mov	ecx, DWORD PTR bits$[rbp]
	mov	eax, DWORD PTR [rax+524752]
	sub	eax, ecx
	mov	rcx, QWORD PTR this$[rbp]
	mov	QWORD PTR tv256[rbp], rcx
	movzx	ecx, al
	mov	rax, QWORD PTR tv256[rbp]
	mov	eax, DWORD PTR [rax+524748]
	sar	eax, cl
	mov	ecx, DWORD PTR bits$[rbp]
	mov	edx, 1
	shl	edx, cl
	mov	ecx, edx
	dec	ecx
	and	eax, ecx
$LN1@ShowBits:

; 272  : 		}

	lea	rsp, QWORD PTR [rbp+80]
	pop	rbp
	ret	0
?_ShowBits@Decoder@Jpeg@@AEAAHH@Z ENDP			; Jpeg::Decoder::_ShowBits
_TEXT	ENDS
; Function compile flags: /Odtp /ZI
; File C:\Users\paras\source\repos\grep-name\XenevaOS\Libs\Chitralekha\nanojpg.h
;	COMDAT ?_ColIDCT@Decoder@Jpeg@@AEAAXPEBHPEAEH@Z
_TEXT	SEGMENT
x0$ = 0
x1$ = 4
x2$ = 8
x3$ = 12
x4$ = 16
x5$ = 20
x6$ = 24
x7$ = 28
x8$ = 32
this$ = 128
blk$ = 136
out$ = 144
stride$ = 152
?_ColIDCT@Decoder@Jpeg@@AEAAXPEBHPEAEH@Z PROC		; Jpeg::Decoder::_ColIDCT, COMDAT

; 187  : 		inline void _ColIDCT(const int* blk, unsigned char *out, int stride) {

$LN7:
	mov	DWORD PTR [rsp+32], r9d
	mov	QWORD PTR [rsp+24], r8
	mov	QWORD PTR [rsp+16], rdx
	mov	QWORD PTR [rsp+8], rcx
	push	rbp
	sub	rsp, 144				; 00000090H
	lea	rbp, QWORD PTR [rsp+32]

; 188  : 			int x0, x1, x2, x3, x4, x5, x6, x7, x8;
; 189  : 			if (!((x1 = blk[8 * 4] << 8)

	mov	eax, 4
	imul	rax, rax, 32				; 00000020H
	mov	rcx, QWORD PTR blk$[rbp]
	mov	eax, DWORD PTR [rcx+rax]
	shl	eax, 8
	mov	DWORD PTR x1$[rbp], eax
	mov	eax, 4
	imul	rax, rax, 48				; 00000030H
	mov	rcx, QWORD PTR blk$[rbp]
	mov	eax, DWORD PTR [rcx+rax]
	mov	DWORD PTR x2$[rbp], eax
	mov	eax, 4
	imul	rax, rax, 16
	mov	rcx, QWORD PTR blk$[rbp]
	mov	eax, DWORD PTR [rcx+rax]
	mov	DWORD PTR x3$[rbp], eax
	mov	eax, 4
	imul	rax, rax, 8
	mov	rcx, QWORD PTR blk$[rbp]
	mov	eax, DWORD PTR [rcx+rax]
	mov	DWORD PTR x4$[rbp], eax
	mov	eax, 4
	imul	rax, rax, 56				; 00000038H
	mov	rcx, QWORD PTR blk$[rbp]
	mov	eax, DWORD PTR [rcx+rax]
	mov	DWORD PTR x5$[rbp], eax
	mov	eax, 4
	imul	rax, rax, 40				; 00000028H
	mov	rcx, QWORD PTR blk$[rbp]
	mov	eax, DWORD PTR [rcx+rax]
	mov	DWORD PTR x6$[rbp], eax
	mov	eax, 4
	imul	rax, rax, 24
	mov	rcx, QWORD PTR blk$[rbp]
	mov	eax, DWORD PTR [rcx+rax]
	mov	DWORD PTR x7$[rbp], eax
	mov	eax, DWORD PTR x2$[rbp]
	mov	ecx, DWORD PTR x1$[rbp]
	or	ecx, eax
	mov	eax, ecx
	or	eax, DWORD PTR x3$[rbp]
	or	eax, DWORD PTR x4$[rbp]
	or	eax, DWORD PTR x5$[rbp]
	or	eax, DWORD PTR x6$[rbp]
	or	eax, DWORD PTR x7$[rbp]
	test	eax, eax
	jne	SHORT $LN5@ColIDCT

; 190  : 				| (x2 = blk[8 * 6])
; 191  : 				| (x3 = blk[8 * 2])
; 192  : 				| (x4 = blk[8 * 1])
; 193  : 				| (x5 = blk[8 * 7])
; 194  : 				| (x6 = blk[8 * 5])
; 195  : 				| (x7 = blk[8 * 3])))
; 196  : 			{
; 197  : 				x1 = _Clip(((blk[0] + 32) >> 6) + 128);

	mov	eax, 4
	imul	rax, rax, 0
	mov	rcx, QWORD PTR blk$[rbp]
	mov	eax, DWORD PTR [rcx+rax]
	add	eax, 32					; 00000020H
	sar	eax, 6
	add	eax, 128				; 00000080H
	mov	edx, eax
	mov	rcx, QWORD PTR this$[rbp]
	call	?_Clip@Decoder@Jpeg@@AEAAEH@Z		; Jpeg::Decoder::_Clip
	movzx	eax, al
	mov	DWORD PTR x1$[rbp], eax

; 198  : 				for (x0 = 8; x0; --x0) {

	mov	DWORD PTR x0$[rbp], 8
	jmp	SHORT $LN4@ColIDCT
$LN2@ColIDCT:
	mov	eax, DWORD PTR x0$[rbp]
	dec	eax
	mov	DWORD PTR x0$[rbp], eax
$LN4@ColIDCT:
	cmp	DWORD PTR x0$[rbp], 0
	je	SHORT $LN3@ColIDCT

; 199  : 					*out = (unsigned char)x1;

	mov	rax, QWORD PTR out$[rbp]
	movzx	ecx, BYTE PTR x1$[rbp]
	mov	BYTE PTR [rax], cl

; 200  : 					out += stride;

	movsxd	rax, DWORD PTR stride$[rbp]
	mov	rcx, QWORD PTR out$[rbp]
	add	rcx, rax
	mov	rax, rcx
	mov	QWORD PTR out$[rbp], rax

; 201  : 				}

	jmp	SHORT $LN2@ColIDCT
$LN3@ColIDCT:

; 202  : 				return;

	jmp	$LN1@ColIDCT
$LN5@ColIDCT:

; 203  : 			}
; 204  : 			x0 = (blk[0] << 8) + 8192;

	mov	eax, 4
	imul	rax, rax, 0
	mov	rcx, QWORD PTR blk$[rbp]
	mov	eax, DWORD PTR [rcx+rax]
	shl	eax, 8
	add	eax, 8192				; 00002000H
	mov	DWORD PTR x0$[rbp], eax

; 205  : 			x8 = W7 * (x4 + x5) + 4;

	mov	eax, DWORD PTR x5$[rbp]
	mov	ecx, DWORD PTR x4$[rbp]
	add	ecx, eax
	mov	eax, ecx
	imul	eax, eax, 565				; 00000235H
	add	eax, 4
	mov	DWORD PTR x8$[rbp], eax

; 206  : 			x4 = (x8 + (W1 - W7) * x4) >> 3;

	imul	eax, DWORD PTR x4$[rbp], 2276		; 000008e4H
	mov	ecx, DWORD PTR x8$[rbp]
	add	ecx, eax
	mov	eax, ecx
	sar	eax, 3
	mov	DWORD PTR x4$[rbp], eax

; 207  : 			x5 = (x8 - (W1 + W7) * x5) >> 3;

	imul	eax, DWORD PTR x5$[rbp], 3406		; 00000d4eH
	mov	ecx, DWORD PTR x8$[rbp]
	sub	ecx, eax
	mov	eax, ecx
	sar	eax, 3
	mov	DWORD PTR x5$[rbp], eax

; 208  : 			x8 = W3 * (x6 + x7) + 4;

	mov	eax, DWORD PTR x7$[rbp]
	mov	ecx, DWORD PTR x6$[rbp]
	add	ecx, eax
	mov	eax, ecx
	imul	eax, eax, 2408				; 00000968H
	add	eax, 4
	mov	DWORD PTR x8$[rbp], eax

; 209  : 			x6 = (x8 - (W3 - W5) * x6) >> 3;

	imul	eax, DWORD PTR x6$[rbp], 799		; 0000031fH
	mov	ecx, DWORD PTR x8$[rbp]
	sub	ecx, eax
	mov	eax, ecx
	sar	eax, 3
	mov	DWORD PTR x6$[rbp], eax

; 210  : 			x7 = (x8 - (W3 + W5) * x7) >> 3;

	imul	eax, DWORD PTR x7$[rbp], 4017		; 00000fb1H
	mov	ecx, DWORD PTR x8$[rbp]
	sub	ecx, eax
	mov	eax, ecx
	sar	eax, 3
	mov	DWORD PTR x7$[rbp], eax

; 211  : 			x8 = x0 + x1;

	mov	eax, DWORD PTR x1$[rbp]
	mov	ecx, DWORD PTR x0$[rbp]
	add	ecx, eax
	mov	eax, ecx
	mov	DWORD PTR x8$[rbp], eax

; 212  : 			x0 -= x1;

	mov	eax, DWORD PTR x1$[rbp]
	mov	ecx, DWORD PTR x0$[rbp]
	sub	ecx, eax
	mov	eax, ecx
	mov	DWORD PTR x0$[rbp], eax

; 213  : 			x1 = W6 * (x3 + x2) + 4;

	mov	eax, DWORD PTR x2$[rbp]
	mov	ecx, DWORD PTR x3$[rbp]
	add	ecx, eax
	mov	eax, ecx
	imul	eax, eax, 1108				; 00000454H
	add	eax, 4
	mov	DWORD PTR x1$[rbp], eax

; 214  : 			x2 = (x1 - (W2 + W6) * x2) >> 3;

	imul	eax, DWORD PTR x2$[rbp], 3784		; 00000ec8H
	mov	ecx, DWORD PTR x1$[rbp]
	sub	ecx, eax
	mov	eax, ecx
	sar	eax, 3
	mov	DWORD PTR x2$[rbp], eax

; 215  : 			x3 = (x1 + (W2 - W6) * x3) >> 3;

	imul	eax, DWORD PTR x3$[rbp], 1568		; 00000620H
	mov	ecx, DWORD PTR x1$[rbp]
	add	ecx, eax
	mov	eax, ecx
	sar	eax, 3
	mov	DWORD PTR x3$[rbp], eax

; 216  : 			x1 = x4 + x6;

	mov	eax, DWORD PTR x6$[rbp]
	mov	ecx, DWORD PTR x4$[rbp]
	add	ecx, eax
	mov	eax, ecx
	mov	DWORD PTR x1$[rbp], eax

; 217  : 			x4 -= x6;

	mov	eax, DWORD PTR x6$[rbp]
	mov	ecx, DWORD PTR x4$[rbp]
	sub	ecx, eax
	mov	eax, ecx
	mov	DWORD PTR x4$[rbp], eax

; 218  : 			x6 = x5 + x7;

	mov	eax, DWORD PTR x7$[rbp]
	mov	ecx, DWORD PTR x5$[rbp]
	add	ecx, eax
	mov	eax, ecx
	mov	DWORD PTR x6$[rbp], eax

; 219  : 			x5 -= x7;

	mov	eax, DWORD PTR x7$[rbp]
	mov	ecx, DWORD PTR x5$[rbp]
	sub	ecx, eax
	mov	eax, ecx
	mov	DWORD PTR x5$[rbp], eax

; 220  : 			x7 = x8 + x3;

	mov	eax, DWORD PTR x3$[rbp]
	mov	ecx, DWORD PTR x8$[rbp]
	add	ecx, eax
	mov	eax, ecx
	mov	DWORD PTR x7$[rbp], eax

; 221  : 			x8 -= x3;

	mov	eax, DWORD PTR x3$[rbp]
	mov	ecx, DWORD PTR x8$[rbp]
	sub	ecx, eax
	mov	eax, ecx
	mov	DWORD PTR x8$[rbp], eax

; 222  : 			x3 = x0 + x2;

	mov	eax, DWORD PTR x2$[rbp]
	mov	ecx, DWORD PTR x0$[rbp]
	add	ecx, eax
	mov	eax, ecx
	mov	DWORD PTR x3$[rbp], eax

; 223  : 			x0 -= x2;

	mov	eax, DWORD PTR x2$[rbp]
	mov	ecx, DWORD PTR x0$[rbp]
	sub	ecx, eax
	mov	eax, ecx
	mov	DWORD PTR x0$[rbp], eax

; 224  : 			x2 = (181 * (x4 + x5) + 128) >> 8;

	mov	eax, DWORD PTR x5$[rbp]
	mov	ecx, DWORD PTR x4$[rbp]
	add	ecx, eax
	mov	eax, ecx
	imul	eax, eax, 181				; 000000b5H
	add	eax, 128				; 00000080H
	sar	eax, 8
	mov	DWORD PTR x2$[rbp], eax

; 225  : 			x4 = (181 * (x4 - x5) + 128) >> 8;

	mov	eax, DWORD PTR x5$[rbp]
	mov	ecx, DWORD PTR x4$[rbp]
	sub	ecx, eax
	mov	eax, ecx
	imul	eax, eax, 181				; 000000b5H
	add	eax, 128				; 00000080H
	sar	eax, 8
	mov	DWORD PTR x4$[rbp], eax

; 226  : 			*out = _Clip(((x7 + x1) >> 14) + 128);  out += stride;

	mov	eax, DWORD PTR x1$[rbp]
	mov	ecx, DWORD PTR x7$[rbp]
	add	ecx, eax
	mov	eax, ecx
	sar	eax, 14
	add	eax, 128				; 00000080H
	mov	edx, eax
	mov	rcx, QWORD PTR this$[rbp]
	call	?_Clip@Decoder@Jpeg@@AEAAEH@Z		; Jpeg::Decoder::_Clip
	mov	rcx, QWORD PTR out$[rbp]
	mov	BYTE PTR [rcx], al
	movsxd	rax, DWORD PTR stride$[rbp]
	mov	rcx, QWORD PTR out$[rbp]
	add	rcx, rax
	mov	rax, rcx
	mov	QWORD PTR out$[rbp], rax

; 227  : 			*out = _Clip(((x3 + x2) >> 14) + 128);  out += stride;

	mov	eax, DWORD PTR x2$[rbp]
	mov	ecx, DWORD PTR x3$[rbp]
	add	ecx, eax
	mov	eax, ecx
	sar	eax, 14
	add	eax, 128				; 00000080H
	mov	edx, eax
	mov	rcx, QWORD PTR this$[rbp]
	call	?_Clip@Decoder@Jpeg@@AEAAEH@Z		; Jpeg::Decoder::_Clip
	mov	rcx, QWORD PTR out$[rbp]
	mov	BYTE PTR [rcx], al
	movsxd	rax, DWORD PTR stride$[rbp]
	mov	rcx, QWORD PTR out$[rbp]
	add	rcx, rax
	mov	rax, rcx
	mov	QWORD PTR out$[rbp], rax

; 228  : 			*out = _Clip(((x0 + x4) >> 14) + 128);  out += stride;

	mov	eax, DWORD PTR x4$[rbp]
	mov	ecx, DWORD PTR x0$[rbp]
	add	ecx, eax
	mov	eax, ecx
	sar	eax, 14
	add	eax, 128				; 00000080H
	mov	edx, eax
	mov	rcx, QWORD PTR this$[rbp]
	call	?_Clip@Decoder@Jpeg@@AEAAEH@Z		; Jpeg::Decoder::_Clip
	mov	rcx, QWORD PTR out$[rbp]
	mov	BYTE PTR [rcx], al
	movsxd	rax, DWORD PTR stride$[rbp]
	mov	rcx, QWORD PTR out$[rbp]
	add	rcx, rax
	mov	rax, rcx
	mov	QWORD PTR out$[rbp], rax

; 229  : 			*out = _Clip(((x8 + x6) >> 14) + 128);  out += stride;

	mov	eax, DWORD PTR x6$[rbp]
	mov	ecx, DWORD PTR x8$[rbp]
	add	ecx, eax
	mov	eax, ecx
	sar	eax, 14
	add	eax, 128				; 00000080H
	mov	edx, eax
	mov	rcx, QWORD PTR this$[rbp]
	call	?_Clip@Decoder@Jpeg@@AEAAEH@Z		; Jpeg::Decoder::_Clip
	mov	rcx, QWORD PTR out$[rbp]
	mov	BYTE PTR [rcx], al
	movsxd	rax, DWORD PTR stride$[rbp]
	mov	rcx, QWORD PTR out$[rbp]
	add	rcx, rax
	mov	rax, rcx
	mov	QWORD PTR out$[rbp], rax

; 230  : 			*out = _Clip(((x8 - x6) >> 14) + 128);  out += stride;

	mov	eax, DWORD PTR x6$[rbp]
	mov	ecx, DWORD PTR x8$[rbp]
	sub	ecx, eax
	mov	eax, ecx
	sar	eax, 14
	add	eax, 128				; 00000080H
	mov	edx, eax
	mov	rcx, QWORD PTR this$[rbp]
	call	?_Clip@Decoder@Jpeg@@AEAAEH@Z		; Jpeg::Decoder::_Clip
	mov	rcx, QWORD PTR out$[rbp]
	mov	BYTE PTR [rcx], al
	movsxd	rax, DWORD PTR stride$[rbp]
	mov	rcx, QWORD PTR out$[rbp]
	add	rcx, rax
	mov	rax, rcx
	mov	QWORD PTR out$[rbp], rax

; 231  : 			*out = _Clip(((x0 - x4) >> 14) + 128);  out += stride;

	mov	eax, DWORD PTR x4$[rbp]
	mov	ecx, DWORD PTR x0$[rbp]
	sub	ecx, eax
	mov	eax, ecx
	sar	eax, 14
	add	eax, 128				; 00000080H
	mov	edx, eax
	mov	rcx, QWORD PTR this$[rbp]
	call	?_Clip@Decoder@Jpeg@@AEAAEH@Z		; Jpeg::Decoder::_Clip
	mov	rcx, QWORD PTR out$[rbp]
	mov	BYTE PTR [rcx], al
	movsxd	rax, DWORD PTR stride$[rbp]
	mov	rcx, QWORD PTR out$[rbp]
	add	rcx, rax
	mov	rax, rcx
	mov	QWORD PTR out$[rbp], rax

; 232  : 			*out = _Clip(((x3 - x2) >> 14) + 128);  out += stride;

	mov	eax, DWORD PTR x2$[rbp]
	mov	ecx, DWORD PTR x3$[rbp]
	sub	ecx, eax
	mov	eax, ecx
	sar	eax, 14
	add	eax, 128				; 00000080H
	mov	edx, eax
	mov	rcx, QWORD PTR this$[rbp]
	call	?_Clip@Decoder@Jpeg@@AEAAEH@Z		; Jpeg::Decoder::_Clip
	mov	rcx, QWORD PTR out$[rbp]
	mov	BYTE PTR [rcx], al
	movsxd	rax, DWORD PTR stride$[rbp]
	mov	rcx, QWORD PTR out$[rbp]
	add	rcx, rax
	mov	rax, rcx
	mov	QWORD PTR out$[rbp], rax

; 233  : 			*out = _Clip(((x7 - x1) >> 14) + 128);

	mov	eax, DWORD PTR x1$[rbp]
	mov	ecx, DWORD PTR x7$[rbp]
	sub	ecx, eax
	mov	eax, ecx
	sar	eax, 14
	add	eax, 128				; 00000080H
	mov	edx, eax
	mov	rcx, QWORD PTR this$[rbp]
	call	?_Clip@Decoder@Jpeg@@AEAAEH@Z		; Jpeg::Decoder::_Clip
	mov	rcx, QWORD PTR out$[rbp]
	mov	BYTE PTR [rcx], al
$LN1@ColIDCT:

; 234  : 		}

	lea	rsp, QWORD PTR [rbp+112]
	pop	rbp
	ret	0
?_ColIDCT@Decoder@Jpeg@@AEAAXPEBHPEAEH@Z ENDP		; Jpeg::Decoder::_ColIDCT
_TEXT	ENDS
; Function compile flags: /Odtp /ZI
; File C:\Users\paras\source\repos\grep-name\XenevaOS\Libs\Chitralekha\nanojpg.h
;	COMDAT ?_RowIDCT@Decoder@Jpeg@@AEAAXPEAH@Z
_TEXT	SEGMENT
x0$ = 0
x1$ = 4
x2$ = 8
x3$ = 12
x4$ = 16
x5$ = 20
x6$ = 24
x7$ = 28
x8$ = 32
tv136 = 100
this$ = 128
blk$ = 136
?_RowIDCT@Decoder@Jpeg@@AEAAXPEAH@Z PROC		; Jpeg::Decoder::_RowIDCT, COMDAT

; 142  : 		inline void _RowIDCT(int* blk) {

$LN4:
	mov	QWORD PTR [rsp+16], rdx
	mov	QWORD PTR [rsp+8], rcx
	push	rbp
	sub	rsp, 112				; 00000070H
	mov	rbp, rsp

; 143  : 			int x0, x1, x2, x3, x4, x5, x6, x7, x8;
; 144  : 			if (!((x1 = blk[4] << 11)

	mov	eax, 4
	imul	rax, rax, 4
	mov	rcx, QWORD PTR blk$[rbp]
	mov	eax, DWORD PTR [rcx+rax]
	shl	eax, 11
	mov	DWORD PTR x1$[rbp], eax
	mov	eax, 4
	imul	rax, rax, 6
	mov	rcx, QWORD PTR blk$[rbp]
	mov	eax, DWORD PTR [rcx+rax]
	mov	DWORD PTR x2$[rbp], eax
	mov	eax, 4
	imul	rax, rax, 2
	mov	rcx, QWORD PTR blk$[rbp]
	mov	eax, DWORD PTR [rcx+rax]
	mov	DWORD PTR x3$[rbp], eax
	mov	eax, 4
	imul	rax, rax, 1
	mov	rcx, QWORD PTR blk$[rbp]
	mov	eax, DWORD PTR [rcx+rax]
	mov	DWORD PTR x4$[rbp], eax
	mov	eax, 4
	imul	rax, rax, 7
	mov	rcx, QWORD PTR blk$[rbp]
	mov	eax, DWORD PTR [rcx+rax]
	mov	DWORD PTR x5$[rbp], eax
	mov	eax, 4
	imul	rax, rax, 5
	mov	rcx, QWORD PTR blk$[rbp]
	mov	eax, DWORD PTR [rcx+rax]
	mov	DWORD PTR x6$[rbp], eax
	mov	eax, 4
	imul	rax, rax, 3
	mov	rcx, QWORD PTR blk$[rbp]
	mov	eax, DWORD PTR [rcx+rax]
	mov	DWORD PTR x7$[rbp], eax
	mov	eax, DWORD PTR x2$[rbp]
	mov	ecx, DWORD PTR x1$[rbp]
	or	ecx, eax
	mov	eax, ecx
	or	eax, DWORD PTR x3$[rbp]
	or	eax, DWORD PTR x4$[rbp]
	or	eax, DWORD PTR x5$[rbp]
	or	eax, DWORD PTR x6$[rbp]
	or	eax, DWORD PTR x7$[rbp]
	test	eax, eax
	jne	$LN2@RowIDCT

; 145  : 				| (x2 = blk[6])
; 146  : 				| (x3 = blk[2])
; 147  : 				| (x4 = blk[1])
; 148  : 				| (x5 = blk[7])
; 149  : 				| (x6 = blk[5])
; 150  : 				| (x7 = blk[3])))
; 151  : 			{
; 152  : 				blk[0] = blk[1] = blk[2] = blk[3] = blk[4] = blk[5] = blk[6] = blk[7] = blk[0] << 3;

	mov	eax, 4
	imul	rax, rax, 0
	mov	rcx, QWORD PTR blk$[rbp]
	mov	eax, DWORD PTR [rcx+rax]
	shl	eax, 3
	mov	DWORD PTR tv136[rbp], eax
	mov	eax, 4
	imul	rax, rax, 7
	mov	rcx, QWORD PTR blk$[rbp]
	mov	edx, DWORD PTR tv136[rbp]
	mov	DWORD PTR [rcx+rax], edx
	mov	eax, 4
	imul	rax, rax, 6
	mov	rcx, QWORD PTR blk$[rbp]
	mov	edx, DWORD PTR tv136[rbp]
	mov	DWORD PTR [rcx+rax], edx
	mov	eax, 4
	imul	rax, rax, 5
	mov	rcx, QWORD PTR blk$[rbp]
	mov	edx, DWORD PTR tv136[rbp]
	mov	DWORD PTR [rcx+rax], edx
	mov	eax, 4
	imul	rax, rax, 4
	mov	rcx, QWORD PTR blk$[rbp]
	mov	edx, DWORD PTR tv136[rbp]
	mov	DWORD PTR [rcx+rax], edx
	mov	eax, 4
	imul	rax, rax, 3
	mov	rcx, QWORD PTR blk$[rbp]
	mov	edx, DWORD PTR tv136[rbp]
	mov	DWORD PTR [rcx+rax], edx
	mov	eax, 4
	imul	rax, rax, 2
	mov	rcx, QWORD PTR blk$[rbp]
	mov	edx, DWORD PTR tv136[rbp]
	mov	DWORD PTR [rcx+rax], edx
	mov	eax, 4
	imul	rax, rax, 1
	mov	rcx, QWORD PTR blk$[rbp]
	mov	edx, DWORD PTR tv136[rbp]
	mov	DWORD PTR [rcx+rax], edx
	mov	eax, 4
	imul	rax, rax, 0
	mov	rcx, QWORD PTR blk$[rbp]
	mov	edx, DWORD PTR tv136[rbp]
	mov	DWORD PTR [rcx+rax], edx

; 153  : 				return;

	jmp	$LN1@RowIDCT
$LN2@RowIDCT:

; 154  : 			}
; 155  : 			x0 = (blk[0] << 11) + 128;

	mov	eax, 4
	imul	rax, rax, 0
	mov	rcx, QWORD PTR blk$[rbp]
	mov	eax, DWORD PTR [rcx+rax]
	shl	eax, 11
	add	eax, 128				; 00000080H
	mov	DWORD PTR x0$[rbp], eax

; 156  : 			x8 = W7 * (x4 + x5);

	mov	eax, DWORD PTR x5$[rbp]
	mov	ecx, DWORD PTR x4$[rbp]
	add	ecx, eax
	mov	eax, ecx
	imul	eax, eax, 565				; 00000235H
	mov	DWORD PTR x8$[rbp], eax

; 157  : 			x4 = x8 + (W1 - W7) * x4;

	imul	eax, DWORD PTR x4$[rbp], 2276		; 000008e4H
	mov	ecx, DWORD PTR x8$[rbp]
	add	ecx, eax
	mov	eax, ecx
	mov	DWORD PTR x4$[rbp], eax

; 158  : 			x5 = x8 - (W1 + W7) * x5;

	imul	eax, DWORD PTR x5$[rbp], 3406		; 00000d4eH
	mov	ecx, DWORD PTR x8$[rbp]
	sub	ecx, eax
	mov	eax, ecx
	mov	DWORD PTR x5$[rbp], eax

; 159  : 			x8 = W3 * (x6 + x7);

	mov	eax, DWORD PTR x7$[rbp]
	mov	ecx, DWORD PTR x6$[rbp]
	add	ecx, eax
	mov	eax, ecx
	imul	eax, eax, 2408				; 00000968H
	mov	DWORD PTR x8$[rbp], eax

; 160  : 			x6 = x8 - (W3 - W5) * x6;

	imul	eax, DWORD PTR x6$[rbp], 799		; 0000031fH
	mov	ecx, DWORD PTR x8$[rbp]
	sub	ecx, eax
	mov	eax, ecx
	mov	DWORD PTR x6$[rbp], eax

; 161  : 			x7 = x8 - (W3 + W5) * x7;

	imul	eax, DWORD PTR x7$[rbp], 4017		; 00000fb1H
	mov	ecx, DWORD PTR x8$[rbp]
	sub	ecx, eax
	mov	eax, ecx
	mov	DWORD PTR x7$[rbp], eax

; 162  : 			x8 = x0 + x1;

	mov	eax, DWORD PTR x1$[rbp]
	mov	ecx, DWORD PTR x0$[rbp]
	add	ecx, eax
	mov	eax, ecx
	mov	DWORD PTR x8$[rbp], eax

; 163  : 			x0 -= x1;

	mov	eax, DWORD PTR x1$[rbp]
	mov	ecx, DWORD PTR x0$[rbp]
	sub	ecx, eax
	mov	eax, ecx
	mov	DWORD PTR x0$[rbp], eax

; 164  : 			x1 = W6 * (x3 + x2);

	mov	eax, DWORD PTR x2$[rbp]
	mov	ecx, DWORD PTR x3$[rbp]
	add	ecx, eax
	mov	eax, ecx
	imul	eax, eax, 1108				; 00000454H
	mov	DWORD PTR x1$[rbp], eax

; 165  : 			x2 = x1 - (W2 + W6) * x2;

	imul	eax, DWORD PTR x2$[rbp], 3784		; 00000ec8H
	mov	ecx, DWORD PTR x1$[rbp]
	sub	ecx, eax
	mov	eax, ecx
	mov	DWORD PTR x2$[rbp], eax

; 166  : 			x3 = x1 + (W2 - W6) * x3;

	imul	eax, DWORD PTR x3$[rbp], 1568		; 00000620H
	mov	ecx, DWORD PTR x1$[rbp]
	add	ecx, eax
	mov	eax, ecx
	mov	DWORD PTR x3$[rbp], eax

; 167  : 			x1 = x4 + x6;

	mov	eax, DWORD PTR x6$[rbp]
	mov	ecx, DWORD PTR x4$[rbp]
	add	ecx, eax
	mov	eax, ecx
	mov	DWORD PTR x1$[rbp], eax

; 168  : 			x4 -= x6;

	mov	eax, DWORD PTR x6$[rbp]
	mov	ecx, DWORD PTR x4$[rbp]
	sub	ecx, eax
	mov	eax, ecx
	mov	DWORD PTR x4$[rbp], eax

; 169  : 			x6 = x5 + x7;

	mov	eax, DWORD PTR x7$[rbp]
	mov	ecx, DWORD PTR x5$[rbp]
	add	ecx, eax
	mov	eax, ecx
	mov	DWORD PTR x6$[rbp], eax

; 170  : 			x5 -= x7;

	mov	eax, DWORD PTR x7$[rbp]
	mov	ecx, DWORD PTR x5$[rbp]
	sub	ecx, eax
	mov	eax, ecx
	mov	DWORD PTR x5$[rbp], eax

; 171  : 			x7 = x8 + x3;

	mov	eax, DWORD PTR x3$[rbp]
	mov	ecx, DWORD PTR x8$[rbp]
	add	ecx, eax
	mov	eax, ecx
	mov	DWORD PTR x7$[rbp], eax

; 172  : 			x8 -= x3;

	mov	eax, DWORD PTR x3$[rbp]
	mov	ecx, DWORD PTR x8$[rbp]
	sub	ecx, eax
	mov	eax, ecx
	mov	DWORD PTR x8$[rbp], eax

; 173  : 			x3 = x0 + x2;

	mov	eax, DWORD PTR x2$[rbp]
	mov	ecx, DWORD PTR x0$[rbp]
	add	ecx, eax
	mov	eax, ecx
	mov	DWORD PTR x3$[rbp], eax

; 174  : 			x0 -= x2;

	mov	eax, DWORD PTR x2$[rbp]
	mov	ecx, DWORD PTR x0$[rbp]
	sub	ecx, eax
	mov	eax, ecx
	mov	DWORD PTR x0$[rbp], eax

; 175  : 			x2 = (181 * (x4 + x5) + 128) >> 8;

	mov	eax, DWORD PTR x5$[rbp]
	mov	ecx, DWORD PTR x4$[rbp]
	add	ecx, eax
	mov	eax, ecx
	imul	eax, eax, 181				; 000000b5H
	add	eax, 128				; 00000080H
	sar	eax, 8
	mov	DWORD PTR x2$[rbp], eax

; 176  : 			x4 = (181 * (x4 - x5) + 128) >> 8;

	mov	eax, DWORD PTR x5$[rbp]
	mov	ecx, DWORD PTR x4$[rbp]
	sub	ecx, eax
	mov	eax, ecx
	imul	eax, eax, 181				; 000000b5H
	add	eax, 128				; 00000080H
	sar	eax, 8
	mov	DWORD PTR x4$[rbp], eax

; 177  : 			blk[0] = (x7 + x1) >> 8;

	mov	eax, DWORD PTR x1$[rbp]
	mov	ecx, DWORD PTR x7$[rbp]
	add	ecx, eax
	mov	eax, ecx
	sar	eax, 8
	mov	ecx, 4
	imul	rcx, rcx, 0
	mov	rdx, QWORD PTR blk$[rbp]
	mov	DWORD PTR [rdx+rcx], eax

; 178  : 			blk[1] = (x3 + x2) >> 8;

	mov	eax, DWORD PTR x2$[rbp]
	mov	ecx, DWORD PTR x3$[rbp]
	add	ecx, eax
	mov	eax, ecx
	sar	eax, 8
	mov	ecx, 4
	imul	rcx, rcx, 1
	mov	rdx, QWORD PTR blk$[rbp]
	mov	DWORD PTR [rdx+rcx], eax

; 179  : 			blk[2] = (x0 + x4) >> 8;

	mov	eax, DWORD PTR x4$[rbp]
	mov	ecx, DWORD PTR x0$[rbp]
	add	ecx, eax
	mov	eax, ecx
	sar	eax, 8
	mov	ecx, 4
	imul	rcx, rcx, 2
	mov	rdx, QWORD PTR blk$[rbp]
	mov	DWORD PTR [rdx+rcx], eax

; 180  : 			blk[3] = (x8 + x6) >> 8;

	mov	eax, DWORD PTR x6$[rbp]
	mov	ecx, DWORD PTR x8$[rbp]
	add	ecx, eax
	mov	eax, ecx
	sar	eax, 8
	mov	ecx, 4
	imul	rcx, rcx, 3
	mov	rdx, QWORD PTR blk$[rbp]
	mov	DWORD PTR [rdx+rcx], eax

; 181  : 			blk[4] = (x8 - x6) >> 8;

	mov	eax, DWORD PTR x6$[rbp]
	mov	ecx, DWORD PTR x8$[rbp]
	sub	ecx, eax
	mov	eax, ecx
	sar	eax, 8
	mov	ecx, 4
	imul	rcx, rcx, 4
	mov	rdx, QWORD PTR blk$[rbp]
	mov	DWORD PTR [rdx+rcx], eax

; 182  : 			blk[5] = (x0 - x4) >> 8;

	mov	eax, DWORD PTR x4$[rbp]
	mov	ecx, DWORD PTR x0$[rbp]
	sub	ecx, eax
	mov	eax, ecx
	sar	eax, 8
	mov	ecx, 4
	imul	rcx, rcx, 5
	mov	rdx, QWORD PTR blk$[rbp]
	mov	DWORD PTR [rdx+rcx], eax

; 183  : 			blk[6] = (x3 - x2) >> 8;

	mov	eax, DWORD PTR x2$[rbp]
	mov	ecx, DWORD PTR x3$[rbp]
	sub	ecx, eax
	mov	eax, ecx
	sar	eax, 8
	mov	ecx, 4
	imul	rcx, rcx, 6
	mov	rdx, QWORD PTR blk$[rbp]
	mov	DWORD PTR [rdx+rcx], eax

; 184  : 			blk[7] = (x7 - x1) >> 8;

	mov	eax, DWORD PTR x1$[rbp]
	mov	ecx, DWORD PTR x7$[rbp]
	sub	ecx, eax
	mov	eax, ecx
	sar	eax, 8
	mov	ecx, 4
	imul	rcx, rcx, 7
	mov	rdx, QWORD PTR blk$[rbp]
	mov	DWORD PTR [rdx+rcx], eax
$LN1@RowIDCT:

; 185  : 		}

	lea	rsp, QWORD PTR [rbp+112]
	pop	rbp
	ret	0
?_RowIDCT@Decoder@Jpeg@@AEAAXPEAH@Z ENDP		; Jpeg::Decoder::_RowIDCT
_TEXT	ENDS
; Function compile flags: /Odtp /ZI
; File C:\Users\paras\source\repos\grep-name\XenevaOS\Libs\Chitralekha\nanojpg.h
;	COMDAT ?_Clip@Decoder@Jpeg@@AEAAEH@Z
_TEXT	SEGMENT
tv68 = 64
tv67 = 68
this$ = 96
x$ = 104
?_Clip@Decoder@Jpeg@@AEAAEH@Z PROC			; Jpeg::Decoder::_Clip, COMDAT

; 129  : 		inline unsigned char _Clip(const int x) {

$LN7:
	mov	DWORD PTR [rsp+16], edx
	mov	QWORD PTR [rsp+8], rcx
	push	rbp
	sub	rsp, 80					; 00000050H
	mov	rbp, rsp

; 130  : 			return (x < 0) ? 0 : ((x > 0xFF) ? 0xFF : (unsigned char)x);

	cmp	DWORD PTR x$[rbp], 0
	jge	SHORT $LN5@Clip
	mov	DWORD PTR tv68[rbp], 0
	jmp	SHORT $LN6@Clip
$LN5@Clip:
	cmp	DWORD PTR x$[rbp], 255			; 000000ffH
	jle	SHORT $LN3@Clip
	mov	DWORD PTR tv67[rbp], 255		; 000000ffH
	jmp	SHORT $LN4@Clip
$LN3@Clip:
	movzx	eax, BYTE PTR x$[rbp]
	mov	DWORD PTR tv67[rbp], eax
$LN4@Clip:
	mov	eax, DWORD PTR tv67[rbp]
	mov	DWORD PTR tv68[rbp], eax
$LN6@Clip:
	movzx	eax, BYTE PTR tv68[rbp]

; 131  : 		}

	lea	rsp, QWORD PTR [rbp+80]
	pop	rbp
	ret	0
?_Clip@Decoder@Jpeg@@AEAAEH@Z ENDP			; Jpeg::Decoder::_Clip
_TEXT	ENDS
; Function compile flags: /Odtp /ZI
; File C:\Users\paras\source\repos\grep-name\XenevaOS\Libs\Chitralekha\nanojpg.h
;	COMDAT ?GetImage@Decoder@Jpeg@@QEBAPEAEXZ
_TEXT	SEGMENT
tv74 = 64
this$ = 96
?GetImage@Decoder@Jpeg@@QEBAPEAEXZ PROC			; Jpeg::Decoder::GetImage, COMDAT

; 680  : 	inline unsigned char* Decoder::GetImage() const { return (ctx.ncomp == 1) ? ctx.comp[0].pixels : ctx.rgb; }

$LN5:
	mov	QWORD PTR [rsp+8], rcx
	push	rbp
	sub	rsp, 80					; 00000050H
	mov	rbp, rsp
	mov	rax, QWORD PTR this$[rbp]
	cmp	DWORD PTR [rax+48], 1
	jne	SHORT $LN3@GetImage
	mov	eax, 48					; 00000030H
	imul	rax, rax, 0
	mov	rcx, QWORD PTR this$[rbp]
	mov	rax, QWORD PTR [rcx+rax+92]
	mov	QWORD PTR tv74[rbp], rax
	jmp	SHORT $LN4@GetImage
$LN3@GetImage:
	mov	rax, QWORD PTR this$[rbp]
	mov	rax, QWORD PTR [rax+525016]
	mov	QWORD PTR tv74[rbp], rax
$LN4@GetImage:
	mov	rax, QWORD PTR tv74[rbp]
	lea	rsp, QWORD PTR [rbp+80]
	pop	rbp
	ret	0
?GetImage@Decoder@Jpeg@@QEBAPEAEXZ ENDP			; Jpeg::Decoder::GetImage
_TEXT	ENDS
; Function compile flags: /Odtp /ZI
; File C:\Users\paras\source\repos\grep-name\XenevaOS\Libs\Chitralekha\nanojpg.h
;	COMDAT ?GetHeight@Decoder@Jpeg@@QEBAHXZ
_TEXT	SEGMENT
this$ = 80
?GetHeight@Decoder@Jpeg@@QEBAHXZ PROC			; Jpeg::Decoder::GetHeight, COMDAT

; 678  : 	inline int Decoder::GetHeight() const { return ctx.height; }

$LN3:
	mov	QWORD PTR [rsp+8], rcx
	push	rbp
	sub	rsp, 64					; 00000040H
	mov	rbp, rsp
	mov	rax, QWORD PTR this$[rbp]
	mov	eax, DWORD PTR [rax+28]
	lea	rsp, QWORD PTR [rbp+64]
	pop	rbp
	ret	0
?GetHeight@Decoder@Jpeg@@QEBAHXZ ENDP			; Jpeg::Decoder::GetHeight
_TEXT	ENDS
; Function compile flags: /Odtp /ZI
; File C:\Users\paras\source\repos\grep-name\XenevaOS\Libs\Chitralekha\nanojpg.h
;	COMDAT ?GetWidth@Decoder@Jpeg@@QEBAHXZ
_TEXT	SEGMENT
this$ = 80
?GetWidth@Decoder@Jpeg@@QEBAHXZ PROC			; Jpeg::Decoder::GetWidth, COMDAT

; 677  : 	inline int Decoder::GetWidth() const { return ctx.width; }

$LN3:
	mov	QWORD PTR [rsp+8], rcx
	push	rbp
	sub	rsp, 64					; 00000040H
	mov	rbp, rsp
	mov	rax, QWORD PTR this$[rbp]
	mov	eax, DWORD PTR [rax+24]
	lea	rsp, QWORD PTR [rbp+64]
	pop	rbp
	ret	0
?GetWidth@Decoder@Jpeg@@QEBAHXZ ENDP			; Jpeg::Decoder::GetWidth
_TEXT	ENDS
; Function compile flags: /Odtp /ZI
; File C:\Users\paras\source\repos\grep-name\XenevaOS\Libs\Chitralekha\nanojpg.h
;	COMDAT ?GetResult@Decoder@Jpeg@@QEBA?AW4DecodeResult@12@XZ
_TEXT	SEGMENT
this$ = 80
?GetResult@Decoder@Jpeg@@QEBA?AW4DecodeResult@12@XZ PROC ; Jpeg::Decoder::GetResult, COMDAT

; 676  : 	inline Decoder::DecodeResult Decoder::GetResult() const { return ctx.error; }

$LN3:
	mov	QWORD PTR [rsp+8], rcx
	push	rbp
	sub	rsp, 64					; 00000040H
	mov	rbp, rsp
	mov	rax, QWORD PTR this$[rbp]
	mov	eax, DWORD PTR [rax]
	lea	rsp, QWORD PTR [rbp+64]
	pop	rbp
	ret	0
?GetResult@Decoder@Jpeg@@QEBA?AW4DecodeResult@12@XZ ENDP ; Jpeg::Decoder::GetResult
_TEXT	ENDS
; Function compile flags: /Odtp /ZI
; File C:\Users\paras\source\repos\grep-name\XenevaOS\Libs\Chitralekha\nanojpg.h
;	COMDAT ??0Decoder@Jpeg@@QEAA@PEBEIP6APEAXI@ZP6AXPEAX@Z@Z
_TEXT	SEGMENT
temp$ = 0
this$ = 144
data$ = 152
size$ = 160
allocFunc$ = 168
freeFunc$ = 176
??0Decoder@Jpeg@@QEAA@PEBEIP6APEAXI@ZP6AXPEAX@Z@Z PROC	; Jpeg::Decoder::Decoder, COMDAT

; 663  : 	{

$LN3:
	mov	QWORD PTR [rsp+32], r9
	mov	DWORD PTR [rsp+24], r8d
	mov	QWORD PTR [rsp+16], rdx
	mov	QWORD PTR [rsp+8], rcx
	push	rbp
	sub	rsp, 160				; 000000a0H
	lea	rbp, QWORD PTR [rsp+32]

; 661  : 		: AllocMem(allocFunc)

	mov	rax, QWORD PTR this$[rbp]
	mov	rcx, QWORD PTR allocFunc$[rbp]
	mov	QWORD PTR [rax+525088], rcx

; 662  : 		, FreeMem(freeFunc)

	mov	rax, QWORD PTR this$[rbp]
	mov	rcx, QWORD PTR freeFunc$[rbp]
	mov	QWORD PTR [rax+525096], rcx

; 664  : 		// should be static data, but this keeps us as a header
; 665  : 		char temp[64] = { 0, 1, 8, 16, 9, 2, 3, 10, 17, 24, 32, 25, 18,

	mov	BYTE PTR temp$[rbp], 0
	mov	BYTE PTR temp$[rbp+1], 1
	mov	BYTE PTR temp$[rbp+2], 8
	mov	BYTE PTR temp$[rbp+3], 16
	mov	BYTE PTR temp$[rbp+4], 9
	mov	BYTE PTR temp$[rbp+5], 2
	mov	BYTE PTR temp$[rbp+6], 3
	mov	BYTE PTR temp$[rbp+7], 10
	mov	BYTE PTR temp$[rbp+8], 17
	mov	BYTE PTR temp$[rbp+9], 24
	mov	BYTE PTR temp$[rbp+10], 32		; 00000020H
	mov	BYTE PTR temp$[rbp+11], 25
	mov	BYTE PTR temp$[rbp+12], 18

; 666  : 			11, 4, 5, 12, 19, 26, 33, 40, 48, 41, 34, 27, 20, 13, 6, 7, 14, 21, 28, 35,

	mov	BYTE PTR temp$[rbp+13], 11
	mov	BYTE PTR temp$[rbp+14], 4
	mov	BYTE PTR temp$[rbp+15], 5
	mov	BYTE PTR temp$[rbp+16], 12
	mov	BYTE PTR temp$[rbp+17], 19
	mov	BYTE PTR temp$[rbp+18], 26
	mov	BYTE PTR temp$[rbp+19], 33		; 00000021H
	mov	BYTE PTR temp$[rbp+20], 40		; 00000028H
	mov	BYTE PTR temp$[rbp+21], 48		; 00000030H
	mov	BYTE PTR temp$[rbp+22], 41		; 00000029H
	mov	BYTE PTR temp$[rbp+23], 34		; 00000022H
	mov	BYTE PTR temp$[rbp+24], 27
	mov	BYTE PTR temp$[rbp+25], 20
	mov	BYTE PTR temp$[rbp+26], 13
	mov	BYTE PTR temp$[rbp+27], 6
	mov	BYTE PTR temp$[rbp+28], 7
	mov	BYTE PTR temp$[rbp+29], 14
	mov	BYTE PTR temp$[rbp+30], 21
	mov	BYTE PTR temp$[rbp+31], 28
	mov	BYTE PTR temp$[rbp+32], 35		; 00000023H

; 667  : 			42, 49, 56, 57, 50, 43, 36, 29, 22, 15, 23, 30, 37, 44, 51, 58, 59, 52, 45,

	mov	BYTE PTR temp$[rbp+33], 42		; 0000002aH
	mov	BYTE PTR temp$[rbp+34], 49		; 00000031H
	mov	BYTE PTR temp$[rbp+35], 56		; 00000038H
	mov	BYTE PTR temp$[rbp+36], 57		; 00000039H
	mov	BYTE PTR temp$[rbp+37], 50		; 00000032H
	mov	BYTE PTR temp$[rbp+38], 43		; 0000002bH
	mov	BYTE PTR temp$[rbp+39], 36		; 00000024H
	mov	BYTE PTR temp$[rbp+40], 29
	mov	BYTE PTR temp$[rbp+41], 22
	mov	BYTE PTR temp$[rbp+42], 15
	mov	BYTE PTR temp$[rbp+43], 23
	mov	BYTE PTR temp$[rbp+44], 30
	mov	BYTE PTR temp$[rbp+45], 37		; 00000025H
	mov	BYTE PTR temp$[rbp+46], 44		; 0000002cH
	mov	BYTE PTR temp$[rbp+47], 51		; 00000033H
	mov	BYTE PTR temp$[rbp+48], 58		; 0000003aH
	mov	BYTE PTR temp$[rbp+49], 59		; 0000003bH
	mov	BYTE PTR temp$[rbp+50], 52		; 00000034H
	mov	BYTE PTR temp$[rbp+51], 45		; 0000002dH

; 668  : 			38, 31, 39, 46, 53, 60, 61, 54, 47, 55, 62, 63 };

	mov	BYTE PTR temp$[rbp+52], 38		; 00000026H
	mov	BYTE PTR temp$[rbp+53], 31
	mov	BYTE PTR temp$[rbp+54], 39		; 00000027H
	mov	BYTE PTR temp$[rbp+55], 46		; 0000002eH
	mov	BYTE PTR temp$[rbp+56], 53		; 00000035H
	mov	BYTE PTR temp$[rbp+57], 60		; 0000003cH
	mov	BYTE PTR temp$[rbp+58], 61		; 0000003dH
	mov	BYTE PTR temp$[rbp+59], 54		; 00000036H
	mov	BYTE PTR temp$[rbp+60], 47		; 0000002fH
	mov	BYTE PTR temp$[rbp+61], 55		; 00000037H
	mov	BYTE PTR temp$[rbp+62], 62		; 0000003eH
	mov	BYTE PTR temp$[rbp+63], 63		; 0000003fH

; 669  : 		memcpy(ZZ, temp, sizeof(ZZ));

	mov	rax, QWORD PTR this$[rbp]
	add	rax, 525024				; 000802e0H
	mov	r8d, 64					; 00000040H
	lea	rdx, QWORD PTR temp$[rbp]
	mov	rcx, rax
	call	memcpy

; 670  : 		memset(&ctx, 0, sizeof(Context));

	mov	rax, QWORD PTR this$[rbp]
	mov	r8d, 525024				; 000802e0H
	xor	edx, edx
	mov	rcx, rax
	call	memset

; 671  : 	/*	_KePrint("ctx -> %x calling decoder, %x\r\n", &ctx, data);
; 672  : 		_KePrint("size : %d _Decode %x\r\n", size, &Decoder::_Decode);*/
; 673  : 		_Decode(data, size);

	mov	r8d, DWORD PTR size$[rbp]
	mov	rdx, QWORD PTR data$[rbp]
	mov	rcx, QWORD PTR this$[rbp]
	call	?_Decode@Decoder@Jpeg@@AEAA?AW4DecodeResult@12@PEBEH@Z ; Jpeg::Decoder::_Decode

; 674  : 	}

	mov	rax, QWORD PTR this$[rbp]
	lea	rsp, QWORD PTR [rbp+128]
	pop	rbp
	ret	0
??0Decoder@Jpeg@@QEAA@PEBEIP6APEAXI@ZP6AXPEAX@Z@Z ENDP	; Jpeg::Decoder::Decoder
_TEXT	ENDS
END
