; Listing generated by Microsoft (R) Optimizing Compiler Version 19.29.30159.0 

include listing.inc

INCLUDELIB LIBCMT
INCLUDELIB OLDNAMES

CONST	SEGMENT
?mp3_bitrate_tab@@3QAY0P@$$CBGA DW 00H			; mp3_bitrate_tab
	DW	020H
	DW	028H
	DW	030H
	DW	038H
	DW	040H
	DW	050H
	DW	060H
	DW	070H
	DW	080H
	DW	0a0H
	DW	0c0H
	DW	0e0H
	DW	0100H
	DW	0140H
	DW	00H
	DW	08H
	DW	010H
	DW	018H
	DW	020H
	DW	028H
	DW	030H
	DW	038H
	DW	040H
	DW	050H
	DW	060H
	DW	070H
	DW	080H
	DW	090H
	DW	0a0H
?mp3_freq_tab@@3QBGB DW 0ac44H				; mp3_freq_tab
	DW	0bb80H
	DW	07d00H
	ORG $+14
?mp3_enwindow@@3QBHB DD 00H				; mp3_enwindow
	DD	0ffffffffH
	DD	0ffffffffH
	DD	0ffffffffH
	DD	0ffffffffH
	DD	0ffffffffH
	DD	0ffffffffH
	DD	0fffffffeH
	DD	0fffffffeH
	DD	0fffffffeH
	DD	0fffffffeH
	DD	0fffffffdH
	DD	0fffffffdH
	DD	0fffffffcH
	DD	0fffffffcH
	DD	0fffffffbH
	DD	0fffffffbH
	DD	0fffffffaH
	DD	0fffffff9H
	DD	0fffffff9H
	DD	0fffffff8H
	DD	0fffffff7H
	DD	0fffffff6H
	DD	0fffffff5H
	DD	0fffffff3H
	DD	0fffffff2H
	DD	0fffffff0H
	DD	0ffffffefH
	DD	0ffffffedH
	DD	0ffffffebH
	DD	0ffffffe8H
	DD	0ffffffe6H
	DD	0ffffffe3H
	DD	0ffffffe1H
	DD	0ffffffddH
	DD	0ffffffdaH
	DD	0ffffffd7H
	DD	0ffffffd3H
	DD	0ffffffcfH
	DD	0ffffffcbH
	DD	0ffffffc6H
	DD	0ffffffc1H
	DD	0ffffffbcH
	DD	0ffffffb7H
	DD	0ffffffb1H
	DD	0ffffffabH
	DD	0ffffffa5H
	DD	0ffffff9fH
	DD	0ffffff98H
	DD	0ffffff91H
	DD	0ffffff8bH
	DD	0ffffff83H
	DD	0ffffff7cH
	DD	0ffffff75H
	DD	0ffffff6dH
	DD	0ffffff66H
	DD	0ffffff5fH
	DD	0ffffff57H
	DD	0ffffff50H
	DD	0ffffff49H
	DD	0ffffff42H
	DD	0ffffff3cH
	DD	0ffffff36H
	DD	0ffffff30H
	DD	0d5H
	DD	0daH
	DD	0deH
	DD	0e1H
	DD	0e3H
	DD	0e4H
	DD	0e4H
	DD	0e3H
	DD	0e0H
	DD	0ddH
	DD	0d7H
	DD	0d0H
	DD	0c8H
	DD	0bdH
	DD	0b1H
	DD	0a3H
	DD	092H
	DD	07fH
	DD	06aH
	DD	053H
	DD	039H
	DD	01dH
	DD	0fffffffeH
	DD	0ffffffdcH
	DD	0ffffffb8H
	DD	0ffffff91H
	DD	0ffffff67H
	DD	0ffffff3bH
	DD	0ffffff0cH
	DD	0fffffedaH
	DD	0fffffea5H
	DD	0fffffe6fH
	DD	0fffffe35H
	DD	0fffffdf9H
	DD	0fffffdbbH
	DD	0fffffd7bH
	DD	0fffffd39H
	DD	0fffffcf5H
	DD	0fffffcb0H
	DD	0fffffc69H
	DD	0fffffc21H
	DD	0fffffbd8H
	DD	0fffffb8fH
	DD	0fffffb46H
	DD	0fffffafdH
	DD	0fffffab4H
	DD	0fffffa6cH
	DD	0fffffa26H
	DD	0fffff9e1H
	DD	0fffff99eH
	DD	0fffff95eH
	DD	0fffff921H
	DD	0fffff8e7H
	DD	0fffff8b2H
	DD	0fffff881H
	DD	0fffff856H
	DD	0fffff82fH
	DD	0fffff810H
	DD	0fffff7f7H
	DD	0fffff7e5H
	DD	0fffff7dbH
	DD	0fffff7d9H
	DD	0fffff7e0H
	DD	0fffff7f1H
	DD	07f5H
	DD	07d0H
	DD	07a0H
	DD	0765H
	DD	071eH
	DD	06cbH
	DD	066cH
	DD	05ffH
	DD	0586H
	DD	0500H
	DD	046bH
	DD	03caH
	DD	031aH
	DD	025dH
	DD	0192H
	DD	0b9H
	DD	0ffffffd3H
	DD	0fffffee0H
	DD	0fffffddfH
	DD	0fffffcd2H
	DD	0fffffbb9H
	DD	0fffffa94H
	DD	0fffff964H
	DD	0fffff82aH
	DD	0fffff6e6H
	DD	0fffff599H
	DD	0fffff444H
	DD	0fffff2e9H
	DD	0fffff187H
	DD	0fffff021H
	DD	0ffffeeb7H
	DD	0ffffed4cH
	DD	0ffffebdfH
	DD	0ffffea73H
	DD	0ffffe909H
	DD	0ffffe7a3H
	DD	0ffffe643H
	DD	0ffffe4e9H
	DD	0ffffe399H
	DD	0ffffe253H
	DD	0ffffe11aH
	DD	0ffffdfefH
	DD	0ffffded5H
	DD	0ffffddcdH
	DD	0ffffdcdaH
	DD	0ffffdbfdH
	DD	0ffffdb38H
	DD	0ffffda8fH
	DD	0ffffda01H
	DD	0ffffd992H
	DD	0ffffd944H
	DD	0ffffd919H
	DD	0ffffd912H
	DD	0ffffd931H
	DD	0ffffd979H
	DD	0ffffd9eaH
	DD	0ffffda88H
	DD	0ffffdb53H
	DD	0ffffdc4dH
	DD	0ffffdd78H
	DD	0ffffded4H
	DD	0ffffe064H
	DD	0ffffe228H
	DD	0ffffe422H
	DD	019aeH
	DD	01747H
	DD	014a8H
	DD	011d1H
	DD	0ec0H
	DD	0b77H
	DD	07f5H
	DD	043aH
	DD	046H
	DD	0fffffc1aH
	DD	0fffff7b6H
	DD	0fffff31cH
	DD	0ffffee4bH
	DD	0ffffe946H
	DD	0ffffe40eH
	DD	0ffffdea4H
	DD	0ffffd909H
	DD	0ffffd341H
	DD	0ffffcd4cH
	DD	0ffffc72cH
	DD	0ffffc0e5H
	DD	0ffffba79H
	DD	0ffffb3eaH
	DD	0ffffad3bH
	DD	0ffffa66fH
	DD	0ffff9f8aH
	DD	0ffff988eH
	DD	0ffff917fH
	DD	0ffff8a60H
	DD	0ffff8335H
	DD	0ffff7c01H
	DD	0ffff74c8H
	DD	0ffff6d8fH
	DD	0ffff6658H
	DD	0ffff5f28H
	DD	0ffff5802H
	DD	0ffff50ebH
	DD	0ffff49e7H
	DD	0ffff42faH
	DD	0ffff3c27H
	DD	0ffff3573H
	DD	0ffff2ee2H
	DD	0ffff2876H
	DD	0ffff2236H
	DD	0ffff1c23H
	DD	0ffff1642H
	DD	0ffff1097H
	DD	0ffff0b24H
	DD	0ffff05edH
	DD	0ffff00f6H
	DD	0fffefc42H
	DD	0fffef7d3H
	DD	0fffef3acH
	DD	0fffeefd1H
	DD	0fffeec42H
	DD	0fffee904H
	DD	0fffee617H
	DD	0fffee37dH
	DD	0fffee139H
	DD	0fffedf4cH
	DD	0fffeddb7H
	DD	0fffedc7aH
	DD	0fffedb98H
	DD	0fffedb10H
	DD	01251eH
?mp3_huffbits_1@@3QBEB DB 01H				; mp3_huffbits_1
	DB	03H
	DB	02H
	DB	03H
?slen_table@@3QAY0BA@$$CBEA DB 00H			; slen_table
	DB	00H
	DB	00H
	DB	00H
	DB	03H
	DB	01H
	DB	01H
	DB	01H
	DB	02H
	DB	02H
	DB	02H
	DB	03H
	DB	03H
	DB	03H
	DB	04H
	DB	04H
	DB	00H
	DB	01H
	DB	02H
	DB	03H
	DB	00H
	DB	01H
	DB	02H
	DB	03H
	DB	01H
	DB	02H
	DB	03H
	DB	01H
	DB	02H
	DB	03H
	DB	02H
	DB	03H
?mp3_huffcodes_1@@3QBGB DW 01H				; mp3_huffcodes_1
	DW	01H
	DW	01H
	DW	00H
?lsf_nsf_table@@3QAY123$$CBEA DB 06H			; lsf_nsf_table
	DB	05H
	DB	05H
	DB	05H
	DB	09H
	DB	09H
	DB	09H
	DB	09H
	DB	06H
	DB	09H
	DB	09H
	DB	09H
	DB	06H
	DB	05H
	DB	07H
	DB	03H
	DB	09H
	DB	09H
	DB	0cH
	DB	06H
	DB	06H
	DB	09H
	DB	0cH
	DB	06H
	DB	0bH
	DB	0aH
	DB	00H
	DB	00H
	DB	012H
	DB	012H
	DB	00H
	DB	00H
	DB	0fH
	DB	012H
	DB	00H
	DB	00H
	DB	07H
	DB	07H
	DB	07H
	DB	00H
	DB	0cH
	DB	0cH
	DB	0cH
	DB	00H
	DB	06H
	DB	0fH
	DB	0cH
	DB	00H
	DB	06H
	DB	06H
	DB	06H
	DB	03H
	DB	0cH
	DB	09H
	DB	09H
	DB	06H
	DB	06H
	DB	0cH
	DB	09H
	DB	06H
	DB	08H
	DB	08H
	DB	05H
	DB	00H
	DB	0fH
	DB	0cH
	DB	09H
	DB	00H
	DB	06H
	DB	012H
	DB	09H
	DB	00H
?mp3_huffcodes_2@@3QBGB DW 01H				; mp3_huffcodes_2
	DW	02H
	DW	01H
	DW	03H
	DW	01H
	DW	01H
	DW	03H
	DW	02H
	DW	00H
	ORG $+6
?mp3_huffbits_2@@3QBEB DB 01H				; mp3_huffbits_2
	DB	03H
	DB	06H
	DB	03H
	DB	03H
	DB	05H
	DB	05H
	DB	05H
	DB	06H
	ORG $+7
?mp3_huffcodes_3@@3QBGB DW 03H				; mp3_huffcodes_3
	DW	02H
	DW	01H
	DW	01H
	DW	01H
	DW	01H
	DW	03H
	DW	02H
	DW	00H
	ORG $+6
?mp3_huffbits_3@@3QBEB DB 02H				; mp3_huffbits_3
	DB	02H
	DB	06H
	DB	03H
	DB	02H
	DB	05H
	DB	05H
	DB	05H
	DB	06H
	ORG $+7
?mp3_huffcodes_5@@3QBGB DW 01H				; mp3_huffcodes_5
	DW	02H
	DW	06H
	DW	05H
	DW	03H
	DW	01H
	DW	04H
	DW	04H
	DW	07H
	DW	05H
	DW	07H
	DW	01H
	DW	06H
	DW	01H
	DW	01H
	DW	00H
?mp3_huffbits_5@@3QBEB DB 01H				; mp3_huffbits_5
	DB	03H
	DB	06H
	DB	07H
	DB	03H
	DB	03H
	DB	06H
	DB	07H
	DB	06H
	DB	06H
	DB	07H
	DB	08H
	DB	07H
	DB	06H
	DB	07H
	DB	08H
?mp3_huffcodes_6@@3QBGB DW 07H				; mp3_huffcodes_6
	DW	03H
	DW	05H
	DW	01H
	DW	06H
	DW	02H
	DW	03H
	DW	02H
	DW	05H
	DW	04H
	DW	04H
	DW	01H
	DW	03H
	DW	03H
	DW	02H
	DW	00H
?mp3_huffbits_6@@3QBEB DB 03H				; mp3_huffbits_6
	DB	03H
	DB	05H
	DB	07H
	DB	03H
	DB	02H
	DB	04H
	DB	05H
	DB	04H
	DB	04H
	DB	05H
	DB	06H
	DB	06H
	DB	05H
	DB	06H
	DB	07H
	ORG $+8
?mp3_huffcodes_7@@3QBGB DW 01H				; mp3_huffcodes_7
	DW	02H
	DW	0aH
	DW	013H
	DW	010H
	DW	0aH
	DW	03H
	DW	03H
	DW	07H
	DW	0aH
	DW	05H
	DW	03H
	DW	0bH
	DW	04H
	DW	0dH
	DW	011H
	DW	08H
	DW	04H
	DW	0cH
	DW	0bH
	DW	012H
	DW	0fH
	DW	0bH
	DW	02H
	DW	07H
	DW	06H
	DW	09H
	DW	0eH
	DW	03H
	DW	01H
	DW	06H
	DW	04H
	DW	05H
	DW	03H
	DW	02H
	DW	00H
?mp3_huffbits_7@@3QBEB DB 01H				; mp3_huffbits_7
	DB	03H
	DB	06H
	DB	08H
	DB	08H
	DB	09H
	DB	03H
	DB	04H
	DB	06H
	DB	07H
	DB	07H
	DB	08H
	DB	06H
	DB	05H
	DB	07H
	DB	08H
	DB	08H
	DB	09H
	DB	07H
	DB	07H
	DB	08H
	DB	09H
	DB	09H
	DB	09H
	DB	07H
	DB	07H
	DB	08H
	DB	09H
	DB	09H
	DB	0aH
	DB	08H
	DB	08H
	DB	09H
	DB	0aH
	DB	0aH
	DB	0aH
	ORG $+4
?mp3_huffcodes_8@@3QBGB DW 03H				; mp3_huffcodes_8
	DW	04H
	DW	06H
	DW	012H
	DW	0cH
	DW	05H
	DW	05H
	DW	01H
	DW	02H
	DW	010H
	DW	09H
	DW	03H
	DW	07H
	DW	03H
	DW	05H
	DW	0eH
	DW	07H
	DW	03H
	DW	013H
	DW	011H
	DW	0fH
	DW	0dH
	DW	0aH
	DW	04H
	DW	0dH
	DW	05H
	DW	08H
	DW	0bH
	DW	05H
	DW	01H
	DW	0cH
	DW	04H
	DW	04H
	DW	01H
	DW	01H
	DW	00H
?mp3_huffbits_8@@3QBEB DB 02H				; mp3_huffbits_8
	DB	03H
	DB	06H
	DB	08H
	DB	08H
	DB	09H
	DB	03H
	DB	02H
	DB	04H
	DB	08H
	DB	08H
	DB	08H
	DB	06H
	DB	04H
	DB	06H
	DB	08H
	DB	08H
	DB	09H
	DB	08H
	DB	08H
	DB	08H
	DB	09H
	DB	09H
	DB	0aH
	DB	08H
	DB	07H
	DB	08H
	DB	09H
	DB	0aH
	DB	0aH
	DB	09H
	DB	08H
	DB	09H
	DB	09H
	DB	0bH
	DB	0bH
	ORG $+4
?mp3_huffcodes_9@@3QBGB DW 07H				; mp3_huffcodes_9
	DW	05H
	DW	09H
	DW	0eH
	DW	0fH
	DW	07H
	DW	06H
	DW	04H
	DW	05H
	DW	05H
	DW	06H
	DW	07H
	DW	07H
	DW	06H
	DW	08H
	DW	08H
	DW	08H
	DW	05H
	DW	0fH
	DW	06H
	DW	09H
	DW	0aH
	DW	05H
	DW	01H
	DW	0bH
	DW	07H
	DW	09H
	DW	06H
	DW	04H
	DW	01H
	DW	0eH
	DW	04H
	DW	06H
	DW	02H
	DW	06H
	DW	00H
?mp3_huffbits_9@@3QBEB DB 03H				; mp3_huffbits_9
	DB	03H
	DB	05H
	DB	06H
	DB	08H
	DB	09H
	DB	03H
	DB	03H
	DB	04H
	DB	05H
	DB	06H
	DB	08H
	DB	04H
	DB	04H
	DB	05H
	DB	06H
	DB	07H
	DB	08H
	DB	06H
	DB	05H
	DB	06H
	DB	07H
	DB	07H
	DB	08H
	DB	07H
	DB	06H
	DB	07H
	DB	07H
	DB	08H
	DB	09H
	DB	08H
	DB	07H
	DB	08H
	DB	08H
	DB	09H
	DB	09H
	ORG $+4
?mp3_huffcodes_10@@3QBGB DW 01H				; mp3_huffcodes_10
	DW	02H
	DW	0aH
	DW	017H
	DW	023H
	DW	01eH
	DW	0cH
	DW	011H
	DW	03H
	DW	03H
	DW	08H
	DW	0cH
	DW	012H
	DW	015H
	DW	0cH
	DW	07H
	DW	0bH
	DW	09H
	DW	0fH
	DW	015H
	DW	020H
	DW	028H
	DW	013H
	DW	06H
	DW	0eH
	DW	0dH
	DW	016H
	DW	022H
	DW	02eH
	DW	017H
	DW	012H
	DW	07H
	DW	014H
	DW	013H
	DW	021H
	DW	02fH
	DW	01bH
	DW	016H
	DW	09H
	DW	03H
	DW	01fH
	DW	016H
	DW	029H
	DW	01aH
	DW	015H
	DW	014H
	DW	05H
	DW	03H
	DW	0eH
	DW	0dH
	DW	0aH
	DW	0bH
	DW	010H
	DW	06H
	DW	05H
	DW	01H
	DW	09H
	DW	08H
	DW	07H
	DW	08H
	DW	04H
	DW	04H
	DW	02H
	DW	00H
?mp3_huffbits_10@@3QBEB DB 01H				; mp3_huffbits_10
	DB	03H
	DB	06H
	DB	08H
	DB	09H
	DB	09H
	DB	09H
	DB	0aH
	DB	03H
	DB	04H
	DB	06H
	DB	07H
	DB	08H
	DB	09H
	DB	08H
	DB	08H
	DB	06H
	DB	06H
	DB	07H
	DB	08H
	DB	09H
	DB	0aH
	DB	09H
	DB	09H
	DB	07H
	DB	07H
	DB	08H
	DB	09H
	DB	0aH
	DB	0aH
	DB	09H
	DB	0aH
	DB	08H
	DB	08H
	DB	09H
	DB	0aH
	DB	0aH
	DB	0aH
	DB	0aH
	DB	0aH
	DB	09H
	DB	09H
	DB	0aH
	DB	0aH
	DB	0bH
	DB	0bH
	DB	0aH
	DB	0bH
	DB	08H
	DB	08H
	DB	09H
	DB	0aH
	DB	0aH
	DB	0aH
	DB	0bH
	DB	0bH
	DB	09H
	DB	08H
	DB	09H
	DB	0aH
	DB	0aH
	DB	0bH
	DB	0bH
	DB	0bH
?mp3_huffcodes_11@@3QBGB DW 03H				; mp3_huffcodes_11
	DW	04H
	DW	0aH
	DW	018H
	DW	022H
	DW	021H
	DW	015H
	DW	0fH
	DW	05H
	DW	03H
	DW	04H
	DW	0aH
	DW	020H
	DW	011H
	DW	0bH
	DW	0aH
	DW	0bH
	DW	07H
	DW	0dH
	DW	012H
	DW	01eH
	DW	01fH
	DW	014H
	DW	05H
	DW	019H
	DW	0bH
	DW	013H
	DW	03bH
	DW	01bH
	DW	012H
	DW	0cH
	DW	05H
	DW	023H
	DW	021H
	DW	01fH
	DW	03aH
	DW	01eH
	DW	010H
	DW	07H
	DW	05H
	DW	01cH
	DW	01aH
	DW	020H
	DW	013H
	DW	011H
	DW	0fH
	DW	08H
	DW	0eH
	DW	0eH
	DW	0cH
	DW	09H
	DW	0dH
	DW	0eH
	DW	09H
	DW	04H
	DW	01H
	DW	0bH
	DW	04H
	DW	06H
	DW	06H
	DW	06H
	DW	03H
	DW	02H
	DW	00H
?mp3_huffbits_11@@3QBEB DB 02H				; mp3_huffbits_11
	DB	03H
	DB	05H
	DB	07H
	DB	08H
	DB	09H
	DB	08H
	DB	09H
	DB	03H
	DB	03H
	DB	04H
	DB	06H
	DB	08H
	DB	08H
	DB	07H
	DB	08H
	DB	05H
	DB	05H
	DB	06H
	DB	07H
	DB	08H
	DB	09H
	DB	08H
	DB	08H
	DB	07H
	DB	06H
	DB	07H
	DB	09H
	DB	08H
	DB	0aH
	DB	08H
	DB	09H
	DB	08H
	DB	08H
	DB	08H
	DB	09H
	DB	09H
	DB	0aH
	DB	09H
	DB	0aH
	DB	08H
	DB	08H
	DB	09H
	DB	0aH
	DB	0aH
	DB	0bH
	DB	0aH
	DB	0bH
	DB	08H
	DB	07H
	DB	07H
	DB	08H
	DB	09H
	DB	0aH
	DB	0aH
	DB	0aH
	DB	08H
	DB	07H
	DB	08H
	DB	09H
	DB	0aH
	DB	0aH
	DB	0aH
	DB	0aH
?mp3_huffcodes_12@@3QBGB DW 09H				; mp3_huffcodes_12
	DW	06H
	DW	010H
	DW	021H
	DW	029H
	DW	027H
	DW	026H
	DW	01aH
	DW	07H
	DW	05H
	DW	06H
	DW	09H
	DW	017H
	DW	010H
	DW	01aH
	DW	0bH
	DW	011H
	DW	07H
	DW	0bH
	DW	0eH
	DW	015H
	DW	01eH
	DW	0aH
	DW	07H
	DW	011H
	DW	0aH
	DW	0fH
	DW	0cH
	DW	012H
	DW	01cH
	DW	0eH
	DW	05H
	DW	020H
	DW	0dH
	DW	016H
	DW	013H
	DW	012H
	DW	010H
	DW	09H
	DW	05H
	DW	028H
	DW	011H
	DW	01fH
	DW	01dH
	DW	011H
	DW	0dH
	DW	04H
	DW	02H
	DW	01bH
	DW	0cH
	DW	0bH
	DW	0fH
	DW	0aH
	DW	07H
	DW	04H
	DW	01H
	DW	01bH
	DW	0cH
	DW	08H
	DW	0cH
	DW	06H
	DW	03H
	DW	01H
	DW	00H
?mp3_huffbits_12@@3QBEB DB 04H				; mp3_huffbits_12
	DB	03H
	DB	05H
	DB	07H
	DB	08H
	DB	09H
	DB	09H
	DB	09H
	DB	03H
	DB	03H
	DB	04H
	DB	05H
	DB	07H
	DB	07H
	DB	08H
	DB	08H
	DB	05H
	DB	04H
	DB	05H
	DB	06H
	DB	07H
	DB	08H
	DB	07H
	DB	08H
	DB	06H
	DB	05H
	DB	06H
	DB	06H
	DB	07H
	DB	08H
	DB	08H
	DB	08H
	DB	07H
	DB	06H
	DB	07H
	DB	07H
	DB	08H
	DB	08H
	DB	08H
	DB	09H
	DB	08H
	DB	07H
	DB	08H
	DB	08H
	DB	08H
	DB	09H
	DB	08H
	DB	09H
	DB	08H
	DB	07H
	DB	07H
	DB	08H
	DB	08H
	DB	09H
	DB	09H
	DB	0aH
	DB	09H
	DB	08H
	DB	08H
	DB	09H
	DB	09H
	DB	09H
	DB	09H
	DB	0aH
?mp3_huffcodes_13@@3QBGB DW 01H				; mp3_huffcodes_13
	DW	05H
	DW	0eH
	DW	015H
	DW	022H
	DW	033H
	DW	02eH
	DW	047H
	DW	02aH
	DW	034H
	DW	044H
	DW	034H
	DW	043H
	DW	02cH
	DW	02bH
	DW	013H
	DW	03H
	DW	04H
	DW	0cH
	DW	013H
	DW	01fH
	DW	01aH
	DW	02cH
	DW	021H
	DW	01fH
	DW	018H
	DW	020H
	DW	018H
	DW	01fH
	DW	023H
	DW	016H
	DW	0eH
	DW	0fH
	DW	0dH
	DW	017H
	DW	024H
	DW	03bH
	DW	031H
	DW	04dH
	DW	041H
	DW	01dH
	DW	028H
	DW	01eH
	DW	028H
	DW	01bH
	DW	021H
	DW	02aH
	DW	010H
	DW	016H
	DW	014H
	DW	025H
	DW	03dH
	DW	038H
	DW	04fH
	DW	049H
	DW	040H
	DW	02bH
	DW	04cH
	DW	038H
	DW	025H
	DW	01aH
	DW	01fH
	DW	019H
	DW	0eH
	DW	023H
	DW	010H
	DW	03cH
	DW	039H
	DW	061H
	DW	04bH
	DW	072H
	DW	05bH
	DW	036H
	DW	049H
	DW	037H
	DW	029H
	DW	030H
	DW	035H
	DW	017H
	DW	018H
	DW	03aH
	DW	01bH
	DW	032H
	DW	060H
	DW	04cH
	DW	046H
	DW	05dH
	DW	054H
	DW	04dH
	DW	03aH
	DW	04fH
	DW	01dH
	DW	04aH
	DW	031H
	DW	029H
	DW	011H
	DW	02fH
	DW	02dH
	DW	04eH
	DW	04aH
	DW	073H
	DW	05eH
	DW	05aH
	DW	04fH
	DW	045H
	DW	053H
	DW	047H
	DW	032H
	DW	03bH
	DW	026H
	DW	024H
	DW	0fH
	DW	048H
	DW	022H
	DW	038H
	DW	05fH
	DW	05cH
	DW	055H
	DW	05bH
	DW	05aH
	DW	056H
	DW	049H
	DW	04dH
	DW	041H
	DW	033H
	DW	02cH
	DW	02bH
	DW	02aH
	DW	02bH
	DW	014H
	DW	01eH
	DW	02cH
	DW	037H
	DW	04eH
	DW	048H
	DW	057H
	DW	04eH
	DW	03dH
	DW	02eH
	DW	036H
	DW	025H
	DW	01eH
	DW	014H
	DW	010H
	DW	035H
	DW	019H
	DW	029H
	DW	025H
	DW	02cH
	DW	03bH
	DW	036H
	DW	051H
	DW	042H
	DW	04cH
	DW	039H
	DW	036H
	DW	025H
	DW	012H
	DW	027H
	DW	0bH
	DW	023H
	DW	021H
	DW	01fH
	DW	039H
	DW	02aH
	DW	052H
	DW	048H
	DW	050H
	DW	02fH
	DW	03aH
	DW	037H
	DW	015H
	DW	016H
	DW	01aH
	DW	026H
	DW	016H
	DW	035H
	DW	019H
	DW	017H
	DW	026H
	DW	046H
	DW	03cH
	DW	033H
	DW	024H
	DW	037H
	DW	01aH
	DW	022H
	DW	017H
	DW	01bH
	DW	0eH
	DW	09H
	DW	07H
	DW	022H
	DW	020H
	DW	01cH
	DW	027H
	DW	031H
	DW	04bH
	DW	01eH
	DW	034H
	DW	030H
	DW	028H
	DW	034H
	DW	01cH
	DW	012H
	DW	011H
	DW	09H
	DW	05H
	DW	02dH
	DW	015H
	DW	022H
	DW	040H
	DW	038H
	DW	032H
	DW	031H
	DW	02dH
	DW	01fH
	DW	013H
	DW	0cH
	DW	0fH
	DW	0aH
	DW	07H
	DW	06H
	DW	03H
	DW	030H
	DW	017H
	DW	014H
	DW	027H
	DW	024H
	DW	023H
	DW	035H
	DW	015H
	DW	010H
	DW	017H
	DW	0dH
	DW	0aH
	DW	06H
	DW	01H
	DW	04H
	DW	02H
	DW	010H
	DW	0fH
	DW	011H
	DW	01bH
	DW	019H
	DW	014H
	DW	01dH
	DW	0bH
	DW	011H
	DW	0cH
	DW	010H
	DW	08H
	DW	01H
	DW	01H
	DW	00H
	DW	01H
?mp3_huffbits_13@@3QBEB DB 01H				; mp3_huffbits_13
	DB	04H
	DB	06H
	DB	07H
	DB	08H
	DB	09H
	DB	09H
	DB	0aH
	DB	09H
	DB	0aH
	DB	0bH
	DB	0bH
	DB	0cH
	DB	0cH
	DB	0dH
	DB	0dH
	DB	03H
	DB	04H
	DB	06H
	DB	07H
	DB	08H
	DB	08H
	DB	09H
	DB	09H
	DB	09H
	DB	09H
	DB	0aH
	DB	0aH
	DB	0bH
	DB	0cH
	DB	0cH
	DB	0cH
	DB	06H
	DB	06H
	DB	07H
	DB	08H
	DB	09H
	DB	09H
	DB	0aH
	DB	0aH
	DB	09H
	DB	0aH
	DB	0aH
	DB	0bH
	DB	0bH
	DB	0cH
	DB	0dH
	DB	0dH
	DB	07H
	DB	07H
	DB	08H
	DB	09H
	DB	09H
	DB	0aH
	DB	0aH
	DB	0aH
	DB	0aH
	DB	0bH
	DB	0bH
	DB	0bH
	DB	0bH
	DB	0cH
	DB	0dH
	DB	0dH
	DB	08H
	DB	07H
	DB	09H
	DB	09H
	DB	0aH
	DB	0aH
	DB	0bH
	DB	0bH
	DB	0aH
	DB	0bH
	DB	0bH
	DB	0cH
	DB	0cH
	DB	0dH
	DB	0dH
	DB	0eH
	DB	09H
	DB	08H
	DB	09H
	DB	0aH
	DB	0aH
	DB	0aH
	DB	0bH
	DB	0bH
	DB	0bH
	DB	0bH
	DB	0cH
	DB	0bH
	DB	0dH
	DB	0dH
	DB	0eH
	DB	0eH
	DB	09H
	DB	09H
	DB	0aH
	DB	0aH
	DB	0bH
	DB	0bH
	DB	0bH
	DB	0bH
	DB	0bH
	DB	0cH
	DB	0cH
	DB	0cH
	DB	0dH
	DB	0dH
	DB	0eH
	DB	0eH
	DB	0aH
	DB	09H
	DB	0aH
	DB	0bH
	DB	0bH
	DB	0bH
	DB	0cH
	DB	0cH
	DB	0cH
	DB	0cH
	DB	0dH
	DB	0dH
	DB	0dH
	DB	0eH
	DB	010H
	DB	010H
	DB	09H
	DB	08H
	DB	09H
	DB	0aH
	DB	0aH
	DB	0bH
	DB	0bH
	DB	0cH
	DB	0cH
	DB	0cH
	DB	0cH
	DB	0dH
	DB	0dH
	DB	0eH
	DB	0fH
	DB	0fH
	DB	0aH
	DB	09H
	DB	0aH
	DB	0aH
	DB	0bH
	DB	0bH
	DB	0bH
	DB	0dH
	DB	0cH
	DB	0dH
	DB	0dH
	DB	0eH
	DB	0eH
	DB	0eH
	DB	010H
	DB	0fH
	DB	0aH
	DB	0aH
	DB	0aH
	DB	0bH
	DB	0bH
	DB	0cH
	DB	0cH
	DB	0dH
	DB	0cH
	DB	0dH
	DB	0eH
	DB	0dH
	DB	0eH
	DB	0fH
	DB	010H
	DB	011H
	DB	0bH
	DB	0aH
	DB	0aH
	DB	0bH
	DB	0cH
	DB	0cH
	DB	0cH
	DB	0cH
	DB	0dH
	DB	0dH
	DB	0dH
	DB	0eH
	DB	0fH
	DB	0fH
	DB	0fH
	DB	010H
	DB	0bH
	DB	0bH
	DB	0bH
	DB	0cH
	DB	0cH
	DB	0dH
	DB	0cH
	DB	0dH
	DB	0eH
	DB	0eH
	DB	0fH
	DB	0fH
	DB	0fH
	DB	010H
	DB	010H
	DB	010H
	DB	0cH
	DB	0bH
	DB	0cH
	DB	0dH
	DB	0dH
	DB	0dH
	DB	0eH
	DB	0eH
	DB	0eH
	DB	0eH
	DB	0eH
	DB	0fH
	DB	010H
	DB	0fH
	DB	010H
	DB	010H
	DB	0dH
	DB	0cH
	DB	0cH
	DB	0dH
	DB	0dH
	DB	0dH
	DB	0fH
	DB	0eH
	DB	0eH
	DB	011H
	DB	0fH
	DB	0fH
	DB	0fH
	DB	011H
	DB	010H
	DB	010H
	DB	0cH
	DB	0cH
	DB	0dH
	DB	0eH
	DB	0eH
	DB	0eH
	DB	0fH
	DB	0eH
	DB	0fH
	DB	0fH
	DB	010H
	DB	010H
	DB	013H
	DB	012H
	DB	013H
	DB	010H
?mp3_huffcodes_15@@3QBGB DW 07H				; mp3_huffcodes_15
	DW	0cH
	DW	012H
	DW	035H
	DW	02fH
	DW	04cH
	DW	07cH
	DW	06cH
	DW	059H
	DW	07bH
	DW	06cH
	DW	077H
	DW	06bH
	DW	051H
	DW	07aH
	DW	03fH
	DW	0dH
	DW	05H
	DW	010H
	DW	01bH
	DW	02eH
	DW	024H
	DW	03dH
	DW	033H
	DW	02aH
	DW	046H
	DW	034H
	DW	053H
	DW	041H
	DW	029H
	DW	03bH
	DW	024H
	DW	013H
	DW	011H
	DW	0fH
	DW	018H
	DW	029H
	DW	022H
	DW	03bH
	DW	030H
	DW	028H
	DW	040H
	DW	032H
	DW	04eH
	DW	03eH
	DW	050H
	DW	038H
	DW	021H
	DW	01dH
	DW	01cH
	DW	019H
	DW	02bH
	DW	027H
	DW	03fH
	DW	037H
	DW	05dH
	DW	04cH
	DW	03bH
	DW	05dH
	DW	048H
	DW	036H
	DW	04bH
	DW	032H
	DW	01dH
	DW	034H
	DW	016H
	DW	02aH
	DW	028H
	DW	043H
	DW	039H
	DW	05fH
	DW	04fH
	DW	048H
	DW	039H
	DW	059H
	DW	045H
	DW	031H
	DW	042H
	DW	02eH
	DW	01bH
	DW	04dH
	DW	025H
	DW	023H
	DW	042H
	DW	03aH
	DW	034H
	DW	05bH
	DW	04aH
	DW	03eH
	DW	030H
	DW	04fH
	DW	03fH
	DW	05aH
	DW	03eH
	DW	028H
	DW	026H
	DW	07dH
	DW	020H
	DW	03cH
	DW	038H
	DW	032H
	DW	05cH
	DW	04eH
	DW	041H
	DW	037H
	DW	057H
	DW	047H
	DW	033H
	DW	049H
	DW	033H
	DW	046H
	DW	01eH
	DW	06dH
	DW	035H
	DW	031H
	DW	05eH
	DW	058H
	DW	04bH
	DW	042H
	DW	07aH
	DW	05bH
	DW	049H
	DW	038H
	DW	02aH
	DW	040H
	DW	02cH
	DW	015H
	DW	019H
	DW	05aH
	DW	02bH
	DW	029H
	DW	04dH
	DW	049H
	DW	03fH
	DW	038H
	DW	05cH
	DW	04dH
	DW	042H
	DW	02fH
	DW	043H
	DW	030H
	DW	035H
	DW	024H
	DW	014H
	DW	047H
	DW	022H
	DW	043H
	DW	03cH
	DW	03aH
	DW	031H
	DW	058H
	DW	04cH
	DW	043H
	DW	06aH
	DW	047H
	DW	036H
	DW	026H
	DW	027H
	DW	017H
	DW	0fH
	DW	06dH
	DW	035H
	DW	033H
	DW	02fH
	DW	05aH
	DW	052H
	DW	03aH
	DW	039H
	DW	030H
	DW	048H
	DW	039H
	DW	029H
	DW	017H
	DW	01bH
	DW	03eH
	DW	09H
	DW	056H
	DW	02aH
	DW	028H
	DW	025H
	DW	046H
	DW	040H
	DW	034H
	DW	02bH
	DW	046H
	DW	037H
	DW	02aH
	DW	019H
	DW	01dH
	DW	012H
	DW	0bH
	DW	0bH
	DW	076H
	DW	044H
	DW	01eH
	DW	037H
	DW	032H
	DW	02eH
	DW	04aH
	DW	041H
	DW	031H
	DW	027H
	DW	018H
	DW	010H
	DW	016H
	DW	0dH
	DW	0eH
	DW	07H
	DW	05bH
	DW	02cH
	DW	027H
	DW	026H
	DW	022H
	DW	03fH
	DW	034H
	DW	02dH
	DW	01fH
	DW	034H
	DW	01cH
	DW	013H
	DW	0eH
	DW	08H
	DW	09H
	DW	03H
	DW	07bH
	DW	03cH
	DW	03aH
	DW	035H
	DW	02fH
	DW	02bH
	DW	020H
	DW	016H
	DW	025H
	DW	018H
	DW	011H
	DW	0cH
	DW	0fH
	DW	0aH
	DW	02H
	DW	01H
	DW	047H
	DW	025H
	DW	022H
	DW	01eH
	DW	01cH
	DW	014H
	DW	011H
	DW	01aH
	DW	015H
	DW	010H
	DW	0aH
	DW	06H
	DW	08H
	DW	06H
	DW	02H
	DW	00H
?mp3_huffbits_15@@3QBEB DB 03H				; mp3_huffbits_15
	DB	04H
	DB	05H
	DB	07H
	DB	07H
	DB	08H
	DB	09H
	DB	09H
	DB	09H
	DB	0aH
	DB	0aH
	DB	0bH
	DB	0bH
	DB	0bH
	DB	0cH
	DB	0dH
	DB	04H
	DB	03H
	DB	05H
	DB	06H
	DB	07H
	DB	07H
	DB	08H
	DB	08H
	DB	08H
	DB	09H
	DB	09H
	DB	0aH
	DB	0aH
	DB	0aH
	DB	0bH
	DB	0bH
	DB	05H
	DB	05H
	DB	05H
	DB	06H
	DB	07H
	DB	07H
	DB	08H
	DB	08H
	DB	08H
	DB	09H
	DB	09H
	DB	0aH
	DB	0aH
	DB	0bH
	DB	0bH
	DB	0bH
	DB	06H
	DB	06H
	DB	06H
	DB	07H
	DB	07H
	DB	08H
	DB	08H
	DB	09H
	DB	09H
	DB	09H
	DB	0aH
	DB	0aH
	DB	0aH
	DB	0bH
	DB	0bH
	DB	0bH
	DB	07H
	DB	06H
	DB	07H
	DB	07H
	DB	08H
	DB	08H
	DB	09H
	DB	09H
	DB	09H
	DB	09H
	DB	0aH
	DB	0aH
	DB	0aH
	DB	0bH
	DB	0bH
	DB	0bH
	DB	08H
	DB	07H
	DB	07H
	DB	08H
	DB	08H
	DB	08H
	DB	09H
	DB	09H
	DB	09H
	DB	09H
	DB	0aH
	DB	0aH
	DB	0bH
	DB	0bH
	DB	0bH
	DB	0cH
	DB	09H
	DB	07H
	DB	08H
	DB	08H
	DB	08H
	DB	09H
	DB	09H
	DB	09H
	DB	09H
	DB	0aH
	DB	0aH
	DB	0aH
	DB	0bH
	DB	0bH
	DB	0cH
	DB	0cH
	DB	09H
	DB	08H
	DB	08H
	DB	09H
	DB	09H
	DB	09H
	DB	09H
	DB	0aH
	DB	0aH
	DB	0aH
	DB	0aH
	DB	0aH
	DB	0bH
	DB	0bH
	DB	0bH
	DB	0cH
	DB	09H
	DB	08H
	DB	08H
	DB	09H
	DB	09H
	DB	09H
	DB	09H
	DB	0aH
	DB	0aH
	DB	0aH
	DB	0aH
	DB	0bH
	DB	0bH
	DB	0cH
	DB	0cH
	DB	0cH
	DB	09H
	DB	08H
	DB	09H
	DB	09H
	DB	09H
	DB	09H
	DB	0aH
	DB	0aH
	DB	0aH
	DB	0bH
	DB	0bH
	DB	0bH
	DB	0bH
	DB	0cH
	DB	0cH
	DB	0cH
	DB	0aH
	DB	09H
	DB	09H
	DB	09H
	DB	0aH
	DB	0aH
	DB	0aH
	DB	0aH
	DB	0aH
	DB	0bH
	DB	0bH
	DB	0bH
	DB	0bH
	DB	0cH
	DB	0dH
	DB	0cH
	DB	0aH
	DB	09H
	DB	09H
	DB	09H
	DB	0aH
	DB	0aH
	DB	0aH
	DB	0aH
	DB	0bH
	DB	0bH
	DB	0bH
	DB	0bH
	DB	0cH
	DB	0cH
	DB	0cH
	DB	0dH
	DB	0bH
	DB	0aH
	DB	09H
	DB	0aH
	DB	0aH
	DB	0aH
	DB	0bH
	DB	0bH
	DB	0bH
	DB	0bH
	DB	0bH
	DB	0bH
	DB	0cH
	DB	0cH
	DB	0dH
	DB	0dH
	DB	0bH
	DB	0aH
	DB	0aH
	DB	0aH
	DB	0aH
	DB	0bH
	DB	0bH
	DB	0bH
	DB	0bH
	DB	0cH
	DB	0cH
	DB	0cH
	DB	0cH
	DB	0cH
	DB	0dH
	DB	0dH
	DB	0cH
	DB	0bH
	DB	0bH
	DB	0bH
	DB	0bH
	DB	0bH
	DB	0bH
	DB	0bH
	DB	0cH
	DB	0cH
	DB	0cH
	DB	0cH
	DB	0dH
	DB	0dH
	DB	0cH
	DB	0dH
	DB	0cH
	DB	0bH
	DB	0bH
	DB	0bH
	DB	0bH
	DB	0bH
	DB	0bH
	DB	0cH
	DB	0cH
	DB	0cH
	DB	0cH
	DB	0cH
	DB	0dH
	DB	0dH
	DB	0dH
	DB	0dH
?mp3_huffcodes_16@@3QBGB DW 01H				; mp3_huffcodes_16
	DW	05H
	DW	0eH
	DW	02cH
	DW	04aH
	DW	03fH
	DW	06eH
	DW	05dH
	DW	0acH
	DW	095H
	DW	08aH
	DW	0f2H
	DW	0e1H
	DW	0c3H
	DW	0178H
	DW	011H
	DW	03H
	DW	04H
	DW	0cH
	DW	014H
	DW	023H
	DW	03eH
	DW	035H
	DW	02fH
	DW	053H
	DW	04bH
	DW	044H
	DW	077H
	DW	0c9H
	DW	06bH
	DW	0cfH
	DW	09H
	DW	0fH
	DW	0dH
	DW	017H
	DW	026H
	DW	043H
	DW	03aH
	DW	067H
	DW	05aH
	DW	0a1H
	DW	048H
	DW	07fH
	DW	075H
	DW	06eH
	DW	0d1H
	DW	0ceH
	DW	010H
	DW	02dH
	DW	015H
	DW	027H
	DW	045H
	DW	040H
	DW	072H
	DW	063H
	DW	057H
	DW	09eH
	DW	08cH
	DW	0fcH
	DW	0d4H
	DW	0c7H
	DW	0183H
	DW	016dH
	DW	01aH
	DW	04bH
	DW	024H
	DW	044H
	DW	041H
	DW	073H
	DW	065H
	DW	0b3H
	DW	0a4H
	DW	09bH
	DW	0108H
	DW	0f6H
	DW	0e2H
	DW	018bH
	DW	017eH
	DW	016aH
	DW	09H
	DW	042H
	DW	01eH
	DW	03bH
	DW	038H
	DW	066H
	DW	0b9H
	DW	0adH
	DW	0109H
	DW	08eH
	DW	0fdH
	DW	0e8H
	DW	0190H
	DW	0184H
	DW	017aH
	DW	01bdH
	DW	010H
	DW	06fH
	DW	036H
	DW	034H
	DW	064H
	DW	0b8H
	DW	0b2H
	DW	0a0H
	DW	085H
	DW	0101H
	DW	0f4H
	DW	0e4H
	DW	0d9H
	DW	0181H
	DW	016eH
	DW	02cbH
	DW	0aH
	DW	062H
	DW	030H
	DW	05bH
	DW	058H
	DW	0a5H
	DW	09dH
	DW	094H
	DW	0105H
	DW	0f8H
	DW	0197H
	DW	018dH
	DW	0174H
	DW	017cH
	DW	0379H
	DW	0374H
	DW	08H
	DW	055H
	DW	054H
	DW	051H
	DW	09fH
	DW	09cH
	DW	08fH
	DW	0104H
	DW	0f9H
	DW	01abH
	DW	0191H
	DW	0188H
	DW	017fH
	DW	02d7H
	DW	02c9H
	DW	02c4H
	DW	07H
	DW	09aH
	DW	04cH
	DW	049H
	DW	08dH
	DW	083H
	DW	0100H
	DW	0f5H
	DW	01aaH
	DW	0196H
	DW	018aH
	DW	0180H
	DW	02dfH
	DW	0167H
	DW	02c6H
	DW	0160H
	DW	0bH
	DW	08bH
	DW	081H
	DW	043H
	DW	07dH
	DW	0f7H
	DW	0e9H
	DW	0e5H
	DW	0dbH
	DW	0189H
	DW	02e7H
	DW	02e1H
	DW	02d0H
	DW	0375H
	DW	0372H
	DW	01b7H
	DW	04H
	DW	0f3H
	DW	078H
	DW	076H
	DW	073H
	DW	0e3H
	DW	0dfH
	DW	018cH
	DW	02eaH
	DW	02e6H
	DW	02e0H
	DW	02d1H
	DW	02c8H
	DW	02c2H
	DW	0dfH
	DW	01b4H
	DW	06H
	DW	0caH
	DW	0e0H
	DW	0deH
	DW	0daH
	DW	0d8H
	DW	0185H
	DW	0182H
	DW	017dH
	DW	016cH
	DW	0378H
	DW	01bbH
	DW	02c3H
	DW	01b8H
	DW	01b5H
	DW	06c0H
	DW	04H
	DW	02ebH
	DW	0d3H
	DW	0d2H
	DW	0d0H
	DW	0172H
	DW	017bH
	DW	02deH
	DW	02d3H
	DW	02caH
	DW	06c7H
	DW	0373H
	DW	036dH
	DW	036cH
	DW	0d83H
	DW	0361H
	DW	02H
	DW	0179H
	DW	0171H
	DW	066H
	DW	0bbH
	DW	02d6H
	DW	02d2H
	DW	0166H
	DW	02c7H
	DW	02c5H
	DW	0362H
	DW	06c6H
	DW	0367H
	DW	0d82H
	DW	0366H
	DW	01b2H
	DW	00H
	DW	0cH
	DW	0aH
	DW	07H
	DW	0bH
	DW	0aH
	DW	011H
	DW	0bH
	DW	09H
	DW	0dH
	DW	0cH
	DW	0aH
	DW	07H
	DW	05H
	DW	03H
	DW	01H
	DW	03H
?mp3_huffbits_16@@3QBEB DB 01H				; mp3_huffbits_16
	DB	04H
	DB	06H
	DB	08H
	DB	09H
	DB	09H
	DB	0aH
	DB	0aH
	DB	0bH
	DB	0bH
	DB	0bH
	DB	0cH
	DB	0cH
	DB	0cH
	DB	0dH
	DB	09H
	DB	03H
	DB	04H
	DB	06H
	DB	07H
	DB	08H
	DB	09H
	DB	09H
	DB	09H
	DB	0aH
	DB	0aH
	DB	0aH
	DB	0bH
	DB	0cH
	DB	0bH
	DB	0cH
	DB	08H
	DB	06H
	DB	06H
	DB	07H
	DB	08H
	DB	09H
	DB	09H
	DB	0aH
	DB	0aH
	DB	0bH
	DB	0aH
	DB	0bH
	DB	0bH
	DB	0bH
	DB	0cH
	DB	0cH
	DB	09H
	DB	08H
	DB	07H
	DB	08H
	DB	09H
	DB	09H
	DB	0aH
	DB	0aH
	DB	0aH
	DB	0bH
	DB	0bH
	DB	0cH
	DB	0cH
	DB	0cH
	DB	0dH
	DB	0dH
	DB	0aH
	DB	09H
	DB	08H
	DB	09H
	DB	09H
	DB	0aH
	DB	0aH
	DB	0bH
	DB	0bH
	DB	0bH
	DB	0cH
	DB	0cH
	DB	0cH
	DB	0dH
	DB	0dH
	DB	0dH
	DB	09H
	DB	09H
	DB	08H
	DB	09H
	DB	09H
	DB	0aH
	DB	0bH
	DB	0bH
	DB	0cH
	DB	0bH
	DB	0cH
	DB	0cH
	DB	0dH
	DB	0dH
	DB	0dH
	DB	0eH
	DB	0aH
	DB	0aH
	DB	09H
	DB	09H
	DB	0aH
	DB	0bH
	DB	0bH
	DB	0bH
	DB	0bH
	DB	0cH
	DB	0cH
	DB	0cH
	DB	0cH
	DB	0dH
	DB	0dH
	DB	0eH
	DB	0aH
	DB	0aH
	DB	09H
	DB	0aH
	DB	0aH
	DB	0bH
	DB	0bH
	DB	0bH
	DB	0cH
	DB	0cH
	DB	0dH
	DB	0dH
	DB	0dH
	DB	0dH
	DB	0fH
	DB	0fH
	DB	0aH
	DB	0aH
	DB	0aH
	DB	0aH
	DB	0bH
	DB	0bH
	DB	0bH
	DB	0cH
	DB	0cH
	DB	0dH
	DB	0dH
	DB	0dH
	DB	0dH
	DB	0eH
	DB	0eH
	DB	0eH
	DB	0aH
	DB	0bH
	DB	0aH
	DB	0aH
	DB	0bH
	DB	0bH
	DB	0cH
	DB	0cH
	DB	0dH
	DB	0dH
	DB	0dH
	DB	0dH
	DB	0eH
	DB	0dH
	DB	0eH
	DB	0dH
	DB	0bH
	DB	0bH
	DB	0bH
	DB	0aH
	DB	0bH
	DB	0cH
	DB	0cH
	DB	0cH
	DB	0cH
	DB	0dH
	DB	0eH
	DB	0eH
	DB	0eH
	DB	0fH
	DB	0fH
	DB	0eH
	DB	0aH
	DB	0cH
	DB	0bH
	DB	0bH
	DB	0bH
	DB	0cH
	DB	0cH
	DB	0dH
	DB	0eH
	DB	0eH
	DB	0eH
	DB	0eH
	DB	0eH
	DB	0eH
	DB	0dH
	DB	0eH
	DB	0bH
	DB	0cH
	DB	0cH
	DB	0cH
	DB	0cH
	DB	0cH
	DB	0dH
	DB	0dH
	DB	0dH
	DB	0dH
	DB	0fH
	DB	0eH
	DB	0eH
	DB	0eH
	DB	0eH
	DB	010H
	DB	0bH
	DB	0eH
	DB	0cH
	DB	0cH
	DB	0cH
	DB	0dH
	DB	0dH
	DB	0eH
	DB	0eH
	DB	0eH
	DB	010H
	DB	0fH
	DB	0fH
	DB	0fH
	DB	011H
	DB	0fH
	DB	0bH
	DB	0dH
	DB	0dH
	DB	0bH
	DB	0cH
	DB	0eH
	DB	0eH
	DB	0dH
	DB	0eH
	DB	0eH
	DB	0fH
	DB	010H
	DB	0fH
	DB	011H
	DB	0fH
	DB	0eH
	DB	0bH
	DB	09H
	DB	08H
	DB	08H
	DB	09H
	DB	09H
	DB	0aH
	DB	0aH
	DB	0aH
	DB	0bH
	DB	0bH
	DB	0bH
	DB	0bH
	DB	0bH
	DB	0bH
	DB	0bH
	DB	08H
?mp3_huffcodes_24@@3QBGB DW 0fH				; mp3_huffcodes_24
	DW	0dH
	DW	02eH
	DW	050H
	DW	092H
	DW	0106H
	DW	0f8H
	DW	01b2H
	DW	01aaH
	DW	029dH
	DW	028dH
	DW	0289H
	DW	026dH
	DW	0205H
	DW	0408H
	DW	058H
	DW	0eH
	DW	0cH
	DW	015H
	DW	026H
	DW	047H
	DW	082H
	DW	07aH
	DW	0d8H
	DW	0d1H
	DW	0c6H
	DW	0147H
	DW	0159H
	DW	013fH
	DW	0129H
	DW	0117H
	DW	02aH
	DW	02fH
	DW	016H
	DW	029H
	DW	04aH
	DW	044H
	DW	080H
	DW	078H
	DW	0ddH
	DW	0cfH
	DW	0c2H
	DW	0b6H
	DW	0154H
	DW	013bH
	DW	0127H
	DW	021dH
	DW	012H
	DW	051H
	DW	027H
	DW	04bH
	DW	046H
	DW	086H
	DW	07dH
	DW	074H
	DW	0dcH
	DW	0ccH
	DW	0beH
	DW	0b2H
	DW	0145H
	DW	0137H
	DW	0125H
	DW	010fH
	DW	010H
	DW	093H
	DW	048H
	DW	045H
	DW	087H
	DW	07fH
	DW	076H
	DW	070H
	DW	0d2H
	DW	0c8H
	DW	0bcH
	DW	0160H
	DW	0143H
	DW	0132H
	DW	011dH
	DW	021cH
	DW	0eH
	DW	0107H
	DW	042H
	DW	081H
	DW	07eH
	DW	077H
	DW	072H
	DW	0d6H
	DW	0caH
	DW	0c0H
	DW	0b4H
	DW	0155H
	DW	013dH
	DW	012dH
	DW	0119H
	DW	0106H
	DW	0cH
	DW	0f9H
	DW	07bH
	DW	079H
	DW	075H
	DW	071H
	DW	0d7H
	DW	0ceH
	DW	0c3H
	DW	0b9H
	DW	015bH
	DW	014aH
	DW	0134H
	DW	0123H
	DW	0110H
	DW	0208H
	DW	0aH
	DW	01b3H
	DW	073H
	DW	06fH
	DW	06dH
	DW	0d3H
	DW	0cbH
	DW	0c4H
	DW	0bbH
	DW	0161H
	DW	014cH
	DW	0139H
	DW	012aH
	DW	011bH
	DW	0213H
	DW	017dH
	DW	011H
	DW	01abH
	DW	0d4H
	DW	0d0H
	DW	0cdH
	DW	0c9H
	DW	0c1H
	DW	0baH
	DW	0b1H
	DW	0a9H
	DW	0140H
	DW	012fH
	DW	011eH
	DW	010cH
	DW	0202H
	DW	0179H
	DW	010H
	DW	014fH
	DW	0c7H
	DW	0c5H
	DW	0bfH
	DW	0bdH
	DW	0b5H
	DW	0aeH
	DW	014dH
	DW	0141H
	DW	0131H
	DW	0121H
	DW	0113H
	DW	0209H
	DW	017bH
	DW	0173H
	DW	0bH
	DW	029cH
	DW	0b8H
	DW	0b7H
	DW	0b3H
	DW	0afH
	DW	0158H
	DW	014bH
	DW	013aH
	DW	0130H
	DW	0122H
	DW	0115H
	DW	0212H
	DW	017fH
	DW	0175H
	DW	016eH
	DW	0aH
	DW	028cH
	DW	015aH
	DW	0abH
	DW	0a8H
	DW	0a4H
	DW	013eH
	DW	0135H
	DW	012bH
	DW	011fH
	DW	0114H
	DW	0107H
	DW	0201H
	DW	0177H
	DW	0170H
	DW	016aH
	DW	06H
	DW	0288H
	DW	0142H
	DW	013cH
	DW	0138H
	DW	0133H
	DW	012eH
	DW	0124H
	DW	011cH
	DW	010dH
	DW	0105H
	DW	0200H
	DW	0178H
	DW	0172H
	DW	016cH
	DW	0167H
	DW	04H
	DW	026cH
	DW	012cH
	DW	0128H
	DW	0126H
	DW	0120H
	DW	011aH
	DW	0111H
	DW	010aH
	DW	0203H
	DW	017cH
	DW	0176H
	DW	0171H
	DW	016dH
	DW	0169H
	DW	0165H
	DW	02H
	DW	0409H
	DW	0118H
	DW	0116H
	DW	0112H
	DW	010bH
	DW	0108H
	DW	0103H
	DW	017eH
	DW	017aH
	DW	0174H
	DW	016fH
	DW	016bH
	DW	0168H
	DW	0166H
	DW	0164H
	DW	00H
	DW	02bH
	DW	014H
	DW	013H
	DW	011H
	DW	0fH
	DW	0dH
	DW	0bH
	DW	09H
	DW	07H
	DW	06H
	DW	04H
	DW	07H
	DW	05H
	DW	03H
	DW	01H
	DW	03H
?mp3_huffbits_24@@3QBEB DB 04H				; mp3_huffbits_24
	DB	04H
	DB	06H
	DB	07H
	DB	08H
	DB	09H
	DB	09H
	DB	0aH
	DB	0aH
	DB	0bH
	DB	0bH
	DB	0bH
	DB	0bH
	DB	0bH
	DB	0cH
	DB	09H
	DB	04H
	DB	04H
	DB	05H
	DB	06H
	DB	07H
	DB	08H
	DB	08H
	DB	09H
	DB	09H
	DB	09H
	DB	0aH
	DB	0aH
	DB	0aH
	DB	0aH
	DB	0aH
	DB	08H
	DB	06H
	DB	05H
	DB	06H
	DB	07H
	DB	07H
	DB	08H
	DB	08H
	DB	09H
	DB	09H
	DB	09H
	DB	09H
	DB	0aH
	DB	0aH
	DB	0aH
	DB	0bH
	DB	07H
	DB	07H
	DB	06H
	DB	07H
	DB	07H
	DB	08H
	DB	08H
	DB	08H
	DB	09H
	DB	09H
	DB	09H
	DB	09H
	DB	0aH
	DB	0aH
	DB	0aH
	DB	0aH
	DB	07H
	DB	08H
	DB	07H
	DB	07H
	DB	08H
	DB	08H
	DB	08H
	DB	08H
	DB	09H
	DB	09H
	DB	09H
	DB	0aH
	DB	0aH
	DB	0aH
	DB	0aH
	DB	0bH
	DB	07H
	DB	09H
	DB	07H
	DB	08H
	DB	08H
	DB	08H
	DB	08H
	DB	09H
	DB	09H
	DB	09H
	DB	09H
	DB	0aH
	DB	0aH
	DB	0aH
	DB	0aH
	DB	0aH
	DB	07H
	DB	09H
	DB	08H
	DB	08H
	DB	08H
	DB	08H
	DB	09H
	DB	09H
	DB	09H
	DB	09H
	DB	0aH
	DB	0aH
	DB	0aH
	DB	0aH
	DB	0aH
	DB	0bH
	DB	07H
	DB	0aH
	DB	08H
	DB	08H
	DB	08H
	DB	09H
	DB	09H
	DB	09H
	DB	09H
	DB	0aH
	DB	0aH
	DB	0aH
	DB	0aH
	DB	0aH
	DB	0bH
	DB	0bH
	DB	08H
	DB	0aH
	DB	09H
	DB	09H
	DB	09H
	DB	09H
	DB	09H
	DB	09H
	DB	09H
	DB	09H
	DB	0aH
	DB	0aH
	DB	0aH
	DB	0aH
	DB	0bH
	DB	0bH
	DB	08H
	DB	0aH
	DB	09H
	DB	09H
	DB	09H
	DB	09H
	DB	09H
	DB	09H
	DB	0aH
	DB	0aH
	DB	0aH
	DB	0aH
	DB	0aH
	DB	0bH
	DB	0bH
	DB	0bH
	DB	08H
	DB	0bH
	DB	09H
	DB	09H
	DB	09H
	DB	09H
	DB	0aH
	DB	0aH
	DB	0aH
	DB	0aH
	DB	0aH
	DB	0aH
	DB	0bH
	DB	0bH
	DB	0bH
	DB	0bH
	DB	08H
	DB	0bH
	DB	0aH
	DB	09H
	DB	09H
	DB	09H
	DB	0aH
	DB	0aH
	DB	0aH
	DB	0aH
	DB	0aH
	DB	0aH
	DB	0bH
	DB	0bH
	DB	0bH
	DB	0bH
	DB	08H
	DB	0bH
	DB	0aH
	DB	0aH
	DB	0aH
	DB	0aH
	DB	0aH
	DB	0aH
	DB	0aH
	DB	0aH
	DB	0aH
	DB	0bH
	DB	0bH
	DB	0bH
	DB	0bH
	DB	0bH
	DB	08H
	DB	0bH
	DB	0aH
	DB	0aH
	DB	0aH
	DB	0aH
	DB	0aH
	DB	0aH
	DB	0aH
	DB	0bH
	DB	0bH
	DB	0bH
	DB	0bH
	DB	0bH
	DB	0bH
	DB	0bH
	DB	08H
	DB	0cH
	DB	0aH
	DB	0aH
	DB	0aH
	DB	0aH
	DB	0aH
	DB	0aH
	DB	0bH
	DB	0bH
	DB	0bH
	DB	0bH
	DB	0bH
	DB	0bH
	DB	0bH
	DB	0bH
	DB	08H
	DB	08H
	DB	07H
	DB	07H
	DB	07H
	DB	07H
	DB	07H
	DB	07H
	DB	07H
	DB	07H
	DB	07H
	DB	07H
	DB	08H
	DB	08H
	DB	08H
	DB	08H
	DB	04H
?mp3_huff_tables@@3QBU_huff_table@@B DD 01H		; mp3_huff_tables
	ORG $+4
	DQ	0000000000000000H
	DQ	0000000000000000H
	DD	02H
	ORG $+4
	DQ	FLAT:?mp3_huffbits_1@@3QBEB
	DQ	FLAT:?mp3_huffcodes_1@@3QBGB
	DD	03H
	ORG $+4
	DQ	FLAT:?mp3_huffbits_2@@3QBEB
	DQ	FLAT:?mp3_huffcodes_2@@3QBGB
	DD	03H
	ORG $+4
	DQ	FLAT:?mp3_huffbits_3@@3QBEB
	DQ	FLAT:?mp3_huffcodes_3@@3QBGB
	DD	04H
	ORG $+4
	DQ	FLAT:?mp3_huffbits_5@@3QBEB
	DQ	FLAT:?mp3_huffcodes_5@@3QBGB
	DD	04H
	ORG $+4
	DQ	FLAT:?mp3_huffbits_6@@3QBEB
	DQ	FLAT:?mp3_huffcodes_6@@3QBGB
	DD	06H
	ORG $+4
	DQ	FLAT:?mp3_huffbits_7@@3QBEB
	DQ	FLAT:?mp3_huffcodes_7@@3QBGB
	DD	06H
	ORG $+4
	DQ	FLAT:?mp3_huffbits_8@@3QBEB
	DQ	FLAT:?mp3_huffcodes_8@@3QBGB
	DD	06H
	ORG $+4
	DQ	FLAT:?mp3_huffbits_9@@3QBEB
	DQ	FLAT:?mp3_huffcodes_9@@3QBGB
	DD	08H
	ORG $+4
	DQ	FLAT:?mp3_huffbits_10@@3QBEB
	DQ	FLAT:?mp3_huffcodes_10@@3QBGB
	DD	08H
	ORG $+4
	DQ	FLAT:?mp3_huffbits_11@@3QBEB
	DQ	FLAT:?mp3_huffcodes_11@@3QBGB
	DD	08H
	ORG $+4
	DQ	FLAT:?mp3_huffbits_12@@3QBEB
	DQ	FLAT:?mp3_huffcodes_12@@3QBGB
	DD	010H
	ORG $+4
	DQ	FLAT:?mp3_huffbits_13@@3QBEB
	DQ	FLAT:?mp3_huffcodes_13@@3QBGB
	DD	010H
	ORG $+4
	DQ	FLAT:?mp3_huffbits_15@@3QBEB
	DQ	FLAT:?mp3_huffcodes_15@@3QBGB
	DD	010H
	ORG $+4
	DQ	FLAT:?mp3_huffbits_16@@3QBEB
	DQ	FLAT:?mp3_huffcodes_16@@3QBGB
	DD	010H
	ORG $+4
	DQ	FLAT:?mp3_huffbits_24@@3QBEB
	DQ	FLAT:?mp3_huffcodes_24@@3QBGB
?mp3_huff_data@@3QAY01$$CBEA DB 00H			; mp3_huff_data
	DB	00H
	DB	01H
	DB	00H
	DB	02H
	DB	00H
	DB	03H
	DB	00H
	DB	00H
	DB	00H
	DB	04H
	DB	00H
	DB	05H
	DB	00H
	DB	06H
	DB	00H
	DB	07H
	DB	00H
	DB	08H
	DB	00H
	DB	09H
	DB	00H
	DB	0aH
	DB	00H
	DB	0bH
	DB	00H
	DB	0cH
	DB	00H
	DB	00H
	DB	00H
	DB	0dH
	DB	00H
	DB	0eH
	DB	01H
	DB	0eH
	DB	02H
	DB	0eH
	DB	03H
	DB	0eH
	DB	04H
	DB	0eH
	DB	06H
	DB	0eH
	DB	08H
	DB	0eH
	DB	0aH
	DB	0eH
	DB	0dH
	DB	0fH
	DB	04H
	DB	0fH
	DB	05H
	DB	0fH
	DB	06H
	DB	0fH
	DB	07H
	DB	0fH
	DB	08H
	DB	0fH
	DB	09H
	DB	0fH
	DB	0bH
	DB	0fH
	DB	0dH
?mp3_quad_codes@@3QAY0BA@$$CBEA DB 01H			; mp3_quad_codes
	DB	05H
	DB	04H
	DB	05H
	DB	06H
	DB	05H
	DB	04H
	DB	04H
	DB	07H
	DB	03H
	DB	06H
	DB	00H
	DB	07H
	DB	02H
	DB	03H
	DB	01H
	DB	0fH
	DB	0eH
	DB	0dH
	DB	0cH
	DB	0bH
	DB	0aH
	DB	09H
	DB	08H
	DB	07H
	DB	06H
	DB	05H
	DB	04H
	DB	03H
	DB	02H
	DB	01H
	DB	00H
?mp3_quad_bits@@3QAY0BA@$$CBEA DB 01H			; mp3_quad_bits
	DB	04H
	DB	04H
	DB	05H
	DB	04H
	DB	06H
	DB	05H
	DB	06H
	DB	04H
	DB	05H
	DB	05H
	DB	06H
	DB	05H
	DB	06H
	DB	06H
	DB	06H
	DB	04H
	DB	04H
	DB	04H
	DB	04H
	DB	04H
	DB	04H
	DB	04H
	DB	04H
	DB	04H
	DB	04H
	DB	04H
	DB	04H
	DB	04H
	DB	04H
	DB	04H
	DB	04H
?band_size_long@@3QAY0BG@$$CBEA DB 04H			; band_size_long
	DB	04H
	DB	04H
	DB	04H
	DB	04H
	DB	04H
	DB	06H
	DB	06H
	DB	08H
	DB	08H
	DB	0aH
	DB	0cH
	DB	010H
	DB	014H
	DB	018H
	DB	01cH
	DB	022H
	DB	02aH
	DB	032H
	DB	036H
	DB	04cH
	DB	09eH
	DB	04H
	DB	04H
	DB	04H
	DB	04H
	DB	04H
	DB	04H
	DB	06H
	DB	06H
	DB	06H
	DB	08H
	DB	0aH
	DB	0cH
	DB	010H
	DB	012H
	DB	016H
	DB	01cH
	DB	022H
	DB	028H
	DB	02eH
	DB	036H
	DB	036H
	DB	0c0H
	DB	04H
	DB	04H
	DB	04H
	DB	04H
	DB	04H
	DB	04H
	DB	06H
	DB	06H
	DB	08H
	DB	0aH
	DB	0cH
	DB	010H
	DB	014H
	DB	018H
	DB	01eH
	DB	026H
	DB	02eH
	DB	038H
	DB	044H
	DB	054H
	DB	066H
	DB	01aH
	DB	06H
	DB	06H
	DB	06H
	DB	06H
	DB	06H
	DB	06H
	DB	08H
	DB	0aH
	DB	0cH
	DB	0eH
	DB	010H
	DB	014H
	DB	018H
	DB	01cH
	DB	020H
	DB	026H
	DB	02eH
	DB	034H
	DB	03cH
	DB	044H
	DB	03aH
	DB	036H
	DB	06H
	DB	06H
	DB	06H
	DB	06H
	DB	06H
	DB	06H
	DB	08H
	DB	0aH
	DB	0cH
	DB	0eH
	DB	010H
	DB	012H
	DB	016H
	DB	01aH
	DB	020H
	DB	026H
	DB	02eH
	DB	034H
	DB	040H
	DB	046H
	DB	04cH
	DB	024H
	DB	06H
	DB	06H
	DB	06H
	DB	06H
	DB	06H
	DB	06H
	DB	08H
	DB	0aH
	DB	0cH
	DB	0eH
	DB	010H
	DB	014H
	DB	018H
	DB	01cH
	DB	020H
	DB	026H
	DB	02eH
	DB	034H
	DB	03cH
	DB	044H
	DB	03aH
	DB	036H
	DB	06H
	DB	06H
	DB	06H
	DB	06H
	DB	06H
	DB	06H
	DB	08H
	DB	0aH
	DB	0cH
	DB	0eH
	DB	010H
	DB	014H
	DB	018H
	DB	01cH
	DB	020H
	DB	026H
	DB	02eH
	DB	034H
	DB	03cH
	DB	044H
	DB	03aH
	DB	036H
	DB	06H
	DB	06H
	DB	06H
	DB	06H
	DB	06H
	DB	06H
	DB	08H
	DB	0aH
	DB	0cH
	DB	0eH
	DB	010H
	DB	014H
	DB	018H
	DB	01cH
	DB	020H
	DB	026H
	DB	02eH
	DB	034H
	DB	03cH
	DB	044H
	DB	03aH
	DB	036H
	DB	0cH
	DB	0cH
	DB	0cH
	DB	0cH
	DB	0cH
	DB	0cH
	DB	010H
	DB	014H
	DB	018H
	DB	01cH
	DB	020H
	DB	028H
	DB	030H
	DB	038H
	DB	040H
	DB	04cH
	DB	05aH
	DB	02H
	DB	02H
	DB	02H
	DB	02H
	DB	02H
	ORG $+10
?band_size_short@@3QAY0N@$$CBEA DB 04H			; band_size_short
	DB	04H
	DB	04H
	DB	04H
	DB	06H
	DB	08H
	DB	0aH
	DB	0cH
	DB	0eH
	DB	012H
	DB	016H
	DB	01eH
	DB	038H
	DB	04H
	DB	04H
	DB	04H
	DB	04H
	DB	06H
	DB	06H
	DB	0aH
	DB	0cH
	DB	0eH
	DB	010H
	DB	014H
	DB	01aH
	DB	042H
	DB	04H
	DB	04H
	DB	04H
	DB	04H
	DB	06H
	DB	08H
	DB	0cH
	DB	010H
	DB	014H
	DB	01aH
	DB	022H
	DB	02aH
	DB	0cH
	DB	04H
	DB	04H
	DB	04H
	DB	06H
	DB	06H
	DB	08H
	DB	0aH
	DB	0eH
	DB	012H
	DB	01aH
	DB	020H
	DB	02aH
	DB	012H
	DB	04H
	DB	04H
	DB	04H
	DB	06H
	DB	08H
	DB	0aH
	DB	0cH
	DB	0eH
	DB	012H
	DB	018H
	DB	020H
	DB	02cH
	DB	0cH
	DB	04H
	DB	04H
	DB	04H
	DB	06H
	DB	08H
	DB	0aH
	DB	0cH
	DB	0eH
	DB	012H
	DB	018H
	DB	01eH
	DB	028H
	DB	012H
	DB	04H
	DB	04H
	DB	04H
	DB	06H
	DB	08H
	DB	0aH
	DB	0cH
	DB	0eH
	DB	012H
	DB	018H
	DB	01eH
	DB	028H
	DB	012H
	DB	04H
	DB	04H
	DB	04H
	DB	06H
	DB	08H
	DB	0aH
	DB	0cH
	DB	0eH
	DB	012H
	DB	018H
	DB	01eH
	DB	028H
	DB	012H
	DB	08H
	DB	08H
	DB	08H
	DB	0cH
	DB	010H
	DB	014H
	DB	018H
	DB	01cH
	DB	024H
	DB	02H
	DB	02H
	DB	02H
	DB	01aH
	ORG $+3
?mp3_pretab@@3QAY0BG@$$CBEA DB 00H			; mp3_pretab
	DB	00H
	DB	00H
	DB	00H
	DB	00H
	DB	00H
	DB	00H
	DB	00H
	DB	00H
	DB	00H
	DB	00H
	DB	00H
	DB	00H
	DB	00H
	DB	00H
	DB	00H
	DB	00H
	DB	00H
	DB	00H
	DB	00H
	DB	00H
	DB	00H
	DB	00H
	DB	00H
	DB	00H
	DB	00H
	DB	00H
	DB	00H
	DB	00H
	DB	00H
	DB	00H
	DB	00H
	DB	00H
	DB	01H
	DB	01H
	DB	01H
	DB	01H
	DB	02H
	DB	02H
	DB	03H
	DB	03H
	DB	03H
	DB	02H
	DB	00H
	ORG $+4
?ci_table@@3QBMB DD 0bf19999ar			; -0.6	; ci_table
	DD	0bf08f5c3r			; -0.535
	DD	0bea8f5c3r			; -0.33
	DD	0be3d70a4r			; -0.185
	DD	0bdc28f5cr			; -0.095
	DD	0bd27ef9er			; -0.041
	DD	0bc68a71er			; -0.0142
	DD	0bb727bb3r			; -0.0037
?icos36@@3QBHB DD 0403fH				; icos36
	DD	04242H
	DD	0469eH
	DD	04e21H
	DD	05a82H
	DD	06f95H
	DD	09770H
	DD	0f747H
	DD	02de51H
	ORG $+4
?icos36h@@3QBHB DD 0403e958fH				; icos36h
	DD	04241f706H
	DD	0469dbe6bH
	DD	04e212bbeH
	DD	05a82799aH
	DD	06f94a1deH
	DD	04bb7ec62H
	DD	07ba3751dH
	ORG $+4
	ORG $+12
?idxtab@?DL@??huffman_decode@@YAHPEAU_mp3_context@@PEAU_granule@@PEAFH@Z@4QBHB DD 03H ; `huffman_decode'::`59'::idxtab
	DD	03H
	DD	02H
	DD	02H
	DD	01H
	DD	01H
	DD	01H
	DD	01H
	DD	00H
	DD	00H
	DD	00H
	DD	00H
	DD	00H
	DD	00H
	DD	00H
	DD	00H
CONST	ENDS
PUBLIC	?mp3_create@@YAPEAXXZ				; mp3_create
PUBLIC	?mp3_decode@@YAHPEAX0HPEAFPEAU_mp3_info@@@Z	; mp3_decode
PUBLIC	?mp3_done@@YAXPEAPEAX@Z				; mp3_done
PUBLIC	__real@3fd0000000000000
PUBLIC	__real@3fe0000000000000
PUBLIC	__real@3ff0000000000000
PUBLIC	__real@3ff5555555555555
PUBLIC	__real@4000000000000000
PUBLIC	__real@400921fb54442d18
PUBLIC	__real@4010000000000000
PUBLIC	__real@4014000000000000
PUBLIC	__real@4028000000000000
PUBLIC	__real@402e000000000000
PUBLIC	__real@4040000000000000
PUBLIC	__real@4042000000000000
PUBLIC	__real@4052000000000000
PUBLIC	__real@40800000
PUBLIC	__real@40e0000000000000
PUBLIC	__real@41e0000000000000
PUBLIC	__real@41f0000000000000
PUBLIC	__real@4f800000
EXTRN	malloc:PROC
EXTRN	free:PROC
EXTRN	realloc:PROC
EXTRN	calloc:PROC
EXTRN	memset:PROC
EXTRN	memcpy:PROC
EXTRN	memmove:PROC
EXTRN	cos:PROC
EXTRN	pow:PROC
EXTRN	sin:PROC
EXTRN	sqrt:PROC
EXTRN	tan:PROC
EXTRN	frexp:PROC
EXTRN	_fltused:DWORD
_BSS	SEGMENT
?huff_vlc@@3PAU_vlc@@A DB 0180H DUP (?)			; huff_vlc
?huff_quad_vlc@@3PAU_vlc@@A DB 030H DUP (?)		; huff_quad_vlc
?band_index_long@@3PAY0BH@GA DW 0cfH DUP (?)		; band_index_long
	ALIGN	8

?table_4_3_exp@@3PEACEA DQ 01H DUP (?)			; table_4_3_exp
?table_4_3_value@@3PEAIEA DQ 01H DUP (?)		; table_4_3_value
?exp_table@@3PAIA DD 0200H DUP (?)			; exp_table
?expval_table@@3PAY0BA@IA DD 02000H DUP (?)		; expval_table
?is_table@@3PAY0BA@HA DD 020H DUP (?)			; is_table
?is_table_lsf@@3PAY11BA@HA DD 040H DUP (?)		; is_table_lsf
?csa_table@@3PAY03HA DD 020H DUP (?)			; csa_table
?csa_table_float@@3PAY03MA DD 020H DUP (?)		; csa_table_float
?mdct_win@@3PAY0CE@HA DD 0120H DUP (?)			; mdct_win
?window@@3PAFA DW 0200H DUP (?)				; window
?granules@?1??mp_decode_layer3@@YAHPEAU_mp3_context@@@Z@4PAY01U_granule@@A DB 025d0H DUP (?) ; `mp_decode_layer3'::`2'::granules
?exponents@?1??mp_decode_layer3@@YAHPEAU_mp3_context@@@Z@4PAFA DW 0240H DUP (?) ; `mp_decode_layer3'::`2'::exponents
?init@?1??mp3_decode_init@@YAHPEAU_mp3_context@@@Z@4HA DD 01H DUP (?) ; `mp3_decode_init'::`2'::init
_BSS	ENDS
;	COMDAT pdata
pdata	SEGMENT
$pdata$?mp3_create@@YAPEAXXZ DD imagerel $LN4
	DD	imagerel $LN4+56
	DD	imagerel $unwind$?mp3_create@@YAPEAXXZ
pdata	ENDS
;	COMDAT pdata
pdata	SEGMENT
$pdata$?mp3_decode@@YAHPEAX0HPEAFPEAU_mp3_info@@@Z DD imagerel $LN6
	DD	imagerel $LN6+178
	DD	imagerel $unwind$?mp3_decode@@YAHPEAX0HPEAFPEAU_mp3_info@@@Z
pdata	ENDS
;	COMDAT pdata
pdata	SEGMENT
$pdata$?mp3_done@@YAXPEAPEAX@Z DD imagerel $LN4
	DD	imagerel $LN4+37
	DD	imagerel $unwind$?mp3_done@@YAXPEAPEAX@Z
pdata	ENDS
;	COMDAT pdata
pdata	SEGMENT
$pdata$?unaligned32_be@@YAHPEBE@Z DD imagerel ?unaligned32_be@@YAHPEBE@Z
	DD	imagerel ?unaligned32_be@@YAHPEBE@Z+102
	DD	imagerel $unwind$?unaligned32_be@@YAHPEBE@Z
pdata	ENDS
;	COMDAT pdata
pdata	SEGMENT
$pdata$?get_bits_count@@YAHPEAU_bitstream@@@Z DD imagerel ?get_bits_count@@YAHPEAU_bitstream@@@Z
	DD	imagerel ?get_bits_count@@YAHPEAU_bitstream@@@Z+26
	DD	imagerel $unwind$?get_bits_count@@YAHPEAU_bitstream@@@Z
pdata	ENDS
;	COMDAT pdata
pdata	SEGMENT
$pdata$?skip_bits_long@@YAXPEAU_bitstream@@H@Z DD imagerel ?skip_bits_long@@YAXPEAU_bitstream@@H@Z
	DD	imagerel ?skip_bits_long@@YAXPEAU_bitstream@@H@Z+40
	DD	imagerel $unwind$?skip_bits_long@@YAXPEAU_bitstream@@H@Z
pdata	ENDS
;	COMDAT pdata
pdata	SEGMENT
$pdata$?init_get_bits@@YAXPEAU_bitstream@@PEBEH@Z DD imagerel ?init_get_bits@@YAXPEAU_bitstream@@PEBEH@Z
	DD	imagerel ?init_get_bits@@YAXPEAU_bitstream@@PEBEH@Z+128
	DD	imagerel $unwind$?init_get_bits@@YAXPEAU_bitstream@@PEBEH@Z
pdata	ENDS
;	COMDAT pdata
pdata	SEGMENT
$pdata$?get_bits@@YAIPEAU_bitstream@@H@Z DD imagerel ?get_bits@@YAIPEAU_bitstream@@H@Z
	DD	imagerel ?get_bits@@YAIPEAU_bitstream@@H@Z+127
	DD	imagerel $unwind$?get_bits@@YAIPEAU_bitstream@@H@Z
pdata	ENDS
;	COMDAT pdata
pdata	SEGMENT
$pdata$?get_bitsz@@YAHPEAU_bitstream@@H@Z DD imagerel ?get_bitsz@@YAHPEAU_bitstream@@H@Z
	DD	imagerel ?get_bitsz@@YAHPEAU_bitstream@@H@Z+49
	DD	imagerel $unwind$?get_bitsz@@YAHPEAU_bitstream@@H@Z
pdata	ENDS
;	COMDAT pdata
pdata	SEGMENT
$pdata$?get_bits1@@YAIPEAU_bitstream@@@Z DD imagerel ?get_bits1@@YAIPEAU_bitstream@@@Z
	DD	imagerel ?get_bits1@@YAIPEAU_bitstream@@@Z+101
	DD	imagerel $unwind$?get_bits1@@YAIPEAU_bitstream@@@Z
pdata	ENDS
;	COMDAT pdata
pdata	SEGMENT
$pdata$?align_get_bits@@YAXPEAU_bitstream@@@Z DD imagerel ?align_get_bits@@YAXPEAU_bitstream@@@Z
	DD	imagerel ?align_get_bits@@YAXPEAU_bitstream@@@Z+56
	DD	imagerel $unwind$?align_get_bits@@YAXPEAU_bitstream@@@Z
pdata	ENDS
;	COMDAT pdata
pdata	SEGMENT
$pdata$?alloc_table@@YAHPEAU_vlc@@H@Z DD imagerel ?alloc_table@@YAHPEAU_vlc@@H@Z
	DD	imagerel ?alloc_table@@YAHPEAU_vlc@@H@Z+160
	DD	imagerel $unwind$?alloc_table@@YAHPEAU_vlc@@H@Z
pdata	ENDS
;	COMDAT pdata
pdata	SEGMENT
$pdata$?build_table@@YAHPEAU_vlc@@HHPEBXHH1HHIH@Z DD imagerel ?build_table@@YAHPEAU_vlc@@HHPEBXHH1HHIH@Z
	DD	imagerel ?build_table@@YAHPEAU_vlc@@HHPEBXHH1HHIH@Z+1170
	DD	imagerel $unwind$?build_table@@YAHPEAU_vlc@@HHPEBXHH1HHIH@Z
pdata	ENDS
;	COMDAT pdata
pdata	SEGMENT
$pdata$?init_vlc@@YAHPEAU_vlc@@HHPEBXHH1HH@Z DD imagerel ?init_vlc@@YAHPEAU_vlc@@HHPEBXHH1HH@Z
	DD	imagerel ?init_vlc@@YAHPEAU_vlc@@HHPEBXHH1HH@Z+155
	DD	imagerel $unwind$?init_vlc@@YAHPEAU_vlc@@HHPEBXHH1HH@Z
pdata	ENDS
;	COMDAT pdata
pdata	SEGMENT
$pdata$?get_vlc2@@YAHPEAU_bitstream@@PEAY01FHH@Z DD imagerel ?get_vlc2@@YAHPEAU_bitstream@@PEAY01FHH@Z
	DD	imagerel ?get_vlc2@@YAHPEAU_bitstream@@PEAY01FHH@Z+541
	DD	imagerel $unwind$?get_vlc2@@YAHPEAU_bitstream@@PEAY01FHH@Z
pdata	ENDS
;	COMDAT pdata
pdata	SEGMENT
$pdata$?switch_buffer@@YAXPEAU_mp3_context@@PEAH11@Z DD imagerel ?switch_buffer@@YAXPEAU_mp3_context@@PEAH11@Z
	DD	imagerel ?switch_buffer@@YAXPEAU_mp3_context@@PEAH11@Z+232
	DD	imagerel $unwind$?switch_buffer@@YAXPEAU_mp3_context@@PEAH11@Z
pdata	ENDS
;	COMDAT pdata
pdata	SEGMENT
$pdata$?mp3_check_header@@YAHI@Z DD imagerel ?mp3_check_header@@YAHI@Z
	DD	imagerel ?mp3_check_header@@YAHI@Z+108
	DD	imagerel $unwind$?mp3_check_header@@YAHI@Z
pdata	ENDS
;	COMDAT pdata
pdata	SEGMENT
$pdata$?lsf_sf_expand@@YAXPEAHHHHH@Z DD imagerel ?lsf_sf_expand@@YAXPEAHHHHH@Z
	DD	imagerel ?lsf_sf_expand@@YAXPEAHHHHH@Z+213
	DD	imagerel $unwind$?lsf_sf_expand@@YAXPEAHHHHH@Z
pdata	ENDS
;	COMDAT pdata
pdata	SEGMENT
$pdata$?l3_unscale@@YAHHH@Z DD imagerel ?l3_unscale@@YAHHH@Z
	DD	imagerel ?l3_unscale@@YAHHH@Z+142
	DD	imagerel $unwind$?l3_unscale@@YAHHH@Z
pdata	ENDS
;	COMDAT pdata
pdata	SEGMENT
$pdata$?round_sample@@YAHPEAH@Z DD imagerel ?round_sample@@YAHPEAH@Z
	DD	imagerel ?round_sample@@YAHPEAH@Z+85
	DD	imagerel $unwind$?round_sample@@YAHPEAH@Z
pdata	ENDS
;	COMDAT pdata
pdata	SEGMENT
$pdata$?exponents_from_scale_factors@@YAXPEAU_mp3_context@@PEAU_granule@@PEAF@Z DD imagerel ?exponents_from_scale_factors@@YAXPEAU_mp3_context@@PEAU_granule@@PEAF@Z
	DD	imagerel ?exponents_from_scale_factors@@YAXPEAU_mp3_context@@PEAU_granule@@PEAF@Z+679
	DD	imagerel $unwind$?exponents_from_scale_factors@@YAXPEAU_mp3_context@@PEAU_granule@@PEAF@Z
pdata	ENDS
;	COMDAT pdata
pdata	SEGMENT
$pdata$?reorder_block@@YAXPEAU_mp3_context@@PEAU_granule@@@Z DD imagerel ?reorder_block@@YAXPEAU_mp3_context@@PEAU_granule@@@Z
	DD	imagerel ?reorder_block@@YAXPEAU_mp3_context@@PEAU_granule@@@Z+407
	DD	imagerel $unwind$?reorder_block@@YAXPEAU_mp3_context@@PEAU_granule@@@Z
pdata	ENDS
;	COMDAT pdata
pdata	SEGMENT
$pdata$?compute_antialias@@YAXPEAU_mp3_context@@PEAU_granule@@@Z DD imagerel ?compute_antialias@@YAXPEAU_mp3_context@@PEAU_granule@@@Z
	DD	imagerel ?compute_antialias@@YAXPEAU_mp3_context@@PEAU_granule@@@Z+1694
	DD	imagerel $unwind$?compute_antialias@@YAXPEAU_mp3_context@@PEAU_granule@@@Z
pdata	ENDS
;	COMDAT pdata
pdata	SEGMENT
$pdata$?compute_stereo@@YAXPEAU_mp3_context@@PEAU_granule@@1@Z DD imagerel ?compute_stereo@@YAXPEAU_mp3_context@@PEAU_granule@@1@Z
	DD	imagerel ?compute_stereo@@YAXPEAU_mp3_context@@PEAU_granule@@1@Z+1630
	DD	imagerel $unwind$?compute_stereo@@YAXPEAU_mp3_context@@PEAU_granule@@1@Z
pdata	ENDS
;	COMDAT pdata
pdata	SEGMENT
$pdata$?huffman_decode@@YAHPEAU_mp3_context@@PEAU_granule@@PEAFH@Z DD imagerel ?huffman_decode@@YAHPEAU_mp3_context@@PEAU_granule@@PEAFH@Z
	DD	imagerel ?huffman_decode@@YAHPEAU_mp3_context@@PEAU_granule@@PEAFH@Z+1784
	DD	imagerel $unwind$?huffman_decode@@YAHPEAU_mp3_context@@PEAU_granule@@PEAFH@Z
pdata	ENDS
;	COMDAT pdata
pdata	SEGMENT
$pdata$?imdct12@@YAXPEAH0@Z DD imagerel ?imdct12@@YAXPEAH0@Z
	DD	imagerel ?imdct12@@YAXPEAH0@Z+849
	DD	imagerel $unwind$?imdct12@@YAXPEAH0@Z
pdata	ENDS
;	COMDAT pdata
pdata	SEGMENT
$pdata$?imdct36@@YAXPEAH000@Z DD imagerel ?imdct36@@YAXPEAH000@Z
	DD	imagerel ?imdct36@@YAXPEAH000@Z+2245
	DD	imagerel $unwind$?imdct36@@YAXPEAH000@Z
pdata	ENDS
;	COMDAT pdata
pdata	SEGMENT
$pdata$?compute_imdct@@YAXPEAU_mp3_context@@PEAU_granule@@PEAH2@Z DD imagerel ?compute_imdct@@YAXPEAU_mp3_context@@PEAU_granule@@PEAH2@Z
	DD	imagerel ?compute_imdct@@YAXPEAU_mp3_context@@PEAU_granule@@PEAH2@Z+1383
	DD	imagerel $unwind$?compute_imdct@@YAXPEAU_mp3_context@@PEAU_granule@@PEAH2@Z
pdata	ENDS
;	COMDAT pdata
pdata	SEGMENT
$pdata$?dct32@@YAXPEAH0@Z DD imagerel ?dct32@@YAXPEAH0@Z
	DD	imagerel ?dct32@@YAXPEAH0@Z+13040
	DD	imagerel $unwind$?dct32@@YAXPEAH0@Z
pdata	ENDS
;	COMDAT pdata
pdata	SEGMENT
$pdata$?mp3_synth_filter@@YAXPEAFPEAH010HQEAH@Z DD imagerel ?mp3_synth_filter@@YAXPEAFPEAH010HQEAH@Z
	DD	imagerel ?mp3_synth_filter@@YAXPEAFPEAH010HQEAH@Z+4246
	DD	imagerel $unwind$?mp3_synth_filter@@YAXPEAFPEAH010HQEAH@Z
pdata	ENDS
;	COMDAT pdata
pdata	SEGMENT
$pdata$?decode_header@@YAHPEAU_mp3_context@@I@Z DD imagerel ?decode_header@@YAHPEAU_mp3_context@@I@Z
	DD	imagerel ?decode_header@@YAHPEAU_mp3_context@@I@Z+442
	DD	imagerel $unwind$?decode_header@@YAHPEAU_mp3_context@@I@Z
pdata	ENDS
;	COMDAT pdata
pdata	SEGMENT
$pdata$?mp_decode_layer3@@YAHPEAU_mp3_context@@@Z DD imagerel ?mp_decode_layer3@@YAHPEAU_mp3_context@@@Z
	DD	imagerel ?mp_decode_layer3@@YAHPEAU_mp3_context@@@Z+4212
	DD	imagerel $unwind$?mp_decode_layer3@@YAHPEAU_mp3_context@@@Z
pdata	ENDS
;	COMDAT pdata
pdata	SEGMENT
$pdata$?mp3_decode_main@@YAHPEAU_mp3_context@@PEAFPEBEH@Z DD imagerel ?mp3_decode_main@@YAHPEAU_mp3_context@@PEAFPEBEH@Z
	DD	imagerel ?mp3_decode_main@@YAHPEAU_mp3_context@@PEAFPEBEH@Z+926
	DD	imagerel $unwind$?mp3_decode_main@@YAHPEAU_mp3_context@@PEAFPEBEH@Z
pdata	ENDS
;	COMDAT pdata
pdata	SEGMENT
$pdata$?mp3_decode_init@@YAHPEAU_mp3_context@@@Z DD imagerel ?mp3_decode_init@@YAHPEAU_mp3_context@@@Z
	DD	imagerel ?mp3_decode_init@@YAHPEAU_mp3_context@@@Z+3656
	DD	imagerel $unwind$?mp3_decode_init@@YAHPEAU_mp3_context@@@Z
pdata	ENDS
;	COMDAT pdata
pdata	SEGMENT
$pdata$?mp3_decode_frame@@YAHPEAU_mp3_context@@PEAFPEAHPEAEH@Z DD imagerel ?mp3_decode_frame@@YAHPEAU_mp3_context@@PEAFPEAHPEAEH@Z
	DD	imagerel ?mp3_decode_frame@@YAHPEAU_mp3_context@@PEAFPEAHPEAEH@Z+382
	DD	imagerel $unwind$?mp3_decode_frame@@YAHPEAU_mp3_context@@PEAFPEAHPEAEH@Z
pdata	ENDS
;	COMDAT __real@4f800000
CONST	SEGMENT
__real@4f800000 DD 04f800000r			; 4.29497e+09
CONST	ENDS
;	COMDAT __real@41f0000000000000
CONST	SEGMENT
__real@41f0000000000000 DQ 041f0000000000000r	; 4.29497e+09
CONST	ENDS
;	COMDAT __real@41e0000000000000
CONST	SEGMENT
__real@41e0000000000000 DQ 041e0000000000000r	; 2.14748e+09
CONST	ENDS
;	COMDAT __real@40e0000000000000
CONST	SEGMENT
__real@40e0000000000000 DQ 040e0000000000000r	; 32768
CONST	ENDS
;	COMDAT __real@40800000
CONST	SEGMENT
__real@40800000 DD 040800000r			; 4
CONST	ENDS
;	COMDAT __real@4052000000000000
CONST	SEGMENT
__real@4052000000000000 DQ 04052000000000000r	; 72
CONST	ENDS
;	COMDAT __real@4042000000000000
CONST	SEGMENT
__real@4042000000000000 DQ 04042000000000000r	; 36
CONST	ENDS
;	COMDAT __real@4040000000000000
CONST	SEGMENT
__real@4040000000000000 DQ 04040000000000000r	; 32
CONST	ENDS
;	COMDAT __real@402e000000000000
CONST	SEGMENT
__real@402e000000000000 DQ 0402e000000000000r	; 15
CONST	ENDS
;	COMDAT __real@4028000000000000
CONST	SEGMENT
__real@4028000000000000 DQ 04028000000000000r	; 12
CONST	ENDS
;	COMDAT __real@4014000000000000
CONST	SEGMENT
__real@4014000000000000 DQ 04014000000000000r	; 5
CONST	ENDS
;	COMDAT __real@4010000000000000
CONST	SEGMENT
__real@4010000000000000 DQ 04010000000000000r	; 4
CONST	ENDS
;	COMDAT __real@400921fb54442d18
CONST	SEGMENT
__real@400921fb54442d18 DQ 0400921fb54442d18r	; 3.14159
CONST	ENDS
;	COMDAT __real@4000000000000000
CONST	SEGMENT
__real@4000000000000000 DQ 04000000000000000r	; 2
CONST	ENDS
;	COMDAT __real@3ff5555555555555
CONST	SEGMENT
__real@3ff5555555555555 DQ 03ff5555555555555r	; 1.33333
CONST	ENDS
;	COMDAT __real@3ff0000000000000
CONST	SEGMENT
__real@3ff0000000000000 DQ 03ff0000000000000r	; 1
CONST	ENDS
;	COMDAT __real@3fe0000000000000
CONST	SEGMENT
__real@3fe0000000000000 DQ 03fe0000000000000r	; 0.5
CONST	ENDS
;	COMDAT __real@3fd0000000000000
CONST	SEGMENT
__real@3fd0000000000000 DQ 03fd0000000000000r	; 0.25
CONST	ENDS
;	COMDAT xdata
xdata	SEGMENT
$unwind$?mp3_decode_frame@@YAHPEAU_mp3_context@@PEAFPEAHPEAEH@Z DD 025031e01H
	DD	0d219231eH
	DD	05015H
xdata	ENDS
;	COMDAT xdata
xdata	SEGMENT
$unwind$?mp3_decode_init@@YAHPEAU_mp3_context@@@Z DD 055041201H
	DD	010d5312H
	DD	0500600feH
xdata	ENDS
;	COMDAT xdata
xdata	SEGMENT
$unwind$?mp3_decode_main@@YAHPEAU_mp3_context@@PEAFPEBEH@Z DD 045062301H
	DD	011e4323H
	DD	070170014H
	DD	050156016H
xdata	ENDS
;	COMDAT xdata
xdata	SEGMENT
$unwind$?mp_decode_layer3@@YAHPEAU_mp3_context@@@Z DD 035061401H
	DD	010f3314H
	DD	070080020H
	DD	050066007H
xdata	ENDS
;	COMDAT xdata
xdata	SEGMENT
$unwind$?decode_header@@YAHPEAU_mp3_context@@I@Z DD 05031101H
	DD	0b20e0311H
	DD	0500aH
xdata	ENDS
;	COMDAT xdata
xdata	SEGMENT
$unwind$?mp3_synth_filter@@YAXPEAFPEAH010HQEAH@Z DD 025042101H
	DD	011c2321H
	DD	050150026H
xdata	ENDS
;	COMDAT xdata
xdata	SEGMENT
$unwind$?dct32@@YAXPEAH0@Z DD 05031201H
	DD	0920f0312H
	DD	0500bH
xdata	ENDS
;	COMDAT xdata
xdata	SEGMENT
$unwind$?compute_imdct@@YAXPEAU_mp3_context@@PEAU_granule@@PEAH2@Z DD 025042101H
	DD	011c2321H
	DD	05015001cH
xdata	ENDS
;	COMDAT xdata
xdata	SEGMENT
$unwind$?imdct36@@YAXPEAH000@Z DD 05041f01H
	DD	011c031fH
	DD	05015001aH
xdata	ENDS
;	COMDAT xdata
xdata	SEGMENT
$unwind$?imdct12@@YAXPEAH0@Z DD 05031201H
	DD	0d20f0312H
	DD	0500bH
xdata	ENDS
;	COMDAT xdata
xdata	SEGMENT
$unwind$?huffman_decode@@YAHPEAU_mp3_context@@PEAU_granule@@PEAFH@Z DD 025042101H
	DD	011c2321H
	DD	050150018H
xdata	ENDS
;	COMDAT xdata
xdata	SEGMENT
$unwind$?compute_stereo@@YAXPEAU_mp3_context@@PEAU_granule@@1@Z DD 05041a01H
	DD	0117031aH
	DD	050100014H
xdata	ENDS
;	COMDAT xdata
xdata	SEGMENT
$unwind$?compute_antialias@@YAXPEAU_mp3_context@@PEAU_granule@@@Z DD 05031201H
	DD	0d20f0312H
	DD	0500bH
xdata	ENDS
;	COMDAT xdata
xdata	SEGMENT
$unwind$?reorder_block@@YAXPEAU_mp3_context@@PEAU_granule@@@Z DD 025041701H
	DD	01122317H
	DD	0500b0152H
xdata	ENDS
;	COMDAT xdata
xdata	SEGMENT
$unwind$?exponents_from_scale_factors@@YAXPEAU_mp3_context@@PEAU_granule@@PEAF@Z DD 05041a01H
	DD	0117031aH
	DD	050100012H
xdata	ENDS
;	COMDAT xdata
xdata	SEGMENT
$unwind$?round_sample@@YAHPEAH@Z DD 05030d01H
	DD	0920a030dH
	DD	05006H
xdata	ENDS
;	COMDAT xdata
xdata	SEGMENT
$unwind$?l3_unscale@@YAHHH@Z DD 05031001H
	DD	0920d0310H
	DD	05009H
xdata	ENDS
;	COMDAT xdata
xdata	SEGMENT
$unwind$?lsf_sf_expand@@YAXPEAHHHHH@Z DD 05031b01H
	DD	07218031bH
	DD	05014H
xdata	ENDS
;	COMDAT xdata
xdata	SEGMENT
$unwind$?mp3_check_header@@YAHI@Z DD 05030c01H
	DD	07209030cH
	DD	05005H
xdata	ENDS
;	COMDAT xdata
xdata	SEGMENT
$unwind$?switch_buffer@@YAXPEAU_mp3_context@@PEAH11@Z DD 025052001H
	DD	0b21b2320H
	DD	060167017H
	DD	05015H
xdata	ENDS
;	COMDAT xdata
xdata	SEGMENT
$unwind$?get_vlc2@@YAHPEAU_bitstream@@PEAY01FHH@Z DD 025032101H
	DD	0f21c2321H
	DD	05015H
xdata	ENDS
;	COMDAT xdata
xdata	SEGMENT
$unwind$?init_vlc@@YAHPEAU_vlc@@HHPEBXHH1HH@Z DD 065042001H
	DD	011b6320H
	DD	050140014H
xdata	ENDS
;	COMDAT xdata
xdata	SEGMENT
$unwind$?build_table@@YAHPEAU_vlc@@HHPEBXHH1HHIH@Z DD 065042001H
	DD	011b6320H
	DD	05014001eH
xdata	ENDS
;	COMDAT xdata
xdata	SEGMENT
$unwind$?alloc_table@@YAHPEAU_vlc@@H@Z DD 025031301H
	DD	0d20e2313H
	DD	0500aH
xdata	ENDS
;	COMDAT xdata
xdata	SEGMENT
$unwind$?align_get_bits@@YAXPEAU_bitstream@@@Z DD 025030f01H
	DD	0d20a230fH
	DD	05006H
xdata	ENDS
;	COMDAT xdata
xdata	SEGMENT
$unwind$?get_bits1@@YAIPEAU_bitstream@@@Z DD 05030d01H
	DD	0920a030dH
	DD	05006H
xdata	ENDS
;	COMDAT xdata
xdata	SEGMENT
$unwind$?get_bitsz@@YAHPEAU_bitstream@@H@Z DD 025031301H
	DD	0b20e2313H
	DD	0500aH
xdata	ENDS
;	COMDAT xdata
xdata	SEGMENT
$unwind$?get_bits@@YAIPEAU_bitstream@@H@Z DD 025031301H
	DD	0d20e2313H
	DD	0500aH
xdata	ENDS
;	COMDAT xdata
xdata	SEGMENT
$unwind$?init_get_bits@@YAXPEAU_bitstream@@PEBEH@Z DD 05031701H
	DD	092140317H
	DD	05010H
xdata	ENDS
;	COMDAT xdata
xdata	SEGMENT
$unwind$?skip_bits_long@@YAXPEAU_bitstream@@H@Z DD 05031101H
	DD	0720e0311H
	DD	0500aH
xdata	ENDS
;	COMDAT xdata
xdata	SEGMENT
$unwind$?get_bits_count@@YAHPEAU_bitstream@@@Z DD 05030d01H
	DD	0720a030dH
	DD	05006H
xdata	ENDS
;	COMDAT xdata
xdata	SEGMENT
$unwind$?unaligned32_be@@YAHPEBE@Z DD 05030d01H
	DD	0720a030dH
	DD	05006H
xdata	ENDS
;	COMDAT xdata
xdata	SEGMENT
$unwind$?mp3_done@@YAXPEAPEAX@Z DD 025030f01H
	DD	0b20a230fH
	DD	05006H
xdata	ENDS
;	COMDAT xdata
xdata	SEGMENT
$unwind$?mp3_decode@@YAHPEAX0HPEAFPEAU_mp3_info@@@Z DD 035032101H
	DD	0f21c3321H
	DD	05015H
xdata	ENDS
;	COMDAT xdata
xdata	SEGMENT
$unwind$?mp3_create@@YAPEAXXZ DD 025030b01H
	DD	0d206230bH
	DD	05002H
xdata	ENDS
; Function compile flags: /Odtp /ZI
; File C:\Users\paras\source\repos\grep-name\XenevaOS\Process\AudioPlayer\minimp3.cpp
;	COMDAT ?mp3_decode_frame@@YAHPEAU_mp3_context@@PEAFPEAHPEAEH@Z
_TEXT	SEGMENT
header$ = 0
out_size$ = 4
extra_bytes$ = 8
s$ = 96
out_samples$ = 104
data_size$ = 112
buf$ = 120
buf_size$ = 128
?mp3_decode_frame@@YAHPEAU_mp3_context@@PEAFPEAHPEAEH@Z PROC ; mp3_decode_frame, COMDAT

; 2632 : 		uint8_t *buf, int buf_size

	mov	QWORD PTR [rsp+32], r9
	mov	QWORD PTR [rsp+24], r8
	mov	QWORD PTR [rsp+16], rdx
	mov	QWORD PTR [rsp+8], rcx
	push	rbp
	sub	rsp, 112				; 00000070H
	lea	rbp, QWORD PTR [rsp+32]

; 2633 : 		) {
; 2634 : 		uint32_t header;
; 2635 : 		int out_size;
; 2636 : 		int extra_bytes = 0;

	mov	DWORD PTR extra_bytes$[rbp], 0
$retry$10:

; 2637 : 
; 2638 : 	retry:
; 2639 : 		if (buf_size < HEADER_SIZE)

	cmp	DWORD PTR buf_size$[rbp], 4
	jge	SHORT $LN2@mp3_decode

; 2640 : 			return -1;

	mov	eax, -1
	jmp	$LN1@mp3_decode
$LN2@mp3_decode:

; 2641 : 
; 2642 : 		header = (buf[0] << 24) | (buf[1] << 16) | (buf[2] << 8) | buf[3];

	mov	eax, 1
	imul	rax, rax, 0
	mov	rcx, QWORD PTR buf$[rbp]
	movzx	eax, BYTE PTR [rcx+rax]
	shl	eax, 24
	mov	ecx, 1
	imul	rcx, rcx, 1
	mov	rdx, QWORD PTR buf$[rbp]
	movzx	ecx, BYTE PTR [rdx+rcx]
	shl	ecx, 16
	or	eax, ecx
	mov	ecx, 1
	imul	rcx, rcx, 2
	mov	rdx, QWORD PTR buf$[rbp]
	movzx	ecx, BYTE PTR [rdx+rcx]
	shl	ecx, 8
	or	eax, ecx
	mov	ecx, 1
	imul	rcx, rcx, 3
	mov	rdx, QWORD PTR buf$[rbp]
	movzx	ecx, BYTE PTR [rdx+rcx]
	or	eax, ecx
	mov	DWORD PTR header$[rbp], eax

; 2643 : 		if (mp3_check_header(header) < 0){

	mov	ecx, DWORD PTR header$[rbp]
	call	?mp3_check_header@@YAHI@Z		; mp3_check_header
	test	eax, eax
	jge	SHORT $LN3@mp3_decode

; 2644 : 			buf++;

	mov	rax, QWORD PTR buf$[rbp]
	inc	rax
	mov	QWORD PTR buf$[rbp], rax

; 2645 : 			buf_size--;

	mov	eax, DWORD PTR buf_size$[rbp]
	dec	eax
	mov	DWORD PTR buf_size$[rbp], eax

; 2646 : 			extra_bytes++;

	mov	eax, DWORD PTR extra_bytes$[rbp]
	inc	eax
	mov	DWORD PTR extra_bytes$[rbp], eax

; 2647 : 			goto retry;

	jmp	$retry$10
$LN3@mp3_decode:

; 2648 : 		}
; 2649 : 
; 2650 : 		if (decode_header(s, header) == 1) {

	mov	edx, DWORD PTR header$[rbp]
	mov	rcx, QWORD PTR s$[rbp]
	call	?decode_header@@YAHPEAU_mp3_context@@I@Z ; decode_header
	cmp	eax, 1
	jne	SHORT $LN4@mp3_decode

; 2651 : 			s->frame_size = -1;

	mov	rax, QWORD PTR s$[rbp]
	mov	DWORD PTR [rax+1052], -1

; 2652 : 			return -1;

	mov	eax, -1
	jmp	$LN1@mp3_decode
$LN4@mp3_decode:

; 2653 : 		}
; 2654 : 
; 2655 : 		if (s->frame_size <= 0 || s->frame_size > buf_size){

	mov	rax, QWORD PTR s$[rbp]
	cmp	DWORD PTR [rax+1052], 0
	jle	SHORT $LN6@mp3_decode
	mov	rax, QWORD PTR s$[rbp]
	mov	ecx, DWORD PTR buf_size$[rbp]
	cmp	DWORD PTR [rax+1052], ecx
	jle	SHORT $LN5@mp3_decode
$LN6@mp3_decode:

; 2656 : 			return -1;  // incomplete frame

	mov	eax, -1
	jmp	SHORT $LN1@mp3_decode
$LN5@mp3_decode:

; 2657 : 		}
; 2658 : 		if (s->frame_size < buf_size) {

	mov	rax, QWORD PTR s$[rbp]
	mov	ecx, DWORD PTR buf_size$[rbp]
	cmp	DWORD PTR [rax+1052], ecx
	jge	SHORT $LN7@mp3_decode

; 2659 : 			buf_size = s->frame_size;

	mov	rax, QWORD PTR s$[rbp]
	mov	eax, DWORD PTR [rax+1052]
	mov	DWORD PTR buf_size$[rbp], eax
$LN7@mp3_decode:

; 2660 : 		}
; 2661 : 
; 2662 : 		out_size = mp3_decode_main(s, out_samples, buf, buf_size);

	mov	r9d, DWORD PTR buf_size$[rbp]
	mov	r8, QWORD PTR buf$[rbp]
	mov	rdx, QWORD PTR out_samples$[rbp]
	mov	rcx, QWORD PTR s$[rbp]
	call	?mp3_decode_main@@YAHPEAU_mp3_context@@PEAFPEBEH@Z ; mp3_decode_main
	mov	DWORD PTR out_size$[rbp], eax

; 2663 : 		if (out_size >= 0)

	cmp	DWORD PTR out_size$[rbp], 0
	jl	SHORT $LN8@mp3_decode

; 2664 : 			*data_size = out_size;

	mov	rax, QWORD PTR data_size$[rbp]
	mov	ecx, DWORD PTR out_size$[rbp]
	mov	DWORD PTR [rax], ecx
$LN8@mp3_decode:

; 2665 : 		// else: Error while decoding MPEG audio frame.
; 2666 : 		s->frame_size += extra_bytes;

	mov	rax, QWORD PTR s$[rbp]
	mov	eax, DWORD PTR [rax+1052]
	add	eax, DWORD PTR extra_bytes$[rbp]
	mov	rcx, QWORD PTR s$[rbp]
	mov	DWORD PTR [rcx+1052], eax

; 2667 : 		return buf_size;

	mov	eax, DWORD PTR buf_size$[rbp]
$LN1@mp3_decode:

; 2668 : 	}

	lea	rsp, QWORD PTR [rbp+80]
	pop	rbp
	ret	0
?mp3_decode_frame@@YAHPEAU_mp3_context@@PEAFPEAHPEAEH@Z ENDP ; mp3_decode_frame
_TEXT	ENDS
; Function compile flags: /Odtp /ZI
; File C:\Users\paras\source\repos\grep-name\XenevaOS\Process\AudioPlayer\minimp3.cpp
;	COMDAT ?mp3_decode_init@@YAHPEAU_mp3_context@@@Z
_TEXT	SEGMENT
i$ = 0
j$ = 4
k$ = 8
v$1 = 12
h$2 = 16
xsize$3 = 24
x$4 = 28
y$5 = 32
n$6 = 36
tmp_bits$7 = 48
tmp_codes$8 = 560
f$9 = 1584
fm$10 = 1592
e$11 = 1600
m$12 = 1604
exponent$13 = 1608
f$14 = 1616
f$15 = 1624
v$16 = 1628
f$17 = 1632
e$18 = 1640
k$19 = 1644
ci$20 = 1648
cs$21 = 1652
ca$22 = 1656
d$23 = 1664
tv513 = 1928
tv257 = 1928
tv226 = 1928
tv190 = 1928
tv150 = 1928
tv136 = 1928
tv194 = 1936
s$ = 1968
?mp3_decode_init@@YAHPEAU_mp3_context@@@Z PROC		; mp3_decode_init, COMDAT

; 2464 : 	static int mp3_decode_init(mp3_context_t *s) {

	mov	QWORD PTR [rsp+8], rcx
	push	rbp
	sub	rsp, 2032				; 000007f0H
	lea	rbp, QWORD PTR [rsp+80]

; 2465 : 		static int init = 0;
; 2466 : 		int i, j, k;
; 2467 : 
; 2468 : 		if (!init) {

	cmp	DWORD PTR ?init@?1??mp3_decode_init@@YAHPEAU_mp3_context@@@Z@4HA, 0
	jne	$LN56@mp3_decode

; 2469 : 			/* synth init */
; 2470 : 			for (i = 0; i<257; i++) {

	mov	DWORD PTR i$[rbp], 0
	jmp	SHORT $LN4@mp3_decode
$LN2@mp3_decode:
	mov	eax, DWORD PTR i$[rbp]
	inc	eax
	mov	DWORD PTR i$[rbp], eax
$LN4@mp3_decode:
	cmp	DWORD PTR i$[rbp], 257			; 00000101H
	jge	SHORT $LN3@mp3_decode

; 2471 : 				int v;
; 2472 : 				v = mp3_enwindow[i];

	movsxd	rax, DWORD PTR i$[rbp]
	lea	rcx, OFFSET FLAT:?mp3_enwindow@@3QBHB
	mov	eax, DWORD PTR [rcx+rax*4]
	mov	DWORD PTR v$1[rbp], eax

; 2473 : #if WFRAC_BITS < 16
; 2474 : 				v = (v + (1 << (16 - WFRAC_BITS - 1))) >> (16 - WFRAC_BITS);

	mov	eax, DWORD PTR v$1[rbp]
	add	eax, 2
	sar	eax, 2
	mov	DWORD PTR v$1[rbp], eax

; 2475 : #endif
; 2476 : 				window[i] = v;

	movsxd	rax, DWORD PTR i$[rbp]
	lea	rcx, OFFSET FLAT:?window@@3PAFA
	movzx	edx, WORD PTR v$1[rbp]
	mov	WORD PTR [rcx+rax*2], dx

; 2477 : 				if ((i & 63) != 0)

	mov	eax, DWORD PTR i$[rbp]
	and	eax, 63					; 0000003fH
	test	eax, eax
	je	SHORT $LN57@mp3_decode

; 2478 : 					v = -v;

	mov	eax, DWORD PTR v$1[rbp]
	neg	eax
	mov	DWORD PTR v$1[rbp], eax
$LN57@mp3_decode:

; 2479 : 				if (i != 0)

	cmp	DWORD PTR i$[rbp], 0
	je	SHORT $LN58@mp3_decode

; 2480 : 					window[512 - i] = v;

	mov	eax, 512				; 00000200H
	sub	eax, DWORD PTR i$[rbp]
	cdqe
	lea	rcx, OFFSET FLAT:?window@@3PAFA
	movzx	edx, WORD PTR v$1[rbp]
	mov	WORD PTR [rcx+rax*2], dx
$LN58@mp3_decode:

; 2481 : 			}

	jmp	SHORT $LN2@mp3_decode
$LN3@mp3_decode:

; 2482 : 
; 2483 : 			/* huffman decode tables */
; 2484 : 			for (i = 1; i<16; i++) {

	mov	DWORD PTR i$[rbp], 1
	jmp	SHORT $LN7@mp3_decode
$LN5@mp3_decode:
	mov	eax, DWORD PTR i$[rbp]
	inc	eax
	mov	DWORD PTR i$[rbp], eax
$LN7@mp3_decode:
	cmp	DWORD PTR i$[rbp], 16
	jge	$LN6@mp3_decode

; 2485 : 				const huff_table_t *h = &mp3_huff_tables[i];

	movsxd	rax, DWORD PTR i$[rbp]
	imul	rax, rax, 24
	lea	rcx, OFFSET FLAT:?mp3_huff_tables@@3QBU_huff_table@@B
	add	rcx, rax
	mov	rax, rcx
	mov	QWORD PTR h$2[rbp], rax

; 2486 : 				int xsize, x, y;
; 2487 : 				unsigned int n;
; 2488 : 				uint8_t  tmp_bits[512];
; 2489 : 				uint16_t tmp_codes[512];
; 2490 : 
; 2491 : 				libc_memset(tmp_bits, 0, sizeof(tmp_bits));

	mov	r8d, 512				; 00000200H
	xor	edx, edx
	lea	rcx, QWORD PTR tmp_bits$7[rbp]
	call	memset

; 2492 : 				libc_memset(tmp_codes, 0, sizeof(tmp_codes));

	mov	r8d, 1024				; 00000400H
	xor	edx, edx
	lea	rcx, QWORD PTR tmp_codes$8[rbp]
	call	memset

; 2493 : 
; 2494 : 				xsize = h->xsize;

	mov	rax, QWORD PTR h$2[rbp]
	mov	eax, DWORD PTR [rax]
	mov	DWORD PTR xsize$3[rbp], eax

; 2495 : 				n = xsize * xsize;

	mov	eax, DWORD PTR xsize$3[rbp]
	imul	eax, DWORD PTR xsize$3[rbp]
	mov	DWORD PTR n$6[rbp], eax

; 2496 : 
; 2497 : 				j = 0;

	mov	DWORD PTR j$[rbp], 0

; 2498 : 				for (x = 0; x<xsize; x++) {

	mov	DWORD PTR x$4[rbp], 0
	jmp	SHORT $LN10@mp3_decode
$LN8@mp3_decode:
	mov	eax, DWORD PTR x$4[rbp]
	inc	eax
	mov	DWORD PTR x$4[rbp], eax
$LN10@mp3_decode:
	mov	eax, DWORD PTR xsize$3[rbp]
	cmp	DWORD PTR x$4[rbp], eax
	jge	$LN9@mp3_decode

; 2499 : 					for (y = 0; y<xsize; y++){

	mov	DWORD PTR y$5[rbp], 0
	jmp	SHORT $LN13@mp3_decode
$LN11@mp3_decode:
	mov	eax, DWORD PTR y$5[rbp]
	inc	eax
	mov	DWORD PTR y$5[rbp], eax
$LN13@mp3_decode:
	mov	eax, DWORD PTR xsize$3[rbp]
	cmp	DWORD PTR y$5[rbp], eax
	jge	$LN12@mp3_decode

; 2500 : 						tmp_bits[(x << 5) | y | ((x&&y) << 4)] = h->bits[j];

	cmp	DWORD PTR x$4[rbp], 0
	je	SHORT $LN81@mp3_decode
	cmp	DWORD PTR y$5[rbp], 0
	je	SHORT $LN81@mp3_decode
	mov	DWORD PTR tv136[rbp], 1
	jmp	SHORT $LN82@mp3_decode
$LN81@mp3_decode:
	mov	DWORD PTR tv136[rbp], 0
$LN82@mp3_decode:
	movsxd	rax, DWORD PTR j$[rbp]
	mov	rcx, QWORD PTR h$2[rbp]
	mov	rcx, QWORD PTR [rcx+8]
	mov	edx, DWORD PTR x$4[rbp]
	shl	edx, 5
	or	edx, DWORD PTR y$5[rbp]
	mov	r8d, DWORD PTR tv136[rbp]
	shl	r8d, 4
	or	edx, r8d
	movsxd	rdx, edx
	movzx	eax, BYTE PTR [rcx+rax]
	mov	BYTE PTR tmp_bits$7[rbp+rdx], al

; 2501 : 						tmp_codes[(x << 5) | y | ((x&&y) << 4)] = h->codes[j++];

	cmp	DWORD PTR x$4[rbp], 0
	je	SHORT $LN83@mp3_decode
	cmp	DWORD PTR y$5[rbp], 0
	je	SHORT $LN83@mp3_decode
	mov	DWORD PTR tv150[rbp], 1
	jmp	SHORT $LN84@mp3_decode
$LN83@mp3_decode:
	mov	DWORD PTR tv150[rbp], 0
$LN84@mp3_decode:
	movsxd	rax, DWORD PTR j$[rbp]
	mov	rcx, QWORD PTR h$2[rbp]
	mov	rcx, QWORD PTR [rcx+16]
	mov	edx, DWORD PTR x$4[rbp]
	shl	edx, 5
	or	edx, DWORD PTR y$5[rbp]
	mov	r8d, DWORD PTR tv150[rbp]
	shl	r8d, 4
	or	edx, r8d
	movsxd	rdx, edx
	movzx	eax, WORD PTR [rcx+rax*2]
	mov	WORD PTR tmp_codes$8[rbp+rdx*2], ax
	mov	eax, DWORD PTR j$[rbp]
	inc	eax
	mov	DWORD PTR j$[rbp], eax

; 2502 : 					}

	jmp	$LN11@mp3_decode
$LN12@mp3_decode:

; 2503 : 				}

	jmp	$LN8@mp3_decode
$LN9@mp3_decode:

; 2504 : 
; 2505 : 				init_vlc(&huff_vlc[i], 7, 512,

	movsxd	rax, DWORD PTR i$[rbp]
	imul	rax, rax, 24
	lea	rcx, OFFSET FLAT:?huff_vlc@@3PAU_vlc@@A
	add	rcx, rax
	mov	rax, rcx
	mov	DWORD PTR [rsp+64], 2
	mov	DWORD PTR [rsp+56], 2
	lea	rcx, QWORD PTR tmp_codes$8[rbp]
	mov	QWORD PTR [rsp+48], rcx
	mov	DWORD PTR [rsp+40], 1
	mov	DWORD PTR [rsp+32], 1
	lea	r9, QWORD PTR tmp_bits$7[rbp]
	mov	r8d, 512				; 00000200H
	mov	edx, 7
	mov	rcx, rax
	call	?init_vlc@@YAHPEAU_vlc@@HHPEBXHH1HH@Z	; init_vlc

; 2506 : 					tmp_bits, 1, 1, tmp_codes, 2, 2);
; 2507 : 			}

	jmp	$LN5@mp3_decode
$LN6@mp3_decode:

; 2508 : 			for (i = 0; i<2; i++) {

	mov	DWORD PTR i$[rbp], 0
	jmp	SHORT $LN16@mp3_decode
$LN14@mp3_decode:
	mov	eax, DWORD PTR i$[rbp]
	inc	eax
	mov	DWORD PTR i$[rbp], eax
$LN16@mp3_decode:
	cmp	DWORD PTR i$[rbp], 2
	jge	$LN15@mp3_decode

; 2509 : 				init_vlc(&huff_quad_vlc[i], i == 0 ? 7 : 4, 16,

	cmp	DWORD PTR i$[rbp], 0
	jne	SHORT $LN85@mp3_decode
	mov	DWORD PTR tv190[rbp], 7
	jmp	SHORT $LN86@mp3_decode
$LN85@mp3_decode:
	mov	DWORD PTR tv190[rbp], 4
$LN86@mp3_decode:
	movsxd	rax, DWORD PTR i$[rbp]
	imul	rax, rax, 16
	lea	rcx, OFFSET FLAT:?mp3_quad_codes@@3QAY0BA@$$CBEA
	add	rcx, rax
	mov	rax, rcx
	movsxd	rcx, DWORD PTR i$[rbp]
	imul	rcx, rcx, 16
	lea	rdx, OFFSET FLAT:?mp3_quad_bits@@3QAY0BA@$$CBEA
	add	rdx, rcx
	mov	rcx, rdx
	movsxd	rdx, DWORD PTR i$[rbp]
	imul	rdx, rdx, 24
	lea	r8, OFFSET FLAT:?huff_quad_vlc@@3PAU_vlc@@A
	add	r8, rdx
	mov	rdx, r8
	mov	QWORD PTR tv194[rbp], rdx
	mov	DWORD PTR [rsp+64], 1
	mov	DWORD PTR [rsp+56], 1
	mov	QWORD PTR [rsp+48], rax
	mov	DWORD PTR [rsp+40], 1
	mov	DWORD PTR [rsp+32], 1
	mov	r9, rcx
	mov	r8d, 16
	mov	edx, DWORD PTR tv190[rbp]
	mov	rax, QWORD PTR tv194[rbp]
	mov	rcx, rax
	call	?init_vlc@@YAHPEAU_vlc@@HHPEBXHH1HH@Z	; init_vlc

; 2510 : 					mp3_quad_bits[i], 1, 1, mp3_quad_codes[i], 1, 1);
; 2511 : 			}

	jmp	$LN14@mp3_decode
$LN15@mp3_decode:

; 2512 : 
; 2513 : 			for (i = 0; i<9; i++) {

	mov	DWORD PTR i$[rbp], 0
	jmp	SHORT $LN19@mp3_decode
$LN17@mp3_decode:
	mov	eax, DWORD PTR i$[rbp]
	inc	eax
	mov	DWORD PTR i$[rbp], eax
$LN19@mp3_decode:
	cmp	DWORD PTR i$[rbp], 9
	jge	$LN18@mp3_decode

; 2514 : 				k = 0;

	mov	DWORD PTR k$[rbp], 0

; 2515 : 				for (j = 0; j<22; j++) {

	mov	DWORD PTR j$[rbp], 0
	jmp	SHORT $LN22@mp3_decode
$LN20@mp3_decode:
	mov	eax, DWORD PTR j$[rbp]
	inc	eax
	mov	DWORD PTR j$[rbp], eax
$LN22@mp3_decode:
	cmp	DWORD PTR j$[rbp], 22
	jge	SHORT $LN21@mp3_decode

; 2516 : 					band_index_long[i][j] = k;

	movsxd	rax, DWORD PTR i$[rbp]
	imul	rax, rax, 46				; 0000002eH
	lea	rcx, OFFSET FLAT:?band_index_long@@3PAY0BH@GA
	add	rcx, rax
	mov	rax, rcx
	movsxd	rcx, DWORD PTR j$[rbp]
	movzx	edx, WORD PTR k$[rbp]
	mov	WORD PTR [rax+rcx*2], dx

; 2517 : 					k += band_size_long[i][j];

	movsxd	rax, DWORD PTR i$[rbp]
	imul	rax, rax, 22
	lea	rcx, OFFSET FLAT:?band_size_long@@3QAY0BG@$$CBEA
	add	rcx, rax
	mov	rax, rcx
	movsxd	rcx, DWORD PTR j$[rbp]
	movzx	eax, BYTE PTR [rax+rcx]
	mov	ecx, DWORD PTR k$[rbp]
	add	ecx, eax
	mov	eax, ecx
	mov	DWORD PTR k$[rbp], eax

; 2518 : 				}

	jmp	SHORT $LN20@mp3_decode
$LN21@mp3_decode:

; 2519 : 				band_index_long[i][22] = k;

	movsxd	rax, DWORD PTR i$[rbp]
	imul	rax, rax, 46				; 0000002eH
	lea	rcx, OFFSET FLAT:?band_index_long@@3PAY0BH@GA
	add	rcx, rax
	mov	rax, rcx
	mov	ecx, 2
	imul	rcx, rcx, 22
	movzx	edx, WORD PTR k$[rbp]
	mov	WORD PTR [rax+rcx], dx

; 2520 : 			}

	jmp	$LN17@mp3_decode
$LN18@mp3_decode:

; 2521 : 
; 2522 : 			/* compute n ^ (4/3) and store it in mantissa/exp format */
; 2523 : 			table_4_3_exp = (int8_t*)libc_malloc(TABLE_4_3_SIZE * sizeof(table_4_3_exp[0]));

	mov	ecx, 32828				; 0000803cH
	call	malloc
	mov	QWORD PTR ?table_4_3_exp@@3PEACEA, rax

; 2524 : 			if (!table_4_3_exp)

	cmp	QWORD PTR ?table_4_3_exp@@3PEACEA, 0
	jne	SHORT $LN59@mp3_decode

; 2525 : 				return -1;

	mov	eax, -1
	jmp	$LN1@mp3_decode
$LN59@mp3_decode:

; 2526 : 			table_4_3_value = (uint32_t*)libc_malloc(TABLE_4_3_SIZE * sizeof(table_4_3_value[0]));

	mov	ecx, 131312				; 000200f0H
	call	malloc
	mov	QWORD PTR ?table_4_3_value@@3PEAIEA, rax

; 2527 : 			if (!table_4_3_value)

	cmp	QWORD PTR ?table_4_3_value@@3PEAIEA, 0
	jne	SHORT $LN60@mp3_decode

; 2528 : 				return -1;

	mov	eax, -1
	jmp	$LN1@mp3_decode
$LN60@mp3_decode:

; 2529 : 
; 2530 : 			for (i = 1; i<TABLE_4_3_SIZE; i++) {

	mov	DWORD PTR i$[rbp], 1
	jmp	SHORT $LN25@mp3_decode
$LN23@mp3_decode:
	mov	eax, DWORD PTR i$[rbp]
	inc	eax
	mov	DWORD PTR i$[rbp], eax
$LN25@mp3_decode:
	cmp	DWORD PTR i$[rbp], 32828		; 0000803cH
	jge	$LN24@mp3_decode

; 2531 : 				double f, fm;
; 2532 : 				int e, m;
; 2533 : 				f = libc_pow((double)(i / 4), 4.0 / 3.0) * libc_pow(2, (i & 3)*0.25);

	mov	eax, DWORD PTR i$[rbp]
	cdq
	and	edx, 3
	add	eax, edx
	sar	eax, 2
	cvtsi2sd xmm0, eax
	movsd	xmm1, QWORD PTR __real@3ff5555555555555
	call	pow
	movsd	QWORD PTR tv226[rbp], xmm0
	mov	eax, DWORD PTR i$[rbp]
	and	eax, 3
	cvtsi2sd xmm1, eax
	mulsd	xmm1, QWORD PTR __real@3fd0000000000000
	movsd	xmm0, QWORD PTR __real@4000000000000000
	call	pow
	movsd	xmm1, QWORD PTR tv226[rbp]
	mulsd	xmm1, xmm0
	movaps	xmm0, xmm1
	movsd	QWORD PTR f$9[rbp], xmm0

; 2534 : 				fm = libc_frexp(f, &e);

	lea	rdx, QWORD PTR e$11[rbp]
	movsd	xmm0, QWORD PTR f$9[rbp]
	call	frexp
	movsd	QWORD PTR fm$10[rbp], xmm0

; 2535 : 				m = (uint32_t)(fm*(1LL << 31) + 0.5);

	movsd	xmm0, QWORD PTR fm$10[rbp]
	mulsd	xmm0, QWORD PTR __real@41e0000000000000
	addsd	xmm0, QWORD PTR __real@3fe0000000000000
	cvttsd2si rax, xmm0
	mov	DWORD PTR m$12[rbp], eax

; 2536 : 				e += FRAC_BITS - 31 + 5 - 100;

	mov	eax, DWORD PTR e$11[rbp]
	sub	eax, 111				; 0000006fH
	mov	DWORD PTR e$11[rbp], eax

; 2537 : 				table_4_3_value[i] = m;

	movsxd	rax, DWORD PTR i$[rbp]
	mov	rcx, QWORD PTR ?table_4_3_value@@3PEAIEA
	mov	edx, DWORD PTR m$12[rbp]
	mov	DWORD PTR [rcx+rax*4], edx

; 2538 : 				table_4_3_exp[i] = -e;

	mov	eax, DWORD PTR e$11[rbp]
	neg	eax
	movsxd	rcx, DWORD PTR i$[rbp]
	mov	rdx, QWORD PTR ?table_4_3_exp@@3PEACEA
	mov	BYTE PTR [rdx+rcx], al

; 2539 : 			}

	jmp	$LN23@mp3_decode
$LN24@mp3_decode:

; 2540 : 			for (i = 0; i<512 * 16; i++){

	mov	DWORD PTR i$[rbp], 0
	jmp	SHORT $LN28@mp3_decode
$LN26@mp3_decode:
	mov	eax, DWORD PTR i$[rbp]
	inc	eax
	mov	DWORD PTR i$[rbp], eax
$LN28@mp3_decode:
	cmp	DWORD PTR i$[rbp], 8192			; 00002000H
	jge	$LN27@mp3_decode

; 2541 : 				int exponent = (i >> 4);

	mov	eax, DWORD PTR i$[rbp]
	sar	eax, 4
	mov	DWORD PTR exponent$13[rbp], eax

; 2542 : 				double f = libc_pow(i & 15, 4.0 / 3.0) * libc_pow(2, (exponent - 400)*0.25 + FRAC_BITS + 5);

	mov	eax, DWORD PTR i$[rbp]
	and	eax, 15
	cvtsi2sd xmm0, eax
	movsd	xmm1, QWORD PTR __real@3ff5555555555555
	call	pow
	movsd	QWORD PTR tv257[rbp], xmm0
	mov	eax, DWORD PTR exponent$13[rbp]
	sub	eax, 400				; 00000190H
	cvtsi2sd xmm1, eax
	mulsd	xmm1, QWORD PTR __real@3fd0000000000000
	addsd	xmm1, QWORD PTR __real@402e000000000000
	addsd	xmm1, QWORD PTR __real@4014000000000000
	movsd	xmm0, QWORD PTR __real@4000000000000000
	call	pow
	movsd	xmm1, QWORD PTR tv257[rbp]
	mulsd	xmm1, xmm0
	movaps	xmm0, xmm1
	movsd	QWORD PTR f$14[rbp], xmm0

; 2543 : 				expval_table[exponent][i & 15] = f;

	cvttsd2si rax, QWORD PTR f$14[rbp]
	movsxd	rcx, DWORD PTR exponent$13[rbp]
	imul	rcx, rcx, 64				; 00000040H
	lea	rdx, OFFSET FLAT:?expval_table@@3PAY0BA@IA
	add	rdx, rcx
	mov	rcx, rdx
	mov	edx, DWORD PTR i$[rbp]
	and	edx, 15
	movsxd	rdx, edx
	mov	DWORD PTR [rcx+rdx*4], eax

; 2544 : 				if ((i & 15) == 1)

	mov	eax, DWORD PTR i$[rbp]
	and	eax, 15
	cmp	eax, 1
	jne	SHORT $LN61@mp3_decode

; 2545 : 					exp_table[exponent] = f;

	cvttsd2si rax, QWORD PTR f$14[rbp]
	movsxd	rcx, DWORD PTR exponent$13[rbp]
	lea	rdx, OFFSET FLAT:?exp_table@@3PAIA
	mov	DWORD PTR [rdx+rcx*4], eax
$LN61@mp3_decode:

; 2546 : 			}

	jmp	$LN26@mp3_decode
$LN27@mp3_decode:

; 2547 : 
; 2548 : 			for (i = 0; i<7; i++) {

	mov	DWORD PTR i$[rbp], 0
	jmp	SHORT $LN31@mp3_decode
$LN29@mp3_decode:
	mov	eax, DWORD PTR i$[rbp]
	inc	eax
	mov	DWORD PTR i$[rbp], eax
$LN31@mp3_decode:
	cmp	DWORD PTR i$[rbp], 7
	jge	$LN30@mp3_decode

; 2549 : 				float f;
; 2550 : 				int v;
; 2551 : 				if (i != 6) {

	cmp	DWORD PTR i$[rbp], 6
	je	SHORT $LN62@mp3_decode

; 2552 : 					f = tan((double)i * M_PI / 12.0);

	cvtsi2sd xmm0, DWORD PTR i$[rbp]
	mulsd	xmm0, QWORD PTR __real@400921fb54442d18
	divsd	xmm0, QWORD PTR __real@4028000000000000
	call	tan
	cvtsd2ss xmm0, xmm0
	movss	DWORD PTR f$15[rbp], xmm0

; 2553 : 					v = FIXR(f / (1.0 + f));

	cvtss2sd xmm0, DWORD PTR f$15[rbp]
	cvtss2sd xmm1, DWORD PTR f$15[rbp]
	movsd	xmm2, QWORD PTR __real@3ff0000000000000
	addsd	xmm2, xmm1
	movaps	xmm1, xmm2
	divsd	xmm0, xmm1
	mulsd	xmm0, QWORD PTR __real@40e0000000000000
	addsd	xmm0, QWORD PTR __real@3fe0000000000000
	cvttsd2si eax, xmm0
	mov	DWORD PTR v$16[rbp], eax

; 2554 : 				}

	jmp	SHORT $LN63@mp3_decode
$LN62@mp3_decode:

; 2555 : 				else {
; 2556 : 					v = FIXR(1.0);

	mov	DWORD PTR v$16[rbp], 32768		; 00008000H
$LN63@mp3_decode:

; 2557 : 				}
; 2558 : 				is_table[0][i] = v;

	mov	eax, 64					; 00000040H
	imul	rax, rax, 0
	lea	rcx, OFFSET FLAT:?is_table@@3PAY0BA@HA
	add	rcx, rax
	mov	rax, rcx
	movsxd	rcx, DWORD PTR i$[rbp]
	mov	edx, DWORD PTR v$16[rbp]
	mov	DWORD PTR [rax+rcx*4], edx

; 2559 : 				is_table[1][6 - i] = v;

	mov	eax, 64					; 00000040H
	imul	rax, rax, 1
	lea	rcx, OFFSET FLAT:?is_table@@3PAY0BA@HA
	add	rcx, rax
	mov	rax, rcx
	mov	ecx, 6
	sub	ecx, DWORD PTR i$[rbp]
	movsxd	rcx, ecx
	mov	edx, DWORD PTR v$16[rbp]
	mov	DWORD PTR [rax+rcx*4], edx

; 2560 : 			}

	jmp	$LN29@mp3_decode
$LN30@mp3_decode:

; 2561 : 			for (i = 7; i<16; i++)

	mov	DWORD PTR i$[rbp], 7
	jmp	SHORT $LN34@mp3_decode
$LN32@mp3_decode:
	mov	eax, DWORD PTR i$[rbp]
	inc	eax
	mov	DWORD PTR i$[rbp], eax
$LN34@mp3_decode:
	cmp	DWORD PTR i$[rbp], 16
	jge	SHORT $LN33@mp3_decode

; 2562 : 				is_table[0][i] = is_table[1][i] = 0.0;

	mov	eax, 64					; 00000040H
	imul	rax, rax, 1
	lea	rcx, OFFSET FLAT:?is_table@@3PAY0BA@HA
	add	rcx, rax
	mov	rax, rcx
	movsxd	rcx, DWORD PTR i$[rbp]
	mov	DWORD PTR [rax+rcx*4], 0
	mov	eax, 64					; 00000040H
	imul	rax, rax, 0
	lea	rcx, OFFSET FLAT:?is_table@@3PAY0BA@HA
	add	rcx, rax
	mov	rax, rcx
	movsxd	rcx, DWORD PTR i$[rbp]
	mov	DWORD PTR [rax+rcx*4], 0
	jmp	SHORT $LN32@mp3_decode
$LN33@mp3_decode:

; 2563 : 
; 2564 : 			for (i = 0; i<16; i++) {

	mov	DWORD PTR i$[rbp], 0
	jmp	SHORT $LN37@mp3_decode
$LN35@mp3_decode:
	mov	eax, DWORD PTR i$[rbp]
	inc	eax
	mov	DWORD PTR i$[rbp], eax
$LN37@mp3_decode:
	cmp	DWORD PTR i$[rbp], 16
	jge	$LN36@mp3_decode

; 2565 : 				double f;
; 2566 : 				int e, k;
; 2567 : 
; 2568 : 				for (j = 0; j<2; j++) {

	mov	DWORD PTR j$[rbp], 0
	jmp	SHORT $LN40@mp3_decode
$LN38@mp3_decode:
	mov	eax, DWORD PTR j$[rbp]
	inc	eax
	mov	DWORD PTR j$[rbp], eax
$LN40@mp3_decode:
	cmp	DWORD PTR j$[rbp], 2
	jge	$LN39@mp3_decode

; 2569 : 					e = -(j + 1) * ((i + 1) >> 1);

	mov	eax, DWORD PTR j$[rbp]
	inc	eax
	neg	eax
	mov	ecx, DWORD PTR i$[rbp]
	inc	ecx
	sar	ecx, 1
	imul	eax, ecx
	mov	DWORD PTR e$18[rbp], eax

; 2570 : 					f = libc_pow(2.0, e / 4.0);

	cvtsi2sd xmm0, DWORD PTR e$18[rbp]
	divsd	xmm0, QWORD PTR __real@4010000000000000
	movaps	xmm1, xmm0
	movsd	xmm0, QWORD PTR __real@4000000000000000
	call	pow
	movsd	QWORD PTR f$17[rbp], xmm0

; 2571 : 					k = i & 1;

	mov	eax, DWORD PTR i$[rbp]
	and	eax, 1
	mov	DWORD PTR k$19[rbp], eax

; 2572 : 					is_table_lsf[j][k ^ 1][i] = FIXR(f);

	movsd	xmm0, QWORD PTR f$17[rbp]
	mulsd	xmm0, QWORD PTR __real@40e0000000000000
	addsd	xmm0, QWORD PTR __real@3fe0000000000000
	cvttsd2si eax, xmm0
	movsxd	rcx, DWORD PTR j$[rbp]
	imul	rcx, rcx, 128				; 00000080H
	lea	rdx, OFFSET FLAT:?is_table_lsf@@3PAY11BA@HA
	add	rdx, rcx
	mov	rcx, rdx
	mov	edx, DWORD PTR k$19[rbp]
	xor	edx, 1
	movsxd	rdx, edx
	imul	rdx, rdx, 64				; 00000040H
	add	rcx, rdx
	movsxd	rdx, DWORD PTR i$[rbp]
	mov	DWORD PTR [rcx+rdx*4], eax

; 2573 : 					is_table_lsf[j][k][i] = FIXR(1.0);

	movsxd	rax, DWORD PTR j$[rbp]
	imul	rax, rax, 128				; 00000080H
	lea	rcx, OFFSET FLAT:?is_table_lsf@@3PAY11BA@HA
	add	rcx, rax
	mov	rax, rcx
	movsxd	rcx, DWORD PTR k$19[rbp]
	imul	rcx, rcx, 64				; 00000040H
	add	rax, rcx
	movsxd	rcx, DWORD PTR i$[rbp]
	mov	DWORD PTR [rax+rcx*4], 32768		; 00008000H

; 2574 : 				}

	jmp	$LN38@mp3_decode
$LN39@mp3_decode:

; 2575 : 			}

	jmp	$LN35@mp3_decode
$LN36@mp3_decode:

; 2576 : 
; 2577 : 			for (i = 0; i<8; i++) {

	mov	DWORD PTR i$[rbp], 0
	jmp	SHORT $LN43@mp3_decode
$LN41@mp3_decode:
	mov	eax, DWORD PTR i$[rbp]
	inc	eax
	mov	DWORD PTR i$[rbp], eax
$LN43@mp3_decode:
	cmp	DWORD PTR i$[rbp], 8
	jge	$LN42@mp3_decode

; 2578 : 				float ci, cs, ca;
; 2579 : 				ci = ci_table[i];

	movsxd	rax, DWORD PTR i$[rbp]
	lea	rcx, OFFSET FLAT:?ci_table@@3QBMB
	movss	xmm0, DWORD PTR [rcx+rax*4]
	movss	DWORD PTR ci$20[rbp], xmm0

; 2580 : 				cs = 1.0 / sqrt(1.0 + ci * ci);

	movss	xmm0, DWORD PTR ci$20[rbp]
	mulss	xmm0, DWORD PTR ci$20[rbp]
	cvtss2sd xmm0, xmm0
	movsd	xmm1, QWORD PTR __real@3ff0000000000000
	addsd	xmm1, xmm0
	movaps	xmm0, xmm1
	call	sqrt
	movsd	xmm1, QWORD PTR __real@3ff0000000000000
	divsd	xmm1, xmm0
	movaps	xmm0, xmm1
	cvtsd2ss xmm0, xmm0
	movss	DWORD PTR cs$21[rbp], xmm0

; 2581 : 				ca = cs * ci;

	movss	xmm0, DWORD PTR cs$21[rbp]
	mulss	xmm0, DWORD PTR ci$20[rbp]
	movss	DWORD PTR ca$22[rbp], xmm0

; 2582 : 				csa_table[i][0] = FIXHR(cs / 4);

	movss	xmm0, DWORD PTR cs$21[rbp]
	divss	xmm0, DWORD PTR __real@40800000
	mulss	xmm0, DWORD PTR __real@4f800000
	cvtss2sd xmm0, xmm0
	addsd	xmm0, QWORD PTR __real@3fe0000000000000
	cvttsd2si eax, xmm0
	movsxd	rcx, DWORD PTR i$[rbp]
	imul	rcx, rcx, 16
	lea	rdx, OFFSET FLAT:?csa_table@@3PAY03HA
	add	rdx, rcx
	mov	rcx, rdx
	mov	edx, 4
	imul	rdx, rdx, 0
	mov	DWORD PTR [rcx+rdx], eax

; 2583 : 				csa_table[i][1] = FIXHR(ca / 4);

	movss	xmm0, DWORD PTR ca$22[rbp]
	divss	xmm0, DWORD PTR __real@40800000
	mulss	xmm0, DWORD PTR __real@4f800000
	cvtss2sd xmm0, xmm0
	addsd	xmm0, QWORD PTR __real@3fe0000000000000
	cvttsd2si eax, xmm0
	movsxd	rcx, DWORD PTR i$[rbp]
	imul	rcx, rcx, 16
	lea	rdx, OFFSET FLAT:?csa_table@@3PAY03HA
	add	rdx, rcx
	mov	rcx, rdx
	mov	edx, 4
	imul	rdx, rdx, 1
	mov	DWORD PTR [rcx+rdx], eax

; 2584 : 				csa_table[i][2] = FIXHR(ca / 4) + FIXHR(cs / 4);

	movss	xmm0, DWORD PTR ca$22[rbp]
	divss	xmm0, DWORD PTR __real@40800000
	mulss	xmm0, DWORD PTR __real@4f800000
	cvtss2sd xmm0, xmm0
	addsd	xmm0, QWORD PTR __real@3fe0000000000000
	cvttsd2si eax, xmm0
	movss	xmm0, DWORD PTR cs$21[rbp]
	divss	xmm0, DWORD PTR __real@40800000
	mulss	xmm0, DWORD PTR __real@4f800000
	cvtss2sd xmm0, xmm0
	addsd	xmm0, QWORD PTR __real@3fe0000000000000
	cvttsd2si ecx, xmm0
	add	eax, ecx
	movsxd	rcx, DWORD PTR i$[rbp]
	imul	rcx, rcx, 16
	lea	rdx, OFFSET FLAT:?csa_table@@3PAY03HA
	add	rdx, rcx
	mov	rcx, rdx
	mov	edx, 4
	imul	rdx, rdx, 2
	mov	DWORD PTR [rcx+rdx], eax

; 2585 : 				csa_table[i][3] = FIXHR(ca / 4) - FIXHR(cs / 4);

	movss	xmm0, DWORD PTR ca$22[rbp]
	divss	xmm0, DWORD PTR __real@40800000
	mulss	xmm0, DWORD PTR __real@4f800000
	cvtss2sd xmm0, xmm0
	addsd	xmm0, QWORD PTR __real@3fe0000000000000
	cvttsd2si eax, xmm0
	movss	xmm0, DWORD PTR cs$21[rbp]
	divss	xmm0, DWORD PTR __real@40800000
	mulss	xmm0, DWORD PTR __real@4f800000
	cvtss2sd xmm0, xmm0
	addsd	xmm0, QWORD PTR __real@3fe0000000000000
	cvttsd2si ecx, xmm0
	sub	eax, ecx
	movsxd	rcx, DWORD PTR i$[rbp]
	imul	rcx, rcx, 16
	lea	rdx, OFFSET FLAT:?csa_table@@3PAY03HA
	add	rdx, rcx
	mov	rcx, rdx
	mov	edx, 4
	imul	rdx, rdx, 3
	mov	DWORD PTR [rcx+rdx], eax

; 2586 : 				csa_table_float[i][0] = cs;

	movsxd	rax, DWORD PTR i$[rbp]
	imul	rax, rax, 16
	lea	rcx, OFFSET FLAT:?csa_table_float@@3PAY03MA
	add	rcx, rax
	mov	rax, rcx
	mov	ecx, 4
	imul	rcx, rcx, 0
	movss	xmm0, DWORD PTR cs$21[rbp]
	movss	DWORD PTR [rax+rcx], xmm0

; 2587 : 				csa_table_float[i][1] = ca;

	movsxd	rax, DWORD PTR i$[rbp]
	imul	rax, rax, 16
	lea	rcx, OFFSET FLAT:?csa_table_float@@3PAY03MA
	add	rcx, rax
	mov	rax, rcx
	mov	ecx, 4
	imul	rcx, rcx, 1
	movss	xmm0, DWORD PTR ca$22[rbp]
	movss	DWORD PTR [rax+rcx], xmm0

; 2588 : 				csa_table_float[i][2] = ca + cs;

	movss	xmm0, DWORD PTR ca$22[rbp]
	addss	xmm0, DWORD PTR cs$21[rbp]
	movsxd	rax, DWORD PTR i$[rbp]
	imul	rax, rax, 16
	lea	rcx, OFFSET FLAT:?csa_table_float@@3PAY03MA
	add	rcx, rax
	mov	rax, rcx
	mov	ecx, 4
	imul	rcx, rcx, 2
	movss	DWORD PTR [rax+rcx], xmm0

; 2589 : 				csa_table_float[i][3] = ca - cs;

	movss	xmm0, DWORD PTR ca$22[rbp]
	subss	xmm0, DWORD PTR cs$21[rbp]
	movsxd	rax, DWORD PTR i$[rbp]
	imul	rax, rax, 16
	lea	rcx, OFFSET FLAT:?csa_table_float@@3PAY03MA
	add	rcx, rax
	mov	rax, rcx
	mov	ecx, 4
	imul	rcx, rcx, 3
	movss	DWORD PTR [rax+rcx], xmm0

; 2590 : 			}

	jmp	$LN41@mp3_decode
$LN42@mp3_decode:

; 2591 : 
; 2592 : 			/* compute mdct windows */
; 2593 : 			for (i = 0; i<36; i++) {

	mov	DWORD PTR i$[rbp], 0
	jmp	SHORT $LN46@mp3_decode
$LN44@mp3_decode:
	mov	eax, DWORD PTR i$[rbp]
	inc	eax
	mov	DWORD PTR i$[rbp], eax
$LN46@mp3_decode:
	cmp	DWORD PTR i$[rbp], 36			; 00000024H
	jge	$LN45@mp3_decode

; 2594 : 				for (j = 0; j<4; j++){

	mov	DWORD PTR j$[rbp], 0
	jmp	SHORT $LN49@mp3_decode
$LN47@mp3_decode:
	mov	eax, DWORD PTR j$[rbp]
	inc	eax
	mov	DWORD PTR j$[rbp], eax
$LN49@mp3_decode:
	cmp	DWORD PTR j$[rbp], 4
	jge	$LN48@mp3_decode

; 2595 : 					double d;
; 2596 : 
; 2597 : 					if (j == 2 && i % 3 != 1)

	cmp	DWORD PTR j$[rbp], 2
	jne	SHORT $LN64@mp3_decode
	mov	eax, DWORD PTR i$[rbp]
	cdq
	mov	ecx, 3
	idiv	ecx
	mov	eax, edx
	cmp	eax, 1
	je	SHORT $LN64@mp3_decode

; 2598 : 						continue;

	jmp	SHORT $LN47@mp3_decode
$LN64@mp3_decode:

; 2599 : 
; 2600 : 					d = sin(M_PI * (i + 0.5) / 36.0);

	cvtsi2sd xmm0, DWORD PTR i$[rbp]
	addsd	xmm0, QWORD PTR __real@3fe0000000000000
	movsd	xmm1, QWORD PTR __real@400921fb54442d18
	mulsd	xmm1, xmm0
	movaps	xmm0, xmm1
	divsd	xmm0, QWORD PTR __real@4042000000000000
	call	sin
	movsd	QWORD PTR d$23[rbp], xmm0

; 2601 : 					if (j == 1){

	cmp	DWORD PTR j$[rbp], 1
	jne	SHORT $LN65@mp3_decode

; 2602 : 						if (i >= 30) d = 0;

	cmp	DWORD PTR i$[rbp], 30
	jl	SHORT $LN67@mp3_decode
	xorps	xmm0, xmm0
	movsd	QWORD PTR d$23[rbp], xmm0
	jmp	SHORT $LN68@mp3_decode
$LN67@mp3_decode:

; 2603 : 						else if (i >= 24) d = sin(M_PI * (i - 18 + 0.5) / 12.0);

	cmp	DWORD PTR i$[rbp], 24
	jl	SHORT $LN69@mp3_decode
	mov	eax, DWORD PTR i$[rbp]
	sub	eax, 18
	cvtsi2sd xmm0, eax
	addsd	xmm0, QWORD PTR __real@3fe0000000000000
	movsd	xmm1, QWORD PTR __real@400921fb54442d18
	mulsd	xmm1, xmm0
	movaps	xmm0, xmm1
	divsd	xmm0, QWORD PTR __real@4028000000000000
	call	sin
	movsd	QWORD PTR d$23[rbp], xmm0
	jmp	SHORT $LN70@mp3_decode
$LN69@mp3_decode:

; 2604 : 						else if (i >= 18) d = 1;

	cmp	DWORD PTR i$[rbp], 18
	jl	SHORT $LN71@mp3_decode
	movsd	xmm0, QWORD PTR __real@3ff0000000000000
	movsd	QWORD PTR d$23[rbp], xmm0
$LN71@mp3_decode:
$LN70@mp3_decode:
$LN68@mp3_decode:

; 2605 : 					}

	jmp	SHORT $LN66@mp3_decode
$LN65@mp3_decode:

; 2606 : 					else if (j == 3){

	cmp	DWORD PTR j$[rbp], 3
	jne	SHORT $LN72@mp3_decode

; 2607 : 						if (i<  6) d = 0;

	cmp	DWORD PTR i$[rbp], 6
	jge	SHORT $LN73@mp3_decode
	xorps	xmm0, xmm0
	movsd	QWORD PTR d$23[rbp], xmm0
	jmp	SHORT $LN74@mp3_decode
$LN73@mp3_decode:

; 2608 : 						else if (i< 12) d = sin(M_PI * (i - 6 + 0.5) / 12.0);

	cmp	DWORD PTR i$[rbp], 12
	jge	SHORT $LN75@mp3_decode
	mov	eax, DWORD PTR i$[rbp]
	sub	eax, 6
	cvtsi2sd xmm0, eax
	addsd	xmm0, QWORD PTR __real@3fe0000000000000
	movsd	xmm1, QWORD PTR __real@400921fb54442d18
	mulsd	xmm1, xmm0
	movaps	xmm0, xmm1
	divsd	xmm0, QWORD PTR __real@4028000000000000
	call	sin
	movsd	QWORD PTR d$23[rbp], xmm0
	jmp	SHORT $LN76@mp3_decode
$LN75@mp3_decode:

; 2609 : 						else if (i< 18) d = 1;

	cmp	DWORD PTR i$[rbp], 18
	jge	SHORT $LN77@mp3_decode
	movsd	xmm0, QWORD PTR __real@3ff0000000000000
	movsd	QWORD PTR d$23[rbp], xmm0
$LN77@mp3_decode:
$LN76@mp3_decode:
$LN74@mp3_decode:
$LN72@mp3_decode:
$LN66@mp3_decode:

; 2610 : 					}
; 2611 : 					d *= 0.5 / cos(M_PI*(2 * i + 19) / 72);

	mov	eax, DWORD PTR i$[rbp]
	lea	eax, DWORD PTR [rax+rax+19]
	cvtsi2sd xmm0, eax
	movsd	xmm1, QWORD PTR __real@400921fb54442d18
	mulsd	xmm1, xmm0
	movaps	xmm0, xmm1
	divsd	xmm0, QWORD PTR __real@4052000000000000
	call	cos
	movsd	xmm1, QWORD PTR __real@3fe0000000000000
	divsd	xmm1, xmm0
	movaps	xmm0, xmm1
	movsd	xmm1, QWORD PTR d$23[rbp]
	mulsd	xmm1, xmm0
	movaps	xmm0, xmm1
	movsd	QWORD PTR d$23[rbp], xmm0

; 2612 : 					if (j == 2)

	cmp	DWORD PTR j$[rbp], 2
	jne	SHORT $LN78@mp3_decode

; 2613 : 						mdct_win[j][i / 3] = FIXHR((d / (1 << 5)));

	movsd	xmm0, QWORD PTR d$23[rbp]
	divsd	xmm0, QWORD PTR __real@4040000000000000
	mulsd	xmm0, QWORD PTR __real@41f0000000000000
	addsd	xmm0, QWORD PTR __real@3fe0000000000000
	cvttsd2si eax, xmm0
	mov	DWORD PTR tv513[rbp], eax
	movsxd	rcx, DWORD PTR j$[rbp]
	imul	rcx, rcx, 144				; 00000090H
	lea	rdx, OFFSET FLAT:?mdct_win@@3PAY0CE@HA
	add	rdx, rcx
	mov	rcx, rdx
	mov	eax, DWORD PTR i$[rbp]
	cdq
	mov	r8d, 3
	idiv	r8d
	cdqe
	mov	edx, DWORD PTR tv513[rbp]
	mov	DWORD PTR [rcx+rax*4], edx
	jmp	SHORT $LN79@mp3_decode
$LN78@mp3_decode:

; 2614 : 					else
; 2615 : 						mdct_win[j][i] = FIXHR((d / (1 << 5)));

	movsd	xmm0, QWORD PTR d$23[rbp]
	divsd	xmm0, QWORD PTR __real@4040000000000000
	mulsd	xmm0, QWORD PTR __real@41f0000000000000
	addsd	xmm0, QWORD PTR __real@3fe0000000000000
	cvttsd2si eax, xmm0
	movsxd	rcx, DWORD PTR j$[rbp]
	imul	rcx, rcx, 144				; 00000090H
	lea	rdx, OFFSET FLAT:?mdct_win@@3PAY0CE@HA
	add	rdx, rcx
	mov	rcx, rdx
	movsxd	rdx, DWORD PTR i$[rbp]
	mov	DWORD PTR [rcx+rdx*4], eax
$LN79@mp3_decode:

; 2616 : 				}

	jmp	$LN47@mp3_decode
$LN48@mp3_decode:

; 2617 : 			}

	jmp	$LN44@mp3_decode
$LN45@mp3_decode:

; 2618 : 			for (j = 0; j<4; j++) {

	mov	DWORD PTR j$[rbp], 0
	jmp	SHORT $LN52@mp3_decode
$LN50@mp3_decode:
	mov	eax, DWORD PTR j$[rbp]
	inc	eax
	mov	DWORD PTR j$[rbp], eax
$LN52@mp3_decode:
	cmp	DWORD PTR j$[rbp], 4
	jge	$LN51@mp3_decode

; 2619 : 				for (i = 0; i<36; i += 2) {

	mov	DWORD PTR i$[rbp], 0
	jmp	SHORT $LN55@mp3_decode
$LN53@mp3_decode:
	mov	eax, DWORD PTR i$[rbp]
	add	eax, 2
	mov	DWORD PTR i$[rbp], eax
$LN55@mp3_decode:
	cmp	DWORD PTR i$[rbp], 36			; 00000024H
	jge	$LN54@mp3_decode

; 2620 : 					mdct_win[j + 4][i] = mdct_win[j][i];

	movsxd	rax, DWORD PTR j$[rbp]
	imul	rax, rax, 144				; 00000090H
	lea	rcx, OFFSET FLAT:?mdct_win@@3PAY0CE@HA
	add	rcx, rax
	mov	rax, rcx
	movsxd	rcx, DWORD PTR i$[rbp]
	mov	edx, DWORD PTR j$[rbp]
	add	edx, 4
	movsxd	rdx, edx
	imul	rdx, rdx, 144				; 00000090H
	lea	r8, OFFSET FLAT:?mdct_win@@3PAY0CE@HA
	add	r8, rdx
	mov	rdx, r8
	movsxd	r8, DWORD PTR i$[rbp]
	mov	eax, DWORD PTR [rax+rcx*4]
	mov	DWORD PTR [rdx+r8*4], eax

; 2621 : 					mdct_win[j + 4][i + 1] = -mdct_win[j][i + 1];

	movsxd	rax, DWORD PTR j$[rbp]
	imul	rax, rax, 144				; 00000090H
	lea	rcx, OFFSET FLAT:?mdct_win@@3PAY0CE@HA
	add	rcx, rax
	mov	rax, rcx
	mov	ecx, DWORD PTR i$[rbp]
	inc	ecx
	movsxd	rcx, ecx
	mov	eax, DWORD PTR [rax+rcx*4]
	neg	eax
	mov	ecx, DWORD PTR j$[rbp]
	add	ecx, 4
	movsxd	rcx, ecx
	imul	rcx, rcx, 144				; 00000090H
	lea	rdx, OFFSET FLAT:?mdct_win@@3PAY0CE@HA
	add	rdx, rcx
	mov	rcx, rdx
	mov	edx, DWORD PTR i$[rbp]
	inc	edx
	movsxd	rdx, edx
	mov	DWORD PTR [rcx+rdx*4], eax

; 2622 : 				}

	jmp	$LN53@mp3_decode
$LN54@mp3_decode:

; 2623 : 			}

	jmp	$LN50@mp3_decode
$LN51@mp3_decode:

; 2624 : 			init = 1;

	mov	DWORD PTR ?init@?1??mp3_decode_init@@YAHPEAU_mp3_context@@@Z@4HA, 1
$LN56@mp3_decode:

; 2625 : 		}
; 2626 : 		return 0;

	xor	eax, eax
$LN1@mp3_decode:

; 2627 : 	}

	lea	rsp, QWORD PTR [rbp+1952]
	pop	rbp
	ret	0
?mp3_decode_init@@YAHPEAU_mp3_context@@@Z ENDP		; mp3_decode_init
_TEXT	ENDS
; Function compile flags: /Odtp /ZI
; File C:\Users\paras\source\repos\grep-name\XenevaOS\Process\AudioPlayer\minimp3.cpp
;	COMDAT ?mp3_decode_main@@YAHPEAU_mp3_context@@PEAFPEBEH@Z
_TEXT	SEGMENT
i$ = 0
nb_frames$ = 4
ch$ = 8
samples_ptr$ = 16
tv170 = 88
tv94 = 88
tv69 = 88
s$ = 128
samples$ = 136
buf$ = 144
buf_size$ = 152
?mp3_decode_main@@YAHPEAU_mp3_context@@PEAFPEBEH@Z PROC	; mp3_decode_main, COMDAT

; 2413 : 		int16_t *samples, const uint8_t *buf, int buf_size

	mov	DWORD PTR [rsp+32], r9d
	mov	QWORD PTR [rsp+24], r8
	mov	QWORD PTR [rsp+16], rdx
	mov	QWORD PTR [rsp+8], rcx
	push	rbp
	push	rsi
	push	rdi
	sub	rsp, 160				; 000000a0H
	lea	rbp, QWORD PTR [rsp+64]

; 2414 : 		) {
; 2415 : 		int i, nb_frames, ch;
; 2416 : 		int16_t *samples_ptr;
; 2417 : 
; 2418 : 		init_get_bits(&s->gb, buf + HEADER_SIZE, (buf_size - HEADER_SIZE) * 8);

	mov	eax, DWORD PTR buf_size$[rbp]
	lea	eax, DWORD PTR [rax*8-32]
	mov	rcx, QWORD PTR buf$[rbp]
	add	rcx, 4
	mov	rdx, QWORD PTR s$[rbp]
	add	rdx, 1080				; 00000438H
	mov	QWORD PTR tv69[rbp], rdx
	mov	r8d, eax
	mov	rdx, rcx
	mov	rax, QWORD PTR tv69[rbp]
	mov	rcx, rax
	call	?init_get_bits@@YAXPEAU_bitstream@@PEBEH@Z ; init_get_bits

; 2419 : 
; 2420 : 		if (s->error_protection)

	mov	rax, QWORD PTR s$[rbp]
	cmp	DWORD PTR [rax+1060], 0
	je	SHORT $LN8@mp3_decode

; 2421 : 			get_bits(&s->gb, 16);

	mov	rax, QWORD PTR s$[rbp]
	add	rax, 1080				; 00000438H
	mov	edx, 16
	mov	rcx, rax
	call	?get_bits@@YAIPEAU_bitstream@@H@Z	; get_bits
$LN8@mp3_decode:

; 2422 : 
; 2423 : 		nb_frames = mp_decode_layer3(s);

	mov	rcx, QWORD PTR s$[rbp]
	call	?mp_decode_layer3@@YAHPEAU_mp3_context@@@Z ; mp_decode_layer3
	mov	DWORD PTR nb_frames$[rbp], eax

; 2424 : 
; 2425 : 		s->last_buf_size = 0;

	mov	rax, QWORD PTR s$[rbp]
	mov	DWORD PTR [rax+1048], 0

; 2426 : 		if (s->in_gb.buffer){

	mov	rax, QWORD PTR s$[rbp]
	cmp	QWORD PTR [rax+1104], 0
	je	$LN9@mp3_decode

; 2427 : 			align_get_bits(&s->gb);

	mov	rax, QWORD PTR s$[rbp]
	add	rax, 1080				; 00000438H
	mov	rcx, rax
	call	?align_get_bits@@YAXPEAU_bitstream@@@Z	; align_get_bits

; 2428 : 			i = (s->gb.size_in_bits - get_bits_count(&s->gb)) >> 3;

	mov	rax, QWORD PTR s$[rbp]
	add	rax, 1080				; 00000438H
	mov	rcx, rax
	call	?get_bits_count@@YAHPEAU_bitstream@@@Z	; get_bits_count
	mov	rcx, QWORD PTR s$[rbp]
	mov	ecx, DWORD PTR [rcx+1100]
	sub	ecx, eax
	mov	eax, ecx
	sar	eax, 3
	mov	DWORD PTR i$[rbp], eax

; 2429 : 			if (i >= 0 && i <= BACKSTEP_SIZE){

	cmp	DWORD PTR i$[rbp], 0
	jl	SHORT $LN10@mp3_decode
	cmp	DWORD PTR i$[rbp], 512			; 00000200H
	jg	SHORT $LN10@mp3_decode

; 2430 : 				libc_memmove(s->last_buf, s->gb.buffer + (get_bits_count(&s->gb) >> 3), i);

	movsxd	rax, DWORD PTR i$[rbp]
	mov	QWORD PTR tv94[rbp], rax
	mov	rcx, QWORD PTR s$[rbp]
	add	rcx, 1080				; 00000438H
	call	?get_bits_count@@YAHPEAU_bitstream@@@Z	; get_bits_count
	sar	eax, 3
	cdqe
	mov	rcx, QWORD PTR s$[rbp]
	add	rax, QWORD PTR [rcx+1080]
	mov	rcx, QWORD PTR s$[rbp]
	mov	rdx, QWORD PTR tv94[rbp]
	mov	r8, rdx
	mov	rdx, rax
	call	memmove

; 2431 : 				s->last_buf_size = i;

	mov	rax, QWORD PTR s$[rbp]
	mov	ecx, DWORD PTR i$[rbp]
	mov	DWORD PTR [rax+1048], ecx
$LN10@mp3_decode:

; 2432 : 			}
; 2433 : 			s->gb = s->in_gb;

	mov	rax, QWORD PTR s$[rbp]
	mov	rcx, QWORD PTR s$[rbp]
	lea	rdi, QWORD PTR [rax+1080]
	lea	rsi, QWORD PTR [rcx+1104]
	mov	ecx, 24
	rep movsb
$LN9@mp3_decode:

; 2434 : 		}
; 2435 : 
; 2436 : 		align_get_bits(&s->gb);

	mov	rax, QWORD PTR s$[rbp]
	add	rax, 1080				; 00000438H
	mov	rcx, rax
	call	?align_get_bits@@YAXPEAU_bitstream@@@Z	; align_get_bits

; 2437 : 		i = (s->gb.size_in_bits - get_bits_count(&s->gb)) >> 3;

	mov	rax, QWORD PTR s$[rbp]
	add	rax, 1080				; 00000438H
	mov	rcx, rax
	call	?get_bits_count@@YAHPEAU_bitstream@@@Z	; get_bits_count
	mov	rcx, QWORD PTR s$[rbp]
	mov	ecx, DWORD PTR [rcx+1100]
	sub	ecx, eax
	mov	eax, ecx
	sar	eax, 3
	mov	DWORD PTR i$[rbp], eax

; 2438 : 
; 2439 : 		if (i<0 || i > BACKSTEP_SIZE || nb_frames<0){

	cmp	DWORD PTR i$[rbp], 0
	jl	SHORT $LN12@mp3_decode
	cmp	DWORD PTR i$[rbp], 512			; 00000200H
	jg	SHORT $LN12@mp3_decode
	cmp	DWORD PTR nb_frames$[rbp], 0
	jge	SHORT $LN11@mp3_decode
$LN12@mp3_decode:

; 2440 : 			i = buf_size - HEADER_SIZE;

	mov	eax, DWORD PTR buf_size$[rbp]
	sub	eax, 4
	mov	DWORD PTR i$[rbp], eax

; 2441 : 			if (BACKSTEP_SIZE < i) i = BACKSTEP_SIZE;

	cmp	DWORD PTR i$[rbp], 512			; 00000200H
	jle	SHORT $LN13@mp3_decode
	mov	DWORD PTR i$[rbp], 512			; 00000200H
$LN13@mp3_decode:
$LN11@mp3_decode:

; 2442 : 		}
; 2443 : 		libc_memcpy(s->last_buf + s->last_buf_size,(void*)(s->gb.buffer + buf_size - HEADER_SIZE - i), i);

	movsxd	rax, DWORD PTR i$[rbp]
	movsxd	rcx, DWORD PTR buf_size$[rbp]
	mov	rdx, QWORD PTR s$[rbp]
	mov	rdx, QWORD PTR [rdx+1080]
	lea	rcx, QWORD PTR [rdx+rcx-4]
	movsxd	rdx, DWORD PTR i$[rbp]
	sub	rcx, rdx
	mov	rdx, QWORD PTR s$[rbp]
	movsxd	rdx, DWORD PTR [rdx+1048]
	mov	rdi, QWORD PTR s$[rbp]
	add	rdi, rdx
	mov	rdx, rdi
	mov	QWORD PTR tv170[rbp], rdx
	mov	r8, rax
	mov	rdx, rcx
	mov	rax, QWORD PTR tv170[rbp]
	mov	rcx, rax
	call	memcpy

; 2444 : 		s->last_buf_size += i;

	mov	rax, QWORD PTR s$[rbp]
	mov	eax, DWORD PTR [rax+1048]
	add	eax, DWORD PTR i$[rbp]
	mov	rcx, QWORD PTR s$[rbp]
	mov	DWORD PTR [rcx+1048], eax

; 2445 : 
; 2446 : 		/* apply the synthesis filter */
; 2447 : 		for (ch = 0; ch<s->nb_channels; ch++) {

	mov	DWORD PTR ch$[rbp], 0
	jmp	SHORT $LN4@mp3_decode
$LN2@mp3_decode:
	mov	eax, DWORD PTR ch$[rbp]
	inc	eax
	mov	DWORD PTR ch$[rbp], eax
$LN4@mp3_decode:
	mov	rax, QWORD PTR s$[rbp]
	mov	eax, DWORD PTR [rax+1128]
	cmp	DWORD PTR ch$[rbp], eax
	jge	$LN3@mp3_decode

; 2448 : 			samples_ptr = samples + ch;

	movsxd	rax, DWORD PTR ch$[rbp]
	mov	rcx, QWORD PTR samples$[rbp]
	lea	rax, QWORD PTR [rcx+rax*2]
	mov	QWORD PTR samples_ptr$[rbp], rax

; 2449 : 			for (i = 0; i<nb_frames; i++) {

	mov	DWORD PTR i$[rbp], 0
	jmp	SHORT $LN7@mp3_decode
$LN5@mp3_decode:
	mov	eax, DWORD PTR i$[rbp]
	inc	eax
	mov	DWORD PTR i$[rbp], eax
$LN7@mp3_decode:
	mov	eax, DWORD PTR nb_frames$[rbp]
	cmp	DWORD PTR i$[rbp], eax
	jge	$LN6@mp3_decode

; 2450 : 				mp3_synth_filter(

	movsxd	rax, DWORD PTR ch$[rbp]
	imul	rax, rax, 4608				; 00001200H
	mov	rcx, QWORD PTR s$[rbp]
	lea	rax, QWORD PTR [rcx+rax+5248]
	movsxd	rcx, DWORD PTR i$[rbp]
	imul	rcx, rcx, 128				; 00000080H
	add	rax, rcx
	mov	rcx, QWORD PTR s$[rbp]
	add	rcx, 19072				; 00004a80H
	movsxd	rdx, DWORD PTR ch$[rbp]
	mov	rdi, QWORD PTR s$[rbp]
	lea	rdx, QWORD PTR [rdi+rdx*4+5240]
	movsxd	rdi, DWORD PTR ch$[rbp]
	imul	rdi, rdi, 2048				; 00000800H
	mov	rsi, QWORD PTR s$[rbp]
	lea	rdi, QWORD PTR [rsi+rdi+1144]
	mov	QWORD PTR [rsp+48], rax
	mov	rax, QWORD PTR s$[rbp]
	mov	eax, DWORD PTR [rax+1128]
	mov	DWORD PTR [rsp+40], eax
	mov	rax, QWORD PTR samples_ptr$[rbp]
	mov	QWORD PTR [rsp+32], rax
	mov	r9, rcx
	lea	r8, OFFSET FLAT:?window@@3PAFA
	mov	rcx, rdi
	call	?mp3_synth_filter@@YAXPEAFPEAH010HQEAH@Z ; mp3_synth_filter

; 2451 : 					s->synth_buf[ch], &(s->synth_buf_offset[ch]),
; 2452 : 					window, &s->dither_state,
; 2453 : 					samples_ptr, s->nb_channels,
; 2454 : 					s->sb_samples[ch][i]
; 2455 : 					);
; 2456 : 				samples_ptr += 32 * s->nb_channels;

	mov	rax, QWORD PTR s$[rbp]
	imul	eax, DWORD PTR [rax+1128], 32		; 00000020H
	cdqe
	mov	rcx, QWORD PTR samples_ptr$[rbp]
	lea	rax, QWORD PTR [rcx+rax*2]
	mov	QWORD PTR samples_ptr$[rbp], rax

; 2457 : 			}

	jmp	$LN5@mp3_decode
$LN6@mp3_decode:

; 2458 : 		}

	jmp	$LN2@mp3_decode
$LN3@mp3_decode:

; 2459 : 		return nb_frames * 32 * sizeof(uint16_t)* s->nb_channels;

	imul	eax, DWORD PTR nb_frames$[rbp], 32	; 00000020H
	cdqe
	shl	rax, 1
	mov	rcx, QWORD PTR s$[rbp]
	movsxd	rcx, DWORD PTR [rcx+1128]
	imul	rax, rcx

; 2460 : 	}

	lea	rsp, QWORD PTR [rbp+96]
	pop	rdi
	pop	rsi
	pop	rbp
	ret	0
?mp3_decode_main@@YAHPEAU_mp3_context@@PEAFPEBEH@Z ENDP	; mp3_decode_main
_TEXT	ENDS
; Function compile flags: /Odtp /ZI
; File C:\Users\paras\source\repos\grep-name\XenevaOS\Process\AudioPlayer\minimp3.cpp
;	COMDAT ?mp_decode_layer3@@YAHPEAU_mp3_context@@@Z
_TEXT	SEGMENT
nb_granules$ = 0
main_data_begin$ = 4
private_bits$ = 8
gr$ = 12
ch$ = 16
blocksplit_flag$ = 20
i$ = 24
j$ = 28
k$ = 32
n$ = 36
bits_pos$ = 40
g$ = 48
ptr$ = 56
region_address1$1 = 64
region_address2$2 = 68
l$3 = 72
sc$4 = 80
slen$5 = 88
slen1$6 = 92
slen2$7 = 96
tindex$8 = 100
tindex2$9 = 104
slen$10 = 112
sl$11 = 128
sf$12 = 132
tv532 = 200
tv488 = 200
tv481 = 200
tv422 = 200
tv384 = 200
tv328 = 200
s$ = 240
?mp_decode_layer3@@YAHPEAU_mp3_context@@@Z PROC		; mp_decode_layer3, COMDAT

; 2123 : 	static int mp_decode_layer3(mp3_context_t *s) {

	mov	QWORD PTR [rsp+8], rcx
	push	rbp
	push	rsi
	push	rdi
	sub	rsp, 256				; 00000100H
	lea	rbp, QWORD PTR [rsp+48]

; 2124 : 		int nb_granules, main_data_begin, private_bits;
; 2125 : 		int gr, ch, blocksplit_flag, i, j, k, n, bits_pos;
; 2126 : 		granule_t *g;
; 2127 : 		static granule_t granules[2][2];
; 2128 : 		static int16_t exponents[576];
; 2129 : 		const uint8_t *ptr;
; 2130 : 
; 2131 : 		if (s->lsf) {

	mov	rax, QWORD PTR s$[rbp]
	cmp	DWORD PTR [rax+1140], 0
	je	SHORT $LN59@mp_decode_

; 2132 : 			main_data_begin = get_bits(&s->gb, 8);

	mov	rax, QWORD PTR s$[rbp]
	add	rax, 1080				; 00000438H
	mov	edx, 8
	mov	rcx, rax
	call	?get_bits@@YAIPEAU_bitstream@@H@Z	; get_bits
	mov	DWORD PTR main_data_begin$[rbp], eax

; 2133 : 			private_bits = get_bits(&s->gb, s->nb_channels);

	mov	rax, QWORD PTR s$[rbp]
	add	rax, 1080				; 00000438H
	mov	rcx, QWORD PTR s$[rbp]
	mov	edx, DWORD PTR [rcx+1128]
	mov	rcx, rax
	call	?get_bits@@YAIPEAU_bitstream@@H@Z	; get_bits
	mov	DWORD PTR private_bits$[rbp], eax

; 2134 : 			nb_granules = 1;

	mov	DWORD PTR nb_granules$[rbp], 1

; 2135 : 		}

	jmp	$LN60@mp_decode_
$LN59@mp_decode_:

; 2136 : 		else {
; 2137 : 			main_data_begin = get_bits(&s->gb, 9);

	mov	rax, QWORD PTR s$[rbp]
	add	rax, 1080				; 00000438H
	mov	edx, 9
	mov	rcx, rax
	call	?get_bits@@YAIPEAU_bitstream@@H@Z	; get_bits
	mov	DWORD PTR main_data_begin$[rbp], eax

; 2138 : 			if (s->nb_channels == 2)

	mov	rax, QWORD PTR s$[rbp]
	cmp	DWORD PTR [rax+1128], 2
	jne	SHORT $LN61@mp_decode_

; 2139 : 				private_bits = get_bits(&s->gb, 3);

	mov	rax, QWORD PTR s$[rbp]
	add	rax, 1080				; 00000438H
	mov	edx, 3
	mov	rcx, rax
	call	?get_bits@@YAIPEAU_bitstream@@H@Z	; get_bits
	mov	DWORD PTR private_bits$[rbp], eax
	jmp	SHORT $LN62@mp_decode_
$LN61@mp_decode_:

; 2140 : 			else
; 2141 : 				private_bits = get_bits(&s->gb, 5);

	mov	rax, QWORD PTR s$[rbp]
	add	rax, 1080				; 00000438H
	mov	edx, 5
	mov	rcx, rax
	call	?get_bits@@YAIPEAU_bitstream@@H@Z	; get_bits
	mov	DWORD PTR private_bits$[rbp], eax
$LN62@mp_decode_:

; 2142 : 			nb_granules = 2;

	mov	DWORD PTR nb_granules$[rbp], 2

; 2143 : 			for (ch = 0; ch<s->nb_channels; ch++) {

	mov	DWORD PTR ch$[rbp], 0
	jmp	SHORT $LN4@mp_decode_
$LN2@mp_decode_:
	mov	eax, DWORD PTR ch$[rbp]
	inc	eax
	mov	DWORD PTR ch$[rbp], eax
$LN4@mp_decode_:
	mov	rax, QWORD PTR s$[rbp]
	mov	eax, DWORD PTR [rax+1128]
	cmp	DWORD PTR ch$[rbp], eax
	jge	SHORT $LN3@mp_decode_

; 2144 : 				granules[ch][0].scfsi = 0; /* all scale factors are transmitted */

	movsxd	rax, DWORD PTR ch$[rbp]
	imul	rax, rax, 4840				; 000012e8H
	lea	rcx, OFFSET FLAT:?granules@?1??mp_decode_layer3@@YAHPEAU_mp3_context@@@Z@4PAY01U_granule@@A
	add	rcx, rax
	mov	rax, rcx
	mov	ecx, 2420				; 00000974H
	imul	rcx, rcx, 0
	mov	BYTE PTR [rax+rcx], 0

; 2145 : 				granules[ch][1].scfsi = get_bits(&s->gb, 4);

	mov	rax, QWORD PTR s$[rbp]
	add	rax, 1080				; 00000438H
	mov	edx, 4
	mov	rcx, rax
	call	?get_bits@@YAIPEAU_bitstream@@H@Z	; get_bits
	movsxd	rcx, DWORD PTR ch$[rbp]
	imul	rcx, rcx, 4840				; 000012e8H
	lea	rdx, OFFSET FLAT:?granules@?1??mp_decode_layer3@@YAHPEAU_mp3_context@@@Z@4PAY01U_granule@@A
	add	rdx, rcx
	mov	rcx, rdx
	mov	edx, 2420				; 00000974H
	imul	rdx, rdx, 1
	mov	BYTE PTR [rcx+rdx], al

; 2146 : 			}

	jmp	SHORT $LN2@mp_decode_
$LN3@mp_decode_:
$LN60@mp_decode_:

; 2147 : 		}
; 2148 : 
; 2149 : 		for (gr = 0; gr<nb_granules; gr++) {

	mov	DWORD PTR gr$[rbp], 0
	jmp	SHORT $LN7@mp_decode_
$LN5@mp_decode_:
	mov	eax, DWORD PTR gr$[rbp]
	inc	eax
	mov	DWORD PTR gr$[rbp], eax
$LN7@mp_decode_:
	mov	eax, DWORD PTR nb_granules$[rbp]
	cmp	DWORD PTR gr$[rbp], eax
	jge	$LN6@mp_decode_

; 2150 : 			for (ch = 0; ch<s->nb_channels; ch++) {

	mov	DWORD PTR ch$[rbp], 0
	jmp	SHORT $LN10@mp_decode_
$LN8@mp_decode_:
	mov	eax, DWORD PTR ch$[rbp]
	inc	eax
	mov	DWORD PTR ch$[rbp], eax
$LN10@mp_decode_:
	mov	rax, QWORD PTR s$[rbp]
	mov	eax, DWORD PTR [rax+1128]
	cmp	DWORD PTR ch$[rbp], eax
	jge	$LN9@mp_decode_

; 2151 : 				g = &granules[ch][gr];

	movsxd	rax, DWORD PTR ch$[rbp]
	imul	rax, rax, 4840				; 000012e8H
	lea	rcx, OFFSET FLAT:?granules@?1??mp_decode_layer3@@YAHPEAU_mp3_context@@@Z@4PAY01U_granule@@A
	add	rcx, rax
	mov	rax, rcx
	movsxd	rcx, DWORD PTR gr$[rbp]
	imul	rcx, rcx, 2420				; 00000974H
	add	rax, rcx
	mov	QWORD PTR g$[rbp], rax

; 2152 : 				g->part2_3_length = get_bits(&s->gb, 12);

	mov	rax, QWORD PTR s$[rbp]
	add	rax, 1080				; 00000438H
	mov	edx, 12
	mov	rcx, rax
	call	?get_bits@@YAIPEAU_bitstream@@H@Z	; get_bits
	mov	rcx, QWORD PTR g$[rbp]
	mov	DWORD PTR [rcx+4], eax

; 2153 : 				g->big_values = get_bits(&s->gb, 9);

	mov	rax, QWORD PTR s$[rbp]
	add	rax, 1080				; 00000438H
	mov	edx, 9
	mov	rcx, rax
	call	?get_bits@@YAIPEAU_bitstream@@H@Z	; get_bits
	mov	rcx, QWORD PTR g$[rbp]
	mov	DWORD PTR [rcx+8], eax

; 2154 : 				g->global_gain = get_bits(&s->gb, 8);

	mov	rax, QWORD PTR s$[rbp]
	add	rax, 1080				; 00000438H
	mov	edx, 8
	mov	rcx, rax
	call	?get_bits@@YAIPEAU_bitstream@@H@Z	; get_bits
	mov	rcx, QWORD PTR g$[rbp]
	mov	DWORD PTR [rcx+12], eax

; 2155 : 				/* if MS stereo only is selected, we precompute the
; 2156 : 				1/sqrt(2) renormalization factor */
; 2157 : 				if ((s->mode_ext & (MODE_EXT_MS_STEREO | MODE_EXT_I_STEREO)) ==

	mov	rax, QWORD PTR s$[rbp]
	mov	eax, DWORD PTR [rax+1136]
	and	eax, 3
	cmp	eax, 2
	jne	SHORT $LN63@mp_decode_

; 2158 : 					MODE_EXT_MS_STEREO)
; 2159 : 					g->global_gain -= 2;

	mov	rax, QWORD PTR g$[rbp]
	mov	eax, DWORD PTR [rax+12]
	sub	eax, 2
	mov	rcx, QWORD PTR g$[rbp]
	mov	DWORD PTR [rcx+12], eax
$LN63@mp_decode_:

; 2160 : 				if (s->lsf)

	mov	rax, QWORD PTR s$[rbp]
	cmp	DWORD PTR [rax+1140], 0
	je	SHORT $LN64@mp_decode_

; 2161 : 					g->scalefac_compress = get_bits(&s->gb, 9);

	mov	rax, QWORD PTR s$[rbp]
	add	rax, 1080				; 00000438H
	mov	edx, 9
	mov	rcx, rax
	call	?get_bits@@YAIPEAU_bitstream@@H@Z	; get_bits
	mov	rcx, QWORD PTR g$[rbp]
	mov	DWORD PTR [rcx+16], eax
	jmp	SHORT $LN65@mp_decode_
$LN64@mp_decode_:

; 2162 : 				else
; 2163 : 					g->scalefac_compress = get_bits(&s->gb, 4);

	mov	rax, QWORD PTR s$[rbp]
	add	rax, 1080				; 00000438H
	mov	edx, 4
	mov	rcx, rax
	call	?get_bits@@YAIPEAU_bitstream@@H@Z	; get_bits
	mov	rcx, QWORD PTR g$[rbp]
	mov	DWORD PTR [rcx+16], eax
$LN65@mp_decode_:

; 2164 : 				blocksplit_flag = get_bits(&s->gb, 1);

	mov	rax, QWORD PTR s$[rbp]
	add	rax, 1080				; 00000438H
	mov	edx, 1
	mov	rcx, rax
	call	?get_bits@@YAIPEAU_bitstream@@H@Z	; get_bits
	mov	DWORD PTR blocksplit_flag$[rbp], eax

; 2165 : 				if (blocksplit_flag) {

	cmp	DWORD PTR blocksplit_flag$[rbp], 0
	je	$LN66@mp_decode_

; 2166 : 					g->block_type = get_bits(&s->gb, 2);

	mov	rax, QWORD PTR s$[rbp]
	add	rax, 1080				; 00000438H
	mov	edx, 2
	mov	rcx, rax
	call	?get_bits@@YAIPEAU_bitstream@@H@Z	; get_bits
	mov	rcx, QWORD PTR g$[rbp]
	mov	BYTE PTR [rcx+20], al

; 2167 : 					if (g->block_type == 0)

	mov	rax, QWORD PTR g$[rbp]
	movzx	eax, BYTE PTR [rax+20]
	test	eax, eax
	jne	SHORT $LN68@mp_decode_

; 2168 : 						return -1;

	mov	eax, -1
	jmp	$LN1@mp_decode_
$LN68@mp_decode_:

; 2169 : 					g->switch_point = get_bits(&s->gb, 1);

	mov	rax, QWORD PTR s$[rbp]
	add	rax, 1080				; 00000438H
	mov	edx, 1
	mov	rcx, rax
	call	?get_bits@@YAIPEAU_bitstream@@H@Z	; get_bits
	mov	rcx, QWORD PTR g$[rbp]
	mov	BYTE PTR [rcx+21], al

; 2170 : 					for (i = 0; i<2; i++)

	mov	DWORD PTR i$[rbp], 0
	jmp	SHORT $LN13@mp_decode_
$LN11@mp_decode_:
	mov	eax, DWORD PTR i$[rbp]
	inc	eax
	mov	DWORD PTR i$[rbp], eax
$LN13@mp_decode_:
	cmp	DWORD PTR i$[rbp], 2
	jge	SHORT $LN12@mp_decode_

; 2171 : 						g->table_select[i] = get_bits(&s->gb, 5);

	mov	rax, QWORD PTR s$[rbp]
	add	rax, 1080				; 00000438H
	mov	edx, 5
	mov	rcx, rax
	call	?get_bits@@YAIPEAU_bitstream@@H@Z	; get_bits
	movsxd	rcx, DWORD PTR i$[rbp]
	mov	rdx, QWORD PTR g$[rbp]
	mov	DWORD PTR [rdx+rcx*4+24], eax
	jmp	SHORT $LN11@mp_decode_
$LN12@mp_decode_:

; 2172 : 					for (i = 0; i<3; i++)

	mov	DWORD PTR i$[rbp], 0
	jmp	SHORT $LN16@mp_decode_
$LN14@mp_decode_:
	mov	eax, DWORD PTR i$[rbp]
	inc	eax
	mov	DWORD PTR i$[rbp], eax
$LN16@mp_decode_:
	cmp	DWORD PTR i$[rbp], 3
	jge	SHORT $LN15@mp_decode_

; 2173 : 						g->subblock_gain[i] = get_bits(&s->gb, 3);

	mov	rax, QWORD PTR s$[rbp]
	add	rax, 1080				; 00000438H
	mov	edx, 3
	mov	rcx, rax
	call	?get_bits@@YAIPEAU_bitstream@@H@Z	; get_bits
	movsxd	rcx, DWORD PTR i$[rbp]
	mov	rdx, QWORD PTR g$[rbp]
	mov	DWORD PTR [rdx+rcx*4+36], eax
	jmp	SHORT $LN14@mp_decode_
$LN15@mp_decode_:

; 2174 : 					/* compute huffman coded region sizes */
; 2175 : 					if (g->block_type == 2)

	mov	rax, QWORD PTR g$[rbp]
	movzx	eax, BYTE PTR [rax+20]
	cmp	eax, 2
	jne	SHORT $LN69@mp_decode_

; 2176 : 						g->region_size[0] = (36 / 2);

	mov	eax, 4
	imul	rax, rax, 0
	mov	rcx, QWORD PTR g$[rbp]
	mov	DWORD PTR [rcx+rax+52], 18
	jmp	SHORT $LN70@mp_decode_
$LN69@mp_decode_:

; 2177 : 					else {
; 2178 : 						if (s->sample_rate_index <= 2)

	mov	rax, QWORD PTR s$[rbp]
	cmp	DWORD PTR [rax+1068], 2
	jg	SHORT $LN71@mp_decode_

; 2179 : 							g->region_size[0] = (36 / 2);

	mov	eax, 4
	imul	rax, rax, 0
	mov	rcx, QWORD PTR g$[rbp]
	mov	DWORD PTR [rcx+rax+52], 18
	jmp	SHORT $LN72@mp_decode_
$LN71@mp_decode_:

; 2180 : 						else if (s->sample_rate_index != 8)

	mov	rax, QWORD PTR s$[rbp]
	cmp	DWORD PTR [rax+1068], 8
	je	SHORT $LN73@mp_decode_

; 2181 : 							g->region_size[0] = (54 / 2);

	mov	eax, 4
	imul	rax, rax, 0
	mov	rcx, QWORD PTR g$[rbp]
	mov	DWORD PTR [rcx+rax+52], 27
	jmp	SHORT $LN74@mp_decode_
$LN73@mp_decode_:

; 2182 : 						else
; 2183 : 							g->region_size[0] = (108 / 2);

	mov	eax, 4
	imul	rax, rax, 0
	mov	rcx, QWORD PTR g$[rbp]
	mov	DWORD PTR [rcx+rax+52], 54		; 00000036H
$LN74@mp_decode_:
$LN72@mp_decode_:
$LN70@mp_decode_:

; 2184 : 					}
; 2185 : 					g->region_size[1] = (576 / 2);

	mov	eax, 4
	imul	rax, rax, 1
	mov	rcx, QWORD PTR g$[rbp]
	mov	DWORD PTR [rcx+rax+52], 288		; 00000120H

; 2186 : 				}

	jmp	$LN67@mp_decode_
$LN66@mp_decode_:

; 2187 : 				else {
; 2188 : 					int region_address1, region_address2, l;
; 2189 : 					g->block_type = 0;

	mov	rax, QWORD PTR g$[rbp]
	mov	BYTE PTR [rax+20], 0

; 2190 : 					g->switch_point = 0;

	mov	rax, QWORD PTR g$[rbp]
	mov	BYTE PTR [rax+21], 0

; 2191 : 					for (i = 0; i<3; i++)

	mov	DWORD PTR i$[rbp], 0
	jmp	SHORT $LN19@mp_decode_
$LN17@mp_decode_:
	mov	eax, DWORD PTR i$[rbp]
	inc	eax
	mov	DWORD PTR i$[rbp], eax
$LN19@mp_decode_:
	cmp	DWORD PTR i$[rbp], 3
	jge	SHORT $LN18@mp_decode_

; 2192 : 						g->table_select[i] = get_bits(&s->gb, 5);

	mov	rax, QWORD PTR s$[rbp]
	add	rax, 1080				; 00000438H
	mov	edx, 5
	mov	rcx, rax
	call	?get_bits@@YAIPEAU_bitstream@@H@Z	; get_bits
	movsxd	rcx, DWORD PTR i$[rbp]
	mov	rdx, QWORD PTR g$[rbp]
	mov	DWORD PTR [rdx+rcx*4+24], eax
	jmp	SHORT $LN17@mp_decode_
$LN18@mp_decode_:

; 2193 : 					/* compute huffman coded region sizes */
; 2194 : 					region_address1 = get_bits(&s->gb, 4);

	mov	rax, QWORD PTR s$[rbp]
	add	rax, 1080				; 00000438H
	mov	edx, 4
	mov	rcx, rax
	call	?get_bits@@YAIPEAU_bitstream@@H@Z	; get_bits
	mov	DWORD PTR region_address1$1[rbp], eax

; 2195 : 					region_address2 = get_bits(&s->gb, 3);

	mov	rax, QWORD PTR s$[rbp]
	add	rax, 1080				; 00000438H
	mov	edx, 3
	mov	rcx, rax
	call	?get_bits@@YAIPEAU_bitstream@@H@Z	; get_bits
	mov	DWORD PTR region_address2$2[rbp], eax

; 2196 : 					g->region_size[0] =

	mov	rax, QWORD PTR s$[rbp]
	movsxd	rax, DWORD PTR [rax+1068]
	imul	rax, rax, 46				; 0000002eH
	lea	rcx, OFFSET FLAT:?band_index_long@@3PAY0BH@GA
	add	rcx, rax
	mov	rax, rcx
	mov	ecx, DWORD PTR region_address1$1[rbp]
	inc	ecx
	movsxd	rcx, ecx
	movzx	eax, WORD PTR [rax+rcx*2]
	sar	eax, 1
	mov	ecx, 4
	imul	rcx, rcx, 0
	mov	rdx, QWORD PTR g$[rbp]
	mov	DWORD PTR [rdx+rcx+52], eax

; 2197 : 						band_index_long[s->sample_rate_index][region_address1 + 1] >> 1;
; 2198 : 					l = region_address1 + region_address2 + 2;

	mov	eax, DWORD PTR region_address1$1[rbp]
	mov	ecx, DWORD PTR region_address2$2[rbp]
	lea	eax, DWORD PTR [rax+rcx+2]
	mov	DWORD PTR l$3[rbp], eax

; 2199 : 					/* should not overflow */
; 2200 : 					if (l > 22)

	cmp	DWORD PTR l$3[rbp], 22
	jle	SHORT $LN75@mp_decode_

; 2201 : 						l = 22;

	mov	DWORD PTR l$3[rbp], 22
$LN75@mp_decode_:

; 2202 : 					g->region_size[1] =

	mov	rax, QWORD PTR s$[rbp]
	movsxd	rax, DWORD PTR [rax+1068]
	imul	rax, rax, 46				; 0000002eH
	lea	rcx, OFFSET FLAT:?band_index_long@@3PAY0BH@GA
	add	rcx, rax
	mov	rax, rcx
	movsxd	rcx, DWORD PTR l$3[rbp]
	movzx	eax, WORD PTR [rax+rcx*2]
	sar	eax, 1
	mov	ecx, 4
	imul	rcx, rcx, 1
	mov	rdx, QWORD PTR g$[rbp]
	mov	DWORD PTR [rdx+rcx+52], eax
$LN67@mp_decode_:

; 2203 : 						band_index_long[s->sample_rate_index][l] >> 1;
; 2204 : 				}
; 2205 : 				/* convert region offsets to region sizes and truncate
; 2206 : 				size to big_values */
; 2207 : 				g->region_size[2] = (576 / 2);

	mov	eax, 4
	imul	rax, rax, 2
	mov	rcx, QWORD PTR g$[rbp]
	mov	DWORD PTR [rcx+rax+52], 288		; 00000120H

; 2208 : 				j = 0;

	mov	DWORD PTR j$[rbp], 0

; 2209 : 				for (i = 0; i<3; i++) {

	mov	DWORD PTR i$[rbp], 0
	jmp	SHORT $LN22@mp_decode_
$LN20@mp_decode_:
	mov	eax, DWORD PTR i$[rbp]
	inc	eax
	mov	DWORD PTR i$[rbp], eax
$LN22@mp_decode_:
	cmp	DWORD PTR i$[rbp], 3
	jge	SHORT $LN21@mp_decode_

; 2210 : 					k = g->region_size[i];

	movsxd	rax, DWORD PTR i$[rbp]
	mov	rcx, QWORD PTR g$[rbp]
	mov	eax, DWORD PTR [rcx+rax*4+52]
	mov	DWORD PTR k$[rbp], eax

; 2211 : 					if (g->big_values < k) k = g->big_values;

	mov	rax, QWORD PTR g$[rbp]
	mov	ecx, DWORD PTR k$[rbp]
	cmp	DWORD PTR [rax+8], ecx
	jge	SHORT $LN76@mp_decode_
	mov	rax, QWORD PTR g$[rbp]
	mov	eax, DWORD PTR [rax+8]
	mov	DWORD PTR k$[rbp], eax
$LN76@mp_decode_:

; 2212 : 					g->region_size[i] = k - j;

	mov	eax, DWORD PTR j$[rbp]
	mov	ecx, DWORD PTR k$[rbp]
	sub	ecx, eax
	mov	eax, ecx
	movsxd	rcx, DWORD PTR i$[rbp]
	mov	rdx, QWORD PTR g$[rbp]
	mov	DWORD PTR [rdx+rcx*4+52], eax

; 2213 : 					j = k;

	mov	eax, DWORD PTR k$[rbp]
	mov	DWORD PTR j$[rbp], eax

; 2214 : 				}

	jmp	SHORT $LN20@mp_decode_
$LN21@mp_decode_:

; 2215 : 
; 2216 : 				/* compute band indexes */
; 2217 : 				if (g->block_type == 2) {

	mov	rax, QWORD PTR g$[rbp]
	movzx	eax, BYTE PTR [rax+20]
	cmp	eax, 2
	jne	$LN77@mp_decode_

; 2218 : 					if (g->switch_point) {

	mov	rax, QWORD PTR g$[rbp]
	movzx	eax, BYTE PTR [rax+21]
	test	eax, eax
	je	SHORT $LN79@mp_decode_

; 2219 : 						/* if switched mode, we handle the 36 first samples as
; 2220 : 						long blocks.  For 8000Hz, we handle the 48 first
; 2221 : 						exponents as long blocks (XXX: check this!) */
; 2222 : 						if (s->sample_rate_index <= 2)

	mov	rax, QWORD PTR s$[rbp]
	cmp	DWORD PTR [rax+1068], 2
	jg	SHORT $LN81@mp_decode_

; 2223 : 							g->long_end = 8;

	mov	rax, QWORD PTR g$[rbp]
	mov	DWORD PTR [rax+72], 8
	jmp	SHORT $LN82@mp_decode_
$LN81@mp_decode_:

; 2224 : 						else if (s->sample_rate_index != 8)

	mov	rax, QWORD PTR s$[rbp]
	cmp	DWORD PTR [rax+1068], 8
	je	SHORT $LN83@mp_decode_

; 2225 : 							g->long_end = 6;

	mov	rax, QWORD PTR g$[rbp]
	mov	DWORD PTR [rax+72], 6
	jmp	SHORT $LN84@mp_decode_
$LN83@mp_decode_:

; 2226 : 						else
; 2227 : 							g->long_end = 4; /* 8000 Hz */

	mov	rax, QWORD PTR g$[rbp]
	mov	DWORD PTR [rax+72], 4
$LN84@mp_decode_:
$LN82@mp_decode_:

; 2228 : 
; 2229 : 						g->short_start = 2 + (s->sample_rate_index != 8);

	mov	rax, QWORD PTR s$[rbp]
	cmp	DWORD PTR [rax+1068], 8
	je	SHORT $LN116@mp_decode_
	mov	DWORD PTR tv328[rbp], 1
	jmp	SHORT $LN117@mp_decode_
$LN116@mp_decode_:
	mov	DWORD PTR tv328[rbp], 0
$LN117@mp_decode_:
	mov	eax, DWORD PTR tv328[rbp]
	add	eax, 2
	mov	rcx, QWORD PTR g$[rbp]
	mov	DWORD PTR [rcx+68], eax

; 2230 : 					}

	jmp	SHORT $LN80@mp_decode_
$LN79@mp_decode_:

; 2231 : 					else {
; 2232 : 						g->long_end = 0;

	mov	rax, QWORD PTR g$[rbp]
	mov	DWORD PTR [rax+72], 0

; 2233 : 						g->short_start = 0;

	mov	rax, QWORD PTR g$[rbp]
	mov	DWORD PTR [rax+68], 0
$LN80@mp_decode_:

; 2234 : 					}
; 2235 : 				}

	jmp	SHORT $LN78@mp_decode_
$LN77@mp_decode_:

; 2236 : 				else {
; 2237 : 					g->short_start = 13;

	mov	rax, QWORD PTR g$[rbp]
	mov	DWORD PTR [rax+68], 13

; 2238 : 					g->long_end = 22;

	mov	rax, QWORD PTR g$[rbp]
	mov	DWORD PTR [rax+72], 22
$LN78@mp_decode_:

; 2239 : 				}
; 2240 : 
; 2241 : 				g->preflag = 0;

	mov	rax, QWORD PTR g$[rbp]
	mov	DWORD PTR [rax+64], 0

; 2242 : 				if (!s->lsf)

	mov	rax, QWORD PTR s$[rbp]
	cmp	DWORD PTR [rax+1140], 0
	jne	SHORT $LN85@mp_decode_

; 2243 : 					g->preflag = get_bits(&s->gb, 1);

	mov	rax, QWORD PTR s$[rbp]
	add	rax, 1080				; 00000438H
	mov	edx, 1
	mov	rcx, rax
	call	?get_bits@@YAIPEAU_bitstream@@H@Z	; get_bits
	mov	rcx, QWORD PTR g$[rbp]
	mov	DWORD PTR [rcx+64], eax
$LN85@mp_decode_:

; 2244 : 				g->scalefac_scale = get_bits(&s->gb, 1);

	mov	rax, QWORD PTR s$[rbp]
	add	rax, 1080				; 00000438H
	mov	edx, 1
	mov	rcx, rax
	call	?get_bits@@YAIPEAU_bitstream@@H@Z	; get_bits
	mov	rcx, QWORD PTR g$[rbp]
	mov	BYTE PTR [rcx+48], al

; 2245 : 				g->count1table_select = get_bits(&s->gb, 1);

	mov	rax, QWORD PTR s$[rbp]
	add	rax, 1080				; 00000438H
	mov	edx, 1
	mov	rcx, rax
	call	?get_bits@@YAIPEAU_bitstream@@H@Z	; get_bits
	mov	rcx, QWORD PTR g$[rbp]
	mov	BYTE PTR [rcx+49], al

; 2246 : 			}

	jmp	$LN8@mp_decode_
$LN9@mp_decode_:

; 2247 : 		}

	jmp	$LN5@mp_decode_
$LN6@mp_decode_:

; 2248 : 
; 2249 : 		ptr = s->gb.buffer + (get_bits_count(&s->gb) >> 3);

	mov	rax, QWORD PTR s$[rbp]
	add	rax, 1080				; 00000438H
	mov	rcx, rax
	call	?get_bits_count@@YAHPEAU_bitstream@@@Z	; get_bits_count
	sar	eax, 3
	cdqe
	mov	rcx, QWORD PTR s$[rbp]
	add	rax, QWORD PTR [rcx+1080]
	mov	QWORD PTR ptr$[rbp], rax

; 2250 : 		/* now we get bits from the main_data_begin offset */
; 2251 : 		if (main_data_begin > s->last_buf_size){

	mov	rax, QWORD PTR s$[rbp]
	mov	eax, DWORD PTR [rax+1048]
	cmp	DWORD PTR main_data_begin$[rbp], eax
	jle	SHORT $LN86@mp_decode_

; 2252 : 			s->last_buf_size = main_data_begin;

	mov	rax, QWORD PTR s$[rbp]
	mov	ecx, DWORD PTR main_data_begin$[rbp]
	mov	DWORD PTR [rax+1048], ecx
$LN86@mp_decode_:

; 2253 : 		}
; 2254 : 
; 2255 : 		memcpy(s->last_buf + s->last_buf_size, (void*)ptr, EXTRABYTES);

	mov	rax, QWORD PTR s$[rbp]
	movsxd	rax, DWORD PTR [rax+1048]
	mov	rcx, QWORD PTR s$[rbp]
	add	rcx, rax
	mov	rax, rcx
	mov	r8d, 24
	mov	rdx, QWORD PTR ptr$[rbp]
	mov	rcx, rax
	call	memcpy

; 2256 : 		s->in_gb = s->gb;

	mov	rax, QWORD PTR s$[rbp]
	mov	rcx, QWORD PTR s$[rbp]
	lea	rdi, QWORD PTR [rax+1104]
	lea	rsi, QWORD PTR [rcx+1080]
	mov	ecx, 24
	rep movsb

; 2257 : 		init_get_bits(&s->gb, s->last_buf + s->last_buf_size - main_data_begin, main_data_begin * 8);

	mov	eax, DWORD PTR main_data_begin$[rbp]
	shl	eax, 3
	mov	rcx, QWORD PTR s$[rbp]
	movsxd	rcx, DWORD PTR [rcx+1048]
	mov	rdx, QWORD PTR s$[rbp]
	add	rdx, rcx
	mov	rcx, rdx
	movsxd	rdx, DWORD PTR main_data_begin$[rbp]
	sub	rcx, rdx
	mov	rdx, QWORD PTR s$[rbp]
	add	rdx, 1080				; 00000438H
	mov	QWORD PTR tv384[rbp], rdx
	mov	r8d, eax
	mov	rdx, rcx
	mov	rax, QWORD PTR tv384[rbp]
	mov	rcx, rax
	call	?init_get_bits@@YAXPEAU_bitstream@@PEBEH@Z ; init_get_bits

; 2258 : 
; 2259 : 		for (gr = 0; gr<nb_granules; gr++) {

	mov	DWORD PTR gr$[rbp], 0
	jmp	SHORT $LN25@mp_decode_
$LN23@mp_decode_:
	mov	eax, DWORD PTR gr$[rbp]
	inc	eax
	mov	DWORD PTR gr$[rbp], eax
$LN25@mp_decode_:
	mov	eax, DWORD PTR nb_granules$[rbp]
	cmp	DWORD PTR gr$[rbp], eax
	jge	$LN24@mp_decode_

; 2260 : 			for (ch = 0; ch<s->nb_channels; ch++) {

	mov	DWORD PTR ch$[rbp], 0
	jmp	SHORT $LN28@mp_decode_
$LN26@mp_decode_:
	mov	eax, DWORD PTR ch$[rbp]
	inc	eax
	mov	DWORD PTR ch$[rbp], eax
$LN28@mp_decode_:
	mov	rax, QWORD PTR s$[rbp]
	mov	eax, DWORD PTR [rax+1128]
	cmp	DWORD PTR ch$[rbp], eax
	jge	$LN27@mp_decode_

; 2261 : 				g = &granules[ch][gr];

	movsxd	rax, DWORD PTR ch$[rbp]
	imul	rax, rax, 4840				; 000012e8H
	lea	rcx, OFFSET FLAT:?granules@?1??mp_decode_layer3@@YAHPEAU_mp3_context@@@Z@4PAY01U_granule@@A
	add	rcx, rax
	mov	rax, rcx
	movsxd	rcx, DWORD PTR gr$[rbp]
	imul	rcx, rcx, 2420				; 00000974H
	add	rax, rcx
	mov	QWORD PTR g$[rbp], rax

; 2262 : 
; 2263 : 				bits_pos = get_bits_count(&s->gb);

	mov	rax, QWORD PTR s$[rbp]
	add	rax, 1080				; 00000438H
	mov	rcx, rax
	call	?get_bits_count@@YAHPEAU_bitstream@@@Z	; get_bits_count
	mov	DWORD PTR bits_pos$[rbp], eax

; 2264 : 
; 2265 : 				if (!s->lsf) {

	mov	rax, QWORD PTR s$[rbp]
	cmp	DWORD PTR [rax+1140], 0
	jne	$LN87@mp_decode_

; 2266 : 					uint8_t *sc;
; 2267 : 					int slen, slen1, slen2;
; 2268 : 
; 2269 : 					/* MPEG1 scale factors */
; 2270 : 					slen1 = slen_table[0][g->scalefac_compress];

	mov	eax, 16
	imul	rax, rax, 0
	lea	rcx, OFFSET FLAT:?slen_table@@3QAY0BA@$$CBEA
	add	rcx, rax
	mov	rax, rcx
	mov	rcx, QWORD PTR g$[rbp]
	movsxd	rcx, DWORD PTR [rcx+16]
	movzx	eax, BYTE PTR [rax+rcx]
	mov	DWORD PTR slen1$6[rbp], eax

; 2271 : 					slen2 = slen_table[1][g->scalefac_compress];

	mov	eax, 16
	imul	rax, rax, 1
	lea	rcx, OFFSET FLAT:?slen_table@@3QAY0BA@$$CBEA
	add	rcx, rax
	mov	rax, rcx
	mov	rcx, QWORD PTR g$[rbp]
	movsxd	rcx, DWORD PTR [rcx+16]
	movzx	eax, BYTE PTR [rax+rcx]
	mov	DWORD PTR slen2$7[rbp], eax

; 2272 : 					if (g->block_type == 2) {

	mov	rax, QWORD PTR g$[rbp]
	movzx	eax, BYTE PTR [rax+20]
	cmp	eax, 2
	jne	$LN89@mp_decode_

; 2273 : 						n = g->switch_point ? 17 : 18;

	mov	rax, QWORD PTR g$[rbp]
	movzx	eax, BYTE PTR [rax+21]
	test	eax, eax
	je	SHORT $LN118@mp_decode_
	mov	DWORD PTR tv422[rbp], 17
	jmp	SHORT $LN119@mp_decode_
$LN118@mp_decode_:
	mov	DWORD PTR tv422[rbp], 18
$LN119@mp_decode_:
	mov	eax, DWORD PTR tv422[rbp]
	mov	DWORD PTR n$[rbp], eax

; 2274 : 						j = 0;

	mov	DWORD PTR j$[rbp], 0

; 2275 : 						if (slen1){

	cmp	DWORD PTR slen1$6[rbp], 0
	je	SHORT $LN91@mp_decode_

; 2276 : 							for (i = 0; i<n; i++)

	mov	DWORD PTR i$[rbp], 0
	jmp	SHORT $LN31@mp_decode_
$LN29@mp_decode_:
	mov	eax, DWORD PTR i$[rbp]
	inc	eax
	mov	DWORD PTR i$[rbp], eax
$LN31@mp_decode_:
	mov	eax, DWORD PTR n$[rbp]
	cmp	DWORD PTR i$[rbp], eax
	jge	SHORT $LN30@mp_decode_

; 2277 : 								g->scale_factors[j++] = get_bits(&s->gb, slen1);

	mov	rax, QWORD PTR s$[rbp]
	add	rax, 1080				; 00000438H
	mov	edx, DWORD PTR slen1$6[rbp]
	mov	rcx, rax
	call	?get_bits@@YAIPEAU_bitstream@@H@Z	; get_bits
	movsxd	rcx, DWORD PTR j$[rbp]
	mov	rdx, QWORD PTR g$[rbp]
	mov	BYTE PTR [rdx+rcx+76], al
	mov	eax, DWORD PTR j$[rbp]
	inc	eax
	mov	DWORD PTR j$[rbp], eax
	jmp	SHORT $LN29@mp_decode_
$LN30@mp_decode_:

; 2278 : 						}

	jmp	SHORT $LN92@mp_decode_
$LN91@mp_decode_:

; 2279 : 						else{
; 2280 : 							libc_memset((void*)&g->scale_factors[j], 0, n);

	movsxd	rax, DWORD PTR n$[rbp]
	movsxd	rcx, DWORD PTR j$[rbp]
	mov	rdx, QWORD PTR g$[rbp]
	lea	rcx, QWORD PTR [rdx+rcx+76]
	mov	r8, rax
	xor	edx, edx
	call	memset

; 2281 : 							j += n;

	mov	eax, DWORD PTR n$[rbp]
	mov	ecx, DWORD PTR j$[rbp]
	add	ecx, eax
	mov	eax, ecx
	mov	DWORD PTR j$[rbp], eax
$LN92@mp_decode_:

; 2282 : 							//                        for(i=0;i<n;i++)
; 2283 : 							//                            g->scale_factors[j++] = 0;
; 2284 : 						}
; 2285 : 						if (slen2){

	cmp	DWORD PTR slen2$7[rbp], 0
	je	SHORT $LN93@mp_decode_

; 2286 : 							for (i = 0; i<18; i++)

	mov	DWORD PTR i$[rbp], 0
	jmp	SHORT $LN34@mp_decode_
$LN32@mp_decode_:
	mov	eax, DWORD PTR i$[rbp]
	inc	eax
	mov	DWORD PTR i$[rbp], eax
$LN34@mp_decode_:
	cmp	DWORD PTR i$[rbp], 18
	jge	SHORT $LN33@mp_decode_

; 2287 : 								g->scale_factors[j++] = get_bits(&s->gb, slen2);

	mov	rax, QWORD PTR s$[rbp]
	add	rax, 1080				; 00000438H
	mov	edx, DWORD PTR slen2$7[rbp]
	mov	rcx, rax
	call	?get_bits@@YAIPEAU_bitstream@@H@Z	; get_bits
	movsxd	rcx, DWORD PTR j$[rbp]
	mov	rdx, QWORD PTR g$[rbp]
	mov	BYTE PTR [rdx+rcx+76], al
	mov	eax, DWORD PTR j$[rbp]
	inc	eax
	mov	DWORD PTR j$[rbp], eax
	jmp	SHORT $LN32@mp_decode_
$LN33@mp_decode_:

; 2288 : 							for (i = 0; i<3; i++)

	mov	DWORD PTR i$[rbp], 0
	jmp	SHORT $LN37@mp_decode_
$LN35@mp_decode_:
	mov	eax, DWORD PTR i$[rbp]
	inc	eax
	mov	DWORD PTR i$[rbp], eax
$LN37@mp_decode_:
	cmp	DWORD PTR i$[rbp], 3
	jge	SHORT $LN36@mp_decode_

; 2289 : 								g->scale_factors[j++] = 0;

	movsxd	rax, DWORD PTR j$[rbp]
	mov	rcx, QWORD PTR g$[rbp]
	mov	BYTE PTR [rcx+rax+76], 0
	mov	eax, DWORD PTR j$[rbp]
	inc	eax
	mov	DWORD PTR j$[rbp], eax
	jmp	SHORT $LN35@mp_decode_
$LN36@mp_decode_:

; 2290 : 						}

	jmp	SHORT $LN94@mp_decode_
$LN93@mp_decode_:

; 2291 : 						else{
; 2292 : 							for (i = 0; i<21; i++)

	mov	DWORD PTR i$[rbp], 0
	jmp	SHORT $LN40@mp_decode_
$LN38@mp_decode_:
	mov	eax, DWORD PTR i$[rbp]
	inc	eax
	mov	DWORD PTR i$[rbp], eax
$LN40@mp_decode_:
	cmp	DWORD PTR i$[rbp], 21
	jge	SHORT $LN39@mp_decode_

; 2293 : 								g->scale_factors[j++] = 0;

	movsxd	rax, DWORD PTR j$[rbp]
	mov	rcx, QWORD PTR g$[rbp]
	mov	BYTE PTR [rcx+rax+76], 0
	mov	eax, DWORD PTR j$[rbp]
	inc	eax
	mov	DWORD PTR j$[rbp], eax
	jmp	SHORT $LN38@mp_decode_
$LN39@mp_decode_:
$LN94@mp_decode_:

; 2294 : 						}
; 2295 : 					}

	jmp	$LN90@mp_decode_
$LN89@mp_decode_:

; 2296 : 					else {
; 2297 : 						sc = granules[ch][0].scale_factors;

	movsxd	rax, DWORD PTR ch$[rbp]
	imul	rax, rax, 4840				; 000012e8H
	lea	rcx, OFFSET FLAT:?granules@?1??mp_decode_layer3@@YAHPEAU_mp3_context@@@Z@4PAY01U_granule@@A
	add	rcx, rax
	mov	rax, rcx
	mov	ecx, 2420				; 00000974H
	imul	rcx, rcx, 0
	lea	rax, QWORD PTR [rax+rcx+76]
	mov	QWORD PTR sc$4[rbp], rax

; 2298 : 						j = 0;

	mov	DWORD PTR j$[rbp], 0

; 2299 : 						for (k = 0; k<4; k++) {

	mov	DWORD PTR k$[rbp], 0
	jmp	SHORT $LN43@mp_decode_
$LN41@mp_decode_:
	mov	eax, DWORD PTR k$[rbp]
	inc	eax
	mov	DWORD PTR k$[rbp], eax
$LN43@mp_decode_:
	cmp	DWORD PTR k$[rbp], 4
	jge	$LN42@mp_decode_

; 2300 : 							n = (k == 0 ? 6 : 5);

	cmp	DWORD PTR k$[rbp], 0
	jne	SHORT $LN120@mp_decode_
	mov	DWORD PTR tv481[rbp], 6
	jmp	SHORT $LN121@mp_decode_
$LN120@mp_decode_:
	mov	DWORD PTR tv481[rbp], 5
$LN121@mp_decode_:
	mov	eax, DWORD PTR tv481[rbp]
	mov	DWORD PTR n$[rbp], eax

; 2301 : 							if ((g->scfsi & (0x8 >> k)) == 0) {

	mov	rax, QWORD PTR g$[rbp]
	movzx	eax, BYTE PTR [rax]
	mov	ecx, DWORD PTR k$[rbp]
	mov	edx, 8
	sar	edx, cl
	mov	ecx, edx
	and	eax, ecx
	test	eax, eax
	jne	$LN95@mp_decode_

; 2302 : 								slen = (k < 2) ? slen1 : slen2;

	cmp	DWORD PTR k$[rbp], 2
	jge	SHORT $LN122@mp_decode_
	mov	eax, DWORD PTR slen1$6[rbp]
	mov	DWORD PTR tv488[rbp], eax
	jmp	SHORT $LN123@mp_decode_
$LN122@mp_decode_:
	mov	eax, DWORD PTR slen2$7[rbp]
	mov	DWORD PTR tv488[rbp], eax
$LN123@mp_decode_:
	mov	eax, DWORD PTR tv488[rbp]
	mov	DWORD PTR slen$5[rbp], eax

; 2303 : 								if (slen){

	cmp	DWORD PTR slen$5[rbp], 0
	je	SHORT $LN97@mp_decode_

; 2304 : 									for (i = 0; i<n; i++)

	mov	DWORD PTR i$[rbp], 0
	jmp	SHORT $LN46@mp_decode_
$LN44@mp_decode_:
	mov	eax, DWORD PTR i$[rbp]
	inc	eax
	mov	DWORD PTR i$[rbp], eax
$LN46@mp_decode_:
	mov	eax, DWORD PTR n$[rbp]
	cmp	DWORD PTR i$[rbp], eax
	jge	SHORT $LN45@mp_decode_

; 2305 : 										g->scale_factors[j++] = get_bits(&s->gb, slen);

	mov	rax, QWORD PTR s$[rbp]
	add	rax, 1080				; 00000438H
	mov	edx, DWORD PTR slen$5[rbp]
	mov	rcx, rax
	call	?get_bits@@YAIPEAU_bitstream@@H@Z	; get_bits
	movsxd	rcx, DWORD PTR j$[rbp]
	mov	rdx, QWORD PTR g$[rbp]
	mov	BYTE PTR [rdx+rcx+76], al
	mov	eax, DWORD PTR j$[rbp]
	inc	eax
	mov	DWORD PTR j$[rbp], eax
	jmp	SHORT $LN44@mp_decode_
$LN45@mp_decode_:

; 2306 : 								}

	jmp	SHORT $LN98@mp_decode_
$LN97@mp_decode_:

; 2307 : 								else{
; 2308 : 									libc_memset((void*)&g->scale_factors[j], 0, n);

	movsxd	rax, DWORD PTR n$[rbp]
	movsxd	rcx, DWORD PTR j$[rbp]
	mov	rdx, QWORD PTR g$[rbp]
	lea	rcx, QWORD PTR [rdx+rcx+76]
	mov	r8, rax
	xor	edx, edx
	call	memset

; 2309 : 									j += n;

	mov	eax, DWORD PTR n$[rbp]
	mov	ecx, DWORD PTR j$[rbp]
	add	ecx, eax
	mov	eax, ecx
	mov	DWORD PTR j$[rbp], eax
$LN98@mp_decode_:

; 2310 : 									//                                for(i=0;i<n;i++)
; 2311 : 									//                                    g->scale_factors[j++] = 0;
; 2312 : 								}
; 2313 : 							}

	jmp	SHORT $LN96@mp_decode_
$LN95@mp_decode_:

; 2314 : 							else {
; 2315 : 								/* simply copy from last granule */
; 2316 : 								for (i = 0; i<n; i++) {

	mov	DWORD PTR i$[rbp], 0
	jmp	SHORT $LN49@mp_decode_
$LN47@mp_decode_:
	mov	eax, DWORD PTR i$[rbp]
	inc	eax
	mov	DWORD PTR i$[rbp], eax
$LN49@mp_decode_:
	mov	eax, DWORD PTR n$[rbp]
	cmp	DWORD PTR i$[rbp], eax
	jge	SHORT $LN48@mp_decode_

; 2317 : 									g->scale_factors[j] = sc[j];

	movsxd	rax, DWORD PTR j$[rbp]
	movsxd	rcx, DWORD PTR j$[rbp]
	mov	rdx, QWORD PTR g$[rbp]
	mov	rdi, QWORD PTR sc$4[rbp]
	movzx	eax, BYTE PTR [rdi+rax]
	mov	BYTE PTR [rdx+rcx+76], al

; 2318 : 									j++;

	mov	eax, DWORD PTR j$[rbp]
	inc	eax
	mov	DWORD PTR j$[rbp], eax

; 2319 : 								}

	jmp	SHORT $LN47@mp_decode_
$LN48@mp_decode_:
$LN96@mp_decode_:

; 2320 : 							}
; 2321 : 						}

	jmp	$LN41@mp_decode_
$LN42@mp_decode_:

; 2322 : 						g->scale_factors[j++] = 0;

	movsxd	rax, DWORD PTR j$[rbp]
	mov	rcx, QWORD PTR g$[rbp]
	mov	BYTE PTR [rcx+rax+76], 0
	mov	eax, DWORD PTR j$[rbp]
	inc	eax
	mov	DWORD PTR j$[rbp], eax
$LN90@mp_decode_:

; 2323 : 					}
; 2324 : 				}

	jmp	$LN88@mp_decode_
$LN87@mp_decode_:

; 2325 : 				else {
; 2326 : 					int tindex, tindex2, slen[4], sl, sf;
; 2327 : 
; 2328 : 					/* LSF scale factors */
; 2329 : 					if (g->block_type == 2) {

	mov	rax, QWORD PTR g$[rbp]
	movzx	eax, BYTE PTR [rax+20]
	cmp	eax, 2
	jne	SHORT $LN99@mp_decode_

; 2330 : 						tindex = g->switch_point ? 2 : 1;

	mov	rax, QWORD PTR g$[rbp]
	movzx	eax, BYTE PTR [rax+21]
	test	eax, eax
	je	SHORT $LN124@mp_decode_
	mov	DWORD PTR tv532[rbp], 2
	jmp	SHORT $LN125@mp_decode_
$LN124@mp_decode_:
	mov	DWORD PTR tv532[rbp], 1
$LN125@mp_decode_:
	mov	eax, DWORD PTR tv532[rbp]
	mov	DWORD PTR tindex$8[rbp], eax

; 2331 : 					}

	jmp	SHORT $LN100@mp_decode_
$LN99@mp_decode_:

; 2332 : 					else {
; 2333 : 						tindex = 0;

	mov	DWORD PTR tindex$8[rbp], 0
$LN100@mp_decode_:

; 2334 : 					}
; 2335 : 					sf = g->scalefac_compress;

	mov	rax, QWORD PTR g$[rbp]
	mov	eax, DWORD PTR [rax+16]
	mov	DWORD PTR sf$12[rbp], eax

; 2336 : 					if ((s->mode_ext & MODE_EXT_I_STEREO) && ch == 1) {

	mov	rax, QWORD PTR s$[rbp]
	mov	eax, DWORD PTR [rax+1136]
	and	eax, 1
	test	eax, eax
	je	$LN101@mp_decode_
	cmp	DWORD PTR ch$[rbp], 1
	jne	$LN101@mp_decode_

; 2337 : 						/* intensity stereo case */
; 2338 : 						sf >>= 1;

	mov	eax, DWORD PTR sf$12[rbp]
	sar	eax, 1
	mov	DWORD PTR sf$12[rbp], eax

; 2339 : 						if (sf < 180) {

	cmp	DWORD PTR sf$12[rbp], 180		; 000000b4H
	jge	SHORT $LN103@mp_decode_

; 2340 : 							lsf_sf_expand(slen, sf, 6, 6, 0);

	mov	DWORD PTR [rsp+32], 0
	mov	r9d, 6
	mov	r8d, 6
	mov	edx, DWORD PTR sf$12[rbp]
	lea	rcx, QWORD PTR slen$10[rbp]
	call	?lsf_sf_expand@@YAXPEAHHHHH@Z		; lsf_sf_expand

; 2341 : 							tindex2 = 3;

	mov	DWORD PTR tindex2$9[rbp], 3

; 2342 : 						}

	jmp	SHORT $LN104@mp_decode_
$LN103@mp_decode_:

; 2343 : 						else if (sf < 244) {

	cmp	DWORD PTR sf$12[rbp], 244		; 000000f4H
	jge	SHORT $LN105@mp_decode_

; 2344 : 							lsf_sf_expand(slen, sf - 180, 4, 4, 0);

	mov	eax, DWORD PTR sf$12[rbp]
	sub	eax, 180				; 000000b4H
	mov	DWORD PTR [rsp+32], 0
	mov	r9d, 4
	mov	r8d, 4
	mov	edx, eax
	lea	rcx, QWORD PTR slen$10[rbp]
	call	?lsf_sf_expand@@YAXPEAHHHHH@Z		; lsf_sf_expand

; 2345 : 							tindex2 = 4;

	mov	DWORD PTR tindex2$9[rbp], 4

; 2346 : 						}

	jmp	SHORT $LN106@mp_decode_
$LN105@mp_decode_:

; 2347 : 						else {
; 2348 : 							lsf_sf_expand(slen, sf - 244, 3, 0, 0);

	mov	eax, DWORD PTR sf$12[rbp]
	sub	eax, 244				; 000000f4H
	mov	DWORD PTR [rsp+32], 0
	xor	r9d, r9d
	mov	r8d, 3
	mov	edx, eax
	lea	rcx, QWORD PTR slen$10[rbp]
	call	?lsf_sf_expand@@YAXPEAHHHHH@Z		; lsf_sf_expand

; 2349 : 							tindex2 = 5;

	mov	DWORD PTR tindex2$9[rbp], 5
$LN106@mp_decode_:
$LN104@mp_decode_:

; 2350 : 						}
; 2351 : 					}

	jmp	$LN102@mp_decode_
$LN101@mp_decode_:

; 2352 : 					else {
; 2353 : 						/* normal case */
; 2354 : 						if (sf < 400) {

	cmp	DWORD PTR sf$12[rbp], 400		; 00000190H
	jge	SHORT $LN107@mp_decode_

; 2355 : 							lsf_sf_expand(slen, sf, 5, 4, 4);

	mov	DWORD PTR [rsp+32], 4
	mov	r9d, 4
	mov	r8d, 5
	mov	edx, DWORD PTR sf$12[rbp]
	lea	rcx, QWORD PTR slen$10[rbp]
	call	?lsf_sf_expand@@YAXPEAHHHHH@Z		; lsf_sf_expand

; 2356 : 							tindex2 = 0;

	mov	DWORD PTR tindex2$9[rbp], 0

; 2357 : 						}

	jmp	SHORT $LN108@mp_decode_
$LN107@mp_decode_:

; 2358 : 						else if (sf < 500) {

	cmp	DWORD PTR sf$12[rbp], 500		; 000001f4H
	jge	SHORT $LN109@mp_decode_

; 2359 : 							lsf_sf_expand(slen, sf - 400, 5, 4, 0);

	mov	eax, DWORD PTR sf$12[rbp]
	sub	eax, 400				; 00000190H
	mov	DWORD PTR [rsp+32], 0
	mov	r9d, 4
	mov	r8d, 5
	mov	edx, eax
	lea	rcx, QWORD PTR slen$10[rbp]
	call	?lsf_sf_expand@@YAXPEAHHHHH@Z		; lsf_sf_expand

; 2360 : 							tindex2 = 1;

	mov	DWORD PTR tindex2$9[rbp], 1

; 2361 : 						}

	jmp	SHORT $LN110@mp_decode_
$LN109@mp_decode_:

; 2362 : 						else {
; 2363 : 							lsf_sf_expand(slen, sf - 500, 3, 0, 0);

	mov	eax, DWORD PTR sf$12[rbp]
	sub	eax, 500				; 000001f4H
	mov	DWORD PTR [rsp+32], 0
	xor	r9d, r9d
	mov	r8d, 3
	mov	edx, eax
	lea	rcx, QWORD PTR slen$10[rbp]
	call	?lsf_sf_expand@@YAXPEAHHHHH@Z		; lsf_sf_expand

; 2364 : 							tindex2 = 2;

	mov	DWORD PTR tindex2$9[rbp], 2

; 2365 : 							g->preflag = 1;

	mov	rax, QWORD PTR g$[rbp]
	mov	DWORD PTR [rax+64], 1
$LN110@mp_decode_:
$LN108@mp_decode_:
$LN102@mp_decode_:

; 2366 : 						}
; 2367 : 					}
; 2368 : 
; 2369 : 					j = 0;

	mov	DWORD PTR j$[rbp], 0

; 2370 : 					for (k = 0; k<4; k++) {

	mov	DWORD PTR k$[rbp], 0
	jmp	SHORT $LN52@mp_decode_
$LN50@mp_decode_:
	mov	eax, DWORD PTR k$[rbp]
	inc	eax
	mov	DWORD PTR k$[rbp], eax
$LN52@mp_decode_:
	cmp	DWORD PTR k$[rbp], 4
	jge	$LN51@mp_decode_

; 2371 : 						n = lsf_nsf_table[tindex2][tindex][k];

	movsxd	rax, DWORD PTR tindex2$9[rbp]
	imul	rax, rax, 12
	lea	rcx, OFFSET FLAT:?lsf_nsf_table@@3QAY123$$CBEA
	add	rcx, rax
	mov	rax, rcx
	movsxd	rcx, DWORD PTR tindex$8[rbp]
	lea	rax, QWORD PTR [rax+rcx*4]
	movsxd	rcx, DWORD PTR k$[rbp]
	movzx	eax, BYTE PTR [rax+rcx]
	mov	DWORD PTR n$[rbp], eax

; 2372 : 						sl = slen[k];

	movsxd	rax, DWORD PTR k$[rbp]
	mov	eax, DWORD PTR slen$10[rbp+rax*4]
	mov	DWORD PTR sl$11[rbp], eax

; 2373 : 						if (sl){

	cmp	DWORD PTR sl$11[rbp], 0
	je	SHORT $LN111@mp_decode_

; 2374 : 							for (i = 0; i<n; i++)

	mov	DWORD PTR i$[rbp], 0
	jmp	SHORT $LN55@mp_decode_
$LN53@mp_decode_:
	mov	eax, DWORD PTR i$[rbp]
	inc	eax
	mov	DWORD PTR i$[rbp], eax
$LN55@mp_decode_:
	mov	eax, DWORD PTR n$[rbp]
	cmp	DWORD PTR i$[rbp], eax
	jge	SHORT $LN54@mp_decode_

; 2375 : 								g->scale_factors[j++] = get_bits(&s->gb, sl);

	mov	rax, QWORD PTR s$[rbp]
	add	rax, 1080				; 00000438H
	mov	edx, DWORD PTR sl$11[rbp]
	mov	rcx, rax
	call	?get_bits@@YAIPEAU_bitstream@@H@Z	; get_bits
	movsxd	rcx, DWORD PTR j$[rbp]
	mov	rdx, QWORD PTR g$[rbp]
	mov	BYTE PTR [rdx+rcx+76], al
	mov	eax, DWORD PTR j$[rbp]
	inc	eax
	mov	DWORD PTR j$[rbp], eax
	jmp	SHORT $LN53@mp_decode_
$LN54@mp_decode_:

; 2376 : 						}

	jmp	SHORT $LN112@mp_decode_
$LN111@mp_decode_:

; 2377 : 						else{
; 2378 : 							libc_memset((void*)&g->scale_factors[j], 0, n);

	movsxd	rax, DWORD PTR n$[rbp]
	movsxd	rcx, DWORD PTR j$[rbp]
	mov	rdx, QWORD PTR g$[rbp]
	lea	rcx, QWORD PTR [rdx+rcx+76]
	mov	r8, rax
	xor	edx, edx
	call	memset

; 2379 : 							j += n;

	mov	eax, DWORD PTR n$[rbp]
	mov	ecx, DWORD PTR j$[rbp]
	add	ecx, eax
	mov	eax, ecx
	mov	DWORD PTR j$[rbp], eax
$LN112@mp_decode_:

; 2380 : 							//                        for(i=0;i<n;i++)
; 2381 : 							//                            g->scale_factors[j++] = 0;
; 2382 : 						}
; 2383 : 					}

	jmp	$LN50@mp_decode_
$LN51@mp_decode_:

; 2384 : 					/* XXX: should compute exact size */
; 2385 : 					libc_memset((void*)&g->scale_factors[j], 0, 40 - j);

	mov	eax, 40					; 00000028H
	sub	eax, DWORD PTR j$[rbp]
	cdqe
	movsxd	rcx, DWORD PTR j$[rbp]
	mov	rdx, QWORD PTR g$[rbp]
	lea	rcx, QWORD PTR [rdx+rcx+76]
	mov	r8, rax
	xor	edx, edx
	call	memset
$LN88@mp_decode_:

; 2386 : 					//                for(;j<40;j++)
; 2387 : 					//                    g->scale_factors[j] = 0;
; 2388 : 				}
; 2389 : 
; 2390 : 				exponents_from_scale_factors(s, g, exponents);

	lea	r8, OFFSET FLAT:?exponents@?1??mp_decode_layer3@@YAHPEAU_mp3_context@@@Z@4PAFA
	mov	rdx, QWORD PTR g$[rbp]
	mov	rcx, QWORD PTR s$[rbp]
	call	?exponents_from_scale_factors@@YAXPEAU_mp3_context@@PEAU_granule@@PEAF@Z ; exponents_from_scale_factors

; 2391 : 
; 2392 : 				/* read Huffman coded residue */
; 2393 : 				if (huffman_decode(s, g, exponents,
; 2394 : 					bits_pos + g->part2_3_length) < 0)

	mov	rax, QWORD PTR g$[rbp]
	mov	eax, DWORD PTR [rax+4]
	mov	ecx, DWORD PTR bits_pos$[rbp]
	add	ecx, eax
	mov	eax, ecx
	mov	r9d, eax
	lea	r8, OFFSET FLAT:?exponents@?1??mp_decode_layer3@@YAHPEAU_mp3_context@@@Z@4PAFA
	mov	rdx, QWORD PTR g$[rbp]
	mov	rcx, QWORD PTR s$[rbp]
	call	?huffman_decode@@YAHPEAU_mp3_context@@PEAU_granule@@PEAFH@Z ; huffman_decode
	test	eax, eax
	jge	SHORT $LN113@mp_decode_

; 2395 : 					return -1;

	mov	eax, -1
	jmp	$LN1@mp_decode_
$LN113@mp_decode_:

; 2396 : 			} /* ch */

	jmp	$LN26@mp_decode_
$LN27@mp_decode_:

; 2397 : 
; 2398 : 			if (s->nb_channels == 2)

	mov	rax, QWORD PTR s$[rbp]
	cmp	DWORD PTR [rax+1128], 2
	jne	SHORT $LN114@mp_decode_

; 2399 : 				compute_stereo(s, &granules[0][gr], &granules[1][gr]);

	mov	eax, 4840				; 000012e8H
	imul	rax, rax, 1
	lea	rcx, OFFSET FLAT:?granules@?1??mp_decode_layer3@@YAHPEAU_mp3_context@@@Z@4PAY01U_granule@@A
	add	rcx, rax
	mov	rax, rcx
	movsxd	rcx, DWORD PTR gr$[rbp]
	imul	rcx, rcx, 2420				; 00000974H
	add	rax, rcx
	mov	ecx, 4840				; 000012e8H
	imul	rcx, rcx, 0
	lea	rdx, OFFSET FLAT:?granules@?1??mp_decode_layer3@@YAHPEAU_mp3_context@@@Z@4PAY01U_granule@@A
	add	rdx, rcx
	mov	rcx, rdx
	movsxd	rdx, DWORD PTR gr$[rbp]
	imul	rdx, rdx, 2420				; 00000974H
	add	rcx, rdx
	mov	r8, rax
	mov	rdx, rcx
	mov	rcx, QWORD PTR s$[rbp]
	call	?compute_stereo@@YAXPEAU_mp3_context@@PEAU_granule@@1@Z ; compute_stereo
$LN114@mp_decode_:

; 2400 : 
; 2401 : 			for (ch = 0; ch<s->nb_channels; ch++) {

	mov	DWORD PTR ch$[rbp], 0
	jmp	SHORT $LN58@mp_decode_
$LN56@mp_decode_:
	mov	eax, DWORD PTR ch$[rbp]
	inc	eax
	mov	DWORD PTR ch$[rbp], eax
$LN58@mp_decode_:
	mov	rax, QWORD PTR s$[rbp]
	mov	eax, DWORD PTR [rax+1128]
	cmp	DWORD PTR ch$[rbp], eax
	jge	$LN57@mp_decode_

; 2402 : 				g = &granules[ch][gr];

	movsxd	rax, DWORD PTR ch$[rbp]
	imul	rax, rax, 4840				; 000012e8H
	lea	rcx, OFFSET FLAT:?granules@?1??mp_decode_layer3@@YAHPEAU_mp3_context@@@Z@4PAY01U_granule@@A
	add	rcx, rax
	mov	rax, rcx
	movsxd	rcx, DWORD PTR gr$[rbp]
	imul	rcx, rcx, 2420				; 00000974H
	add	rax, rcx
	mov	QWORD PTR g$[rbp], rax

; 2403 : 				reorder_block(s, g);

	mov	rdx, QWORD PTR g$[rbp]
	mov	rcx, QWORD PTR s$[rbp]
	call	?reorder_block@@YAXPEAU_mp3_context@@PEAU_granule@@@Z ; reorder_block

; 2404 : 				compute_antialias(s, g);

	mov	rdx, QWORD PTR g$[rbp]
	mov	rcx, QWORD PTR s$[rbp]
	call	?compute_antialias@@YAXPEAU_mp3_context@@PEAU_granule@@@Z ; compute_antialias

; 2405 : 				compute_imdct(s, g, &s->sb_samples[ch][18 * gr][0], s->mdct_buf[ch]);

	movsxd	rax, DWORD PTR ch$[rbp]
	imul	rax, rax, 2304				; 00000900H
	mov	rcx, QWORD PTR s$[rbp]
	lea	rax, QWORD PTR [rcx+rax+14464]
	movsxd	rcx, DWORD PTR ch$[rbp]
	imul	rcx, rcx, 4608				; 00001200H
	mov	rdx, QWORD PTR s$[rbp]
	lea	rcx, QWORD PTR [rdx+rcx+5248]
	imul	edx, DWORD PTR gr$[rbp], 18
	movsxd	rdx, edx
	imul	rdx, rdx, 128				; 00000080H
	add	rcx, rdx
	mov	edx, 4
	imul	rdx, rdx, 0
	add	rcx, rdx
	mov	r9, rax
	mov	r8, rcx
	mov	rdx, QWORD PTR g$[rbp]
	mov	rcx, QWORD PTR s$[rbp]
	call	?compute_imdct@@YAXPEAU_mp3_context@@PEAU_granule@@PEAH2@Z ; compute_imdct

; 2406 : 			}

	jmp	$LN56@mp_decode_
$LN57@mp_decode_:

; 2407 : 		} /* gr */

	jmp	$LN23@mp_decode_
$LN24@mp_decode_:

; 2408 : 		return nb_granules * 18;

	imul	eax, DWORD PTR nb_granules$[rbp], 18
$LN1@mp_decode_:

; 2409 : 	}

	lea	rsp, QWORD PTR [rbp+208]
	pop	rdi
	pop	rsi
	pop	rbp
	ret	0
?mp_decode_layer3@@YAHPEAU_mp3_context@@@Z ENDP		; mp_decode_layer3
_TEXT	ENDS
; Function compile flags: /Odtp /ZI
; File C:\Users\paras\source\repos\grep-name\XenevaOS\Process\AudioPlayer\minimp3.cpp
;	COMDAT ?decode_header@@YAHPEAU_mp3_context@@I@Z
_TEXT	SEGMENT
sample_rate$ = 0
frame_size$ = 4
mpeg25$ = 8
padding$ = 12
sample_rate_index$ = 16
bitrate_index$ = 20
tv135 = 88
tv69 = 88
s$ = 112
header$ = 120
?decode_header@@YAHPEAU_mp3_context@@I@Z PROC		; decode_header, COMDAT

; 2086 : 	static int decode_header(mp3_context_t *s, uint32_t header) {

	mov	DWORD PTR [rsp+16], edx
	mov	QWORD PTR [rsp+8], rcx
	push	rbp
	sub	rsp, 96					; 00000060H
	mov	rbp, rsp

; 2087 : 		int sample_rate, frame_size, mpeg25, padding;
; 2088 : 		int sample_rate_index, bitrate_index;
; 2089 : 		if (header & (1 << 20)) {

	mov	eax, DWORD PTR header$[rbp]
	and	eax, 1048576				; 00100000H
	test	eax, eax
	je	SHORT $LN2@decode_hea

; 2090 : 			s->lsf = (header & (1 << 19)) ? 0 : 1;

	mov	eax, DWORD PTR header$[rbp]
	and	eax, 524288				; 00080000H
	test	eax, eax
	je	SHORT $LN7@decode_hea
	mov	DWORD PTR tv69[rbp], 0
	jmp	SHORT $LN8@decode_hea
$LN7@decode_hea:
	mov	DWORD PTR tv69[rbp], 1
$LN8@decode_hea:
	mov	rax, QWORD PTR s$[rbp]
	mov	ecx, DWORD PTR tv69[rbp]
	mov	DWORD PTR [rax+1140], ecx

; 2091 : 			mpeg25 = 0;

	mov	DWORD PTR mpeg25$[rbp], 0

; 2092 : 		}

	jmp	SHORT $LN3@decode_hea
$LN2@decode_hea:

; 2093 : 		else {
; 2094 : 			s->lsf = 1;

	mov	rax, QWORD PTR s$[rbp]
	mov	DWORD PTR [rax+1140], 1

; 2095 : 			mpeg25 = 1;

	mov	DWORD PTR mpeg25$[rbp], 1
$LN3@decode_hea:

; 2096 : 		}
; 2097 : 
; 2098 : 		sample_rate_index = (header >> 10) & 3;

	mov	eax, DWORD PTR header$[rbp]
	shr	eax, 10
	and	eax, 3
	mov	DWORD PTR sample_rate_index$[rbp], eax

; 2099 : 		sample_rate = mp3_freq_tab[sample_rate_index] >> (s->lsf + mpeg25);

	movsxd	rax, DWORD PTR sample_rate_index$[rbp]
	lea	rcx, OFFSET FLAT:?mp3_freq_tab@@3QBGB
	movzx	eax, WORD PTR [rcx+rax*2]
	mov	rcx, QWORD PTR s$[rbp]
	mov	ecx, DWORD PTR [rcx+1140]
	add	ecx, DWORD PTR mpeg25$[rbp]
	sar	eax, cl
	mov	DWORD PTR sample_rate$[rbp], eax

; 2100 : 		sample_rate_index += 3 * (s->lsf + mpeg25);

	mov	rax, QWORD PTR s$[rbp]
	mov	eax, DWORD PTR [rax+1140]
	add	eax, DWORD PTR mpeg25$[rbp]
	imul	eax, eax, 3
	mov	ecx, DWORD PTR sample_rate_index$[rbp]
	add	ecx, eax
	mov	eax, ecx
	mov	DWORD PTR sample_rate_index$[rbp], eax

; 2101 : 		s->sample_rate_index = sample_rate_index;

	mov	rax, QWORD PTR s$[rbp]
	mov	ecx, DWORD PTR sample_rate_index$[rbp]
	mov	DWORD PTR [rax+1068], ecx

; 2102 : 		s->error_protection = ((header >> 16) & 1) ^ 1;

	mov	eax, DWORD PTR header$[rbp]
	shr	eax, 16
	and	eax, 1
	xor	eax, 1
	mov	rcx, QWORD PTR s$[rbp]
	mov	DWORD PTR [rcx+1060], eax

; 2103 : 		s->sample_rate = sample_rate;

	mov	rax, QWORD PTR s$[rbp]
	mov	ecx, DWORD PTR sample_rate$[rbp]
	mov	DWORD PTR [rax+1064], ecx

; 2104 : 
; 2105 : 		bitrate_index = (header >> 12) & 0xf;

	mov	eax, DWORD PTR header$[rbp]
	shr	eax, 12
	and	eax, 15
	mov	DWORD PTR bitrate_index$[rbp], eax

; 2106 : 		padding = (header >> 9) & 1;

	mov	eax, DWORD PTR header$[rbp]
	shr	eax, 9
	and	eax, 1
	mov	DWORD PTR padding$[rbp], eax

; 2107 : 		s->mode = (header >> 6) & 3;

	mov	eax, DWORD PTR header$[rbp]
	shr	eax, 6
	and	eax, 3
	mov	rcx, QWORD PTR s$[rbp]
	mov	DWORD PTR [rcx+1132], eax

; 2108 : 		s->mode_ext = (header >> 4) & 3;

	mov	eax, DWORD PTR header$[rbp]
	shr	eax, 4
	and	eax, 3
	mov	rcx, QWORD PTR s$[rbp]
	mov	DWORD PTR [rcx+1136], eax

; 2109 : 		s->nb_channels = (s->mode == MP3_MONO) ? 1 : 2;

	mov	rax, QWORD PTR s$[rbp]
	cmp	DWORD PTR [rax+1132], 3
	jne	SHORT $LN9@decode_hea
	mov	DWORD PTR tv135[rbp], 1
	jmp	SHORT $LN10@decode_hea
$LN9@decode_hea:
	mov	DWORD PTR tv135[rbp], 2
$LN10@decode_hea:
	mov	rax, QWORD PTR s$[rbp]
	mov	ecx, DWORD PTR tv135[rbp]
	mov	DWORD PTR [rax+1128], ecx

; 2110 : 
; 2111 : 		if (bitrate_index != 0) {

	cmp	DWORD PTR bitrate_index$[rbp], 0
	je	SHORT $LN4@decode_hea

; 2112 : 			frame_size = mp3_bitrate_tab[s->lsf][bitrate_index];

	mov	rax, QWORD PTR s$[rbp]
	movsxd	rax, DWORD PTR [rax+1140]
	imul	rax, rax, 30
	lea	rcx, OFFSET FLAT:?mp3_bitrate_tab@@3QAY0P@$$CBGA
	add	rcx, rax
	mov	rax, rcx
	movsxd	rcx, DWORD PTR bitrate_index$[rbp]
	movzx	eax, WORD PTR [rax+rcx*2]
	mov	DWORD PTR frame_size$[rbp], eax

; 2113 : 			s->bit_rate = frame_size * 1000;

	imul	eax, DWORD PTR frame_size$[rbp], 1000	; 000003e8H
	mov	rcx, QWORD PTR s$[rbp]
	mov	DWORD PTR [rcx+1072], eax

; 2114 : 			s->frame_size = (frame_size * 144000) / (sample_rate << s->lsf) + padding;

	imul	eax, DWORD PTR frame_size$[rbp], 144000	; 00023280H
	mov	rcx, QWORD PTR s$[rbp]
	mov	ecx, DWORD PTR [rcx+1140]
	mov	edx, DWORD PTR sample_rate$[rbp]
	shl	edx, cl
	mov	ecx, edx
	cdq
	idiv	ecx
	add	eax, DWORD PTR padding$[rbp]
	mov	rcx, QWORD PTR s$[rbp]
	mov	DWORD PTR [rcx+1052], eax

; 2115 : 		}

	jmp	SHORT $LN5@decode_hea
$LN4@decode_hea:

; 2116 : 		else {
; 2117 : 			/* if no frame size computed, signal it */
; 2118 : 			return 1;

	mov	eax, 1
	jmp	SHORT $LN1@decode_hea
$LN5@decode_hea:

; 2119 : 		}
; 2120 : 		return 0;

	xor	eax, eax
$LN1@decode_hea:

; 2121 : 	}

	lea	rsp, QWORD PTR [rbp+96]
	pop	rbp
	ret	0
?decode_header@@YAHPEAU_mp3_context@@I@Z ENDP		; decode_header
_TEXT	ENDS
; Function compile flags: /Odtp /ZI
; File C:\Users\paras\source\repos\grep-name\XenevaOS\Process\AudioPlayer\minimp3.cpp
;	COMDAT ?mp3_synth_filter@@YAXPEAFPEAH010HQEAH@Z
_TEXT	SEGMENT
tmp$ = 0
synth_buf$ = 128
w$ = 136
w2$ = 144
p$ = 152
j$ = 160
offset$ = 164
v$ = 168
samples2$ = 176
sum$ = 184
sum2$ = 188
tmp$1 = 192
tmp$2 = 196
synth_buf_ptr$ = 288
synth_buf_offset$ = 296
window$ = 304
dither_state$ = 312
samples$ = 320
incr$ = 328
sb_samples$ = 336
?mp3_synth_filter@@YAXPEAFPEAH010HQEAH@Z PROC		; mp3_synth_filter, COMDAT

; 2018 : 		) {

	mov	QWORD PTR [rsp+32], r9
	mov	QWORD PTR [rsp+24], r8
	mov	QWORD PTR [rsp+16], rdx
	mov	QWORD PTR [rsp+8], rcx
	push	rbp
	sub	rsp, 304				; 00000130H
	lea	rbp, QWORD PTR [rsp+32]

; 2019 : 		int32_t tmp[32];
; 2020 : 		register int16_t *synth_buf;
; 2021 : 		register const int16_t *w, *w2, *p;
; 2022 : 		int j, offset, v;
; 2023 : 		int16_t *samples2;
; 2024 : 		int sum, sum2;
; 2025 : 
; 2026 : 		dct32(tmp, sb_samples);

	mov	rdx, QWORD PTR sb_samples$[rbp]
	lea	rcx, QWORD PTR tmp$[rbp]
	call	?dct32@@YAXPEAH0@Z			; dct32

; 2027 : 
; 2028 : 		offset = *synth_buf_offset;

	mov	rax, QWORD PTR synth_buf_offset$[rbp]
	mov	eax, DWORD PTR [rax]
	mov	DWORD PTR offset$[rbp], eax

; 2029 : 		synth_buf = synth_buf_ptr + offset;

	movsxd	rax, DWORD PTR offset$[rbp]
	mov	rcx, QWORD PTR synth_buf_ptr$[rbp]
	lea	rax, QWORD PTR [rcx+rax*2]
	mov	QWORD PTR synth_buf$[rbp], rax

; 2030 : 
; 2031 : 		for (j = 0; j<32; j++) {

	mov	DWORD PTR j$[rbp], 0
	jmp	SHORT $LN4@mp3_synth_
$LN2@mp3_synth_:
	mov	eax, DWORD PTR j$[rbp]
	inc	eax
	mov	DWORD PTR j$[rbp], eax
$LN4@mp3_synth_:
	cmp	DWORD PTR j$[rbp], 32			; 00000020H
	jge	SHORT $LN3@mp3_synth_

; 2032 : 			v = tmp[j];

	movsxd	rax, DWORD PTR j$[rbp]
	mov	eax, DWORD PTR tmp$[rbp+rax*4]
	mov	DWORD PTR v$[rbp], eax

; 2033 : 			/* NOTE: can cause a loss in precision if very high amplitude
; 2034 : 			sound */
; 2035 : 			if (v > 32767)

	cmp	DWORD PTR v$[rbp], 32767		; 00007fffH
	jle	SHORT $LN8@mp3_synth_

; 2036 : 				v = 32767;

	mov	DWORD PTR v$[rbp], 32767		; 00007fffH
	jmp	SHORT $LN9@mp3_synth_
$LN8@mp3_synth_:

; 2037 : 			else if (v < -32768)

	cmp	DWORD PTR v$[rbp], -32768		; ffffffffffff8000H
	jge	SHORT $LN10@mp3_synth_

; 2038 : 				v = -32768;

	mov	DWORD PTR v$[rbp], -32768		; ffffffffffff8000H
$LN10@mp3_synth_:
$LN9@mp3_synth_:

; 2039 : 			synth_buf[j] = v;

	movsxd	rax, DWORD PTR j$[rbp]
	mov	rcx, QWORD PTR synth_buf$[rbp]
	movzx	edx, WORD PTR v$[rbp]
	mov	WORD PTR [rcx+rax*2], dx

; 2040 : 		}

	jmp	SHORT $LN2@mp3_synth_
$LN3@mp3_synth_:

; 2041 : 		/* copy to avoid wrap */
; 2042 : 		libc_memcpy(synth_buf + 512, synth_buf, 32 * sizeof(int16_t));

	mov	rax, QWORD PTR synth_buf$[rbp]
	add	rax, 1024				; 00000400H
	mov	r8d, 64					; 00000040H
	mov	rdx, QWORD PTR synth_buf$[rbp]
	mov	rcx, rax
	call	memcpy

; 2043 : 
; 2044 : 		samples2 = samples + 31 * incr;

	imul	eax, DWORD PTR incr$[rbp], 31
	cdqe
	mov	rcx, QWORD PTR samples$[rbp]
	lea	rax, QWORD PTR [rcx+rax*2]
	mov	QWORD PTR samples2$[rbp], rax

; 2045 : 		w = window;

	mov	rax, QWORD PTR window$[rbp]
	mov	QWORD PTR w$[rbp], rax

; 2046 : 		w2 = window + 31;

	mov	rax, QWORD PTR window$[rbp]
	add	rax, 62					; 0000003eH
	mov	QWORD PTR w2$[rbp], rax

; 2047 : 
; 2048 : 		sum = *dither_state;

	mov	rax, QWORD PTR dither_state$[rbp]
	mov	eax, DWORD PTR [rax]
	mov	DWORD PTR sum$[rbp], eax

; 2049 : 		p = synth_buf + 16;

	mov	rax, QWORD PTR synth_buf$[rbp]
	add	rax, 32					; 00000020H
	mov	QWORD PTR p$[rbp], rax

; 2050 : 		SUM8(sum, += , w, p);

	mov	eax, 2
	imul	rax, rax, 0
	mov	rcx, QWORD PTR w$[rbp]
	movsx	eax, WORD PTR [rcx+rax]
	mov	ecx, 2
	imul	rcx, rcx, 0
	mov	rdx, QWORD PTR p$[rbp]
	movsx	ecx, WORD PTR [rdx+rcx]
	imul	eax, ecx
	mov	ecx, DWORD PTR sum$[rbp]
	add	ecx, eax
	mov	eax, ecx
	mov	DWORD PTR sum$[rbp], eax
	mov	eax, 2
	imul	rax, rax, 64				; 00000040H
	mov	rcx, QWORD PTR w$[rbp]
	movsx	eax, WORD PTR [rcx+rax]
	mov	ecx, 2
	imul	rcx, rcx, 64				; 00000040H
	mov	rdx, QWORD PTR p$[rbp]
	movsx	ecx, WORD PTR [rdx+rcx]
	imul	eax, ecx
	mov	ecx, DWORD PTR sum$[rbp]
	add	ecx, eax
	mov	eax, ecx
	mov	DWORD PTR sum$[rbp], eax
	mov	eax, 2
	imul	rax, rax, 128				; 00000080H
	mov	rcx, QWORD PTR w$[rbp]
	movsx	eax, WORD PTR [rcx+rax]
	mov	ecx, 2
	imul	rcx, rcx, 128				; 00000080H
	mov	rdx, QWORD PTR p$[rbp]
	movsx	ecx, WORD PTR [rdx+rcx]
	imul	eax, ecx
	mov	ecx, DWORD PTR sum$[rbp]
	add	ecx, eax
	mov	eax, ecx
	mov	DWORD PTR sum$[rbp], eax
	mov	eax, 2
	imul	rax, rax, 192				; 000000c0H
	mov	rcx, QWORD PTR w$[rbp]
	movsx	eax, WORD PTR [rcx+rax]
	mov	ecx, 2
	imul	rcx, rcx, 192				; 000000c0H
	mov	rdx, QWORD PTR p$[rbp]
	movsx	ecx, WORD PTR [rdx+rcx]
	imul	eax, ecx
	mov	ecx, DWORD PTR sum$[rbp]
	add	ecx, eax
	mov	eax, ecx
	mov	DWORD PTR sum$[rbp], eax
	mov	eax, 2
	imul	rax, rax, 256				; 00000100H
	mov	rcx, QWORD PTR w$[rbp]
	movsx	eax, WORD PTR [rcx+rax]
	mov	ecx, 2
	imul	rcx, rcx, 256				; 00000100H
	mov	rdx, QWORD PTR p$[rbp]
	movsx	ecx, WORD PTR [rdx+rcx]
	imul	eax, ecx
	mov	ecx, DWORD PTR sum$[rbp]
	add	ecx, eax
	mov	eax, ecx
	mov	DWORD PTR sum$[rbp], eax
	mov	eax, 2
	imul	rax, rax, 320				; 00000140H
	mov	rcx, QWORD PTR w$[rbp]
	movsx	eax, WORD PTR [rcx+rax]
	mov	ecx, 2
	imul	rcx, rcx, 320				; 00000140H
	mov	rdx, QWORD PTR p$[rbp]
	movsx	ecx, WORD PTR [rdx+rcx]
	imul	eax, ecx
	mov	ecx, DWORD PTR sum$[rbp]
	add	ecx, eax
	mov	eax, ecx
	mov	DWORD PTR sum$[rbp], eax
	mov	eax, 2
	imul	rax, rax, 384				; 00000180H
	mov	rcx, QWORD PTR w$[rbp]
	movsx	eax, WORD PTR [rcx+rax]
	mov	ecx, 2
	imul	rcx, rcx, 384				; 00000180H
	mov	rdx, QWORD PTR p$[rbp]
	movsx	ecx, WORD PTR [rdx+rcx]
	imul	eax, ecx
	mov	ecx, DWORD PTR sum$[rbp]
	add	ecx, eax
	mov	eax, ecx
	mov	DWORD PTR sum$[rbp], eax
	mov	eax, 2
	imul	rax, rax, 448				; 000001c0H
	mov	rcx, QWORD PTR w$[rbp]
	movsx	eax, WORD PTR [rcx+rax]
	mov	ecx, 2
	imul	rcx, rcx, 448				; 000001c0H
	mov	rdx, QWORD PTR p$[rbp]
	movsx	ecx, WORD PTR [rdx+rcx]
	imul	eax, ecx
	mov	ecx, DWORD PTR sum$[rbp]
	add	ecx, eax
	mov	eax, ecx
	mov	DWORD PTR sum$[rbp], eax

; 2051 : 		p = synth_buf + 48;

	mov	rax, QWORD PTR synth_buf$[rbp]
	add	rax, 96					; 00000060H
	mov	QWORD PTR p$[rbp], rax

; 2052 : 		SUM8(sum, -= , w + 32, p);

	mov	eax, 2
	imul	rax, rax, 0
	mov	rcx, QWORD PTR w$[rbp]
	movsx	eax, WORD PTR [rcx+rax+64]
	mov	ecx, 2
	imul	rcx, rcx, 0
	mov	rdx, QWORD PTR p$[rbp]
	movsx	ecx, WORD PTR [rdx+rcx]
	imul	eax, ecx
	mov	ecx, DWORD PTR sum$[rbp]
	sub	ecx, eax
	mov	eax, ecx
	mov	DWORD PTR sum$[rbp], eax
	mov	eax, 2
	imul	rax, rax, 64				; 00000040H
	mov	rcx, QWORD PTR w$[rbp]
	movsx	eax, WORD PTR [rcx+rax+64]
	mov	ecx, 2
	imul	rcx, rcx, 64				; 00000040H
	mov	rdx, QWORD PTR p$[rbp]
	movsx	ecx, WORD PTR [rdx+rcx]
	imul	eax, ecx
	mov	ecx, DWORD PTR sum$[rbp]
	sub	ecx, eax
	mov	eax, ecx
	mov	DWORD PTR sum$[rbp], eax
	mov	eax, 2
	imul	rax, rax, 128				; 00000080H
	mov	rcx, QWORD PTR w$[rbp]
	movsx	eax, WORD PTR [rcx+rax+64]
	mov	ecx, 2
	imul	rcx, rcx, 128				; 00000080H
	mov	rdx, QWORD PTR p$[rbp]
	movsx	ecx, WORD PTR [rdx+rcx]
	imul	eax, ecx
	mov	ecx, DWORD PTR sum$[rbp]
	sub	ecx, eax
	mov	eax, ecx
	mov	DWORD PTR sum$[rbp], eax
	mov	eax, 2
	imul	rax, rax, 192				; 000000c0H
	mov	rcx, QWORD PTR w$[rbp]
	movsx	eax, WORD PTR [rcx+rax+64]
	mov	ecx, 2
	imul	rcx, rcx, 192				; 000000c0H
	mov	rdx, QWORD PTR p$[rbp]
	movsx	ecx, WORD PTR [rdx+rcx]
	imul	eax, ecx
	mov	ecx, DWORD PTR sum$[rbp]
	sub	ecx, eax
	mov	eax, ecx
	mov	DWORD PTR sum$[rbp], eax
	mov	eax, 2
	imul	rax, rax, 256				; 00000100H
	mov	rcx, QWORD PTR w$[rbp]
	movsx	eax, WORD PTR [rcx+rax+64]
	mov	ecx, 2
	imul	rcx, rcx, 256				; 00000100H
	mov	rdx, QWORD PTR p$[rbp]
	movsx	ecx, WORD PTR [rdx+rcx]
	imul	eax, ecx
	mov	ecx, DWORD PTR sum$[rbp]
	sub	ecx, eax
	mov	eax, ecx
	mov	DWORD PTR sum$[rbp], eax
	mov	eax, 2
	imul	rax, rax, 320				; 00000140H
	mov	rcx, QWORD PTR w$[rbp]
	movsx	eax, WORD PTR [rcx+rax+64]
	mov	ecx, 2
	imul	rcx, rcx, 320				; 00000140H
	mov	rdx, QWORD PTR p$[rbp]
	movsx	ecx, WORD PTR [rdx+rcx]
	imul	eax, ecx
	mov	ecx, DWORD PTR sum$[rbp]
	sub	ecx, eax
	mov	eax, ecx
	mov	DWORD PTR sum$[rbp], eax
	mov	eax, 2
	imul	rax, rax, 384				; 00000180H
	mov	rcx, QWORD PTR w$[rbp]
	movsx	eax, WORD PTR [rcx+rax+64]
	mov	ecx, 2
	imul	rcx, rcx, 384				; 00000180H
	mov	rdx, QWORD PTR p$[rbp]
	movsx	ecx, WORD PTR [rdx+rcx]
	imul	eax, ecx
	mov	ecx, DWORD PTR sum$[rbp]
	sub	ecx, eax
	mov	eax, ecx
	mov	DWORD PTR sum$[rbp], eax
	mov	eax, 2
	imul	rax, rax, 448				; 000001c0H
	mov	rcx, QWORD PTR w$[rbp]
	movsx	eax, WORD PTR [rcx+rax+64]
	mov	ecx, 2
	imul	rcx, rcx, 448				; 000001c0H
	mov	rdx, QWORD PTR p$[rbp]
	movsx	ecx, WORD PTR [rdx+rcx]
	imul	eax, ecx
	mov	ecx, DWORD PTR sum$[rbp]
	sub	ecx, eax
	mov	eax, ecx
	mov	DWORD PTR sum$[rbp], eax

; 2053 : 		*samples = round_sample(&sum);

	lea	rcx, QWORD PTR sum$[rbp]
	call	?round_sample@@YAHPEAH@Z		; round_sample
	mov	rcx, QWORD PTR samples$[rbp]
	mov	WORD PTR [rcx], ax

; 2054 : 		samples += incr;

	movsxd	rax, DWORD PTR incr$[rbp]
	mov	rcx, QWORD PTR samples$[rbp]
	lea	rax, QWORD PTR [rcx+rax*2]
	mov	QWORD PTR samples$[rbp], rax

; 2055 : 		w++;

	mov	rax, QWORD PTR w$[rbp]
	add	rax, 2
	mov	QWORD PTR w$[rbp], rax

; 2056 : 
; 2057 : 		/* we calculate two samples at the same time to avoid one memory
; 2058 : 		access per two sample */
; 2059 : 		for (j = 1; j<16; j++) {

	mov	DWORD PTR j$[rbp], 1
	jmp	SHORT $LN7@mp3_synth_
$LN5@mp3_synth_:
	mov	eax, DWORD PTR j$[rbp]
	inc	eax
	mov	DWORD PTR j$[rbp], eax
$LN7@mp3_synth_:
	cmp	DWORD PTR j$[rbp], 16
	jge	$LN6@mp3_synth_

; 2060 : 			sum2 = 0;

	mov	DWORD PTR sum2$[rbp], 0

; 2061 : 			p = synth_buf + 16 + j;

	movsxd	rax, DWORD PTR j$[rbp]
	mov	rcx, QWORD PTR synth_buf$[rbp]
	lea	rax, QWORD PTR [rcx+rax*2+32]
	mov	QWORD PTR p$[rbp], rax

; 2062 : 			SUM8P2(sum, += , sum2, -= , w, w2, p);

	mov	eax, 2
	imul	rax, rax, 0
	mov	rcx, QWORD PTR p$[rbp]
	movsx	eax, WORD PTR [rcx+rax]
	mov	DWORD PTR tmp$1[rbp], eax
	mov	eax, 2
	imul	rax, rax, 0
	mov	rcx, QWORD PTR w$[rbp]
	movsx	eax, WORD PTR [rcx+rax]
	imul	eax, DWORD PTR tmp$1[rbp]
	mov	ecx, DWORD PTR sum$[rbp]
	add	ecx, eax
	mov	eax, ecx
	mov	DWORD PTR sum$[rbp], eax
	mov	eax, 2
	imul	rax, rax, 0
	mov	rcx, QWORD PTR w2$[rbp]
	movsx	eax, WORD PTR [rcx+rax]
	imul	eax, DWORD PTR tmp$1[rbp]
	mov	ecx, DWORD PTR sum2$[rbp]
	sub	ecx, eax
	mov	eax, ecx
	mov	DWORD PTR sum2$[rbp], eax
	mov	eax, 2
	imul	rax, rax, 64				; 00000040H
	mov	rcx, QWORD PTR p$[rbp]
	movsx	eax, WORD PTR [rcx+rax]
	mov	DWORD PTR tmp$1[rbp], eax
	mov	eax, 2
	imul	rax, rax, 64				; 00000040H
	mov	rcx, QWORD PTR w$[rbp]
	movsx	eax, WORD PTR [rcx+rax]
	imul	eax, DWORD PTR tmp$1[rbp]
	mov	ecx, DWORD PTR sum$[rbp]
	add	ecx, eax
	mov	eax, ecx
	mov	DWORD PTR sum$[rbp], eax
	mov	eax, 2
	imul	rax, rax, 64				; 00000040H
	mov	rcx, QWORD PTR w2$[rbp]
	movsx	eax, WORD PTR [rcx+rax]
	imul	eax, DWORD PTR tmp$1[rbp]
	mov	ecx, DWORD PTR sum2$[rbp]
	sub	ecx, eax
	mov	eax, ecx
	mov	DWORD PTR sum2$[rbp], eax
	mov	eax, 2
	imul	rax, rax, 128				; 00000080H
	mov	rcx, QWORD PTR p$[rbp]
	movsx	eax, WORD PTR [rcx+rax]
	mov	DWORD PTR tmp$1[rbp], eax
	mov	eax, 2
	imul	rax, rax, 128				; 00000080H
	mov	rcx, QWORD PTR w$[rbp]
	movsx	eax, WORD PTR [rcx+rax]
	imul	eax, DWORD PTR tmp$1[rbp]
	mov	ecx, DWORD PTR sum$[rbp]
	add	ecx, eax
	mov	eax, ecx
	mov	DWORD PTR sum$[rbp], eax
	mov	eax, 2
	imul	rax, rax, 128				; 00000080H
	mov	rcx, QWORD PTR w2$[rbp]
	movsx	eax, WORD PTR [rcx+rax]
	imul	eax, DWORD PTR tmp$1[rbp]
	mov	ecx, DWORD PTR sum2$[rbp]
	sub	ecx, eax
	mov	eax, ecx
	mov	DWORD PTR sum2$[rbp], eax
	mov	eax, 2
	imul	rax, rax, 192				; 000000c0H
	mov	rcx, QWORD PTR p$[rbp]
	movsx	eax, WORD PTR [rcx+rax]
	mov	DWORD PTR tmp$1[rbp], eax
	mov	eax, 2
	imul	rax, rax, 192				; 000000c0H
	mov	rcx, QWORD PTR w$[rbp]
	movsx	eax, WORD PTR [rcx+rax]
	imul	eax, DWORD PTR tmp$1[rbp]
	mov	ecx, DWORD PTR sum$[rbp]
	add	ecx, eax
	mov	eax, ecx
	mov	DWORD PTR sum$[rbp], eax
	mov	eax, 2
	imul	rax, rax, 192				; 000000c0H
	mov	rcx, QWORD PTR w2$[rbp]
	movsx	eax, WORD PTR [rcx+rax]
	imul	eax, DWORD PTR tmp$1[rbp]
	mov	ecx, DWORD PTR sum2$[rbp]
	sub	ecx, eax
	mov	eax, ecx
	mov	DWORD PTR sum2$[rbp], eax
	mov	eax, 2
	imul	rax, rax, 256				; 00000100H
	mov	rcx, QWORD PTR p$[rbp]
	movsx	eax, WORD PTR [rcx+rax]
	mov	DWORD PTR tmp$1[rbp], eax
	mov	eax, 2
	imul	rax, rax, 256				; 00000100H
	mov	rcx, QWORD PTR w$[rbp]
	movsx	eax, WORD PTR [rcx+rax]
	imul	eax, DWORD PTR tmp$1[rbp]
	mov	ecx, DWORD PTR sum$[rbp]
	add	ecx, eax
	mov	eax, ecx
	mov	DWORD PTR sum$[rbp], eax
	mov	eax, 2
	imul	rax, rax, 256				; 00000100H
	mov	rcx, QWORD PTR w2$[rbp]
	movsx	eax, WORD PTR [rcx+rax]
	imul	eax, DWORD PTR tmp$1[rbp]
	mov	ecx, DWORD PTR sum2$[rbp]
	sub	ecx, eax
	mov	eax, ecx
	mov	DWORD PTR sum2$[rbp], eax
	mov	eax, 2
	imul	rax, rax, 320				; 00000140H
	mov	rcx, QWORD PTR p$[rbp]
	movsx	eax, WORD PTR [rcx+rax]
	mov	DWORD PTR tmp$1[rbp], eax
	mov	eax, 2
	imul	rax, rax, 320				; 00000140H
	mov	rcx, QWORD PTR w$[rbp]
	movsx	eax, WORD PTR [rcx+rax]
	imul	eax, DWORD PTR tmp$1[rbp]
	mov	ecx, DWORD PTR sum$[rbp]
	add	ecx, eax
	mov	eax, ecx
	mov	DWORD PTR sum$[rbp], eax
	mov	eax, 2
	imul	rax, rax, 320				; 00000140H
	mov	rcx, QWORD PTR w2$[rbp]
	movsx	eax, WORD PTR [rcx+rax]
	imul	eax, DWORD PTR tmp$1[rbp]
	mov	ecx, DWORD PTR sum2$[rbp]
	sub	ecx, eax
	mov	eax, ecx
	mov	DWORD PTR sum2$[rbp], eax
	mov	eax, 2
	imul	rax, rax, 384				; 00000180H
	mov	rcx, QWORD PTR p$[rbp]
	movsx	eax, WORD PTR [rcx+rax]
	mov	DWORD PTR tmp$1[rbp], eax
	mov	eax, 2
	imul	rax, rax, 384				; 00000180H
	mov	rcx, QWORD PTR w$[rbp]
	movsx	eax, WORD PTR [rcx+rax]
	imul	eax, DWORD PTR tmp$1[rbp]
	mov	ecx, DWORD PTR sum$[rbp]
	add	ecx, eax
	mov	eax, ecx
	mov	DWORD PTR sum$[rbp], eax
	mov	eax, 2
	imul	rax, rax, 384				; 00000180H
	mov	rcx, QWORD PTR w2$[rbp]
	movsx	eax, WORD PTR [rcx+rax]
	imul	eax, DWORD PTR tmp$1[rbp]
	mov	ecx, DWORD PTR sum2$[rbp]
	sub	ecx, eax
	mov	eax, ecx
	mov	DWORD PTR sum2$[rbp], eax
	mov	eax, 2
	imul	rax, rax, 448				; 000001c0H
	mov	rcx, QWORD PTR p$[rbp]
	movsx	eax, WORD PTR [rcx+rax]
	mov	DWORD PTR tmp$1[rbp], eax
	mov	eax, 2
	imul	rax, rax, 448				; 000001c0H
	mov	rcx, QWORD PTR w$[rbp]
	movsx	eax, WORD PTR [rcx+rax]
	imul	eax, DWORD PTR tmp$1[rbp]
	mov	ecx, DWORD PTR sum$[rbp]
	add	ecx, eax
	mov	eax, ecx
	mov	DWORD PTR sum$[rbp], eax
	mov	eax, 2
	imul	rax, rax, 448				; 000001c0H
	mov	rcx, QWORD PTR w2$[rbp]
	movsx	eax, WORD PTR [rcx+rax]
	imul	eax, DWORD PTR tmp$1[rbp]
	mov	ecx, DWORD PTR sum2$[rbp]
	sub	ecx, eax
	mov	eax, ecx
	mov	DWORD PTR sum2$[rbp], eax

; 2063 : 			p = synth_buf + 48 - j;

	mov	rax, QWORD PTR synth_buf$[rbp]
	add	rax, 96					; 00000060H
	movsxd	rcx, DWORD PTR j$[rbp]
	shl	rcx, 1
	sub	rax, rcx
	mov	QWORD PTR p$[rbp], rax

; 2064 : 			SUM8P2(sum, -= , sum2, -= , w + 32, w2 + 32, p);

	mov	eax, 2
	imul	rax, rax, 0
	mov	rcx, QWORD PTR p$[rbp]
	movsx	eax, WORD PTR [rcx+rax]
	mov	DWORD PTR tmp$2[rbp], eax
	mov	eax, 2
	imul	rax, rax, 0
	mov	rcx, QWORD PTR w$[rbp]
	movsx	eax, WORD PTR [rcx+rax+64]
	imul	eax, DWORD PTR tmp$2[rbp]
	mov	ecx, DWORD PTR sum$[rbp]
	sub	ecx, eax
	mov	eax, ecx
	mov	DWORD PTR sum$[rbp], eax
	mov	eax, 2
	imul	rax, rax, 0
	mov	rcx, QWORD PTR w2$[rbp]
	movsx	eax, WORD PTR [rcx+rax+64]
	imul	eax, DWORD PTR tmp$2[rbp]
	mov	ecx, DWORD PTR sum2$[rbp]
	sub	ecx, eax
	mov	eax, ecx
	mov	DWORD PTR sum2$[rbp], eax
	mov	eax, 2
	imul	rax, rax, 64				; 00000040H
	mov	rcx, QWORD PTR p$[rbp]
	movsx	eax, WORD PTR [rcx+rax]
	mov	DWORD PTR tmp$2[rbp], eax
	mov	eax, 2
	imul	rax, rax, 64				; 00000040H
	mov	rcx, QWORD PTR w$[rbp]
	movsx	eax, WORD PTR [rcx+rax+64]
	imul	eax, DWORD PTR tmp$2[rbp]
	mov	ecx, DWORD PTR sum$[rbp]
	sub	ecx, eax
	mov	eax, ecx
	mov	DWORD PTR sum$[rbp], eax
	mov	eax, 2
	imul	rax, rax, 64				; 00000040H
	mov	rcx, QWORD PTR w2$[rbp]
	movsx	eax, WORD PTR [rcx+rax+64]
	imul	eax, DWORD PTR tmp$2[rbp]
	mov	ecx, DWORD PTR sum2$[rbp]
	sub	ecx, eax
	mov	eax, ecx
	mov	DWORD PTR sum2$[rbp], eax
	mov	eax, 2
	imul	rax, rax, 128				; 00000080H
	mov	rcx, QWORD PTR p$[rbp]
	movsx	eax, WORD PTR [rcx+rax]
	mov	DWORD PTR tmp$2[rbp], eax
	mov	eax, 2
	imul	rax, rax, 128				; 00000080H
	mov	rcx, QWORD PTR w$[rbp]
	movsx	eax, WORD PTR [rcx+rax+64]
	imul	eax, DWORD PTR tmp$2[rbp]
	mov	ecx, DWORD PTR sum$[rbp]
	sub	ecx, eax
	mov	eax, ecx
	mov	DWORD PTR sum$[rbp], eax
	mov	eax, 2
	imul	rax, rax, 128				; 00000080H
	mov	rcx, QWORD PTR w2$[rbp]
	movsx	eax, WORD PTR [rcx+rax+64]
	imul	eax, DWORD PTR tmp$2[rbp]
	mov	ecx, DWORD PTR sum2$[rbp]
	sub	ecx, eax
	mov	eax, ecx
	mov	DWORD PTR sum2$[rbp], eax
	mov	eax, 2
	imul	rax, rax, 192				; 000000c0H
	mov	rcx, QWORD PTR p$[rbp]
	movsx	eax, WORD PTR [rcx+rax]
	mov	DWORD PTR tmp$2[rbp], eax
	mov	eax, 2
	imul	rax, rax, 192				; 000000c0H
	mov	rcx, QWORD PTR w$[rbp]
	movsx	eax, WORD PTR [rcx+rax+64]
	imul	eax, DWORD PTR tmp$2[rbp]
	mov	ecx, DWORD PTR sum$[rbp]
	sub	ecx, eax
	mov	eax, ecx
	mov	DWORD PTR sum$[rbp], eax
	mov	eax, 2
	imul	rax, rax, 192				; 000000c0H
	mov	rcx, QWORD PTR w2$[rbp]
	movsx	eax, WORD PTR [rcx+rax+64]
	imul	eax, DWORD PTR tmp$2[rbp]
	mov	ecx, DWORD PTR sum2$[rbp]
	sub	ecx, eax
	mov	eax, ecx
	mov	DWORD PTR sum2$[rbp], eax
	mov	eax, 2
	imul	rax, rax, 256				; 00000100H
	mov	rcx, QWORD PTR p$[rbp]
	movsx	eax, WORD PTR [rcx+rax]
	mov	DWORD PTR tmp$2[rbp], eax
	mov	eax, 2
	imul	rax, rax, 256				; 00000100H
	mov	rcx, QWORD PTR w$[rbp]
	movsx	eax, WORD PTR [rcx+rax+64]
	imul	eax, DWORD PTR tmp$2[rbp]
	mov	ecx, DWORD PTR sum$[rbp]
	sub	ecx, eax
	mov	eax, ecx
	mov	DWORD PTR sum$[rbp], eax
	mov	eax, 2
	imul	rax, rax, 256				; 00000100H
	mov	rcx, QWORD PTR w2$[rbp]
	movsx	eax, WORD PTR [rcx+rax+64]
	imul	eax, DWORD PTR tmp$2[rbp]
	mov	ecx, DWORD PTR sum2$[rbp]
	sub	ecx, eax
	mov	eax, ecx
	mov	DWORD PTR sum2$[rbp], eax
	mov	eax, 2
	imul	rax, rax, 320				; 00000140H
	mov	rcx, QWORD PTR p$[rbp]
	movsx	eax, WORD PTR [rcx+rax]
	mov	DWORD PTR tmp$2[rbp], eax
	mov	eax, 2
	imul	rax, rax, 320				; 00000140H
	mov	rcx, QWORD PTR w$[rbp]
	movsx	eax, WORD PTR [rcx+rax+64]
	imul	eax, DWORD PTR tmp$2[rbp]
	mov	ecx, DWORD PTR sum$[rbp]
	sub	ecx, eax
	mov	eax, ecx
	mov	DWORD PTR sum$[rbp], eax
	mov	eax, 2
	imul	rax, rax, 320				; 00000140H
	mov	rcx, QWORD PTR w2$[rbp]
	movsx	eax, WORD PTR [rcx+rax+64]
	imul	eax, DWORD PTR tmp$2[rbp]
	mov	ecx, DWORD PTR sum2$[rbp]
	sub	ecx, eax
	mov	eax, ecx
	mov	DWORD PTR sum2$[rbp], eax
	mov	eax, 2
	imul	rax, rax, 384				; 00000180H
	mov	rcx, QWORD PTR p$[rbp]
	movsx	eax, WORD PTR [rcx+rax]
	mov	DWORD PTR tmp$2[rbp], eax
	mov	eax, 2
	imul	rax, rax, 384				; 00000180H
	mov	rcx, QWORD PTR w$[rbp]
	movsx	eax, WORD PTR [rcx+rax+64]
	imul	eax, DWORD PTR tmp$2[rbp]
	mov	ecx, DWORD PTR sum$[rbp]
	sub	ecx, eax
	mov	eax, ecx
	mov	DWORD PTR sum$[rbp], eax
	mov	eax, 2
	imul	rax, rax, 384				; 00000180H
	mov	rcx, QWORD PTR w2$[rbp]
	movsx	eax, WORD PTR [rcx+rax+64]
	imul	eax, DWORD PTR tmp$2[rbp]
	mov	ecx, DWORD PTR sum2$[rbp]
	sub	ecx, eax
	mov	eax, ecx
	mov	DWORD PTR sum2$[rbp], eax
	mov	eax, 2
	imul	rax, rax, 448				; 000001c0H
	mov	rcx, QWORD PTR p$[rbp]
	movsx	eax, WORD PTR [rcx+rax]
	mov	DWORD PTR tmp$2[rbp], eax
	mov	eax, 2
	imul	rax, rax, 448				; 000001c0H
	mov	rcx, QWORD PTR w$[rbp]
	movsx	eax, WORD PTR [rcx+rax+64]
	imul	eax, DWORD PTR tmp$2[rbp]
	mov	ecx, DWORD PTR sum$[rbp]
	sub	ecx, eax
	mov	eax, ecx
	mov	DWORD PTR sum$[rbp], eax
	mov	eax, 2
	imul	rax, rax, 448				; 000001c0H
	mov	rcx, QWORD PTR w2$[rbp]
	movsx	eax, WORD PTR [rcx+rax+64]
	imul	eax, DWORD PTR tmp$2[rbp]
	mov	ecx, DWORD PTR sum2$[rbp]
	sub	ecx, eax
	mov	eax, ecx
	mov	DWORD PTR sum2$[rbp], eax

; 2065 : 
; 2066 : 			*samples = round_sample(&sum);

	lea	rcx, QWORD PTR sum$[rbp]
	call	?round_sample@@YAHPEAH@Z		; round_sample
	mov	rcx, QWORD PTR samples$[rbp]
	mov	WORD PTR [rcx], ax

; 2067 : 			samples += incr;

	movsxd	rax, DWORD PTR incr$[rbp]
	mov	rcx, QWORD PTR samples$[rbp]
	lea	rax, QWORD PTR [rcx+rax*2]
	mov	QWORD PTR samples$[rbp], rax

; 2068 : 			sum += sum2;

	mov	eax, DWORD PTR sum2$[rbp]
	mov	ecx, DWORD PTR sum$[rbp]
	add	ecx, eax
	mov	eax, ecx
	mov	DWORD PTR sum$[rbp], eax

; 2069 : 			*samples2 = round_sample(&sum);

	lea	rcx, QWORD PTR sum$[rbp]
	call	?round_sample@@YAHPEAH@Z		; round_sample
	mov	rcx, QWORD PTR samples2$[rbp]
	mov	WORD PTR [rcx], ax

; 2070 : 			samples2 -= incr;

	movsxd	rax, DWORD PTR incr$[rbp]
	shl	rax, 1
	mov	rcx, QWORD PTR samples2$[rbp]
	sub	rcx, rax
	mov	rax, rcx
	mov	QWORD PTR samples2$[rbp], rax

; 2071 : 			w++;

	mov	rax, QWORD PTR w$[rbp]
	add	rax, 2
	mov	QWORD PTR w$[rbp], rax

; 2072 : 			w2--;

	mov	rax, QWORD PTR w2$[rbp]
	sub	rax, 2
	mov	QWORD PTR w2$[rbp], rax

; 2073 : 		}

	jmp	$LN5@mp3_synth_
$LN6@mp3_synth_:

; 2074 : 
; 2075 : 		p = synth_buf + 32;

	mov	rax, QWORD PTR synth_buf$[rbp]
	add	rax, 64					; 00000040H
	mov	QWORD PTR p$[rbp], rax

; 2076 : 		SUM8(sum, -= , w + 32, p);

	mov	eax, 2
	imul	rax, rax, 0
	mov	rcx, QWORD PTR w$[rbp]
	movsx	eax, WORD PTR [rcx+rax+64]
	mov	ecx, 2
	imul	rcx, rcx, 0
	mov	rdx, QWORD PTR p$[rbp]
	movsx	ecx, WORD PTR [rdx+rcx]
	imul	eax, ecx
	mov	ecx, DWORD PTR sum$[rbp]
	sub	ecx, eax
	mov	eax, ecx
	mov	DWORD PTR sum$[rbp], eax
	mov	eax, 2
	imul	rax, rax, 64				; 00000040H
	mov	rcx, QWORD PTR w$[rbp]
	movsx	eax, WORD PTR [rcx+rax+64]
	mov	ecx, 2
	imul	rcx, rcx, 64				; 00000040H
	mov	rdx, QWORD PTR p$[rbp]
	movsx	ecx, WORD PTR [rdx+rcx]
	imul	eax, ecx
	mov	ecx, DWORD PTR sum$[rbp]
	sub	ecx, eax
	mov	eax, ecx
	mov	DWORD PTR sum$[rbp], eax
	mov	eax, 2
	imul	rax, rax, 128				; 00000080H
	mov	rcx, QWORD PTR w$[rbp]
	movsx	eax, WORD PTR [rcx+rax+64]
	mov	ecx, 2
	imul	rcx, rcx, 128				; 00000080H
	mov	rdx, QWORD PTR p$[rbp]
	movsx	ecx, WORD PTR [rdx+rcx]
	imul	eax, ecx
	mov	ecx, DWORD PTR sum$[rbp]
	sub	ecx, eax
	mov	eax, ecx
	mov	DWORD PTR sum$[rbp], eax
	mov	eax, 2
	imul	rax, rax, 192				; 000000c0H
	mov	rcx, QWORD PTR w$[rbp]
	movsx	eax, WORD PTR [rcx+rax+64]
	mov	ecx, 2
	imul	rcx, rcx, 192				; 000000c0H
	mov	rdx, QWORD PTR p$[rbp]
	movsx	ecx, WORD PTR [rdx+rcx]
	imul	eax, ecx
	mov	ecx, DWORD PTR sum$[rbp]
	sub	ecx, eax
	mov	eax, ecx
	mov	DWORD PTR sum$[rbp], eax
	mov	eax, 2
	imul	rax, rax, 256				; 00000100H
	mov	rcx, QWORD PTR w$[rbp]
	movsx	eax, WORD PTR [rcx+rax+64]
	mov	ecx, 2
	imul	rcx, rcx, 256				; 00000100H
	mov	rdx, QWORD PTR p$[rbp]
	movsx	ecx, WORD PTR [rdx+rcx]
	imul	eax, ecx
	mov	ecx, DWORD PTR sum$[rbp]
	sub	ecx, eax
	mov	eax, ecx
	mov	DWORD PTR sum$[rbp], eax
	mov	eax, 2
	imul	rax, rax, 320				; 00000140H
	mov	rcx, QWORD PTR w$[rbp]
	movsx	eax, WORD PTR [rcx+rax+64]
	mov	ecx, 2
	imul	rcx, rcx, 320				; 00000140H
	mov	rdx, QWORD PTR p$[rbp]
	movsx	ecx, WORD PTR [rdx+rcx]
	imul	eax, ecx
	mov	ecx, DWORD PTR sum$[rbp]
	sub	ecx, eax
	mov	eax, ecx
	mov	DWORD PTR sum$[rbp], eax
	mov	eax, 2
	imul	rax, rax, 384				; 00000180H
	mov	rcx, QWORD PTR w$[rbp]
	movsx	eax, WORD PTR [rcx+rax+64]
	mov	ecx, 2
	imul	rcx, rcx, 384				; 00000180H
	mov	rdx, QWORD PTR p$[rbp]
	movsx	ecx, WORD PTR [rdx+rcx]
	imul	eax, ecx
	mov	ecx, DWORD PTR sum$[rbp]
	sub	ecx, eax
	mov	eax, ecx
	mov	DWORD PTR sum$[rbp], eax
	mov	eax, 2
	imul	rax, rax, 448				; 000001c0H
	mov	rcx, QWORD PTR w$[rbp]
	movsx	eax, WORD PTR [rcx+rax+64]
	mov	ecx, 2
	imul	rcx, rcx, 448				; 000001c0H
	mov	rdx, QWORD PTR p$[rbp]
	movsx	ecx, WORD PTR [rdx+rcx]
	imul	eax, ecx
	mov	ecx, DWORD PTR sum$[rbp]
	sub	ecx, eax
	mov	eax, ecx
	mov	DWORD PTR sum$[rbp], eax

; 2077 : 		*samples = round_sample(&sum);

	lea	rcx, QWORD PTR sum$[rbp]
	call	?round_sample@@YAHPEAH@Z		; round_sample
	mov	rcx, QWORD PTR samples$[rbp]
	mov	WORD PTR [rcx], ax

; 2078 : 		*dither_state = sum;

	mov	rax, QWORD PTR dither_state$[rbp]
	mov	ecx, DWORD PTR sum$[rbp]
	mov	DWORD PTR [rax], ecx

; 2079 : 
; 2080 : 		offset = (offset - 32) & 511;

	mov	eax, DWORD PTR offset$[rbp]
	sub	eax, 32					; 00000020H
	and	eax, 511				; 000001ffH
	mov	DWORD PTR offset$[rbp], eax

; 2081 : 		*synth_buf_offset = offset;

	mov	rax, QWORD PTR synth_buf_offset$[rbp]
	mov	ecx, DWORD PTR offset$[rbp]
	mov	DWORD PTR [rax], ecx

; 2082 : 	}

	lea	rsp, QWORD PTR [rbp+272]
	pop	rbp
	ret	0
?mp3_synth_filter@@YAXPEAFPEAH010HQEAH@Z ENDP		; mp3_synth_filter
_TEXT	ENDS
; Function compile flags: /Odtp /ZI
; File C:\Users\paras\source\repos\grep-name\XenevaOS\Process\AudioPlayer\minimp3.cpp
;	COMDAT ?dct32@@YAXPEAH0@Z
_TEXT	SEGMENT
tmp0$ = 0
tmp1$ = 4
out$ = 96
tab$ = 104
?dct32@@YAXPEAH0@Z PROC					; dct32, COMDAT

; 1856 : 	{

	mov	QWORD PTR [rsp+16], rdx
	mov	QWORD PTR [rsp+8], rcx
	push	rbp
	sub	rsp, 80					; 00000050H
	mov	rbp, rsp

; 1857 : 		int tmp0, tmp1;
; 1858 : 
; 1859 : 		/* pass 1 */
; 1860 : 		BF(0, 31, COS0_0, 1);

	mov	eax, 4
	imul	rax, rax, 0
	mov	ecx, 4
	imul	rcx, rcx, 31
	mov	rdx, QWORD PTR tab$[rbp]
	mov	eax, DWORD PTR [rdx+rax]
	mov	rdx, QWORD PTR tab$[rbp]
	add	eax, DWORD PTR [rdx+rcx]
	mov	DWORD PTR tmp0$[rbp], eax
	mov	eax, 4
	imul	rax, rax, 0
	mov	ecx, 4
	imul	rcx, rcx, 31
	mov	rdx, QWORD PTR tab$[rbp]
	mov	r8, QWORD PTR tab$[rbp]
	mov	ecx, DWORD PTR [r8+rcx]
	mov	eax, DWORD PTR [rdx+rax]
	sub	eax, ecx
	mov	DWORD PTR tmp1$[rbp], eax
	mov	eax, 4
	imul	rax, rax, 0
	mov	rcx, QWORD PTR tab$[rbp]
	mov	edx, DWORD PTR tmp0$[rbp]
	mov	DWORD PTR [rcx+rax], edx
	mov	eax, DWORD PTR tmp1$[rbp]
	shl	eax, 1
	cdqe
	imul	rax, rax, 1075036753			; 4013c251H
	sar	rax, 32					; 00000020H
	mov	ecx, 4
	imul	rcx, rcx, 31
	mov	rdx, QWORD PTR tab$[rbp]
	mov	DWORD PTR [rdx+rcx], eax

; 1861 : 		BF(15, 16, COS0_15, 5);

	mov	eax, 4
	imul	rax, rax, 15
	mov	ecx, 4
	imul	rcx, rcx, 16
	mov	rdx, QWORD PTR tab$[rbp]
	mov	eax, DWORD PTR [rdx+rax]
	mov	rdx, QWORD PTR tab$[rbp]
	add	eax, DWORD PTR [rdx+rcx]
	mov	DWORD PTR tmp0$[rbp], eax
	mov	eax, 4
	imul	rax, rax, 15
	mov	ecx, 4
	imul	rcx, rcx, 16
	mov	rdx, QWORD PTR tab$[rbp]
	mov	r8, QWORD PTR tab$[rbp]
	mov	ecx, DWORD PTR [r8+rcx]
	mov	eax, DWORD PTR [rdx+rax]
	sub	eax, ecx
	mov	DWORD PTR tmp1$[rbp], eax
	mov	eax, 4
	imul	rax, rax, 15
	mov	rcx, QWORD PTR tab$[rbp]
	mov	edx, DWORD PTR tmp0$[rbp]
	mov	DWORD PTR [rcx+rax], edx
	mov	eax, DWORD PTR tmp1$[rbp]
	shl	eax, 5
	cdqe
	imul	rax, rax, 1367679739			; 518522fbH
	sar	rax, 32					; 00000020H
	mov	ecx, 4
	imul	rcx, rcx, 16
	mov	rdx, QWORD PTR tab$[rbp]
	mov	DWORD PTR [rdx+rcx], eax

; 1862 : 		/* pass 2 */
; 1863 : 		BF(0, 15, COS1_0, 1);

	mov	eax, 4
	imul	rax, rax, 0
	mov	ecx, 4
	imul	rcx, rcx, 15
	mov	rdx, QWORD PTR tab$[rbp]
	mov	eax, DWORD PTR [rdx+rax]
	mov	rdx, QWORD PTR tab$[rbp]
	add	eax, DWORD PTR [rdx+rcx]
	mov	DWORD PTR tmp0$[rbp], eax
	mov	eax, 4
	imul	rax, rax, 0
	mov	ecx, 4
	imul	rcx, rcx, 15
	mov	rdx, QWORD PTR tab$[rbp]
	mov	r8, QWORD PTR tab$[rbp]
	mov	ecx, DWORD PTR [r8+rcx]
	mov	eax, DWORD PTR [rdx+rax]
	sub	eax, ecx
	mov	DWORD PTR tmp1$[rbp], eax
	mov	eax, 4
	imul	rax, rax, 0
	mov	rcx, QWORD PTR tab$[rbp]
	mov	edx, DWORD PTR tmp0$[rbp]
	mov	DWORD PTR [rcx+rax], edx
	mov	eax, DWORD PTR tmp1$[rbp]
	shl	eax, 1
	cdqe
	imul	rax, rax, 1078937202			; 404f4672H
	sar	rax, 32					; 00000020H
	mov	ecx, 4
	imul	rcx, rcx, 15
	mov	rdx, QWORD PTR tab$[rbp]
	mov	DWORD PTR [rdx+rcx], eax

; 1864 : 		BF(16, 31, -COS1_0, 1);

	mov	eax, 4
	imul	rax, rax, 16
	mov	ecx, 4
	imul	rcx, rcx, 31
	mov	rdx, QWORD PTR tab$[rbp]
	mov	eax, DWORD PTR [rdx+rax]
	mov	rdx, QWORD PTR tab$[rbp]
	add	eax, DWORD PTR [rdx+rcx]
	mov	DWORD PTR tmp0$[rbp], eax
	mov	eax, 4
	imul	rax, rax, 16
	mov	ecx, 4
	imul	rcx, rcx, 31
	mov	rdx, QWORD PTR tab$[rbp]
	mov	r8, QWORD PTR tab$[rbp]
	mov	ecx, DWORD PTR [r8+rcx]
	mov	eax, DWORD PTR [rdx+rax]
	sub	eax, ecx
	mov	DWORD PTR tmp1$[rbp], eax
	mov	eax, 4
	imul	rax, rax, 16
	mov	rcx, QWORD PTR tab$[rbp]
	mov	edx, DWORD PTR tmp0$[rbp]
	mov	DWORD PTR [rcx+rax], edx
	mov	eax, DWORD PTR tmp1$[rbp]
	shl	eax, 1
	cdqe
	imul	rax, rax, -1078937202			; ffffffffbfb0b98eH
	sar	rax, 32					; 00000020H
	mov	ecx, 4
	imul	rcx, rcx, 31
	mov	rdx, QWORD PTR tab$[rbp]
	mov	DWORD PTR [rdx+rcx], eax

; 1865 : 		/* pass 1 */
; 1866 : 		BF(7, 24, COS0_7, 1);

	mov	eax, 4
	imul	rax, rax, 7
	mov	ecx, 4
	imul	rcx, rcx, 24
	mov	rdx, QWORD PTR tab$[rbp]
	mov	eax, DWORD PTR [rdx+rax]
	mov	rdx, QWORD PTR tab$[rbp]
	add	eax, DWORD PTR [rdx+rcx]
	mov	DWORD PTR tmp0$[rbp], eax
	mov	eax, 4
	imul	rax, rax, 7
	mov	ecx, 4
	imul	rcx, rcx, 24
	mov	rdx, QWORD PTR tab$[rbp]
	mov	r8, QWORD PTR tab$[rbp]
	mov	ecx, DWORD PTR [r8+rcx]
	mov	eax, DWORD PTR [rdx+rax]
	sub	eax, ecx
	mov	DWORD PTR tmp1$[rbp], eax
	mov	eax, 4
	imul	rax, rax, 7
	mov	rcx, QWORD PTR tab$[rbp]
	mov	edx, DWORD PTR tmp0$[rbp]
	mov	DWORD PTR [rcx+rax], edx
	mov	eax, DWORD PTR tmp1$[rbp]
	shl	eax, 1
	cdqe
	imul	rax, rax, 1449139879			; 56601ea7H
	sar	rax, 32					; 00000020H
	mov	ecx, 4
	imul	rcx, rcx, 24
	mov	rdx, QWORD PTR tab$[rbp]
	mov	DWORD PTR [rdx+rcx], eax

; 1867 : 		BF(8, 23, COS0_8, 1);

	mov	eax, 4
	imul	rax, rax, 8
	mov	ecx, 4
	imul	rcx, rcx, 23
	mov	rdx, QWORD PTR tab$[rbp]
	mov	eax, DWORD PTR [rdx+rax]
	mov	rdx, QWORD PTR tab$[rbp]
	add	eax, DWORD PTR [rdx+rcx]
	mov	DWORD PTR tmp0$[rbp], eax
	mov	eax, 4
	imul	rax, rax, 8
	mov	ecx, 4
	imul	rcx, rcx, 23
	mov	rdx, QWORD PTR tab$[rbp]
	mov	r8, QWORD PTR tab$[rbp]
	mov	ecx, DWORD PTR [r8+rcx]
	mov	eax, DWORD PTR [rdx+rax]
	sub	eax, ecx
	mov	DWORD PTR tmp1$[rbp], eax
	mov	eax, 4
	imul	rax, rax, 8
	mov	rcx, QWORD PTR tab$[rbp]
	mov	edx, DWORD PTR tmp0$[rbp]
	mov	DWORD PTR [rcx+rax], edx
	mov	eax, DWORD PTR tmp1$[rbp]
	shl	eax, 1
	cdqe
	imul	rax, rax, 1598879467			; 5f4cf6ebH
	sar	rax, 32					; 00000020H
	mov	ecx, 4
	imul	rcx, rcx, 23
	mov	rdx, QWORD PTR tab$[rbp]
	mov	DWORD PTR [rdx+rcx], eax

; 1868 : 		/* pass 2 */
; 1869 : 		BF(7, 8, COS1_7, 4);

	mov	eax, 4
	imul	rax, rax, 7
	mov	ecx, 4
	imul	rcx, rcx, 8
	mov	rdx, QWORD PTR tab$[rbp]
	mov	eax, DWORD PTR [rdx+rax]
	mov	rdx, QWORD PTR tab$[rbp]
	add	eax, DWORD PTR [rdx+rcx]
	mov	DWORD PTR tmp0$[rbp], eax
	mov	eax, 4
	imul	rax, rax, 7
	mov	ecx, 4
	imul	rcx, rcx, 8
	mov	rdx, QWORD PTR tab$[rbp]
	mov	r8, QWORD PTR tab$[rbp]
	mov	ecx, DWORD PTR [r8+rcx]
	mov	eax, DWORD PTR [rdx+rax]
	sub	eax, ecx
	mov	DWORD PTR tmp1$[rbp], eax
	mov	eax, 4
	imul	rax, rax, 7
	mov	rcx, QWORD PTR tab$[rbp]
	mov	edx, DWORD PTR tmp0$[rbp]
	mov	DWORD PTR [rcx+rax], edx
	mov	eax, DWORD PTR tmp1$[rbp]
	shl	eax, 4
	cdqe
	imul	rax, rax, 1369329156			; 519e4e04H
	sar	rax, 32					; 00000020H
	mov	ecx, 4
	imul	rcx, rcx, 8
	mov	rdx, QWORD PTR tab$[rbp]
	mov	DWORD PTR [rdx+rcx], eax

; 1870 : 		BF(23, 24, -COS1_7, 4);

	mov	eax, 4
	imul	rax, rax, 23
	mov	ecx, 4
	imul	rcx, rcx, 24
	mov	rdx, QWORD PTR tab$[rbp]
	mov	eax, DWORD PTR [rdx+rax]
	mov	rdx, QWORD PTR tab$[rbp]
	add	eax, DWORD PTR [rdx+rcx]
	mov	DWORD PTR tmp0$[rbp], eax
	mov	eax, 4
	imul	rax, rax, 23
	mov	ecx, 4
	imul	rcx, rcx, 24
	mov	rdx, QWORD PTR tab$[rbp]
	mov	r8, QWORD PTR tab$[rbp]
	mov	ecx, DWORD PTR [r8+rcx]
	mov	eax, DWORD PTR [rdx+rax]
	sub	eax, ecx
	mov	DWORD PTR tmp1$[rbp], eax
	mov	eax, 4
	imul	rax, rax, 23
	mov	rcx, QWORD PTR tab$[rbp]
	mov	edx, DWORD PTR tmp0$[rbp]
	mov	DWORD PTR [rcx+rax], edx
	mov	eax, DWORD PTR tmp1$[rbp]
	shl	eax, 4
	cdqe
	imul	rax, rax, -1369329156			; ffffffffae61b1fcH
	sar	rax, 32					; 00000020H
	mov	ecx, 4
	imul	rcx, rcx, 24
	mov	rdx, QWORD PTR tab$[rbp]
	mov	DWORD PTR [rdx+rcx], eax

; 1871 : 		/* pass 3 */
; 1872 : 		BF(0, 7, COS2_0, 1);

	mov	eax, 4
	imul	rax, rax, 0
	mov	ecx, 4
	imul	rcx, rcx, 7
	mov	rdx, QWORD PTR tab$[rbp]
	mov	eax, DWORD PTR [rdx+rax]
	mov	rdx, QWORD PTR tab$[rbp]
	add	eax, DWORD PTR [rdx+rcx]
	mov	DWORD PTR tmp0$[rbp], eax
	mov	eax, 4
	imul	rax, rax, 0
	mov	ecx, 4
	imul	rcx, rcx, 7
	mov	rdx, QWORD PTR tab$[rbp]
	mov	r8, QWORD PTR tab$[rbp]
	mov	ecx, DWORD PTR [r8+rcx]
	mov	eax, DWORD PTR [rdx+rax]
	sub	eax, ecx
	mov	DWORD PTR tmp1$[rbp], eax
	mov	eax, 4
	imul	rax, rax, 0
	mov	rcx, QWORD PTR tab$[rbp]
	mov	edx, DWORD PTR tmp0$[rbp]
	mov	DWORD PTR [rcx+rax], edx
	mov	eax, DWORD PTR tmp1$[rbp]
	shl	eax, 1
	cdqe
	imul	rax, rax, 1094777670			; 4140fb46H
	sar	rax, 32					; 00000020H
	mov	ecx, 4
	imul	rcx, rcx, 7
	mov	rdx, QWORD PTR tab$[rbp]
	mov	DWORD PTR [rdx+rcx], eax

; 1873 : 		BF(8, 15, -COS2_0, 1);

	mov	eax, 4
	imul	rax, rax, 8
	mov	ecx, 4
	imul	rcx, rcx, 15
	mov	rdx, QWORD PTR tab$[rbp]
	mov	eax, DWORD PTR [rdx+rax]
	mov	rdx, QWORD PTR tab$[rbp]
	add	eax, DWORD PTR [rdx+rcx]
	mov	DWORD PTR tmp0$[rbp], eax
	mov	eax, 4
	imul	rax, rax, 8
	mov	ecx, 4
	imul	rcx, rcx, 15
	mov	rdx, QWORD PTR tab$[rbp]
	mov	r8, QWORD PTR tab$[rbp]
	mov	ecx, DWORD PTR [r8+rcx]
	mov	eax, DWORD PTR [rdx+rax]
	sub	eax, ecx
	mov	DWORD PTR tmp1$[rbp], eax
	mov	eax, 4
	imul	rax, rax, 8
	mov	rcx, QWORD PTR tab$[rbp]
	mov	edx, DWORD PTR tmp0$[rbp]
	mov	DWORD PTR [rcx+rax], edx
	mov	eax, DWORD PTR tmp1$[rbp]
	shl	eax, 1
	cdqe
	imul	rax, rax, -1094777670			; ffffffffbebf04baH
	sar	rax, 32					; 00000020H
	mov	ecx, 4
	imul	rcx, rcx, 15
	mov	rdx, QWORD PTR tab$[rbp]
	mov	DWORD PTR [rdx+rcx], eax

; 1874 : 		BF(16, 23, COS2_0, 1);

	mov	eax, 4
	imul	rax, rax, 16
	mov	ecx, 4
	imul	rcx, rcx, 23
	mov	rdx, QWORD PTR tab$[rbp]
	mov	eax, DWORD PTR [rdx+rax]
	mov	rdx, QWORD PTR tab$[rbp]
	add	eax, DWORD PTR [rdx+rcx]
	mov	DWORD PTR tmp0$[rbp], eax
	mov	eax, 4
	imul	rax, rax, 16
	mov	ecx, 4
	imul	rcx, rcx, 23
	mov	rdx, QWORD PTR tab$[rbp]
	mov	r8, QWORD PTR tab$[rbp]
	mov	ecx, DWORD PTR [r8+rcx]
	mov	eax, DWORD PTR [rdx+rax]
	sub	eax, ecx
	mov	DWORD PTR tmp1$[rbp], eax
	mov	eax, 4
	imul	rax, rax, 16
	mov	rcx, QWORD PTR tab$[rbp]
	mov	edx, DWORD PTR tmp0$[rbp]
	mov	DWORD PTR [rcx+rax], edx
	mov	eax, DWORD PTR tmp1$[rbp]
	shl	eax, 1
	cdqe
	imul	rax, rax, 1094777670			; 4140fb46H
	sar	rax, 32					; 00000020H
	mov	ecx, 4
	imul	rcx, rcx, 23
	mov	rdx, QWORD PTR tab$[rbp]
	mov	DWORD PTR [rdx+rcx], eax

; 1875 : 		BF(24, 31, -COS2_0, 1);

	mov	eax, 4
	imul	rax, rax, 24
	mov	ecx, 4
	imul	rcx, rcx, 31
	mov	rdx, QWORD PTR tab$[rbp]
	mov	eax, DWORD PTR [rdx+rax]
	mov	rdx, QWORD PTR tab$[rbp]
	add	eax, DWORD PTR [rdx+rcx]
	mov	DWORD PTR tmp0$[rbp], eax
	mov	eax, 4
	imul	rax, rax, 24
	mov	ecx, 4
	imul	rcx, rcx, 31
	mov	rdx, QWORD PTR tab$[rbp]
	mov	r8, QWORD PTR tab$[rbp]
	mov	ecx, DWORD PTR [r8+rcx]
	mov	eax, DWORD PTR [rdx+rax]
	sub	eax, ecx
	mov	DWORD PTR tmp1$[rbp], eax
	mov	eax, 4
	imul	rax, rax, 24
	mov	rcx, QWORD PTR tab$[rbp]
	mov	edx, DWORD PTR tmp0$[rbp]
	mov	DWORD PTR [rcx+rax], edx
	mov	eax, DWORD PTR tmp1$[rbp]
	shl	eax, 1
	cdqe
	imul	rax, rax, -1094777670			; ffffffffbebf04baH
	sar	rax, 32					; 00000020H
	mov	ecx, 4
	imul	rcx, rcx, 31
	mov	rdx, QWORD PTR tab$[rbp]
	mov	DWORD PTR [rdx+rcx], eax

; 1876 : 		/* pass 1 */
; 1877 : 		BF(3, 28, COS0_3, 1);

	mov	eax, 4
	imul	rax, rax, 3
	mov	ecx, 4
	imul	rcx, rcx, 28
	mov	rdx, QWORD PTR tab$[rbp]
	mov	eax, DWORD PTR [rdx+rax]
	mov	rdx, QWORD PTR tab$[rbp]
	add	eax, DWORD PTR [rdx+rcx]
	mov	DWORD PTR tmp0$[rbp], eax
	mov	eax, 4
	imul	rax, rax, 3
	mov	ecx, 4
	imul	rcx, rcx, 28
	mov	rdx, QWORD PTR tab$[rbp]
	mov	r8, QWORD PTR tab$[rbp]
	mov	ecx, DWORD PTR [r8+rcx]
	mov	eax, DWORD PTR [rdx+rax]
	sub	eax, ecx
	mov	DWORD PTR tmp1$[rbp], eax
	mov	eax, 4
	imul	rax, rax, 3
	mov	rcx, QWORD PTR tab$[rbp]
	mov	edx, DWORD PTR tmp0$[rbp]
	mov	DWORD PTR [rcx+rax], edx
	mov	eax, DWORD PTR tmp1$[rbp]
	shl	eax, 1
	cdqe
	imul	rax, rax, 1140405281			; 43f93421H
	sar	rax, 32					; 00000020H
	mov	ecx, 4
	imul	rcx, rcx, 28
	mov	rdx, QWORD PTR tab$[rbp]
	mov	DWORD PTR [rdx+rcx], eax

; 1878 : 		BF(12, 19, COS0_12, 2);

	mov	eax, 4
	imul	rax, rax, 12
	mov	ecx, 4
	imul	rcx, rcx, 19
	mov	rdx, QWORD PTR tab$[rbp]
	mov	eax, DWORD PTR [rdx+rax]
	mov	rdx, QWORD PTR tab$[rbp]
	add	eax, DWORD PTR [rdx+rcx]
	mov	DWORD PTR tmp0$[rbp], eax
	mov	eax, 4
	imul	rax, rax, 12
	mov	ecx, 4
	imul	rcx, rcx, 19
	mov	rdx, QWORD PTR tab$[rbp]
	mov	r8, QWORD PTR tab$[rbp]
	mov	ecx, DWORD PTR [r8+rcx]
	mov	eax, DWORD PTR [rdx+rax]
	sub	eax, ecx
	mov	DWORD PTR tmp1$[rbp], eax
	mov	eax, 4
	imul	rax, rax, 12
	mov	rcx, QWORD PTR tab$[rbp]
	mov	edx, DWORD PTR tmp0$[rbp]
	mov	DWORD PTR [rcx+rax], edx
	mov	eax, DWORD PTR tmp1$[rbp]
	shl	eax, 2
	cdqe
	imul	rax, rax, 1593609622			; 5efc8d96H
	sar	rax, 32					; 00000020H
	mov	ecx, 4
	imul	rcx, rcx, 19
	mov	rdx, QWORD PTR tab$[rbp]
	mov	DWORD PTR [rdx+rcx], eax

; 1879 : 		/* pass 2 */
; 1880 : 		BF(3, 12, COS1_3, 1);

	mov	eax, 4
	imul	rax, rax, 3
	mov	ecx, 4
	imul	rcx, rcx, 12
	mov	rdx, QWORD PTR tab$[rbp]
	mov	eax, DWORD PTR [rdx+rax]
	mov	rdx, QWORD PTR tab$[rbp]
	add	eax, DWORD PTR [rdx+rcx]
	mov	DWORD PTR tmp0$[rbp], eax
	mov	eax, 4
	imul	rax, rax, 3
	mov	ecx, 4
	imul	rcx, rcx, 12
	mov	rdx, QWORD PTR tab$[rbp]
	mov	r8, QWORD PTR tab$[rbp]
	mov	ecx, DWORD PTR [r8+rcx]
	mov	eax, DWORD PTR [rdx+rax]
	sub	eax, ecx
	mov	DWORD PTR tmp1$[rbp], eax
	mov	eax, 4
	imul	rax, rax, 3
	mov	rcx, QWORD PTR tab$[rbp]
	mov	edx, DWORD PTR tmp0$[rbp]
	mov	DWORD PTR [rcx+rax], edx
	mov	eax, DWORD PTR tmp1$[rbp]
	shl	eax, 1
	cdqe
	imul	rax, rax, 1389039203			; 52cb0e63H
	sar	rax, 32					; 00000020H
	mov	ecx, 4
	imul	rcx, rcx, 12
	mov	rdx, QWORD PTR tab$[rbp]
	mov	DWORD PTR [rdx+rcx], eax

; 1881 : 		BF(19, 28, -COS1_3, 1);

	mov	eax, 4
	imul	rax, rax, 19
	mov	ecx, 4
	imul	rcx, rcx, 28
	mov	rdx, QWORD PTR tab$[rbp]
	mov	eax, DWORD PTR [rdx+rax]
	mov	rdx, QWORD PTR tab$[rbp]
	add	eax, DWORD PTR [rdx+rcx]
	mov	DWORD PTR tmp0$[rbp], eax
	mov	eax, 4
	imul	rax, rax, 19
	mov	ecx, 4
	imul	rcx, rcx, 28
	mov	rdx, QWORD PTR tab$[rbp]
	mov	r8, QWORD PTR tab$[rbp]
	mov	ecx, DWORD PTR [r8+rcx]
	mov	eax, DWORD PTR [rdx+rax]
	sub	eax, ecx
	mov	DWORD PTR tmp1$[rbp], eax
	mov	eax, 4
	imul	rax, rax, 19
	mov	rcx, QWORD PTR tab$[rbp]
	mov	edx, DWORD PTR tmp0$[rbp]
	mov	DWORD PTR [rcx+rax], edx
	mov	eax, DWORD PTR tmp1$[rbp]
	shl	eax, 1
	cdqe
	imul	rax, rax, -1389039203			; ffffffffad34f19dH
	sar	rax, 32					; 00000020H
	mov	ecx, 4
	imul	rcx, rcx, 28
	mov	rdx, QWORD PTR tab$[rbp]
	mov	DWORD PTR [rdx+rcx], eax

; 1882 : 		/* pass 1 */
; 1883 : 		BF(4, 27, COS0_4, 1);

	mov	eax, 4
	imul	rax, rax, 4
	mov	ecx, 4
	imul	rcx, rcx, 27
	mov	rdx, QWORD PTR tab$[rbp]
	mov	eax, DWORD PTR [rdx+rax]
	mov	rdx, QWORD PTR tab$[rbp]
	add	eax, DWORD PTR [rdx+rcx]
	mov	DWORD PTR tmp0$[rbp], eax
	mov	eax, 4
	imul	rax, rax, 4
	mov	ecx, 4
	imul	rcx, rcx, 27
	mov	rdx, QWORD PTR tab$[rbp]
	mov	r8, QWORD PTR tab$[rbp]
	mov	ecx, DWORD PTR [r8+rcx]
	mov	eax, DWORD PTR [rdx+rax]
	sub	eax, ecx
	mov	DWORD PTR tmp1$[rbp], eax
	mov	eax, 4
	imul	rax, rax, 4
	mov	rcx, QWORD PTR tab$[rbp]
	mov	edx, DWORD PTR tmp0$[rbp]
	mov	DWORD PTR [rcx+rax], edx
	mov	eax, DWORD PTR tmp1$[rbp]
	shl	eax, 1
	cdqe
	imul	rax, rax, 1187781572			; 46cc1bc4H
	sar	rax, 32					; 00000020H
	mov	ecx, 4
	imul	rcx, rcx, 27
	mov	rdx, QWORD PTR tab$[rbp]
	mov	DWORD PTR [rdx+rcx], eax

; 1884 : 		BF(11, 20, COS0_11, 2);

	mov	eax, 4
	imul	rax, rax, 11
	mov	ecx, 4
	imul	rcx, rcx, 20
	mov	rdx, QWORD PTR tab$[rbp]
	mov	eax, DWORD PTR [rdx+rax]
	mov	rdx, QWORD PTR tab$[rbp]
	add	eax, DWORD PTR [rdx+rcx]
	mov	DWORD PTR tmp0$[rbp], eax
	mov	eax, 4
	imul	rax, rax, 11
	mov	ecx, 4
	imul	rcx, rcx, 20
	mov	rdx, QWORD PTR tab$[rbp]
	mov	r8, QWORD PTR tab$[rbp]
	mov	ecx, DWORD PTR [r8+rcx]
	mov	eax, DWORD PTR [rdx+rax]
	sub	eax, ecx
	mov	DWORD PTR tmp1$[rbp], eax
	mov	eax, 4
	imul	rax, rax, 11
	mov	rcx, QWORD PTR tab$[rbp]
	mov	edx, DWORD PTR tmp0$[rbp]
	mov	DWORD PTR [rcx+rax], edx
	mov	eax, DWORD PTR tmp1$[rbp]
	shl	eax, 2
	cdqe
	imul	rax, rax, 1255676567			; 4ad81a97H
	sar	rax, 32					; 00000020H
	mov	ecx, 4
	imul	rcx, rcx, 20
	mov	rdx, QWORD PTR tab$[rbp]
	mov	DWORD PTR [rdx+rcx], eax

; 1885 : 		/* pass 2 */
; 1886 : 		BF(4, 11, COS1_4, 1);

	mov	eax, 4
	imul	rax, rax, 4
	mov	ecx, 4
	imul	rcx, rcx, 11
	mov	rdx, QWORD PTR tab$[rbp]
	mov	eax, DWORD PTR [rdx+rax]
	mov	rdx, QWORD PTR tab$[rbp]
	add	eax, DWORD PTR [rdx+rcx]
	mov	DWORD PTR tmp0$[rbp], eax
	mov	eax, 4
	imul	rax, rax, 4
	mov	ecx, 4
	imul	rcx, rcx, 11
	mov	rdx, QWORD PTR tab$[rbp]
	mov	r8, QWORD PTR tab$[rbp]
	mov	ecx, DWORD PTR [r8+rcx]
	mov	eax, DWORD PTR [rdx+rax]
	sub	eax, ecx
	mov	DWORD PTR tmp1$[rbp], eax
	mov	eax, 4
	imul	rax, rax, 4
	mov	rcx, QWORD PTR tab$[rbp]
	mov	edx, DWORD PTR tmp0$[rbp]
	mov	DWORD PTR [rcx+rax], edx
	mov	eax, DWORD PTR tmp1$[rbp]
	shl	eax, 1
	cdqe
	imul	rax, rax, 1692549166			; 64e2402eH
	sar	rax, 32					; 00000020H
	mov	ecx, 4
	imul	rcx, rcx, 11
	mov	rdx, QWORD PTR tab$[rbp]
	mov	DWORD PTR [rdx+rcx], eax

; 1887 : 		BF(20, 27, -COS1_4, 1);

	mov	eax, 4
	imul	rax, rax, 20
	mov	ecx, 4
	imul	rcx, rcx, 27
	mov	rdx, QWORD PTR tab$[rbp]
	mov	eax, DWORD PTR [rdx+rax]
	mov	rdx, QWORD PTR tab$[rbp]
	add	eax, DWORD PTR [rdx+rcx]
	mov	DWORD PTR tmp0$[rbp], eax
	mov	eax, 4
	imul	rax, rax, 20
	mov	ecx, 4
	imul	rcx, rcx, 27
	mov	rdx, QWORD PTR tab$[rbp]
	mov	r8, QWORD PTR tab$[rbp]
	mov	ecx, DWORD PTR [r8+rcx]
	mov	eax, DWORD PTR [rdx+rax]
	sub	eax, ecx
	mov	DWORD PTR tmp1$[rbp], eax
	mov	eax, 4
	imul	rax, rax, 20
	mov	rcx, QWORD PTR tab$[rbp]
	mov	edx, DWORD PTR tmp0$[rbp]
	mov	DWORD PTR [rcx+rax], edx
	mov	eax, DWORD PTR tmp1$[rbp]
	shl	eax, 1
	cdqe
	imul	rax, rax, -1692549166			; ffffffff9b1dbfd2H
	sar	rax, 32					; 00000020H
	mov	ecx, 4
	imul	rcx, rcx, 27
	mov	rdx, QWORD PTR tab$[rbp]
	mov	DWORD PTR [rdx+rcx], eax

; 1888 : 		/* pass 3 */
; 1889 : 		BF(3, 4, COS2_3, 3);

	mov	eax, 4
	imul	rax, rax, 3
	mov	ecx, 4
	imul	rcx, rcx, 4
	mov	rdx, QWORD PTR tab$[rbp]
	mov	eax, DWORD PTR [rdx+rax]
	mov	rdx, QWORD PTR tab$[rbp]
	add	eax, DWORD PTR [rdx+rcx]
	mov	DWORD PTR tmp0$[rbp], eax
	mov	eax, 4
	imul	rax, rax, 3
	mov	ecx, 4
	imul	rcx, rcx, 4
	mov	rdx, QWORD PTR tab$[rbp]
	mov	r8, QWORD PTR tab$[rbp]
	mov	ecx, DWORD PTR [r8+rcx]
	mov	eax, DWORD PTR [rdx+rax]
	sub	eax, ecx
	mov	DWORD PTR tmp1$[rbp], eax
	mov	eax, 4
	imul	rax, rax, 3
	mov	rcx, QWORD PTR tab$[rbp]
	mov	edx, DWORD PTR tmp0$[rbp]
	mov	DWORD PTR [rcx+rax], edx
	mov	eax, DWORD PTR tmp1$[rbp]
	shl	eax, 3
	cdqe
	imul	rax, rax, 1375954754			; 52036742H
	sar	rax, 32					; 00000020H
	mov	ecx, 4
	imul	rcx, rcx, 4
	mov	rdx, QWORD PTR tab$[rbp]
	mov	DWORD PTR [rdx+rcx], eax

; 1890 : 		BF(11, 12, -COS2_3, 3);

	mov	eax, 4
	imul	rax, rax, 11
	mov	ecx, 4
	imul	rcx, rcx, 12
	mov	rdx, QWORD PTR tab$[rbp]
	mov	eax, DWORD PTR [rdx+rax]
	mov	rdx, QWORD PTR tab$[rbp]
	add	eax, DWORD PTR [rdx+rcx]
	mov	DWORD PTR tmp0$[rbp], eax
	mov	eax, 4
	imul	rax, rax, 11
	mov	ecx, 4
	imul	rcx, rcx, 12
	mov	rdx, QWORD PTR tab$[rbp]
	mov	r8, QWORD PTR tab$[rbp]
	mov	ecx, DWORD PTR [r8+rcx]
	mov	eax, DWORD PTR [rdx+rax]
	sub	eax, ecx
	mov	DWORD PTR tmp1$[rbp], eax
	mov	eax, 4
	imul	rax, rax, 11
	mov	rcx, QWORD PTR tab$[rbp]
	mov	edx, DWORD PTR tmp0$[rbp]
	mov	DWORD PTR [rcx+rax], edx
	mov	eax, DWORD PTR tmp1$[rbp]
	shl	eax, 3
	cdqe
	imul	rax, rax, -1375954754			; ffffffffadfc98beH
	sar	rax, 32					; 00000020H
	mov	ecx, 4
	imul	rcx, rcx, 12
	mov	rdx, QWORD PTR tab$[rbp]
	mov	DWORD PTR [rdx+rcx], eax

; 1891 : 		BF(19, 20, COS2_3, 3);

	mov	eax, 4
	imul	rax, rax, 19
	mov	ecx, 4
	imul	rcx, rcx, 20
	mov	rdx, QWORD PTR tab$[rbp]
	mov	eax, DWORD PTR [rdx+rax]
	mov	rdx, QWORD PTR tab$[rbp]
	add	eax, DWORD PTR [rdx+rcx]
	mov	DWORD PTR tmp0$[rbp], eax
	mov	eax, 4
	imul	rax, rax, 19
	mov	ecx, 4
	imul	rcx, rcx, 20
	mov	rdx, QWORD PTR tab$[rbp]
	mov	r8, QWORD PTR tab$[rbp]
	mov	ecx, DWORD PTR [r8+rcx]
	mov	eax, DWORD PTR [rdx+rax]
	sub	eax, ecx
	mov	DWORD PTR tmp1$[rbp], eax
	mov	eax, 4
	imul	rax, rax, 19
	mov	rcx, QWORD PTR tab$[rbp]
	mov	edx, DWORD PTR tmp0$[rbp]
	mov	DWORD PTR [rcx+rax], edx
	mov	eax, DWORD PTR tmp1$[rbp]
	shl	eax, 3
	cdqe
	imul	rax, rax, 1375954754			; 52036742H
	sar	rax, 32					; 00000020H
	mov	ecx, 4
	imul	rcx, rcx, 20
	mov	rdx, QWORD PTR tab$[rbp]
	mov	DWORD PTR [rdx+rcx], eax

; 1892 : 		BF(27, 28, -COS2_3, 3);

	mov	eax, 4
	imul	rax, rax, 27
	mov	ecx, 4
	imul	rcx, rcx, 28
	mov	rdx, QWORD PTR tab$[rbp]
	mov	eax, DWORD PTR [rdx+rax]
	mov	rdx, QWORD PTR tab$[rbp]
	add	eax, DWORD PTR [rdx+rcx]
	mov	DWORD PTR tmp0$[rbp], eax
	mov	eax, 4
	imul	rax, rax, 27
	mov	ecx, 4
	imul	rcx, rcx, 28
	mov	rdx, QWORD PTR tab$[rbp]
	mov	r8, QWORD PTR tab$[rbp]
	mov	ecx, DWORD PTR [r8+rcx]
	mov	eax, DWORD PTR [rdx+rax]
	sub	eax, ecx
	mov	DWORD PTR tmp1$[rbp], eax
	mov	eax, 4
	imul	rax, rax, 27
	mov	rcx, QWORD PTR tab$[rbp]
	mov	edx, DWORD PTR tmp0$[rbp]
	mov	DWORD PTR [rcx+rax], edx
	mov	eax, DWORD PTR tmp1$[rbp]
	shl	eax, 3
	cdqe
	imul	rax, rax, -1375954754			; ffffffffadfc98beH
	sar	rax, 32					; 00000020H
	mov	ecx, 4
	imul	rcx, rcx, 28
	mov	rdx, QWORD PTR tab$[rbp]
	mov	DWORD PTR [rdx+rcx], eax

; 1893 : 		/* pass 4 */
; 1894 : 		BF(0, 3, COS3_0, 1);

	mov	eax, 4
	imul	rax, rax, 0
	mov	ecx, 4
	imul	rcx, rcx, 3
	mov	rdx, QWORD PTR tab$[rbp]
	mov	eax, DWORD PTR [rdx+rax]
	mov	rdx, QWORD PTR tab$[rbp]
	add	eax, DWORD PTR [rdx+rcx]
	mov	DWORD PTR tmp0$[rbp], eax
	mov	eax, 4
	imul	rax, rax, 0
	mov	ecx, 4
	imul	rcx, rcx, 3
	mov	rdx, QWORD PTR tab$[rbp]
	mov	r8, QWORD PTR tab$[rbp]
	mov	ecx, DWORD PTR [r8+rcx]
	mov	eax, DWORD PTR [rdx+rax]
	sub	eax, ecx
	mov	DWORD PTR tmp1$[rbp], eax
	mov	eax, 4
	imul	rax, rax, 0
	mov	rcx, QWORD PTR tab$[rbp]
	mov	edx, DWORD PTR tmp0$[rbp]
	mov	DWORD PTR [rcx+rax], edx
	mov	eax, DWORD PTR tmp1$[rbp]
	shl	eax, 1
	cdqe
	imul	rax, rax, 1162209775			; 4545e9efH
	sar	rax, 32					; 00000020H
	mov	ecx, 4
	imul	rcx, rcx, 3
	mov	rdx, QWORD PTR tab$[rbp]
	mov	DWORD PTR [rdx+rcx], eax

; 1895 : 		BF(4, 7, -COS3_0, 1);

	mov	eax, 4
	imul	rax, rax, 4
	mov	ecx, 4
	imul	rcx, rcx, 7
	mov	rdx, QWORD PTR tab$[rbp]
	mov	eax, DWORD PTR [rdx+rax]
	mov	rdx, QWORD PTR tab$[rbp]
	add	eax, DWORD PTR [rdx+rcx]
	mov	DWORD PTR tmp0$[rbp], eax
	mov	eax, 4
	imul	rax, rax, 4
	mov	ecx, 4
	imul	rcx, rcx, 7
	mov	rdx, QWORD PTR tab$[rbp]
	mov	r8, QWORD PTR tab$[rbp]
	mov	ecx, DWORD PTR [r8+rcx]
	mov	eax, DWORD PTR [rdx+rax]
	sub	eax, ecx
	mov	DWORD PTR tmp1$[rbp], eax
	mov	eax, 4
	imul	rax, rax, 4
	mov	rcx, QWORD PTR tab$[rbp]
	mov	edx, DWORD PTR tmp0$[rbp]
	mov	DWORD PTR [rcx+rax], edx
	mov	eax, DWORD PTR tmp1$[rbp]
	shl	eax, 1
	cdqe
	imul	rax, rax, -1162209775			; ffffffffbaba1611H
	sar	rax, 32					; 00000020H
	mov	ecx, 4
	imul	rcx, rcx, 7
	mov	rdx, QWORD PTR tab$[rbp]
	mov	DWORD PTR [rdx+rcx], eax

; 1896 : 		BF(8, 11, COS3_0, 1);

	mov	eax, 4
	imul	rax, rax, 8
	mov	ecx, 4
	imul	rcx, rcx, 11
	mov	rdx, QWORD PTR tab$[rbp]
	mov	eax, DWORD PTR [rdx+rax]
	mov	rdx, QWORD PTR tab$[rbp]
	add	eax, DWORD PTR [rdx+rcx]
	mov	DWORD PTR tmp0$[rbp], eax
	mov	eax, 4
	imul	rax, rax, 8
	mov	ecx, 4
	imul	rcx, rcx, 11
	mov	rdx, QWORD PTR tab$[rbp]
	mov	r8, QWORD PTR tab$[rbp]
	mov	ecx, DWORD PTR [r8+rcx]
	mov	eax, DWORD PTR [rdx+rax]
	sub	eax, ecx
	mov	DWORD PTR tmp1$[rbp], eax
	mov	eax, 4
	imul	rax, rax, 8
	mov	rcx, QWORD PTR tab$[rbp]
	mov	edx, DWORD PTR tmp0$[rbp]
	mov	DWORD PTR [rcx+rax], edx
	mov	eax, DWORD PTR tmp1$[rbp]
	shl	eax, 1
	cdqe
	imul	rax, rax, 1162209775			; 4545e9efH
	sar	rax, 32					; 00000020H
	mov	ecx, 4
	imul	rcx, rcx, 11
	mov	rdx, QWORD PTR tab$[rbp]
	mov	DWORD PTR [rdx+rcx], eax

; 1897 : 		BF(12, 15, -COS3_0, 1);

	mov	eax, 4
	imul	rax, rax, 12
	mov	ecx, 4
	imul	rcx, rcx, 15
	mov	rdx, QWORD PTR tab$[rbp]
	mov	eax, DWORD PTR [rdx+rax]
	mov	rdx, QWORD PTR tab$[rbp]
	add	eax, DWORD PTR [rdx+rcx]
	mov	DWORD PTR tmp0$[rbp], eax
	mov	eax, 4
	imul	rax, rax, 12
	mov	ecx, 4
	imul	rcx, rcx, 15
	mov	rdx, QWORD PTR tab$[rbp]
	mov	r8, QWORD PTR tab$[rbp]
	mov	ecx, DWORD PTR [r8+rcx]
	mov	eax, DWORD PTR [rdx+rax]
	sub	eax, ecx
	mov	DWORD PTR tmp1$[rbp], eax
	mov	eax, 4
	imul	rax, rax, 12
	mov	rcx, QWORD PTR tab$[rbp]
	mov	edx, DWORD PTR tmp0$[rbp]
	mov	DWORD PTR [rcx+rax], edx
	mov	eax, DWORD PTR tmp1$[rbp]
	shl	eax, 1
	cdqe
	imul	rax, rax, -1162209775			; ffffffffbaba1611H
	sar	rax, 32					; 00000020H
	mov	ecx, 4
	imul	rcx, rcx, 15
	mov	rdx, QWORD PTR tab$[rbp]
	mov	DWORD PTR [rdx+rcx], eax

; 1898 : 		BF(16, 19, COS3_0, 1);

	mov	eax, 4
	imul	rax, rax, 16
	mov	ecx, 4
	imul	rcx, rcx, 19
	mov	rdx, QWORD PTR tab$[rbp]
	mov	eax, DWORD PTR [rdx+rax]
	mov	rdx, QWORD PTR tab$[rbp]
	add	eax, DWORD PTR [rdx+rcx]
	mov	DWORD PTR tmp0$[rbp], eax
	mov	eax, 4
	imul	rax, rax, 16
	mov	ecx, 4
	imul	rcx, rcx, 19
	mov	rdx, QWORD PTR tab$[rbp]
	mov	r8, QWORD PTR tab$[rbp]
	mov	ecx, DWORD PTR [r8+rcx]
	mov	eax, DWORD PTR [rdx+rax]
	sub	eax, ecx
	mov	DWORD PTR tmp1$[rbp], eax
	mov	eax, 4
	imul	rax, rax, 16
	mov	rcx, QWORD PTR tab$[rbp]
	mov	edx, DWORD PTR tmp0$[rbp]
	mov	DWORD PTR [rcx+rax], edx
	mov	eax, DWORD PTR tmp1$[rbp]
	shl	eax, 1
	cdqe
	imul	rax, rax, 1162209775			; 4545e9efH
	sar	rax, 32					; 00000020H
	mov	ecx, 4
	imul	rcx, rcx, 19
	mov	rdx, QWORD PTR tab$[rbp]
	mov	DWORD PTR [rdx+rcx], eax

; 1899 : 		BF(20, 23, -COS3_0, 1);

	mov	eax, 4
	imul	rax, rax, 20
	mov	ecx, 4
	imul	rcx, rcx, 23
	mov	rdx, QWORD PTR tab$[rbp]
	mov	eax, DWORD PTR [rdx+rax]
	mov	rdx, QWORD PTR tab$[rbp]
	add	eax, DWORD PTR [rdx+rcx]
	mov	DWORD PTR tmp0$[rbp], eax
	mov	eax, 4
	imul	rax, rax, 20
	mov	ecx, 4
	imul	rcx, rcx, 23
	mov	rdx, QWORD PTR tab$[rbp]
	mov	r8, QWORD PTR tab$[rbp]
	mov	ecx, DWORD PTR [r8+rcx]
	mov	eax, DWORD PTR [rdx+rax]
	sub	eax, ecx
	mov	DWORD PTR tmp1$[rbp], eax
	mov	eax, 4
	imul	rax, rax, 20
	mov	rcx, QWORD PTR tab$[rbp]
	mov	edx, DWORD PTR tmp0$[rbp]
	mov	DWORD PTR [rcx+rax], edx
	mov	eax, DWORD PTR tmp1$[rbp]
	shl	eax, 1
	cdqe
	imul	rax, rax, -1162209775			; ffffffffbaba1611H
	sar	rax, 32					; 00000020H
	mov	ecx, 4
	imul	rcx, rcx, 23
	mov	rdx, QWORD PTR tab$[rbp]
	mov	DWORD PTR [rdx+rcx], eax

; 1900 : 		BF(24, 27, COS3_0, 1);

	mov	eax, 4
	imul	rax, rax, 24
	mov	ecx, 4
	imul	rcx, rcx, 27
	mov	rdx, QWORD PTR tab$[rbp]
	mov	eax, DWORD PTR [rdx+rax]
	mov	rdx, QWORD PTR tab$[rbp]
	add	eax, DWORD PTR [rdx+rcx]
	mov	DWORD PTR tmp0$[rbp], eax
	mov	eax, 4
	imul	rax, rax, 24
	mov	ecx, 4
	imul	rcx, rcx, 27
	mov	rdx, QWORD PTR tab$[rbp]
	mov	r8, QWORD PTR tab$[rbp]
	mov	ecx, DWORD PTR [r8+rcx]
	mov	eax, DWORD PTR [rdx+rax]
	sub	eax, ecx
	mov	DWORD PTR tmp1$[rbp], eax
	mov	eax, 4
	imul	rax, rax, 24
	mov	rcx, QWORD PTR tab$[rbp]
	mov	edx, DWORD PTR tmp0$[rbp]
	mov	DWORD PTR [rcx+rax], edx
	mov	eax, DWORD PTR tmp1$[rbp]
	shl	eax, 1
	cdqe
	imul	rax, rax, 1162209775			; 4545e9efH
	sar	rax, 32					; 00000020H
	mov	ecx, 4
	imul	rcx, rcx, 27
	mov	rdx, QWORD PTR tab$[rbp]
	mov	DWORD PTR [rdx+rcx], eax

; 1901 : 		BF(28, 31, -COS3_0, 1);

	mov	eax, 4
	imul	rax, rax, 28
	mov	ecx, 4
	imul	rcx, rcx, 31
	mov	rdx, QWORD PTR tab$[rbp]
	mov	eax, DWORD PTR [rdx+rax]
	mov	rdx, QWORD PTR tab$[rbp]
	add	eax, DWORD PTR [rdx+rcx]
	mov	DWORD PTR tmp0$[rbp], eax
	mov	eax, 4
	imul	rax, rax, 28
	mov	ecx, 4
	imul	rcx, rcx, 31
	mov	rdx, QWORD PTR tab$[rbp]
	mov	r8, QWORD PTR tab$[rbp]
	mov	ecx, DWORD PTR [r8+rcx]
	mov	eax, DWORD PTR [rdx+rax]
	sub	eax, ecx
	mov	DWORD PTR tmp1$[rbp], eax
	mov	eax, 4
	imul	rax, rax, 28
	mov	rcx, QWORD PTR tab$[rbp]
	mov	edx, DWORD PTR tmp0$[rbp]
	mov	DWORD PTR [rcx+rax], edx
	mov	eax, DWORD PTR tmp1$[rbp]
	shl	eax, 1
	cdqe
	imul	rax, rax, -1162209775			; ffffffffbaba1611H
	sar	rax, 32					; 00000020H
	mov	ecx, 4
	imul	rcx, rcx, 31
	mov	rdx, QWORD PTR tab$[rbp]
	mov	DWORD PTR [rdx+rcx], eax

; 1902 : 
; 1903 : 
; 1904 : 
; 1905 : 		/* pass 1 */
; 1906 : 		BF(1, 30, COS0_1, 1);

	mov	eax, 4
	imul	rax, rax, 1
	mov	ecx, 4
	imul	rcx, rcx, 30
	mov	rdx, QWORD PTR tab$[rbp]
	mov	eax, DWORD PTR [rdx+rax]
	mov	rdx, QWORD PTR tab$[rbp]
	add	eax, DWORD PTR [rdx+rcx]
	mov	DWORD PTR tmp0$[rbp], eax
	mov	eax, 4
	imul	rax, rax, 1
	mov	ecx, 4
	imul	rcx, rcx, 30
	mov	rdx, QWORD PTR tab$[rbp]
	mov	r8, QWORD PTR tab$[rbp]
	mov	ecx, DWORD PTR [r8+rcx]
	mov	eax, DWORD PTR [rdx+rax]
	sub	eax, ecx
	mov	DWORD PTR tmp1$[rbp], eax
	mov	eax, 4
	imul	rax, rax, 1
	mov	rcx, QWORD PTR tab$[rbp]
	mov	edx, DWORD PTR tmp0$[rbp]
	mov	DWORD PTR [rcx+rax], edx
	mov	eax, DWORD PTR tmp1$[rbp]
	shl	eax, 1
	cdqe
	imul	rax, rax, 1085490621			; 40b345bdH
	sar	rax, 32					; 00000020H
	mov	ecx, 4
	imul	rcx, rcx, 30
	mov	rdx, QWORD PTR tab$[rbp]
	mov	DWORD PTR [rdx+rcx], eax

; 1907 : 		BF(14, 17, COS0_14, 3);

	mov	eax, 4
	imul	rax, rax, 14
	mov	ecx, 4
	imul	rcx, rcx, 17
	mov	rdx, QWORD PTR tab$[rbp]
	mov	eax, DWORD PTR [rdx+rax]
	mov	rdx, QWORD PTR tab$[rbp]
	add	eax, DWORD PTR [rdx+rcx]
	mov	DWORD PTR tmp0$[rbp], eax
	mov	eax, 4
	imul	rax, rax, 14
	mov	ecx, 4
	imul	rcx, rcx, 17
	mov	rdx, QWORD PTR tab$[rbp]
	mov	r8, QWORD PTR tab$[rbp]
	mov	ecx, DWORD PTR [r8+rcx]
	mov	eax, DWORD PTR [rdx+rax]
	sub	eax, ecx
	mov	DWORD PTR tmp1$[rbp], eax
	mov	eax, 4
	imul	rax, rax, 14
	mov	rcx, QWORD PTR tab$[rbp]
	mov	edx, DWORD PTR tmp0$[rbp]
	mov	DWORD PTR [rcx+rax], edx
	mov	eax, DWORD PTR tmp1$[rbp]
	shl	eax, 3
	cdqe
	imul	rax, rax, 1829445839			; 6d0b20cfH
	sar	rax, 32					; 00000020H
	mov	ecx, 4
	imul	rcx, rcx, 17
	mov	rdx, QWORD PTR tab$[rbp]
	mov	DWORD PTR [rdx+rcx], eax

; 1908 : 		/* pass 2 */
; 1909 : 		BF(1, 14, COS1_1, 1);

	mov	eax, 4
	imul	rax, rax, 1
	mov	ecx, 4
	imul	rcx, rcx, 14
	mov	rdx, QWORD PTR tab$[rbp]
	mov	eax, DWORD PTR [rdx+rax]
	mov	rdx, QWORD PTR tab$[rbp]
	add	eax, DWORD PTR [rdx+rcx]
	mov	DWORD PTR tmp0$[rbp], eax
	mov	eax, 4
	imul	rax, rax, 1
	mov	ecx, 4
	imul	rcx, rcx, 14
	mov	rdx, QWORD PTR tab$[rbp]
	mov	r8, QWORD PTR tab$[rbp]
	mov	ecx, DWORD PTR [r8+rcx]
	mov	eax, DWORD PTR [rdx+rax]
	sub	eax, ecx
	mov	DWORD PTR tmp1$[rbp], eax
	mov	eax, 4
	imul	rax, rax, 1
	mov	rcx, QWORD PTR tab$[rbp]
	mov	edx, DWORD PTR tmp0$[rbp]
	mov	DWORD PTR [rcx+rax], edx
	mov	eax, DWORD PTR tmp1$[rbp]
	shl	eax, 1
	cdqe
	imul	rax, rax, 1122057232			; 42e13c10H
	sar	rax, 32					; 00000020H
	mov	ecx, 4
	imul	rcx, rcx, 14
	mov	rdx, QWORD PTR tab$[rbp]
	mov	DWORD PTR [rdx+rcx], eax

; 1910 : 		BF(17, 30, -COS1_1, 1);

	mov	eax, 4
	imul	rax, rax, 17
	mov	ecx, 4
	imul	rcx, rcx, 30
	mov	rdx, QWORD PTR tab$[rbp]
	mov	eax, DWORD PTR [rdx+rax]
	mov	rdx, QWORD PTR tab$[rbp]
	add	eax, DWORD PTR [rdx+rcx]
	mov	DWORD PTR tmp0$[rbp], eax
	mov	eax, 4
	imul	rax, rax, 17
	mov	ecx, 4
	imul	rcx, rcx, 30
	mov	rdx, QWORD PTR tab$[rbp]
	mov	r8, QWORD PTR tab$[rbp]
	mov	ecx, DWORD PTR [r8+rcx]
	mov	eax, DWORD PTR [rdx+rax]
	sub	eax, ecx
	mov	DWORD PTR tmp1$[rbp], eax
	mov	eax, 4
	imul	rax, rax, 17
	mov	rcx, QWORD PTR tab$[rbp]
	mov	edx, DWORD PTR tmp0$[rbp]
	mov	DWORD PTR [rcx+rax], edx
	mov	eax, DWORD PTR tmp1$[rbp]
	shl	eax, 1
	cdqe
	imul	rax, rax, -1122057232			; ffffffffbd1ec3f0H
	sar	rax, 32					; 00000020H
	mov	ecx, 4
	imul	rcx, rcx, 30
	mov	rdx, QWORD PTR tab$[rbp]
	mov	DWORD PTR [rdx+rcx], eax

; 1911 : 		/* pass 1 */
; 1912 : 		BF(6, 25, COS0_6, 1);

	mov	eax, 4
	imul	rax, rax, 6
	mov	ecx, 4
	imul	rcx, rcx, 25
	mov	rdx, QWORD PTR tab$[rbp]
	mov	eax, DWORD PTR [rdx+rax]
	mov	rdx, QWORD PTR tab$[rbp]
	add	eax, DWORD PTR [rdx+rcx]
	mov	DWORD PTR tmp0$[rbp], eax
	mov	eax, 4
	imul	rax, rax, 6
	mov	ecx, 4
	imul	rcx, rcx, 25
	mov	rdx, QWORD PTR tab$[rbp]
	mov	r8, QWORD PTR tab$[rbp]
	mov	ecx, DWORD PTR [r8+rcx]
	mov	eax, DWORD PTR [rdx+rax]
	sub	eax, ecx
	mov	DWORD PTR tmp1$[rbp], eax
	mov	eax, 4
	imul	rax, rax, 6
	mov	rcx, QWORD PTR tab$[rbp]
	mov	edx, DWORD PTR tmp0$[rbp]
	mov	DWORD PTR [rcx+rax], edx
	mov	eax, DWORD PTR tmp1$[rbp]
	shl	eax, 1
	cdqe
	imul	rax, rax, 1336817425			; 4fae3711H
	sar	rax, 32					; 00000020H
	mov	ecx, 4
	imul	rcx, rcx, 25
	mov	rdx, QWORD PTR tab$[rbp]
	mov	DWORD PTR [rdx+rcx], eax

; 1913 : 		BF(9, 22, COS0_9, 1);

	mov	eax, 4
	imul	rax, rax, 9
	mov	ecx, 4
	imul	rcx, rcx, 22
	mov	rdx, QWORD PTR tab$[rbp]
	mov	eax, DWORD PTR [rdx+rax]
	mov	rdx, QWORD PTR tab$[rbp]
	add	eax, DWORD PTR [rdx+rcx]
	mov	DWORD PTR tmp0$[rbp], eax
	mov	eax, 4
	imul	rax, rax, 9
	mov	ecx, 4
	imul	rcx, rcx, 22
	mov	rdx, QWORD PTR tab$[rbp]
	mov	r8, QWORD PTR tab$[rbp]
	mov	ecx, DWORD PTR [r8+rcx]
	mov	eax, DWORD PTR [rdx+rax]
	sub	eax, ecx
	mov	DWORD PTR tmp1$[rbp], eax
	mov	eax, 4
	imul	rax, rax, 9
	mov	rcx, QWORD PTR tab$[rbp]
	mov	edx, DWORD PTR tmp0$[rbp]
	mov	DWORD PTR [rcx+rax], edx
	mov	eax, DWORD PTR tmp1$[rbp]
	shl	eax, 1
	cdqe
	imul	rax, rax, 1802489638			; 6b6fcf26H
	sar	rax, 32					; 00000020H
	mov	ecx, 4
	imul	rcx, rcx, 22
	mov	rdx, QWORD PTR tab$[rbp]
	mov	DWORD PTR [rdx+rcx], eax

; 1914 : 		/* pass 2 */
; 1915 : 		BF(6, 9, COS1_6, 2);

	mov	eax, 4
	imul	rax, rax, 6
	mov	ecx, 4
	imul	rcx, rcx, 9
	mov	rdx, QWORD PTR tab$[rbp]
	mov	eax, DWORD PTR [rdx+rax]
	mov	rdx, QWORD PTR tab$[rbp]
	add	eax, DWORD PTR [rdx+rcx]
	mov	DWORD PTR tmp0$[rbp], eax
	mov	eax, 4
	imul	rax, rax, 6
	mov	ecx, 4
	imul	rcx, rcx, 9
	mov	rdx, QWORD PTR tab$[rbp]
	mov	r8, QWORD PTR tab$[rbp]
	mov	ecx, DWORD PTR [r8+rcx]
	mov	eax, DWORD PTR [rdx+rax]
	sub	eax, ecx
	mov	DWORD PTR tmp1$[rbp], eax
	mov	eax, 4
	imul	rax, rax, 6
	mov	rcx, QWORD PTR tab$[rbp]
	mov	edx, DWORD PTR tmp0$[rbp]
	mov	DWORD PTR [rcx+rax], edx
	mov	eax, DWORD PTR tmp1$[rbp]
	shl	eax, 2
	cdqe
	imul	rax, rax, 1849463489			; 6e3c92c1H
	sar	rax, 32					; 00000020H
	mov	ecx, 4
	imul	rcx, rcx, 9
	mov	rdx, QWORD PTR tab$[rbp]
	mov	DWORD PTR [rdx+rcx], eax

; 1916 : 		BF(22, 25, -COS1_6, 2);

	mov	eax, 4
	imul	rax, rax, 22
	mov	ecx, 4
	imul	rcx, rcx, 25
	mov	rdx, QWORD PTR tab$[rbp]
	mov	eax, DWORD PTR [rdx+rax]
	mov	rdx, QWORD PTR tab$[rbp]
	add	eax, DWORD PTR [rdx+rcx]
	mov	DWORD PTR tmp0$[rbp], eax
	mov	eax, 4
	imul	rax, rax, 22
	mov	ecx, 4
	imul	rcx, rcx, 25
	mov	rdx, QWORD PTR tab$[rbp]
	mov	r8, QWORD PTR tab$[rbp]
	mov	ecx, DWORD PTR [r8+rcx]
	mov	eax, DWORD PTR [rdx+rax]
	sub	eax, ecx
	mov	DWORD PTR tmp1$[rbp], eax
	mov	eax, 4
	imul	rax, rax, 22
	mov	rcx, QWORD PTR tab$[rbp]
	mov	edx, DWORD PTR tmp0$[rbp]
	mov	DWORD PTR [rcx+rax], edx
	mov	eax, DWORD PTR tmp1$[rbp]
	shl	eax, 2
	cdqe
	imul	rax, rax, -1849463489			; ffffffff91c36d3fH
	sar	rax, 32					; 00000020H
	mov	ecx, 4
	imul	rcx, rcx, 25
	mov	rdx, QWORD PTR tab$[rbp]
	mov	DWORD PTR [rdx+rcx], eax

; 1917 : 		/* pass 3 */
; 1918 : 		BF(1, 6, COS2_1, 1);

	mov	eax, 4
	imul	rax, rax, 1
	mov	ecx, 4
	imul	rcx, rcx, 6
	mov	rdx, QWORD PTR tab$[rbp]
	mov	eax, DWORD PTR [rdx+rax]
	mov	rdx, QWORD PTR tab$[rbp]
	add	eax, DWORD PTR [rdx+rcx]
	mov	DWORD PTR tmp0$[rbp], eax
	mov	eax, 4
	imul	rax, rax, 1
	mov	ecx, 4
	imul	rcx, rcx, 6
	mov	rdx, QWORD PTR tab$[rbp]
	mov	r8, QWORD PTR tab$[rbp]
	mov	ecx, DWORD PTR [r8+rcx]
	mov	eax, DWORD PTR [rdx+rax]
	sub	eax, ecx
	mov	DWORD PTR tmp1$[rbp], eax
	mov	eax, 4
	imul	rax, rax, 1
	mov	rcx, QWORD PTR tab$[rbp]
	mov	edx, DWORD PTR tmp0$[rbp]
	mov	DWORD PTR [rcx+rax], edx
	mov	eax, DWORD PTR tmp1$[rbp]
	shl	eax, 1
	cdqe
	imul	rax, rax, 1291378312			; 4cf8de88H
	sar	rax, 32					; 00000020H
	mov	ecx, 4
	imul	rcx, rcx, 6
	mov	rdx, QWORD PTR tab$[rbp]
	mov	DWORD PTR [rdx+rcx], eax

; 1919 : 		BF(9, 14, -COS2_1, 1);

	mov	eax, 4
	imul	rax, rax, 9
	mov	ecx, 4
	imul	rcx, rcx, 14
	mov	rdx, QWORD PTR tab$[rbp]
	mov	eax, DWORD PTR [rdx+rax]
	mov	rdx, QWORD PTR tab$[rbp]
	add	eax, DWORD PTR [rdx+rcx]
	mov	DWORD PTR tmp0$[rbp], eax
	mov	eax, 4
	imul	rax, rax, 9
	mov	ecx, 4
	imul	rcx, rcx, 14
	mov	rdx, QWORD PTR tab$[rbp]
	mov	r8, QWORD PTR tab$[rbp]
	mov	ecx, DWORD PTR [r8+rcx]
	mov	eax, DWORD PTR [rdx+rax]
	sub	eax, ecx
	mov	DWORD PTR tmp1$[rbp], eax
	mov	eax, 4
	imul	rax, rax, 9
	mov	rcx, QWORD PTR tab$[rbp]
	mov	edx, DWORD PTR tmp0$[rbp]
	mov	DWORD PTR [rcx+rax], edx
	mov	eax, DWORD PTR tmp1$[rbp]
	shl	eax, 1
	cdqe
	imul	rax, rax, -1291378312			; ffffffffb3072178H
	sar	rax, 32					; 00000020H
	mov	ecx, 4
	imul	rcx, rcx, 14
	mov	rdx, QWORD PTR tab$[rbp]
	mov	DWORD PTR [rdx+rcx], eax

; 1920 : 		BF(17, 22, COS2_1, 1);

	mov	eax, 4
	imul	rax, rax, 17
	mov	ecx, 4
	imul	rcx, rcx, 22
	mov	rdx, QWORD PTR tab$[rbp]
	mov	eax, DWORD PTR [rdx+rax]
	mov	rdx, QWORD PTR tab$[rbp]
	add	eax, DWORD PTR [rdx+rcx]
	mov	DWORD PTR tmp0$[rbp], eax
	mov	eax, 4
	imul	rax, rax, 17
	mov	ecx, 4
	imul	rcx, rcx, 22
	mov	rdx, QWORD PTR tab$[rbp]
	mov	r8, QWORD PTR tab$[rbp]
	mov	ecx, DWORD PTR [r8+rcx]
	mov	eax, DWORD PTR [rdx+rax]
	sub	eax, ecx
	mov	DWORD PTR tmp1$[rbp], eax
	mov	eax, 4
	imul	rax, rax, 17
	mov	rcx, QWORD PTR tab$[rbp]
	mov	edx, DWORD PTR tmp0$[rbp]
	mov	DWORD PTR [rcx+rax], edx
	mov	eax, DWORD PTR tmp1$[rbp]
	shl	eax, 1
	cdqe
	imul	rax, rax, 1291378312			; 4cf8de88H
	sar	rax, 32					; 00000020H
	mov	ecx, 4
	imul	rcx, rcx, 22
	mov	rdx, QWORD PTR tab$[rbp]
	mov	DWORD PTR [rdx+rcx], eax

; 1921 : 		BF(25, 30, -COS2_1, 1);

	mov	eax, 4
	imul	rax, rax, 25
	mov	ecx, 4
	imul	rcx, rcx, 30
	mov	rdx, QWORD PTR tab$[rbp]
	mov	eax, DWORD PTR [rdx+rax]
	mov	rdx, QWORD PTR tab$[rbp]
	add	eax, DWORD PTR [rdx+rcx]
	mov	DWORD PTR tmp0$[rbp], eax
	mov	eax, 4
	imul	rax, rax, 25
	mov	ecx, 4
	imul	rcx, rcx, 30
	mov	rdx, QWORD PTR tab$[rbp]
	mov	r8, QWORD PTR tab$[rbp]
	mov	ecx, DWORD PTR [r8+rcx]
	mov	eax, DWORD PTR [rdx+rax]
	sub	eax, ecx
	mov	DWORD PTR tmp1$[rbp], eax
	mov	eax, 4
	imul	rax, rax, 25
	mov	rcx, QWORD PTR tab$[rbp]
	mov	edx, DWORD PTR tmp0$[rbp]
	mov	DWORD PTR [rcx+rax], edx
	mov	eax, DWORD PTR tmp1$[rbp]
	shl	eax, 1
	cdqe
	imul	rax, rax, -1291378312			; ffffffffb3072178H
	sar	rax, 32					; 00000020H
	mov	ecx, 4
	imul	rcx, rcx, 30
	mov	rdx, QWORD PTR tab$[rbp]
	mov	DWORD PTR [rdx+rcx], eax

; 1922 : 
; 1923 : 		/* pass 1 */
; 1924 : 		BF(2, 29, COS0_2, 1);

	mov	eax, 4
	imul	rax, rax, 2
	mov	ecx, 4
	imul	rcx, rcx, 29
	mov	rdx, QWORD PTR tab$[rbp]
	mov	eax, DWORD PTR [rdx+rax]
	mov	rdx, QWORD PTR tab$[rbp]
	add	eax, DWORD PTR [rdx+rcx]
	mov	DWORD PTR tmp0$[rbp], eax
	mov	eax, 4
	imul	rax, rax, 2
	mov	ecx, 4
	imul	rcx, rcx, 29
	mov	rdx, QWORD PTR tab$[rbp]
	mov	r8, QWORD PTR tab$[rbp]
	mov	ecx, DWORD PTR [r8+rcx]
	mov	eax, DWORD PTR [rdx+rax]
	sub	eax, ecx
	mov	DWORD PTR tmp1$[rbp], eax
	mov	eax, 4
	imul	rax, rax, 2
	mov	rcx, QWORD PTR tab$[rbp]
	mov	edx, DWORD PTR tmp0$[rbp]
	mov	DWORD PTR [rcx+rax], edx
	mov	eax, DWORD PTR tmp1$[rbp]
	shl	eax, 1
	cdqe
	imul	rax, rax, 1106914669			; 41fa2d6dH
	sar	rax, 32					; 00000020H
	mov	ecx, 4
	imul	rcx, rcx, 29
	mov	rdx, QWORD PTR tab$[rbp]
	mov	DWORD PTR [rdx+rcx], eax

; 1925 : 		BF(13, 18, COS0_13, 3);

	mov	eax, 4
	imul	rax, rax, 13
	mov	ecx, 4
	imul	rcx, rcx, 18
	mov	rdx, QWORD PTR tab$[rbp]
	mov	eax, DWORD PTR [rdx+rax]
	mov	rdx, QWORD PTR tab$[rbp]
	add	eax, DWORD PTR [rdx+rcx]
	mov	DWORD PTR tmp0$[rbp], eax
	mov	eax, 4
	imul	rax, rax, 13
	mov	ecx, 4
	imul	rcx, rcx, 18
	mov	rdx, QWORD PTR tab$[rbp]
	mov	r8, QWORD PTR tab$[rbp]
	mov	ecx, DWORD PTR [r8+rcx]
	mov	eax, DWORD PTR [rdx+rax]
	sub	eax, ecx
	mov	DWORD PTR tmp1$[rbp], eax
	mov	eax, 4
	imul	rax, rax, 13
	mov	rcx, QWORD PTR tab$[rbp]
	mov	edx, DWORD PTR tmp0$[rbp]
	mov	DWORD PTR [rcx+rax], edx
	mov	eax, DWORD PTR tmp1$[rbp]
	shl	eax, 3
	cdqe
	imul	rax, rax, 1104762768			; 41d95790H
	sar	rax, 32					; 00000020H
	mov	ecx, 4
	imul	rcx, rcx, 18
	mov	rdx, QWORD PTR tab$[rbp]
	mov	DWORD PTR [rdx+rcx], eax

; 1926 : 		/* pass 2 */
; 1927 : 		BF(2, 13, COS1_2, 1);

	mov	eax, 4
	imul	rax, rax, 2
	mov	ecx, 4
	imul	rcx, rcx, 13
	mov	rdx, QWORD PTR tab$[rbp]
	mov	eax, DWORD PTR [rdx+rax]
	mov	rdx, QWORD PTR tab$[rbp]
	add	eax, DWORD PTR [rdx+rcx]
	mov	DWORD PTR tmp0$[rbp], eax
	mov	eax, 4
	imul	rax, rax, 2
	mov	ecx, 4
	imul	rcx, rcx, 13
	mov	rdx, QWORD PTR tab$[rbp]
	mov	r8, QWORD PTR tab$[rbp]
	mov	ecx, DWORD PTR [r8+rcx]
	mov	eax, DWORD PTR [rdx+rax]
	sub	eax, ecx
	mov	DWORD PTR tmp1$[rbp], eax
	mov	eax, 4
	imul	rax, rax, 2
	mov	rcx, QWORD PTR tab$[rbp]
	mov	edx, DWORD PTR tmp0$[rbp]
	mov	DWORD PTR [rcx+rax], edx
	mov	eax, DWORD PTR tmp1$[rbp]
	shl	eax, 1
	cdqe
	imul	rax, rax, 1217503044			; 48919f44H
	sar	rax, 32					; 00000020H
	mov	ecx, 4
	imul	rcx, rcx, 13
	mov	rdx, QWORD PTR tab$[rbp]
	mov	DWORD PTR [rdx+rcx], eax

; 1928 : 		BF(18, 29, -COS1_2, 1);

	mov	eax, 4
	imul	rax, rax, 18
	mov	ecx, 4
	imul	rcx, rcx, 29
	mov	rdx, QWORD PTR tab$[rbp]
	mov	eax, DWORD PTR [rdx+rax]
	mov	rdx, QWORD PTR tab$[rbp]
	add	eax, DWORD PTR [rdx+rcx]
	mov	DWORD PTR tmp0$[rbp], eax
	mov	eax, 4
	imul	rax, rax, 18
	mov	ecx, 4
	imul	rcx, rcx, 29
	mov	rdx, QWORD PTR tab$[rbp]
	mov	r8, QWORD PTR tab$[rbp]
	mov	ecx, DWORD PTR [r8+rcx]
	mov	eax, DWORD PTR [rdx+rax]
	sub	eax, ecx
	mov	DWORD PTR tmp1$[rbp], eax
	mov	eax, 4
	imul	rax, rax, 18
	mov	rcx, QWORD PTR tab$[rbp]
	mov	edx, DWORD PTR tmp0$[rbp]
	mov	DWORD PTR [rcx+rax], edx
	mov	eax, DWORD PTR tmp1$[rbp]
	shl	eax, 1
	cdqe
	imul	rax, rax, -1217503044			; ffffffffb76e60bcH
	sar	rax, 32					; 00000020H
	mov	ecx, 4
	imul	rcx, rcx, 29
	mov	rdx, QWORD PTR tab$[rbp]
	mov	DWORD PTR [rdx+rcx], eax

; 1929 : 		/* pass 1 */
; 1930 : 		BF(5, 26, COS0_5, 1);

	mov	eax, 4
	imul	rax, rax, 5
	mov	ecx, 4
	imul	rcx, rcx, 26
	mov	rdx, QWORD PTR tab$[rbp]
	mov	eax, DWORD PTR [rdx+rax]
	mov	rdx, QWORD PTR tab$[rbp]
	add	eax, DWORD PTR [rdx+rcx]
	mov	DWORD PTR tmp0$[rbp], eax
	mov	eax, 4
	imul	rax, rax, 5
	mov	ecx, 4
	imul	rcx, rcx, 26
	mov	rdx, QWORD PTR tab$[rbp]
	mov	r8, QWORD PTR tab$[rbp]
	mov	ecx, DWORD PTR [r8+rcx]
	mov	eax, DWORD PTR [rdx+rax]
	sub	eax, ecx
	mov	DWORD PTR tmp1$[rbp], eax
	mov	eax, 4
	imul	rax, rax, 5
	mov	rcx, QWORD PTR tab$[rbp]
	mov	edx, DWORD PTR tmp0$[rbp]
	mov	DWORD PTR [rcx+rax], edx
	mov	eax, DWORD PTR tmp1$[rbp]
	shl	eax, 1
	cdqe
	imul	rax, rax, 1251843312			; 4a9d9cf0H
	sar	rax, 32					; 00000020H
	mov	ecx, 4
	imul	rcx, rcx, 26
	mov	rdx, QWORD PTR tab$[rbp]
	mov	DWORD PTR [rdx+rcx], eax

; 1931 : 		BF(10, 21, COS0_10, 1);

	mov	eax, 4
	imul	rax, rax, 10
	mov	ecx, 4
	imul	rcx, rcx, 21
	mov	rdx, QWORD PTR tab$[rbp]
	mov	eax, DWORD PTR [rdx+rax]
	mov	rdx, QWORD PTR tab$[rbp]
	add	eax, DWORD PTR [rdx+rcx]
	mov	DWORD PTR tmp0$[rbp], eax
	mov	eax, 4
	imul	rax, rax, 10
	mov	ecx, 4
	imul	rcx, rcx, 21
	mov	rdx, QWORD PTR tab$[rbp]
	mov	r8, QWORD PTR tab$[rbp]
	mov	ecx, DWORD PTR [r8+rcx]
	mov	eax, DWORD PTR [rdx+rax]
	sub	eax, ecx
	mov	DWORD PTR tmp1$[rbp], eax
	mov	eax, 4
	imul	rax, rax, 10
	mov	rcx, QWORD PTR tab$[rbp]
	mov	edx, DWORD PTR tmp0$[rbp]
	mov	DWORD PTR [rcx+rax], edx
	mov	eax, DWORD PTR tmp1$[rbp]
	shl	eax, 1
	cdqe
	imul	rax, rax, 2088574387			; 7c7d1db3H
	sar	rax, 32					; 00000020H
	mov	ecx, 4
	imul	rcx, rcx, 21
	mov	rdx, QWORD PTR tab$[rbp]
	mov	DWORD PTR [rdx+rcx], eax

; 1932 : 		/* pass 2 */
; 1933 : 		BF(5, 10, COS1_5, 2);

	mov	eax, 4
	imul	rax, rax, 5
	mov	ecx, 4
	imul	rcx, rcx, 10
	mov	rdx, QWORD PTR tab$[rbp]
	mov	eax, DWORD PTR [rdx+rax]
	mov	rdx, QWORD PTR tab$[rbp]
	add	eax, DWORD PTR [rdx+rcx]
	mov	DWORD PTR tmp0$[rbp], eax
	mov	eax, 4
	imul	rax, rax, 5
	mov	ecx, 4
	imul	rcx, rcx, 10
	mov	rdx, QWORD PTR tab$[rbp]
	mov	r8, QWORD PTR tab$[rbp]
	mov	ecx, DWORD PTR [r8+rcx]
	mov	eax, DWORD PTR [rdx+rax]
	sub	eax, ecx
	mov	DWORD PTR tmp1$[rbp], eax
	mov	eax, 4
	imul	rax, rax, 5
	mov	rcx, QWORD PTR tab$[rbp]
	mov	edx, DWORD PTR tmp0$[rbp]
	mov	DWORD PTR [rcx+rax], edx
	mov	eax, DWORD PTR tmp1$[rbp]
	shl	eax, 2
	cdqe
	imul	rax, rax, 1138893993			; 43e224a9H
	sar	rax, 32					; 00000020H
	mov	ecx, 4
	imul	rcx, rcx, 10
	mov	rdx, QWORD PTR tab$[rbp]
	mov	DWORD PTR [rdx+rcx], eax

; 1934 : 		BF(21, 26, -COS1_5, 2);

	mov	eax, 4
	imul	rax, rax, 21
	mov	ecx, 4
	imul	rcx, rcx, 26
	mov	rdx, QWORD PTR tab$[rbp]
	mov	eax, DWORD PTR [rdx+rax]
	mov	rdx, QWORD PTR tab$[rbp]
	add	eax, DWORD PTR [rdx+rcx]
	mov	DWORD PTR tmp0$[rbp], eax
	mov	eax, 4
	imul	rax, rax, 21
	mov	ecx, 4
	imul	rcx, rcx, 26
	mov	rdx, QWORD PTR tab$[rbp]
	mov	r8, QWORD PTR tab$[rbp]
	mov	ecx, DWORD PTR [r8+rcx]
	mov	eax, DWORD PTR [rdx+rax]
	sub	eax, ecx
	mov	DWORD PTR tmp1$[rbp], eax
	mov	eax, 4
	imul	rax, rax, 21
	mov	rcx, QWORD PTR tab$[rbp]
	mov	edx, DWORD PTR tmp0$[rbp]
	mov	DWORD PTR [rcx+rax], edx
	mov	eax, DWORD PTR tmp1$[rbp]
	shl	eax, 2
	cdqe
	imul	rax, rax, -1138893993			; ffffffffbc1ddb57H
	sar	rax, 32					; 00000020H
	mov	ecx, 4
	imul	rcx, rcx, 26
	mov	rdx, QWORD PTR tab$[rbp]
	mov	DWORD PTR [rdx+rcx], eax

; 1935 : 		/* pass 3 */
; 1936 : 		BF(2, 5, COS2_2, 1);

	mov	eax, 4
	imul	rax, rax, 2
	mov	ecx, 4
	imul	rcx, rcx, 5
	mov	rdx, QWORD PTR tab$[rbp]
	mov	eax, DWORD PTR [rdx+rax]
	mov	rdx, QWORD PTR tab$[rbp]
	add	eax, DWORD PTR [rdx+rcx]
	mov	DWORD PTR tmp0$[rbp], eax
	mov	eax, 4
	imul	rax, rax, 2
	mov	ecx, 4
	imul	rcx, rcx, 5
	mov	rdx, QWORD PTR tab$[rbp]
	mov	r8, QWORD PTR tab$[rbp]
	mov	ecx, DWORD PTR [r8+rcx]
	mov	eax, DWORD PTR [rdx+rax]
	sub	eax, ecx
	mov	DWORD PTR tmp1$[rbp], eax
	mov	eax, 4
	imul	rax, rax, 2
	mov	rcx, QWORD PTR tab$[rbp]
	mov	edx, DWORD PTR tmp0$[rbp]
	mov	DWORD PTR [rcx+rax], edx
	mov	eax, DWORD PTR tmp1$[rbp]
	shl	eax, 1
	cdqe
	imul	rax, rax, 1932684223			; 73326bbfH
	sar	rax, 32					; 00000020H
	mov	ecx, 4
	imul	rcx, rcx, 5
	mov	rdx, QWORD PTR tab$[rbp]
	mov	DWORD PTR [rdx+rcx], eax

; 1937 : 		BF(10, 13, -COS2_2, 1);

	mov	eax, 4
	imul	rax, rax, 10
	mov	ecx, 4
	imul	rcx, rcx, 13
	mov	rdx, QWORD PTR tab$[rbp]
	mov	eax, DWORD PTR [rdx+rax]
	mov	rdx, QWORD PTR tab$[rbp]
	add	eax, DWORD PTR [rdx+rcx]
	mov	DWORD PTR tmp0$[rbp], eax
	mov	eax, 4
	imul	rax, rax, 10
	mov	ecx, 4
	imul	rcx, rcx, 13
	mov	rdx, QWORD PTR tab$[rbp]
	mov	r8, QWORD PTR tab$[rbp]
	mov	ecx, DWORD PTR [r8+rcx]
	mov	eax, DWORD PTR [rdx+rax]
	sub	eax, ecx
	mov	DWORD PTR tmp1$[rbp], eax
	mov	eax, 4
	imul	rax, rax, 10
	mov	rcx, QWORD PTR tab$[rbp]
	mov	edx, DWORD PTR tmp0$[rbp]
	mov	DWORD PTR [rcx+rax], edx
	mov	eax, DWORD PTR tmp1$[rbp]
	shl	eax, 1
	cdqe
	imul	rax, rax, -1932684223			; ffffffff8ccd9441H
	sar	rax, 32					; 00000020H
	mov	ecx, 4
	imul	rcx, rcx, 13
	mov	rdx, QWORD PTR tab$[rbp]
	mov	DWORD PTR [rdx+rcx], eax

; 1938 : 		BF(18, 21, COS2_2, 1);

	mov	eax, 4
	imul	rax, rax, 18
	mov	ecx, 4
	imul	rcx, rcx, 21
	mov	rdx, QWORD PTR tab$[rbp]
	mov	eax, DWORD PTR [rdx+rax]
	mov	rdx, QWORD PTR tab$[rbp]
	add	eax, DWORD PTR [rdx+rcx]
	mov	DWORD PTR tmp0$[rbp], eax
	mov	eax, 4
	imul	rax, rax, 18
	mov	ecx, 4
	imul	rcx, rcx, 21
	mov	rdx, QWORD PTR tab$[rbp]
	mov	r8, QWORD PTR tab$[rbp]
	mov	ecx, DWORD PTR [r8+rcx]
	mov	eax, DWORD PTR [rdx+rax]
	sub	eax, ecx
	mov	DWORD PTR tmp1$[rbp], eax
	mov	eax, 4
	imul	rax, rax, 18
	mov	rcx, QWORD PTR tab$[rbp]
	mov	edx, DWORD PTR tmp0$[rbp]
	mov	DWORD PTR [rcx+rax], edx
	mov	eax, DWORD PTR tmp1$[rbp]
	shl	eax, 1
	cdqe
	imul	rax, rax, 1932684223			; 73326bbfH
	sar	rax, 32					; 00000020H
	mov	ecx, 4
	imul	rcx, rcx, 21
	mov	rdx, QWORD PTR tab$[rbp]
	mov	DWORD PTR [rdx+rcx], eax

; 1939 : 		BF(26, 29, -COS2_2, 1);

	mov	eax, 4
	imul	rax, rax, 26
	mov	ecx, 4
	imul	rcx, rcx, 29
	mov	rdx, QWORD PTR tab$[rbp]
	mov	eax, DWORD PTR [rdx+rax]
	mov	rdx, QWORD PTR tab$[rbp]
	add	eax, DWORD PTR [rdx+rcx]
	mov	DWORD PTR tmp0$[rbp], eax
	mov	eax, 4
	imul	rax, rax, 26
	mov	ecx, 4
	imul	rcx, rcx, 29
	mov	rdx, QWORD PTR tab$[rbp]
	mov	r8, QWORD PTR tab$[rbp]
	mov	ecx, DWORD PTR [r8+rcx]
	mov	eax, DWORD PTR [rdx+rax]
	sub	eax, ecx
	mov	DWORD PTR tmp1$[rbp], eax
	mov	eax, 4
	imul	rax, rax, 26
	mov	rcx, QWORD PTR tab$[rbp]
	mov	edx, DWORD PTR tmp0$[rbp]
	mov	DWORD PTR [rcx+rax], edx
	mov	eax, DWORD PTR tmp1$[rbp]
	shl	eax, 1
	cdqe
	imul	rax, rax, -1932684223			; ffffffff8ccd9441H
	sar	rax, 32					; 00000020H
	mov	ecx, 4
	imul	rcx, rcx, 29
	mov	rdx, QWORD PTR tab$[rbp]
	mov	DWORD PTR [rdx+rcx], eax

; 1940 : 		/* pass 4 */
; 1941 : 		BF(1, 2, COS3_1, 2);

	mov	eax, 4
	imul	rax, rax, 1
	mov	ecx, 4
	imul	rcx, rcx, 2
	mov	rdx, QWORD PTR tab$[rbp]
	mov	eax, DWORD PTR [rdx+rax]
	mov	rdx, QWORD PTR tab$[rbp]
	add	eax, DWORD PTR [rdx+rcx]
	mov	DWORD PTR tmp0$[rbp], eax
	mov	eax, 4
	imul	rax, rax, 1
	mov	ecx, 4
	imul	rcx, rcx, 2
	mov	rdx, QWORD PTR tab$[rbp]
	mov	r8, QWORD PTR tab$[rbp]
	mov	ecx, DWORD PTR [r8+rcx]
	mov	eax, DWORD PTR [rdx+rax]
	sub	eax, ecx
	mov	DWORD PTR tmp1$[rbp], eax
	mov	eax, 4
	imul	rax, rax, 1
	mov	rcx, QWORD PTR tab$[rbp]
	mov	edx, DWORD PTR tmp0$[rbp]
	mov	DWORD PTR [rcx+rax], edx
	mov	eax, DWORD PTR tmp1$[rbp]
	shl	eax, 2
	cdqe
	imul	rax, rax, 1402911301			; 539eba45H
	sar	rax, 32					; 00000020H
	mov	ecx, 4
	imul	rcx, rcx, 2
	mov	rdx, QWORD PTR tab$[rbp]
	mov	DWORD PTR [rdx+rcx], eax

; 1942 : 		BF(5, 6, -COS3_1, 2);

	mov	eax, 4
	imul	rax, rax, 5
	mov	ecx, 4
	imul	rcx, rcx, 6
	mov	rdx, QWORD PTR tab$[rbp]
	mov	eax, DWORD PTR [rdx+rax]
	mov	rdx, QWORD PTR tab$[rbp]
	add	eax, DWORD PTR [rdx+rcx]
	mov	DWORD PTR tmp0$[rbp], eax
	mov	eax, 4
	imul	rax, rax, 5
	mov	ecx, 4
	imul	rcx, rcx, 6
	mov	rdx, QWORD PTR tab$[rbp]
	mov	r8, QWORD PTR tab$[rbp]
	mov	ecx, DWORD PTR [r8+rcx]
	mov	eax, DWORD PTR [rdx+rax]
	sub	eax, ecx
	mov	DWORD PTR tmp1$[rbp], eax
	mov	eax, 4
	imul	rax, rax, 5
	mov	rcx, QWORD PTR tab$[rbp]
	mov	edx, DWORD PTR tmp0$[rbp]
	mov	DWORD PTR [rcx+rax], edx
	mov	eax, DWORD PTR tmp1$[rbp]
	shl	eax, 2
	cdqe
	imul	rax, rax, -1402911301			; ffffffffac6145bbH
	sar	rax, 32					; 00000020H
	mov	ecx, 4
	imul	rcx, rcx, 6
	mov	rdx, QWORD PTR tab$[rbp]
	mov	DWORD PTR [rdx+rcx], eax

; 1943 : 		BF(9, 10, COS3_1, 2);

	mov	eax, 4
	imul	rax, rax, 9
	mov	ecx, 4
	imul	rcx, rcx, 10
	mov	rdx, QWORD PTR tab$[rbp]
	mov	eax, DWORD PTR [rdx+rax]
	mov	rdx, QWORD PTR tab$[rbp]
	add	eax, DWORD PTR [rdx+rcx]
	mov	DWORD PTR tmp0$[rbp], eax
	mov	eax, 4
	imul	rax, rax, 9
	mov	ecx, 4
	imul	rcx, rcx, 10
	mov	rdx, QWORD PTR tab$[rbp]
	mov	r8, QWORD PTR tab$[rbp]
	mov	ecx, DWORD PTR [r8+rcx]
	mov	eax, DWORD PTR [rdx+rax]
	sub	eax, ecx
	mov	DWORD PTR tmp1$[rbp], eax
	mov	eax, 4
	imul	rax, rax, 9
	mov	rcx, QWORD PTR tab$[rbp]
	mov	edx, DWORD PTR tmp0$[rbp]
	mov	DWORD PTR [rcx+rax], edx
	mov	eax, DWORD PTR tmp1$[rbp]
	shl	eax, 2
	cdqe
	imul	rax, rax, 1402911301			; 539eba45H
	sar	rax, 32					; 00000020H
	mov	ecx, 4
	imul	rcx, rcx, 10
	mov	rdx, QWORD PTR tab$[rbp]
	mov	DWORD PTR [rdx+rcx], eax

; 1944 : 		BF(13, 14, -COS3_1, 2);

	mov	eax, 4
	imul	rax, rax, 13
	mov	ecx, 4
	imul	rcx, rcx, 14
	mov	rdx, QWORD PTR tab$[rbp]
	mov	eax, DWORD PTR [rdx+rax]
	mov	rdx, QWORD PTR tab$[rbp]
	add	eax, DWORD PTR [rdx+rcx]
	mov	DWORD PTR tmp0$[rbp], eax
	mov	eax, 4
	imul	rax, rax, 13
	mov	ecx, 4
	imul	rcx, rcx, 14
	mov	rdx, QWORD PTR tab$[rbp]
	mov	r8, QWORD PTR tab$[rbp]
	mov	ecx, DWORD PTR [r8+rcx]
	mov	eax, DWORD PTR [rdx+rax]
	sub	eax, ecx
	mov	DWORD PTR tmp1$[rbp], eax
	mov	eax, 4
	imul	rax, rax, 13
	mov	rcx, QWORD PTR tab$[rbp]
	mov	edx, DWORD PTR tmp0$[rbp]
	mov	DWORD PTR [rcx+rax], edx
	mov	eax, DWORD PTR tmp1$[rbp]
	shl	eax, 2
	cdqe
	imul	rax, rax, -1402911301			; ffffffffac6145bbH
	sar	rax, 32					; 00000020H
	mov	ecx, 4
	imul	rcx, rcx, 14
	mov	rdx, QWORD PTR tab$[rbp]
	mov	DWORD PTR [rdx+rcx], eax

; 1945 : 		BF(17, 18, COS3_1, 2);

	mov	eax, 4
	imul	rax, rax, 17
	mov	ecx, 4
	imul	rcx, rcx, 18
	mov	rdx, QWORD PTR tab$[rbp]
	mov	eax, DWORD PTR [rdx+rax]
	mov	rdx, QWORD PTR tab$[rbp]
	add	eax, DWORD PTR [rdx+rcx]
	mov	DWORD PTR tmp0$[rbp], eax
	mov	eax, 4
	imul	rax, rax, 17
	mov	ecx, 4
	imul	rcx, rcx, 18
	mov	rdx, QWORD PTR tab$[rbp]
	mov	r8, QWORD PTR tab$[rbp]
	mov	ecx, DWORD PTR [r8+rcx]
	mov	eax, DWORD PTR [rdx+rax]
	sub	eax, ecx
	mov	DWORD PTR tmp1$[rbp], eax
	mov	eax, 4
	imul	rax, rax, 17
	mov	rcx, QWORD PTR tab$[rbp]
	mov	edx, DWORD PTR tmp0$[rbp]
	mov	DWORD PTR [rcx+rax], edx
	mov	eax, DWORD PTR tmp1$[rbp]
	shl	eax, 2
	cdqe
	imul	rax, rax, 1402911301			; 539eba45H
	sar	rax, 32					; 00000020H
	mov	ecx, 4
	imul	rcx, rcx, 18
	mov	rdx, QWORD PTR tab$[rbp]
	mov	DWORD PTR [rdx+rcx], eax

; 1946 : 		BF(21, 22, -COS3_1, 2);

	mov	eax, 4
	imul	rax, rax, 21
	mov	ecx, 4
	imul	rcx, rcx, 22
	mov	rdx, QWORD PTR tab$[rbp]
	mov	eax, DWORD PTR [rdx+rax]
	mov	rdx, QWORD PTR tab$[rbp]
	add	eax, DWORD PTR [rdx+rcx]
	mov	DWORD PTR tmp0$[rbp], eax
	mov	eax, 4
	imul	rax, rax, 21
	mov	ecx, 4
	imul	rcx, rcx, 22
	mov	rdx, QWORD PTR tab$[rbp]
	mov	r8, QWORD PTR tab$[rbp]
	mov	ecx, DWORD PTR [r8+rcx]
	mov	eax, DWORD PTR [rdx+rax]
	sub	eax, ecx
	mov	DWORD PTR tmp1$[rbp], eax
	mov	eax, 4
	imul	rax, rax, 21
	mov	rcx, QWORD PTR tab$[rbp]
	mov	edx, DWORD PTR tmp0$[rbp]
	mov	DWORD PTR [rcx+rax], edx
	mov	eax, DWORD PTR tmp1$[rbp]
	shl	eax, 2
	cdqe
	imul	rax, rax, -1402911301			; ffffffffac6145bbH
	sar	rax, 32					; 00000020H
	mov	ecx, 4
	imul	rcx, rcx, 22
	mov	rdx, QWORD PTR tab$[rbp]
	mov	DWORD PTR [rdx+rcx], eax

; 1947 : 		BF(25, 26, COS3_1, 2);

	mov	eax, 4
	imul	rax, rax, 25
	mov	ecx, 4
	imul	rcx, rcx, 26
	mov	rdx, QWORD PTR tab$[rbp]
	mov	eax, DWORD PTR [rdx+rax]
	mov	rdx, QWORD PTR tab$[rbp]
	add	eax, DWORD PTR [rdx+rcx]
	mov	DWORD PTR tmp0$[rbp], eax
	mov	eax, 4
	imul	rax, rax, 25
	mov	ecx, 4
	imul	rcx, rcx, 26
	mov	rdx, QWORD PTR tab$[rbp]
	mov	r8, QWORD PTR tab$[rbp]
	mov	ecx, DWORD PTR [r8+rcx]
	mov	eax, DWORD PTR [rdx+rax]
	sub	eax, ecx
	mov	DWORD PTR tmp1$[rbp], eax
	mov	eax, 4
	imul	rax, rax, 25
	mov	rcx, QWORD PTR tab$[rbp]
	mov	edx, DWORD PTR tmp0$[rbp]
	mov	DWORD PTR [rcx+rax], edx
	mov	eax, DWORD PTR tmp1$[rbp]
	shl	eax, 2
	cdqe
	imul	rax, rax, 1402911301			; 539eba45H
	sar	rax, 32					; 00000020H
	mov	ecx, 4
	imul	rcx, rcx, 26
	mov	rdx, QWORD PTR tab$[rbp]
	mov	DWORD PTR [rdx+rcx], eax

; 1948 : 		BF(29, 30, -COS3_1, 2);

	mov	eax, 4
	imul	rax, rax, 29
	mov	ecx, 4
	imul	rcx, rcx, 30
	mov	rdx, QWORD PTR tab$[rbp]
	mov	eax, DWORD PTR [rdx+rax]
	mov	rdx, QWORD PTR tab$[rbp]
	add	eax, DWORD PTR [rdx+rcx]
	mov	DWORD PTR tmp0$[rbp], eax
	mov	eax, 4
	imul	rax, rax, 29
	mov	ecx, 4
	imul	rcx, rcx, 30
	mov	rdx, QWORD PTR tab$[rbp]
	mov	r8, QWORD PTR tab$[rbp]
	mov	ecx, DWORD PTR [r8+rcx]
	mov	eax, DWORD PTR [rdx+rax]
	sub	eax, ecx
	mov	DWORD PTR tmp1$[rbp], eax
	mov	eax, 4
	imul	rax, rax, 29
	mov	rcx, QWORD PTR tab$[rbp]
	mov	edx, DWORD PTR tmp0$[rbp]
	mov	DWORD PTR [rcx+rax], edx
	mov	eax, DWORD PTR tmp1$[rbp]
	shl	eax, 2
	cdqe
	imul	rax, rax, -1402911301			; ffffffffac6145bbH
	sar	rax, 32					; 00000020H
	mov	ecx, 4
	imul	rcx, rcx, 30
	mov	rdx, QWORD PTR tab$[rbp]
	mov	DWORD PTR [rdx+rcx], eax

; 1949 : 
; 1950 : 		/* pass 5 */
; 1951 : 		BF1(0, 1, 2, 3);

	mov	eax, 4
	imul	rax, rax, 0
	mov	ecx, 4
	imul	rcx, rcx, 1
	mov	rdx, QWORD PTR tab$[rbp]
	mov	eax, DWORD PTR [rdx+rax]
	mov	rdx, QWORD PTR tab$[rbp]
	add	eax, DWORD PTR [rdx+rcx]
	mov	DWORD PTR tmp0$[rbp], eax
	mov	eax, 4
	imul	rax, rax, 0
	mov	ecx, 4
	imul	rcx, rcx, 1
	mov	rdx, QWORD PTR tab$[rbp]
	mov	r8, QWORD PTR tab$[rbp]
	mov	ecx, DWORD PTR [r8+rcx]
	mov	eax, DWORD PTR [rdx+rax]
	sub	eax, ecx
	mov	DWORD PTR tmp1$[rbp], eax
	mov	eax, 4
	imul	rax, rax, 0
	mov	rcx, QWORD PTR tab$[rbp]
	mov	edx, DWORD PTR tmp0$[rbp]
	mov	DWORD PTR [rcx+rax], edx
	mov	eax, DWORD PTR tmp1$[rbp]
	shl	eax, 1
	cdqe
	imul	rax, rax, 1518500250			; 5a82799aH
	sar	rax, 32					; 00000020H
	mov	ecx, 4
	imul	rcx, rcx, 1
	mov	rdx, QWORD PTR tab$[rbp]
	mov	DWORD PTR [rdx+rcx], eax
	mov	eax, 4
	imul	rax, rax, 2
	mov	ecx, 4
	imul	rcx, rcx, 3
	mov	rdx, QWORD PTR tab$[rbp]
	mov	eax, DWORD PTR [rdx+rax]
	mov	rdx, QWORD PTR tab$[rbp]
	add	eax, DWORD PTR [rdx+rcx]
	mov	DWORD PTR tmp0$[rbp], eax
	mov	eax, 4
	imul	rax, rax, 2
	mov	ecx, 4
	imul	rcx, rcx, 3
	mov	rdx, QWORD PTR tab$[rbp]
	mov	r8, QWORD PTR tab$[rbp]
	mov	ecx, DWORD PTR [r8+rcx]
	mov	eax, DWORD PTR [rdx+rax]
	sub	eax, ecx
	mov	DWORD PTR tmp1$[rbp], eax
	mov	eax, 4
	imul	rax, rax, 2
	mov	rcx, QWORD PTR tab$[rbp]
	mov	edx, DWORD PTR tmp0$[rbp]
	mov	DWORD PTR [rcx+rax], edx
	mov	eax, DWORD PTR tmp1$[rbp]
	shl	eax, 1
	cdqe
	imul	rax, rax, -1518500250			; ffffffffa57d8666H
	sar	rax, 32					; 00000020H
	mov	ecx, 4
	imul	rcx, rcx, 3
	mov	rdx, QWORD PTR tab$[rbp]
	mov	DWORD PTR [rdx+rcx], eax
	mov	eax, 4
	imul	rax, rax, 2
	mov	ecx, 4
	imul	rcx, rcx, 3
	mov	rdx, QWORD PTR tab$[rbp]
	mov	eax, DWORD PTR [rdx+rax]
	mov	rdx, QWORD PTR tab$[rbp]
	add	eax, DWORD PTR [rdx+rcx]
	mov	ecx, 4
	imul	rcx, rcx, 2
	mov	rdx, QWORD PTR tab$[rbp]
	mov	DWORD PTR [rdx+rcx], eax

; 1952 : 		BF2(4, 5, 6, 7);

	mov	eax, 4
	imul	rax, rax, 4
	mov	ecx, 4
	imul	rcx, rcx, 5
	mov	rdx, QWORD PTR tab$[rbp]
	mov	eax, DWORD PTR [rdx+rax]
	mov	rdx, QWORD PTR tab$[rbp]
	add	eax, DWORD PTR [rdx+rcx]
	mov	DWORD PTR tmp0$[rbp], eax
	mov	eax, 4
	imul	rax, rax, 4
	mov	ecx, 4
	imul	rcx, rcx, 5
	mov	rdx, QWORD PTR tab$[rbp]
	mov	r8, QWORD PTR tab$[rbp]
	mov	ecx, DWORD PTR [r8+rcx]
	mov	eax, DWORD PTR [rdx+rax]
	sub	eax, ecx
	mov	DWORD PTR tmp1$[rbp], eax
	mov	eax, 4
	imul	rax, rax, 4
	mov	rcx, QWORD PTR tab$[rbp]
	mov	edx, DWORD PTR tmp0$[rbp]
	mov	DWORD PTR [rcx+rax], edx
	mov	eax, DWORD PTR tmp1$[rbp]
	shl	eax, 1
	cdqe
	imul	rax, rax, 1518500250			; 5a82799aH
	sar	rax, 32					; 00000020H
	mov	ecx, 4
	imul	rcx, rcx, 5
	mov	rdx, QWORD PTR tab$[rbp]
	mov	DWORD PTR [rdx+rcx], eax
	mov	eax, 4
	imul	rax, rax, 6
	mov	ecx, 4
	imul	rcx, rcx, 7
	mov	rdx, QWORD PTR tab$[rbp]
	mov	eax, DWORD PTR [rdx+rax]
	mov	rdx, QWORD PTR tab$[rbp]
	add	eax, DWORD PTR [rdx+rcx]
	mov	DWORD PTR tmp0$[rbp], eax
	mov	eax, 4
	imul	rax, rax, 6
	mov	ecx, 4
	imul	rcx, rcx, 7
	mov	rdx, QWORD PTR tab$[rbp]
	mov	r8, QWORD PTR tab$[rbp]
	mov	ecx, DWORD PTR [r8+rcx]
	mov	eax, DWORD PTR [rdx+rax]
	sub	eax, ecx
	mov	DWORD PTR tmp1$[rbp], eax
	mov	eax, 4
	imul	rax, rax, 6
	mov	rcx, QWORD PTR tab$[rbp]
	mov	edx, DWORD PTR tmp0$[rbp]
	mov	DWORD PTR [rcx+rax], edx
	mov	eax, DWORD PTR tmp1$[rbp]
	shl	eax, 1
	cdqe
	imul	rax, rax, -1518500250			; ffffffffa57d8666H
	sar	rax, 32					; 00000020H
	mov	ecx, 4
	imul	rcx, rcx, 7
	mov	rdx, QWORD PTR tab$[rbp]
	mov	DWORD PTR [rdx+rcx], eax
	mov	eax, 4
	imul	rax, rax, 6
	mov	ecx, 4
	imul	rcx, rcx, 7
	mov	rdx, QWORD PTR tab$[rbp]
	mov	eax, DWORD PTR [rdx+rax]
	mov	rdx, QWORD PTR tab$[rbp]
	add	eax, DWORD PTR [rdx+rcx]
	mov	ecx, 4
	imul	rcx, rcx, 6
	mov	rdx, QWORD PTR tab$[rbp]
	mov	DWORD PTR [rdx+rcx], eax
	mov	eax, 4
	imul	rax, rax, 4
	mov	ecx, 4
	imul	rcx, rcx, 6
	mov	rdx, QWORD PTR tab$[rbp]
	mov	eax, DWORD PTR [rdx+rax]
	mov	rdx, QWORD PTR tab$[rbp]
	add	eax, DWORD PTR [rdx+rcx]
	mov	ecx, 4
	imul	rcx, rcx, 4
	mov	rdx, QWORD PTR tab$[rbp]
	mov	DWORD PTR [rdx+rcx], eax
	mov	eax, 4
	imul	rax, rax, 6
	mov	ecx, 4
	imul	rcx, rcx, 5
	mov	rdx, QWORD PTR tab$[rbp]
	mov	eax, DWORD PTR [rdx+rax]
	mov	rdx, QWORD PTR tab$[rbp]
	add	eax, DWORD PTR [rdx+rcx]
	mov	ecx, 4
	imul	rcx, rcx, 6
	mov	rdx, QWORD PTR tab$[rbp]
	mov	DWORD PTR [rdx+rcx], eax
	mov	eax, 4
	imul	rax, rax, 5
	mov	ecx, 4
	imul	rcx, rcx, 7
	mov	rdx, QWORD PTR tab$[rbp]
	mov	eax, DWORD PTR [rdx+rax]
	mov	rdx, QWORD PTR tab$[rbp]
	add	eax, DWORD PTR [rdx+rcx]
	mov	ecx, 4
	imul	rcx, rcx, 5
	mov	rdx, QWORD PTR tab$[rbp]
	mov	DWORD PTR [rdx+rcx], eax

; 1953 : 		BF1(8, 9, 10, 11);

	mov	eax, 4
	imul	rax, rax, 8
	mov	ecx, 4
	imul	rcx, rcx, 9
	mov	rdx, QWORD PTR tab$[rbp]
	mov	eax, DWORD PTR [rdx+rax]
	mov	rdx, QWORD PTR tab$[rbp]
	add	eax, DWORD PTR [rdx+rcx]
	mov	DWORD PTR tmp0$[rbp], eax
	mov	eax, 4
	imul	rax, rax, 8
	mov	ecx, 4
	imul	rcx, rcx, 9
	mov	rdx, QWORD PTR tab$[rbp]
	mov	r8, QWORD PTR tab$[rbp]
	mov	ecx, DWORD PTR [r8+rcx]
	mov	eax, DWORD PTR [rdx+rax]
	sub	eax, ecx
	mov	DWORD PTR tmp1$[rbp], eax
	mov	eax, 4
	imul	rax, rax, 8
	mov	rcx, QWORD PTR tab$[rbp]
	mov	edx, DWORD PTR tmp0$[rbp]
	mov	DWORD PTR [rcx+rax], edx
	mov	eax, DWORD PTR tmp1$[rbp]
	shl	eax, 1
	cdqe
	imul	rax, rax, 1518500250			; 5a82799aH
	sar	rax, 32					; 00000020H
	mov	ecx, 4
	imul	rcx, rcx, 9
	mov	rdx, QWORD PTR tab$[rbp]
	mov	DWORD PTR [rdx+rcx], eax
	mov	eax, 4
	imul	rax, rax, 10
	mov	ecx, 4
	imul	rcx, rcx, 11
	mov	rdx, QWORD PTR tab$[rbp]
	mov	eax, DWORD PTR [rdx+rax]
	mov	rdx, QWORD PTR tab$[rbp]
	add	eax, DWORD PTR [rdx+rcx]
	mov	DWORD PTR tmp0$[rbp], eax
	mov	eax, 4
	imul	rax, rax, 10
	mov	ecx, 4
	imul	rcx, rcx, 11
	mov	rdx, QWORD PTR tab$[rbp]
	mov	r8, QWORD PTR tab$[rbp]
	mov	ecx, DWORD PTR [r8+rcx]
	mov	eax, DWORD PTR [rdx+rax]
	sub	eax, ecx
	mov	DWORD PTR tmp1$[rbp], eax
	mov	eax, 4
	imul	rax, rax, 10
	mov	rcx, QWORD PTR tab$[rbp]
	mov	edx, DWORD PTR tmp0$[rbp]
	mov	DWORD PTR [rcx+rax], edx
	mov	eax, DWORD PTR tmp1$[rbp]
	shl	eax, 1
	cdqe
	imul	rax, rax, -1518500250			; ffffffffa57d8666H
	sar	rax, 32					; 00000020H
	mov	ecx, 4
	imul	rcx, rcx, 11
	mov	rdx, QWORD PTR tab$[rbp]
	mov	DWORD PTR [rdx+rcx], eax
	mov	eax, 4
	imul	rax, rax, 10
	mov	ecx, 4
	imul	rcx, rcx, 11
	mov	rdx, QWORD PTR tab$[rbp]
	mov	eax, DWORD PTR [rdx+rax]
	mov	rdx, QWORD PTR tab$[rbp]
	add	eax, DWORD PTR [rdx+rcx]
	mov	ecx, 4
	imul	rcx, rcx, 10
	mov	rdx, QWORD PTR tab$[rbp]
	mov	DWORD PTR [rdx+rcx], eax

; 1954 : 		BF2(12, 13, 14, 15);

	mov	eax, 4
	imul	rax, rax, 12
	mov	ecx, 4
	imul	rcx, rcx, 13
	mov	rdx, QWORD PTR tab$[rbp]
	mov	eax, DWORD PTR [rdx+rax]
	mov	rdx, QWORD PTR tab$[rbp]
	add	eax, DWORD PTR [rdx+rcx]
	mov	DWORD PTR tmp0$[rbp], eax
	mov	eax, 4
	imul	rax, rax, 12
	mov	ecx, 4
	imul	rcx, rcx, 13
	mov	rdx, QWORD PTR tab$[rbp]
	mov	r8, QWORD PTR tab$[rbp]
	mov	ecx, DWORD PTR [r8+rcx]
	mov	eax, DWORD PTR [rdx+rax]
	sub	eax, ecx
	mov	DWORD PTR tmp1$[rbp], eax
	mov	eax, 4
	imul	rax, rax, 12
	mov	rcx, QWORD PTR tab$[rbp]
	mov	edx, DWORD PTR tmp0$[rbp]
	mov	DWORD PTR [rcx+rax], edx
	mov	eax, DWORD PTR tmp1$[rbp]
	shl	eax, 1
	cdqe
	imul	rax, rax, 1518500250			; 5a82799aH
	sar	rax, 32					; 00000020H
	mov	ecx, 4
	imul	rcx, rcx, 13
	mov	rdx, QWORD PTR tab$[rbp]
	mov	DWORD PTR [rdx+rcx], eax
	mov	eax, 4
	imul	rax, rax, 14
	mov	ecx, 4
	imul	rcx, rcx, 15
	mov	rdx, QWORD PTR tab$[rbp]
	mov	eax, DWORD PTR [rdx+rax]
	mov	rdx, QWORD PTR tab$[rbp]
	add	eax, DWORD PTR [rdx+rcx]
	mov	DWORD PTR tmp0$[rbp], eax
	mov	eax, 4
	imul	rax, rax, 14
	mov	ecx, 4
	imul	rcx, rcx, 15
	mov	rdx, QWORD PTR tab$[rbp]
	mov	r8, QWORD PTR tab$[rbp]
	mov	ecx, DWORD PTR [r8+rcx]
	mov	eax, DWORD PTR [rdx+rax]
	sub	eax, ecx
	mov	DWORD PTR tmp1$[rbp], eax
	mov	eax, 4
	imul	rax, rax, 14
	mov	rcx, QWORD PTR tab$[rbp]
	mov	edx, DWORD PTR tmp0$[rbp]
	mov	DWORD PTR [rcx+rax], edx
	mov	eax, DWORD PTR tmp1$[rbp]
	shl	eax, 1
	cdqe
	imul	rax, rax, -1518500250			; ffffffffa57d8666H
	sar	rax, 32					; 00000020H
	mov	ecx, 4
	imul	rcx, rcx, 15
	mov	rdx, QWORD PTR tab$[rbp]
	mov	DWORD PTR [rdx+rcx], eax
	mov	eax, 4
	imul	rax, rax, 14
	mov	ecx, 4
	imul	rcx, rcx, 15
	mov	rdx, QWORD PTR tab$[rbp]
	mov	eax, DWORD PTR [rdx+rax]
	mov	rdx, QWORD PTR tab$[rbp]
	add	eax, DWORD PTR [rdx+rcx]
	mov	ecx, 4
	imul	rcx, rcx, 14
	mov	rdx, QWORD PTR tab$[rbp]
	mov	DWORD PTR [rdx+rcx], eax
	mov	eax, 4
	imul	rax, rax, 12
	mov	ecx, 4
	imul	rcx, rcx, 14
	mov	rdx, QWORD PTR tab$[rbp]
	mov	eax, DWORD PTR [rdx+rax]
	mov	rdx, QWORD PTR tab$[rbp]
	add	eax, DWORD PTR [rdx+rcx]
	mov	ecx, 4
	imul	rcx, rcx, 12
	mov	rdx, QWORD PTR tab$[rbp]
	mov	DWORD PTR [rdx+rcx], eax
	mov	eax, 4
	imul	rax, rax, 14
	mov	ecx, 4
	imul	rcx, rcx, 13
	mov	rdx, QWORD PTR tab$[rbp]
	mov	eax, DWORD PTR [rdx+rax]
	mov	rdx, QWORD PTR tab$[rbp]
	add	eax, DWORD PTR [rdx+rcx]
	mov	ecx, 4
	imul	rcx, rcx, 14
	mov	rdx, QWORD PTR tab$[rbp]
	mov	DWORD PTR [rdx+rcx], eax
	mov	eax, 4
	imul	rax, rax, 13
	mov	ecx, 4
	imul	rcx, rcx, 15
	mov	rdx, QWORD PTR tab$[rbp]
	mov	eax, DWORD PTR [rdx+rax]
	mov	rdx, QWORD PTR tab$[rbp]
	add	eax, DWORD PTR [rdx+rcx]
	mov	ecx, 4
	imul	rcx, rcx, 13
	mov	rdx, QWORD PTR tab$[rbp]
	mov	DWORD PTR [rdx+rcx], eax

; 1955 : 		BF1(16, 17, 18, 19);

	mov	eax, 4
	imul	rax, rax, 16
	mov	ecx, 4
	imul	rcx, rcx, 17
	mov	rdx, QWORD PTR tab$[rbp]
	mov	eax, DWORD PTR [rdx+rax]
	mov	rdx, QWORD PTR tab$[rbp]
	add	eax, DWORD PTR [rdx+rcx]
	mov	DWORD PTR tmp0$[rbp], eax
	mov	eax, 4
	imul	rax, rax, 16
	mov	ecx, 4
	imul	rcx, rcx, 17
	mov	rdx, QWORD PTR tab$[rbp]
	mov	r8, QWORD PTR tab$[rbp]
	mov	ecx, DWORD PTR [r8+rcx]
	mov	eax, DWORD PTR [rdx+rax]
	sub	eax, ecx
	mov	DWORD PTR tmp1$[rbp], eax
	mov	eax, 4
	imul	rax, rax, 16
	mov	rcx, QWORD PTR tab$[rbp]
	mov	edx, DWORD PTR tmp0$[rbp]
	mov	DWORD PTR [rcx+rax], edx
	mov	eax, DWORD PTR tmp1$[rbp]
	shl	eax, 1
	cdqe
	imul	rax, rax, 1518500250			; 5a82799aH
	sar	rax, 32					; 00000020H
	mov	ecx, 4
	imul	rcx, rcx, 17
	mov	rdx, QWORD PTR tab$[rbp]
	mov	DWORD PTR [rdx+rcx], eax
	mov	eax, 4
	imul	rax, rax, 18
	mov	ecx, 4
	imul	rcx, rcx, 19
	mov	rdx, QWORD PTR tab$[rbp]
	mov	eax, DWORD PTR [rdx+rax]
	mov	rdx, QWORD PTR tab$[rbp]
	add	eax, DWORD PTR [rdx+rcx]
	mov	DWORD PTR tmp0$[rbp], eax
	mov	eax, 4
	imul	rax, rax, 18
	mov	ecx, 4
	imul	rcx, rcx, 19
	mov	rdx, QWORD PTR tab$[rbp]
	mov	r8, QWORD PTR tab$[rbp]
	mov	ecx, DWORD PTR [r8+rcx]
	mov	eax, DWORD PTR [rdx+rax]
	sub	eax, ecx
	mov	DWORD PTR tmp1$[rbp], eax
	mov	eax, 4
	imul	rax, rax, 18
	mov	rcx, QWORD PTR tab$[rbp]
	mov	edx, DWORD PTR tmp0$[rbp]
	mov	DWORD PTR [rcx+rax], edx
	mov	eax, DWORD PTR tmp1$[rbp]
	shl	eax, 1
	cdqe
	imul	rax, rax, -1518500250			; ffffffffa57d8666H
	sar	rax, 32					; 00000020H
	mov	ecx, 4
	imul	rcx, rcx, 19
	mov	rdx, QWORD PTR tab$[rbp]
	mov	DWORD PTR [rdx+rcx], eax
	mov	eax, 4
	imul	rax, rax, 18
	mov	ecx, 4
	imul	rcx, rcx, 19
	mov	rdx, QWORD PTR tab$[rbp]
	mov	eax, DWORD PTR [rdx+rax]
	mov	rdx, QWORD PTR tab$[rbp]
	add	eax, DWORD PTR [rdx+rcx]
	mov	ecx, 4
	imul	rcx, rcx, 18
	mov	rdx, QWORD PTR tab$[rbp]
	mov	DWORD PTR [rdx+rcx], eax

; 1956 : 		BF2(20, 21, 22, 23);

	mov	eax, 4
	imul	rax, rax, 20
	mov	ecx, 4
	imul	rcx, rcx, 21
	mov	rdx, QWORD PTR tab$[rbp]
	mov	eax, DWORD PTR [rdx+rax]
	mov	rdx, QWORD PTR tab$[rbp]
	add	eax, DWORD PTR [rdx+rcx]
	mov	DWORD PTR tmp0$[rbp], eax
	mov	eax, 4
	imul	rax, rax, 20
	mov	ecx, 4
	imul	rcx, rcx, 21
	mov	rdx, QWORD PTR tab$[rbp]
	mov	r8, QWORD PTR tab$[rbp]
	mov	ecx, DWORD PTR [r8+rcx]
	mov	eax, DWORD PTR [rdx+rax]
	sub	eax, ecx
	mov	DWORD PTR tmp1$[rbp], eax
	mov	eax, 4
	imul	rax, rax, 20
	mov	rcx, QWORD PTR tab$[rbp]
	mov	edx, DWORD PTR tmp0$[rbp]
	mov	DWORD PTR [rcx+rax], edx
	mov	eax, DWORD PTR tmp1$[rbp]
	shl	eax, 1
	cdqe
	imul	rax, rax, 1518500250			; 5a82799aH
	sar	rax, 32					; 00000020H
	mov	ecx, 4
	imul	rcx, rcx, 21
	mov	rdx, QWORD PTR tab$[rbp]
	mov	DWORD PTR [rdx+rcx], eax
	mov	eax, 4
	imul	rax, rax, 22
	mov	ecx, 4
	imul	rcx, rcx, 23
	mov	rdx, QWORD PTR tab$[rbp]
	mov	eax, DWORD PTR [rdx+rax]
	mov	rdx, QWORD PTR tab$[rbp]
	add	eax, DWORD PTR [rdx+rcx]
	mov	DWORD PTR tmp0$[rbp], eax
	mov	eax, 4
	imul	rax, rax, 22
	mov	ecx, 4
	imul	rcx, rcx, 23
	mov	rdx, QWORD PTR tab$[rbp]
	mov	r8, QWORD PTR tab$[rbp]
	mov	ecx, DWORD PTR [r8+rcx]
	mov	eax, DWORD PTR [rdx+rax]
	sub	eax, ecx
	mov	DWORD PTR tmp1$[rbp], eax
	mov	eax, 4
	imul	rax, rax, 22
	mov	rcx, QWORD PTR tab$[rbp]
	mov	edx, DWORD PTR tmp0$[rbp]
	mov	DWORD PTR [rcx+rax], edx
	mov	eax, DWORD PTR tmp1$[rbp]
	shl	eax, 1
	cdqe
	imul	rax, rax, -1518500250			; ffffffffa57d8666H
	sar	rax, 32					; 00000020H
	mov	ecx, 4
	imul	rcx, rcx, 23
	mov	rdx, QWORD PTR tab$[rbp]
	mov	DWORD PTR [rdx+rcx], eax
	mov	eax, 4
	imul	rax, rax, 22
	mov	ecx, 4
	imul	rcx, rcx, 23
	mov	rdx, QWORD PTR tab$[rbp]
	mov	eax, DWORD PTR [rdx+rax]
	mov	rdx, QWORD PTR tab$[rbp]
	add	eax, DWORD PTR [rdx+rcx]
	mov	ecx, 4
	imul	rcx, rcx, 22
	mov	rdx, QWORD PTR tab$[rbp]
	mov	DWORD PTR [rdx+rcx], eax
	mov	eax, 4
	imul	rax, rax, 20
	mov	ecx, 4
	imul	rcx, rcx, 22
	mov	rdx, QWORD PTR tab$[rbp]
	mov	eax, DWORD PTR [rdx+rax]
	mov	rdx, QWORD PTR tab$[rbp]
	add	eax, DWORD PTR [rdx+rcx]
	mov	ecx, 4
	imul	rcx, rcx, 20
	mov	rdx, QWORD PTR tab$[rbp]
	mov	DWORD PTR [rdx+rcx], eax
	mov	eax, 4
	imul	rax, rax, 22
	mov	ecx, 4
	imul	rcx, rcx, 21
	mov	rdx, QWORD PTR tab$[rbp]
	mov	eax, DWORD PTR [rdx+rax]
	mov	rdx, QWORD PTR tab$[rbp]
	add	eax, DWORD PTR [rdx+rcx]
	mov	ecx, 4
	imul	rcx, rcx, 22
	mov	rdx, QWORD PTR tab$[rbp]
	mov	DWORD PTR [rdx+rcx], eax
	mov	eax, 4
	imul	rax, rax, 21
	mov	ecx, 4
	imul	rcx, rcx, 23
	mov	rdx, QWORD PTR tab$[rbp]
	mov	eax, DWORD PTR [rdx+rax]
	mov	rdx, QWORD PTR tab$[rbp]
	add	eax, DWORD PTR [rdx+rcx]
	mov	ecx, 4
	imul	rcx, rcx, 21
	mov	rdx, QWORD PTR tab$[rbp]
	mov	DWORD PTR [rdx+rcx], eax

; 1957 : 		BF1(24, 25, 26, 27);

	mov	eax, 4
	imul	rax, rax, 24
	mov	ecx, 4
	imul	rcx, rcx, 25
	mov	rdx, QWORD PTR tab$[rbp]
	mov	eax, DWORD PTR [rdx+rax]
	mov	rdx, QWORD PTR tab$[rbp]
	add	eax, DWORD PTR [rdx+rcx]
	mov	DWORD PTR tmp0$[rbp], eax
	mov	eax, 4
	imul	rax, rax, 24
	mov	ecx, 4
	imul	rcx, rcx, 25
	mov	rdx, QWORD PTR tab$[rbp]
	mov	r8, QWORD PTR tab$[rbp]
	mov	ecx, DWORD PTR [r8+rcx]
	mov	eax, DWORD PTR [rdx+rax]
	sub	eax, ecx
	mov	DWORD PTR tmp1$[rbp], eax
	mov	eax, 4
	imul	rax, rax, 24
	mov	rcx, QWORD PTR tab$[rbp]
	mov	edx, DWORD PTR tmp0$[rbp]
	mov	DWORD PTR [rcx+rax], edx
	mov	eax, DWORD PTR tmp1$[rbp]
	shl	eax, 1
	cdqe
	imul	rax, rax, 1518500250			; 5a82799aH
	sar	rax, 32					; 00000020H
	mov	ecx, 4
	imul	rcx, rcx, 25
	mov	rdx, QWORD PTR tab$[rbp]
	mov	DWORD PTR [rdx+rcx], eax
	mov	eax, 4
	imul	rax, rax, 26
	mov	ecx, 4
	imul	rcx, rcx, 27
	mov	rdx, QWORD PTR tab$[rbp]
	mov	eax, DWORD PTR [rdx+rax]
	mov	rdx, QWORD PTR tab$[rbp]
	add	eax, DWORD PTR [rdx+rcx]
	mov	DWORD PTR tmp0$[rbp], eax
	mov	eax, 4
	imul	rax, rax, 26
	mov	ecx, 4
	imul	rcx, rcx, 27
	mov	rdx, QWORD PTR tab$[rbp]
	mov	r8, QWORD PTR tab$[rbp]
	mov	ecx, DWORD PTR [r8+rcx]
	mov	eax, DWORD PTR [rdx+rax]
	sub	eax, ecx
	mov	DWORD PTR tmp1$[rbp], eax
	mov	eax, 4
	imul	rax, rax, 26
	mov	rcx, QWORD PTR tab$[rbp]
	mov	edx, DWORD PTR tmp0$[rbp]
	mov	DWORD PTR [rcx+rax], edx
	mov	eax, DWORD PTR tmp1$[rbp]
	shl	eax, 1
	cdqe
	imul	rax, rax, -1518500250			; ffffffffa57d8666H
	sar	rax, 32					; 00000020H
	mov	ecx, 4
	imul	rcx, rcx, 27
	mov	rdx, QWORD PTR tab$[rbp]
	mov	DWORD PTR [rdx+rcx], eax
	mov	eax, 4
	imul	rax, rax, 26
	mov	ecx, 4
	imul	rcx, rcx, 27
	mov	rdx, QWORD PTR tab$[rbp]
	mov	eax, DWORD PTR [rdx+rax]
	mov	rdx, QWORD PTR tab$[rbp]
	add	eax, DWORD PTR [rdx+rcx]
	mov	ecx, 4
	imul	rcx, rcx, 26
	mov	rdx, QWORD PTR tab$[rbp]
	mov	DWORD PTR [rdx+rcx], eax

; 1958 : 		BF2(28, 29, 30, 31);

	mov	eax, 4
	imul	rax, rax, 28
	mov	ecx, 4
	imul	rcx, rcx, 29
	mov	rdx, QWORD PTR tab$[rbp]
	mov	eax, DWORD PTR [rdx+rax]
	mov	rdx, QWORD PTR tab$[rbp]
	add	eax, DWORD PTR [rdx+rcx]
	mov	DWORD PTR tmp0$[rbp], eax
	mov	eax, 4
	imul	rax, rax, 28
	mov	ecx, 4
	imul	rcx, rcx, 29
	mov	rdx, QWORD PTR tab$[rbp]
	mov	r8, QWORD PTR tab$[rbp]
	mov	ecx, DWORD PTR [r8+rcx]
	mov	eax, DWORD PTR [rdx+rax]
	sub	eax, ecx
	mov	DWORD PTR tmp1$[rbp], eax
	mov	eax, 4
	imul	rax, rax, 28
	mov	rcx, QWORD PTR tab$[rbp]
	mov	edx, DWORD PTR tmp0$[rbp]
	mov	DWORD PTR [rcx+rax], edx
	mov	eax, DWORD PTR tmp1$[rbp]
	shl	eax, 1
	cdqe
	imul	rax, rax, 1518500250			; 5a82799aH
	sar	rax, 32					; 00000020H
	mov	ecx, 4
	imul	rcx, rcx, 29
	mov	rdx, QWORD PTR tab$[rbp]
	mov	DWORD PTR [rdx+rcx], eax
	mov	eax, 4
	imul	rax, rax, 30
	mov	ecx, 4
	imul	rcx, rcx, 31
	mov	rdx, QWORD PTR tab$[rbp]
	mov	eax, DWORD PTR [rdx+rax]
	mov	rdx, QWORD PTR tab$[rbp]
	add	eax, DWORD PTR [rdx+rcx]
	mov	DWORD PTR tmp0$[rbp], eax
	mov	eax, 4
	imul	rax, rax, 30
	mov	ecx, 4
	imul	rcx, rcx, 31
	mov	rdx, QWORD PTR tab$[rbp]
	mov	r8, QWORD PTR tab$[rbp]
	mov	ecx, DWORD PTR [r8+rcx]
	mov	eax, DWORD PTR [rdx+rax]
	sub	eax, ecx
	mov	DWORD PTR tmp1$[rbp], eax
	mov	eax, 4
	imul	rax, rax, 30
	mov	rcx, QWORD PTR tab$[rbp]
	mov	edx, DWORD PTR tmp0$[rbp]
	mov	DWORD PTR [rcx+rax], edx
	mov	eax, DWORD PTR tmp1$[rbp]
	shl	eax, 1
	cdqe
	imul	rax, rax, -1518500250			; ffffffffa57d8666H
	sar	rax, 32					; 00000020H
	mov	ecx, 4
	imul	rcx, rcx, 31
	mov	rdx, QWORD PTR tab$[rbp]
	mov	DWORD PTR [rdx+rcx], eax
	mov	eax, 4
	imul	rax, rax, 30
	mov	ecx, 4
	imul	rcx, rcx, 31
	mov	rdx, QWORD PTR tab$[rbp]
	mov	eax, DWORD PTR [rdx+rax]
	mov	rdx, QWORD PTR tab$[rbp]
	add	eax, DWORD PTR [rdx+rcx]
	mov	ecx, 4
	imul	rcx, rcx, 30
	mov	rdx, QWORD PTR tab$[rbp]
	mov	DWORD PTR [rdx+rcx], eax
	mov	eax, 4
	imul	rax, rax, 28
	mov	ecx, 4
	imul	rcx, rcx, 30
	mov	rdx, QWORD PTR tab$[rbp]
	mov	eax, DWORD PTR [rdx+rax]
	mov	rdx, QWORD PTR tab$[rbp]
	add	eax, DWORD PTR [rdx+rcx]
	mov	ecx, 4
	imul	rcx, rcx, 28
	mov	rdx, QWORD PTR tab$[rbp]
	mov	DWORD PTR [rdx+rcx], eax
	mov	eax, 4
	imul	rax, rax, 30
	mov	ecx, 4
	imul	rcx, rcx, 29
	mov	rdx, QWORD PTR tab$[rbp]
	mov	eax, DWORD PTR [rdx+rax]
	mov	rdx, QWORD PTR tab$[rbp]
	add	eax, DWORD PTR [rdx+rcx]
	mov	ecx, 4
	imul	rcx, rcx, 30
	mov	rdx, QWORD PTR tab$[rbp]
	mov	DWORD PTR [rdx+rcx], eax
	mov	eax, 4
	imul	rax, rax, 29
	mov	ecx, 4
	imul	rcx, rcx, 31
	mov	rdx, QWORD PTR tab$[rbp]
	mov	eax, DWORD PTR [rdx+rax]
	mov	rdx, QWORD PTR tab$[rbp]
	add	eax, DWORD PTR [rdx+rcx]
	mov	ecx, 4
	imul	rcx, rcx, 29
	mov	rdx, QWORD PTR tab$[rbp]
	mov	DWORD PTR [rdx+rcx], eax

; 1959 : 
; 1960 : 		/* pass 6 */
; 1961 : 
; 1962 : 		ADD(8, 12);

	mov	eax, 4
	imul	rax, rax, 8
	mov	ecx, 4
	imul	rcx, rcx, 12
	mov	rdx, QWORD PTR tab$[rbp]
	mov	eax, DWORD PTR [rdx+rax]
	mov	rdx, QWORD PTR tab$[rbp]
	add	eax, DWORD PTR [rdx+rcx]
	mov	ecx, 4
	imul	rcx, rcx, 8
	mov	rdx, QWORD PTR tab$[rbp]
	mov	DWORD PTR [rdx+rcx], eax

; 1963 : 		ADD(12, 10);

	mov	eax, 4
	imul	rax, rax, 12
	mov	ecx, 4
	imul	rcx, rcx, 10
	mov	rdx, QWORD PTR tab$[rbp]
	mov	eax, DWORD PTR [rdx+rax]
	mov	rdx, QWORD PTR tab$[rbp]
	add	eax, DWORD PTR [rdx+rcx]
	mov	ecx, 4
	imul	rcx, rcx, 12
	mov	rdx, QWORD PTR tab$[rbp]
	mov	DWORD PTR [rdx+rcx], eax

; 1964 : 		ADD(10, 14);

	mov	eax, 4
	imul	rax, rax, 10
	mov	ecx, 4
	imul	rcx, rcx, 14
	mov	rdx, QWORD PTR tab$[rbp]
	mov	eax, DWORD PTR [rdx+rax]
	mov	rdx, QWORD PTR tab$[rbp]
	add	eax, DWORD PTR [rdx+rcx]
	mov	ecx, 4
	imul	rcx, rcx, 10
	mov	rdx, QWORD PTR tab$[rbp]
	mov	DWORD PTR [rdx+rcx], eax

; 1965 : 		ADD(14, 9);

	mov	eax, 4
	imul	rax, rax, 14
	mov	ecx, 4
	imul	rcx, rcx, 9
	mov	rdx, QWORD PTR tab$[rbp]
	mov	eax, DWORD PTR [rdx+rax]
	mov	rdx, QWORD PTR tab$[rbp]
	add	eax, DWORD PTR [rdx+rcx]
	mov	ecx, 4
	imul	rcx, rcx, 14
	mov	rdx, QWORD PTR tab$[rbp]
	mov	DWORD PTR [rdx+rcx], eax

; 1966 : 		ADD(9, 13);

	mov	eax, 4
	imul	rax, rax, 9
	mov	ecx, 4
	imul	rcx, rcx, 13
	mov	rdx, QWORD PTR tab$[rbp]
	mov	eax, DWORD PTR [rdx+rax]
	mov	rdx, QWORD PTR tab$[rbp]
	add	eax, DWORD PTR [rdx+rcx]
	mov	ecx, 4
	imul	rcx, rcx, 9
	mov	rdx, QWORD PTR tab$[rbp]
	mov	DWORD PTR [rdx+rcx], eax

; 1967 : 		ADD(13, 11);

	mov	eax, 4
	imul	rax, rax, 13
	mov	ecx, 4
	imul	rcx, rcx, 11
	mov	rdx, QWORD PTR tab$[rbp]
	mov	eax, DWORD PTR [rdx+rax]
	mov	rdx, QWORD PTR tab$[rbp]
	add	eax, DWORD PTR [rdx+rcx]
	mov	ecx, 4
	imul	rcx, rcx, 13
	mov	rdx, QWORD PTR tab$[rbp]
	mov	DWORD PTR [rdx+rcx], eax

; 1968 : 		ADD(11, 15);

	mov	eax, 4
	imul	rax, rax, 11
	mov	ecx, 4
	imul	rcx, rcx, 15
	mov	rdx, QWORD PTR tab$[rbp]
	mov	eax, DWORD PTR [rdx+rax]
	mov	rdx, QWORD PTR tab$[rbp]
	add	eax, DWORD PTR [rdx+rcx]
	mov	ecx, 4
	imul	rcx, rcx, 11
	mov	rdx, QWORD PTR tab$[rbp]
	mov	DWORD PTR [rdx+rcx], eax

; 1969 : 
; 1970 : 		out[0] = tab[0];

	mov	eax, 4
	imul	rax, rax, 0
	mov	ecx, 4
	imul	rcx, rcx, 0
	mov	rdx, QWORD PTR out$[rbp]
	mov	r8, QWORD PTR tab$[rbp]
	mov	eax, DWORD PTR [r8+rax]
	mov	DWORD PTR [rdx+rcx], eax

; 1971 : 		out[16] = tab[1];

	mov	eax, 4
	imul	rax, rax, 1
	mov	ecx, 4
	imul	rcx, rcx, 16
	mov	rdx, QWORD PTR out$[rbp]
	mov	r8, QWORD PTR tab$[rbp]
	mov	eax, DWORD PTR [r8+rax]
	mov	DWORD PTR [rdx+rcx], eax

; 1972 : 		out[8] = tab[2];

	mov	eax, 4
	imul	rax, rax, 2
	mov	ecx, 4
	imul	rcx, rcx, 8
	mov	rdx, QWORD PTR out$[rbp]
	mov	r8, QWORD PTR tab$[rbp]
	mov	eax, DWORD PTR [r8+rax]
	mov	DWORD PTR [rdx+rcx], eax

; 1973 : 		out[24] = tab[3];

	mov	eax, 4
	imul	rax, rax, 3
	mov	ecx, 4
	imul	rcx, rcx, 24
	mov	rdx, QWORD PTR out$[rbp]
	mov	r8, QWORD PTR tab$[rbp]
	mov	eax, DWORD PTR [r8+rax]
	mov	DWORD PTR [rdx+rcx], eax

; 1974 : 		out[4] = tab[4];

	mov	eax, 4
	imul	rax, rax, 4
	mov	ecx, 4
	imul	rcx, rcx, 4
	mov	rdx, QWORD PTR out$[rbp]
	mov	r8, QWORD PTR tab$[rbp]
	mov	eax, DWORD PTR [r8+rax]
	mov	DWORD PTR [rdx+rcx], eax

; 1975 : 		out[20] = tab[5];

	mov	eax, 4
	imul	rax, rax, 5
	mov	ecx, 4
	imul	rcx, rcx, 20
	mov	rdx, QWORD PTR out$[rbp]
	mov	r8, QWORD PTR tab$[rbp]
	mov	eax, DWORD PTR [r8+rax]
	mov	DWORD PTR [rdx+rcx], eax

; 1976 : 		out[12] = tab[6];

	mov	eax, 4
	imul	rax, rax, 6
	mov	ecx, 4
	imul	rcx, rcx, 12
	mov	rdx, QWORD PTR out$[rbp]
	mov	r8, QWORD PTR tab$[rbp]
	mov	eax, DWORD PTR [r8+rax]
	mov	DWORD PTR [rdx+rcx], eax

; 1977 : 		out[28] = tab[7];

	mov	eax, 4
	imul	rax, rax, 7
	mov	ecx, 4
	imul	rcx, rcx, 28
	mov	rdx, QWORD PTR out$[rbp]
	mov	r8, QWORD PTR tab$[rbp]
	mov	eax, DWORD PTR [r8+rax]
	mov	DWORD PTR [rdx+rcx], eax

; 1978 : 		out[2] = tab[8];

	mov	eax, 4
	imul	rax, rax, 8
	mov	ecx, 4
	imul	rcx, rcx, 2
	mov	rdx, QWORD PTR out$[rbp]
	mov	r8, QWORD PTR tab$[rbp]
	mov	eax, DWORD PTR [r8+rax]
	mov	DWORD PTR [rdx+rcx], eax

; 1979 : 		out[18] = tab[9];

	mov	eax, 4
	imul	rax, rax, 9
	mov	ecx, 4
	imul	rcx, rcx, 18
	mov	rdx, QWORD PTR out$[rbp]
	mov	r8, QWORD PTR tab$[rbp]
	mov	eax, DWORD PTR [r8+rax]
	mov	DWORD PTR [rdx+rcx], eax

; 1980 : 		out[10] = tab[10];

	mov	eax, 4
	imul	rax, rax, 10
	mov	ecx, 4
	imul	rcx, rcx, 10
	mov	rdx, QWORD PTR out$[rbp]
	mov	r8, QWORD PTR tab$[rbp]
	mov	eax, DWORD PTR [r8+rax]
	mov	DWORD PTR [rdx+rcx], eax

; 1981 : 		out[26] = tab[11];

	mov	eax, 4
	imul	rax, rax, 11
	mov	ecx, 4
	imul	rcx, rcx, 26
	mov	rdx, QWORD PTR out$[rbp]
	mov	r8, QWORD PTR tab$[rbp]
	mov	eax, DWORD PTR [r8+rax]
	mov	DWORD PTR [rdx+rcx], eax

; 1982 : 		out[6] = tab[12];

	mov	eax, 4
	imul	rax, rax, 12
	mov	ecx, 4
	imul	rcx, rcx, 6
	mov	rdx, QWORD PTR out$[rbp]
	mov	r8, QWORD PTR tab$[rbp]
	mov	eax, DWORD PTR [r8+rax]
	mov	DWORD PTR [rdx+rcx], eax

; 1983 : 		out[22] = tab[13];

	mov	eax, 4
	imul	rax, rax, 13
	mov	ecx, 4
	imul	rcx, rcx, 22
	mov	rdx, QWORD PTR out$[rbp]
	mov	r8, QWORD PTR tab$[rbp]
	mov	eax, DWORD PTR [r8+rax]
	mov	DWORD PTR [rdx+rcx], eax

; 1984 : 		out[14] = tab[14];

	mov	eax, 4
	imul	rax, rax, 14
	mov	ecx, 4
	imul	rcx, rcx, 14
	mov	rdx, QWORD PTR out$[rbp]
	mov	r8, QWORD PTR tab$[rbp]
	mov	eax, DWORD PTR [r8+rax]
	mov	DWORD PTR [rdx+rcx], eax

; 1985 : 		out[30] = tab[15];

	mov	eax, 4
	imul	rax, rax, 15
	mov	ecx, 4
	imul	rcx, rcx, 30
	mov	rdx, QWORD PTR out$[rbp]
	mov	r8, QWORD PTR tab$[rbp]
	mov	eax, DWORD PTR [r8+rax]
	mov	DWORD PTR [rdx+rcx], eax

; 1986 : 
; 1987 : 		ADD(24, 28);

	mov	eax, 4
	imul	rax, rax, 24
	mov	ecx, 4
	imul	rcx, rcx, 28
	mov	rdx, QWORD PTR tab$[rbp]
	mov	eax, DWORD PTR [rdx+rax]
	mov	rdx, QWORD PTR tab$[rbp]
	add	eax, DWORD PTR [rdx+rcx]
	mov	ecx, 4
	imul	rcx, rcx, 24
	mov	rdx, QWORD PTR tab$[rbp]
	mov	DWORD PTR [rdx+rcx], eax

; 1988 : 		ADD(28, 26);

	mov	eax, 4
	imul	rax, rax, 28
	mov	ecx, 4
	imul	rcx, rcx, 26
	mov	rdx, QWORD PTR tab$[rbp]
	mov	eax, DWORD PTR [rdx+rax]
	mov	rdx, QWORD PTR tab$[rbp]
	add	eax, DWORD PTR [rdx+rcx]
	mov	ecx, 4
	imul	rcx, rcx, 28
	mov	rdx, QWORD PTR tab$[rbp]
	mov	DWORD PTR [rdx+rcx], eax

; 1989 : 		ADD(26, 30);

	mov	eax, 4
	imul	rax, rax, 26
	mov	ecx, 4
	imul	rcx, rcx, 30
	mov	rdx, QWORD PTR tab$[rbp]
	mov	eax, DWORD PTR [rdx+rax]
	mov	rdx, QWORD PTR tab$[rbp]
	add	eax, DWORD PTR [rdx+rcx]
	mov	ecx, 4
	imul	rcx, rcx, 26
	mov	rdx, QWORD PTR tab$[rbp]
	mov	DWORD PTR [rdx+rcx], eax

; 1990 : 		ADD(30, 25);

	mov	eax, 4
	imul	rax, rax, 30
	mov	ecx, 4
	imul	rcx, rcx, 25
	mov	rdx, QWORD PTR tab$[rbp]
	mov	eax, DWORD PTR [rdx+rax]
	mov	rdx, QWORD PTR tab$[rbp]
	add	eax, DWORD PTR [rdx+rcx]
	mov	ecx, 4
	imul	rcx, rcx, 30
	mov	rdx, QWORD PTR tab$[rbp]
	mov	DWORD PTR [rdx+rcx], eax

; 1991 : 		ADD(25, 29);

	mov	eax, 4
	imul	rax, rax, 25
	mov	ecx, 4
	imul	rcx, rcx, 29
	mov	rdx, QWORD PTR tab$[rbp]
	mov	eax, DWORD PTR [rdx+rax]
	mov	rdx, QWORD PTR tab$[rbp]
	add	eax, DWORD PTR [rdx+rcx]
	mov	ecx, 4
	imul	rcx, rcx, 25
	mov	rdx, QWORD PTR tab$[rbp]
	mov	DWORD PTR [rdx+rcx], eax

; 1992 : 		ADD(29, 27);

	mov	eax, 4
	imul	rax, rax, 29
	mov	ecx, 4
	imul	rcx, rcx, 27
	mov	rdx, QWORD PTR tab$[rbp]
	mov	eax, DWORD PTR [rdx+rax]
	mov	rdx, QWORD PTR tab$[rbp]
	add	eax, DWORD PTR [rdx+rcx]
	mov	ecx, 4
	imul	rcx, rcx, 29
	mov	rdx, QWORD PTR tab$[rbp]
	mov	DWORD PTR [rdx+rcx], eax

; 1993 : 		ADD(27, 31);

	mov	eax, 4
	imul	rax, rax, 27
	mov	ecx, 4
	imul	rcx, rcx, 31
	mov	rdx, QWORD PTR tab$[rbp]
	mov	eax, DWORD PTR [rdx+rax]
	mov	rdx, QWORD PTR tab$[rbp]
	add	eax, DWORD PTR [rdx+rcx]
	mov	ecx, 4
	imul	rcx, rcx, 27
	mov	rdx, QWORD PTR tab$[rbp]
	mov	DWORD PTR [rdx+rcx], eax

; 1994 : 
; 1995 : 		out[1] = tab[16] + tab[24];

	mov	eax, 4
	imul	rax, rax, 16
	mov	ecx, 4
	imul	rcx, rcx, 24
	mov	rdx, QWORD PTR tab$[rbp]
	mov	eax, DWORD PTR [rdx+rax]
	mov	rdx, QWORD PTR tab$[rbp]
	add	eax, DWORD PTR [rdx+rcx]
	mov	ecx, 4
	imul	rcx, rcx, 1
	mov	rdx, QWORD PTR out$[rbp]
	mov	DWORD PTR [rdx+rcx], eax

; 1996 : 		out[17] = tab[17] + tab[25];

	mov	eax, 4
	imul	rax, rax, 17
	mov	ecx, 4
	imul	rcx, rcx, 25
	mov	rdx, QWORD PTR tab$[rbp]
	mov	eax, DWORD PTR [rdx+rax]
	mov	rdx, QWORD PTR tab$[rbp]
	add	eax, DWORD PTR [rdx+rcx]
	mov	ecx, 4
	imul	rcx, rcx, 17
	mov	rdx, QWORD PTR out$[rbp]
	mov	DWORD PTR [rdx+rcx], eax

; 1997 : 		out[9] = tab[18] + tab[26];

	mov	eax, 4
	imul	rax, rax, 18
	mov	ecx, 4
	imul	rcx, rcx, 26
	mov	rdx, QWORD PTR tab$[rbp]
	mov	eax, DWORD PTR [rdx+rax]
	mov	rdx, QWORD PTR tab$[rbp]
	add	eax, DWORD PTR [rdx+rcx]
	mov	ecx, 4
	imul	rcx, rcx, 9
	mov	rdx, QWORD PTR out$[rbp]
	mov	DWORD PTR [rdx+rcx], eax

; 1998 : 		out[25] = tab[19] + tab[27];

	mov	eax, 4
	imul	rax, rax, 19
	mov	ecx, 4
	imul	rcx, rcx, 27
	mov	rdx, QWORD PTR tab$[rbp]
	mov	eax, DWORD PTR [rdx+rax]
	mov	rdx, QWORD PTR tab$[rbp]
	add	eax, DWORD PTR [rdx+rcx]
	mov	ecx, 4
	imul	rcx, rcx, 25
	mov	rdx, QWORD PTR out$[rbp]
	mov	DWORD PTR [rdx+rcx], eax

; 1999 : 		out[5] = tab[20] + tab[28];

	mov	eax, 4
	imul	rax, rax, 20
	mov	ecx, 4
	imul	rcx, rcx, 28
	mov	rdx, QWORD PTR tab$[rbp]
	mov	eax, DWORD PTR [rdx+rax]
	mov	rdx, QWORD PTR tab$[rbp]
	add	eax, DWORD PTR [rdx+rcx]
	mov	ecx, 4
	imul	rcx, rcx, 5
	mov	rdx, QWORD PTR out$[rbp]
	mov	DWORD PTR [rdx+rcx], eax

; 2000 : 		out[21] = tab[21] + tab[29];

	mov	eax, 4
	imul	rax, rax, 21
	mov	ecx, 4
	imul	rcx, rcx, 29
	mov	rdx, QWORD PTR tab$[rbp]
	mov	eax, DWORD PTR [rdx+rax]
	mov	rdx, QWORD PTR tab$[rbp]
	add	eax, DWORD PTR [rdx+rcx]
	mov	ecx, 4
	imul	rcx, rcx, 21
	mov	rdx, QWORD PTR out$[rbp]
	mov	DWORD PTR [rdx+rcx], eax

; 2001 : 		out[13] = tab[22] + tab[30];

	mov	eax, 4
	imul	rax, rax, 22
	mov	ecx, 4
	imul	rcx, rcx, 30
	mov	rdx, QWORD PTR tab$[rbp]
	mov	eax, DWORD PTR [rdx+rax]
	mov	rdx, QWORD PTR tab$[rbp]
	add	eax, DWORD PTR [rdx+rcx]
	mov	ecx, 4
	imul	rcx, rcx, 13
	mov	rdx, QWORD PTR out$[rbp]
	mov	DWORD PTR [rdx+rcx], eax

; 2002 : 		out[29] = tab[23] + tab[31];

	mov	eax, 4
	imul	rax, rax, 23
	mov	ecx, 4
	imul	rcx, rcx, 31
	mov	rdx, QWORD PTR tab$[rbp]
	mov	eax, DWORD PTR [rdx+rax]
	mov	rdx, QWORD PTR tab$[rbp]
	add	eax, DWORD PTR [rdx+rcx]
	mov	ecx, 4
	imul	rcx, rcx, 29
	mov	rdx, QWORD PTR out$[rbp]
	mov	DWORD PTR [rdx+rcx], eax

; 2003 : 		out[3] = tab[24] + tab[20];

	mov	eax, 4
	imul	rax, rax, 24
	mov	ecx, 4
	imul	rcx, rcx, 20
	mov	rdx, QWORD PTR tab$[rbp]
	mov	eax, DWORD PTR [rdx+rax]
	mov	rdx, QWORD PTR tab$[rbp]
	add	eax, DWORD PTR [rdx+rcx]
	mov	ecx, 4
	imul	rcx, rcx, 3
	mov	rdx, QWORD PTR out$[rbp]
	mov	DWORD PTR [rdx+rcx], eax

; 2004 : 		out[19] = tab[25] + tab[21];

	mov	eax, 4
	imul	rax, rax, 25
	mov	ecx, 4
	imul	rcx, rcx, 21
	mov	rdx, QWORD PTR tab$[rbp]
	mov	eax, DWORD PTR [rdx+rax]
	mov	rdx, QWORD PTR tab$[rbp]
	add	eax, DWORD PTR [rdx+rcx]
	mov	ecx, 4
	imul	rcx, rcx, 19
	mov	rdx, QWORD PTR out$[rbp]
	mov	DWORD PTR [rdx+rcx], eax

; 2005 : 		out[11] = tab[26] + tab[22];

	mov	eax, 4
	imul	rax, rax, 26
	mov	ecx, 4
	imul	rcx, rcx, 22
	mov	rdx, QWORD PTR tab$[rbp]
	mov	eax, DWORD PTR [rdx+rax]
	mov	rdx, QWORD PTR tab$[rbp]
	add	eax, DWORD PTR [rdx+rcx]
	mov	ecx, 4
	imul	rcx, rcx, 11
	mov	rdx, QWORD PTR out$[rbp]
	mov	DWORD PTR [rdx+rcx], eax

; 2006 : 		out[27] = tab[27] + tab[23];

	mov	eax, 4
	imul	rax, rax, 27
	mov	ecx, 4
	imul	rcx, rcx, 23
	mov	rdx, QWORD PTR tab$[rbp]
	mov	eax, DWORD PTR [rdx+rax]
	mov	rdx, QWORD PTR tab$[rbp]
	add	eax, DWORD PTR [rdx+rcx]
	mov	ecx, 4
	imul	rcx, rcx, 27
	mov	rdx, QWORD PTR out$[rbp]
	mov	DWORD PTR [rdx+rcx], eax

; 2007 : 		out[7] = tab[28] + tab[18];

	mov	eax, 4
	imul	rax, rax, 28
	mov	ecx, 4
	imul	rcx, rcx, 18
	mov	rdx, QWORD PTR tab$[rbp]
	mov	eax, DWORD PTR [rdx+rax]
	mov	rdx, QWORD PTR tab$[rbp]
	add	eax, DWORD PTR [rdx+rcx]
	mov	ecx, 4
	imul	rcx, rcx, 7
	mov	rdx, QWORD PTR out$[rbp]
	mov	DWORD PTR [rdx+rcx], eax

; 2008 : 		out[23] = tab[29] + tab[19];

	mov	eax, 4
	imul	rax, rax, 29
	mov	ecx, 4
	imul	rcx, rcx, 19
	mov	rdx, QWORD PTR tab$[rbp]
	mov	eax, DWORD PTR [rdx+rax]
	mov	rdx, QWORD PTR tab$[rbp]
	add	eax, DWORD PTR [rdx+rcx]
	mov	ecx, 4
	imul	rcx, rcx, 23
	mov	rdx, QWORD PTR out$[rbp]
	mov	DWORD PTR [rdx+rcx], eax

; 2009 : 		out[15] = tab[30] + tab[17];

	mov	eax, 4
	imul	rax, rax, 30
	mov	ecx, 4
	imul	rcx, rcx, 17
	mov	rdx, QWORD PTR tab$[rbp]
	mov	eax, DWORD PTR [rdx+rax]
	mov	rdx, QWORD PTR tab$[rbp]
	add	eax, DWORD PTR [rdx+rcx]
	mov	ecx, 4
	imul	rcx, rcx, 15
	mov	rdx, QWORD PTR out$[rbp]
	mov	DWORD PTR [rdx+rcx], eax

; 2010 : 		out[31] = tab[31];

	mov	eax, 4
	imul	rax, rax, 31
	mov	ecx, 4
	imul	rcx, rcx, 31
	mov	rdx, QWORD PTR out$[rbp]
	mov	r8, QWORD PTR tab$[rbp]
	mov	eax, DWORD PTR [r8+rax]
	mov	DWORD PTR [rdx+rcx], eax

; 2011 : 	}

	lea	rsp, QWORD PTR [rbp+80]
	pop	rbp
	ret	0
?dct32@@YAXPEAH0@Z ENDP					; dct32
_TEXT	ENDS
; Function compile flags: /Odtp /ZI
; File C:\Users\paras\source\repos\grep-name\XenevaOS\Process\AudioPlayer\minimp3.cpp
;	COMDAT ?compute_imdct@@YAXPEAU_mp3_context@@PEAU_granule@@PEAH2@Z
_TEXT	SEGMENT
ptr$ = 0
win$ = 8
win1$ = 16
buf$ = 24
out_ptr$ = 32
ptr1$ = 40
out2$ = 48
i$ = 96
j$ = 100
mdct_long_end$ = 104
v$ = 108
sblimit$ = 112
s$ = 208
g$ = 216
sb_samples$ = 224
mdct_buf$ = 232
?compute_imdct@@YAXPEAU_mp3_context@@PEAU_granule@@PEAH2@Z PROC ; compute_imdct, COMDAT

; 1664 : 		) {

	mov	QWORD PTR [rsp+32], r9
	mov	QWORD PTR [rsp+24], r8
	mov	QWORD PTR [rsp+16], rdx
	mov	QWORD PTR [rsp+8], rcx
	push	rbp
	sub	rsp, 224				; 000000e0H
	lea	rbp, QWORD PTR [rsp+32]

; 1665 : 		int32_t *ptr, *win, *win1, *buf, *out_ptr, *ptr1;
; 1666 : 		int32_t out2[12];
; 1667 : 		int i, j, mdct_long_end, v, sblimit;
; 1668 : 
; 1669 : 		/* find last non zero block */
; 1670 : 		ptr = g->sb_hybrid + 576;

	mov	rax, QWORD PTR g$[rbp]
	add	rax, 2420				; 00000974H
	mov	QWORD PTR ptr$[rbp], rax

; 1671 : 		ptr1 = g->sb_hybrid + 2 * 18;

	mov	rax, QWORD PTR g$[rbp]
	add	rax, 260				; 00000104H
	mov	QWORD PTR ptr1$[rbp], rax
$LN2@compute_im:

; 1672 : 		while (ptr >= ptr1) {

	mov	rax, QWORD PTR ptr1$[rbp]
	cmp	QWORD PTR ptr$[rbp], rax
	jb	SHORT $LN3@compute_im

; 1673 : 			ptr -= 6;

	mov	rax, QWORD PTR ptr$[rbp]
	sub	rax, 24
	mov	QWORD PTR ptr$[rbp], rax

; 1674 : 			v = ptr[0] | ptr[1] | ptr[2] | ptr[3] | ptr[4] | ptr[5];

	mov	eax, 4
	imul	rax, rax, 0
	mov	ecx, 4
	imul	rcx, rcx, 1
	mov	rdx, QWORD PTR ptr$[rbp]
	mov	r8, QWORD PTR ptr$[rbp]
	mov	ecx, DWORD PTR [r8+rcx]
	mov	eax, DWORD PTR [rdx+rax]
	or	eax, ecx
	mov	ecx, 4
	imul	rcx, rcx, 2
	mov	rdx, QWORD PTR ptr$[rbp]
	or	eax, DWORD PTR [rdx+rcx]
	mov	ecx, 4
